(igraph
Graph
p0
(dp1
S'labelingConstraints'
p2
I-1
sS'edges'
p3
(lp4
(igraph
Edge
p5
(dp6
S'direction'
p7
I1
sS'selected'
p8
I00
sS'height'
p9
I5
sS'vs'
p10
(lp11
(igraph
Vertex
p12
(dp13
S'xnorm'
p14
F0.25
sg8
I00
sS'label'
p15
S'NULL'
p16
sS'y'
p17
F-148.0
sS'x'
p18
F-123.5
sS'circle'
p19
I4511521
sS'id'
p20
S'14987.5724504'
p21
sS'ynorm'
p22
F0.0
sba(igraph
Vertex
p23
(dp24
g14
F0.5
sg8
I00
sg15
g16
sg17
F-148.0
sg18
F-180.33333333333331
sg19
I4511522
sg20
S'14987.5724932'
p25
sg22
F0.0
sbasS'wrap'
p26
I00
sS'curved'
p27
I00
sS'line'
p28
I4511400
sg20
S'14987.5957567'
p29
sba(igraph
Edge
p30
(dp31
g7
I1
sg8
I00
sg9
I5
sg10
(lp32
g23
a(igraph
Vertex
p33
(dp34
g14
F0.75
sg8
I00
sg15
g16
sg17
F-148.0
sg18
F-237.16666666666669
sg19
I4511523
sg20
S'14987.5725465'
p35
sg22
F0.0
sbasg26
I00
sg27
I00
sg28
I4511401
sg20
S'14987.5959227'
p36
sba(igraph
Edge
p37
(dp38
g7
I1
sg8
I00
sg9
I5
sg10
(lp39
g33
a(igraph
Vertex
p40
(dp41
g14
F1.0
sg8
I00
sg15
g16
sg17
F-148.0
sg18
F-294.0
sg19
I4511524
sg20
S'14987.5726127'
p42
sg22
F0.0
sbasg26
I00
sg27
I00
sg28
I4511402
sg20
S'14987.5961311'
p43
sba(igraph
Edge
p44
(dp45
g7
I1
sg8
I00
sg9
I5
sg10
(lp46
(igraph
Vertex
p47
(dp48
g14
F0.25
sg8
I00
sg15
g16
sg17
F-101.62162162162161
sg18
F-123.5
sg19
I4511525
sg20
S'14987.5727921'
p49
sg22
F0.11148648648648649
sba(igraph
Vertex
p50
(dp51
g14
F0.5
sg8
I01
sg15
I0
sg17
F-101.62162162162161
sg18
F-180.33333333333331
sg19
I4511527
sg20
S'14987.5729049'
p52
sg22
F0.11148648648648649
sbasg26
I00
sg27
I00
sg28
I4511403
sg20
S'14987.5972404'
p53
sba(igraph
Edge
p54
(dp55
g7
I1
sg8
I00
sg9
I5
sg10
(lp56
g50
a(igraph
Vertex
p57
(dp58
g14
F0.75
sg8
I00
sg15
g16
sg17
F-101.62162162162161
sg18
F-237.16666666666669
sg19
I4511529
sg20
S'14987.5730343'
p59
sg22
F0.11148648648648649
sbasg26
I00
sg27
I00
sg28
I4511404
sg20
S'14987.5976508'
p60
sba(igraph
Edge
p61
(dp62
g7
I1
sg8
I00
sg9
I5
sg10
(lp63
g57
a(igraph
Vertex
p64
(dp65
g14
F1.0
sg8
I00
sg15
g16
sg17
F-101.62162162162161
sg18
F-294.0
sg19
I4511530
sg20
S'14987.5733472'
p66
sg22
F0.11148648648648649
sbasg26
I00
sg27
I00
sg28
I4511405
sg20
S'14987.5980922'
p67
sba(igraph
Edge
p68
(dp69
g7
I1
sg8
I00
sg9
I5
sg10
(lp70
(igraph
Vertex
p71
(dp72
g14
F0.25
sg8
I00
sg15
g16
sg17
F-55.243243243243242
sg18
F-123.5
sg19
I4511531
sg20
S'14987.5736939'
p73
sg22
F0.22297297297297297
sba(igraph
Vertex
p74
(dp75
g14
F0.5
sg8
I00
sg15
g16
sg17
F-55.243243243243242
sg18
F-180.33333333333331
sg19
I4511532
sg20
S'14987.5738886'
p76
sg22
F0.22297297297297297
sbasg26
I00
sg27
I00
sg28
I4511406
sg20
S'14987.5997773'
p77
sba(igraph
Edge
p78
(dp79
g7
I1
sg8
I00
sg9
I5
sg10
(lp80
g74
a(igraph
Vertex
p81
(dp82
g14
F0.75
sg8
I00
sg15
g16
sg17
F-55.243243243243242
sg18
F-237.16666666666669
sg19
I4511533
sg20
S'14987.574107'
p83
sg22
F0.22297297297297297
sbasg26
I00
sg27
I00
sg28
I4511407
sg20
S'14987.600423'
p84
sba(igraph
Edge
p85
(dp86
g7
I1
sg8
I00
sg9
I5
sg10
(lp87
g81
a(igraph
Vertex
p88
(dp89
g14
F1.0
sg8
I00
sg15
g16
sg17
F-55.243243243243242
sg18
F-294.0
sg19
I4511534
sg20
S'14987.5743317'
p90
sg22
F0.22297297297297297
sbasg26
I00
sg27
I00
sg28
I4511408
sg20
S'14987.6010973'
p91
sba(igraph
Edge
p92
(dp93
g7
I1
sg8
I00
sg9
I5
sg10
(lp94
(igraph
Vertex
p95
(dp96
g14
F0.25
sg8
I00
sg15
I0
sg17
F-8.8648648648648418
sg18
F-123.5
sg19
I4511535
sg20
S'14987.5748264'
p97
sg22
F0.33445945945945948
sba(igraph
Vertex
p98
(dp99
g14
F0.5
sg8
I00
sg15
g16
sg17
F-8.8648648648648418
sg18
F-180.33333333333331
sg19
I4511537
sg20
S'14987.5751982'
p100
sg22
F0.33445945945945948
sbasg26
I00
sg27
I00
sg28
I4511409
sg20
S'14987.6033943'
p101
sba(igraph
Edge
p102
(dp103
g7
I1
sg8
I00
sg9
I5
sg10
(lp104
g98
a(igraph
Vertex
p105
(dp106
g14
F0.75
sg8
I00
sg15
g16
sg17
F-8.8648648648648418
sg18
F-237.16666666666669
sg19
I4511538
sg20
S'14987.5754863'
p107
sg22
F0.33445945945945948
sbasg26
I00
sg27
I00
sg28
I4511410
sg20
S'14987.6042634'
p108
sba(igraph
Edge
p109
(dp110
g7
I1
sg8
I00
sg9
I5
sg10
(lp111
g105
a(igraph
Vertex
p112
(dp113
g14
F1.0
sg8
I00
sg15
g16
sg17
F-8.8648648648648418
sg18
F-294.0
sg19
I4511539
sg20
S'14987.5757919'
p114
sg22
F0.33445945945945948
sbasg26
I00
sg27
I00
sg28
I4511411
sg20
S'14987.6051741'
p115
sba(igraph
Edge
p116
(dp117
g7
I1
sg8
I00
sg9
I5
sg10
(lp118
(igraph
Vertex
p119
(dp120
g14
F0.25
sg8
I00
sg15
g16
sg17
F37.513513513513516
sg18
F-123.5
sg19
I4511540
sg20
S'14987.5767658'
p121
sg22
F0.44594594594594594
sba(igraph
Vertex
p122
(dp123
g14
F0.5
sg8
I00
sg15
g16
sg17
F37.513513513513516
sg18
F-180.33333333333331
sg19
I4511541
sg20
S'14987.5772798'
p124
sg22
F0.44594594594594594
sbasg26
I00
sg27
I00
sg28
I4511412
sg20
S'14987.6081779'
p125
sba(igraph
Edge
p126
(dp127
g7
I1
sg8
I00
sg9
I5
sg10
(lp128
g122
a(igraph
Vertex
p129
(dp130
g14
F0.75
sg8
I00
sg15
g16
sg17
F37.513513513513516
sg18
F-237.16666666666669
sg19
I4511542
sg20
S'14987.5776522'
p131
sg22
F0.44594594594594594
sbasg26
I00
sg27
I00
sg28
I4511413
sg20
S'14987.6094414'
p132
sba(igraph
Edge
p133
(dp134
g7
I1
sg8
I00
sg9
I5
sg10
(lp135
g129
a(igraph
Vertex
p136
(dp137
g14
F1.0
sg8
I00
sg15
g16
sg17
F37.513513513513516
sg18
F-294.0
sg19
I4511543
sg20
S'14987.5780405'
p138
sg22
F0.44594594594594594
sbasg26
I00
sg27
I00
sg28
I4511414
sg20
S'14987.6105849'
p139
sba(igraph
Edge
p140
(dp141
g7
I1
sg8
I00
sg9
I5
sg10
(lp142
(igraph
Vertex
p143
(dp144
g14
F0.25
sg8
I00
sg15
g16
sg17
F83.891891891891902
sg18
F-123.5
sg19
I4511544
sg20
S'14987.5788621'
p145
sg22
F0.55743243243243246
sba(igraph
Vertex
p146
(dp147
g14
F0.5
sg8
I00
sg15
I0
sg17
F83.891891891891902
sg18
F-180.33333333333331
sg19
I4511545
sg20
S'14987.5792971'
p148
sg22
F0.55743243243243246
sbasg26
I00
sg27
I00
sg28
I4511415
sg20
S'14987.6144541'
p149
sba(igraph
Edge
p150
(dp151
g7
I1
sg8
I00
sg9
I5
sg10
(lp152
g146
a(igraph
Vertex
p153
(dp154
g14
F0.75
sg8
I00
sg15
g16
sg17
F83.891891891891902
sg18
F-237.16666666666669
sg19
I4511547
sg20
S'14987.5797463'
p155
sg22
F0.55743243243243246
sbasg26
I00
sg27
I00
sg28
I4511416
sg20
S'14987.6158819'
p156
sba(igraph
Edge
p157
(dp158
g7
I1
sg8
I00
sg9
I5
sg10
(lp159
g153
a(igraph
Vertex
p160
(dp161
g14
F1.0
sg8
I00
sg15
g16
sg17
F83.891891891891902
sg18
F-294.0
sg19
I4511548
sg20
S'14987.5803464'
p162
sg22
F0.55743243243243246
sbasg26
I00
sg27
I00
sg28
I4511417
sg20
S'14987.6172776'
p163
sba(igraph
Edge
p164
(dp165
g7
I1
sg8
I00
sg9
I5
sg10
(lp166
(igraph
Vertex
p167
(dp168
g14
F0.25
sg8
I00
sg15
I0
sg17
F130.27027027027032
sg18
F-123.5
sg19
I4511549
sg20
S'14987.5813661'
p169
sg22
F0.66891891891891897
sba(igraph
Vertex
p170
(dp171
g14
F0.5
sg8
I00
sg15
g16
sg17
F130.27027027027032
sg18
F-180.33333333333331
sg19
I4511551
sg20
S'14987.5818888'
p172
sg22
F0.66891891891891897
sbasg26
I00
sg27
I00
sg28
I4511418
sg20
S'14987.6220992'
p173
sba(igraph
Edge
p174
(dp175
g7
I1
sg8
I00
sg9
I5
sg10
(lp176
g170
a(igraph
Vertex
p177
(dp178
g14
F0.75
sg8
I00
sg15
g16
sg17
F130.27027027027032
sg18
F-237.16666666666669
sg19
I4511552
sg20
S'14987.5825053'
p179
sg22
F0.66891891891891897
sbasg26
I00
sg27
I00
sg28
I4511419
sg20
S'14987.6236561'
p180
sba(igraph
Edge
p181
(dp182
g7
I1
sg8
I00
sg9
I5
sg10
(lp183
g177
a(igraph
Vertex
p184
(dp185
g14
F1.0
sg8
I00
sg15
g16
sg17
F130.27027027027032
sg18
F-294.0
sg19
I4511553
sg20
S'14987.5831467'
p186
sg22
F0.66891891891891897
sbasg26
I00
sg27
I00
sg28
I4511420
sg20
S'14987.6253705'
p187
sba(igraph
Edge
p188
(dp189
g7
I1
sg8
I00
sg9
I5
sg10
(lp190
(igraph
Vertex
p191
(dp192
g14
F0.25
sg8
I00
sg15
g16
sg17
F176.64864864864865
sg18
F-123.5
sg19
I4511554
sg20
S'14987.584417'
p193
sg22
F0.78040540540540537
sba(igraph
Vertex
p194
(dp195
g14
F0.5
sg8
I00
sg15
g16
sg17
F176.64864864864865
sg18
F-180.33333333333331
sg19
I4511555
sg20
S'14987.5852934'
p196
sg22
F0.78040540540540537
sbasg26
I00
sg27
I00
sg28
I4511421
sg20
S'14987.6305832'
p197
sba(igraph
Edge
p198
(dp199
g7
I1
sg8
I00
sg9
I5
sg10
(lp200
g194
a(igraph
Vertex
p201
(dp202
g14
F0.75
sg8
I00
sg15
I0
sg17
F176.64864864864865
sg18
F-237.16666666666669
sg19
I4511556
sg20
S'14987.5859745'
p203
sg22
F0.78040540540540537
sbasg26
I00
sg27
I00
sg28
I4511422
sg20
S'14987.632429'
p204
sba(igraph
Edge
p205
(dp206
g7
I1
sg8
I00
sg9
I5
sg10
(lp207
g201
a(igraph
Vertex
p208
(dp209
g14
F1.0
sg8
I00
sg15
g16
sg17
F176.64864864864865
sg18
F-294.0
sg19
I4511558
sg20
S'14987.586645'
p210
sg22
F0.78040540540540537
sbasg26
I00
sg27
I00
sg28
I4511423
sg20
S'14987.6342767'
p211
sba(igraph
Edge
p212
(dp213
g7
I1
sg8
I00
sg9
I5
sg10
(lp214
(igraph
Vertex
p215
(dp216
g14
F0.25
sg8
I00
sg15
g16
sg17
F223.02702702702703
sg18
F-123.5
sg19
I4511559
sg20
S'14987.5882242'
p217
sg22
F0.89189189189189189
sba(igraph
Vertex
p218
(dp219
g14
F0.5
sg8
I00
sg15
g16
sg17
F223.02702702702703
sg18
F-180.33333333333331
sg19
I4511560
sg20
S'14987.5892296'
p220
sg22
F0.89189189189189189
sbasg26
I00
sg27
I00
sg28
I4511424
sg20
S'14987.6402635'
p221
sba(igraph
Edge
p222
(dp223
g7
I1
sg8
I00
sg9
I5
sg10
(lp224
g218
a(igraph
Vertex
p225
(dp226
g14
F0.75
sg8
I00
sg15
g16
sg17
F223.02702702702703
sg18
F-237.16666666666669
sg19
I4511561
sg20
S'14987.5899571'
p227
sg22
F0.89189189189189189
sbasg26
I00
sg27
I00
sg28
I4511425
sg20
S'14987.6424532'
p228
sba(igraph
Edge
p229
(dp230
g7
I1
sg8
I00
sg9
I5
sg10
(lp231
g225
a(igraph
Vertex
p232
(dp233
g14
F1.0
sg8
I00
sg15
g16
sg17
F223.02702702702703
sg18
F-294.0
sg19
I4511562
sg20
S'14987.5907913'
p234
sg22
F0.89189189189189189
sbasg26
I00
sg27
I00
sg28
I4511426
sg20
S'14987.6447032'
p235
sba(igraph
Edge
p236
(dp237
g7
I1
sg8
I00
sg9
I5
sg10
(lp238
(igraph
Vertex
p239
(dp240
g14
F0.25
sg8
I00
sg15
g16
sg17
F269.40540540540536
sg18
F-123.5
sg19
I4511563
sg20
S'14987.592389'
p241
sg22
F1.0033783783783783
sba(igraph
Vertex
p242
(dp243
g14
F0.5
sg8
I00
sg15
g16
sg17
F269.40540540540536
sg18
F-180.33333333333331
sg19
I4511564
sg20
S'14987.5931935'
p244
sg22
F1.0033783783783783
sbasg26
I00
sg27
I00
sg28
I4511427
sg20
S'14987.6513191'
p245
sba(igraph
Edge
p246
(dp247
g7
I1
sg8
I00
sg9
I5
sg10
(lp248
g242
a(igraph
Vertex
p249
(dp250
g14
F0.75
sg8
I00
sg15
g16
sg17
F269.40540540540536
sg18
F-237.16666666666669
sg19
I4511565
sg20
S'14987.5939724'
p251
sg22
F1.0033783783783783
sbasg26
I00
sg27
I00
sg28
I4511428
sg20
S'14987.6537091'
p252
sba(igraph
Edge
p253
(dp254
g7
I1
sg8
I00
sg9
I5
sg10
(lp255
g249
a(igraph
Vertex
p256
(dp257
g14
F1.0
sg8
I00
sg15
I0
sg17
F269.40540540540536
sg18
F-294.0
sg19
I4511566
sg20
S'14987.5947653'
p258
sg22
F1.0033783783783783
sbasg26
I00
sg27
I00
sg28
I4511429
sg20
S'14987.6561314'
p259
sba(igraph
Edge
p260
(dp261
g7
I1
sg8
I00
sg9
I5
sg10
(lp262
g12
ag50
asg26
I00
sg27
I00
sg28
I4511430
sg20
S'14987.6636209'
p263
sba(igraph
Edge
p264
(dp265
g7
I1
sg8
I00
sg9
I5
sg10
(lp266
g23
ag50
asg26
I00
sg27
I00
sg28
I4511431
sg20
S'14987.6665562'
p267
sba(igraph
Edge
p268
(dp269
g7
I1
sg8
I00
sg9
I5
sg10
(lp270
g33
ag64
asg26
I00
sg27
I00
sg28
I4511432
sg20
S'14987.6691105'
p271
sba(igraph
Edge
p272
(dp273
g7
I1
sg8
I00
sg9
I5
sg10
(lp274
g40
ag64
asg26
I00
sg27
I00
sg28
I4511433
sg20
S'14987.671665'
p275
sba(igraph
Edge
p276
(dp277
g7
I1
sg8
I00
sg9
I5
sg10
(lp278
g12
ag47
asg26
I00
sg27
I00
sg28
I4511434
sg20
S'14987.6770729'
p279
sba(igraph
Edge
p280
(dp281
g7
I1
sg8
I00
sg9
I5
sg10
(lp282
g23
ag57
asg26
I00
sg27
I00
sg28
I4511435
sg20
S'14987.6798384'
p283
sba(igraph
Edge
p284
(dp285
g7
I1
sg8
I00
sg9
I5
sg10
(lp286
g33
ag57
asg26
I00
sg27
I00
sg28
I4511436
sg20
S'14987.6832542'
p287
sba(igraph
Edge
p288
(dp289
g7
I1
sg8
I00
sg9
I5
sg10
(lp290
g23
ag242
asg26
I00
sg27
I00
sg28
I4511437
sg20
S'14987.6961231'
p291
sba(igraph
Edge
p292
(dp293
g7
I1
sg8
I00
sg9
I5
sg10
(lp294
g33
ag242
asg26
I00
sg27
I00
sg28
I4511438
sg20
S'14987.6993534'
p295
sba(igraph
Edge
p296
(dp297
g7
I1
sg8
I00
sg9
I5
sg10
(lp298
g40
ag256
asg26
I00
sg27
I00
sg28
I4511439
sg20
S'14987.7024901'
p299
sba(igraph
Edge
p300
(dp301
g7
I1
sg8
I00
sg9
I5
sg10
(lp302
g12
ag239
asg26
I00
sg27
I00
sg28
I4511440
sg20
S'14987.7087457'
p303
sba(igraph
Edge
p304
(dp305
g7
I1
sg8
I00
sg9
I5
sg10
(lp306
g23
ag239
asg26
I00
sg27
I00
sg28
I4511441
sg20
S'14987.7119025'
p307
sba(igraph
Edge
p308
(dp309
g7
I1
sg8
I01
sg9
I5
sg10
(lp310
g33
ag249
asg26
I00
sg27
I00
sg28
I4511443
sg20
S'14987.7135558'
p311
sba(igraph
Edge
p312
(dp313
g7
I1
sg8
I00
sg9
I5
sg10
(lp314
g40
ag249
asg26
I00
sg27
I00
sg28
I4511444
sg20
S'14987.7150621'
p315
sba(igraph
Edge
p316
(dp317
g7
I1
sg8
I00
sg9
I5
sg10
(lp318
g47
ag74
asg26
I00
sg27
I00
sg28
I4511445
sg20
S'14987.7199692'
p319
sba(igraph
Edge
p320
(dp321
g7
I1
sg8
I00
sg9
I5
sg10
(lp322
g50
ag74
asg26
I00
sg27
I00
sg28
I4511446
sg20
S'14987.7215847'
p323
sba(igraph
Edge
p324
(dp325
g7
I1
sg8
I00
sg9
I5
sg10
(lp326
g57
ag88
asg26
I00
sg27
I00
sg28
I4511447
sg20
S'14987.7232003'
p327
sba(igraph
Edge
p328
(dp329
g7
I1
sg8
I00
sg9
I5
sg10
(lp330
g64
ag88
asg26
I00
sg27
I00
sg28
I4511448
sg20
S'14987.7248653'
p331
sba(igraph
Edge
p332
(dp333
g7
I1
sg8
I00
sg9
I5
sg10
(lp334
g47
ag71
asg26
I00
sg27
I00
sg28
I4511449
sg20
S'14987.728166'
p335
sba(igraph
Edge
p336
(dp337
g7
I1
sg8
I00
sg9
I5
sg10
(lp338
g50
ag81
asg26
I00
sg27
I00
sg28
I4511450
sg20
S'14987.7298531'
p339
sba(igraph
Edge
p340
(dp341
g7
I1
sg8
I00
sg9
I5
sg10
(lp342
g57
ag81
asg26
I00
sg27
I00
sg28
I4511451
sg20
S'14987.7315729'
p343
sba(igraph
Edge
p344
(dp345
g7
I1
sg8
I00
sg9
I5
sg10
(lp346
g71
ag98
asg26
I00
sg27
I00
sg28
I4511452
sg20
S'14987.7369867'
p347
sba(igraph
Edge
p348
(dp349
g7
I1
sg8
I00
sg9
I5
sg10
(lp350
g74
ag98
asg26
I00
sg27
I00
sg28
I4511453
sg20
S'14987.7388556'
p351
sba(igraph
Edge
p352
(dp353
g7
I1
sg8
I00
sg9
I5
sg10
(lp354
g81
ag112
asg26
I00
sg27
I00
sg28
I4511454
sg20
S'14987.7406665'
p355
sba(igraph
Edge
p356
(dp357
g7
I1
sg8
I00
sg9
I5
sg10
(lp358
g88
ag112
asg26
I00
sg27
I00
sg28
I4511455
sg20
S'14987.7425773'
p359
sba(igraph
Edge
p360
(dp361
g7
I1
sg8
I00
sg9
I5
sg10
(lp362
g71
ag95
asg26
I00
sg27
I00
sg28
I4511456
sg20
S'14987.7464477'
p363
sba(igraph
Edge
p364
(dp365
g7
I1
sg8
I00
sg9
I5
sg10
(lp366
g74
ag105
asg26
I00
sg27
I00
sg28
I4511457
sg20
S'14987.7483814'
p367
sba(igraph
Edge
p368
(dp369
g7
I1
sg8
I00
sg9
I5
sg10
(lp370
g81
ag105
asg26
I00
sg27
I00
sg28
I4511458
sg20
S'14987.7504381'
p371
sba(igraph
Edge
p372
(dp373
g7
I1
sg8
I00
sg9
I5
sg10
(lp374
g95
ag122
asg26
I00
sg27
I00
sg28
I4511459
sg20
S'14987.7564408'
p375
sba(igraph
Edge
p376
(dp377
g7
I1
sg8
I00
sg9
I5
sg10
(lp378
g98
ag122
asg26
I00
sg27
I00
sg28
I4511460
sg20
S'14987.7584766'
p379
sba(igraph
Edge
p380
(dp381
g7
I1
sg8
I00
sg9
I5
sg10
(lp382
g105
ag136
asg26
I00
sg27
I00
sg28
I4511461
sg20
S'14987.760645'
p383
sba(igraph
Edge
p384
(dp385
g7
I1
sg8
I00
sg9
I5
sg10
(lp386
g112
ag136
asg26
I00
sg27
I00
sg28
I4511462
sg20
S'14987.7626869'
p387
sba(igraph
Edge
p388
(dp389
g7
I1
sg8
I00
sg9
I5
sg10
(lp390
g95
ag119
asg26
I00
sg27
I00
sg28
I4511463
sg20
S'14987.7668184'
p391
sba(igraph
Edge
p392
(dp393
g7
I1
sg8
I00
sg9
I5
sg10
(lp394
g98
ag129
asg26
I00
sg27
I00
sg28
I4511464
sg20
S'14987.7689159'
p395
sba(igraph
Edge
p396
(dp397
g7
I1
sg8
I00
sg9
I5
sg10
(lp398
g105
ag129
asg26
I00
sg27
I00
sg28
I4511465
sg20
S'14987.7710413'
p399
sba(igraph
Edge
p400
(dp401
g7
I1
sg8
I00
sg9
I5
sg10
(lp402
g119
ag146
asg26
I00
sg27
I00
sg28
I4511466
sg20
S'14987.7777265'
p403
sba(igraph
Edge
p404
(dp405
g7
I1
sg8
I00
sg9
I5
sg10
(lp406
g122
ag146
asg26
I00
sg27
I00
sg28
I4511467
sg20
S'14987.7800039'
p407
sba(igraph
Edge
p408
(dp409
g7
I1
sg8
I00
sg9
I5
sg10
(lp410
g129
ag160
asg26
I00
sg27
I00
sg28
I4511468
sg20
S'14987.7825299'
p411
sba(igraph
Edge
p412
(dp413
g7
I1
sg8
I00
sg9
I5
sg10
(lp414
g136
ag160
asg26
I00
sg27
I00
sg28
I4511469
sg20
S'14987.7848444'
p415
sba(igraph
Edge
p416
(dp417
g7
I1
sg8
I00
sg9
I5
sg10
(lp418
g119
ag143
asg26
I00
sg27
I00
sg28
I4511470
sg20
S'14987.7895551'
p419
sba(igraph
Edge
p420
(dp421
g7
I1
sg8
I00
sg9
I5
sg10
(lp422
g122
ag153
asg26
I00
sg27
I00
sg28
I4511471
sg20
S'14987.7919051'
p423
sba(igraph
Edge
p424
(dp425
g7
I1
sg8
I00
sg9
I5
sg10
(lp426
g129
ag153
asg26
I00
sg27
I00
sg28
I4511472
sg20
S'14987.7942861'
p427
sba(igraph
Edge
p428
(dp429
g7
I1
sg8
I00
sg9
I5
sg10
(lp430
g143
ag170
asg26
I00
sg27
I00
sg28
I4511473
sg20
S'14987.8015404'
p431
sba(igraph
Edge
p432
(dp433
g7
I1
sg8
I00
sg9
I5
sg10
(lp434
g146
ag170
asg26
I00
sg27
I00
sg28
I4511474
sg20
S'14987.8039597'
p435
sba(igraph
Edge
p436
(dp437
g7
I1
sg8
I00
sg9
I5
sg10
(lp438
g153
ag184
asg26
I00
sg27
I00
sg28
I4511475
sg20
S'14987.8064748'
p439
sba(igraph
Edge
p440
(dp441
g7
I1
sg8
I00
sg9
I5
sg10
(lp442
g160
ag184
asg26
I00
sg27
I00
sg28
I4511476
sg20
S'14987.8091067'
p443
sba(igraph
Edge
p444
(dp445
g7
I1
sg8
I00
sg9
I5
sg10
(lp446
g143
ag167
asg26
I00
sg27
I00
sg28
I4511477
sg20
S'14987.8142946'
p447
sba(igraph
Edge
p448
(dp449
g7
I1
sg8
I00
sg9
I5
sg10
(lp450
g146
ag177
asg26
I00
sg27
I00
sg28
I4511478
sg20
S'14987.816991'
p451
sba(igraph
Edge
p452
(dp453
g7
I1
sg8
I00
sg9
I5
sg10
(lp454
g153
ag177
asg26
I00
sg27
I00
sg28
I4511479
sg20
S'14987.8195584'
p455
sba(igraph
Edge
p456
(dp457
g7
I1
sg8
I00
sg9
I5
sg10
(lp458
g167
ag194
asg26
I00
sg27
I00
sg28
I4511480
sg20
S'14987.827418'
p459
sba(igraph
Edge
p460
(dp461
g7
I1
sg8
I00
sg9
I5
sg10
(lp462
g170
ag194
asg26
I00
sg27
I00
sg28
I4511481
sg20
S'14987.8302052'
p463
sba(igraph
Edge
p464
(dp465
g7
I1
sg8
I00
sg9
I5
sg10
(lp466
g177
ag208
asg26
I00
sg27
I00
sg28
I4511482
sg20
S'14987.832898'
p467
sba(igraph
Edge
p468
(dp469
g7
I1
sg8
I00
sg9
I5
sg10
(lp470
g184
ag208
asg26
I00
sg27
I00
sg28
I4511483
sg20
S'14987.8356397'
p471
sba(igraph
Edge
p472
(dp473
g7
I1
sg8
I00
sg9
I5
sg10
(lp474
g167
ag191
asg26
I00
sg27
I00
sg28
I4511484
sg20
S'14987.8413106'
p475
sba(igraph
Edge
p476
(dp477
g7
I1
sg8
I00
sg9
I5
sg10
(lp478
g170
ag201
asg26
I00
sg27
I00
sg28
I4511485
sg20
S'14987.8441903'
p479
sba(igraph
Edge
p480
(dp481
g7
I1
sg8
I00
sg9
I5
sg10
(lp482
g177
ag201
asg26
I00
sg27
I00
sg28
I4511486
sg20
S'14987.8469847'
p483
sba(igraph
Edge
p484
(dp485
g7
I1
sg8
I00
sg9
I5
sg10
(lp486
g191
ag218
asg26
I00
sg27
I00
sg28
I4511487
sg20
S'14987.8555068'
p487
sba(igraph
Edge
p488
(dp489
g7
I1
sg8
I00
sg9
I5
sg10
(lp490
g194
ag218
asg26
I00
sg27
I00
sg28
I4511488
sg20
S'14987.8586759'
p491
sba(igraph
Edge
p492
(dp493
g7
I1
sg8
I00
sg9
I5
sg10
(lp494
g201
ag232
asg26
I00
sg27
I00
sg28
I4511489
sg20
S'14987.8616961'
p495
sba(igraph
Edge
p496
(dp497
g7
I1
sg8
I00
sg9
I5
sg10
(lp498
g208
ag232
asg26
I00
sg27
I00
sg28
I4511490
sg20
S'14987.8645772'
p499
sba(igraph
Edge
p500
(dp501
g7
I1
sg8
I00
sg9
I5
sg10
(lp502
g191
ag215
asg26
I00
sg27
I00
sg28
I4511491
sg20
S'14987.8706523'
p503
sba(igraph
Edge
p504
(dp505
g7
I1
sg8
I00
sg9
I5
sg10
(lp506
g194
ag225
asg26
I00
sg27
I00
sg28
I4511492
sg20
S'14987.8736462'
p507
sba(igraph
Edge
p508
(dp509
g7
I1
sg8
I00
sg9
I5
sg10
(lp510
g201
ag225
asg26
I00
sg27
I00
sg28
I4511493
sg20
S'14987.876722'
p511
sba(igraph
Edge
p512
(dp513
g7
I1
sg8
I00
sg9
I5
sg10
(lp514
g215
ag242
asg26
I00
sg27
I00
sg28
I4511494
sg20
S'14987.8861911'
p515
sba(igraph
Edge
p516
(dp517
g7
I1
sg8
I00
sg9
I5
sg10
(lp518
g218
ag242
asg26
I00
sg27
I00
sg28
I4511495
sg20
S'14987.8893792'
p519
sba(igraph
Edge
p520
(dp521
g7
I1
sg8
I00
sg9
I5
sg10
(lp522
g225
ag256
asg26
I00
sg27
I00
sg28
I4511496
sg20
S'14987.8926014'
p523
sba(igraph
Edge
p524
(dp525
g7
I1
sg8
I00
sg9
I5
sg10
(lp526
g232
ag256
asg26
I00
sg27
I00
sg28
I4511497
sg20
S'14987.8958049'
p527
sba(igraph
Edge
p528
(dp529
g7
I1
sg8
I00
sg9
I5
sg10
(lp530
g215
ag239
asg26
I00
sg27
I00
sg28
I4511498
sg20
S'14987.9022555'
p531
sba(igraph
Edge
p532
(dp533
g7
I1
sg8
I00
sg9
I5
sg10
(lp534
g218
ag249
asg26
I00
sg27
I00
sg28
I4511499
sg20
S'14987.9055383'
p535
sba(igraph
Edge
p536
(dp537
g7
I1
sg8
I00
sg9
I5
sg10
(lp538
g225
ag249
asg26
I00
sg27
I00
sg28
I4511500
sg20
S'14987.9087471'
p539
sba(igraph
Edge
p540
(dp541
g7
I1
sg8
I00
sg9
I5
sg10
(lp542
g256
ag239
asg26
I00
sg27
I00
sg28
I4511501
sg20
S'15076.3002792'
p543
sba(igraph
Edge
p544
(dp545
g7
I1
sg8
I00
sg9
I5
sg10
(lp546
g239
ag232
asg26
I00
sg27
I00
sg28
I4511502
sg20
S'15077.7512868'
p547
sba(igraph
Edge
p548
(dp549
g7
I1
sg8
I00
sg9
I5
sg10
(lp550
g232
ag215
asg26
I00
sg27
I00
sg28
I4511503
sg20
S'15079.2225928'
p551
sba(igraph
Edge
p552
(dp553
g7
I1
sg8
I00
sg9
I5
sg10
(lp554
g215
ag208
asg26
I00
sg27
I00
sg28
I4511504
sg20
S'15080.2405431'
p555
sba(igraph
Edge
p556
(dp557
g7
I1
sg8
I00
sg9
I5
sg10
(lp558
g208
ag191
asg26
I00
sg27
I00
sg28
I4511505
sg20
S'15081.4947724'
p559
sba(igraph
Edge
p560
(dp561
g7
I1
sg8
I00
sg9
I5
sg10
(lp562
g191
ag184
asg26
I00
sg27
I00
sg28
I4511506
sg20
S'15082.8794841'
p563
sba(igraph
Edge
p564
(dp565
g7
I1
sg8
I00
sg9
I5
sg10
(lp566
g184
ag167
asg26
I00
sg27
I00
sg28
I4511507
sg20
S'15089.2627689'
p567
sba(igraph
Edge
p568
(dp569
g7
I1
sg8
I00
sg9
I5
sg10
(lp570
g167
ag160
asg26
I00
sg27
I00
sg28
I4511508
sg20
S'15093.7389822'
p571
sba(igraph
Edge
p572
(dp573
g7
I1
sg8
I00
sg9
I5
sg10
(lp574
g160
ag143
asg26
I00
sg27
I00
sg28
I4511509
sg20
S'15095.5386601'
p575
sba(igraph
Edge
p576
(dp577
g7
I1
sg8
I00
sg9
I5
sg10
(lp578
g143
ag136
asg26
I00
sg27
I00
sg28
I4511510
sg20
S'15097.2330553'
p579
sba(igraph
Edge
p580
(dp581
g7
I1
sg8
I00
sg9
I5
sg10
(lp582
g136
ag119
asg26
I00
sg27
I00
sg28
I4511511
sg20
S'15099.0200718'
p583
sba(igraph
Edge
p584
(dp585
g7
I1
sg8
I00
sg9
I5
sg10
(lp586
g119
ag112
asg26
I00
sg27
I00
sg28
I4511512
sg20
S'15100.7973533'
p587
sba(igraph
Edge
p588
(dp589
g7
I1
sg8
I00
sg9
I5
sg10
(lp590
g112
ag95
asg26
I00
sg27
I00
sg28
I4511513
sg20
S'15102.450659'
p591
sba(igraph
Edge
p592
(dp593
g7
I1
sg8
I00
sg9
I5
sg10
(lp594
g95
ag88
asg26
I00
sg27
I00
sg28
I4511514
sg20
S'15103.6904459'
p595
sba(igraph
Edge
p596
(dp597
g7
I1
sg8
I00
sg9
I5
sg10
(lp598
g88
ag71
asg26
I00
sg27
I00
sg28
I4511515
sg20
S'15105.3376854'
p599
sba(igraph
Edge
p600
(dp601
g7
I1
sg8
I00
sg9
I5
sg10
(lp602
g71
ag64
asg26
I00
sg27
I00
sg28
I4511516
sg20
S'15107.2798808'
p603
sba(igraph
Edge
p604
(dp605
g7
I1
sg8
I00
sg9
I5
sg10
(lp606
g64
ag47
asg26
I00
sg27
I00
sg28
I4511517
sg20
S'15109.210189'
p607
sba(igraph
Edge
p608
(dp609
g7
I1
sg8
I00
sg9
I5
sg10
(lp610
g47
ag40
asg26
I00
sg27
I00
sg28
I4511518
sg20
S'15110.3825726'
p611
sba(igraph
Edge
p612
(dp613
g7
I1
sg8
I00
sg9
I5
sg10
(lp614
g40
ag12
asg26
I00
sg27
I00
sg28
I4511519
sg20
S'15111.8054828'
p615
sba(igraph
Edge
p616
(dp617
g7
I1
sg8
I00
sg9
I5
sg10
(lp618
g12
ag256
asg26
I00
sg27
I00
sg28
I4511520
sg20
S'15114.7299539'
p619
sbasS'vertices'
p620
(lp621
g12
ag23
ag33
ag40
ag47
ag50
ag57
ag64
ag71
ag74
ag81
ag88
ag95
ag98
ag105
ag112
ag119
ag122
ag129
ag136
ag143
ag146
ag153
ag160
ag167
ag170
ag177
ag184
ag191
ag194
ag201
ag208
ag215
ag218
ag225
ag232
ag239
ag242
ag249
ag256
asS'tags'
p622
(lp623
sb.