(igraph
Graph
p0
(dp1
S'labelingConstraints'
p2
I-1
sS'edges'
p3
(lp4
(igraph
Edge
p5
(dp6
S'direction'
p7
I1
sS'selected'
p8
I00
sS'height'
p9
I5
sS'vs'
p10
(lp11
(igraph
Vertex
p12
(dp13
S'xnorm'
p14
F0.0
sg8
I00
sS'label'
p15
S'NULL'
p16
sS'y'
p17
F-148.0
sS'x'
p18
F-99.999999999999986
sS'circle'
p19
I4448437
sS'id'
p20
S'14777.1116248'
p21
sS'ynorm'
p22
F0.0
sba(igraph
Vertex
p23
(dp24
g14
F0.16666666666666666
sg8
I00
sg15
g16
sg17
F-148.0
sg18
F-158.83333333333331
sg19
I4448438
sg20
S'14777.1116631'
p25
sg22
F0.0
sbasS'wrap'
p26
I00
sS'curved'
p27
I00
sS'line'
p28
I4448227
sg20
S'14777.155686'
p29
sba(igraph
Edge
p30
(dp31
g7
I1
sg8
I00
sg9
I5
sg10
(lp32
g23
a(igraph
Vertex
p33
(dp34
g14
F0.33333333333333331
sg8
I00
sg15
g16
sg17
F-148.0
sg18
F-217.66666666666663
sg19
I4448439
sg20
S'14777.1117053'
p35
sg22
F0.0
sbasg26
I00
sg27
I00
sg28
I4448228
sg20
S'14777.155812'
p36
sba(igraph
Edge
p37
(dp38
g7
I1
sg8
I00
sg9
I5
sg10
(lp39
g33
a(igraph
Vertex
p40
(dp41
g14
F0.50000000000000011
sg8
I00
sg15
g16
sg17
F-148.0
sg18
F-276.5
sg19
I4448440
sg20
S'14777.1117589'
p42
sg22
F0.0
sbasg26
I00
sg27
I00
sg28
I4448229
sg20
S'14777.1559866'
p43
sba(igraph
Edge
p44
(dp45
g7
I1
sg8
I00
sg9
I5
sg10
(lp46
g40
a(igraph
Vertex
p47
(dp48
g14
F0.66666666666666663
sg8
I00
sg15
g16
sg17
F-148.0
sg18
F-335.33333333333331
sg19
I4448441
sg20
S'14777.1118268'
p49
sg22
F0.0
sbasg26
I00
sg27
I00
sg28
I4448230
sg20
S'14777.1561986'
p50
sba(igraph
Edge
p51
(dp52
g7
I1
sg8
I00
sg9
I5
sg10
(lp53
g47
a(igraph
Vertex
p54
(dp55
g14
F0.83333333333333337
sg8
I00
sg15
g16
sg17
F-148.0
sg18
F-394.16666666666669
sg19
I4448442
sg20
S'14777.1119081'
p56
sg22
F0.0
sbasg26
I00
sg27
I00
sg28
I4448231
sg20
S'14777.1564537'
p57
sba(igraph
Edge
p58
(dp59
g7
I1
sg8
I00
sg9
I5
sg10
(lp60
g54
a(igraph
Vertex
p61
(dp62
g14
F1.0
sg8
I00
sg15
g16
sg17
F-148.0
sg18
F-453.0
sg19
I4448443
sg20
S'14777.1120061'
p63
sg22
F0.0
sbasg26
I00
sg27
I00
sg28
I4448232
sg20
S'14777.1567579'
p64
sba(igraph
Edge
p65
(dp66
g7
I1
sg8
I00
sg9
I5
sg10
(lp67
g61
ag12
asg26
I00
sg27
I00
sg28
I4448233
sg20
S'14777.1571267'
p68
sba(igraph
Edge
p69
(dp70
g7
I1
sg8
I00
sg9
I5
sg10
(lp71
(igraph
Vertex
p72
(dp73
g14
F0.0
sg8
I00
sg15
g16
sg17
F-96.270270270270274
sg18
F-99.999999999999986
sg19
I4448444
sg20
S'14777.112119'
p74
sg22
F0.11148648648648649
sba(igraph
Vertex
p75
(dp76
g14
F0.16666666666666666
sg8
I00
sg15
g16
sg17
F-96.270270270270274
sg18
F-158.83333333333331
sg19
I4448445
sg20
S'14777.1122483'
p77
sg22
F0.11148648648648649
sbasg26
I00
sg27
I00
sg28
I4448234
sg20
S'14777.1575245'
p78
sba(igraph
Edge
p79
(dp80
g7
I1
sg8
I00
sg9
I5
sg10
(lp81
g75
a(igraph
Vertex
p82
(dp83
g14
F0.33333333333333331
sg8
I00
sg15
g16
sg17
F-96.270270270270274
sg18
F-217.66666666666663
sg19
I4448446
sg20
S'14777.1123939'
p84
sg22
F0.11148648648648649
sbasg26
I00
sg27
I00
sg28
I4448235
sg20
S'14777.1580366'
p85
sba(igraph
Edge
p86
(dp87
g7
I1
sg8
I00
sg9
I5
sg10
(lp88
g82
a(igraph
Vertex
p89
(dp90
g14
F0.50000000000000011
sg8
I00
sg15
g16
sg17
F-96.270270270270274
sg18
F-276.5
sg19
I4448447
sg20
S'14777.1125545'
p91
sg22
F0.11148648648648649
sbasg26
I00
sg27
I00
sg28
I4448236
sg20
S'14777.1585464'
p92
sba(igraph
Edge
p93
(dp94
g7
I1
sg8
I00
sg9
I5
sg10
(lp95
g89
a(igraph
Vertex
p96
(dp97
g14
F0.66666666666666663
sg8
I00
sg15
g16
sg17
F-96.270270270270274
sg18
F-335.33333333333331
sg19
I4448448
sg20
S'14777.1127289'
p98
sg22
F0.11148648648648649
sbasg26
I00
sg27
I00
sg28
I4448237
sg20
S'14777.1590898'
p99
sba(igraph
Edge
p100
(dp101
g7
I1
sg8
I00
sg9
I5
sg10
(lp102
g96
a(igraph
Vertex
p103
(dp104
g14
F0.83333333333333337
sg8
I00
sg15
g16
sg17
F-96.270270270270274
sg18
F-394.16666666666669
sg19
I4448449
sg20
S'14777.1129755'
p105
sg22
F0.11148648648648649
sbasg26
I00
sg27
I00
sg28
I4448238
sg20
S'14777.1597435'
p106
sba(igraph
Edge
p107
(dp108
g7
I1
sg8
I00
sg9
I5
sg10
(lp109
g103
a(igraph
Vertex
p110
(dp111
g14
F1.0
sg8
I01
sg15
I0
sg17
F-96.270270270270274
sg18
F-453.0
sg19
I4448451
sg20
S'14777.1131845'
p112
sg22
F0.11148648648648649
sbasg26
I00
sg27
I00
sg28
I4448239
sg20
S'14777.1604712'
p113
sba(igraph
Edge
p114
(dp115
g7
I1
sg8
I00
sg9
I5
sg10
(lp116
g110
ag72
asg26
I00
sg27
I00
sg28
I4448240
sg20
S'14777.1613336'
p117
sba(igraph
Edge
p118
(dp119
g7
I1
sg8
I00
sg9
I5
sg10
(lp120
(igraph
Vertex
p121
(dp122
g14
F0.0
sg8
I00
sg15
g16
sg17
F-44.540540540540547
sg18
F-99.999999999999986
sg19
I4448453
sg20
S'14777.1134091'
p123
sg22
F0.22297297297297297
sba(igraph
Vertex
p124
(dp125
g14
F0.16666666666666666
sg8
I00
sg15
g16
sg17
F-44.540540540540547
sg18
F-158.83333333333331
sg19
I4448454
sg20
S'14777.1136474'
p126
sg22
F0.22297297297297297
sbasg26
I00
sg27
I00
sg28
I4448241
sg20
S'14777.1621008'
p127
sba(igraph
Edge
p128
(dp129
g7
I1
sg8
I00
sg9
I5
sg10
(lp130
g124
a(igraph
Vertex
p131
(dp132
g14
F0.33333333333333331
sg8
I00
sg15
g16
sg17
F-44.540540540540547
sg18
F-217.66666666666663
sg19
I4448455
sg20
S'14777.1139025'
p133
sg22
F0.22297297297297297
sbasg26
I00
sg27
I00
sg28
I4448242
sg20
S'14777.1629886'
p134
sba(igraph
Edge
p135
(dp136
g7
I1
sg8
I00
sg9
I5
sg10
(lp137
g131
a(igraph
Vertex
p138
(dp139
g14
F0.50000000000000011
sg8
I00
sg15
g16
sg17
F-44.540540540540547
sg18
F-276.5
sg19
I4448456
sg20
S'14777.1141748'
p140
sg22
F0.22297297297297297
sbasg26
I00
sg27
I00
sg28
I4448243
sg20
S'14777.1641144'
p141
sba(igraph
Edge
p142
(dp143
g7
I1
sg8
I00
sg9
I5
sg10
(lp144
g138
a(igraph
Vertex
p145
(dp146
g14
F0.66666666666666663
sg8
I00
sg15
g16
sg17
F-44.540540540540547
sg18
F-335.33333333333331
sg19
I4448457
sg20
S'14777.114459'
p147
sg22
F0.22297297297297297
sbasg26
I00
sg27
I00
sg28
I4448244
sg20
S'14777.1651897'
p148
sba(igraph
Edge
p149
(dp150
g7
I1
sg8
I00
sg9
I5
sg10
(lp151
g145
a(igraph
Vertex
p152
(dp153
g14
F0.83333333333333337
sg8
I00
sg15
g16
sg17
F-44.540540540540547
sg18
F-394.16666666666669
sg19
I4448458
sg20
S'14777.1147615'
p154
sg22
F0.22297297297297297
sbasg26
I00
sg27
I00
sg28
I4448245
sg20
S'14777.1661714'
p155
sba(igraph
Edge
p156
(dp157
g7
I1
sg8
I00
sg9
I5
sg10
(lp158
g152
a(igraph
Vertex
p159
(dp160
g14
F1.0
sg8
I00
sg15
g16
sg17
F-44.540540540540547
sg18
F-453.0
sg19
I4448459
sg20
S'14777.1150831'
p161
sg22
F0.22297297297297297
sbasg26
I00
sg27
I00
sg28
I4448246
sg20
S'14777.1671698'
p162
sba(igraph
Edge
p163
(dp164
g7
I1
sg8
I00
sg9
I5
sg10
(lp165
g159
ag121
asg26
I00
sg27
I00
sg28
I4448247
sg20
S'14777.1682423'
p166
sba(igraph
Edge
p167
(dp168
g7
I1
sg8
I00
sg9
I5
sg10
(lp169
(igraph
Vertex
p170
(dp171
g14
F0.0
sg8
I01
sg15
I0
sg17
F7.189189189189193
sg18
F-99.999999999999986
sg19
I4448461
sg20
S'14777.1154169'
p172
sg22
F0.33445945945945948
sba(igraph
Vertex
p173
(dp174
g14
F0.16666666666666666
sg8
I00
sg15
g16
sg17
F7.189189189189193
sg18
F-158.83333333333331
sg19
I4448463
sg20
S'14777.1157695'
p175
sg22
F0.33445945945945948
sbasg26
I00
sg27
I00
sg28
I4448248
sg20
S'14777.1693855'
p176
sba(igraph
Edge
p177
(dp178
g7
I1
sg8
I00
sg9
I5
sg10
(lp179
g173
a(igraph
Vertex
p180
(dp181
g14
F0.33333333333333331
sg8
I00
sg15
g16
sg17
F7.189189189189193
sg18
F-217.66666666666663
sg19
I4448464
sg20
S'14777.1161368'
p182
sg22
F0.33445945945945948
sbasg26
I00
sg27
I00
sg28
I4448249
sg20
S'14777.1704848'
p183
sba(igraph
Edge
p184
(dp185
g7
I1
sg8
I00
sg9
I5
sg10
(lp186
g180
a(igraph
Vertex
p187
(dp188
g14
F0.50000000000000011
sg8
I00
sg15
g16
sg17
F7.189189189189193
sg18
F-276.5
sg19
I4448465
sg20
S'14777.1165151'
p189
sg22
F0.33445945945945948
sbasg26
I00
sg27
I00
sg28
I4448250
sg20
S'14777.171738'
p190
sba(igraph
Edge
p191
(dp192
g7
I1
sg8
I00
sg9
I5
sg10
(lp193
g187
a(igraph
Vertex
p194
(dp195
g14
F0.66666666666666663
sg8
I00
sg15
g16
sg17
F7.189189189189193
sg18
F-335.33333333333331
sg19
I4448466
sg20
S'14777.1169509'
p196
sg22
F0.33445945945945948
sbasg26
I00
sg27
I00
sg28
I4448251
sg20
S'14777.1730455'
p197
sba(igraph
Edge
p198
(dp199
g7
I1
sg8
I00
sg9
I5
sg10
(lp200
g194
a(igraph
Vertex
p201
(dp202
g14
F0.83333333333333337
sg8
I00
sg15
g16
sg17
F7.189189189189193
sg18
F-394.16666666666669
sg19
I4448467
sg20
S'14777.1173727'
p203
sg22
F0.33445945945945948
sbasg26
I00
sg27
I00
sg28
I4448252
sg20
S'14777.1743859'
p204
sba(igraph
Edge
p205
(dp206
g7
I1
sg8
I00
sg9
I5
sg10
(lp207
g201
a(igraph
Vertex
p208
(dp209
g14
F1.0
sg8
I00
sg15
g16
sg17
F7.189189189189193
sg18
F-453.0
sg19
I4448468
sg20
S'14777.117806'
p210
sg22
F0.33445945945945948
sbasg26
I00
sg27
I00
sg28
I4448253
sg20
S'14777.1760112'
p211
sba(igraph
Edge
p212
(dp213
g7
I1
sg8
I00
sg9
I5
sg10
(lp214
g208
ag170
asg26
I00
sg27
I00
sg28
I4448254
sg20
S'14777.1774016'
p215
sba(igraph
Edge
p216
(dp217
g7
I1
sg8
I00
sg9
I5
sg10
(lp218
(igraph
Vertex
p219
(dp220
g14
F0.0
sg8
I00
sg15
g16
sg17
F58.918918918918905
sg18
F-99.999999999999986
sg19
I4448469
sg20
S'14777.1182511'
p221
sg22
F0.44594594594594594
sba(igraph
Vertex
p222
(dp223
g14
F0.16666666666666666
sg8
I00
sg15
g16
sg17
F58.918918918918905
sg18
F-158.83333333333331
sg19
I4448470
sg20
S'14777.1187131'
p224
sg22
F0.44594594594594594
sbasg26
I00
sg27
I00
sg28
I4448255
sg20
S'14777.1788479'
p225
sba(igraph
Edge
p226
(dp227
g7
I1
sg8
I00
sg9
I5
sg10
(lp228
g222
a(igraph
Vertex
p229
(dp230
g14
F0.33333333333333331
sg8
I01
sg15
I0
sg17
F58.918918918918905
sg18
F-217.66666666666663
sg19
I4448472
sg20
S'14777.1192076'
p231
sg22
F0.44594594594594594
sbasg26
I00
sg27
I00
sg28
I4448256
sg20
S'14777.1803372'
p232
sba(igraph
Edge
p233
(dp234
g7
I1
sg8
I00
sg9
I5
sg10
(lp235
g229
a(igraph
Vertex
p236
(dp237
g14
F0.50000000000000011
sg8
I00
sg15
g16
sg17
F58.918918918918905
sg18
F-276.5
sg19
I4448474
sg20
S'14777.1197957'
p238
sg22
F0.44594594594594594
sbasg26
I00
sg27
I00
sg28
I4448257
sg20
S'14777.1818133'
p239
sba(igraph
Edge
p240
(dp241
g7
I1
sg8
I00
sg9
I5
sg10
(lp242
g236
a(igraph
Vertex
p243
(dp244
g14
F0.66666666666666663
sg8
I00
sg15
g16
sg17
F58.918918918918905
sg18
F-335.33333333333331
sg19
I4448475
sg20
S'14777.1203321'
p245
sg22
F0.44594594594594594
sbasg26
I00
sg27
I00
sg28
I4448258
sg20
S'14777.1833278'
p246
sba(igraph
Edge
p247
(dp248
g7
I1
sg8
I00
sg9
I5
sg10
(lp249
g243
a(igraph
Vertex
p250
(dp251
g14
F0.83333333333333337
sg8
I00
sg15
g16
sg17
F58.918918918918905
sg18
F-394.16666666666669
sg19
I4448476
sg20
S'14777.1208969'
p252
sg22
F0.44594594594594594
sbasg26
I00
sg27
I00
sg28
I4448259
sg20
S'14777.1849453'
p253
sba(igraph
Edge
p254
(dp255
g7
I1
sg8
I00
sg9
I5
sg10
(lp256
g250
a(igraph
Vertex
p257
(dp258
g14
F1.0
sg8
I00
sg15
g16
sg17
F58.918918918918905
sg18
F-453.0
sg19
I4448477
sg20
S'14777.1214428'
p259
sg22
F0.44594594594594594
sbasg26
I00
sg27
I00
sg28
I4448260
sg20
S'14777.1866544'
p260
sba(igraph
Edge
p261
(dp262
g7
I1
sg8
I00
sg9
I5
sg10
(lp263
g257
ag219
asg26
I00
sg27
I00
sg28
I4448261
sg20
S'14777.1883424'
p264
sba(igraph
Edge
p265
(dp266
g7
I1
sg8
I00
sg9
I5
sg10
(lp267
(igraph
Vertex
p268
(dp269
g14
F0.0
sg8
I00
sg15
g16
sg17
F110.64864864864865
sg18
F-99.999999999999986
sg19
I4448478
sg20
S'14777.1221007'
p270
sg22
F0.55743243243243246
sba(igraph
Vertex
p271
(dp272
g14
F0.16666666666666666
sg8
I00
sg15
g16
sg17
F110.64864864864865
sg18
F-158.83333333333331
sg19
I4448479
sg20
S'14777.1226854'
p273
sg22
F0.55743243243243246
sbasg26
I00
sg27
I00
sg28
I4448262
sg20
S'14777.1900306'
p274
sba(igraph
Edge
p275
(dp276
g7
I1
sg8
I00
sg9
I5
sg10
(lp277
g271
a(igraph
Vertex
p278
(dp279
g14
F0.33333333333333331
sg8
I00
sg15
g16
sg17
F110.64864864864865
sg18
F-217.66666666666663
sg19
I4448480
sg20
S'14777.1232813'
p280
sg22
F0.55743243243243246
sbasg26
I00
sg27
I00
sg28
I4448263
sg20
S'14777.1917663'
p281
sba(igraph
Edge
p282
(dp283
g7
I1
sg8
I00
sg9
I5
sg10
(lp284
g278
a(igraph
Vertex
p285
(dp286
g14
F0.50000000000000011
sg8
I00
sg15
g16
sg17
F110.64864864864865
sg18
F-276.5
sg19
I4448481
sg20
S'14777.1240144'
p287
sg22
F0.55743243243243246
sbasg26
I00
sg27
I00
sg28
I4448264
sg20
S'14777.1935553'
p288
sba(igraph
Edge
p289
(dp290
g7
I1
sg8
I00
sg9
I5
sg10
(lp291
g285
a(igraph
Vertex
p292
(dp293
g14
F0.66666666666666663
sg8
I00
sg15
g16
sg17
F110.64864864864865
sg18
F-335.33333333333331
sg19
I4448482
sg20
S'14777.1246862'
p294
sg22
F0.55743243243243246
sbasg26
I00
sg27
I00
sg28
I4448265
sg20
S'14777.1953824'
p295
sba(igraph
Edge
p296
(dp297
g7
I1
sg8
I00
sg9
I5
sg10
(lp298
g292
a(igraph
Vertex
p299
(dp300
g14
F0.83333333333333337
sg8
I00
sg15
g16
sg17
F110.64864864864865
sg18
F-394.16666666666669
sg19
I4448483
sg20
S'14777.1253394'
p301
sg22
F0.55743243243243246
sbasg26
I00
sg27
I00
sg28
I4448266
sg20
S'14777.1975561'
p302
sba(igraph
Edge
p303
(dp304
g7
I1
sg8
I00
sg9
I5
sg10
(lp305
g299
a(igraph
Vertex
p306
(dp307
g14
F1.0
sg8
I00
sg15
g16
sg17
F110.64864864864865
sg18
F-453.0
sg19
I4448484
sg20
S'14777.1261208'
p308
sg22
F0.55743243243243246
sbasg26
I00
sg27
I00
sg28
I4448267
sg20
S'14777.1995284'
p309
sba(igraph
Edge
p310
(dp311
g7
I1
sg8
I00
sg9
I5
sg10
(lp312
g306
ag268
asg26
I00
sg27
I00
sg28
I4448268
sg20
S'14777.2016726'
p313
sba(igraph
Edge
p314
(dp315
g7
I1
sg8
I00
sg9
I5
sg10
(lp316
(igraph
Vertex
p317
(dp318
g14
F0.0
sg8
I00
sg15
g16
sg17
F162.37837837837839
sg18
F-99.999999999999986
sg19
I4448485
sg20
S'14777.1269086'
p319
sg22
F0.66891891891891897
sba(igraph
Vertex
p320
(dp321
g14
F0.16666666666666666
sg8
I00
sg15
g16
sg17
F162.37837837837839
sg18
F-158.83333333333331
sg19
I4448486
sg20
S'14777.1276609'
p322
sg22
F0.66891891891891897
sbasg26
I00
sg27
I00
sg28
I4448269
sg20
S'14777.2036859'
p323
sba(igraph
Edge
p324
(dp325
g7
I1
sg8
I00
sg9
I5
sg10
(lp326
g320
a(igraph
Vertex
p327
(dp328
g14
F0.33333333333333331
sg8
I00
sg15
g16
sg17
F162.37837837837839
sg18
F-217.66666666666663
sg19
I4448487
sg20
S'14777.1284339'
p329
sg22
F0.66891891891891897
sbasg26
I00
sg27
I00
sg28
I4448270
sg20
S'14777.2057982'
p330
sba(igraph
Edge
p331
(dp332
g7
I1
sg8
I00
sg9
I5
sg10
(lp333
g327
a(igraph
Vertex
p334
(dp335
g14
F0.50000000000000011
sg8
I01
sg15
I0
sg17
F162.37837837837839
sg18
F-276.5
sg19
I4448489
sg20
S'14777.1293368'
p336
sg22
F0.66891891891891897
sbasg26
I00
sg27
I00
sg28
I4448271
sg20
S'14777.2109369'
p337
sba(igraph
Edge
p338
(dp339
g7
I1
sg8
I00
sg9
I5
sg10
(lp340
g334
a(igraph
Vertex
p341
(dp342
g14
F0.66666666666666663
sg8
I00
sg15
g16
sg17
F162.37837837837839
sg18
F-335.33333333333331
sg19
I4448491
sg20
S'14777.1301794'
p343
sg22
F0.66891891891891897
sbasg26
I00
sg27
I00
sg28
I4448272
sg20
S'14777.2133277'
p344
sba(igraph
Edge
p345
(dp346
g7
I1
sg8
I00
sg9
I5
sg10
(lp347
g341
a(igraph
Vertex
p348
(dp349
g14
F0.83333333333333337
sg8
I00
sg15
g16
sg17
F162.37837837837839
sg18
F-394.16666666666669
sg19
I4448492
sg20
S'14777.1311211'
p350
sg22
F0.66891891891891897
sbasg26
I00
sg27
I00
sg28
I4448273
sg20
S'14777.2155808'
p351
sba(igraph
Edge
p352
(dp353
g7
I1
sg8
I00
sg9
I5
sg10
(lp354
g348
a(igraph
Vertex
p355
(dp356
g14
F1.0
sg8
I00
sg15
g16
sg17
F162.37837837837839
sg18
F-453.0
sg19
I4448493
sg20
S'14777.1319349'
p357
sg22
F0.66891891891891897
sbasg26
I00
sg27
I00
sg28
I4448274
sg20
S'14777.217864'
p358
sba(igraph
Edge
p359
(dp360
g7
I1
sg8
I00
sg9
I5
sg10
(lp361
g355
ag317
asg26
I00
sg27
I00
sg28
I4448275
sg20
S'14777.220259'
p362
sba(igraph
Edge
p363
(dp364
g7
I1
sg8
I00
sg9
I5
sg10
(lp365
(igraph
Vertex
p366
(dp367
g14
F0.0
sg8
I00
sg15
g16
sg17
F214.10810810810807
sg18
F-99.999999999999986
sg19
I4448494
sg20
S'14777.1328021'
p368
sg22
F0.78040540540540537
sba(igraph
Vertex
p369
(dp370
g14
F0.16666666666666666
sg8
I00
sg15
g16
sg17
F214.10810810810807
sg18
F-158.83333333333331
sg19
I4448495
sg20
S'14777.1337248'
p371
sg22
F0.78040540540540537
sbasg26
I00
sg27
I00
sg28
I4448276
sg20
S'14777.2227311'
p372
sba(igraph
Edge
p373
(dp374
g7
I1
sg8
I00
sg9
I5
sg10
(lp375
g369
a(igraph
Vertex
p376
(dp377
g14
F0.33333333333333331
sg8
I00
sg15
g16
sg17
F214.10810810810807
sg18
F-217.66666666666663
sg19
I4448496
sg20
S'14777.1346654'
p378
sg22
F0.78040540540540537
sbasg26
I00
sg27
I00
sg28
I4448277
sg20
S'14777.225199'
p379
sba(igraph
Edge
p380
(dp381
g7
I1
sg8
I00
sg9
I5
sg10
(lp382
g376
a(igraph
Vertex
p383
(dp384
g14
F0.50000000000000011
sg8
I00
sg15
g16
sg17
F214.10810810810807
sg18
F-276.5
sg19
I4448497
sg20
S'14777.1355499'
p385
sg22
F0.78040540540540537
sbasg26
I00
sg27
I00
sg28
I4448278
sg20
S'14777.2277119'
p386
sba(igraph
Edge
p387
(dp388
g7
I1
sg8
I00
sg9
I5
sg10
(lp389
g383
a(igraph
Vertex
p390
(dp391
g14
F0.66666666666666663
sg8
I00
sg15
g16
sg17
F214.10810810810807
sg18
F-335.33333333333331
sg19
I4448498
sg20
S'14777.1365646'
p392
sg22
F0.78040540540540537
sbasg26
I00
sg27
I00
sg28
I4448279
sg20
S'14777.2303231'
p393
sba(igraph
Edge
p394
(dp395
g7
I1
sg8
I00
sg9
I5
sg10
(lp396
g390
a(igraph
Vertex
p397
(dp398
g14
F0.83333333333333337
sg8
I01
sg15
I0
sg17
F214.10810810810807
sg18
F-394.16666666666669
sg19
I4448500
sg20
S'14777.1374988'
p399
sg22
F0.78040540540540537
sbasg26
I00
sg27
I00
sg28
I4448280
sg20
S'14777.2329304'
p400
sba(igraph
Edge
p401
(dp402
g7
I1
sg8
I00
sg9
I5
sg10
(lp403
g397
a(igraph
Vertex
p404
(dp405
g14
F1.0
sg8
I00
sg15
g16
sg17
F214.10810810810807
sg18
F-453.0
sg19
I4448502
sg20
S'14777.1384061'
p406
sg22
F0.78040540540540537
sbasg26
I00
sg27
I00
sg28
I4448281
sg20
S'14777.2355872'
p407
sba(igraph
Edge
p408
(dp409
g7
I1
sg8
I00
sg9
I5
sg10
(lp410
g404
ag366
asg26
I00
sg27
I00
sg28
I4448282
sg20
S'14777.2382708'
p411
sba(igraph
Edge
p412
(dp413
g7
I1
sg8
I00
sg9
I5
sg10
(lp414
(igraph
Vertex
p415
(dp416
g14
F0.0
sg8
I00
sg15
g16
sg17
F265.83783783783781
sg18
F-99.999999999999986
sg19
I4448503
sg20
S'14777.1395032'
p417
sg22
F0.89189189189189189
sba(igraph
Vertex
p418
(dp419
g14
F0.16666666666666666
sg8
I00
sg15
g16
sg17
F265.83783783783781
sg18
F-158.83333333333331
sg19
I4448504
sg20
S'14777.1405246'
p420
sg22
F0.89189189189189189
sbasg26
I00
sg27
I00
sg28
I4448283
sg20
S'14777.2399869'
p421
sba(igraph
Edge
p422
(dp423
g7
I1
sg8
I00
sg9
I5
sg10
(lp424
g418
a(igraph
Vertex
p425
(dp426
g14
F0.33333333333333331
sg8
I00
sg15
g16
sg17
F265.83783783783781
sg18
F-217.66666666666663
sg19
I4448505
sg20
S'14777.1414881'
p427
sg22
F0.89189189189189189
sbasg26
I00
sg27
I00
sg28
I4448284
sg20
S'14777.2412631'
p428
sba(igraph
Edge
p429
(dp430
g7
I1
sg8
I00
sg9
I5
sg10
(lp431
g425
a(igraph
Vertex
p432
(dp433
g14
F0.50000000000000011
sg8
I00
sg15
g16
sg17
F265.83783783783781
sg18
F-276.5
sg19
I4448506
sg20
S'14777.142498'
p434
sg22
F0.89189189189189189
sbasg26
I00
sg27
I00
sg28
I4448285
sg20
S'14777.2425367'
p435
sba(igraph
Edge
p436
(dp437
g7
I1
sg8
I00
sg9
I5
sg10
(lp438
g432
a(igraph
Vertex
p439
(dp440
g14
F0.66666666666666663
sg8
I01
sg15
I0
sg17
F265.83783783783781
sg18
F-335.33333333333331
sg19
I4448508
sg20
S'14777.1435543'
p441
sg22
F0.89189189189189189
sbasg26
I00
sg27
I00
sg28
I4448286
sg20
S'14777.2438307'
p442
sba(igraph
Edge
p443
(dp444
g7
I1
sg8
I00
sg9
I5
sg10
(lp445
g439
a(igraph
Vertex
p446
(dp447
g14
F0.83333333333333337
sg8
I00
sg15
g16
sg17
F265.83783783783781
sg18
F-394.16666666666669
sg19
I4448510
sg20
S'14777.144629'
p448
sg22
F0.89189189189189189
sbasg26
I00
sg27
I00
sg28
I4448287
sg20
S'14777.2453446'
p449
sba(igraph
Edge
p450
(dp451
g7
I1
sg8
I00
sg9
I5
sg10
(lp452
g446
a(igraph
Vertex
p453
(dp454
g14
F1.0
sg8
I00
sg15
g16
sg17
F265.83783783783781
sg18
F-453.0
sg19
I4448511
sg20
S'14777.1457087'
p455
sg22
F0.89189189189189189
sbasg26
I00
sg27
I00
sg28
I4448288
sg20
S'14777.2468565'
p456
sba(igraph
Edge
p457
(dp458
g7
I1
sg8
I00
sg9
I5
sg10
(lp459
g453
ag415
asg26
I00
sg27
I00
sg28
I4448289
sg20
S'14777.2482304'
p460
sba(igraph
Edge
p461
(dp462
g7
I1
sg8
I00
sg9
I5
sg10
(lp463
(igraph
Vertex
p464
(dp465
g14
F0.0
sg8
I00
sg15
g16
sg17
F317.56756756756755
sg18
F-99.999999999999986
sg19
I4448512
sg20
S'14777.14715'
p466
sg22
F1.0033783783783783
sba(igraph
Vertex
p467
(dp468
g14
F0.16666666666666666
sg8
I00
sg15
g16
sg17
F317.56756756756755
sg18
F-158.83333333333331
sg19
I4448513
sg20
S'14777.1483258'
p469
sg22
F1.0033783783783783
sbasg26
I00
sg27
I00
sg28
I4448290
sg20
S'14777.2496558'
p470
sba(igraph
Edge
p471
(dp472
g7
I1
sg8
I00
sg9
I5
sg10
(lp473
g467
a(igraph
Vertex
p474
(dp475
g14
F0.33333333333333331
sg8
I00
sg15
g16
sg17
F317.56756756756755
sg18
F-217.66666666666663
sg19
I4448514
sg20
S'14777.1493936'
p476
sg22
F1.0033783783783783
sbasg26
I00
sg27
I00
sg28
I4448291
sg20
S'14777.2510945'
p477
sba(igraph
Edge
p478
(dp479
g7
I1
sg8
I00
sg9
I5
sg10
(lp480
g474
a(igraph
Vertex
p481
(dp482
g14
F0.50000000000000011
sg8
I00
sg15
g16
sg17
F317.56756756756755
sg18
F-276.5
sg19
I4448515
sg20
S'14777.1505753'
p483
sg22
F1.0033783783783783
sbasg26
I00
sg27
I00
sg28
I4448292
sg20
S'14777.2525659'
p484
sba(igraph
Edge
p485
(dp486
g7
I1
sg8
I00
sg9
I5
sg10
(lp487
g481
a(igraph
Vertex
p488
(dp489
g14
F0.66666666666666663
sg8
I00
sg15
g16
sg17
F317.56756756756755
sg18
F-335.33333333333331
sg19
I4448516
sg20
S'14777.1518785'
p490
sg22
F1.0033783783783783
sbasg26
I00
sg27
I00
sg28
I4448293
sg20
S'14777.2540474'
p491
sba(igraph
Edge
p492
(dp493
g7
I1
sg8
I00
sg9
I5
sg10
(lp494
g488
a(igraph
Vertex
p495
(dp496
g14
F0.83333333333333337
sg8
I00
sg15
g16
sg17
F317.56756756756755
sg18
F-394.16666666666669
sg19
I4448517
sg20
S'14777.1530974'
p497
sg22
F1.0033783783783783
sbasg26
I00
sg27
I00
sg28
I4448294
sg20
S'14777.2555858'
p498
sba(igraph
Edge
p499
(dp500
g7
I1
sg8
I00
sg9
I5
sg10
(lp501
g495
a(igraph
Vertex
p502
(dp503
g14
F1.0
sg8
I01
sg15
I0
sg17
F317.56756756756755
sg18
F-453.0
sg19
I4448519
sg20
S'14777.1544629'
p504
sg22
F1.0033783783783783
sbasg26
I00
sg27
I00
sg28
I4448295
sg20
S'14777.2570838'
p505
sba(igraph
Edge
p506
(dp507
g7
I1
sg8
I00
sg9
I5
sg10
(lp508
g502
ag464
asg26
I00
sg27
I00
sg28
I4448296
sg20
S'14777.2586153'
p509
sba(igraph
Edge
p510
(dp511
g7
I1
sg8
I00
sg9
I5
sg10
(lp512
g12
ag72
asg26
I00
sg27
I00
sg28
I4448297
sg20
S'14777.2601772'
p513
sba(igraph
Edge
p514
(dp515
g7
I1
sg8
I00
sg9
I5
sg10
(lp516
g23
ag82
asg26
I00
sg27
I00
sg28
I4448298
sg20
S'14777.2617587'
p517
sba(igraph
Edge
p518
(dp519
g7
I1
sg8
I00
sg9
I5
sg10
(lp520
g33
ag82
asg26
I00
sg27
I00
sg28
I4448299
sg20
S'14777.2633377'
p521
sba(igraph
Edge
p522
(dp523
g7
I1
sg8
I00
sg9
I5
sg10
(lp524
g40
ag96
asg26
I00
sg27
I00
sg28
I4448300
sg20
S'14777.2649795'
p525
sba(igraph
Edge
p526
(dp527
g7
I1
sg8
I00
sg9
I5
sg10
(lp528
g47
ag96
asg26
I00
sg27
I00
sg28
I4448301
sg20
S'14777.2666445'
p529
sba(igraph
Edge
p530
(dp531
g7
I1
sg8
I00
sg9
I5
sg10
(lp532
g54
ag110
asg26
I00
sg27
I00
sg28
I4448302
sg20
S'14777.268305'
p533
sba(igraph
Edge
p534
(dp535
g7
I1
sg8
I00
sg9
I5
sg10
(lp536
g61
ag110
asg26
I00
sg27
I00
sg28
I4448303
sg20
S'14777.2699857'
p537
sba(igraph
Edge
p538
(dp539
g7
I1
sg8
I00
sg9
I5
sg10
(lp540
g12
ag75
asg26
I00
sg27
I00
sg28
I4448304
sg20
S'14777.2717644'
p541
sba(igraph
Edge
p542
(dp543
g7
I1
sg8
I00
sg9
I5
sg10
(lp544
g23
ag75
asg26
I00
sg27
I00
sg28
I4448305
sg20
S'14777.2735487'
p545
sba(igraph
Edge
p546
(dp547
g7
I1
sg8
I00
sg9
I5
sg10
(lp548
g33
ag89
asg26
I00
sg27
I00
sg28
I4448306
sg20
S'14777.2752995'
p549
sba(igraph
Edge
p550
(dp551
g7
I1
sg8
I00
sg9
I5
sg10
(lp552
g40
ag89
asg26
I00
sg27
I00
sg28
I4448307
sg20
S'14777.277102'
p553
sba(igraph
Edge
p554
(dp555
g7
I1
sg8
I00
sg9
I5
sg10
(lp556
g47
ag103
asg26
I00
sg27
I00
sg28
I4448308
sg20
S'14777.2788681'
p557
sba(igraph
Edge
p558
(dp559
g7
I1
sg8
I00
sg9
I5
sg10
(lp560
g54
ag103
asg26
I00
sg27
I00
sg28
I4448309
sg20
S'14777.2806759'
p561
sba(igraph
Edge
p562
(dp563
g7
I1
sg8
I00
sg9
I5
sg10
(lp564
g61
ag72
asg26
I00
sg27
I00
sg28
I4448310
sg20
S'14777.2825172'
p565
sba(igraph
Edge
p566
(dp567
g7
I1
sg8
I00
sg9
I5
sg10
(lp568
g12
ag464
asg26
I00
sg27
I00
sg28
I4448311
sg20
S'14777.2843683'
p569
sba(igraph
Edge
p570
(dp571
g7
I1
sg8
I00
sg9
I5
sg10
(lp572
g23
ag464
asg26
I00
sg27
I00
sg28
I4448312
sg20
S'14777.2862383'
p573
sba(igraph
Edge
p574
(dp575
g7
I1
sg8
I00
sg9
I5
sg10
(lp576
g33
ag474
asg26
I00
sg27
I00
sg28
I4448313
sg20
S'14777.2881129'
p577
sba(igraph
Edge
p578
(dp579
g7
I1
sg8
I00
sg9
I5
sg10
(lp580
g40
ag474
asg26
I00
sg27
I00
sg28
I4448314
sg20
S'14777.2900215'
p581
sba(igraph
Edge
p582
(dp583
g7
I1
sg8
I00
sg9
I5
sg10
(lp584
g47
ag488
asg26
I00
sg27
I00
sg28
I4448315
sg20
S'14777.2919703'
p585
sba(igraph
Edge
p586
(dp587
g7
I1
sg8
I00
sg9
I5
sg10
(lp588
g54
ag488
asg26
I00
sg27
I00
sg28
I4448316
sg20
S'14777.2939731'
p589
sba(igraph
Edge
p590
(dp591
g7
I1
sg8
I00
sg9
I5
sg10
(lp592
g61
ag502
asg26
I00
sg27
I00
sg28
I4448317
sg20
S'14777.2960024'
p593
sba(igraph
Edge
p594
(dp595
g7
I1
sg8
I00
sg9
I5
sg10
(lp596
g12
ag502
asg26
I00
sg27
I00
sg28
I4448318
sg20
S'14777.2980228'
p597
sba(igraph
Edge
p598
(dp599
g7
I1
sg8
I00
sg9
I5
sg10
(lp600
g23
ag467
asg26
I00
sg27
I00
sg28
I4448319
sg20
S'14777.3000339'
p601
sba(igraph
Edge
p602
(dp603
g7
I1
sg8
I00
sg9
I5
sg10
(lp604
g33
ag467
asg26
I00
sg27
I00
sg28
I4448320
sg20
S'14777.3020761'
p605
sba(igraph
Edge
p606
(dp607
g7
I1
sg8
I00
sg9
I5
sg10
(lp608
g40
ag481
asg26
I00
sg27
I00
sg28
I4448321
sg20
S'14777.3041708'
p609
sba(igraph
Edge
p610
(dp611
g7
I1
sg8
I00
sg9
I5
sg10
(lp612
g47
ag481
asg26
I00
sg27
I00
sg28
I4448322
sg20
S'14777.3062892'
p613
sba(igraph
Edge
p614
(dp615
g7
I1
sg8
I00
sg9
I5
sg10
(lp616
g54
ag495
asg26
I00
sg27
I00
sg28
I4448323
sg20
S'14777.3084043'
p617
sba(igraph
Edge
p618
(dp619
g7
I1
sg8
I00
sg9
I5
sg10
(lp620
g61
ag495
asg26
I00
sg27
I00
sg28
I4448324
sg20
S'14777.3105247'
p621
sba(igraph
Edge
p622
(dp623
g7
I1
sg8
I00
sg9
I5
sg10
(lp624
g72
ag121
asg26
I00
sg27
I00
sg28
I4448325
sg20
S'14777.3126797'
p625
sba(igraph
Edge
p626
(dp627
g7
I1
sg8
I00
sg9
I5
sg10
(lp628
g75
ag131
asg26
I00
sg27
I00
sg28
I4448326
sg20
S'14777.3148453'
p629
sba(igraph
Edge
p630
(dp631
g7
I1
sg8
I00
sg9
I5
sg10
(lp632
g82
ag131
asg26
I00
sg27
I00
sg28
I4448327
sg20
S'14777.3171275'
p633
sba(igraph
Edge
p634
(dp635
g7
I1
sg8
I00
sg9
I5
sg10
(lp636
g89
ag145
asg26
I00
sg27
I00
sg28
I4448328
sg20
S'14777.3193403'
p637
sba(igraph
Edge
p638
(dp639
g7
I1
sg8
I00
sg9
I5
sg10
(lp640
g96
ag145
asg26
I00
sg27
I00
sg28
I4448329
sg20
S'14777.3215797'
p641
sba(igraph
Edge
p642
(dp643
g7
I1
sg8
I00
sg9
I5
sg10
(lp644
g103
ag159
asg26
I00
sg27
I00
sg28
I4448330
sg20
S'14777.3239353'
p645
sba(igraph
Edge
p646
(dp647
g7
I1
sg8
I00
sg9
I5
sg10
(lp648
g110
ag159
asg26
I00
sg27
I00
sg28
I4448331
sg20
S'14777.3261861'
p649
sba(igraph
Edge
p650
(dp651
g7
I1
sg8
I00
sg9
I5
sg10
(lp652
g72
ag124
asg26
I00
sg27
I00
sg28
I4448332
sg20
S'14777.3284448'
p653
sba(igraph
Edge
p654
(dp655
g7
I1
sg8
I00
sg9
I5
sg10
(lp656
g75
ag124
asg26
I00
sg27
I00
sg28
I4448333
sg20
S'14777.3308446'
p657
sba(igraph
Edge
p658
(dp659
g7
I1
sg8
I00
sg9
I5
sg10
(lp660
g82
ag138
asg26
I00
sg27
I00
sg28
I4448334
sg20
S'14777.3332186'
p661
sba(igraph
Edge
p662
(dp663
g7
I1
sg8
I00
sg9
I5
sg10
(lp664
g89
ag138
asg26
I00
sg27
I00
sg28
I4448335
sg20
S'14777.3355885'
p665
sba(igraph
Edge
p666
(dp667
g7
I1
sg8
I00
sg9
I5
sg10
(lp668
g96
ag152
asg26
I00
sg27
I00
sg28
I4448336
sg20
S'14777.3381874'
p669
sba(igraph
Edge
p670
(dp671
g7
I1
sg8
I00
sg9
I5
sg10
(lp672
g103
ag152
asg26
I00
sg27
I00
sg28
I4448337
sg20
S'14777.3406123'
p673
sba(igraph
Edge
p674
(dp675
g7
I1
sg8
I00
sg9
I5
sg10
(lp676
g110
ag121
asg26
I00
sg27
I00
sg28
I4448338
sg20
S'14777.3430307'
p677
sba(igraph
Edge
p678
(dp679
g7
I1
sg8
I00
sg9
I5
sg10
(lp680
g121
ag170
asg26
I00
sg27
I00
sg28
I4448339
sg20
S'14777.3455733'
p681
sba(igraph
Edge
p682
(dp683
g7
I1
sg8
I00
sg9
I5
sg10
(lp684
g124
ag180
asg26
I00
sg27
I00
sg28
I4448340
sg20
S'14777.348173'
p685
sba(igraph
Edge
p686
(dp687
g7
I1
sg8
I00
sg9
I5
sg10
(lp688
g131
ag180
asg26
I00
sg27
I00
sg28
I4448341
sg20
S'14777.3506809'
p689
sba(igraph
Edge
p690
(dp691
g7
I1
sg8
I00
sg9
I5
sg10
(lp692
g138
ag194
asg26
I00
sg27
I00
sg28
I4448342
sg20
S'14777.3536335'
p693
sba(igraph
Edge
p694
(dp695
g7
I1
sg8
I00
sg9
I5
sg10
(lp696
g145
ag194
asg26
I00
sg27
I00
sg28
I4448343
sg20
S'14777.3561749'
p697
sba(igraph
Edge
p698
(dp699
g7
I1
sg8
I00
sg9
I5
sg10
(lp700
g152
ag208
asg26
I00
sg27
I00
sg28
I4448344
sg20
S'14777.3588599'
p701
sba(igraph
Edge
p702
(dp703
g7
I1
sg8
I00
sg9
I5
sg10
(lp704
g159
ag208
asg26
I00
sg27
I00
sg28
I4448345
sg20
S'14777.3614619'
p705
sba(igraph
Edge
p706
(dp707
g7
I1
sg8
I00
sg9
I5
sg10
(lp708
g121
ag173
asg26
I00
sg27
I00
sg28
I4448346
sg20
S'14777.3640644'
p709
sba(igraph
Edge
p710
(dp711
g7
I1
sg8
I00
sg9
I5
sg10
(lp712
g124
ag173
asg26
I00
sg27
I00
sg28
I4448347
sg20
S'14777.3666731'
p713
sba(igraph
Edge
p714
(dp715
g7
I1
sg8
I00
sg9
I5
sg10
(lp716
g131
ag187
asg26
I00
sg27
I00
sg28
I4448348
sg20
S'14777.3693908'
p717
sba(igraph
Edge
p718
(dp719
g7
I1
sg8
I00
sg9
I5
sg10
(lp720
g138
ag187
asg26
I00
sg27
I00
sg28
I4448349
sg20
S'14777.3720909'
p721
sba(igraph
Edge
p722
(dp723
g7
I1
sg8
I00
sg9
I5
sg10
(lp724
g145
ag201
asg26
I00
sg27
I00
sg28
I4448350
sg20
S'14777.3748675'
p725
sba(igraph
Edge
p726
(dp727
g7
I1
sg8
I00
sg9
I5
sg10
(lp728
g152
ag201
asg26
I00
sg27
I00
sg28
I4448351
sg20
S'14777.3776022'
p729
sba(igraph
Edge
p730
(dp731
g7
I1
sg8
I00
sg9
I5
sg10
(lp732
g159
ag170
asg26
I00
sg27
I00
sg28
I4448352
sg20
S'14777.380362'
p733
sba(igraph
Edge
p734
(dp735
g7
I1
sg8
I00
sg9
I5
sg10
(lp736
g170
ag219
asg26
I00
sg27
I00
sg28
I4448353
sg20
S'14777.3831099'
p737
sba(igraph
Edge
p738
(dp739
g7
I1
sg8
I00
sg9
I5
sg10
(lp740
g173
ag229
asg26
I00
sg27
I00
sg28
I4448354
sg20
S'14777.3859186'
p741
sba(igraph
Edge
p742
(dp743
g7
I1
sg8
I00
sg9
I5
sg10
(lp744
g180
ag229
asg26
I00
sg27
I00
sg28
I4448355
sg20
S'14777.3887958'
p745
sba(igraph
Edge
p746
(dp747
g7
I1
sg8
I00
sg9
I5
sg10
(lp748
g187
ag243
asg26
I00
sg27
I00
sg28
I4448356
sg20
S'14777.3916054'
p749
sba(igraph
Edge
p750
(dp751
g7
I1
sg8
I00
sg9
I5
sg10
(lp752
g194
ag243
asg26
I00
sg27
I00
sg28
I4448357
sg20
S'14777.3944638'
p753
sba(igraph
Edge
p754
(dp755
g7
I1
sg8
I00
sg9
I5
sg10
(lp756
g201
ag257
asg26
I00
sg27
I00
sg28
I4448358
sg20
S'14777.3974262'
p757
sba(igraph
Edge
p758
(dp759
g7
I1
sg8
I00
sg9
I5
sg10
(lp760
g208
ag257
asg26
I00
sg27
I00
sg28
I4448359
sg20
S'14777.4009308'
p761
sba(igraph
Edge
p762
(dp763
g7
I1
sg8
I00
sg9
I5
sg10
(lp764
g170
ag222
asg26
I00
sg27
I00
sg28
I4448360
sg20
S'14777.4039128'
p765
sba(igraph
Edge
p766
(dp767
g7
I1
sg8
I00
sg9
I5
sg10
(lp768
g173
ag222
asg26
I00
sg27
I00
sg28
I4448361
sg20
S'14777.406847'
p769
sba(igraph
Edge
p770
(dp771
g7
I1
sg8
I00
sg9
I5
sg10
(lp772
g180
ag236
asg26
I00
sg27
I00
sg28
I4448362
sg20
S'14777.4098926'
p773
sba(igraph
Edge
p774
(dp775
g7
I1
sg8
I00
sg9
I5
sg10
(lp776
g187
ag236
asg26
I00
sg27
I00
sg28
I4448363
sg20
S'14777.4128433'
p777
sba(igraph
Edge
p778
(dp779
g7
I1
sg8
I00
sg9
I5
sg10
(lp780
g194
ag250
asg26
I00
sg27
I00
sg28
I4448364
sg20
S'14777.4158562'
p781
sba(igraph
Edge
p782
(dp783
g7
I1
sg8
I00
sg9
I5
sg10
(lp784
g201
ag250
asg26
I00
sg27
I00
sg28
I4448365
sg20
S'14777.4189295'
p785
sba(igraph
Edge
p786
(dp787
g7
I1
sg8
I00
sg9
I5
sg10
(lp788
g208
ag219
asg26
I00
sg27
I00
sg28
I4448366
sg20
S'14777.4220405'
p789
sba(igraph
Edge
p790
(dp791
g7
I1
sg8
I00
sg9
I5
sg10
(lp792
g219
ag268
asg26
I00
sg27
I00
sg28
I4448367
sg20
S'14777.4251113'
p793
sba(igraph
Edge
p794
(dp795
g7
I1
sg8
I00
sg9
I5
sg10
(lp796
g222
ag278
asg26
I00
sg27
I00
sg28
I4448368
sg20
S'14777.4281572'
p797
sba(igraph
Edge
p798
(dp799
g7
I1
sg8
I00
sg9
I5
sg10
(lp800
g229
ag278
asg26
I00
sg27
I00
sg28
I4448369
sg20
S'14777.4312906'
p801
sba(igraph
Edge
p802
(dp803
g7
I1
sg8
I00
sg9
I5
sg10
(lp804
g236
ag292
asg26
I00
sg27
I00
sg28
I4448370
sg20
S'14777.43456'
p805
sba(igraph
Edge
p806
(dp807
g7
I1
sg8
I00
sg9
I5
sg10
(lp808
g243
ag292
asg26
I00
sg27
I00
sg28
I4448371
sg20
S'14777.4376433'
p809
sba(igraph
Edge
p810
(dp811
g7
I1
sg8
I00
sg9
I5
sg10
(lp812
g250
ag306
asg26
I00
sg27
I00
sg28
I4448372
sg20
S'14777.4407753'
p813
sba(igraph
Edge
p814
(dp815
g7
I1
sg8
I00
sg9
I5
sg10
(lp816
g257
ag306
asg26
I00
sg27
I00
sg28
I4448373
sg20
S'14777.4439137'
p817
sba(igraph
Edge
p818
(dp819
g7
I1
sg8
I00
sg9
I5
sg10
(lp820
g219
ag271
asg26
I00
sg27
I00
sg28
I4448374
sg20
S'14777.4475245'
p821
sba(igraph
Edge
p822
(dp823
g7
I1
sg8
I00
sg9
I5
sg10
(lp824
g222
ag271
asg26
I00
sg27
I00
sg28
I4448375
sg20
S'14777.4509006'
p825
sba(igraph
Edge
p826
(dp827
g7
I1
sg8
I00
sg9
I5
sg10
(lp828
g229
ag285
asg26
I00
sg27
I00
sg28
I4448376
sg20
S'14777.4541963'
p829
sba(igraph
Edge
p830
(dp831
g7
I1
sg8
I00
sg9
I5
sg10
(lp832
g236
ag285
asg26
I00
sg27
I00
sg28
I4448377
sg20
S'14777.457521'
p833
sba(igraph
Edge
p834
(dp835
g7
I1
sg8
I00
sg9
I5
sg10
(lp836
g243
ag299
asg26
I00
sg27
I00
sg28
I4448378
sg20
S'14777.460882'
p837
sba(igraph
Edge
p838
(dp839
g7
I1
sg8
I00
sg9
I5
sg10
(lp840
g250
ag299
asg26
I00
sg27
I00
sg28
I4448379
sg20
S'14777.4642068'
p841
sba(igraph
Edge
p842
(dp843
g7
I1
sg8
I00
sg9
I5
sg10
(lp844
g257
ag268
asg26
I00
sg27
I00
sg28
I4448380
sg20
S'14777.46752'
p845
sba(igraph
Edge
p846
(dp847
g7
I1
sg8
I00
sg9
I5
sg10
(lp848
g268
ag317
asg26
I00
sg27
I00
sg28
I4448381
sg20
S'14777.4708911'
p849
sba(igraph
Edge
p850
(dp851
g7
I1
sg8
I00
sg9
I5
sg10
(lp852
g271
ag327
asg26
I00
sg27
I00
sg28
I4448382
sg20
S'14777.4743036'
p853
sba(igraph
Edge
p854
(dp855
g7
I1
sg8
I00
sg9
I5
sg10
(lp856
g278
ag327
asg26
I00
sg27
I00
sg28
I4448383
sg20
S'14777.4777683'
p857
sba(igraph
Edge
p858
(dp859
g7
I1
sg8
I00
sg9
I5
sg10
(lp860
g285
ag341
asg26
I00
sg27
I00
sg28
I4448384
sg20
S'14777.4813978'
p861
sba(igraph
Edge
p862
(dp863
g7
I1
sg8
I00
sg9
I5
sg10
(lp864
g292
ag341
asg26
I00
sg27
I00
sg28
I4448385
sg20
S'14777.4848432'
p865
sba(igraph
Edge
p866
(dp867
g7
I1
sg8
I00
sg9
I5
sg10
(lp868
g299
ag355
asg26
I00
sg27
I00
sg28
I4448386
sg20
S'14777.4883366'
p869
sba(igraph
Edge
p870
(dp871
g7
I1
sg8
I00
sg9
I5
sg10
(lp872
g306
ag355
asg26
I00
sg27
I00
sg28
I4448387
sg20
S'14777.4918837'
p873
sba(igraph
Edge
p874
(dp875
g7
I1
sg8
I00
sg9
I5
sg10
(lp876
g268
ag320
asg26
I00
sg27
I00
sg28
I4448388
sg20
S'14777.4953861'
p877
sba(igraph
Edge
p878
(dp879
g7
I1
sg8
I00
sg9
I5
sg10
(lp880
g271
ag320
asg26
I00
sg27
I00
sg28
I4448389
sg20
S'14777.4989796'
p881
sba(igraph
Edge
p882
(dp883
g7
I1
sg8
I00
sg9
I5
sg10
(lp884
g278
ag334
asg26
I00
sg27
I00
sg28
I4448390
sg20
S'14777.5024837'
p885
sba(igraph
Edge
p886
(dp887
g7
I1
sg8
I00
sg9
I5
sg10
(lp888
g285
ag334
asg26
I00
sg27
I00
sg28
I4448391
sg20
S'14777.506035'
p889
sba(igraph
Edge
p890
(dp891
g7
I1
sg8
I00
sg9
I5
sg10
(lp892
g292
ag348
asg26
I00
sg27
I00
sg28
I4448392
sg20
S'14777.5096838'
p893
sba(igraph
Edge
p894
(dp895
g7
I1
sg8
I00
sg9
I5
sg10
(lp896
g299
ag348
asg26
I00
sg27
I00
sg28
I4448393
sg20
S'14777.5134102'
p897
sba(igraph
Edge
p898
(dp899
g7
I1
sg8
I00
sg9
I5
sg10
(lp900
g306
ag317
asg26
I00
sg27
I00
sg28
I4448394
sg20
S'14777.5170693'
p901
sba(igraph
Edge
p902
(dp903
g7
I1
sg8
I00
sg9
I5
sg10
(lp904
g317
ag366
asg26
I00
sg27
I00
sg28
I4448395
sg20
S'14777.5207458'
p905
sba(igraph
Edge
p906
(dp907
g7
I1
sg8
I00
sg9
I5
sg10
(lp908
g320
ag376
asg26
I00
sg27
I00
sg28
I4448396
sg20
S'14777.5245337'
p909
sba(igraph
Edge
p910
(dp911
g7
I1
sg8
I00
sg9
I5
sg10
(lp912
g327
ag376
asg26
I00
sg27
I00
sg28
I4448397
sg20
S'14777.5284241'
p913
sba(igraph
Edge
p914
(dp915
g7
I1
sg8
I00
sg9
I5
sg10
(lp916
g334
ag390
asg26
I00
sg27
I00
sg28
I4448398
sg20
S'14777.5321771'
p917
sba(igraph
Edge
p918
(dp919
g7
I1
sg8
I00
sg9
I5
sg10
(lp920
g341
ag390
asg26
I00
sg27
I00
sg28
I4448399
sg20
S'14777.5359134'
p921
sba(igraph
Edge
p922
(dp923
g7
I1
sg8
I00
sg9
I5
sg10
(lp924
g348
ag404
asg26
I00
sg27
I00
sg28
I4448400
sg20
S'14777.5396747'
p925
sba(igraph
Edge
p926
(dp927
g7
I1
sg8
I00
sg9
I5
sg10
(lp928
g355
ag404
asg26
I00
sg27
I00
sg28
I4448401
sg20
S'14777.5437965'
p929
sba(igraph
Edge
p930
(dp931
g7
I1
sg8
I00
sg9
I5
sg10
(lp932
g317
ag369
asg26
I00
sg27
I00
sg28
I4448402
sg20
S'14777.5476445'
p933
sba(igraph
Edge
p934
(dp935
g7
I1
sg8
I00
sg9
I5
sg10
(lp936
g320
ag369
asg26
I00
sg27
I00
sg28
I4448403
sg20
S'14777.5515011'
p937
sba(igraph
Edge
p938
(dp939
g7
I1
sg8
I00
sg9
I5
sg10
(lp940
g327
ag383
asg26
I00
sg27
I00
sg28
I4448404
sg20
S'14777.5553223'
p941
sba(igraph
Edge
p942
(dp943
g7
I1
sg8
I00
sg9
I5
sg10
(lp944
g334
ag383
asg26
I00
sg27
I00
sg28
I4448405
sg20
S'14777.5593705'
p945
sba(igraph
Edge
p946
(dp947
g7
I1
sg8
I00
sg9
I5
sg10
(lp948
g341
ag397
asg26
I00
sg27
I00
sg28
I4448406
sg20
S'14777.5633135'
p949
sba(igraph
Edge
p950
(dp951
g7
I1
sg8
I00
sg9
I5
sg10
(lp952
g348
ag397
asg26
I00
sg27
I00
sg28
I4448407
sg20
S'14777.5671961'
p953
sba(igraph
Edge
p954
(dp955
g7
I1
sg8
I00
sg9
I5
sg10
(lp956
g355
ag366
asg26
I00
sg27
I00
sg28
I4448408
sg20
S'14777.571148'
p957
sba(igraph
Edge
p958
(dp959
g7
I1
sg8
I00
sg9
I5
sg10
(lp960
g366
ag415
asg26
I00
sg27
I00
sg28
I4448409
sg20
S'14777.5752044'
p961
sba(igraph
Edge
p962
(dp963
g7
I1
sg8
I00
sg9
I5
sg10
(lp964
g369
ag425
asg26
I00
sg27
I00
sg28
I4448410
sg20
S'14777.5793203'
p965
sba(igraph
Edge
p966
(dp967
g7
I1
sg8
I00
sg9
I5
sg10
(lp968
g376
ag425
asg26
I00
sg27
I00
sg28
I4448411
sg20
S'14777.5833454'
p969
sba(igraph
Edge
p970
(dp971
g7
I1
sg8
I00
sg9
I5
sg10
(lp972
g383
ag439
asg26
I00
sg27
I00
sg28
I4448412
sg20
S'14777.5874381'
p973
sba(igraph
Edge
p974
(dp975
g7
I1
sg8
I00
sg9
I5
sg10
(lp976
g390
ag439
asg26
I00
sg27
I00
sg28
I4448413
sg20
S'14777.5915087'
p977
sba(igraph
Edge
p978
(dp979
g7
I1
sg8
I00
sg9
I5
sg10
(lp980
g397
ag453
asg26
I00
sg27
I00
sg28
I4448414
sg20
S'14777.5956293'
p981
sba(igraph
Edge
p982
(dp983
g7
I1
sg8
I00
sg9
I5
sg10
(lp984
g404
ag453
asg26
I00
sg27
I00
sg28
I4448415
sg20
S'14777.599812'
p985
sba(igraph
Edge
p986
(dp987
g7
I1
sg8
I00
sg9
I5
sg10
(lp988
g366
ag418
asg26
I00
sg27
I00
sg28
I4448416
sg20
S'14777.6039002'
p989
sba(igraph
Edge
p990
(dp991
g7
I1
sg8
I00
sg9
I5
sg10
(lp992
g369
ag418
asg26
I00
sg27
I00
sg28
I4448417
sg20
S'14777.6081628'
p993
sba(igraph
Edge
p994
(dp995
g7
I1
sg8
I00
sg9
I5
sg10
(lp996
g376
ag432
asg26
I00
sg27
I00
sg28
I4448418
sg20
S'14777.6122979'
p997
sba(igraph
Edge
p998
(dp999
g7
I1
sg8
I00
sg9
I5
sg10
(lp1000
g383
ag432
asg26
I00
sg27
I00
sg28
I4448419
sg20
S'14777.6164507'
p1001
sba(igraph
Edge
p1002
(dp1003
g7
I1
sg8
I00
sg9
I5
sg10
(lp1004
g390
ag446
asg26
I00
sg27
I00
sg28
I4448420
sg20
S'14777.6207859'
p1005
sba(igraph
Edge
p1006
(dp1007
g7
I1
sg8
I00
sg9
I5
sg10
(lp1008
g397
ag446
asg26
I00
sg27
I00
sg28
I4448421
sg20
S'14777.6249892'
p1009
sba(igraph
Edge
p1010
(dp1011
g7
I1
sg8
I00
sg9
I5
sg10
(lp1012
g404
ag415
asg26
I00
sg27
I00
sg28
I4448422
sg20
S'14777.6292512'
p1013
sba(igraph
Edge
p1014
(dp1015
g7
I1
sg8
I00
sg9
I5
sg10
(lp1016
g415
ag464
asg26
I00
sg27
I00
sg28
I4448423
sg20
S'14777.6338328'
p1017
sba(igraph
Edge
p1018
(dp1019
g7
I1
sg8
I00
sg9
I5
sg10
(lp1020
g418
ag474
asg26
I00
sg27
I00
sg28
I4448424
sg20
S'14777.6381308'
p1021
sba(igraph
Edge
p1022
(dp1023
g7
I1
sg8
I00
sg9
I5
sg10
(lp1024
g425
ag474
asg26
I00
sg27
I00
sg28
I4448425
sg20
S'14777.6425286'
p1025
sba(igraph
Edge
p1026
(dp1027
g7
I1
sg8
I00
sg9
I5
sg10
(lp1028
g432
ag488
asg26
I00
sg27
I00
sg28
I4448426
sg20
S'14777.6469308'
p1029
sba(igraph
Edge
p1030
(dp1031
g7
I1
sg8
I00
sg9
I5
sg10
(lp1032
g439
ag488
asg26
I00
sg27
I00
sg28
I4448427
sg20
S'14777.6513923'
p1033
sba(igraph
Edge
p1034
(dp1035
g7
I1
sg8
I00
sg9
I5
sg10
(lp1036
g446
ag502
asg26
I00
sg27
I00
sg28
I4448428
sg20
S'14777.6557663'
p1037
sba(igraph
Edge
p1038
(dp1039
g7
I1
sg8
I00
sg9
I5
sg10
(lp1040
g453
ag502
asg26
I00
sg27
I00
sg28
I4448429
sg20
S'14777.6602834'
p1041
sba(igraph
Edge
p1042
(dp1043
g7
I1
sg8
I00
sg9
I5
sg10
(lp1044
g415
ag467
asg26
I00
sg27
I00
sg28
I4448430
sg20
S'14777.6647909'
p1045
sba(igraph
Edge
p1046
(dp1047
g7
I1
sg8
I00
sg9
I5
sg10
(lp1048
g418
ag467
asg26
I00
sg27
I00
sg28
I4448431
sg20
S'14777.6693409'
p1049
sba(igraph
Edge
p1050
(dp1051
g7
I1
sg8
I00
sg9
I5
sg10
(lp1052
g425
ag481
asg26
I00
sg27
I00
sg28
I4448432
sg20
S'14777.6739278'
p1053
sba(igraph
Edge
p1054
(dp1055
g7
I1
sg8
I00
sg9
I5
sg10
(lp1056
g432
ag481
asg26
I00
sg27
I00
sg28
I4448433
sg20
S'14777.6786206'
p1057
sba(igraph
Edge
p1058
(dp1059
g7
I1
sg8
I00
sg9
I5
sg10
(lp1060
g439
ag495
asg26
I00
sg27
I00
sg28
I4448434
sg20
S'14777.6833075'
p1061
sba(igraph
Edge
p1062
(dp1063
g7
I1
sg8
I00
sg9
I5
sg10
(lp1064
g446
ag495
asg26
I00
sg27
I00
sg28
I4448435
sg20
S'14777.6878159'
p1065
sba(igraph
Edge
p1066
(dp1067
g7
I1
sg8
I00
sg9
I5
sg10
(lp1068
g453
ag464
asg26
I00
sg27
I00
sg28
I4448436
sg20
S'14777.6924157'
p1069
sbasS'vertices'
p1070
(lp1071
g12
ag23
ag33
ag40
ag47
ag54
ag61
ag72
ag75
ag82
ag89
ag96
ag103
ag110
ag121
ag124
ag131
ag138
ag145
ag152
ag159
ag170
ag173
ag180
ag187
ag194
ag201
ag208
ag219
ag222
ag229
ag236
ag243
ag250
ag257
ag268
ag271
ag278
ag285
ag292
ag299
ag306
ag317
ag320
ag327
ag334
ag341
ag348
ag355
ag366
ag369
ag376
ag383
ag390
ag397
ag404
ag415
ag418
ag425
ag432
ag439
ag446
ag453
ag464
ag467
ag474
ag481
ag488
ag495
ag502
asS'tags'
p1072
(lp1073
sb.