(igraph
Graph
p0
(dp1
S'labelingConstraints'
p2
I-1
sS'edges'
p3
(lp4
(igraph
Edge
p5
(dp6
S'direction'
p7
I1
sS'selected'
p8
I00
sS'height'
p9
I5
sS'vs'
p10
(lp11
(igraph
Vertex
p12
(dp13
S'xnorm'
p14
F0.0
sg8
I00
sS'label'
p15
S'NULL'
p16
sS'y'
p17
F-135.0
sS'x'
p18
F-149.99999999999997
sS'circle'
p19
I4035777
sS'id'
p20
S'13077.1320643'
p21
sS'ynorm'
p22
F0.0
sba(igraph
Vertex
p23
(dp24
g14
F0.10000000000000002
sg8
I00
sg15
I0
sg17
F-135.0
sg18
F-188.09999999999997
sg19
I4035778
sg20
S'13077.1320844'
p25
sg22
F0.0
sbasS'wrap'
p26
I00
sS'curved'
p27
I00
sS'line'
p28
I4035447
sg20
S'13077.1839105'
p29
sba(igraph
Edge
p30
(dp31
g7
I1
sg8
I00
sg9
I5
sg10
(lp32
g23
a(igraph
Vertex
p33
(dp34
g14
F0.20000000000000004
sg8
I00
sg15
g16
sg17
F-135.0
sg18
F-226.19999999999999
sg19
I4035780
sg20
S'13077.1321048'
p35
sg22
F0.0
sbasg26
I00
sg27
I00
sg28
I4035448
sg20
S'13077.1839695'
p36
sba(igraph
Edge
p37
(dp38
g7
I1
sg8
I00
sg9
I5
sg10
(lp39
g33
a(igraph
Vertex
p40
(dp41
g14
F0.3000000000000001
sg8
I00
sg15
g16
sg17
F-135.0
sg18
F-264.30000000000001
sg19
I4035781
sg20
S'13077.1321308'
p42
sg22
F0.0
sbasg26
I00
sg27
I00
sg28
I4035449
sg20
S'13077.1840469'
p43
sba(igraph
Edge
p44
(dp45
g7
I1
sg8
I00
sg9
I5
sg10
(lp46
g40
a(igraph
Vertex
p47
(dp48
g14
F0.40000000000000008
sg8
I00
sg15
g16
sg17
F-135.0
sg18
F-302.39999999999998
sg19
I4035782
sg20
S'13077.1321662'
p49
sg22
F0.0
sbasg26
I00
sg27
I00
sg28
I4035450
sg20
S'13077.1841449'
p50
sba(igraph
Edge
p51
(dp52
g7
I1
sg8
I00
sg9
I5
sg10
(lp53
g47
a(igraph
Vertex
p54
(dp55
g14
F0.50000000000000011
sg8
I00
sg15
g16
sg17
F-135.0
sg18
F-340.5
sg19
I4035783
sg20
S'13077.1322073'
p56
sg22
F0.0
sbasg26
I00
sg27
I00
sg28
I4035451
sg20
S'13077.1842642'
p57
sba(igraph
Edge
p58
(dp59
g7
I1
sg8
I00
sg9
I5
sg10
(lp60
g54
a(igraph
Vertex
p61
(dp62
g14
F0.60000000000000009
sg8
I00
sg15
g16
sg17
F-135.0
sg18
F-378.60000000000002
sg19
I4035784
sg20
S'13077.1322576'
p63
sg22
F0.0
sbasg26
I00
sg27
I00
sg28
I4035452
sg20
S'13077.1844056'
p64
sba(igraph
Edge
p65
(dp66
g7
I1
sg8
I00
sg9
I5
sg10
(lp67
g61
a(igraph
Vertex
p68
(dp69
g14
F0.70000000000000018
sg8
I00
sg15
g16
sg17
F-135.0
sg18
F-416.70000000000005
sg19
I4035785
sg20
S'13077.1323137'
p70
sg22
F0.0
sbasg26
I00
sg27
I00
sg28
I4035453
sg20
S'13077.1845676'
p71
sba(igraph
Edge
p72
(dp73
g7
I1
sg8
I00
sg9
I5
sg10
(lp74
g68
a(igraph
Vertex
p75
(dp76
g14
F0.80000000000000004
sg8
I00
sg15
g16
sg17
F-135.0
sg18
F-454.79999999999995
sg19
I4035786
sg20
S'13077.1323766'
p77
sg22
F0.0
sbasg26
I00
sg27
I00
sg28
I4035454
sg20
S'13077.1847539'
p78
sba(igraph
Edge
p79
(dp80
g7
I1
sg8
I00
sg9
I5
sg10
(lp81
g75
a(igraph
Vertex
p82
(dp83
g14
F0.90000000000000013
sg8
I00
sg15
g16
sg17
F-135.0
sg18
F-492.89999999999998
sg19
I4035787
sg20
S'13077.1324481'
p84
sg22
F0.0
sbasg26
I00
sg27
I00
sg28
I4035455
sg20
S'13077.1849579'
p85
sba(igraph
Edge
p86
(dp87
g7
I1
sg8
I00
sg9
I5
sg10
(lp88
g82
a(igraph
Vertex
p89
(dp90
g14
F1.0
sg8
I00
sg15
g16
sg17
F-135.0
sg18
F-531.0
sg19
I4035788
sg20
S'13077.1325263'
p91
sg22
F0.0
sbasg26
I00
sg27
I00
sg28
I4035456
sg20
S'13077.1851842'
p92
sba(igraph
Edge
p93
(dp94
g7
I1
sg8
I00
sg9
I5
sg10
(lp95
g89
ag12
asg26
I00
sg27
I00
sg28
I4035457
sg20
S'13077.1854322'
p96
sba(igraph
Edge
p97
(dp98
g7
I1
sg8
I00
sg9
I5
sg10
(lp99
(igraph
Vertex
p100
(dp101
g14
F0.0
sg8
I00
sg15
g16
sg17
F-84.777777777777771
sg18
F-149.99999999999997
sg19
I4035789
sg20
S'13077.1326141'
p102
sg22
F0.1111111111111111
sba(igraph
Vertex
p103
(dp104
g14
F0.10000000000000002
sg8
I00
sg15
g16
sg17
F-84.777777777777771
sg18
F-188.09999999999997
sg19
I4035790
sg20
S'13077.1327104'
p105
sg22
F0.1111111111111111
sbasg26
I00
sg27
I00
sg28
I4035458
sg20
S'13077.1857021'
p106
sba(igraph
Edge
p107
(dp108
g7
I1
sg8
I00
sg9
I5
sg10
(lp109
g103
a(igraph
Vertex
p110
(dp111
g14
F0.20000000000000004
sg8
I00
sg15
g16
sg17
F-84.777777777777771
sg18
F-226.19999999999999
sg19
I4035791
sg20
S'13077.1328138'
p112
sg22
F0.1111111111111111
sbasg26
I00
sg27
I00
sg28
I4035459
sg20
S'13077.1859918'
p113
sba(igraph
Edge
p114
(dp115
g7
I1
sg8
I00
sg9
I5
sg10
(lp116
g110
a(igraph
Vertex
p117
(dp118
g14
F0.3000000000000001
sg8
I00
sg15
I0
sg17
F-84.777777777777771
sg18
F-264.30000000000001
sg19
I4035792
sg20
S'13077.132927'
p119
sg22
F0.1111111111111111
sbasg26
I00
sg27
I00
sg28
I4035460
sg20
S'13077.1863033'
p120
sba(igraph
Edge
p121
(dp122
g7
I1
sg8
I00
sg9
I5
sg10
(lp123
g117
a(igraph
Vertex
p124
(dp125
g14
F0.40000000000000008
sg8
I00
sg15
g16
sg17
F-84.777777777777771
sg18
F-302.39999999999998
sg19
I4035794
sg20
S'13077.1330446'
p126
sg22
F0.1111111111111111
sbasg26
I00
sg27
I00
sg28
I4035461
sg20
S'13077.1866385'
p127
sba(igraph
Edge
p128
(dp129
g7
I1
sg8
I00
sg9
I5
sg10
(lp130
g124
a(igraph
Vertex
p131
(dp132
g14
F0.50000000000000011
sg8
I00
sg15
g16
sg17
F-84.777777777777771
sg18
F-340.5
sg19
I4035795
sg20
S'13077.13317'
p133
sg22
F0.1111111111111111
sbasg26
I00
sg27
I00
sg28
I4035462
sg20
S'13077.1869933'
p134
sba(igraph
Edge
p135
(dp136
g7
I1
sg8
I00
sg9
I5
sg10
(lp137
g131
a(igraph
Vertex
p138
(dp139
g14
F0.60000000000000009
sg8
I00
sg15
g16
sg17
F-84.777777777777771
sg18
F-378.60000000000002
sg19
I4035796
sg20
S'13077.133303'
p140
sg22
F0.1111111111111111
sbasg26
I00
sg27
I00
sg28
I4035463
sg20
S'13077.1873657'
p141
sba(igraph
Edge
p142
(dp143
g7
I1
sg8
I00
sg9
I5
sg10
(lp144
g138
a(igraph
Vertex
p145
(dp146
g14
F0.70000000000000018
sg8
I00
sg15
g16
sg17
F-84.777777777777771
sg18
F-416.70000000000005
sg19
I4035797
sg20
S'13077.1334446'
p147
sg22
F0.1111111111111111
sbasg26
I00
sg27
I00
sg28
I4035464
sg20
S'13077.1877621'
p148
sba(igraph
Edge
p149
(dp150
g7
I1
sg8
I00
sg9
I5
sg10
(lp151
g145
a(igraph
Vertex
p152
(dp153
g14
F0.80000000000000004
sg8
I00
sg15
g16
sg17
F-84.777777777777771
sg18
F-454.79999999999995
sg19
I4035798
sg20
S'13077.1335938'
p154
sg22
F0.1111111111111111
sbasg26
I00
sg27
I00
sg28
I4035465
sg20
S'13077.1881781'
p155
sba(igraph
Edge
p156
(dp157
g7
I1
sg8
I00
sg9
I5
sg10
(lp158
g152
a(igraph
Vertex
p159
(dp160
g14
F0.90000000000000013
sg8
I00
sg15
g16
sg17
F-84.777777777777771
sg18
F-492.89999999999998
sg19
I4035799
sg20
S'13077.1337508'
p161
sg22
F0.1111111111111111
sbasg26
I00
sg27
I00
sg28
I4035466
sg20
S'13077.1886173'
p162
sba(igraph
Edge
p163
(dp164
g7
I1
sg8
I00
sg9
I5
sg10
(lp165
g159
a(igraph
Vertex
p166
(dp167
g14
F1.0
sg8
I00
sg15
g16
sg17
F-84.777777777777771
sg18
F-531.0
sg19
I4035800
sg20
S'13077.1339181'
p168
sg22
F0.1111111111111111
sbasg26
I00
sg27
I00
sg28
I4035467
sg20
S'13077.1890779'
p169
sba(igraph
Edge
p170
(dp171
g7
I1
sg8
I00
sg9
I5
sg10
(lp172
g166
ag100
asg26
I00
sg27
I00
sg28
I4035468
sg20
S'13077.1895967'
p173
sba(igraph
Edge
p174
(dp175
g7
I1
sg8
I00
sg9
I5
sg10
(lp176
(igraph
Vertex
p177
(dp178
g14
F0.0
sg8
I00
sg15
g16
sg17
F-34.555555555555557
sg18
F-149.99999999999997
sg19
I4035801
sg20
S'13077.1340958'
p179
sg22
F0.22222222222222221
sba(igraph
Vertex
p180
(dp181
g14
F0.10000000000000002
sg8
I00
sg15
g16
sg17
F-34.555555555555557
sg18
F-188.09999999999997
sg19
I4035802
sg20
S'13077.1342771'
p182
sg22
F0.22222222222222221
sbasg26
I00
sg27
I00
sg28
I4035469
sg20
S'13077.1901113'
p183
sba(igraph
Edge
p184
(dp185
g7
I1
sg8
I00
sg9
I5
sg10
(lp186
g180
a(igraph
Vertex
p187
(dp188
g14
F0.20000000000000004
sg8
I00
sg15
g16
sg17
F-34.555555555555557
sg18
F-226.19999999999999
sg19
I4035803
sg20
S'13077.134466'
p189
sg22
F0.22222222222222221
sbasg26
I00
sg27
I00
sg28
I4035470
sg20
S'13077.1906427'
p190
sba(igraph
Edge
p191
(dp192
g7
I1
sg8
I00
sg9
I5
sg10
(lp193
g187
a(igraph
Vertex
p194
(dp195
g14
F0.3000000000000001
sg8
I00
sg15
g16
sg17
F-34.555555555555557
sg18
F-264.30000000000001
sg19
I4035804
sg20
S'13077.1346632'
p196
sg22
F0.22222222222222221
sbasg26
I00
sg27
I00
sg28
I4035471
sg20
S'13077.1911891'
p197
sba(igraph
Edge
p198
(dp199
g7
I1
sg8
I00
sg9
I5
sg10
(lp200
g194
a(igraph
Vertex
p201
(dp202
g14
F0.40000000000000008
sg8
I00
sg15
g16
sg17
F-34.555555555555557
sg18
F-302.39999999999998
sg19
I4035805
sg20
S'13077.1348685'
p203
sg22
F0.22222222222222221
sbasg26
I00
sg27
I00
sg28
I4035472
sg20
S'13077.1917632'
p204
sba(igraph
Edge
p205
(dp206
g7
I1
sg8
I00
sg9
I5
sg10
(lp207
g201
a(igraph
Vertex
p208
(dp209
g14
F0.50000000000000011
sg8
I00
sg15
g16
sg17
F-34.555555555555557
sg18
F-340.5
sg19
I4035806
sg20
S'13077.1351074'
p210
sg22
F0.22222222222222221
sbasg26
I00
sg27
I00
sg28
I4035473
sg20
S'13077.1923538'
p211
sba(igraph
Edge
p212
(dp213
g7
I1
sg8
I00
sg9
I5
sg10
(lp214
g208
a(igraph
Vertex
p215
(dp216
g14
F0.60000000000000009
sg8
I00
sg15
g16
sg17
F-34.555555555555557
sg18
F-378.60000000000002
sg19
I4035807
sg20
S'13077.1353306'
p217
sg22
F0.22222222222222221
sbasg26
I00
sg27
I00
sg28
I4035474
sg20
S'13077.1930237'
p218
sba(igraph
Edge
p219
(dp220
g7
I1
sg8
I00
sg9
I5
sg10
(lp221
g215
a(igraph
Vertex
p222
(dp223
g14
F0.70000000000000018
sg8
I00
sg15
g16
sg17
F-34.555555555555557
sg18
F-416.70000000000005
sg19
I4035808
sg20
S'13077.1355614'
p224
sg22
F0.22222222222222221
sbasg26
I00
sg27
I00
sg28
I4035475
sg20
S'13077.1936539'
p225
sba(igraph
Edge
p226
(dp227
g7
I1
sg8
I00
sg9
I5
sg10
(lp228
g222
a(igraph
Vertex
p229
(dp230
g14
F0.80000000000000004
sg8
I00
sg15
g16
sg17
F-34.555555555555557
sg18
F-454.79999999999995
sg19
I4035809
sg20
S'13077.1358002'
p231
sg22
F0.22222222222222221
sbasg26
I00
sg27
I00
sg28
I4035476
sg20
S'13077.1943079'
p232
sba(igraph
Edge
p233
(dp234
g7
I1
sg8
I00
sg9
I5
sg10
(lp235
g229
a(igraph
Vertex
p236
(dp237
g14
F0.90000000000000013
sg8
I00
sg15
g16
sg17
F-34.555555555555557
sg18
F-492.89999999999998
sg19
I4035810
sg20
S'13077.1360522'
p238
sg22
F0.22222222222222221
sbasg26
I00
sg27
I00
sg28
I4035477
sg20
S'13077.1949832'
p239
sba(igraph
Edge
p240
(dp241
g7
I1
sg8
I00
sg9
I5
sg10
(lp242
g236
a(igraph
Vertex
p243
(dp244
g14
F1.0
sg8
I00
sg15
g16
sg17
F-34.555555555555557
sg18
F-531.0
sg19
I4035811
sg20
S'13077.1363053'
p245
sg22
F0.22222222222222221
sbasg26
I00
sg27
I00
sg28
I4035478
sg20
S'13077.1956788'
p246
sba(igraph
Edge
p247
(dp248
g7
I1
sg8
I00
sg9
I5
sg10
(lp249
g243
ag177
asg26
I00
sg27
I00
sg28
I4035479
sg20
S'13077.1964107'
p250
sba(igraph
Edge
p251
(dp252
g7
I1
sg8
I00
sg9
I5
sg10
(lp253
(igraph
Vertex
p254
(dp255
g14
F0.0
sg8
I00
sg15
g16
sg17
F15.666666666666657
sg18
F-149.99999999999997
sg19
I4035812
sg20
S'13077.136569'
p256
sg22
F0.33333333333333331
sba(igraph
Vertex
p257
(dp258
g14
F0.10000000000000002
sg8
I00
sg15
g16
sg17
F15.666666666666657
sg18
F-188.09999999999997
sg19
I4035813
sg20
S'13077.136871'
p259
sg22
F0.33333333333333331
sbasg26
I00
sg27
I00
sg28
I4035480
sg20
S'13077.1971522'
p260
sba(igraph
Edge
p261
(dp262
g7
I1
sg8
I00
sg9
I5
sg10
(lp263
g257
a(igraph
Vertex
p264
(dp265
g14
F0.20000000000000004
sg8
I00
sg15
g16
sg17
F15.666666666666657
sg18
F-226.19999999999999
sg19
I4035814
sg20
S'13077.1371535'
p266
sg22
F0.33333333333333331
sbasg26
I00
sg27
I00
sg28
I4035481
sg20
S'13077.1979076'
p267
sba(igraph
Edge
p268
(dp269
g7
I1
sg8
I00
sg9
I5
sg10
(lp270
g264
a(igraph
Vertex
p271
(dp272
g14
F0.3000000000000001
sg8
I00
sg15
g16
sg17
F15.666666666666657
sg18
F-264.30000000000001
sg19
I4035815
sg20
S'13077.1374393'
p273
sg22
F0.33333333333333331
sbasg26
I00
sg27
I00
sg28
I4035482
sg20
S'13077.1986889'
p274
sba(igraph
Edge
p275
(dp276
g7
I1
sg8
I00
sg9
I5
sg10
(lp277
g271
a(igraph
Vertex
p278
(dp279
g14
F0.40000000000000008
sg8
I00
sg15
I0
sg17
F15.666666666666657
sg18
F-302.39999999999998
sg19
I4035816
sg20
S'13077.1377357'
p280
sg22
F0.33333333333333331
sbasg26
I00
sg27
I00
sg28
I4035483
sg20
S'13077.1994941'
p281
sba(igraph
Edge
p282
(dp283
g7
I1
sg8
I00
sg9
I5
sg10
(lp284
g278
a(igraph
Vertex
p285
(dp286
g14
F0.50000000000000011
sg8
I00
sg15
g16
sg17
F15.666666666666657
sg18
F-340.5
sg19
I4035818
sg20
S'13077.1380424'
p287
sg22
F0.33333333333333331
sbasg26
I00
sg27
I00
sg28
I4035484
sg20
S'13077.2003174'
p288
sba(igraph
Edge
p289
(dp290
g7
I1
sg8
I00
sg9
I5
sg10
(lp291
g285
a(igraph
Vertex
p292
(dp293
g14
F0.60000000000000009
sg8
I00
sg15
g16
sg17
F15.666666666666657
sg18
F-378.60000000000002
sg19
I4035819
sg20
S'13077.1383539'
p294
sg22
F0.33333333333333331
sbasg26
I00
sg27
I00
sg28
I4035485
sg20
S'13077.2011647'
p295
sba(igraph
Edge
p296
(dp297
g7
I1
sg8
I00
sg9
I5
sg10
(lp298
g292
a(igraph
Vertex
p299
(dp300
g14
F0.70000000000000018
sg8
I00
sg15
g16
sg17
F15.666666666666657
sg18
F-416.70000000000005
sg19
I4035820
sg20
S'13077.1386724'
p301
sg22
F0.33333333333333331
sbasg26
I00
sg27
I00
sg28
I4035486
sg20
S'13077.2020466'
p302
sba(igraph
Edge
p303
(dp304
g7
I1
sg8
I00
sg9
I5
sg10
(lp305
g299
a(igraph
Vertex
p306
(dp307
g14
F0.80000000000000004
sg8
I00
sg15
g16
sg17
F15.666666666666657
sg18
F-454.79999999999995
sg19
I4035821
sg20
S'13077.139011'
p308
sg22
F0.33333333333333331
sbasg26
I00
sg27
I00
sg28
I4035487
sg20
S'13077.2029392'
p309
sba(igraph
Edge
p310
(dp311
g7
I1
sg8
I00
sg9
I5
sg10
(lp312
g306
a(igraph
Vertex
p313
(dp314
g14
F0.90000000000000013
sg8
I00
sg15
g16
sg17
F15.666666666666657
sg18
F-492.89999999999998
sg19
I4035822
sg20
S'13077.1393468'
p315
sg22
F0.33333333333333331
sbasg26
I00
sg27
I00
sg28
I4035488
sg20
S'13077.2038569'
p316
sba(igraph
Edge
p317
(dp318
g7
I1
sg8
I00
sg9
I5
sg10
(lp319
g313
a(igraph
Vertex
p320
(dp321
g14
F1.0
sg8
I00
sg15
g16
sg17
F15.666666666666657
sg18
F-531.0
sg19
I4035823
sg20
S'13077.1396895'
p322
sg22
F0.33333333333333331
sbasg26
I00
sg27
I00
sg28
I4035489
sg20
S'13077.2047939'
p323
sba(igraph
Edge
p324
(dp325
g7
I1
sg8
I00
sg9
I5
sg10
(lp326
g320
ag254
asg26
I00
sg27
I00
sg28
I4035490
sg20
S'13077.2058069'
p327
sba(igraph
Edge
p328
(dp329
g7
I1
sg8
I00
sg9
I5
sg10
(lp330
(igraph
Vertex
p331
(dp332
g14
F0.0
sg8
I00
sg15
g16
sg17
F65.888888888888886
sg18
F-149.99999999999997
sg19
I4035824
sg20
S'13077.1400429'
p333
sg22
F0.44444444444444442
sba(igraph
Vertex
p334
(dp335
g14
F0.10000000000000002
sg8
I00
sg15
g16
sg17
F65.888888888888886
sg18
F-188.09999999999997
sg19
I4035825
sg20
S'13077.1403988'
p336
sg22
F0.44444444444444442
sbasg26
I00
sg27
I00
sg28
I4035491
sg20
S'13077.2067805'
p337
sba(igraph
Edge
p338
(dp339
g7
I1
sg8
I00
sg9
I5
sg10
(lp340
g334
a(igraph
Vertex
p341
(dp342
g14
F0.20000000000000004
sg8
I00
sg15
g16
sg17
F65.888888888888886
sg18
F-226.19999999999999
sg19
I4035826
sg20
S'13077.1407995'
p343
sg22
F0.44444444444444442
sbasg26
I00
sg27
I00
sg28
I4035492
sg20
S'13077.2077784'
p344
sba(igraph
Edge
p345
(dp346
g7
I1
sg8
I00
sg9
I5
sg10
(lp347
g341
a(igraph
Vertex
p348
(dp349
g14
F0.3000000000000001
sg8
I00
sg15
g16
sg17
F65.888888888888886
sg18
F-264.30000000000001
sg19
I4035827
sg20
S'13077.1411822'
p350
sg22
F0.44444444444444442
sbasg26
I00
sg27
I00
sg28
I4035493
sg20
S'13077.2087969'
p351
sba(igraph
Edge
p352
(dp353
g7
I1
sg8
I00
sg9
I5
sg10
(lp354
g348
a(igraph
Vertex
p355
(dp356
g14
F0.40000000000000008
sg8
I00
sg15
g16
sg17
F65.888888888888886
sg18
F-302.39999999999998
sg19
I4035828
sg20
S'13077.1415686'
p357
sg22
F0.44444444444444442
sbasg26
I00
sg27
I00
sg28
I4035494
sg20
S'13077.2098538'
p358
sba(igraph
Edge
p359
(dp360
g7
I1
sg8
I00
sg9
I5
sg10
(lp361
g355
a(igraph
Vertex
p362
(dp363
g14
F0.50000000000000011
sg8
I00
sg15
g16
sg17
F65.888888888888886
sg18
F-340.5
sg19
I4035829
sg20
S'13077.142032'
p364
sg22
F0.44444444444444442
sbasg26
I00
sg27
I00
sg28
I4035495
sg20
S'13077.2109109'
p365
sba(igraph
Edge
p366
(dp367
g7
I1
sg8
I00
sg9
I5
sg10
(lp368
g362
a(igraph
Vertex
p369
(dp370
g14
F0.60000000000000009
sg8
I00
sg15
I0
sg17
F65.888888888888886
sg18
F-378.60000000000002
sg19
I4035830
sg20
S'13077.1424533'
p371
sg22
F0.44444444444444442
sbasg26
I00
sg27
I00
sg28
I4035496
sg20
S'13077.2120588'
p372
sba(igraph
Edge
p373
(dp374
g7
I1
sg8
I00
sg9
I5
sg10
(lp375
g369
a(igraph
Vertex
p376
(dp377
g14
F0.70000000000000018
sg8
I00
sg15
g16
sg17
F65.888888888888886
sg18
F-416.70000000000005
sg19
I4035832
sg20
S'13077.1428925'
p378
sg22
F0.44444444444444442
sbasg26
I00
sg27
I00
sg28
I4035497
sg20
S'13077.2131743'
p379
sba(igraph
Edge
p380
(dp381
g7
I1
sg8
I00
sg9
I5
sg10
(lp382
g376
a(igraph
Vertex
p383
(dp384
g14
F0.80000000000000004
sg8
I00
sg15
g16
sg17
F65.888888888888886
sg18
F-454.79999999999995
sg19
I4035833
sg20
S'13077.143311'
p385
sg22
F0.44444444444444442
sbasg26
I00
sg27
I00
sg28
I4035498
sg20
S'13077.2142985'
p386
sba(igraph
Edge
p387
(dp388
g7
I1
sg8
I00
sg9
I5
sg10
(lp389
g383
a(igraph
Vertex
p390
(dp391
g14
F0.90000000000000013
sg8
I00
sg15
g16
sg17
F65.888888888888886
sg18
F-492.89999999999998
sg19
I4035834
sg20
S'13077.1437334'
p392
sg22
F0.44444444444444442
sbasg26
I00
sg27
I00
sg28
I4035499
sg20
S'13077.21544'
p393
sba(igraph
Edge
p394
(dp395
g7
I1
sg8
I00
sg9
I5
sg10
(lp396
g390
a(igraph
Vertex
p397
(dp398
g14
F1.0
sg8
I00
sg15
g16
sg17
F65.888888888888886
sg18
F-531.0
sg19
I4035835
sg20
S'13077.1441633'
p399
sg22
F0.44444444444444442
sbasg26
I00
sg27
I00
sg28
I4035500
sg20
S'13077.2166049'
p400
sba(igraph
Edge
p401
(dp402
g7
I1
sg8
I00
sg9
I5
sg10
(lp403
g397
ag331
asg26
I00
sg27
I00
sg28
I4035501
sg20
S'13077.2178632'
p404
sba(igraph
Edge
p405
(dp406
g7
I1
sg8
I00
sg9
I5
sg10
(lp407
(igraph
Vertex
p408
(dp409
g14
F0.0
sg8
I00
sg15
g16
sg17
F116.11111111111111
sg18
F-149.99999999999997
sg19
I4035836
sg20
S'13077.144603'
p410
sg22
F0.55555555555555558
sba(igraph
Vertex
p411
(dp412
g14
F0.10000000000000002
sg8
I00
sg15
g16
sg17
F116.11111111111111
sg18
F-188.09999999999997
sg19
I4035837
sg20
S'13077.145048'
p413
sg22
F0.55555555555555558
sbasg26
I00
sg27
I00
sg28
I4035502
sg20
S'13077.2191482'
p414
sba(igraph
Edge
p415
(dp416
g7
I1
sg8
I00
sg9
I5
sg10
(lp417
g411
a(igraph
Vertex
p418
(dp419
g14
F0.20000000000000004
sg8
I00
sg15
g16
sg17
F116.11111111111111
sg18
F-226.19999999999999
sg19
I4035838
sg20
S'13077.1454998'
p420
sg22
F0.55555555555555558
sbasg26
I00
sg27
I00
sg28
I4035503
sg20
S'13077.2204451'
p421
sba(igraph
Edge
p422
(dp423
g7
I1
sg8
I00
sg9
I5
sg10
(lp424
g418
a(igraph
Vertex
p425
(dp426
g14
F0.3000000000000001
sg8
I00
sg15
g16
sg17
F116.11111111111111
sg18
F-264.30000000000001
sg19
I4035839
sg20
S'13077.1459588'
p427
sg22
F0.55555555555555558
sbasg26
I00
sg27
I00
sg28
I4035504
sg20
S'13077.2217449'
p428
sba(igraph
Edge
p429
(dp430
g7
I1
sg8
I00
sg9
I5
sg10
(lp431
g425
a(igraph
Vertex
p432
(dp433
g14
F0.40000000000000008
sg8
I00
sg15
g16
sg17
F116.11111111111111
sg18
F-302.39999999999998
sg19
I4035840
sg20
S'13077.1464273'
p434
sg22
F0.55555555555555558
sbasg26
I00
sg27
I00
sg28
I4035505
sg20
S'13077.2230222'
p435
sba(igraph
Edge
p436
(dp437
g7
I1
sg8
I00
sg9
I5
sg10
(lp438
g432
a(igraph
Vertex
p439
(dp440
g14
F0.50000000000000011
sg8
I00
sg15
g16
sg17
F116.11111111111111
sg18
F-340.5
sg19
I4035841
sg20
S'13077.1469044'
p441
sg22
F0.55555555555555558
sbasg26
I00
sg27
I00
sg28
I4035506
sg20
S'13077.2243212'
p442
sba(igraph
Edge
p443
(dp444
g7
I1
sg8
I00
sg9
I5
sg10
(lp445
g439
a(igraph
Vertex
p446
(dp447
g14
F0.60000000000000009
sg8
I00
sg15
g16
sg17
F116.11111111111111
sg18
F-378.60000000000002
sg19
I4035842
sg20
S'13077.14739'
p448
sg22
F0.55555555555555558
sbasg26
I00
sg27
I00
sg28
I4035507
sg20
S'13077.2256924'
p449
sba(igraph
Edge
p450
(dp451
g7
I1
sg8
I00
sg9
I5
sg10
(lp452
g446
a(igraph
Vertex
p453
(dp454
g14
F0.70000000000000018
sg8
I00
sg15
g16
sg17
F116.11111111111111
sg18
F-416.70000000000005
sg19
I4035843
sg20
S'13077.1478861'
p455
sg22
F0.55555555555555558
sbasg26
I00
sg27
I00
sg28
I4035508
sg20
S'13077.227056'
p456
sba(igraph
Edge
p457
(dp458
g7
I1
sg8
I00
sg9
I5
sg10
(lp459
g453
a(igraph
Vertex
p460
(dp461
g14
F0.80000000000000004
sg8
I00
sg15
g16
sg17
F116.11111111111111
sg18
F-454.79999999999995
sg19
I4035844
sg20
S'13077.1483884'
p462
sg22
F0.55555555555555558
sbasg26
I00
sg27
I00
sg28
I4035509
sg20
S'13077.2284181'
p463
sba(igraph
Edge
p464
(dp465
g7
I1
sg8
I00
sg9
I5
sg10
(lp466
g460
a(igraph
Vertex
p467
(dp468
g14
F0.90000000000000013
sg8
I00
sg15
g16
sg17
F116.11111111111111
sg18
F-492.89999999999998
sg19
I4035845
sg20
S'13077.1489044'
p469
sg22
F0.55555555555555558
sbasg26
I00
sg27
I00
sg28
I4035510
sg20
S'13077.2299155'
p470
sba(igraph
Edge
p471
(dp472
g7
I1
sg8
I00
sg9
I5
sg10
(lp473
g467
a(igraph
Vertex
p474
(dp475
g14
F1.0
sg8
I00
sg15
g16
sg17
F116.11111111111111
sg18
F-531.0
sg19
I4035846
sg20
S'13077.1494263'
p476
sg22
F0.55555555555555558
sbasg26
I00
sg27
I00
sg28
I4035511
sg20
S'13077.2313255'
p477
sba(igraph
Edge
p478
(dp479
g7
I1
sg8
I00
sg9
I5
sg10
(lp480
g474
ag408
asg26
I00
sg27
I00
sg28
I4035512
sg20
S'13077.2327701'
p481
sba(igraph
Edge
p482
(dp483
g7
I1
sg8
I00
sg9
I5
sg10
(lp484
(igraph
Vertex
p485
(dp486
g14
F0.0
sg8
I00
sg15
g16
sg17
F166.33333333333331
sg18
F-149.99999999999997
sg19
I4035847
sg20
S'13077.1499663'
p487
sg22
F0.66666666666666663
sba(igraph
Vertex
p488
(dp489
g14
F0.10000000000000002
sg8
I00
sg15
g16
sg17
F166.33333333333331
sg18
F-188.09999999999997
sg19
I4035848
sg20
S'13077.150504'
p490
sg22
F0.66666666666666663
sbasg26
I00
sg27
I00
sg28
I4035513
sg20
S'13077.2342194'
p491
sba(igraph
Edge
p492
(dp493
g7
I1
sg8
I00
sg9
I5
sg10
(lp494
g488
a(igraph
Vertex
p495
(dp496
g14
F0.20000000000000004
sg8
I00
sg15
g16
sg17
F166.33333333333331
sg18
F-226.19999999999999
sg19
I4035849
sg20
S'13077.1510502'
p497
sg22
F0.66666666666666663
sbasg26
I00
sg27
I00
sg28
I4035514
sg20
S'13077.23569'
p498
sba(igraph
Edge
p499
(dp500
g7
I1
sg8
I00
sg9
I5
sg10
(lp501
g495
a(igraph
Vertex
p502
(dp503
g14
F0.3000000000000001
sg8
I00
sg15
g16
sg17
F166.33333333333331
sg18
F-264.30000000000001
sg19
I4035850
sg20
S'13077.1516073'
p504
sg22
F0.66666666666666663
sbasg26
I00
sg27
I00
sg28
I4035515
sg20
S'13077.2371843'
p505
sba(igraph
Edge
p506
(dp507
g7
I1
sg8
I00
sg9
I5
sg10
(lp508
g502
a(igraph
Vertex
p509
(dp510
g14
F0.40000000000000008
sg8
I00
sg15
g16
sg17
F166.33333333333331
sg18
F-302.39999999999998
sg19
I4035851
sg20
S'13077.1521705'
p511
sg22
F0.66666666666666663
sbasg26
I00
sg27
I00
sg28
I4035516
sg20
S'13077.2386991'
p512
sba(igraph
Edge
p513
(dp514
g7
I1
sg8
I00
sg9
I5
sg10
(lp515
g509
a(igraph
Vertex
p516
(dp517
g14
F0.50000000000000011
sg8
I00
sg15
g16
sg17
F166.33333333333331
sg18
F-340.5
sg19
I4035852
sg20
S'13077.1527406'
p518
sg22
F0.66666666666666663
sbasg26
I00
sg27
I00
sg28
I4035517
sg20
S'13077.2403839'
p519
sba(igraph
Edge
p520
(dp521
g7
I1
sg8
I00
sg9
I5
sg10
(lp522
g516
a(igraph
Vertex
p523
(dp524
g14
F0.60000000000000009
sg8
I00
sg15
g16
sg17
F166.33333333333331
sg18
F-378.60000000000002
sg19
I4035853
sg20
S'13077.1533189'
p525
sg22
F0.66666666666666663
sbasg26
I00
sg27
I00
sg28
I4035518
sg20
S'13077.2419601'
p526
sba(igraph
Edge
p527
(dp528
g7
I1
sg8
I00
sg9
I5
sg10
(lp529
g523
a(igraph
Vertex
p530
(dp531
g14
F0.70000000000000018
sg8
I00
sg15
I0
sg17
F166.33333333333331
sg18
F-416.70000000000005
sg19
I4035854
sg20
S'13077.1539254'
p532
sg22
F0.66666666666666663
sbasg26
I00
sg27
I00
sg28
I4035519
sg20
S'13077.243555'
p533
sba(igraph
Edge
p534
(dp535
g7
I1
sg8
I00
sg9
I5
sg10
(lp536
g530
a(igraph
Vertex
p537
(dp538
g14
F0.80000000000000004
sg8
I00
sg15
g16
sg17
F166.33333333333331
sg18
F-454.79999999999995
sg19
I4035856
sg20
S'13077.1545185'
p539
sg22
F0.66666666666666663
sbasg26
I00
sg27
I00
sg28
I4035520
sg20
S'13077.2451658'
p540
sba(igraph
Edge
p541
(dp542
g7
I1
sg8
I00
sg9
I5
sg10
(lp543
g537
a(igraph
Vertex
p544
(dp545
g14
F0.90000000000000013
sg8
I00
sg15
g16
sg17
F166.33333333333331
sg18
F-492.89999999999998
sg19
I4035857
sg20
S'13077.1551203'
p546
sg22
F0.66666666666666663
sbasg26
I00
sg27
I00
sg28
I4035521
sg20
S'13077.2468386'
p547
sba(igraph
Edge
p548
(dp549
g7
I1
sg8
I00
sg9
I5
sg10
(lp550
g544
a(igraph
Vertex
p551
(dp552
g14
F1.0
sg8
I00
sg15
g16
sg17
F166.33333333333331
sg18
F-531.0
sg19
I4035858
sg20
S'13077.1557581'
p553
sg22
F0.66666666666666663
sbasg26
I00
sg27
I00
sg28
I4035522
sg20
S'13077.2484942'
p554
sba(igraph
Edge
p555
(dp556
g7
I1
sg8
I00
sg9
I5
sg10
(lp557
g551
ag485
asg26
I00
sg27
I00
sg28
I4035523
sg20
S'13077.2501874'
p558
sba(igraph
Edge
p559
(dp560
g7
I1
sg8
I00
sg9
I5
sg10
(lp561
(igraph
Vertex
p562
(dp563
g14
F0.0
sg8
I00
sg15
g16
sg17
F216.55555555555554
sg18
F-149.99999999999997
sg19
I4035859
sg20
S'13077.1563866'
p564
sg22
F0.77777777777777779
sba(igraph
Vertex
p565
(dp566
g14
F0.10000000000000002
sg8
I00
sg15
g16
sg17
F216.55555555555554
sg18
F-188.09999999999997
sg19
I4035860
sg20
S'13077.1570205'
p567
sg22
F0.77777777777777779
sbasg26
I00
sg27
I00
sg28
I4035524
sg20
S'13077.2519312'
p568
sba(igraph
Edge
p569
(dp570
g7
I1
sg8
I00
sg9
I5
sg10
(lp571
g565
a(igraph
Vertex
p572
(dp573
g14
F0.20000000000000004
sg8
I00
sg15
g16
sg17
F216.55555555555554
sg18
F-226.19999999999999
sg19
I4035861
sg20
S'13077.1577698'
p574
sg22
F0.77777777777777779
sbasg26
I00
sg27
I00
sg28
I4035525
sg20
S'13077.2537068'
p575
sba(igraph
Edge
p576
(dp577
g7
I1
sg8
I00
sg9
I5
sg10
(lp578
g572
a(igraph
Vertex
p579
(dp580
g14
F0.3000000000000001
sg8
I00
sg15
g16
sg17
F216.55555555555554
sg18
F-264.30000000000001
sg19
I4035862
sg20
S'13077.1584551'
p581
sg22
F0.77777777777777779
sbasg26
I00
sg27
I00
sg28
I4035526
sg20
S'13077.2554383'
p582
sba(igraph
Edge
p583
(dp584
g7
I1
sg8
I00
sg9
I5
sg10
(lp585
g579
a(igraph
Vertex
p586
(dp587
g14
F0.40000000000000008
sg8
I00
sg15
g16
sg17
F216.55555555555554
sg18
F-302.39999999999998
sg19
I4035863
sg20
S'13077.1591213'
p588
sg22
F0.77777777777777779
sbasg26
I00
sg27
I00
sg28
I4035527
sg20
S'13077.257236'
p589
sba(igraph
Edge
p590
(dp591
g7
I1
sg8
I00
sg9
I5
sg10
(lp592
g586
a(igraph
Vertex
p593
(dp594
g14
F0.50000000000000011
sg8
I00
sg15
g16
sg17
F216.55555555555554
sg18
F-340.5
sg19
I4035864
sg20
S'13077.1597868'
p595
sg22
F0.77777777777777779
sbasg26
I00
sg27
I00
sg28
I4035528
sg20
S'13077.2590106'
p596
sba(igraph
Edge
p597
(dp598
g7
I1
sg8
I00
sg9
I5
sg10
(lp599
g593
a(igraph
Vertex
p600
(dp601
g14
F0.60000000000000009
sg8
I00
sg15
g16
sg17
F216.55555555555554
sg18
F-378.60000000000002
sg19
I4035865
sg20
S'13077.1605081'
p602
sg22
F0.77777777777777779
sbasg26
I00
sg27
I00
sg28
I4035529
sg20
S'13077.2608161'
p603
sba(igraph
Edge
p604
(dp605
g7
I1
sg8
I00
sg9
I5
sg10
(lp606
g600
a(igraph
Vertex
p607
(dp608
g14
F0.70000000000000018
sg8
I00
sg15
g16
sg17
F216.55555555555554
sg18
F-416.70000000000005
sg19
I4035866
sg20
S'13077.1612238'
p609
sg22
F0.77777777777777779
sbasg26
I00
sg27
I00
sg28
I4035530
sg20
S'13077.2626328'
p610
sba(igraph
Edge
p611
(dp612
g7
I1
sg8
I00
sg9
I5
sg10
(lp613
g607
a(igraph
Vertex
p614
(dp615
g14
F0.80000000000000004
sg8
I00
sg15
g16
sg17
F216.55555555555554
sg18
F-454.79999999999995
sg19
I4035867
sg20
S'13077.161922'
p616
sg22
F0.77777777777777779
sbasg26
I00
sg27
I00
sg28
I4035531
sg20
S'13077.2644691'
p617
sba(igraph
Edge
p618
(dp619
g7
I1
sg8
I00
sg9
I5
sg10
(lp620
g614
a(igraph
Vertex
p621
(dp622
g14
F0.90000000000000013
sg8
I00
sg15
I0
sg17
F216.55555555555554
sg18
F-492.89999999999998
sg19
I4035868
sg20
S'13077.1626279'
p623
sg22
F0.77777777777777779
sbasg26
I00
sg27
I00
sg28
I4035532
sg20
S'13077.2663769'
p624
sba(igraph
Edge
p625
(dp626
g7
I1
sg8
I00
sg9
I5
sg10
(lp627
g621
a(igraph
Vertex
p628
(dp629
g14
F1.0
sg8
I00
sg15
g16
sg17
F216.55555555555554
sg18
F-531.0
sg19
I4035870
sg20
S'13077.1633414'
p630
sg22
F0.77777777777777779
sbasg26
I00
sg27
I00
sg28
I4035533
sg20
S'13077.2682643'
p631
sba(igraph
Edge
p632
(dp633
g7
I1
sg8
I00
sg9
I5
sg10
(lp634
g628
ag562
asg26
I00
sg27
I00
sg28
I4035534
sg20
S'13077.270262'
p635
sba(igraph
Edge
p636
(dp637
g7
I1
sg8
I00
sg9
I5
sg10
(lp638
(igraph
Vertex
p639
(dp640
g14
F0.0
sg8
I00
sg15
g16
sg17
F266.77777777777777
sg18
F-149.99999999999997
sg19
I4035871
sg20
S'13077.1640661'
p641
sg22
F0.88888888888888884
sba(igraph
Vertex
p642
(dp643
g14
F0.10000000000000002
sg8
I00
sg15
g16
sg17
F266.77777777777777
sg18
F-188.09999999999997
sg19
I4035872
sg20
S'13077.1647888'
p644
sg22
F0.88888888888888884
sbasg26
I00
sg27
I00
sg28
I4035535
sg20
S'13077.2722304'
p645
sba(igraph
Edge
p646
(dp647
g7
I1
sg8
I00
sg9
I5
sg10
(lp648
g642
a(igraph
Vertex
p649
(dp650
g14
F0.20000000000000004
sg8
I00
sg15
g16
sg17
F266.77777777777777
sg18
F-226.19999999999999
sg19
I4035873
sg20
S'13077.1655546'
p651
sg22
F0.88888888888888884
sbasg26
I00
sg27
I00
sg28
I4035536
sg20
S'13077.2742742'
p652
sba(igraph
Edge
p653
(dp654
g7
I1
sg8
I00
sg9
I5
sg10
(lp655
g649
a(igraph
Vertex
p656
(dp657
g14
F0.3000000000000001
sg8
I00
sg15
g16
sg17
F266.77777777777777
sg18
F-264.30000000000001
sg19
I4035874
sg20
S'13077.166308'
p658
sg22
F0.88888888888888884
sbasg26
I00
sg27
I00
sg28
I4035537
sg20
S'13077.2762357'
p659
sba(igraph
Edge
p660
(dp661
g7
I1
sg8
I00
sg9
I5
sg10
(lp662
g656
a(igraph
Vertex
p663
(dp664
g14
F0.40000000000000008
sg8
I00
sg15
g16
sg17
F266.77777777777777
sg18
F-302.39999999999998
sg19
I4035875
sg20
S'13077.1670634'
p665
sg22
F0.88888888888888884
sbasg26
I00
sg27
I00
sg28
I4035538
sg20
S'13077.2782301'
p666
sba(igraph
Edge
p667
(dp668
g7
I1
sg8
I00
sg9
I5
sg10
(lp669
g663
a(igraph
Vertex
p670
(dp671
g14
F0.50000000000000011
sg8
I00
sg15
g16
sg17
F266.77777777777777
sg18
F-340.5
sg19
I4035876
sg20
S'13077.1678317'
p672
sg22
F0.88888888888888884
sbasg26
I00
sg27
I00
sg28
I4035539
sg20
S'13077.2802189'
p673
sba(igraph
Edge
p674
(dp675
g7
I1
sg8
I00
sg9
I5
sg10
(lp676
g670
a(igraph
Vertex
p677
(dp678
g14
F0.60000000000000009
sg8
I00
sg15
g16
sg17
F266.77777777777777
sg18
F-378.60000000000002
sg19
I4035877
sg20
S'13077.1686128'
p679
sg22
F0.88888888888888884
sbasg26
I00
sg27
I00
sg28
I4035540
sg20
S'13077.2822345'
p680
sba(igraph
Edge
p681
(dp682
g7
I1
sg8
I00
sg9
I5
sg10
(lp683
g677
a(igraph
Vertex
p684
(dp685
g14
F0.70000000000000018
sg8
I00
sg15
g16
sg17
F266.77777777777777
sg18
F-416.70000000000005
sg19
I4035878
sg20
S'13077.1694252'
p686
sg22
F0.88888888888888884
sbasg26
I00
sg27
I00
sg28
I4035541
sg20
S'13077.2843278'
p687
sba(igraph
Edge
p688
(dp689
g7
I1
sg8
I00
sg9
I5
sg10
(lp690
g684
a(igraph
Vertex
p691
(dp692
g14
F0.80000000000000004
sg8
I00
sg15
I0
sg17
F266.77777777777777
sg18
F-454.79999999999995
sg19
I4035879
sg20
S'13077.170216'
p693
sg22
F0.88888888888888884
sbasg26
I00
sg27
I00
sg28
I4035542
sg20
S'13077.2864283'
p694
sba(igraph
Edge
p695
(dp696
g7
I1
sg8
I00
sg9
I5
sg10
(lp697
g691
a(igraph
Vertex
p698
(dp699
g14
F0.90000000000000013
sg8
I00
sg15
g16
sg17
F266.77777777777777
sg18
F-492.89999999999998
sg19
I4035881
sg20
S'13077.1712483'
p700
sg22
F0.88888888888888884
sbasg26
I00
sg27
I00
sg28
I4035543
sg20
S'13077.2884948'
p701
sba(igraph
Edge
p702
(dp703
g7
I1
sg8
I00
sg9
I5
sg10
(lp704
g698
a(igraph
Vertex
p705
(dp706
g14
F1.0
sg8
I00
sg15
g16
sg17
F266.77777777777777
sg18
F-531.0
sg19
I4035882
sg20
S'13077.172173'
p707
sg22
F0.88888888888888884
sbasg26
I00
sg27
I00
sg28
I4035544
sg20
S'13077.2906367'
p708
sba(igraph
Edge
p709
(dp710
g7
I1
sg8
I00
sg9
I5
sg10
(lp711
g705
ag639
asg26
I00
sg27
I00
sg28
I4035545
sg20
S'13077.2927548'
p712
sba(igraph
Edge
p713
(dp714
g7
I1
sg8
I00
sg9
I5
sg10
(lp715
(igraph
Vertex
p716
(dp717
g14
F0.0
sg8
I00
sg15
g16
sg17
F317.0
sg18
F-149.99999999999997
sg19
I4035883
sg20
S'13077.1729915'
p718
sg22
F1.0
sba(igraph
Vertex
p719
(dp720
g14
F0.10000000000000002
sg8
I00
sg15
g16
sg17
F317.0
sg18
F-188.09999999999997
sg19
I4035884
sg20
S'13077.1738145'
p721
sg22
F1.0
sbasg26
I00
sg27
I00
sg28
I4035546
sg20
S'13077.2949079'
p722
sba(igraph
Edge
p723
(dp724
g7
I1
sg8
I00
sg9
I5
sg10
(lp725
g719
a(igraph
Vertex
p726
(dp727
g14
F0.20000000000000004
sg8
I00
sg15
g16
sg17
F317.0
sg18
F-226.19999999999999
sg19
I4035885
sg20
S'13077.1746515'
p728
sg22
F1.0
sbasg26
I00
sg27
I00
sg28
I4035547
sg20
S'13077.2970953'
p729
sba(igraph
Edge
p730
(dp731
g7
I1
sg8
I00
sg9
I5
sg10
(lp732
g726
a(igraph
Vertex
p733
(dp734
g14
F0.3000000000000001
sg8
I00
sg15
g16
sg17
F317.0
sg18
F-264.30000000000001
sg19
I4035886
sg20
S'13077.1754938'
p735
sg22
F1.0
sbasg26
I00
sg27
I00
sg28
I4035548
sg20
S'13077.2993724'
p736
sba(igraph
Edge
p737
(dp738
g7
I1
sg8
I00
sg9
I5
sg10
(lp739
g733
a(igraph
Vertex
p740
(dp741
g14
F0.40000000000000008
sg8
I00
sg15
g16
sg17
F317.0
sg18
F-302.39999999999998
sg19
I4035887
sg20
S'13077.1763408'
p742
sg22
F1.0
sbasg26
I00
sg27
I00
sg28
I4035549
sg20
S'13077.301647'
p743
sba(igraph
Edge
p744
(dp745
g7
I1
sg8
I00
sg9
I5
sg10
(lp746
g740
a(igraph
Vertex
p747
(dp748
g14
F0.50000000000000011
sg8
I00
sg15
g16
sg17
F317.0
sg18
F-340.5
sg19
I4035888
sg20
S'13077.1772021'
p749
sg22
F1.0
sbasg26
I00
sg27
I00
sg28
I4035550
sg20
S'13077.3038844'
p750
sba(igraph
Edge
p751
(dp752
g7
I1
sg8
I00
sg9
I5
sg10
(lp753
g747
a(igraph
Vertex
p754
(dp755
g14
F0.60000000000000009
sg8
I00
sg15
g16
sg17
F317.0
sg18
F-378.60000000000002
sg19
I4035889
sg20
S'13077.1780693'
p756
sg22
F1.0
sbasg26
I00
sg27
I00
sg28
I4035551
sg20
S'13077.3061998'
p757
sba(igraph
Edge
p758
(dp759
g7
I1
sg8
I00
sg9
I5
sg10
(lp760
g754
a(igraph
Vertex
p761
(dp762
g14
F0.70000000000000018
sg8
I00
sg15
g16
sg17
F317.0
sg18
F-416.70000000000005
sg19
I4035890
sg20
S'13077.1801081'
p763
sg22
F1.0
sbasg26
I00
sg27
I00
sg28
I4035552
sg20
S'13077.3085116'
p764
sba(igraph
Edge
p765
(dp766
g7
I1
sg8
I00
sg9
I5
sg10
(lp767
g761
a(igraph
Vertex
p768
(dp769
g14
F0.80000000000000004
sg8
I00
sg15
g16
sg17
F317.0
sg18
F-454.79999999999995
sg19
I4035891
sg20
S'13077.1811448'
p770
sg22
F1.0
sbasg26
I00
sg27
I00
sg28
I4035553
sg20
S'13077.3108334'
p771
sba(igraph
Edge
p772
(dp773
g7
I1
sg8
I00
sg9
I5
sg10
(lp774
g768
a(igraph
Vertex
p775
(dp776
g14
F0.90000000000000013
sg8
I00
sg15
g16
sg17
F317.0
sg18
F-492.89999999999998
sg19
I4035892
sg20
S'13077.1820522'
p777
sg22
F1.0
sbasg26
I00
sg27
I00
sg28
I4035554
sg20
S'13077.3131803'
p778
sba(igraph
Edge
p779
(dp780
g7
I1
sg8
I00
sg9
I5
sg10
(lp781
g775
a(igraph
Vertex
p782
(dp783
g14
F1.0
sg8
I00
sg15
I0
sg17
F317.0
sg18
F-531.0
sg19
I4035893
sg20
S'13077.1829635'
p784
sg22
F1.0
sbasg26
I00
sg27
I00
sg28
I4035555
sg20
S'13077.315534'
p785
sba(igraph
Edge
p786
(dp787
g7
I1
sg8
I00
sg9
I5
sg10
(lp788
g782
ag716
asg26
I00
sg27
I00
sg28
I4035556
sg20
S'13077.3179737'
p789
sba(igraph
Edge
p790
(dp791
g7
I1
sg8
I00
sg9
I5
sg10
(lp792
g12
ag100
asg26
I00
sg27
I00
sg28
I4035557
sg20
S'13077.3203854'
p793
sba(igraph
Edge
p794
(dp795
g7
I1
sg8
I00
sg9
I5
sg10
(lp796
g23
ag110
asg26
I00
sg27
I00
sg28
I4035558
sg20
S'13077.3228206'
p797
sba(igraph
Edge
p798
(dp799
g7
I1
sg8
I00
sg9
I5
sg10
(lp800
g33
ag110
asg26
I00
sg27
I00
sg28
I4035559
sg20
S'13077.3252536'
p801
sba(igraph
Edge
p802
(dp803
g7
I1
sg8
I00
sg9
I5
sg10
(lp804
g40
ag124
asg26
I00
sg27
I00
sg28
I4035560
sg20
S'13077.3277132'
p805
sba(igraph
Edge
p806
(dp807
g7
I1
sg8
I00
sg9
I5
sg10
(lp808
g47
ag124
asg26
I00
sg27
I00
sg28
I4035561
sg20
S'13077.3302263'
p809
sba(igraph
Edge
p810
(dp811
g7
I1
sg8
I00
sg9
I5
sg10
(lp812
g54
ag138
asg26
I00
sg27
I00
sg28
I4035562
sg20
S'13077.3327205'
p813
sba(igraph
Edge
p814
(dp815
g7
I1
sg8
I00
sg9
I5
sg10
(lp816
g61
ag138
asg26
I00
sg27
I00
sg28
I4035563
sg20
S'13077.335306'
p817
sba(igraph
Edge
p818
(dp819
g7
I1
sg8
I00
sg9
I5
sg10
(lp820
g68
ag152
asg26
I00
sg27
I00
sg28
I4035564
sg20
S'13077.3378829'
p821
sba(igraph
Edge
p822
(dp823
g7
I1
sg8
I00
sg9
I5
sg10
(lp824
g75
ag152
asg26
I00
sg27
I00
sg28
I4035565
sg20
S'13077.3405458'
p825
sba(igraph
Edge
p826
(dp827
g7
I1
sg8
I00
sg9
I5
sg10
(lp828
g82
ag166
asg26
I00
sg27
I00
sg28
I4035566
sg20
S'13077.3431598'
p829
sba(igraph
Edge
p830
(dp831
g7
I1
sg8
I00
sg9
I5
sg10
(lp832
g89
ag166
asg26
I00
sg27
I00
sg28
I4035567
sg20
S'13077.3459691'
p833
sba(igraph
Edge
p834
(dp835
g7
I1
sg8
I00
sg9
I5
sg10
(lp836
g12
ag103
asg26
I00
sg27
I00
sg28
I4035568
sg20
S'13077.348663'
p837
sba(igraph
Edge
p838
(dp839
g7
I1
sg8
I00
sg9
I5
sg10
(lp840
g23
ag103
asg26
I00
sg27
I00
sg28
I4035569
sg20
S'13077.3524537'
p841
sba(igraph
Edge
p842
(dp843
g7
I1
sg8
I00
sg9
I5
sg10
(lp844
g33
ag117
asg26
I00
sg27
I00
sg28
I4035570
sg20
S'13077.3551281'
p845
sba(igraph
Edge
p846
(dp847
g7
I1
sg8
I00
sg9
I5
sg10
(lp848
g40
ag117
asg26
I00
sg27
I00
sg28
I4035571
sg20
S'13077.3578966'
p849
sba(igraph
Edge
p850
(dp851
g7
I1
sg8
I00
sg9
I5
sg10
(lp852
g47
ag131
asg26
I00
sg27
I00
sg28
I4035572
sg20
S'13077.3607341'
p853
sba(igraph
Edge
p854
(dp855
g7
I1
sg8
I00
sg9
I5
sg10
(lp856
g54
ag131
asg26
I00
sg27
I00
sg28
I4035573
sg20
S'13077.3634733'
p857
sba(igraph
Edge
p858
(dp859
g7
I1
sg8
I00
sg9
I5
sg10
(lp860
g61
ag145
asg26
I00
sg27
I00
sg28
I4035574
sg20
S'13077.3662337'
p861
sba(igraph
Edge
p862
(dp863
g7
I1
sg8
I00
sg9
I5
sg10
(lp864
g68
ag145
asg26
I00
sg27
I00
sg28
I4035575
sg20
S'13077.369005'
p865
sba(igraph
Edge
p866
(dp867
g7
I1
sg8
I00
sg9
I5
sg10
(lp868
g75
ag159
asg26
I00
sg27
I00
sg28
I4035576
sg20
S'13077.3719333'
p869
sba(igraph
Edge
p870
(dp871
g7
I1
sg8
I00
sg9
I5
sg10
(lp872
g82
ag159
asg26
I00
sg27
I00
sg28
I4035577
sg20
S'13077.3748264'
p873
sba(igraph
Edge
p874
(dp875
g7
I1
sg8
I00
sg9
I5
sg10
(lp876
g89
ag100
asg26
I00
sg27
I00
sg28
I4035578
sg20
S'13077.3777257'
p877
sba(igraph
Edge
p878
(dp879
g7
I1
sg8
I00
sg9
I5
sg10
(lp880
g12
ag716
asg26
I00
sg27
I00
sg28
I4035579
sg20
S'13077.3806087'
p881
sba(igraph
Edge
p882
(dp883
g7
I1
sg8
I00
sg9
I5
sg10
(lp884
g23
ag716
asg26
I00
sg27
I00
sg28
I4035580
sg20
S'13077.383592'
p885
sba(igraph
Edge
p886
(dp887
g7
I1
sg8
I00
sg9
I5
sg10
(lp888
g33
ag726
asg26
I00
sg27
I00
sg28
I4035581
sg20
S'13077.3865078'
p889
sba(igraph
Edge
p890
(dp891
g7
I1
sg8
I00
sg9
I5
sg10
(lp892
g40
ag726
asg26
I00
sg27
I00
sg28
I4035582
sg20
S'13077.3894562'
p893
sba(igraph
Edge
p894
(dp895
g7
I1
sg8
I00
sg9
I5
sg10
(lp896
g47
ag740
asg26
I00
sg27
I00
sg28
I4035583
sg20
S'13077.3923954'
p897
sba(igraph
Edge
p898
(dp899
g7
I1
sg8
I00
sg9
I5
sg10
(lp900
g54
ag740
asg26
I00
sg27
I00
sg28
I4035584
sg20
S'13077.3954206'
p901
sba(igraph
Edge
p902
(dp903
g7
I1
sg8
I00
sg9
I5
sg10
(lp904
g61
ag754
asg26
I00
sg27
I00
sg28
I4035585
sg20
S'13077.3984998'
p905
sba(igraph
Edge
p906
(dp907
g7
I1
sg8
I00
sg9
I5
sg10
(lp908
g68
ag754
asg26
I00
sg27
I00
sg28
I4035586
sg20
S'13077.401572'
p909
sba(igraph
Edge
p910
(dp911
g7
I1
sg8
I00
sg9
I5
sg10
(lp912
g75
ag768
asg26
I00
sg27
I00
sg28
I4035587
sg20
S'13077.4046316'
p913
sba(igraph
Edge
p914
(dp915
g7
I1
sg8
I00
sg9
I5
sg10
(lp916
g82
ag768
asg26
I00
sg27
I00
sg28
I4035588
sg20
S'13077.4076901'
p917
sba(igraph
Edge
p918
(dp919
g7
I1
sg8
I00
sg9
I5
sg10
(lp920
g89
ag782
asg26
I00
sg27
I00
sg28
I4035589
sg20
S'13077.4108187'
p921
sba(igraph
Edge
p922
(dp923
g7
I1
sg8
I00
sg9
I5
sg10
(lp924
g12
ag782
asg26
I00
sg27
I00
sg28
I4035590
sg20
S'13077.4139174'
p925
sba(igraph
Edge
p926
(dp927
g7
I1
sg8
I00
sg9
I5
sg10
(lp928
g23
ag719
asg26
I00
sg27
I00
sg28
I4035591
sg20
S'13077.4170293'
p929
sba(igraph
Edge
p930
(dp931
g7
I1
sg8
I00
sg9
I5
sg10
(lp932
g33
ag719
asg26
I00
sg27
I00
sg28
I4035592
sg20
S'13077.4201612'
p933
sba(igraph
Edge
p934
(dp935
g7
I1
sg8
I00
sg9
I5
sg10
(lp936
g40
ag733
asg26
I00
sg27
I00
sg28
I4035593
sg20
S'13077.4233167'
p937
sba(igraph
Edge
p938
(dp939
g7
I1
sg8
I00
sg9
I5
sg10
(lp940
g47
ag733
asg26
I00
sg27
I00
sg28
I4035594
sg20
S'13077.4265204'
p941
sba(igraph
Edge
p942
(dp943
g7
I1
sg8
I00
sg9
I5
sg10
(lp944
g54
ag747
asg26
I00
sg27
I00
sg28
I4035595
sg20
S'13077.429882'
p945
sba(igraph
Edge
p946
(dp947
g7
I1
sg8
I00
sg9
I5
sg10
(lp948
g61
ag747
asg26
I00
sg27
I00
sg28
I4035596
sg20
S'13077.4331461'
p949
sba(igraph
Edge
p950
(dp951
g7
I1
sg8
I00
sg9
I5
sg10
(lp952
g68
ag761
asg26
I00
sg27
I00
sg28
I4035597
sg20
S'13077.4364094'
p953
sba(igraph
Edge
p954
(dp955
g7
I1
sg8
I00
sg9
I5
sg10
(lp956
g75
ag761
asg26
I00
sg27
I00
sg28
I4035598
sg20
S'13077.4399006'
p957
sba(igraph
Edge
p958
(dp959
g7
I1
sg8
I00
sg9
I5
sg10
(lp960
g82
ag775
asg26
I00
sg27
I00
sg28
I4035599
sg20
S'13077.4432837'
p961
sba(igraph
Edge
p962
(dp963
g7
I1
sg8
I00
sg9
I5
sg10
(lp964
g89
ag775
asg26
I00
sg27
I00
sg28
I4035600
sg20
S'13077.4466157'
p965
sba(igraph
Edge
p966
(dp967
g7
I1
sg8
I00
sg9
I5
sg10
(lp968
g100
ag177
asg26
I00
sg27
I00
sg28
I4035601
sg20
S'13077.4500041'
p969
sba(igraph
Edge
p970
(dp971
g7
I1
sg8
I00
sg9
I5
sg10
(lp972
g103
ag187
asg26
I00
sg27
I00
sg28
I4035602
sg20
S'13077.4534423'
p973
sba(igraph
Edge
p974
(dp975
g7
I1
sg8
I00
sg9
I5
sg10
(lp976
g110
ag187
asg26
I00
sg27
I00
sg28
I4035603
sg20
S'13077.4569042'
p977
sba(igraph
Edge
p978
(dp979
g7
I1
sg8
I00
sg9
I5
sg10
(lp980
g117
ag201
asg26
I00
sg27
I00
sg28
I4035604
sg20
S'13077.4603172'
p981
sba(igraph
Edge
p982
(dp983
g7
I1
sg8
I00
sg9
I5
sg10
(lp984
g124
ag201
asg26
I00
sg27
I00
sg28
I4035605
sg20
S'13077.4638184'
p985
sba(igraph
Edge
p986
(dp987
g7
I1
sg8
I00
sg9
I5
sg10
(lp988
g131
ag215
asg26
I00
sg27
I00
sg28
I4035606
sg20
S'13077.4672745'
p989
sba(igraph
Edge
p990
(dp991
g7
I1
sg8
I00
sg9
I5
sg10
(lp992
g138
ag215
asg26
I00
sg27
I00
sg28
I4035607
sg20
S'13077.4707501'
p993
sba(igraph
Edge
p994
(dp995
g7
I1
sg8
I00
sg9
I5
sg10
(lp996
g145
ag229
asg26
I00
sg27
I00
sg28
I4035608
sg20
S'13077.4743522'
p997
sba(igraph
Edge
p998
(dp999
g7
I1
sg8
I00
sg9
I5
sg10
(lp1000
g152
ag229
asg26
I00
sg27
I00
sg28
I4035609
sg20
S'13077.4778395'
p1001
sba(igraph
Edge
p1002
(dp1003
g7
I1
sg8
I00
sg9
I5
sg10
(lp1004
g159
ag243
asg26
I00
sg27
I00
sg28
I4035610
sg20
S'13077.4815735'
p1005
sba(igraph
Edge
p1006
(dp1007
g7
I1
sg8
I00
sg9
I5
sg10
(lp1008
g166
ag243
asg26
I00
sg27
I00
sg28
I4035611
sg20
S'13077.4851823'
p1009
sba(igraph
Edge
p1010
(dp1011
g7
I1
sg8
I00
sg9
I5
sg10
(lp1012
g100
ag180
asg26
I00
sg27
I00
sg28
I4035612
sg20
S'13077.4888068'
p1013
sba(igraph
Edge
p1014
(dp1015
g7
I1
sg8
I00
sg9
I5
sg10
(lp1016
g103
ag180
asg26
I00
sg27
I00
sg28
I4035613
sg20
S'13077.4924257'
p1017
sba(igraph
Edge
p1018
(dp1019
g7
I1
sg8
I00
sg9
I5
sg10
(lp1020
g110
ag194
asg26
I00
sg27
I00
sg28
I4035614
sg20
S'13077.4961329'
p1021
sba(igraph
Edge
p1022
(dp1023
g7
I1
sg8
I00
sg9
I5
sg10
(lp1024
g117
ag194
asg26
I00
sg27
I00
sg28
I4035615
sg20
S'13077.4997847'
p1025
sba(igraph
Edge
p1026
(dp1027
g7
I1
sg8
I00
sg9
I5
sg10
(lp1028
g124
ag208
asg26
I00
sg27
I00
sg28
I4035616
sg20
S'13077.5035366'
p1029
sba(igraph
Edge
p1030
(dp1031
g7
I1
sg8
I00
sg9
I5
sg10
(lp1032
g131
ag208
asg26
I00
sg27
I00
sg28
I4035617
sg20
S'13077.5073223'
p1033
sba(igraph
Edge
p1034
(dp1035
g7
I1
sg8
I00
sg9
I5
sg10
(lp1036
g138
ag222
asg26
I00
sg27
I00
sg28
I4035618
sg20
S'13077.5110585'
p1037
sba(igraph
Edge
p1038
(dp1039
g7
I1
sg8
I00
sg9
I5
sg10
(lp1040
g145
ag222
asg26
I00
sg27
I00
sg28
I4035619
sg20
S'13077.5148445'
p1041
sba(igraph
Edge
p1042
(dp1043
g7
I1
sg8
I00
sg9
I5
sg10
(lp1044
g152
ag236
asg26
I00
sg27
I00
sg28
I4035620
sg20
S'13077.5185938'
p1045
sba(igraph
Edge
p1046
(dp1047
g7
I1
sg8
I00
sg9
I5
sg10
(lp1048
g159
ag236
asg26
I00
sg27
I00
sg28
I4035621
sg20
S'13077.5223826'
p1049
sba(igraph
Edge
p1050
(dp1051
g7
I1
sg8
I00
sg9
I5
sg10
(lp1052
g166
ag177
asg26
I00
sg27
I00
sg28
I4035622
sg20
S'13077.5263158'
p1053
sba(igraph
Edge
p1054
(dp1055
g7
I1
sg8
I00
sg9
I5
sg10
(lp1056
g177
ag254
asg26
I00
sg27
I00
sg28
I4035623
sg20
S'13077.5301978'
p1057
sba(igraph
Edge
p1058
(dp1059
g7
I1
sg8
I00
sg9
I5
sg10
(lp1060
g180
ag264
asg26
I00
sg27
I00
sg28
I4035624
sg20
S'13077.5341176'
p1061
sba(igraph
Edge
p1062
(dp1063
g7
I1
sg8
I00
sg9
I5
sg10
(lp1064
g187
ag264
asg26
I00
sg27
I00
sg28
I4035625
sg20
S'13077.5379768'
p1065
sba(igraph
Edge
p1066
(dp1067
g7
I1
sg8
I00
sg9
I5
sg10
(lp1068
g194
ag278
asg26
I00
sg27
I00
sg28
I4035626
sg20
S'13077.5418915'
p1069
sba(igraph
Edge
p1070
(dp1071
g7
I1
sg8
I00
sg9
I5
sg10
(lp1072
g201
ag278
asg26
I00
sg27
I00
sg28
I4035627
sg20
S'13077.5458909'
p1073
sba(igraph
Edge
p1074
(dp1075
g7
I1
sg8
I00
sg9
I5
sg10
(lp1076
g208
ag292
asg26
I00
sg27
I00
sg28
I4035628
sg20
S'13077.5498308'
p1077
sba(igraph
Edge
p1078
(dp1079
g7
I1
sg8
I00
sg9
I5
sg10
(lp1080
g215
ag292
asg26
I00
sg27
I00
sg28
I4035629
sg20
S'13077.5538137'
p1081
sba(igraph
Edge
p1082
(dp1083
g7
I1
sg8
I00
sg9
I5
sg10
(lp1084
g222
ag306
asg26
I00
sg27
I00
sg28
I4035630
sg20
S'13077.557884'
p1085
sba(igraph
Edge
p1086
(dp1087
g7
I1
sg8
I00
sg9
I5
sg10
(lp1088
g229
ag306
asg26
I00
sg27
I00
sg28
I4035631
sg20
S'13077.5618734'
p1089
sba(igraph
Edge
p1090
(dp1091
g7
I1
sg8
I00
sg9
I5
sg10
(lp1092
g236
ag320
asg26
I00
sg27
I00
sg28
I4035632
sg20
S'13077.5658764'
p1093
sba(igraph
Edge
p1094
(dp1095
g7
I1
sg8
I00
sg9
I5
sg10
(lp1096
g243
ag320
asg26
I00
sg27
I00
sg28
I4035633
sg20
S'13077.5699987'
p1097
sba(igraph
Edge
p1098
(dp1099
g7
I1
sg8
I00
sg9
I5
sg10
(lp1100
g177
ag257
asg26
I00
sg27
I00
sg28
I4035634
sg20
S'13077.5740375'
p1101
sba(igraph
Edge
p1102
(dp1103
g7
I1
sg8
I00
sg9
I5
sg10
(lp1104
g180
ag257
asg26
I00
sg27
I00
sg28
I4035635
sg20
S'13077.5781204'
p1105
sba(igraph
Edge
p1106
(dp1107
g7
I1
sg8
I00
sg9
I5
sg10
(lp1108
g187
ag271
asg26
I00
sg27
I00
sg28
I4035636
sg20
S'13077.5824095'
p1109
sba(igraph
Edge
p1110
(dp1111
g7
I1
sg8
I00
sg9
I5
sg10
(lp1112
g194
ag271
asg26
I00
sg27
I00
sg28
I4035637
sg20
S'13077.586538'
p1113
sba(igraph
Edge
p1114
(dp1115
g7
I1
sg8
I00
sg9
I5
sg10
(lp1116
g201
ag285
asg26
I00
sg27
I00
sg28
I4035638
sg20
S'13077.5907011'
p1117
sba(igraph
Edge
p1118
(dp1119
g7
I1
sg8
I00
sg9
I5
sg10
(lp1120
g208
ag285
asg26
I00
sg27
I00
sg28
I4035639
sg20
S'13077.5948625'
p1121
sba(igraph
Edge
p1122
(dp1123
g7
I1
sg8
I00
sg9
I5
sg10
(lp1124
g215
ag299
asg26
I00
sg27
I00
sg28
I4035640
sg20
S'13077.5991496'
p1125
sba(igraph
Edge
p1126
(dp1127
g7
I1
sg8
I00
sg9
I5
sg10
(lp1128
g222
ag299
asg26
I00
sg27
I00
sg28
I4035641
sg20
S'13077.6034638'
p1129
sba(igraph
Edge
p1130
(dp1131
g7
I1
sg8
I00
sg9
I5
sg10
(lp1132
g229
ag313
asg26
I00
sg27
I00
sg28
I4035642
sg20
S'13077.6077049'
p1133
sba(igraph
Edge
p1134
(dp1135
g7
I1
sg8
I00
sg9
I5
sg10
(lp1136
g236
ag313
asg26
I00
sg27
I00
sg28
I4035643
sg20
S'13077.6119929'
p1137
sba(igraph
Edge
p1138
(dp1139
g7
I1
sg8
I00
sg9
I5
sg10
(lp1140
g243
ag254
asg26
I00
sg27
I00
sg28
I4035644
sg20
S'13077.6162786'
p1141
sba(igraph
Edge
p1142
(dp1143
g7
I1
sg8
I00
sg9
I5
sg10
(lp1144
g254
ag331
asg26
I00
sg27
I00
sg28
I4035645
sg20
S'13077.6206361'
p1145
sba(igraph
Edge
p1146
(dp1147
g7
I1
sg8
I00
sg9
I5
sg10
(lp1148
g257
ag341
asg26
I00
sg27
I00
sg28
I4035646
sg20
S'13077.6249898'
p1149
sba(igraph
Edge
p1150
(dp1151
g7
I1
sg8
I00
sg9
I5
sg10
(lp1152
g264
ag341
asg26
I00
sg27
I00
sg28
I4035647
sg20
S'13077.6298407'
p1153
sba(igraph
Edge
p1154
(dp1155
g7
I1
sg8
I00
sg9
I5
sg10
(lp1156
g271
ag355
asg26
I00
sg27
I00
sg28
I4035648
sg20
S'13077.6346186'
p1157
sba(igraph
Edge
p1158
(dp1159
g7
I1
sg8
I00
sg9
I5
sg10
(lp1160
g278
ag355
asg26
I00
sg27
I00
sg28
I4035649
sg20
S'13077.6394444'
p1161
sba(igraph
Edge
p1162
(dp1163
g7
I1
sg8
I00
sg9
I5
sg10
(lp1164
g285
ag369
asg26
I00
sg27
I00
sg28
I4035650
sg20
S'13077.6443392'
p1165
sba(igraph
Edge
p1166
(dp1167
g7
I1
sg8
I00
sg9
I5
sg10
(lp1168
g292
ag369
asg26
I00
sg27
I00
sg28
I4035651
sg20
S'13077.649216'
p1169
sba(igraph
Edge
p1170
(dp1171
g7
I1
sg8
I00
sg9
I5
sg10
(lp1172
g299
ag383
asg26
I00
sg27
I00
sg28
I4035652
sg20
S'13077.6541038'
p1173
sba(igraph
Edge
p1174
(dp1175
g7
I1
sg8
I00
sg9
I5
sg10
(lp1176
g306
ag383
asg26
I00
sg27
I00
sg28
I4035653
sg20
S'13077.6590678'
p1177
sba(igraph
Edge
p1178
(dp1179
g7
I1
sg8
I00
sg9
I5
sg10
(lp1180
g313
ag397
asg26
I00
sg27
I00
sg28
I4035654
sg20
S'13077.66409'
p1181
sba(igraph
Edge
p1182
(dp1183
g7
I1
sg8
I00
sg9
I5
sg10
(lp1184
g320
ag397
asg26
I00
sg27
I00
sg28
I4035655
sg20
S'13077.6691147'
p1185
sba(igraph
Edge
p1186
(dp1187
g7
I1
sg8
I00
sg9
I5
sg10
(lp1188
g254
ag334
asg26
I00
sg27
I00
sg28
I4035656
sg20
S'13077.6758239'
p1189
sba(igraph
Edge
p1190
(dp1191
g7
I1
sg8
I00
sg9
I5
sg10
(lp1192
g257
ag334
asg26
I00
sg27
I00
sg28
I4035657
sg20
S'13077.6814813'
p1193
sba(igraph
Edge
p1194
(dp1195
g7
I1
sg8
I00
sg9
I5
sg10
(lp1196
g264
ag348
asg26
I00
sg27
I00
sg28
I4035658
sg20
S'13077.6868027'
p1197
sba(igraph
Edge
p1198
(dp1199
g7
I1
sg8
I00
sg9
I5
sg10
(lp1200
g271
ag348
asg26
I00
sg27
I00
sg28
I4035659
sg20
S'13077.691839'
p1201
sba(igraph
Edge
p1202
(dp1203
g7
I1
sg8
I00
sg9
I5
sg10
(lp1204
g278
ag362
asg26
I00
sg27
I00
sg28
I4035660
sg20
S'13077.6969998'
p1205
sba(igraph
Edge
p1206
(dp1207
g7
I1
sg8
I00
sg9
I5
sg10
(lp1208
g285
ag362
asg26
I00
sg27
I00
sg28
I4035661
sg20
S'13077.7022356'
p1209
sba(igraph
Edge
p1210
(dp1211
g7
I1
sg8
I00
sg9
I5
sg10
(lp1212
g292
ag376
asg26
I00
sg27
I00
sg28
I4035662
sg20
S'13077.7078855'
p1213
sba(igraph
Edge
p1214
(dp1215
g7
I1
sg8
I00
sg9
I5
sg10
(lp1216
g299
ag376
asg26
I00
sg27
I00
sg28
I4035663
sg20
S'13077.7131756'
p1217
sba(igraph
Edge
p1218
(dp1219
g7
I1
sg8
I00
sg9
I5
sg10
(lp1220
g306
ag390
asg26
I00
sg27
I00
sg28
I4035664
sg20
S'13077.7194311'
p1221
sba(igraph
Edge
p1222
(dp1223
g7
I1
sg8
I00
sg9
I5
sg10
(lp1224
g313
ag390
asg26
I00
sg27
I00
sg28
I4035665
sg20
S'13077.7253989'
p1225
sba(igraph
Edge
p1226
(dp1227
g7
I1
sg8
I00
sg9
I5
sg10
(lp1228
g320
ag331
asg26
I00
sg27
I00
sg28
I4035666
sg20
S'13077.7308102'
p1229
sba(igraph
Edge
p1230
(dp1231
g7
I1
sg8
I00
sg9
I5
sg10
(lp1232
g331
ag408
asg26
I00
sg27
I00
sg28
I4035667
sg20
S'13077.7362019'
p1233
sba(igraph
Edge
p1234
(dp1235
g7
I1
sg8
I00
sg9
I5
sg10
(lp1236
g334
ag418
asg26
I00
sg27
I00
sg28
I4035668
sg20
S'13077.7419412'
p1237
sba(igraph
Edge
p1238
(dp1239
g7
I1
sg8
I00
sg9
I5
sg10
(lp1240
g341
ag418
asg26
I00
sg27
I00
sg28
I4035669
sg20
S'13077.7477939'
p1241
sba(igraph
Edge
p1242
(dp1243
g7
I1
sg8
I00
sg9
I5
sg10
(lp1244
g348
ag432
asg26
I00
sg27
I00
sg28
I4035670
sg20
S'13077.7544425'
p1245
sba(igraph
Edge
p1246
(dp1247
g7
I1
sg8
I00
sg9
I5
sg10
(lp1248
g355
ag432
asg26
I00
sg27
I00
sg28
I4035671
sg20
S'13077.76054'
p1249
sba(igraph
Edge
p1250
(dp1251
g7
I1
sg8
I00
sg9
I5
sg10
(lp1252
g362
ag446
asg26
I00
sg27
I00
sg28
I4035672
sg20
S'13077.7667139'
p1253
sba(igraph
Edge
p1254
(dp1255
g7
I1
sg8
I00
sg9
I5
sg10
(lp1256
g369
ag446
asg26
I00
sg27
I00
sg28
I4035673
sg20
S'13077.7732508'
p1257
sba(igraph
Edge
p1258
(dp1259
g7
I1
sg8
I00
sg9
I5
sg10
(lp1260
g376
ag460
asg26
I00
sg27
I00
sg28
I4035674
sg20
S'13077.7800212'
p1261
sba(igraph
Edge
p1262
(dp1263
g7
I1
sg8
I00
sg9
I5
sg10
(lp1264
g383
ag460
asg26
I00
sg27
I00
sg28
I4035675
sg20
S'13077.7861605'
p1265
sba(igraph
Edge
p1266
(dp1267
g7
I1
sg8
I00
sg9
I5
sg10
(lp1268
g390
ag474
asg26
I00
sg27
I00
sg28
I4035676
sg20
S'13077.7934028'
p1269
sba(igraph
Edge
p1270
(dp1271
g7
I1
sg8
I00
sg9
I5
sg10
(lp1272
g397
ag474
asg26
I00
sg27
I00
sg28
I4035677
sg20
S'13077.7993228'
p1273
sba(igraph
Edge
p1274
(dp1275
g7
I1
sg8
I00
sg9
I5
sg10
(lp1276
g331
ag411
asg26
I00
sg27
I00
sg28
I4035678
sg20
S'13077.8064726'
p1277
sba(igraph
Edge
p1278
(dp1279
g7
I1
sg8
I00
sg9
I5
sg10
(lp1280
g334
ag411
asg26
I00
sg27
I00
sg28
I4035679
sg20
S'13077.812211'
p1281
sba(igraph
Edge
p1282
(dp1283
g7
I1
sg8
I00
sg9
I5
sg10
(lp1284
g341
ag425
asg26
I00
sg27
I00
sg28
I4035680
sg20
S'13077.8177506'
p1285
sba(igraph
Edge
p1286
(dp1287
g7
I1
sg8
I00
sg9
I5
sg10
(lp1288
g348
ag425
asg26
I00
sg27
I00
sg28
I4035681
sg20
S'13077.8236125'
p1289
sba(igraph
Edge
p1290
(dp1291
g7
I1
sg8
I00
sg9
I5
sg10
(lp1292
g355
ag439
asg26
I00
sg27
I00
sg28
I4035682
sg20
S'13077.8297873'
p1293
sba(igraph
Edge
p1294
(dp1295
g7
I1
sg8
I00
sg9
I5
sg10
(lp1296
g362
ag439
asg26
I00
sg27
I00
sg28
I4035683
sg20
S'13077.8360836'
p1297
sba(igraph
Edge
p1298
(dp1299
g7
I1
sg8
I00
sg9
I5
sg10
(lp1300
g369
ag453
asg26
I00
sg27
I00
sg28
I4035684
sg20
S'13077.842242'
p1301
sba(igraph
Edge
p1302
(dp1303
g7
I1
sg8
I00
sg9
I5
sg10
(lp1304
g376
ag453
asg26
I00
sg27
I00
sg28
I4035685
sg20
S'13077.8482304'
p1305
sba(igraph
Edge
p1306
(dp1307
g7
I1
sg8
I00
sg9
I5
sg10
(lp1308
g383
ag467
asg26
I00
sg27
I00
sg28
I4035686
sg20
S'13077.8537535'
p1309
sba(igraph
Edge
p1310
(dp1311
g7
I1
sg8
I00
sg9
I5
sg10
(lp1312
g390
ag467
asg26
I00
sg27
I00
sg28
I4035687
sg20
S'13077.8600255'
p1313
sba(igraph
Edge
p1314
(dp1315
g7
I1
sg8
I00
sg9
I5
sg10
(lp1316
g397
ag408
asg26
I00
sg27
I00
sg28
I4035688
sg20
S'13077.8655592'
p1317
sba(igraph
Edge
p1318
(dp1319
g7
I1
sg8
I00
sg9
I5
sg10
(lp1320
g408
ag485
asg26
I00
sg27
I00
sg28
I4035689
sg20
S'13077.8719753'
p1321
sba(igraph
Edge
p1322
(dp1323
g7
I1
sg8
I00
sg9
I5
sg10
(lp1324
g411
ag495
asg26
I00
sg27
I00
sg28
I4035690
sg20
S'13077.8783678'
p1325
sba(igraph
Edge
p1326
(dp1327
g7
I1
sg8
I00
sg9
I5
sg10
(lp1328
g418
ag495
asg26
I00
sg27
I00
sg28
I4035691
sg20
S'13077.884523'
p1329
sba(igraph
Edge
p1330
(dp1331
g7
I1
sg8
I00
sg9
I5
sg10
(lp1332
g425
ag509
asg26
I00
sg27
I00
sg28
I4035692
sg20
S'13077.8909669'
p1333
sba(igraph
Edge
p1334
(dp1335
g7
I1
sg8
I00
sg9
I5
sg10
(lp1336
g432
ag509
asg26
I00
sg27
I00
sg28
I4035693
sg20
S'13077.8978303'
p1337
sba(igraph
Edge
p1338
(dp1339
g7
I1
sg8
I00
sg9
I5
sg10
(lp1340
g439
ag523
asg26
I00
sg27
I00
sg28
I4035694
sg20
S'13077.9045108'
p1341
sba(igraph
Edge
p1342
(dp1343
g7
I1
sg8
I00
sg9
I5
sg10
(lp1344
g446
ag523
asg26
I00
sg27
I00
sg28
I4035695
sg20
S'13077.9139335'
p1345
sba(igraph
Edge
p1346
(dp1347
g7
I1
sg8
I00
sg9
I5
sg10
(lp1348
g453
ag537
asg26
I00
sg27
I00
sg28
I4035696
sg20
S'13077.9200549'
p1349
sba(igraph
Edge
p1350
(dp1351
g7
I1
sg8
I00
sg9
I5
sg10
(lp1352
g460
ag537
asg26
I00
sg27
I00
sg28
I4035697
sg20
S'13077.9265706'
p1353
sba(igraph
Edge
p1354
(dp1355
g7
I1
sg8
I00
sg9
I5
sg10
(lp1356
g467
ag551
asg26
I00
sg27
I00
sg28
I4035698
sg20
S'13077.9325568'
p1357
sba(igraph
Edge
p1358
(dp1359
g7
I1
sg8
I00
sg9
I5
sg10
(lp1360
g474
ag551
asg26
I00
sg27
I00
sg28
I4035699
sg20
S'13077.9385849'
p1361
sba(igraph
Edge
p1362
(dp1363
g7
I1
sg8
I00
sg9
I5
sg10
(lp1364
g408
ag488
asg26
I00
sg27
I00
sg28
I4035700
sg20
S'13077.9446589'
p1365
sba(igraph
Edge
p1366
(dp1367
g7
I1
sg8
I00
sg9
I5
sg10
(lp1368
g411
ag488
asg26
I00
sg27
I00
sg28
I4035701
sg20
S'13077.9509186'
p1369
sba(igraph
Edge
p1370
(dp1371
g7
I1
sg8
I00
sg9
I5
sg10
(lp1372
g418
ag502
asg26
I00
sg27
I00
sg28
I4035702
sg20
S'13077.9568434'
p1373
sba(igraph
Edge
p1374
(dp1375
g7
I1
sg8
I00
sg9
I5
sg10
(lp1376
g425
ag502
asg26
I00
sg27
I00
sg28
I4035703
sg20
S'13077.9627855'
p1377
sba(igraph
Edge
p1378
(dp1379
g7
I1
sg8
I00
sg9
I5
sg10
(lp1380
g432
ag516
asg26
I00
sg27
I00
sg28
I4035704
sg20
S'13077.9705812'
p1381
sba(igraph
Edge
p1382
(dp1383
g7
I1
sg8
I00
sg9
I5
sg10
(lp1384
g439
ag516
asg26
I00
sg27
I00
sg28
I4035705
sg20
S'13077.9777332'
p1385
sba(igraph
Edge
p1386
(dp1387
g7
I1
sg8
I00
sg9
I5
sg10
(lp1388
g446
ag530
asg26
I00
sg27
I00
sg28
I4035706
sg20
S'13077.9838088'
p1389
sba(igraph
Edge
p1390
(dp1391
g7
I1
sg8
I00
sg9
I5
sg10
(lp1392
g453
ag530
asg26
I00
sg27
I00
sg28
I4035707
sg20
S'13077.9898392'
p1393
sba(igraph
Edge
p1394
(dp1395
g7
I1
sg8
I00
sg9
I5
sg10
(lp1396
g460
ag544
asg26
I00
sg27
I00
sg28
I4035708
sg20
S'13077.9969792'
p1397
sba(igraph
Edge
p1398
(dp1399
g7
I1
sg8
I00
sg9
I5
sg10
(lp1400
g467
ag544
asg26
I00
sg27
I00
sg28
I4035709
sg20
S'13078.0046911'
p1401
sba(igraph
Edge
p1402
(dp1403
g7
I1
sg8
I00
sg9
I5
sg10
(lp1404
g474
ag485
asg26
I00
sg27
I00
sg28
I4035710
sg20
S'13078.0123446'
p1405
sba(igraph
Edge
p1406
(dp1407
g7
I1
sg8
I00
sg9
I5
sg10
(lp1408
g485
ag562
asg26
I00
sg27
I00
sg28
I4035711
sg20
S'13078.0201375'
p1409
sba(igraph
Edge
p1410
(dp1411
g7
I1
sg8
I00
sg9
I5
sg10
(lp1412
g488
ag572
asg26
I00
sg27
I00
sg28
I4035712
sg20
S'13078.0280463'
p1413
sba(igraph
Edge
p1414
(dp1415
g7
I1
sg8
I00
sg9
I5
sg10
(lp1416
g495
ag572
asg26
I00
sg27
I00
sg28
I4035713
sg20
S'13078.0353442'
p1417
sba(igraph
Edge
p1418
(dp1419
g7
I1
sg8
I00
sg9
I5
sg10
(lp1420
g502
ag586
asg26
I00
sg27
I00
sg28
I4035714
sg20
S'13078.0423883'
p1421
sba(igraph
Edge
p1422
(dp1423
g7
I1
sg8
I00
sg9
I5
sg10
(lp1424
g509
ag586
asg26
I00
sg27
I00
sg28
I4035715
sg20
S'13078.048735'
p1425
sba(igraph
Edge
p1426
(dp1427
g7
I1
sg8
I00
sg9
I5
sg10
(lp1428
g516
ag600
asg26
I00
sg27
I00
sg28
I4035716
sg20
S'13078.0555406'
p1429
sba(igraph
Edge
p1430
(dp1431
g7
I1
sg8
I00
sg9
I5
sg10
(lp1432
g523
ag600
asg26
I00
sg27
I00
sg28
I4035717
sg20
S'13078.0635475'
p1433
sba(igraph
Edge
p1434
(dp1435
g7
I1
sg8
I00
sg9
I5
sg10
(lp1436
g530
ag614
asg26
I00
sg27
I00
sg28
I4035718
sg20
S'13078.0730361'
p1437
sba(igraph
Edge
p1438
(dp1439
g7
I1
sg8
I00
sg9
I5
sg10
(lp1440
g537
ag614
asg26
I00
sg27
I00
sg28
I4035719
sg20
S'13078.0802909'
p1441
sba(igraph
Edge
p1442
(dp1443
g7
I1
sg8
I00
sg9
I5
sg10
(lp1444
g544
ag628
asg26
I00
sg27
I00
sg28
I4035720
sg20
S'13078.0872748'
p1445
sba(igraph
Edge
p1446
(dp1447
g7
I1
sg8
I00
sg9
I5
sg10
(lp1448
g551
ag628
asg26
I00
sg27
I00
sg28
I4035721
sg20
S'13078.0937544'
p1449
sba(igraph
Edge
p1450
(dp1451
g7
I1
sg8
I00
sg9
I5
sg10
(lp1452
g485
ag565
asg26
I00
sg27
I00
sg28
I4035722
sg20
S'13078.1005983'
p1453
sba(igraph
Edge
p1454
(dp1455
g7
I1
sg8
I00
sg9
I5
sg10
(lp1456
g488
ag565
asg26
I00
sg27
I00
sg28
I4035723
sg20
S'13078.1075902'
p1457
sba(igraph
Edge
p1458
(dp1459
g7
I1
sg8
I00
sg9
I5
sg10
(lp1460
g495
ag579
asg26
I00
sg27
I00
sg28
I4035724
sg20
S'13078.1144277'
p1461
sba(igraph
Edge
p1462
(dp1463
g7
I1
sg8
I00
sg9
I5
sg10
(lp1464
g502
ag579
asg26
I00
sg27
I00
sg28
I4035725
sg20
S'13078.1264133'
p1465
sba(igraph
Edge
p1466
(dp1467
g7
I1
sg8
I00
sg9
I5
sg10
(lp1468
g509
ag593
asg26
I00
sg27
I00
sg28
I4035726
sg20
S'13078.134521'
p1469
sba(igraph
Edge
p1470
(dp1471
g7
I1
sg8
I00
sg9
I5
sg10
(lp1472
g516
ag593
asg26
I00
sg27
I00
sg28
I4035727
sg20
S'13078.1420435'
p1473
sba(igraph
Edge
p1474
(dp1475
g7
I1
sg8
I00
sg9
I5
sg10
(lp1476
g523
ag607
asg26
I00
sg27
I00
sg28
I4035728
sg20
S'13078.1494444'
p1477
sba(igraph
Edge
p1478
(dp1479
g7
I1
sg8
I00
sg9
I5
sg10
(lp1480
g530
ag607
asg26
I00
sg27
I00
sg28
I4035729
sg20
S'13078.1566749'
p1481
sba(igraph
Edge
p1482
(dp1483
g7
I1
sg8
I00
sg9
I5
sg10
(lp1484
g537
ag621
asg26
I00
sg27
I00
sg28
I4035730
sg20
S'13078.1645067'
p1485
sba(igraph
Edge
p1486
(dp1487
g7
I1
sg8
I00
sg9
I5
sg10
(lp1488
g544
ag621
asg26
I00
sg27
I00
sg28
I4035731
sg20
S'13078.1715333'
p1489
sba(igraph
Edge
p1490
(dp1491
g7
I1
sg8
I00
sg9
I5
sg10
(lp1492
g551
ag562
asg26
I00
sg27
I00
sg28
I4035732
sg20
S'13078.180688'
p1493
sba(igraph
Edge
p1494
(dp1495
g7
I1
sg8
I00
sg9
I5
sg10
(lp1496
g562
ag639
asg26
I00
sg27
I00
sg28
I4035733
sg20
S'13078.1880004'
p1497
sba(igraph
Edge
p1498
(dp1499
g7
I1
sg8
I00
sg9
I5
sg10
(lp1500
g565
ag649
asg26
I00
sg27
I00
sg28
I4035734
sg20
S'13078.1956073'
p1501
sba(igraph
Edge
p1502
(dp1503
g7
I1
sg8
I00
sg9
I5
sg10
(lp1504
g572
ag649
asg26
I00
sg27
I00
sg28
I4035735
sg20
S'13078.2019259'
p1505
sba(igraph
Edge
p1506
(dp1507
g7
I1
sg8
I00
sg9
I5
sg10
(lp1508
g579
ag663
asg26
I00
sg27
I00
sg28
I4035736
sg20
S'13078.2081502'
p1509
sba(igraph
Edge
p1510
(dp1511
g7
I1
sg8
I00
sg9
I5
sg10
(lp1512
g586
ag663
asg26
I00
sg27
I00
sg28
I4035737
sg20
S'13078.2145745'
p1513
sba(igraph
Edge
p1514
(dp1515
g7
I1
sg8
I00
sg9
I5
sg10
(lp1516
g593
ag677
asg26
I00
sg27
I00
sg28
I4035738
sg20
S'13078.2209194'
p1517
sba(igraph
Edge
p1518
(dp1519
g7
I1
sg8
I00
sg9
I5
sg10
(lp1520
g600
ag677
asg26
I00
sg27
I00
sg28
I4035739
sg20
S'13078.2272199'
p1521
sba(igraph
Edge
p1522
(dp1523
g7
I1
sg8
I00
sg9
I5
sg10
(lp1524
g607
ag691
asg26
I00
sg27
I00
sg28
I4035740
sg20
S'13078.2335719'
p1525
sba(igraph
Edge
p1526
(dp1527
g7
I1
sg8
I00
sg9
I5
sg10
(lp1528
g614
ag691
asg26
I00
sg27
I00
sg28
I4035741
sg20
S'13078.2399548'
p1529
sba(igraph
Edge
p1530
(dp1531
g7
I1
sg8
I00
sg9
I5
sg10
(lp1532
g621
ag705
asg26
I00
sg27
I00
sg28
I4035742
sg20
S'13078.2463344'
p1533
sba(igraph
Edge
p1534
(dp1535
g7
I1
sg8
I00
sg9
I5
sg10
(lp1536
g628
ag705
asg26
I00
sg27
I00
sg28
I4035743
sg20
S'13078.2527486'
p1537
sba(igraph
Edge
p1538
(dp1539
g7
I1
sg8
I00
sg9
I5
sg10
(lp1540
g562
ag642
asg26
I00
sg27
I00
sg28
I4035744
sg20
S'13078.2592371'
p1541
sba(igraph
Edge
p1542
(dp1543
g7
I1
sg8
I00
sg9
I5
sg10
(lp1544
g565
ag642
asg26
I00
sg27
I00
sg28
I4035745
sg20
S'13078.2657033'
p1545
sba(igraph
Edge
p1546
(dp1547
g7
I1
sg8
I00
sg9
I5
sg10
(lp1548
g572
ag656
asg26
I00
sg27
I00
sg28
I4035746
sg20
S'13078.2721027'
p1549
sba(igraph
Edge
p1550
(dp1551
g7
I1
sg8
I00
sg9
I5
sg10
(lp1552
g579
ag656
asg26
I00
sg27
I00
sg28
I4035747
sg20
S'13078.2786742'
p1553
sba(igraph
Edge
p1554
(dp1555
g7
I1
sg8
I00
sg9
I5
sg10
(lp1556
g586
ag670
asg26
I00
sg27
I00
sg28
I4035748
sg20
S'13078.2851248'
p1557
sba(igraph
Edge
p1558
(dp1559
g7
I1
sg8
I00
sg9
I5
sg10
(lp1560
g593
ag670
asg26
I00
sg27
I00
sg28
I4035749
sg20
S'13078.291653'
p1561
sba(igraph
Edge
p1562
(dp1563
g7
I1
sg8
I00
sg9
I5
sg10
(lp1564
g600
ag684
asg26
I00
sg27
I00
sg28
I4035750
sg20
S'13078.2981195'
p1565
sba(igraph
Edge
p1566
(dp1567
g7
I1
sg8
I00
sg9
I5
sg10
(lp1568
g607
ag684
asg26
I00
sg27
I00
sg28
I4035751
sg20
S'13078.304632'
p1569
sba(igraph
Edge
p1570
(dp1571
g7
I1
sg8
I00
sg9
I5
sg10
(lp1572
g614
ag698
asg26
I00
sg27
I00
sg28
I4035752
sg20
S'13078.3113776'
p1573
sba(igraph
Edge
p1574
(dp1575
g7
I1
sg8
I00
sg9
I5
sg10
(lp1576
g621
ag698
asg26
I00
sg27
I00
sg28
I4035753
sg20
S'13078.3179468'
p1577
sba(igraph
Edge
p1578
(dp1579
g7
I1
sg8
I00
sg9
I5
sg10
(lp1580
g628
ag639
asg26
I00
sg27
I00
sg28
I4035754
sg20
S'13078.3245815'
p1581
sba(igraph
Edge
p1582
(dp1583
g7
I1
sg8
I00
sg9
I5
sg10
(lp1584
g639
ag716
asg26
I00
sg27
I00
sg28
I4035755
sg20
S'13078.3315097'
p1585
sba(igraph
Edge
p1586
(dp1587
g7
I1
sg8
I00
sg9
I5
sg10
(lp1588
g642
ag726
asg26
I00
sg27
I00
sg28
I4035756
sg20
S'13078.3381273'
p1589
sba(igraph
Edge
p1590
(dp1591
g7
I1
sg8
I00
sg9
I5
sg10
(lp1592
g649
ag726
asg26
I00
sg27
I00
sg28
I4035757
sg20
S'13078.3448938'
p1593
sba(igraph
Edge
p1594
(dp1595
g7
I1
sg8
I00
sg9
I5
sg10
(lp1596
g656
ag740
asg26
I00
sg27
I00
sg28
I4035758
sg20
S'13078.3516304'
p1597
sba(igraph
Edge
p1598
(dp1599
g7
I1
sg8
I00
sg9
I5
sg10
(lp1600
g663
ag740
asg26
I00
sg27
I00
sg28
I4035759
sg20
S'13078.3584886'
p1601
sba(igraph
Edge
p1602
(dp1603
g7
I1
sg8
I00
sg9
I5
sg10
(lp1604
g670
ag754
asg26
I00
sg27
I00
sg28
I4035760
sg20
S'13078.3654911'
p1605
sba(igraph
Edge
p1606
(dp1607
g7
I1
sg8
I00
sg9
I5
sg10
(lp1608
g677
ag754
asg26
I00
sg27
I00
sg28
I4035761
sg20
S'13078.3723884'
p1609
sba(igraph
Edge
p1610
(dp1611
g7
I1
sg8
I00
sg9
I5
sg10
(lp1612
g684
ag768
asg26
I00
sg27
I00
sg28
I4035762
sg20
S'13078.3795376'
p1613
sba(igraph
Edge
p1614
(dp1615
g7
I1
sg8
I00
sg9
I5
sg10
(lp1616
g691
ag768
asg26
I00
sg27
I00
sg28
I4035763
sg20
S'13078.3866187'
p1617
sba(igraph
Edge
p1618
(dp1619
g7
I1
sg8
I00
sg9
I5
sg10
(lp1620
g698
ag782
asg26
I00
sg27
I00
sg28
I4035764
sg20
S'13078.3936118'
p1621
sba(igraph
Edge
p1622
(dp1623
g7
I1
sg8
I00
sg9
I5
sg10
(lp1624
g705
ag782
asg26
I00
sg27
I00
sg28
I4035765
sg20
S'13078.4004791'
p1625
sba(igraph
Edge
p1626
(dp1627
g7
I1
sg8
I00
sg9
I5
sg10
(lp1628
g639
ag719
asg26
I00
sg27
I00
sg28
I4035766
sg20
S'13078.4074889'
p1629
sba(igraph
Edge
p1630
(dp1631
g7
I1
sg8
I00
sg9
I5
sg10
(lp1632
g642
ag719
asg26
I00
sg27
I00
sg28
I4035767
sg20
S'13078.4145256'
p1633
sba(igraph
Edge
p1634
(dp1635
g7
I1
sg8
I00
sg9
I5
sg10
(lp1636
g649
ag733
asg26
I00
sg27
I00
sg28
I4035768
sg20
S'13078.4215634'
p1637
sba(igraph
Edge
p1638
(dp1639
g7
I1
sg8
I00
sg9
I5
sg10
(lp1640
g656
ag733
asg26
I00
sg27
I00
sg28
I4035769
sg20
S'13078.4294451'
p1641
sba(igraph
Edge
p1642
(dp1643
g7
I1
sg8
I00
sg9
I5
sg10
(lp1644
g663
ag747
asg26
I00
sg27
I00
sg28
I4035770
sg20
S'13078.4365192'
p1645
sba(igraph
Edge
p1646
(dp1647
g7
I1
sg8
I00
sg9
I5
sg10
(lp1648
g670
ag747
asg26
I00
sg27
I00
sg28
I4035771
sg20
S'13078.4435804'
p1649
sba(igraph
Edge
p1650
(dp1651
g7
I1
sg8
I00
sg9
I5
sg10
(lp1652
g677
ag761
asg26
I00
sg27
I00
sg28
I4035772
sg20
S'13078.4506877'
p1653
sba(igraph
Edge
p1654
(dp1655
g7
I1
sg8
I00
sg9
I5
sg10
(lp1656
g684
ag761
asg26
I00
sg27
I00
sg28
I4035773
sg20
S'13078.4578417'
p1657
sba(igraph
Edge
p1658
(dp1659
g7
I1
sg8
I00
sg9
I5
sg10
(lp1660
g691
ag775
asg26
I00
sg27
I00
sg28
I4035774
sg20
S'13078.4649155'
p1661
sba(igraph
Edge
p1662
(dp1663
g7
I1
sg8
I00
sg9
I5
sg10
(lp1664
g698
ag775
asg26
I00
sg27
I00
sg28
I4035775
sg20
S'13078.4720955'
p1665
sba(igraph
Edge
p1666
(dp1667
g7
I1
sg8
I00
sg9
I5
sg10
(lp1668
g705
ag716
asg26
I00
sg27
I00
sg28
I4035776
sg20
S'13078.4792972'
p1669
sbasS'vertices'
p1670
(lp1671
g12
ag23
ag33
ag40
ag47
ag54
ag61
ag68
ag75
ag82
ag89
ag100
ag103
ag110
ag117
ag124
ag131
ag138
ag145
ag152
ag159
ag166
ag177
ag180
ag187
ag194
ag201
ag208
ag215
ag222
ag229
ag236
ag243
ag254
ag257
ag264
ag271
ag278
ag285
ag292
ag299
ag306
ag313
ag320
ag331
ag334
ag341
ag348
ag355
ag362
ag369
ag376
ag383
ag390
ag397
ag408
ag411
ag418
ag425
ag432
ag439
ag446
ag453
ag460
ag467
ag474
ag485
ag488
ag495
ag502
ag509
ag516
ag523
ag530
ag537
ag544
ag551
ag562
ag565
ag572
ag579
ag586
ag593
ag600
ag607
ag614
ag621
ag628
ag639
ag642
ag649
ag656
ag663
ag670
ag677
ag684
ag691
ag698
ag705
ag716
ag719
ag726
ag733
ag740
ag747
ag754
ag761
ag768
ag775
ag782
asS'tags'
p1672
(lp1673
sb.