(igraph
Graph
p0
(dp1
S'labelingConstraints'
p2
I-1
sS'edges'
p3
(lp4
(igraph
Edge
p5
(dp6
S'direction'
p7
I1
sS'selected'
p8
I00
sS'height'
p9
I5
sS'vs'
p10
(lp11
(igraph
Vertex
p12
(dp13
S'y'
p14
F-54.592843881115442
sS'x'
p15
F-222.30260147835864
sS'circle'
p16
I9807431
sg8
I00
sS'id'
p17
S'85857.6098345'
p18
sS'label'
p19
S'NULL'
p20
sba(igraph
Vertex
p21
(dp22
g14
F-54.592843881115442
sg15
F-179.40444655986505
sg16
I9807432
sg8
I00
sg17
S'85857.6098596'
p23
sg19
I0
sbasS'wrap'
p24
I00
sS'curved'
p25
I00
sS'line'
p26
I9807047
sg17
S'85857.7464778'
p27
sba(igraph
Edge
p28
(dp29
g7
I1
sg8
I00
sg9
I5
sg10
(lp30
g21
a(igraph
Vertex
p31
(dp32
g14
F-54.592843881115442
sg15
F-136.50629164137155
sg16
I9807434
sg8
I00
sg17
S'85857.6099071'
p33
sg19
g20
sbasg24
I00
sg25
I00
sg26
I9807048
sg17
S'85857.7465385'
p34
sba(igraph
Edge
p35
(dp36
g7
I1
sg8
I00
sg9
I5
sg10
(lp37
(igraph
Vertex
p38
(dp39
g14
F-16.980757753485221
sg15
F-222.30260147835864
sg16
I9807435
sg8
I00
sg17
S'85857.6099337'
p40
sg19
g20
sba(igraph
Vertex
p41
(dp42
g14
F-16.980757753485221
sg15
F-179.40444655986505
sg16
I9807436
sg8
I00
sg17
S'85857.6099677'
p43
sg19
g20
sbasg24
I00
sg25
I00
sg26
I9807049
sg17
S'85857.7466195'
p44
sba(igraph
Edge
p45
(dp46
g7
I1
sg8
I00
sg9
I5
sg10
(lp47
g41
a(igraph
Vertex
p48
(dp49
g14
F-16.980757753485221
sg15
F-136.50629164137155
sg16
I9807437
sg8
I00
sg17
S'85857.6100088'
p50
sg19
I0
sbasg24
I00
sg25
I00
sg26
I9807050
sg17
S'85857.74672'
p51
sba(igraph
Edge
p52
(dp53
g7
I1
sg8
I00
sg9
I5
sg10
(lp54
(igraph
Vertex
p55
(dp56
g14
F20.292966439265655
sg15
F-222.33947441821246
sg16
I9807439
sg8
I00
sg17
S'85857.6100585'
p57
sg19
g20
sba(igraph
Vertex
p58
(dp59
g14
F20.631328374145028
sg15
F-179.40444655986505
sg16
I9807440
sg8
I00
sg17
S'85857.6101153'
p60
sg19
g20
sbasg24
I00
sg25
I00
sg26
I9807051
sg17
S'85857.7468418'
p61
sba(igraph
Edge
p62
(dp63
g7
I1
sg8
I00
sg9
I5
sg10
(lp64
g58
a(igraph
Vertex
p65
(dp66
g14
F20.631328374145028
sg15
F-136.50629164137155
sg16
I9807441
sg8
I00
sg17
S'85857.6101795'
p67
sg19
g20
sbasg24
I00
sg25
I00
sg26
I9807052
sg17
S'85857.7469882'
p68
sba(igraph
Edge
p69
(dp70
g7
I1
sg8
I00
sg9
I5
sg10
(lp71
g12
ag38
asg24
I00
sg25
I00
sg26
I9807053
sg17
S'85857.7471547'
p72
sba(igraph
Edge
p73
(dp74
g7
I1
sg8
I00
sg9
I5
sg10
(lp75
g21
ag41
asg24
I00
sg25
I00
sg26
I9807054
sg17
S'85857.7473416'
p76
sba(igraph
Edge
p77
(dp78
g7
I1
sg8
I00
sg9
I5
sg10
(lp79
g31
ag48
asg24
I00
sg25
I00
sg26
I9807055
sg17
S'85857.74755'
p80
sba(igraph
Edge
p81
(dp82
g7
F-1.0
sg8
I00
sg9
F3.278651083278433
sg10
(lp83
g38
ag55
asg24
I00
sg25
I0
sg26
I9807056
sg17
S'85857.7478199'
p84
sba(igraph
Edge
p85
(dp86
g7
I1
sg8
I00
sg9
I5
sg10
(lp87
g41
ag58
asg24
I00
sg25
I00
sg26
I9807057
sg17
S'85857.7480722'
p88
sba(igraph
Edge
p89
(dp90
g7
I1
sg8
I00
sg9
I5
sg10
(lp91
g48
ag65
asg24
I00
sg25
I00
sg26
I9807058
sg17
S'85857.7483457'
p92
sba(igraph
Edge
p93
(dp94
g7
I1
sg8
I00
sg9
I5
sg10
(lp95
g21
ag38
asg24
I00
sg25
I00
sg26
I9807059
sg17
S'85857.7486393'
p96
sba(igraph
Edge
p97
(dp98
g7
I1
sg8
I00
sg9
I5
sg10
(lp99
g41
ag55
asg24
I00
sg25
I00
sg26
I9807060
sg17
S'85857.7489547'
p100
sba(igraph
Edge
p101
(dp102
g7
I1
sg8
I00
sg9
I5
sg10
(lp103
g31
ag41
asg24
I00
sg25
I00
sg26
I9807061
sg17
S'85857.7492922'
p104
sba(igraph
Edge
p105
(dp106
g7
I1
sg8
I00
sg9
I5
sg10
(lp107
g48
ag58
asg24
I00
sg25
I00
sg26
I9807062
sg17
S'85857.7496685'
p108
sba(igraph
Edge
p109
(dp110
g7
I1
sg8
I00
sg9
I5
sg10
(lp111
(igraph
Vertex
p112
(dp113
g14
F-54.634378700152126
sg15
F-90.213129370432796
sg16
I9807442
sg8
I00
sg17
S'85857.6102521'
p114
sg19
g20
sba(igraph
Vertex
p115
(dp116
g14
F-54.634378700152126
sg15
F-47.314974451939293
sg16
I9807443
sg8
I00
sg17
S'85857.6103326'
p117
sg19
g20
sbasg24
I00
sg25
I00
sg26
I9807063
sg17
S'85857.7500543'
p118
sba(igraph
Edge
p119
(dp120
g7
I1
sg8
I00
sg9
I5
sg10
(lp121
g115
a(igraph
Vertex
p122
(dp123
g14
F-54.634378700152126
sg15
F-4.4168195334457323
sg16
I9807444
sg8
I00
sg17
S'85857.6104206'
p124
sg19
g20
sbasg24
I00
sg25
I00
sg26
I9807064
sg17
S'85857.7504566'
p125
sba(igraph
Edge
p126
(dp127
g7
I1
sg8
I00
sg9
I5
sg10
(lp128
(igraph
Vertex
p129
(dp130
g14
F-17.022292572521877
sg15
F-90.213129370432796
sg16
I9807445
sg8
I00
sg17
S'85857.610517'
p131
sg19
g20
sba(igraph
Vertex
p132
(dp133
g14
F-17.022292572521877
sg15
F-47.314974451939293
sg16
I9807446
sg8
I00
sg17
S'85857.6106215'
p134
sg19
g20
sbasg24
I00
sg25
I00
sg26
I9807065
sg17
S'85857.7508837'
p135
sba(igraph
Edge
p136
(dp137
g7
I1
sg8
I00
sg9
I5
sg10
(lp138
g132
a(igraph
Vertex
p139
(dp140
g14
F-17.022292572521877
sg15
F-4.4168195334457323
sg16
I9807447
sg8
I00
sg17
S'85857.610734'
p141
sg19
g20
sbasg24
I00
sg25
I00
sg26
I9807066
sg17
S'85857.7513304'
p142
sba(igraph
Edge
p143
(dp144
g7
I1
sg8
I00
sg9
I5
sg10
(lp145
(igraph
Vertex
p146
(dp147
g14
F20.589793555108287
sg15
F-90.213129370432796
sg16
I9807448
sg8
I00
sg17
S'85857.6108746'
p148
sg19
g20
sba(igraph
Vertex
p149
(dp150
g14
F20.589793555108287
sg15
F-47.314974451939293
sg16
I9807449
sg8
I00
sg17
S'85857.6110224'
p151
sg19
g20
sbasg24
I00
sg25
I00
sg26
I9807067
sg17
S'85857.7518268'
p152
sba(igraph
Edge
p153
(dp154
g7
I1
sg8
I00
sg9
I5
sg10
(lp155
g149
a(igraph
Vertex
p156
(dp157
g14
F20.589793555108287
sg15
F-4.4168195334457323
sg16
I9807450
sg8
I00
sg17
S'85857.611159'
p158
sg19
g20
sbasg24
I00
sg25
I00
sg26
I9807068
sg17
S'85857.7523202'
p159
sba(igraph
Edge
p160
(dp161
g7
I1
sg8
I00
sg9
I5
sg10
(lp162
g112
ag129
asg24
I00
sg25
I00
sg26
I9807069
sg17
S'85857.7528328'
p163
sba(igraph
Edge
p164
(dp165
g7
I1
sg8
I00
sg9
I5
sg10
(lp166
g115
ag132
asg24
I00
sg25
I00
sg26
I9807070
sg17
S'85857.7533673'
p167
sba(igraph
Edge
p168
(dp169
g7
I1
sg8
I00
sg9
I5
sg10
(lp170
g122
ag139
asg24
I00
sg25
I00
sg26
I9807071
sg17
S'85857.7539243'
p171
sba(igraph
Edge
p172
(dp173
g7
I1
sg8
I00
sg9
I5
sg10
(lp174
g129
ag146
asg24
I00
sg25
I00
sg26
I9807072
sg17
S'85857.7545009'
p175
sba(igraph
Edge
p176
(dp177
g7
I1
sg8
I00
sg9
I5
sg10
(lp178
g132
ag149
asg24
I00
sg25
I00
sg26
I9807073
sg17
S'85857.7551013'
p179
sba(igraph
Edge
p180
(dp181
g7
I1
sg8
I00
sg9
I5
sg10
(lp182
g139
ag156
asg24
I00
sg25
I00
sg26
I9807074
sg17
S'85857.7557743'
p183
sba(igraph
Edge
p184
(dp185
g7
I1
sg8
I00
sg9
I5
sg10
(lp186
g115
ag129
asg24
I00
sg25
I00
sg26
I9807075
sg17
S'85857.756416'
p187
sba(igraph
Edge
p188
(dp189
g7
I1
sg8
I00
sg9
I5
sg10
(lp190
g132
ag146
asg24
I00
sg25
I00
sg26
I9807076
sg17
S'85857.7570811'
p191
sba(igraph
Edge
p192
(dp193
g7
I1
sg8
I00
sg9
I5
sg10
(lp194
g122
ag132
asg24
I00
sg25
I00
sg26
I9807077
sg17
S'85857.757848'
p195
sba(igraph
Edge
p196
(dp197
g7
I1
sg8
I00
sg9
I5
sg10
(lp198
g139
ag149
asg24
I00
sg25
I00
sg26
I9807078
sg17
S'85857.7585727'
p199
sba(igraph
Edge
p200
(dp201
g7
I1
sg8
I00
sg9
I5
sg10
(lp202
g31
ag112
asg24
I00
sg25
I00
sg26
I9807079
sg17
S'85857.7593454'
p203
sba(igraph
Edge
p204
(dp205
g7
I1
sg8
I00
sg9
I5
sg10
(lp206
g48
ag112
asg24
I00
sg25
I00
sg26
I9807080
sg17
S'85857.7601368'
p207
sba(igraph
Edge
p208
(dp209
g7
I1
sg8
I00
sg9
I5
sg10
(lp210
g48
ag129
asg24
I00
sg25
I00
sg26
I9807081
sg17
S'85857.7609165'
p211
sba(igraph
Edge
p212
(dp213
g7
I1
sg8
I00
sg9
I5
sg10
(lp214
g65
ag129
asg24
I00
sg25
I00
sg26
I9807082
sg17
S'85857.761732'
p215
sba(igraph
Edge
p216
(dp217
g7
I1
sg8
I00
sg9
I5
sg10
(lp218
g65
ag146
asg24
I00
sg25
I00
sg26
I9807083
sg17
S'85857.7625514'
p219
sba(igraph
Edge
p220
(dp221
g7
I1
sg8
I00
sg9
I5
sg10
(lp222
(igraph
Vertex
p223
(dp224
g14
F-54.744683711987619
sg15
F40.529317982012344
sg16
I9807451
sg8
I00
sg17
S'85857.6113037'
p225
sg19
g20
sba(igraph
Vertex
p226
(dp227
g14
F-54.744683711987619
sg15
F83.427472900505904
sg16
I9807452
sg8
I00
sg17
S'85857.6114559'
p228
sg19
g20
sbasg24
I00
sg25
I00
sg26
I9807084
sg17
S'85857.7634118'
p229
sba(igraph
Edge
p230
(dp231
g7
I1
sg8
I00
sg9
I5
sg10
(lp232
g226
a(igraph
Vertex
p233
(dp234
g14
F-54.744683711987619
sg15
F126.32562781899941
sg16
I9807453
sg8
I00
sg17
S'85857.6116171'
p235
sg19
g20
sbasg24
I00
sg25
I00
sg26
I9807085
sg17
S'85857.7643128'
p236
sba(igraph
Edge
p237
(dp238
g7
I1
sg8
I00
sg9
I5
sg10
(lp239
(igraph
Vertex
p240
(dp241
g14
F-17.132597584357427
sg15
F40.529317982012344
sg16
I9807454
sg8
I00
sg17
S'85857.6117867'
p242
sg19
g20
sba(igraph
Vertex
p243
(dp244
g14
F-17.132597584357427
sg15
F83.427472900505904
sg16
I9807455
sg8
I00
sg17
S'85857.6121636'
p245
sg19
g20
sbasg24
I00
sg25
I00
sg26
I9807086
sg17
S'85857.7653316'
p246
sba(igraph
Edge
p247
(dp248
g7
I1
sg8
I00
sg9
I5
sg10
(lp249
g243
a(igraph
Vertex
p250
(dp251
g14
F-17.132597584357427
sg15
F126.32562781899941
sg16
I9807456
sg8
I00
sg17
S'85857.6123516'
p252
sg19
g20
sbasg24
I00
sg25
I00
sg26
I9807087
sg17
S'85857.766246'
p253
sba(igraph
Edge
p254
(dp255
g7
I1
sg8
I00
sg9
I5
sg10
(lp256
(igraph
Vertex
p257
(dp258
g14
F20.479488543272822
sg15
F40.529317982012344
sg16
I9807457
sg8
I00
sg17
S'85857.6125449'
p259
sg19
g20
sba(igraph
Vertex
p260
(dp261
g14
F20.479488543272822
sg15
F83.427472900505904
sg16
I9807458
sg8
I00
sg17
S'85857.6127452'
p262
sg19
g20
sbasg24
I00
sg25
I00
sg26
I9807088
sg17
S'85857.7672053'
p263
sba(igraph
Edge
p264
(dp265
g7
I1
sg8
I00
sg9
I5
sg10
(lp266
g260
a(igraph
Vertex
p267
(dp268
g14
F20.479488543272822
sg15
F126.32562781899941
sg16
I9807459
sg8
I00
sg17
S'85857.6129525'
p269
sg19
g20
sbasg24
I00
sg25
I00
sg26
I9807089
sg17
S'85857.7681532'
p270
sba(igraph
Edge
p271
(dp272
g7
I1
sg8
I00
sg9
I5
sg10
(lp273
g223
ag240
asg24
I00
sg25
I00
sg26
I9807090
sg17
S'85857.7691391'
p274
sba(igraph
Edge
p275
(dp276
g7
I1
sg8
I00
sg9
I5
sg10
(lp277
g226
ag243
asg24
I00
sg25
I00
sg26
I9807091
sg17
S'85857.7701261'
p278
sba(igraph
Edge
p279
(dp280
g7
I1
sg8
I00
sg9
I5
sg10
(lp281
g233
ag250
asg24
I00
sg25
I00
sg26
I9807092
sg17
S'85857.7711782'
p282
sba(igraph
Edge
p283
(dp284
g7
I1
sg8
I00
sg9
I5
sg10
(lp285
g240
ag257
asg24
I00
sg25
I00
sg26
I9807093
sg17
S'85857.7722074'
p286
sba(igraph
Edge
p287
(dp288
g7
I1
sg8
I00
sg9
I5
sg10
(lp289
g243
ag260
asg24
I00
sg25
I00
sg26
I9807094
sg17
S'85857.7732527'
p290
sba(igraph
Edge
p291
(dp292
g7
I1
sg8
I00
sg9
I5
sg10
(lp293
g250
ag267
asg24
I00
sg25
I00
sg26
I9807095
sg17
S'85857.7743168'
p294
sba(igraph
Edge
p295
(dp296
g7
I1
sg8
I00
sg9
I5
sg10
(lp297
g226
ag240
asg24
I00
sg25
I00
sg26
I9807096
sg17
S'85857.7754396'
p298
sba(igraph
Edge
p299
(dp300
g7
I1
sg8
I00
sg9
I5
sg10
(lp301
g243
ag257
asg24
I00
sg25
I00
sg26
I9807097
sg17
S'85857.7765574'
p302
sba(igraph
Edge
p303
(dp304
g7
I1
sg8
I00
sg9
I5
sg10
(lp305
g233
ag243
asg24
I00
sg25
I00
sg26
I9807098
sg17
S'85857.777693'
p306
sba(igraph
Edge
p307
(dp308
g7
I1
sg8
I00
sg9
I5
sg10
(lp309
g250
ag260
asg24
I00
sg25
I00
sg26
I9807099
sg17
S'85857.7789152'
p310
sba(igraph
Edge
p311
(dp312
g7
I1
sg8
I00
sg9
I5
sg10
(lp313
(igraph
Vertex
p314
(dp315
g14
F-54.786218531024275
sg15
F172.61879008993822
sg16
I9807460
sg8
I00
sg17
S'85857.613169'
p316
sg19
g20
sba(igraph
Vertex
p317
(dp318
g14
F-17.174132403394083
sg15
F172.61879008993822
sg16
I9807461
sg8
I00
sg17
S'85857.613393'
p319
sg19
g20
sbasg24
I00
sg25
I00
sg26
I9807100
sg17
S'85857.7801112'
p320
sba(igraph
Edge
p321
(dp322
g7
I1
sg8
I00
sg9
I5
sg10
(lp323
g317
a(igraph
Vertex
p324
(dp325
g14
F20.437953724236195
sg15
F172.61879008993822
sg16
I9807462
sg8
I00
sg17
S'85857.6136258'
p326
sg19
g20
sbasg24
I00
sg25
I00
sg26
I9807101
sg17
S'85857.7813733'
p327
sba(igraph
Edge
p328
(dp329
g7
I1
sg8
I00
sg9
I5
sg10
(lp330
g233
ag314
asg24
I00
sg25
I00
sg26
I9807102
sg17
S'85857.7825967'
p331
sba(igraph
Edge
p332
(dp333
g7
I1
sg8
I00
sg9
I5
sg10
(lp334
g250
ag314
asg24
I00
sg25
I00
sg26
I9807103
sg17
S'85857.7838697'
p335
sba(igraph
Edge
p336
(dp337
g7
I1
sg8
I00
sg9
I5
sg10
(lp338
g250
ag317
asg24
I00
sg25
I00
sg26
I9807104
sg17
S'85857.7851288'
p339
sba(igraph
Edge
p340
(dp341
g7
I1
sg8
I00
sg9
I5
sg10
(lp342
g267
ag317
asg24
I00
sg25
I00
sg26
I9807105
sg17
S'85857.7864072'
p343
sba(igraph
Edge
p344
(dp345
g7
I1
sg8
I00
sg9
I5
sg10
(lp346
g267
ag324
asg24
I00
sg25
I00
sg26
I9807106
sg17
S'85857.7882636'
p347
sba(igraph
Edge
p348
(dp349
g7
I1
sg8
I00
sg9
I5
sg10
(lp350
g122
ag223
asg24
I00
sg25
I00
sg26
I9807107
sg17
S'85857.7896082'
p351
sba(igraph
Edge
p352
(dp353
g7
I1
sg8
I00
sg9
I5
sg10
(lp354
g139
ag223
asg24
I00
sg25
I00
sg26
I9807108
sg17
S'85857.7909488'
p355
sba(igraph
Edge
p356
(dp357
g7
I1
sg8
I00
sg9
I5
sg10
(lp358
g139
ag240
asg24
I00
sg25
I00
sg26
I9807109
sg17
S'85857.792323'
p359
sba(igraph
Edge
p360
(dp361
g7
I1
sg8
I00
sg9
I5
sg10
(lp362
g156
ag240
asg24
I00
sg25
I00
sg26
I9807110
sg17
S'85857.7937235'
p363
sba(igraph
Edge
p364
(dp365
g7
I1
sg8
I00
sg9
I5
sg10
(lp366
g156
ag257
asg24
I00
sg25
I00
sg26
I9807111
sg17
S'85857.795134'
p367
sba(igraph
Edge
p368
(dp369
g7
I1
sg8
I00
sg9
I5
sg10
(lp370
(igraph
Vertex
p371
(dp372
g14
F-88.284373831911864
sg15
F-221.77589679033167
sg16
I9807463
sg8
I00
sg17
S'85857.613866'
p373
sg19
g20
sba(igraph
Vertex
p374
(dp375
g14
F-88.284373831911864
sg15
F-178.87774187183805
sg16
I9807464
sg8
I00
sg17
S'85857.6141141'
p376
sg19
g20
sbasg24
I00
sg25
I00
sg26
I9807112
sg17
S'85857.7966004'
p377
sba(igraph
Edge
p378
(dp379
g7
I1
sg8
I00
sg9
I5
sg10
(lp380
g374
a(igraph
Vertex
p381
(dp382
g14
F-88.284373831911864
sg15
F-135.97958695334455
sg16
I9807465
sg8
I00
sg17
S'85857.6143714'
p383
sg19
g20
sbasg24
I00
sg25
I00
sg26
I9807113
sg17
S'85857.7981257'
p384
sba(igraph
Edge
p385
(dp386
g7
I1
sg8
I00
sg9
I5
sg10
(lp387
(igraph
Vertex
p388
(dp389
g14
F-88.325908650948563
sg15
F-89.6864246824058
sg16
I9807466
sg8
I00
sg17
S'85857.6146368'
p390
sg19
I0
sba(igraph
Vertex
p391
(dp392
g14
F-88.325908650948563
sg15
F-46.788269763912297
sg16
I9807468
sg8
I00
sg17
S'85857.6149748'
p393
sg19
g20
sbasg24
I00
sg25
I00
sg26
I9807114
sg17
S'85857.7996871'
p394
sba(igraph
Edge
p395
(dp396
g7
I1
sg8
I00
sg9
I5
sg10
(lp397
g391
a(igraph
Vertex
p398
(dp399
g14
F-88.325908650948563
sg15
F-3.8901148454187364
sg16
I9807469
sg8
I00
sg17
S'85857.615257'
p400
sg19
g20
sbasg24
I00
sg25
I00
sg26
I9807115
sg17
S'85857.8011758'
p401
sba(igraph
Edge
p402
(dp403
g7
I1
sg8
I00
sg9
I5
sg10
(lp404
g381
ag388
asg24
I00
sg25
I00
sg26
I9807116
sg17
S'85857.8027554'
p405
sba(igraph
Edge
p406
(dp407
g7
I1
sg8
I00
sg9
I5
sg10
(lp408
(igraph
Vertex
p409
(dp410
g14
F-88.436213662784084
sg15
F41.05602267003934
sg16
I9807470
sg8
I00
sg17
S'85857.6155478'
p411
sg19
g20
sba(igraph
Vertex
p412
(dp413
g14
F-88.436213662784084
sg15
F83.954177588532843
sg16
I9807471
sg8
I00
sg17
S'85857.6158735'
p414
sg19
g20
sbasg24
I00
sg25
I00
sg26
I9807117
sg17
S'85857.8043073'
p415
sba(igraph
Edge
p416
(dp417
g7
I1
sg8
I00
sg9
I5
sg10
(lp418
g412
a(igraph
Vertex
p419
(dp420
g14
F-88.436213662784084
sg15
F126.8523325070264
sg16
I9807472
sg8
I00
sg17
S'85857.6161805'
p421
sg19
g20
sbasg24
I00
sg25
I00
sg26
I9807118
sg17
S'85857.8058703'
p422
sba(igraph
Edge
p423
(dp424
g7
I1
sg8
I00
sg9
I5
sg10
(lp425
g419
a(igraph
Vertex
p426
(dp427
g14
F-88.47774848182074
sg15
F173.14549477796521
sg16
I9807473
sg8
I00
sg17
S'85857.616496'
p428
sg19
g20
sbasg24
I00
sg25
I00
sg26
I9807119
sg17
S'85857.8074758'
p429
sba(igraph
Edge
p430
(dp431
g7
I1
sg8
I00
sg9
I5
sg10
(lp432
g398
ag409
asg24
I00
sg25
I00
sg26
I9807120
sg17
S'85857.8090838'
p433
sba(igraph
Edge
p434
(dp435
g7
I1
sg8
I00
sg9
I5
sg10
(lp436
g12
ag371
asg24
I00
sg25
I00
sg26
I9807121
sg17
S'85857.8107366'
p437
sba(igraph
Edge
p438
(dp439
g7
I1
sg8
I00
sg9
I5
sg10
(lp440
g12
ag374
asg24
I00
sg25
I00
sg26
I9807122
sg17
S'85857.8124681'
p441
sba(igraph
Edge
p442
(dp443
g7
I1
sg8
I00
sg9
I5
sg10
(lp444
g21
ag374
asg24
I00
sg25
I00
sg26
I9807123
sg17
S'85857.8141406'
p445
sba(igraph
Edge
p446
(dp447
g7
I1
sg8
I00
sg9
I5
sg10
(lp448
g21
ag381
asg24
I00
sg25
I00
sg26
I9807124
sg17
S'85857.8158847'
p449
sba(igraph
Edge
p450
(dp451
g7
I1
sg8
I00
sg9
I5
sg10
(lp452
g31
ag381
asg24
I00
sg25
I00
sg26
I9807125
sg17
S'85857.8176285'
p453
sba(igraph
Edge
p454
(dp455
g7
I1
sg8
I00
sg9
I5
sg10
(lp456
g31
ag388
asg24
I00
sg25
I00
sg26
I9807126
sg17
S'85857.8194678'
p457
sba(igraph
Edge
p458
(dp459
g7
I1
sg8
I00
sg9
I5
sg10
(lp460
g112
ag388
asg24
I00
sg25
I00
sg26
I9807127
sg17
S'85857.8212541'
p461
sba(igraph
Edge
p462
(dp463
g7
I1
sg8
I00
sg9
I5
sg10
(lp464
g112
ag391
asg24
I00
sg25
I00
sg26
I9807128
sg17
S'85857.8231205'
p465
sba(igraph
Edge
p466
(dp467
g7
I1
sg8
I00
sg9
I5
sg10
(lp468
g115
ag391
asg24
I00
sg25
I00
sg26
I9807129
sg17
S'85857.8249512'
p469
sba(igraph
Edge
p470
(dp471
g7
I1
sg8
I00
sg9
I5
sg10
(lp472
g115
ag398
asg24
I00
sg25
I00
sg26
I9807130
sg17
S'85857.8269693'
p473
sba(igraph
Edge
p474
(dp475
g7
I1
sg8
I00
sg9
I5
sg10
(lp476
g122
ag398
asg24
I00
sg25
I00
sg26
I9807131
sg17
S'85857.8304022'
p477
sba(igraph
Edge
p478
(dp479
g7
I1
sg8
I00
sg9
I5
sg10
(lp480
g122
ag409
asg24
I00
sg25
I00
sg26
I9807132
sg17
S'85857.8322966'
p481
sba(igraph
Edge
p482
(dp483
g7
I1
sg8
I00
sg9
I5
sg10
(lp484
g223
ag409
asg24
I00
sg25
I00
sg26
I9807133
sg17
S'85857.834182'
p485
sba(igraph
Edge
p486
(dp487
g7
I1
sg8
I00
sg9
I5
sg10
(lp488
g223
ag412
asg24
I00
sg25
I00
sg26
I9807134
sg17
S'85857.8361065'
p489
sba(igraph
Edge
p490
(dp491
g7
I1
sg8
I00
sg9
I5
sg10
(lp492
g226
ag412
asg24
I00
sg25
I00
sg26
I9807135
sg17
S'85857.8380484'
p493
sba(igraph
Edge
p494
(dp495
g7
I1
sg8
I00
sg9
I5
sg10
(lp496
g226
ag419
asg24
I00
sg25
I00
sg26
I9807136
sg17
S'85857.8400495'
p497
sba(igraph
Edge
p498
(dp499
g7
I1
sg8
I00
sg9
I5
sg10
(lp500
g233
ag419
asg24
I00
sg25
I00
sg26
I9807137
sg17
S'85857.8420285'
p501
sba(igraph
Edge
p502
(dp503
g7
I1
sg8
I00
sg9
I5
sg10
(lp504
g233
ag426
asg24
I00
sg25
I00
sg26
I9807138
sg17
S'85857.8441632'
p505
sba(igraph
Edge
p506
(dp507
g7
I1
sg8
I00
sg9
I5
sg10
(lp508
g314
ag426
asg24
I00
sg25
I00
sg26
I9807139
sg17
S'85857.8461874'
p509
sba(igraph
Edge
p510
(dp511
g7
I1
sg8
I00
sg9
I5
sg10
(lp512
(igraph
Vertex
p513
(dp514
g14
F56.538600534350735
sg15
F-222.30838286115801
sg16
I9807474
sg8
I00
sg17
S'85857.6168195'
p515
sg19
g20
sba(igraph
Vertex
p516
(dp517
g14
F56.538600534350735
sg15
F-179.41022794266439
sg16
I9807475
sg8
I00
sg17
S'85857.6171513'
p518
sg19
g20
sbasg24
I00
sg25
I00
sg26
I9807140
sg17
S'85857.848267'
p519
sba(igraph
Edge
p520
(dp521
g7
I1
sg8
I00
sg9
I5
sg10
(lp522
g516
a(igraph
Vertex
p523
(dp524
g14
F56.538600534350735
sg15
F-136.51207302417089
sg16
I9807476
sg8
I00
sg17
S'85857.617491'
p525
sg19
g20
sbasg24
I00
sg25
I00
sg26
I9807141
sg17
S'85857.8503232'
p526
sba(igraph
Edge
p527
(dp528
g7
I1
sg8
I00
sg9
I5
sg10
(lp529
(igraph
Vertex
p530
(dp531
g14
F56.491080348378603
sg15
F-90.218910753232137
sg16
I9807477
sg8
I00
sg17
S'85857.6178377'
p532
sg19
g20
sba(igraph
Vertex
p533
(dp534
g14
F56.491080348378603
sg15
F-47.320755834738577
sg16
I9807478
sg8
I00
sg17
S'85857.6181945'
p535
sg19
I0
sbasg24
I00
sg25
I00
sg26
I9807142
sg17
S'85857.8524162'
p536
sba(igraph
Edge
p537
(dp538
g7
I1
sg8
I00
sg9
I5
sg10
(lp539
g533
a(igraph
Vertex
p540
(dp541
g14
F56.491080348378603
sg15
F-4.4226009162450737
sg16
I9807480
sg8
I00
sg17
S'85857.6185577'
p542
sg19
g20
sbasg24
I00
sg25
I00
sg26
I9807143
sg17
S'85857.8545164'
p543
sba(igraph
Edge
p544
(dp545
g7
I1
sg8
I00
sg9
I5
sg10
(lp546
g523
ag530
asg24
I00
sg25
I00
sg26
I9807144
sg17
S'85857.8566446'
p547
sba(igraph
Edge
p548
(dp549
g7
I1
sg8
I00
sg9
I5
sg10
(lp550
(igraph
Vertex
p551
(dp552
g14
F56.364879854488152
sg15
F40.523536599213003
sg16
I9807481
sg8
I00
sg17
S'85857.6192044'
p553
sg19
g20
sba(igraph
Vertex
p554
(dp555
g14
F56.364879854488152
sg15
F83.421691517706563
sg16
I9807482
sg8
I00
sg17
S'85857.6199268'
p556
sg19
I0
sbasg24
I00
sg25
I00
sg26
I9807145
sg17
S'85857.8587921'
p557
sba(igraph
Edge
p558
(dp559
g7
I1
sg8
I00
sg9
I5
sg10
(lp560
g554
a(igraph
Vertex
p561
(dp562
g14
F56.364879854488152
sg15
F126.31984643620007
sg16
I9807484
sg8
I00
sg17
S'85857.6203188'
p563
sg19
g20
sbasg24
I00
sg25
I00
sg26
I9807146
sg17
S'85857.8610988'
p564
sba(igraph
Edge
p565
(dp566
g7
I1
sg8
I00
sg9
I5
sg10
(lp567
g561
a(igraph
Vertex
p568
(dp569
g14
F56.317359668516133
sg15
F172.61300870713887
sg16
I9807485
sg8
I00
sg17
S'85857.6207303'
p570
sg19
g20
sbasg24
I00
sg25
I00
sg26
I9807147
sg17
S'85857.8632958'
p571
sba(igraph
Edge
p572
(dp573
g7
I1
sg8
I00
sg9
I5
sg10
(lp574
g540
ag551
asg24
I00
sg25
I00
sg26
I9807148
sg17
S'85857.8675929'
p575
sba(igraph
Edge
p576
(dp577
g7
I1
sg8
I00
sg9
I5
sg10
(lp578
g55
ag513
asg24
I00
sg25
I00
sg26
I9807149
sg17
S'85857.8698985'
p579
sba(igraph
Edge
p580
(dp581
g7
I1
sg8
I00
sg9
I5
sg10
(lp582
g58
ag513
asg24
I00
sg25
I00
sg26
I9807150
sg17
S'85857.8726534'
p583
sba(igraph
Edge
p584
(dp585
g7
I1
sg8
I00
sg9
I5
sg10
(lp586
g58
ag516
asg24
I00
sg25
I00
sg26
I9807151
sg17
S'85857.8750512'
p587
sba(igraph
Edge
p588
(dp589
g7
I1
sg8
I00
sg9
I5
sg10
(lp590
g65
ag516
asg24
I00
sg25
I00
sg26
I9807152
sg17
S'85857.8773928'
p591
sba(igraph
Edge
p592
(dp593
g7
I1
sg8
I00
sg9
I5
sg10
(lp594
g65
ag523
asg24
I00
sg25
I00
sg26
I9807153
sg17
S'85857.8797613'
p595
sba(igraph
Edge
p596
(dp597
g7
I1
sg8
I00
sg9
I5
sg10
(lp598
g146
ag523
asg24
I00
sg25
I00
sg26
I9807154
sg17
S'85857.8821068'
p599
sba(igraph
Edge
p600
(dp601
g7
I1
sg8
I00
sg9
I5
sg10
(lp602
g146
ag530
asg24
I00
sg25
I00
sg26
I9807155
sg17
S'85857.8845255'
p603
sba(igraph
Edge
p604
(dp605
g7
I1
sg8
I00
sg9
I5
sg10
(lp606
g149
ag530
asg24
I00
sg25
I00
sg26
I9807156
sg17
S'85857.8869697'
p607
sba(igraph
Edge
p608
(dp609
g7
I1
sg8
I00
sg9
I5
sg10
(lp610
g149
ag533
asg24
I00
sg25
I00
sg26
I9807157
sg17
S'85857.8894069'
p611
sba(igraph
Edge
p612
(dp613
g7
I1
sg8
I00
sg9
I5
sg10
(lp614
g156
ag533
asg24
I00
sg25
I00
sg26
I9807158
sg17
S'85857.891984'
p615
sba(igraph
Edge
p616
(dp617
g7
I1
sg8
I00
sg9
I5
sg10
(lp618
g156
ag540
asg24
I00
sg25
I00
sg26
I9807159
sg17
S'85857.8944285'
p619
sba(igraph
Edge
p620
(dp621
g7
I1
sg8
I00
sg9
I5
sg10
(lp622
g257
ag540
asg24
I00
sg25
I00
sg26
I9807160
sg17
S'85857.8969715'
p623
sba(igraph
Edge
p624
(dp625
g7
I1
sg8
I00
sg9
I5
sg10
(lp626
g257
ag551
asg24
I00
sg25
I00
sg26
I9807161
sg17
S'85857.8995054'
p627
sba(igraph
Edge
p628
(dp629
g7
I1
sg8
I00
sg9
I5
sg10
(lp630
g260
ag551
asg24
I00
sg25
I00
sg26
I9807162
sg17
S'85857.9021214'
p631
sba(igraph
Edge
p632
(dp633
g7
I1
sg8
I00
sg9
I5
sg10
(lp634
g260
ag554
asg24
I00
sg25
I00
sg26
I9807163
sg17
S'85857.9046893'
p635
sba(igraph
Edge
p636
(dp637
g7
I1
sg8
I00
sg9
I5
sg10
(lp638
g267
ag554
asg24
I00
sg25
I00
sg26
I9807164
sg17
S'85857.9073148'
p639
sba(igraph
Edge
p640
(dp641
g7
I1
sg8
I00
sg9
I5
sg10
(lp642
g267
ag561
asg24
I00
sg25
I00
sg26
I9807165
sg17
S'85857.9099165'
p643
sba(igraph
Edge
p644
(dp645
g7
I1
sg8
I00
sg9
I5
sg10
(lp646
g324
ag561
asg24
I00
sg25
I00
sg26
I9807166
sg17
S'85857.9133479'
p647
sba(igraph
Edge
p648
(dp649
g7
I1
sg8
I00
sg9
I5
sg10
(lp650
g324
ag568
asg24
I00
sg25
I00
sg26
I9807167
sg17
S'85857.916022'
p651
sba(igraph
Edge
p652
(dp653
g7
I1
sg8
I00
sg9
I5
sg10
(lp654
(igraph
Vertex
p655
(dp656
g14
F92.60013899588921
sg15
F-220.30838286115801
sg16
I9807486
sg8
I00
sg17
S'85857.6211574'
p657
sg19
g20
sba(igraph
Vertex
p658
(dp659
g14
F92.60013899588921
sg15
F-177.41022794266439
sg16
I9807487
sg8
I00
sg17
S'85857.6216648'
p660
sg19
g20
sbasg24
I00
sg25
I00
sg26
I9807168
sg17
S'85857.9187053'
p661
sba(igraph
Edge
p662
(dp663
g7
I1
sg8
I00
sg9
I5
sg10
(lp664
g658
a(igraph
Vertex
p665
(dp666
g14
F92.60013899588921
sg15
F-134.51207302417089
sg16
I9807488
sg8
I00
sg17
S'85857.6220925'
p667
sg19
g20
sbasg24
I00
sg25
I00
sg26
I9807169
sg17
S'85857.921516'
p668
sba(igraph
Edge
p669
(dp670
g7
I1
sg8
I00
sg9
I5
sg10
(lp671
(igraph
Vertex
p672
(dp673
g14
F92.552618809917078
sg15
F-88.218910753232137
sg16
I9807489
sg8
I00
sg17
S'85857.6225272'
p674
sg19
g20
sba(igraph
Vertex
p675
(dp676
g14
F92.552618809917078
sg15
F-45.320755834738577
sg16
I9807490
sg8
I00
sg17
S'85857.6230384'
p677
sg19
g20
sbasg24
I00
sg25
I00
sg26
I9807170
sg17
S'85857.9242038'
p678
sba(igraph
Edge
p679
(dp680
g7
I1
sg8
I00
sg9
I5
sg10
(lp681
g675
a(igraph
Vertex
p682
(dp683
g14
F92.552618809917078
sg15
F-2.4226009162450737
sg16
I9807491
sg8
I00
sg17
S'85857.623491'
p684
sg19
I0
sbasg24
I00
sg25
I00
sg26
I9807171
sg17
S'85857.9269094'
p685
sba(igraph
Edge
p686
(dp687
g7
I1
sg8
I00
sg9
I5
sg10
(lp688
g665
ag672
asg24
I00
sg25
I00
sg26
I9807172
sg17
S'85857.9296788'
p689
sba(igraph
Edge
p690
(dp691
g7
I1
sg8
I00
sg9
I5
sg10
(lp692
(igraph
Vertex
p693
(dp694
g14
F92.426418316026627
sg15
F42.523536599213003
sg16
I9807493
sg8
I00
sg17
S'85857.6239639'
p695
sg19
g20
sba(igraph
Vertex
p696
(dp697
g14
F92.426418316026627
sg15
F85.421691517706563
sg16
I9807494
sg8
I00
sg17
S'85857.624426'
p698
sg19
g20
sbasg24
I00
sg25
I00
sg26
I9807173
sg17
S'85857.9324816'
p699
sba(igraph
Edge
p700
(dp701
g7
I1
sg8
I00
sg9
I5
sg10
(lp702
g696
a(igraph
Vertex
p703
(dp704
g14
F92.426418316026627
sg15
F128.31984643620007
sg16
I9807495
sg8
I00
sg17
S'85857.6249001'
p705
sg19
g20
sbasg24
I00
sg25
I00
sg26
I9807174
sg17
S'85857.9352622'
p706
sba(igraph
Edge
p707
(dp708
g7
I1
sg8
I00
sg9
I5
sg10
(lp709
g703
a(igraph
Vertex
p710
(dp711
g14
F92.378898130054608
sg15
F174.61300870713887
sg16
I9807496
sg8
I00
sg17
S'85857.6253826'
p712
sg19
g20
sbasg24
I00
sg25
I00
sg26
I9807175
sg17
S'85857.9380877'
p713
sba(igraph
Edge
p714
(dp715
g7
I1
sg8
I00
sg9
I5
sg10
(lp716
g682
ag693
asg24
I00
sg25
I00
sg26
I9807176
sg17
S'85857.9409668'
p717
sba(igraph
Edge
p718
(dp719
g7
I1
sg8
I00
sg9
I5
sg10
(lp720
g513
ag655
asg24
I00
sg25
I00
sg26
I9807177
sg17
S'85857.9439571'
p721
sba(igraph
Edge
p722
(dp723
g7
I1
sg8
I00
sg9
I5
sg10
(lp724
g516
ag655
asg24
I00
sg25
I00
sg26
I9807178
sg17
S'85857.9468189'
p725
sba(igraph
Edge
p726
(dp727
g7
I1
sg8
I00
sg9
I5
sg10
(lp728
g516
ag658
asg24
I00
sg25
I00
sg26
I9807179
sg17
S'85857.9497355'
p729
sba(igraph
Edge
p730
(dp731
g7
I1
sg8
I00
sg9
I5
sg10
(lp732
g523
ag658
asg24
I00
sg25
I00
sg26
I9807180
sg17
S'85857.9527303'
p733
sba(igraph
Edge
p734
(dp735
g7
I1
sg8
I00
sg9
I5
sg10
(lp736
g523
ag665
asg24
I00
sg25
I00
sg26
I9807181
sg17
S'85857.9561173'
p737
sba(igraph
Edge
p738
(dp739
g7
I1
sg8
I00
sg9
I5
sg10
(lp740
g530
ag665
asg24
I00
sg25
I00
sg26
I9807182
sg17
S'85857.9590792'
p741
sba(igraph
Edge
p742
(dp743
g7
I1
sg8
I00
sg9
I5
sg10
(lp744
g530
ag672
asg24
I00
sg25
I00
sg26
I9807183
sg17
S'85857.9620575'
p745
sba(igraph
Edge
p746
(dp747
g7
I1
sg8
I00
sg9
I5
sg10
(lp748
g533
ag672
asg24
I00
sg25
I00
sg26
I9807184
sg17
S'85857.9650294'
p749
sba(igraph
Edge
p750
(dp751
g7
I1
sg8
I00
sg9
I5
sg10
(lp752
g533
ag675
asg24
I00
sg25
I00
sg26
I9807185
sg17
S'85857.9681652'
p753
sba(igraph
Edge
p754
(dp755
g7
I1
sg8
I00
sg9
I5
sg10
(lp756
g540
ag675
asg24
I00
sg25
I00
sg26
I9807186
sg17
S'85857.9712768'
p757
sba(igraph
Edge
p758
(dp759
g7
I1
sg8
I00
sg9
I5
sg10
(lp760
g540
ag682
asg24
I00
sg25
I00
sg26
I9807187
sg17
S'85857.9743188'
p761
sba(igraph
Edge
p762
(dp763
g7
I1
sg8
I00
sg9
I5
sg10
(lp764
g551
ag682
asg24
I00
sg25
I00
sg26
I9807188
sg17
S'85857.9774075'
p765
sba(igraph
Edge
p766
(dp767
g7
I1
sg8
I00
sg9
I5
sg10
(lp768
g551
ag693
asg24
I00
sg25
I00
sg26
I9807189
sg17
S'85857.9805338'
p769
sba(igraph
Edge
p770
(dp771
g7
I1
sg8
I00
sg9
I5
sg10
(lp772
g554
ag693
asg24
I00
sg25
I00
sg26
I9807190
sg17
S'85857.9836773'
p773
sba(igraph
Edge
p774
(dp775
g7
I1
sg8
I00
sg9
I5
sg10
(lp776
g554
ag696
asg24
I00
sg25
I00
sg26
I9807191
sg17
S'85857.9868874'
p777
sba(igraph
Edge
p778
(dp779
g7
I1
sg8
I00
sg9
I5
sg10
(lp780
g561
ag696
asg24
I00
sg25
I00
sg26
I9807192
sg17
S'85857.9901574'
p781
sba(igraph
Edge
p782
(dp783
g7
I1
sg8
I00
sg9
I5
sg10
(lp784
g561
ag703
asg24
I00
sg25
I00
sg26
I9807193
sg17
S'85857.9934106'
p785
sba(igraph
Edge
p786
(dp787
g7
I1
sg8
I00
sg9
I5
sg10
(lp788
g568
ag703
asg24
I00
sg25
I00
sg26
I9807194
sg17
S'85857.9971203'
p789
sba(igraph
Edge
p790
(dp791
g7
I1
sg8
I00
sg9
I5
sg10
(lp792
g568
ag710
asg24
I00
sg25
I00
sg26
I9807195
sg17
S'85858.0005573'
p793
sba(igraph
Edge
p794
(dp795
g7
I1
sg8
I00
sg9
I5
sg10
(lp796
(igraph
Vertex
p797
(dp798
g14
F129.83272684037399
sg15
F-221.60228060146147
sg16
I9807497
sg8
I00
sg17
S'85857.6258781'
p799
sg19
g20
sba(igraph
Vertex
p800
(dp801
g14
F129.83272684037399
sg15
F-178.70412568296788
sg16
I9807498
sg8
I00
sg17
S'85857.6263768'
p802
sg19
g20
sbasg24
I00
sg25
I00
sg26
I9807196
sg17
S'85858.0038712'
p803
sba(igraph
Edge
p804
(dp805
g7
I1
sg8
I00
sg9
I5
sg10
(lp806
g800
a(igraph
Vertex
p807
(dp808
g14
F129.83272684037399
sg15
F-135.80597076447438
sg16
I9807499
sg8
I00
sg17
S'85857.6268841'
p809
sg19
g20
sbasg24
I00
sg25
I00
sg26
I9807197
sg17
S'85858.0072627'
p810
sba(igraph
Edge
p811
(dp812
g7
I1
sg8
I00
sg9
I5
sg10
(lp813
(igraph
Vertex
p814
(dp815
g14
F129.78520665440192
sg15
F-89.51280849353563
sg16
I9807500
sg8
I00
sg17
S'85857.6273982'
p816
sg19
g20
sba(igraph
Vertex
p817
(dp818
g14
F129.78520665440192
sg15
F-46.614653575042126
sg16
I9807501
sg8
I00
sg17
S'85857.627967'
p819
sg19
g20
sbasg24
I00
sg25
I00
sg26
I9807198
sg17
S'85858.0106757'
p820
sba(igraph
Edge
p821
(dp822
g7
I1
sg8
I00
sg9
I5
sg10
(lp823
g817
a(igraph
Vertex
p824
(dp825
g14
F129.78520665440192
sg15
F-3.7164986565485947
sg16
I9807502
sg8
I00
sg17
S'85857.6284983'
p826
sg19
g20
sbasg24
I00
sg25
I00
sg26
I9807199
sg17
S'85858.0140244'
p827
sba(igraph
Edge
p828
(dp829
g7
I1
sg8
I00
sg9
I5
sg10
(lp830
g807
ag814
asg24
I00
sg25
I00
sg26
I9807200
sg17
S'85858.0174712'
p831
sba(igraph
Edge
p832
(dp833
g7
I1
sg8
I00
sg9
I5
sg10
(lp834
(igraph
Vertex
p835
(dp836
g14
F129.65900616051158
sg15
F41.229638858909482
sg16
I9807503
sg8
I00
sg17
S'85857.6290369'
p837
sg19
I0
sba(igraph
Vertex
p838
(dp839
g14
F129.65900616051158
sg15
F84.127793777403042
sg16
I9807505
sg8
I00
sg17
S'85857.6295842'
p840
sg19
g20
sbasg24
I00
sg25
I00
sg26
I9807201
sg17
S'85858.0209063'
p841
sba(igraph
Edge
p842
(dp843
g7
I1
sg8
I00
sg9
I5
sg10
(lp844
g838
a(igraph
Vertex
p845
(dp846
g14
F129.65900616051158
sg15
F127.02594869589655
sg16
I9807506
sg8
I00
sg17
S'85857.6301401'
p847
sg19
g20
sbasg24
I00
sg25
I00
sg26
I9807202
sg17
S'85858.0243333'
p848
sba(igraph
Edge
p849
(dp850
g7
I1
sg8
I00
sg9
I5
sg10
(lp851
g845
a(igraph
Vertex
p852
(dp853
g14
F129.61148597453951
sg15
F173.31911096683535
sg16
I9807507
sg8
I00
sg17
S'85857.6307039'
p854
sg19
g20
sbasg24
I00
sg25
I00
sg26
I9807203
sg17
S'85858.0278605'
p855
sba(igraph
Edge
p856
(dp857
g7
I1
sg8
I00
sg9
I5
sg10
(lp858
g824
ag835
asg24
I00
sg25
I00
sg26
I9807204
sg17
S'85858.0313311'
p859
sba(igraph
Edge
p860
(dp861
g7
I1
sg8
I00
sg9
I5
sg10
(lp862
g655
ag797
asg24
I00
sg25
I00
sg26
I9807205
sg17
S'85858.0347885'
p863
sba(igraph
Edge
p864
(dp865
g7
I1
sg8
I00
sg9
I5
sg10
(lp866
g658
ag797
asg24
I00
sg25
I00
sg26
I9807206
sg17
S'85858.038772'
p867
sba(igraph
Edge
p868
(dp869
g7
I1
sg8
I00
sg9
I5
sg10
(lp870
g658
ag800
asg24
I00
sg25
I00
sg26
I9807207
sg17
S'85858.0423093'
p871
sba(igraph
Edge
p872
(dp873
g7
I1
sg8
I00
sg9
I5
sg10
(lp874
g665
ag800
asg24
I00
sg25
I00
sg26
I9807208
sg17
S'85858.0458089'
p875
sba(igraph
Edge
p876
(dp877
g7
I1
sg8
I00
sg9
I5
sg10
(lp878
g665
ag807
asg24
I00
sg25
I00
sg26
I9807209
sg17
S'85858.0495532'
p879
sba(igraph
Edge
p880
(dp881
g7
I1
sg8
I00
sg9
I5
sg10
(lp882
g672
ag807
asg24
I00
sg25
I00
sg26
I9807210
sg17
S'85858.0532045'
p883
sba(igraph
Edge
p884
(dp885
g7
I1
sg8
I00
sg9
I5
sg10
(lp886
g672
ag814
asg24
I00
sg25
I00
sg26
I9807211
sg17
S'85858.0568407'
p887
sba(igraph
Edge
p888
(dp889
g7
I1
sg8
I00
sg9
I5
sg10
(lp890
g675
ag814
asg24
I00
sg25
I00
sg26
I9807212
sg17
S'85858.0605753'
p891
sba(igraph
Edge
p892
(dp893
g7
I1
sg8
I00
sg9
I5
sg10
(lp894
g675
ag817
asg24
I00
sg25
I00
sg26
I9807213
sg17
S'85858.064292'
p895
sba(igraph
Edge
p896
(dp897
g7
I1
sg8
I00
sg9
I5
sg10
(lp898
g682
ag817
asg24
I00
sg25
I00
sg26
I9807214
sg17
S'85858.0679508'
p899
sba(igraph
Edge
p900
(dp901
g7
I1
sg8
I00
sg9
I5
sg10
(lp902
g682
ag824
asg24
I00
sg25
I00
sg26
I9807215
sg17
S'85858.0725187'
p903
sba(igraph
Edge
p904
(dp905
g7
I1
sg8
I00
sg9
I5
sg10
(lp906
g693
ag824
asg24
I00
sg25
I00
sg26
I9807216
sg17
S'85858.0763614'
p907
sba(igraph
Edge
p908
(dp909
g7
I1
sg8
I00
sg9
I5
sg10
(lp910
g693
ag835
asg24
I00
sg25
I00
sg26
I9807217
sg17
S'85858.0805862'
p911
sba(igraph
Edge
p912
(dp913
g7
I1
sg8
I00
sg9
I5
sg10
(lp914
g696
ag835
asg24
I00
sg25
I00
sg26
I9807218
sg17
S'85858.0843845'
p915
sba(igraph
Edge
p916
(dp917
g7
I1
sg8
I00
sg9
I5
sg10
(lp918
g696
ag838
asg24
I00
sg25
I00
sg26
I9807219
sg17
S'85858.0881699'
p919
sba(igraph
Edge
p920
(dp921
g7
I1
sg8
I00
sg9
I5
sg10
(lp922
g703
ag838
asg24
I00
sg25
I00
sg26
I9807220
sg17
S'85858.0920159'
p923
sba(igraph
Edge
p924
(dp925
g7
I1
sg8
I00
sg9
I5
sg10
(lp926
g703
ag845
asg24
I00
sg25
I00
sg26
I9807221
sg17
S'85858.0958111'
p927
sba(igraph
Edge
p928
(dp929
g7
I1
sg8
I00
sg9
I5
sg10
(lp930
g710
ag845
asg24
I00
sg25
I00
sg26
I9807222
sg17
S'85858.0997353'
p931
sba(igraph
Edge
p932
(dp933
g7
I1
sg8
I00
sg9
I5
sg10
(lp934
g710
ag852
asg24
I00
sg25
I00
sg26
I9807223
sg17
S'85858.1036629'
p935
sba(igraph
Edge
p936
(dp937
g7
I1
sg8
I00
sg9
I5
sg10
(lp938
(igraph
Vertex
p939
(dp940
g14
F163.18964991729706
sg15
F-219.60228060146147
sg16
I9807508
sg8
I00
sg17
S'85857.6312766'
p941
sg19
g20
sba(igraph
Vertex
p942
(dp943
g14
F163.18964991729706
sg15
F-176.70412568296791
sg16
I9807509
sg8
I00
sg17
S'85857.6318892'
p944
sg19
g20
sbasg24
I00
sg25
I00
sg26
I9807224
sg17
S'85858.107676'
p945
sba(igraph
Edge
p946
(dp947
g7
I1
sg8
I00
sg9
I5
sg10
(lp948
g942
a(igraph
Vertex
p949
(dp950
g14
F163.18964991729706
sg15
F-133.80597076447438
sg16
I9807510
sg8
I00
sg17
S'85857.6324818'
p951
sg19
g20
sbasg24
I00
sg25
I00
sg26
I9807225
sg17
S'85858.1118111'
p952
sba(igraph
Edge
p953
(dp954
g7
I1
sg8
I00
sg9
I5
sg10
(lp955
(igraph
Vertex
p956
(dp957
g14
F163.14212973132499
sg15
F-87.51280849353563
sg16
I9807511
sg8
I00
sg17
S'85857.6330805'
p958
sg19
g20
sba(igraph
Vertex
p959
(dp960
g14
F163.14212973132499
sg15
F-44.614653575042126
sg16
I9807512
sg8
I00
sg17
S'85857.6337194'
p961
sg19
g20
sbasg24
I00
sg25
I00
sg26
I9807226
sg17
S'85858.1157966'
p962
sba(igraph
Edge
p963
(dp964
g7
I1
sg8
I00
sg9
I5
sg10
(lp965
g959
a(igraph
Vertex
p966
(dp967
g14
F163.14212973132499
sg15
F-1.7164986565485663
sg16
I9807513
sg8
I00
sg17
S'85857.6343418'
p968
sg19
g20
sbasg24
I00
sg25
I00
sg26
I9807227
sg17
S'85858.1201569'
p969
sba(igraph
Edge
p970
(dp971
g7
I1
sg8
I00
sg9
I5
sg10
(lp972
g949
ag956
asg24
I00
sg25
I00
sg26
I9807228
sg17
S'85858.1241364'
p973
sba(igraph
Edge
p974
(dp975
g7
I1
sg8
I00
sg9
I5
sg10
(lp976
(igraph
Vertex
p977
(dp978
g14
F163.01592923743459
sg15
F43.229638858909482
sg16
I9807514
sg8
I00
sg17
S'85857.6349715'
p979
sg19
g20
sba(igraph
Vertex
p980
(dp981
g14
F163.01592923743459
sg15
F86.127793777403042
sg16
I9807515
sg8
I00
sg17
S'85857.6356475'
p982
sg19
I0
sbasg24
I00
sg25
I00
sg26
I9807229
sg17
S'85858.1281375'
p983
sba(igraph
Edge
p984
(dp985
g7
I1
sg8
I00
sg9
I5
sg10
(lp986
g980
a(igraph
Vertex
p987
(dp988
g14
F163.01592923743459
sg15
F129.02594869589655
sg16
I9807517
sg8
I00
sg17
S'85857.6362912'
p989
sg19
g20
sbasg24
I00
sg25
I00
sg26
I9807230
sg17
S'85858.1322956'
p990
sba(igraph
Edge
p991
(dp992
g7
I1
sg8
I00
sg9
I5
sg10
(lp993
g987
a(igraph
Vertex
p994
(dp995
g14
F162.96840905146257
sg15
F175.31911096683535
sg16
I9807518
sg8
I00
sg17
S'85857.6369404'
p996
sg19
g20
sbasg24
I00
sg25
I00
sg26
I9807231
sg17
S'85858.1363676'
p997
sba(igraph
Edge
p998
(dp999
g7
I1
sg8
I00
sg9
I5
sg10
(lp1000
g966
ag977
asg24
I00
sg25
I00
sg26
I9807232
sg17
S'85858.1404346'
p1001
sba(igraph
Edge
p1002
(dp1003
g7
I1
sg8
I00
sg9
I5
sg10
(lp1004
g797
ag939
asg24
I00
sg25
I00
sg26
I9807233
sg17
S'85858.1446106'
p1005
sba(igraph
Edge
p1006
(dp1007
g7
I1
sg8
I00
sg9
I5
sg10
(lp1008
g800
ag939
asg24
I00
sg25
I00
sg26
I9807234
sg17
S'85858.1487661'
p1009
sba(igraph
Edge
p1010
(dp1011
g7
I1
sg8
I00
sg9
I5
sg10
(lp1012
g800
ag942
asg24
I00
sg25
I00
sg26
I9807235
sg17
S'85858.1529222'
p1013
sba(igraph
Edge
p1014
(dp1015
g7
I1
sg8
I00
sg9
I5
sg10
(lp1016
g807
ag942
asg24
I00
sg25
I00
sg26
I9807236
sg17
S'85858.1574736'
p1017
sba(igraph
Edge
p1018
(dp1019
g7
I1
sg8
I00
sg9
I5
sg10
(lp1020
g807
ag949
asg24
I00
sg25
I00
sg26
I9807237
sg17
S'85858.1618027'
p1021
sba(igraph
Edge
p1022
(dp1023
g7
I1
sg8
I00
sg9
I5
sg10
(lp1024
g814
ag949
asg24
I00
sg25
I00
sg26
I9807238
sg17
S'85858.1665639'
p1025
sba(igraph
Edge
p1026
(dp1027
g7
I1
sg8
I00
sg9
I5
sg10
(lp1028
g814
ag956
asg24
I00
sg25
I00
sg26
I9807239
sg17
S'85858.1709013'
p1029
sba(igraph
Edge
p1030
(dp1031
g7
I1
sg8
I00
sg9
I5
sg10
(lp1032
g817
ag956
asg24
I00
sg25
I00
sg26
I9807240
sg17
S'85858.175217'
p1033
sba(igraph
Edge
p1034
(dp1035
g7
I1
sg8
I00
sg9
I5
sg10
(lp1036
g817
ag959
asg24
I00
sg25
I00
sg26
I9807241
sg17
S'85858.1796094'
p1037
sba(igraph
Edge
p1038
(dp1039
g7
I1
sg8
I00
sg9
I5
sg10
(lp1040
g824
ag959
asg24
I00
sg25
I00
sg26
I9807242
sg17
S'85858.1840245'
p1041
sba(igraph
Edge
p1042
(dp1043
g7
I1
sg8
I00
sg9
I5
sg10
(lp1044
g824
ag966
asg24
I00
sg25
I00
sg26
I9807243
sg17
S'85858.188439'
p1045
sba(igraph
Edge
p1046
(dp1047
g7
I1
sg8
I00
sg9
I5
sg10
(lp1048
g835
ag966
asg24
I00
sg25
I00
sg26
I9807244
sg17
S'85858.192841'
p1049
sba(igraph
Edge
p1050
(dp1051
g7
I1
sg8
I00
sg9
I5
sg10
(lp1052
g835
ag977
asg24
I00
sg25
I00
sg26
I9807245
sg17
S'85858.1972558'
p1053
sba(igraph
Edge
p1054
(dp1055
g7
I1
sg8
I00
sg9
I5
sg10
(lp1056
g838
ag977
asg24
I00
sg25
I00
sg26
I9807246
sg17
S'85858.2016385'
p1057
sba(igraph
Edge
p1058
(dp1059
g7
I1
sg8
I00
sg9
I5
sg10
(lp1060
g838
ag980
asg24
I00
sg25
I00
sg26
I9807247
sg17
S'85858.2073333'
p1061
sba(igraph
Edge
p1062
(dp1063
g7
I1
sg8
I00
sg9
I5
sg10
(lp1064
g845
ag980
asg24
I00
sg25
I00
sg26
I9807248
sg17
S'85858.2118107'
p1065
sba(igraph
Edge
p1066
(dp1067
g7
I1
sg8
I00
sg9
I5
sg10
(lp1068
g845
ag987
asg24
I00
sg25
I00
sg26
I9807249
sg17
S'85858.2162543'
p1069
sba(igraph
Edge
p1070
(dp1071
g7
I1
sg8
I00
sg9
I5
sg10
(lp1072
g852
ag987
asg24
I00
sg25
I00
sg26
I9807250
sg17
S'85858.2207336'
p1073
sba(igraph
Edge
p1074
(dp1075
g7
I1
sg8
I00
sg9
I5
sg10
(lp1076
g852
ag994
asg24
I00
sg25
I00
sg26
I9807251
sg17
S'85858.2252716'
p1077
sba(igraph
Edge
p1078
(dp1079
g7
I1
sg8
I00
sg9
I5
sg10
(lp1080
(igraph
Vertex
p1081
(dp1082
g14
F197.89888068652778
sg15
F-223.60228060146147
sg16
I9807519
sg8
I00
sg17
S'85857.6376174'
p1083
sg19
g20
sba(igraph
Vertex
p1084
(dp1085
g14
F197.89888068652778
sg15
F-180.70412568296791
sg16
I9807520
sg8
I00
sg17
S'85857.6383415'
p1086
sg19
g20
sbasg24
I00
sg25
I00
sg26
I9807252
sg17
S'85858.2297996'
p1087
sba(igraph
Edge
p1088
(dp1089
g7
I1
sg8
I00
sg9
I5
sg10
(lp1090
g1084
a(igraph
Vertex
p1091
(dp1092
g14
F197.89888068652778
sg15
F-137.80597076447441
sg16
I9807521
sg8
I00
sg17
S'85857.6390418'
p1093
sg19
g20
sbasg24
I00
sg25
I00
sg26
I9807253
sg17
S'85858.2344706'
p1094
sba(igraph
Edge
p1095
(dp1096
g7
I1
sg8
I00
sg9
I5
sg10
(lp1097
(igraph
Vertex
p1098
(dp1099
g14
F197.85136050055576
sg15
F-91.512808493535658
sg16
I9807522
sg8
I00
sg17
S'85857.639835'
p1100
sg19
g20
sba(igraph
Vertex
p1101
(dp1102
g14
F197.85136050055576
sg15
F-48.614653575042155
sg16
I9807523
sg8
I00
sg17
S'85857.6405297'
p1103
sg19
g20
sbasg24
I00
sg25
I00
sg26
I9807254
sg17
S'85858.2391025'
p1104
sba(igraph
Edge
p1105
(dp1106
g7
I1
sg8
I00
sg9
I5
sg10
(lp1107
g1101
a(igraph
Vertex
p1108
(dp1109
g14
F197.85136050055576
sg15
F-5.7164986565485947
sg16
I9807524
sg8
I00
sg17
S'85857.6412469'
p1110
sg19
g20
sbasg24
I00
sg25
I00
sg26
I9807255
sg17
S'85858.244181'
p1111
sba(igraph
Edge
p1112
(dp1113
g7
I1
sg8
I00
sg9
I5
sg10
(lp1114
g1091
ag1098
asg24
I00
sg25
I00
sg26
I9807256
sg17
S'85858.2489992'
p1115
sba(igraph
Edge
p1116
(dp1117
g7
I1
sg8
I00
sg9
I5
sg10
(lp1118
(igraph
Vertex
p1119
(dp1120
g14
F197.72516000666542
sg15
F39.229638858909482
sg16
I9807525
sg8
I00
sg17
S'85857.6419623'
p1121
sg19
g20
sba(igraph
Vertex
p1122
(dp1123
g14
F197.72516000666542
sg15
F82.127793777403042
sg16
I9807526
sg8
I00
sg17
S'85857.6426797'
p1124
sg19
g20
sbasg24
I00
sg25
I00
sg26
I9807257
sg17
S'85858.2536789'
p1125
sba(igraph
Edge
p1126
(dp1127
g7
I1
sg8
I00
sg9
I5
sg10
(lp1128
g1122
a(igraph
Vertex
p1129
(dp1130
g14
F197.72516000666542
sg15
F125.02594869589655
sg16
I9807527
sg8
I00
sg17
S'85857.6434807'
p1131
sg19
I0
sbasg24
I00
sg25
I00
sg26
I9807258
sg17
S'85858.258299'
p1132
sba(igraph
Edge
p1133
(dp1134
g7
I1
sg8
I00
sg9
I5
sg10
(lp1135
g1129
a(igraph
Vertex
p1136
(dp1137
g14
F197.6776398206934
sg15
F171.31911096683535
sg16
I9807529
sg8
I00
sg17
S'85857.6442232'
p1138
sg19
g20
sbasg24
I00
sg25
I00
sg26
I9807259
sg17
S'85858.2629298'
p1139
sba(igraph
Edge
p1140
(dp1141
g7
I1
sg8
I00
sg9
I5
sg10
(lp1142
g1108
ag1119
asg24
I00
sg25
I00
sg26
I9807260
sg17
S'85858.2681475'
p1143
sba(igraph
Edge
p1144
(dp1145
g7
I1
sg8
I00
sg9
I5
sg10
(lp1146
g939
ag1081
asg24
I00
sg25
I00
sg26
I9807261
sg17
S'85858.2728439'
p1147
sba(igraph
Edge
p1148
(dp1149
g7
I1
sg8
I00
sg9
I5
sg10
(lp1150
g942
ag1081
asg24
I00
sg25
I00
sg26
I9807262
sg17
S'85858.277628'
p1151
sba(igraph
Edge
p1152
(dp1153
g7
I1
sg8
I00
sg9
I5
sg10
(lp1154
g942
ag1084
asg24
I00
sg25
I00
sg26
I9807263
sg17
S'85858.2825029'
p1155
sba(igraph
Edge
p1156
(dp1157
g7
I1
sg8
I00
sg9
I5
sg10
(lp1158
g949
ag1084
asg24
I00
sg25
I00
sg26
I9807264
sg17
S'85858.2877318'
p1159
sba(igraph
Edge
p1160
(dp1161
g7
I1
sg8
I00
sg9
I5
sg10
(lp1162
g949
ag1091
asg24
I00
sg25
I00
sg26
I9807265
sg17
S'85858.2926461'
p1163
sba(igraph
Edge
p1164
(dp1165
g7
I1
sg8
I00
sg9
I5
sg10
(lp1166
g956
ag1091
asg24
I00
sg25
I00
sg26
I9807266
sg17
S'85858.2974984'
p1167
sba(igraph
Edge
p1168
(dp1169
g7
I1
sg8
I00
sg9
I5
sg10
(lp1170
g956
ag1098
asg24
I00
sg25
I00
sg26
I9807267
sg17
S'85858.3024368'
p1171
sba(igraph
Edge
p1172
(dp1173
g7
I1
sg8
I00
sg9
I5
sg10
(lp1174
g959
ag1098
asg24
I00
sg25
I00
sg26
I9807268
sg17
S'85858.3074293'
p1175
sba(igraph
Edge
p1176
(dp1177
g7
I1
sg8
I00
sg9
I5
sg10
(lp1178
g959
ag1101
asg24
I00
sg25
I00
sg26
I9807269
sg17
S'85858.3124179'
p1179
sba(igraph
Edge
p1180
(dp1181
g7
I1
sg8
I00
sg9
I5
sg10
(lp1182
g966
ag1101
asg24
I00
sg25
I00
sg26
I9807270
sg17
S'85858.3174549'
p1183
sba(igraph
Edge
p1184
(dp1185
g7
I1
sg8
I00
sg9
I5
sg10
(lp1186
g966
ag1108
asg24
I00
sg25
I00
sg26
I9807271
sg17
S'85858.3224214'
p1187
sba(igraph
Edge
p1188
(dp1189
g7
I1
sg8
I00
sg9
I5
sg10
(lp1190
g977
ag1108
asg24
I00
sg25
I00
sg26
I9807272
sg17
S'85858.3277361'
p1191
sba(igraph
Edge
p1192
(dp1193
g7
I1
sg8
I00
sg9
I5
sg10
(lp1194
g977
ag1119
asg24
I00
sg25
I00
sg26
I9807273
sg17
S'85858.3328834'
p1195
sba(igraph
Edge
p1196
(dp1197
g7
I1
sg8
I00
sg9
I5
sg10
(lp1198
g980
ag1119
asg24
I00
sg25
I00
sg26
I9807274
sg17
S'85858.3378712'
p1199
sba(igraph
Edge
p1200
(dp1201
g7
I1
sg8
I00
sg9
I5
sg10
(lp1202
g980
ag1122
asg24
I00
sg25
I00
sg26
I9807275
sg17
S'85858.3429305'
p1203
sba(igraph
Edge
p1204
(dp1205
g7
I1
sg8
I00
sg9
I5
sg10
(lp1206
g987
ag1122
asg24
I00
sg25
I00
sg26
I9807276
sg17
S'85858.3480551'
p1207
sba(igraph
Edge
p1208
(dp1209
g7
I1
sg8
I00
sg9
I5
sg10
(lp1210
g987
ag1129
asg24
I00
sg25
I00
sg26
I9807277
sg17
S'85858.353198'
p1211
sba(igraph
Edge
p1212
(dp1213
g7
I1
sg8
I00
sg9
I5
sg10
(lp1214
g994
ag1129
asg24
I00
sg25
I00
sg26
I9807278
sg17
S'85858.3583056'
p1215
sba(igraph
Edge
p1216
(dp1217
g7
I1
sg8
I00
sg9
I5
sg10
(lp1218
g994
ag1136
asg24
I00
sg25
I00
sg26
I9807279
sg17
S'85858.3636647'
p1219
sba(igraph
Edge
p1220
(dp1221
g7
I1
sg8
I00
sg9
I5
sg10
(lp1222
(igraph
Vertex
p1223
(dp1224
g14
F-51.937217798654132
sg15
F219.73605189994373
sg16
I9807530
sg8
I00
sg17
S'85857.6449764'
p1225
sg19
g20
sba(igraph
Vertex
p1226
(dp1227
g14
F-14.325131671023968
sg15
F219.73605189994373
sg16
I9807531
sg8
I00
sg17
S'85857.6457516'
p1228
sg19
g20
sbasg24
I00
sg25
I00
sg26
I9807280
sg17
S'85858.3688357'
p1229
sba(igraph
Edge
p1230
(dp1231
g7
I1
sg8
I00
sg9
I5
sg10
(lp1232
g1226
a(igraph
Vertex
p1233
(dp1234
g14
F23.286954456606338
sg15
F219.73605189994373
sg16
I9807532
sg8
I00
sg17
S'85857.6465238'
p1235
sg19
g20
sbasg24
I00
sg25
I00
sg26
I9807281
sg17
S'85858.3744283'
p1236
sba(igraph
Edge
p1237
(dp1238
g7
I1
sg8
I00
sg9
I5
sg10
(lp1239
g1223
a(igraph
Vertex
p1240
(dp1241
g14
F-85.628747749450568
sg15
F220.26275658797073
sg16
I9807533
sg8
I00
sg17
S'85857.6473281'
p1242
sg19
g20
sbasg24
I00
sg25
I00
sg26
I9807282
sg17
S'85858.3801735'
p1243
sba(igraph
Edge
p1244
(dp1245
g7
I1
sg8
I00
sg9
I5
sg10
(lp1246
g1233
a(igraph
Vertex
p1247
(dp1248
g14
F59.576915091577177
sg15
F219.73027051714439
sg16
I9807534
sg8
I00
sg17
S'85857.6481279'
p1249
sg19
g20
sbasg24
I00
sg25
I00
sg26
I9807283
sg17
S'85858.3854878'
p1250
sba(igraph
Edge
p1251
(dp1252
g7
I1
sg8
I00
sg9
I5
sg10
(lp1253
g1247
a(igraph
Vertex
p1254
(dp1255
g14
F95.638453553115596
sg15
F221.73027051714439
sg16
I9807535
sg8
I00
sg17
S'85857.6489196'
p1256
sg19
g20
sbasg24
I00
sg25
I00
sg26
I9807284
sg17
S'85858.390884'
p1257
sba(igraph
Edge
p1258
(dp1259
g7
I1
sg8
I00
sg9
I5
sg10
(lp1260
g1254
a(igraph
Vertex
p1261
(dp1262
g14
F132.87104139760049
sg15
F220.43637277684087
sg16
I9807536
sg8
I00
sg17
S'85857.6497197'
p1263
sg19
g20
sbasg24
I00
sg25
I00
sg26
I9807285
sg17
S'85858.3961747'
p1264
sba(igraph
Edge
p1265
(dp1266
g7
I1
sg8
I00
sg9
I5
sg10
(lp1267
g1261
a(igraph
Vertex
p1268
(dp1269
g14
F166.2279644745235
sg15
F222.43637277684087
sg16
I9807537
sg8
I00
sg17
S'85857.6505455'
p1270
sg19
I0
sbasg24
I00
sg25
I00
sg26
I9807286
sg17
S'85858.4014262'
p1271
sba(igraph
Edge
p1272
(dp1273
g7
I1
sg8
I00
sg9
I5
sg10
(lp1274
g1268
a(igraph
Vertex
p1275
(dp1276
g14
F200.93719524375433
sg15
F218.43637277684087
sg16
I9807539
sg8
I00
sg17
S'85857.6513853'
p1277
sg19
g20
sbasg24
I00
sg25
I00
sg26
I9807287
sg17
S'85858.4067316'
p1278
sba(igraph
Edge
p1279
(dp1280
g7
I1
sg8
I00
sg9
I5
sg10
(lp1281
g314
ag1240
asg24
I00
sg25
I00
sg26
I9807288
sg17
S'85858.4127932'
p1282
sba(igraph
Edge
p1283
(dp1284
g7
I1
sg8
I00
sg9
I5
sg10
(lp1285
g426
ag1240
asg24
I00
sg25
I00
sg26
I9807289
sg17
S'85858.4182316'
p1286
sba(igraph
Edge
p1287
(dp1288
g7
I1
sg8
I00
sg9
I5
sg10
(lp1289
g314
ag1223
asg24
I00
sg25
I00
sg26
I9807290
sg17
S'85858.4239625'
p1290
sba(igraph
Edge
p1291
(dp1292
g7
I1
sg8
I00
sg9
I5
sg10
(lp1293
g317
ag1223
asg24
I00
sg25
I00
sg26
I9807291
sg17
S'85858.4296066'
p1294
sba(igraph
Edge
p1295
(dp1296
g7
I1
sg8
I00
sg9
I5
sg10
(lp1297
g317
ag1226
asg24
I00
sg25
I00
sg26
I9807292
sg17
S'85858.4350651'
p1298
sba(igraph
Edge
p1299
(dp1300
g7
I1
sg8
I00
sg9
I5
sg10
(lp1301
g324
ag1226
asg24
I00
sg25
I00
sg26
I9807293
sg17
S'85858.4405336'
p1302
sba(igraph
Edge
p1303
(dp1304
g7
I1
sg8
I00
sg9
I5
sg10
(lp1305
g324
ag1233
asg24
I00
sg25
I00
sg26
I9807294
sg17
S'85858.4460905'
p1306
sba(igraph
Edge
p1307
(dp1308
g7
I1
sg8
I00
sg9
I5
sg10
(lp1309
g568
ag1233
asg24
I00
sg25
I00
sg26
I9807295
sg17
S'85858.4515697'
p1310
sba(igraph
Edge
p1311
(dp1312
g7
I1
sg8
I00
sg9
I5
sg10
(lp1313
g568
ag1247
asg24
I00
sg25
I00
sg26
I9807296
sg17
S'85858.4575389'
p1314
sba(igraph
Edge
p1315
(dp1316
g7
I1
sg8
I00
sg9
I5
sg10
(lp1317
g710
ag1247
asg24
I00
sg25
I00
sg26
I9807297
sg17
S'85858.4630301'
p1318
sba(igraph
Edge
p1319
(dp1320
g7
I1
sg8
I00
sg9
I5
sg10
(lp1321
g710
ag1254
asg24
I00
sg25
I00
sg26
I9807298
sg17
S'85858.468664'
p1322
sba(igraph
Edge
p1323
(dp1324
g7
I1
sg8
I00
sg9
I5
sg10
(lp1325
g852
ag1254
asg24
I00
sg25
I00
sg26
I9807299
sg17
S'85858.4741633'
p1326
sba(igraph
Edge
p1327
(dp1328
g7
I1
sg8
I00
sg9
I5
sg10
(lp1329
g852
ag1261
asg24
I00
sg25
I00
sg26
I9807300
sg17
S'85858.4796719'
p1330
sba(igraph
Edge
p1331
(dp1332
g7
I1
sg8
I00
sg9
I5
sg10
(lp1333
g994
ag1261
asg24
I00
sg25
I00
sg26
I9807301
sg17
S'85858.4852128'
p1334
sba(igraph
Edge
p1335
(dp1336
g7
I1
sg8
I00
sg9
I5
sg10
(lp1337
g994
ag1268
asg24
I00
sg25
I00
sg26
I9807302
sg17
S'85858.4909264'
p1338
sba(igraph
Edge
p1339
(dp1340
g7
I1
sg8
I00
sg9
I5
sg10
(lp1341
g1136
ag1268
asg24
I00
sg25
I00
sg26
I9807303
sg17
S'85858.4970109'
p1342
sba(igraph
Edge
p1343
(dp1344
g7
I1
sg8
I00
sg9
I5
sg10
(lp1345
g1136
ag1275
asg24
I00
sg25
I00
sg26
I9807304
sg17
S'85858.5032634'
p1346
sba(igraph
Edge
p1347
(dp1348
g7
I1
sg8
I00
sg9
I5
sg10
(lp1349
(igraph
Vertex
p1350
(dp1351
g14
F226.64168130590679
sg15
F-220.43637277684087
sg16
I9807540
sg8
I00
sg17
S'85857.6522231'
p1352
sg19
g20
sba(igraph
Vertex
p1353
(dp1354
g14
F226.64168130590679
sg15
F-177.53821785834731
sg16
I9807541
sg8
I00
sg17
S'85857.6530567'
p1355
sg19
g20
sbasg24
I00
sg25
I00
sg26
I9807305
sg17
S'85858.5090572'
p1356
sba(igraph
Edge
p1357
(dp1358
g7
I1
sg8
I00
sg9
I5
sg10
(lp1359
g1353
a(igraph
Vertex
p1360
(dp1361
g14
F226.64168130590679
sg15
F-134.64006293985381
sg16
I9807542
sg8
I00
sg17
S'85857.6539275'
p1362
sg19
g20
sbasg24
I00
sg25
I00
sg26
I9807306
sg17
S'85858.5150534'
p1363
sba(igraph
Edge
p1364
(dp1365
g7
I1
sg8
I00
sg9
I5
sg10
(lp1366
(igraph
Vertex
p1367
(dp1368
g14
F226.59416111993471
sg15
F-88.346900668915055
sg16
I9807543
sg8
I00
sg17
S'85857.6548246'
p1369
sg19
g20
sba(igraph
Vertex
p1370
(dp1371
g14
F226.59416111993471
sg15
F-45.448745750421551
sg16
I9807544
sg8
I00
sg17
S'85857.6557445'
p1372
sg19
g20
sbasg24
I00
sg25
I00
sg26
I9807307
sg17
S'85858.5208939'
p1373
sba(igraph
Edge
p1374
(dp1375
g7
I1
sg8
I00
sg9
I5
sg10
(lp1376
g1370
a(igraph
Vertex
p1377
(dp1378
g14
F226.59416111993471
sg15
F-2.5505908319279911
sg16
I9807545
sg8
I00
sg17
S'85857.6566457'
p1379
sg19
g20
sbasg24
I00
sg25
I00
sg26
I9807308
sg17
S'85858.5266194'
p1380
sba(igraph
Edge
p1381
(dp1382
g7
I1
sg8
I00
sg9
I5
sg10
(lp1383
g1360
ag1367
asg24
I00
sg25
I00
sg26
I9807309
sg17
S'85858.532402'
p1384
sba(igraph
Edge
p1385
(dp1386
g7
I1
sg8
I00
sg9
I5
sg10
(lp1387
(igraph
Vertex
p1388
(dp1389
g14
F226.46796062604432
sg15
F42.395546683530085
sg16
I9807546
sg8
I00
sg17
S'85857.657521'
p1390
sg19
g20
sba(igraph
Vertex
p1391
(dp1392
g14
F226.46796062604432
sg15
F85.293701602023646
sg16
I9807547
sg8
I00
sg17
S'85857.6584784'
p1393
sg19
g20
sbasg24
I00
sg25
I00
sg26
I9807310
sg17
S'85858.5388492'
p1394
sba(igraph
Edge
p1395
(dp1396
g7
I1
sg8
I00
sg9
I5
sg10
(lp1397
g1391
a(igraph
Vertex
p1398
(dp1399
g14
F226.46796062604432
sg15
F128.19185652051715
sg16
I9807548
sg8
I00
sg17
S'85857.6594176'
p1400
sg19
g20
sbasg24
I00
sg25
I00
sg26
I9807311
sg17
S'85858.5448058'
p1401
sba(igraph
Edge
p1402
(dp1403
g7
I1
sg8
I00
sg9
I5
sg10
(lp1404
g1398
a(igraph
Vertex
p1405
(dp1406
g14
F226.4204404400723
sg15
F174.48501879145596
sg16
I9807549
sg8
I00
sg17
S'85857.6603398'
p1407
sg19
I0
sbasg24
I00
sg25
I00
sg26
I9807312
sg17
S'85858.5507256'
p1408
sba(igraph
Edge
p1409
(dp1410
g7
I1
sg8
I00
sg9
I5
sg10
(lp1411
g1377
ag1388
asg24
I00
sg25
I00
sg26
I9807313
sg17
S'85858.556668'
p1412
sba(igraph
Edge
p1413
(dp1414
g7
I1
sg8
I00
sg9
I5
sg10
(lp1415
(igraph
Vertex
p1416
(dp1417
g14
F259.99860438282985
sg15
F-218.43637277684087
sg16
I9807551
sg8
I00
sg17
S'85857.6612427'
p1418
sg19
g20
sba(igraph
Vertex
p1419
(dp1420
g14
F259.76867969006435
sg15
F-176.4170460876897
sg16
I9807552
sg8
I00
sg17
S'85857.6621733'
p1421
sg19
g20
sbasg24
I00
sg25
I00
sg26
I9807314
sg17
S'85858.5626595'
p1422
sba(igraph
Edge
p1423
(dp1424
g7
I1
sg8
I00
sg9
I5
sg10
(lp1425
g1419
a(igraph
Vertex
p1426
(dp1427
g14
F259.99860438282985
sg15
F-132.64006293985381
sg16
I9807553
sg8
I00
sg17
S'85857.6635997'
p1428
sg19
g20
sbasg24
I00
sg25
I00
sg26
I9807315
sg17
S'85858.5687681'
p1429
sba(igraph
Edge
p1430
(dp1431
g7
F1.0
sS'h'
p1432
F-64.897823209668218
sS'k'
p1433
F216.44479181158096
sg8
I00
sg9
F4.9999999999999858
sS'start'
p1434
F-116.24380084432961
sg10
(lp1435
(igraph
Vertex
p1436
(dp1437
g14
F259.95108419685778
sg15
F-86.346900668915055
sg16
I9807554
sg8
I00
sg17
S'85857.6646149'
p1438
sg19
g20
sba(igraph
Vertex
p1439
(dp1440
g14
F259.95108419685778
sg15
F-43.448745750421551
sg16
I9807555
sg8
I00
sg17
S'85857.6655773'
p1441
sg19
g20
sbasS'extent'
p1442
F52.487601688659055
sg24
I00
sg25
I00
sg26
I9807316
sS'r'
p1443
F48.506292385276844
sg17
S'85858.575082'
p1444
sba(igraph
Edge
p1445
(dp1446
g7
I1
sg8
I00
sg9
I5
sg10
(lp1447
g1439
a(igraph
Vertex
p1448
(dp1449
g14
F259.95108419685778
sg15
F-0.55059083192799108
sg16
I9807556
sg8
I00
sg17
S'85857.6665344'
p1450
sg19
g20
sbasg24
I00
sg25
I00
sg26
I9807317
sg17
S'85858.581867'
p1451
sba(igraph
Edge
p1452
(dp1453
g7
I1
sg8
I00
sg9
I5
sg10
(lp1454
g1426
ag1436
asg24
I00
sg25
I00
sg26
I9807318
sg17
S'85858.5879398'
p1455
sba(igraph
Edge
p1456
(dp1457
g7
I1
sg8
I00
sg9
I5
sg10
(lp1458
(igraph
Vertex
p1459
(dp1460
g14
F259.82488370296744
sg15
F44.395546683530085
sg16
I9807557
sg8
I00
sg17
S'85857.6675008'
p1461
sg19
g20
sba(igraph
Vertex
p1462
(dp1463
g14
F259.82488370296744
sg15
F87.293701602023646
sg16
I9807558
sg8
I00
sg17
S'85857.6685364'
p1464
sg19
g20
sbasg24
I00
sg25
I00
sg26
I9807319
sg17
S'85858.5941166'
p1465
sba(igraph
Edge
p1466
(dp1467
g7
I1
sg8
I00
sg9
I5
sg10
(lp1468
g1462
a(igraph
Vertex
p1469
(dp1470
g14
F259.82488370296744
sg15
F130.19185652051715
sg16
I9807559
sg8
I00
sg17
S'85857.6695315'
p1471
sg19
g20
sbasg24
I00
sg25
I00
sg26
I9807320
sg17
S'85858.6000891'
p1472
sba(igraph
Edge
p1473
(dp1474
g7
I1
sg8
I00
sg9
I5
sg10
(lp1475
g1469
a(igraph
Vertex
p1476
(dp1477
g14
F259.77736351699536
sg15
F176.48501879145596
sg16
I9807560
sg8
I00
sg17
S'85857.670521'
p1478
sg19
g20
sbasg24
I00
sg25
I00
sg26
I9807321
sg17
S'85858.6060404'
p1479
sba(igraph
Edge
p1480
(dp1481
g7
I1
sg8
I00
sg9
I5
sg10
(lp1482
g1448
ag1459
asg24
I00
sg25
I00
sg26
I9807322
sg17
S'85858.6121585'
p1483
sba(igraph
Edge
p1484
(dp1485
g7
I1
sg8
I00
sg9
I5
sg10
(lp1486
g1350
ag1416
asg24
I00
sg25
I00
sg26
I9807323
sg17
S'85858.6182758'
p1487
sba(igraph
Edge
p1488
(dp1489
g7
I1
sg8
I00
sg9
I5
sg10
(lp1490
g1353
ag1416
asg24
I00
sg25
I00
sg26
I9807324
sg17
S'85858.6249551'
p1491
sba(igraph
Edge
p1492
(dp1493
g7
I1
sg8
I00
sg9
I5
sg10
(lp1494
g1353
ag1419
asg24
I00
sg25
I00
sg26
I9807325
sg17
S'85858.6312274'
p1495
sba(igraph
Edge
p1496
(dp1497
g7
I1
sg8
I00
sg9
I5
sg10
(lp1498
g1360
ag1419
asg24
I00
sg25
I00
sg26
I9807326
sg17
S'85858.6374324'
p1499
sba(igraph
Edge
p1500
(dp1501
g7
I1
sg8
I00
sg9
I5
sg10
(lp1502
g1360
ag1426
asg24
I00
sg25
I00
sg26
I9807327
sg17
S'85858.6436561'
p1503
sba(igraph
Edge
p1504
(dp1505
g7
I1
sg8
I00
sg9
I5
sg10
(lp1506
g1367
ag1426
asg24
I00
sg25
I00
sg26
I9807328
sg17
S'85858.6497974'
p1507
sba(igraph
Edge
p1508
(dp1509
g7
I1
sg8
I00
sg9
I5
sg10
(lp1510
g1367
ag1436
asg24
I00
sg25
I00
sg26
I9807329
sg17
S'85858.6560169'
p1511
sba(igraph
Edge
p1512
(dp1513
g7
I1
sg8
I00
sg9
I5
sg10
(lp1514
g1370
ag1436
asg24
I00
sg25
I00
sg26
I9807330
sg17
S'85858.6622856'
p1515
sba(igraph
Edge
p1516
(dp1517
g7
I1
sg8
I00
sg9
I5
sg10
(lp1518
g1370
ag1439
asg24
I00
sg25
I00
sg26
I9807331
sg17
S'85858.6690135'
p1519
sba(igraph
Edge
p1520
(dp1521
g7
I1
sg8
I00
sg9
I5
sg10
(lp1522
g1377
ag1439
asg24
I00
sg25
I00
sg26
I9807332
sg17
S'85858.6755705'
p1523
sba(igraph
Edge
p1524
(dp1525
g7
I1
sg8
I00
sg9
I5
sg10
(lp1526
g1377
ag1448
asg24
I00
sg25
I00
sg26
I9807333
sg17
S'85858.6819548'
p1527
sba(igraph
Edge
p1528
(dp1529
g7
I1
sg8
I00
sg9
I5
sg10
(lp1530
g1388
ag1448
asg24
I00
sg25
I00
sg26
I9807334
sg17
S'85858.6883774'
p1531
sba(igraph
Edge
p1532
(dp1533
g7
I1
sg8
I00
sg9
I5
sg10
(lp1534
g1388
ag1459
asg24
I00
sg25
I00
sg26
I9807335
sg17
S'85858.6956035'
p1535
sba(igraph
Edge
p1536
(dp1537
g7
I1
sg8
I00
sg9
I5
sg10
(lp1538
g1391
ag1459
asg24
I00
sg25
I00
sg26
I9807336
sg17
S'85858.7096494'
p1539
sba(igraph
Edge
p1540
(dp1541
g7
I1
sg8
I00
sg9
I5
sg10
(lp1542
g1391
ag1462
asg24
I00
sg25
I00
sg26
I9807337
sg17
S'85858.7214341'
p1543
sba(igraph
Edge
p1544
(dp1545
g7
I1
sg8
I00
sg9
I5
sg10
(lp1546
g1398
ag1462
asg24
I00
sg25
I00
sg26
I9807338
sg17
S'85858.7291427'
p1547
sba(igraph
Edge
p1548
(dp1549
g7
I1
sg8
I00
sg9
I5
sg10
(lp1550
g1398
ag1469
asg24
I00
sg25
I00
sg26
I9807339
sg17
S'85858.7398359'
p1551
sba(igraph
Edge
p1552
(dp1553
g7
I1
sg8
I00
sg9
I5
sg10
(lp1554
g1405
ag1469
asg24
I00
sg25
I00
sg26
I9807340
sg17
S'85858.7517819'
p1555
sba(igraph
Edge
p1556
(dp1557
g7
I1
sg8
I00
sg9
I5
sg10
(lp1558
g1405
ag1476
asg24
I00
sg25
I00
sg26
I9807341
sg17
S'85858.7611138'
p1559
sba(igraph
Edge
p1560
(dp1561
g7
I1
sg8
I00
sg9
I5
sg10
(lp1562
(igraph
Vertex
p1563
(dp1564
g14
F229.67999586313329
sg15
F221.60228060146147
sg16
I9807561
sg8
I00
sg17
S'85857.6715337'
p1565
sg19
g20
sba(igraph
Vertex
p1566
(dp1567
g14
F263.03691894005635
sg15
F223.60228060146147
sg16
I9807562
sg8
I00
sg17
S'85857.6725408'
p1568
sg19
g20
sbasg24
I00
sg25
I00
sg26
I9807342
sg17
S'85858.7683736'
p1569
sba(igraph
Edge
p1570
(dp1571
g7
I1
sg8
I00
sg9
I5
sg10
(lp1572
g1405
ag1563
asg24
I00
sg25
I00
sg26
I9807343
sg17
S'85858.776873'
p1573
sba(igraph
Edge
p1574
(dp1575
g7
I1
sg8
I00
sg9
I5
sg10
(lp1576
g1476
ag1563
asg24
I00
sg25
I00
sg26
I9807344
sg17
S'85858.7849702'
p1577
sba(igraph
Edge
p1578
(dp1579
g7
I1
sg8
I00
sg9
I5
sg10
(lp1580
g1476
ag1566
asg24
I00
sg25
I00
sg26
I9807345
sg17
S'85858.7936162'
p1581
sba(igraph
Edge
p1582
(dp1583
g7
I1
sg8
I00
sg9
I5
sg10
(lp1584
g1081
ag1350
asg24
I00
sg25
I00
sg26
I9807346
sg17
S'85858.8011541'
p1585
sba(igraph
Edge
p1586
(dp1587
g7
I1
sg8
I00
sg9
I5
sg10
(lp1588
g1084
ag1350
asg24
I00
sg25
I00
sg26
I9807347
sg17
S'85858.8089319'
p1589
sba(igraph
Edge
p1590
(dp1591
g7
I1
sg8
I00
sg9
I5
sg10
(lp1592
g1084
ag1353
asg24
I00
sg25
I00
sg26
I9807348
sg17
S'85858.8159409'
p1593
sba(igraph
Edge
p1594
(dp1595
g7
I1
sg8
I00
sg9
I5
sg10
(lp1596
g1091
ag1353
asg24
I00
sg25
I00
sg26
I9807349
sg17
S'85858.8227266'
p1597
sba(igraph
Edge
p1598
(dp1599
g7
I1
sg8
I00
sg9
I5
sg10
(lp1600
g1091
ag1360
asg24
I00
sg25
I00
sg26
I9807350
sg17
S'85858.8299949'
p1601
sba(igraph
Edge
p1602
(dp1603
g7
I1
sg8
I00
sg9
I5
sg10
(lp1604
g1098
ag1360
asg24
I00
sg25
I00
sg26
I9807351
sg17
S'85858.8367636'
p1605
sba(igraph
Edge
p1606
(dp1607
g7
I1
sg8
I00
sg9
I5
sg10
(lp1608
g1098
ag1367
asg24
I00
sg25
I00
sg26
I9807352
sg17
S'85858.8435363'
p1609
sba(igraph
Edge
p1610
(dp1611
g7
I1
sg8
I00
sg9
I5
sg10
(lp1612
g1101
ag1367
asg24
I00
sg25
I00
sg26
I9807353
sg17
S'85858.8503701'
p1613
sba(igraph
Edge
p1614
(dp1615
g7
I1
sg8
I00
sg9
I5
sg10
(lp1616
g1101
ag1370
asg24
I00
sg25
I00
sg26
I9807354
sg17
S'85858.8589513'
p1617
sba(igraph
Edge
p1618
(dp1619
g7
I1
sg8
I00
sg9
I5
sg10
(lp1620
g1108
ag1370
asg24
I00
sg25
I00
sg26
I9807355
sg17
S'85858.8661559'
p1621
sba(igraph
Edge
p1622
(dp1623
g7
I1
sg8
I00
sg9
I5
sg10
(lp1624
g1108
ag1377
asg24
I00
sg25
I00
sg26
I9807356
sg17
S'85858.8734884'
p1625
sba(igraph
Edge
p1626
(dp1627
g7
I1
sg8
I00
sg9
I5
sg10
(lp1628
g1119
ag1377
asg24
I00
sg25
I00
sg26
I9807357
sg17
S'85858.8803359'
p1629
sba(igraph
Edge
p1630
(dp1631
g7
I1
sg8
I00
sg9
I5
sg10
(lp1632
g1119
ag1388
asg24
I00
sg25
I00
sg26
I9807358
sg17
S'85858.8871041'
p1633
sba(igraph
Edge
p1634
(dp1635
g7
I1
sg8
I00
sg9
I5
sg10
(lp1636
g1122
ag1388
asg24
I00
sg25
I00
sg26
I9807359
sg17
S'85858.8953227'
p1637
sba(igraph
Edge
p1638
(dp1639
g7
I1
sg8
I00
sg9
I5
sg10
(lp1640
g1122
ag1391
asg24
I00
sg25
I00
sg26
I9807360
sg17
S'85858.9032634'
p1641
sba(igraph
Edge
p1642
(dp1643
g7
I1
sg8
I00
sg9
I5
sg10
(lp1644
g1129
ag1391
asg24
I00
sg25
I00
sg26
I9807361
sg17
S'85858.9119098'
p1645
sba(igraph
Edge
p1646
(dp1647
g7
I1
sg8
I00
sg9
I5
sg10
(lp1648
g1129
ag1398
asg24
I00
sg25
I00
sg26
I9807362
sg17
S'85858.9189534'
p1649
sba(igraph
Edge
p1650
(dp1651
g7
I1
sg8
I00
sg9
I5
sg10
(lp1652
g1136
ag1398
asg24
I00
sg25
I00
sg26
I9807363
sg17
S'85858.9263647'
p1653
sba(igraph
Edge
p1654
(dp1655
g7
I1
sg8
I00
sg9
I5
sg10
(lp1656
g1136
ag1405
asg24
I00
sg25
I00
sg26
I9807364
sg17
S'85858.9335164'
p1657
sba(igraph
Edge
p1658
(dp1659
g7
I1
sg8
I00
sg9
I5
sg10
(lp1660
g1275
ag1405
asg24
I00
sg25
I00
sg26
I9807365
sg17
S'85858.9405902'
p1661
sba(igraph
Edge
p1662
(dp1663
g7
I1
sg8
I00
sS'altline'
p1664
I9807367
sg9
I5
sg10
(lp1665
g1081
ag1275
asg24
I01
sg25
I00
sg26
I9807366
sg17
S'85858.9475445'
p1666
sba(igraph
Edge
p1667
(dp1668
g7
I1
sg8
I00
sg1664
I9807369
sg9
I5
sg10
(lp1669
g1081
ag1563
asg24
I01
sg25
I00
sg26
I9807368
sg17
S'85858.9547537'
p1670
sba(igraph
Edge
p1671
(dp1672
g7
I1
sg8
I00
sg9
I5
sg10
(lp1673
g1275
ag1563
asg24
I00
sg25
I00
sg26
I9807370
sg17
S'85858.9623075'
p1674
sba(igraph
Edge
p1675
(dp1676
g7
I1
sg8
I00
sg1664
I9807372
sg9
I5
sg10
(lp1677
g939
ag1268
asg24
I01
sg25
I00
sg26
I9807371
sg17
S'85858.969464'
p1678
sba(igraph
Edge
p1679
(dp1680
g7
I1
sg8
I00
sg1664
I9807374
sg9
I5
sg10
(lp1681
g939
ag1275
asg24
I01
sg25
I00
sg26
I9807373
sg17
S'85858.9766736'
p1682
sba(igraph
Edge
p1683
(dp1684
g7
I1
sg8
I00
sg1664
I9807376
sg9
I5
sg10
(lp1685
g797
ag1261
asg24
I01
sg25
I00
sg26
I9807375
sg17
S'85858.9838843'
p1686
sba(igraph
Edge
p1687
(dp1688
g7
I1
sg8
I00
sg1664
I9807378
sg9
I5
sg10
(lp1689
g797
ag1268
asg24
I01
sg25
I00
sg26
I9807377
sg17
S'85858.9911371'
p1690
sba(igraph
Edge
p1691
(dp1692
g7
I1
sg8
I00
sg1664
I9807380
sg9
I5
sg10
(lp1693
g655
ag1254
asg24
I01
sg25
I00
sg26
I9807379
sg17
S'85858.9987644'
p1694
sba(igraph
Edge
p1695
(dp1696
g7
I1
sg8
I00
sg1664
I9807382
sg9
I5
sg10
(lp1697
g655
ag1261
asg24
I01
sg25
I00
sg26
I9807381
sg17
S'85859.006065'
p1698
sba(igraph
Edge
p1699
(dp1700
g7
I1
sg8
I00
sg1664
I9807384
sg9
I5
sg10
(lp1701
g513
ag1247
asg24
I01
sg25
I00
sg26
I9807383
sg17
S'85859.013262'
p1702
sba(igraph
Edge
p1703
(dp1704
g7
I1
sg8
I00
sg1664
I9807386
sg9
I5
sg10
(lp1705
g513
ag1254
asg24
I01
sg25
I00
sg26
I9807385
sg17
S'85859.0205738'
p1706
sba(igraph
Edge
p1707
(dp1708
g7
I1
sg8
I00
sg1664
I9807388
sg9
I5
sg10
(lp1709
g55
ag1233
asg24
I01
sg25
I00
sg26
I9807387
sg17
S'85859.0278767'
p1710
sba(igraph
Edge
p1711
(dp1712
g7
I1
sg8
I00
sg1664
I9807390
sg9
I5
sg10
(lp1713
g55
ag1247
asg24
I01
sg25
I00
sg26
I9807389
sg17
S'85859.0354129'
p1714
sba(igraph
Edge
p1715
(dp1716
g7
I1
sg8
I00
sg1664
I9807392
sg9
I5
sg10
(lp1717
g38
ag1226
asg24
I01
sg25
I00
sg26
I9807391
sg17
S'85859.0429219'
p1718
sba(igraph
Edge
p1719
(dp1720
g7
I1
sg8
I00
sg1664
I9807394
sg9
I5
sg10
(lp1721
g38
ag1233
asg24
I01
sg25
I00
sg26
I9807393
sg17
S'85859.0502379'
p1722
sba(igraph
Edge
p1723
(dp1724
g7
I1
sg8
I00
sg1664
I9807396
sg9
I5
sg10
(lp1725
g12
ag1223
asg24
I01
sg25
I00
sg26
I9807395
sg17
S'85859.057856'
p1726
sba(igraph
Edge
p1727
(dp1728
g7
I1
sg8
I00
sg1664
I9807398
sg9
I5
sg10
(lp1729
g12
ag1226
asg24
I01
sg25
I00
sg26
I9807397
sg17
S'85859.0653237'
p1730
sba(igraph
Edge
p1731
(dp1732
g7
I1
sg8
I00
sg1664
I9807400
sg9
I5
sg10
(lp1733
g371
ag1223
asg24
I01
sg25
I00
sg26
I9807399
sg17
S'85859.0726771'
p1734
sba(igraph
Edge
p1735
(dp1736
g7
I1
sg8
I00
sg1664
I9807402
sg9
I5
sg10
(lp1737
g371
ag1240
asg24
I01
sg25
I00
sg26
I9807401
sg17
S'85859.080439'
p1738
sba(igraph
Edge
p1739
(dp1740
g7
I1
sg8
I00
sg1664
I9807404
sg9
I5
sg10
(lp1741
g1416
ag1566
asg24
I01
sg25
I00
sg26
I9807403
sg17
S'85859.0880059'
p1742
sba(igraph
Edge
p1743
(dp1744
g7
I1
sg8
I00
sg1664
I9807406
sg9
I5
sg10
(lp1745
g1350
ag1563
asg24
I01
sg25
I00
sg26
I9807405
sg17
S'85859.0956429'
p1746
sba(igraph
Edge
p1747
(dp1748
g7
I1
sg8
I00
sg1664
I9807408
sg9
I5
sg10
(lp1749
g1350
ag1566
asg24
I01
sg25
I00
sg26
I9807407
sg17
S'85859.1030801'
p1750
sba(igraph
Edge
p1751
(dp1752
g7
I1
sg8
I00
sg9
I5
sg10
(lp1753
g371
ag1419
asg24
I00
sg25
I00
sg26
I9807409
sg17
S'86431.6710716'
p1754
sba(igraph
Edge
p1755
(dp1756
g7
I1
sg8
I00
sg9
I5
sg10
(lp1757
g374
ag1419
asg24
I00
sg25
I00
sg26
I9807410
sg17
S'86431.6842244'
p1758
sba(igraph
Edge
p1759
(dp1760
g7
I1
sg8
I00
sg9
I5
sg10
(lp1761
g374
ag1426
asg24
I00
sg25
I00
sg26
I9807411
sg17
S'86438.6247872'
p1762
sba(igraph
Edge
p1763
(dp1764
g7
I1
sg8
I00
sg9
I5
sg10
(lp1765
g381
ag1426
asg24
I00
sg25
I00
sg26
I9807412
sg17
S'86438.6382571'
p1766
sba(igraph
Edge
p1767
(dp1768
g7
I1
sg8
I00
sg9
I5
sg10
(lp1769
g381
ag1436
asg24
I00
sg25
I00
sg26
I9807413
sg17
S'86444.6825457'
p1770
sba(igraph
Edge
p1771
(dp1772
g7
I1
sg8
I00
sg9
I5
sg10
(lp1773
g388
ag1436
asg24
I00
sg25
I00
sg26
I9807414
sg17
S'86444.6895237'
p1774
sba(igraph
Edge
p1775
(dp1776
g7
I1
sg8
I00
sg9
I5
sg10
(lp1777
g388
ag1439
asg24
I00
sg25
I00
sg26
I9807415
sg17
S'86451.067484'
p1778
sba(igraph
Edge
p1779
(dp1780
g7
I1
sg8
I00
sg9
I5
sg10
(lp1781
g391
ag1439
asg24
I00
sg25
I00
sg26
I9807416
sg17
S'86451.0812978'
p1782
sba(igraph
Edge
p1783
(dp1784
g7
F1.0
sg1432
F2369.9435294667283
sg1433
F-231.96639215925816
sg8
I00
sg9
F6.3815494742707415
sg1434
F-176.59857878296492
sg10
(lp1785
g391
ag1448
asg1442
F8.3220254144523267
sg24
I00
sg25
I00
sg26
I9807417
sg1443
F2420.9967323222622
sg17
S'86459.8697485'
p1786
sba(igraph
Edge
p1787
(dp1788
g7
F-1.0
sg1432
F-239.47714528789379
sg1433
F88.087572259495744
sg8
I00
sg9
F57.050096927608735
sg1434
F36.826790472302555
sg10
(lp1789
g398
ag1448
asg1442
F-72.554830400341274
sg24
I00
sg25
I00
sg26
I9807418
sg1443
F294.31779619935213
sg17
S'86459.8838252'
p1790
sba(igraph
Edge
p1791
(dp1792
g7
I1
sg8
I00
sg9
I5
sg10
(lp1793
g398
ag1459
asg24
I00
sg25
I00
sg26
I9807419
sg17
S'86467.1375387'
p1794
sba(igraph
Edge
p1795
(dp1796
g7
I1
sg8
I00
sg9
I5
sg10
(lp1797
g409
ag1459
asg24
I00
sg25
I00
sg26
I9807420
sg17
S'86467.1518014'
p1798
sba(igraph
Edge
p1799
(dp1800
g7
I1
sg8
I00
sg9
I5
sg10
(lp1801
g409
ag1462
asg24
I00
sg25
I00
sg26
I9807421
sg17
S'86473.4636209'
p1802
sba(igraph
Edge
p1803
(dp1804
g7
I1
sg8
I00
sg9
I5
sg10
(lp1805
g412
ag1462
asg24
I00
sg25
I00
sg26
I9807422
sg17
S'86473.4698963'
p1806
sba(igraph
Edge
p1807
(dp1808
g7
I1
sg8
I00
sg9
I5
sg10
(lp1809
g412
ag1469
asg24
I00
sg25
I00
sg26
I9807423
sg17
S'86480.6471797'
p1810
sba(igraph
Edge
p1811
(dp1812
g7
I1
sg8
I00
sg9
I5
sg10
(lp1813
g419
ag1469
asg24
I00
sg25
I00
sg26
I9807424
sg17
S'86480.6608086'
p1814
sba(igraph
Edge
p1815
(dp1816
g7
I1
sg8
I00
sg9
I5
sg10
(lp1817
g419
ag1476
asg24
I00
sg25
I00
sg26
I9807425
sg17
S'86488.4904263'
p1818
sba(igraph
Edge
p1819
(dp1820
g7
I1
sg8
I00
sg9
I5
sg10
(lp1821
g426
ag1476
asg24
I00
sg25
I00
sg26
I9807426
sg17
S'86488.5041202'
p1822
sba(igraph
Edge
p1823
(dp1824
g7
I1
sg8
I00
sg9
I5
sg10
(lp1825
g426
ag1566
asg24
I00
sg25
I00
sg26
I9807427
sg17
S'86496.3418658'
p1826
sba(igraph
Edge
p1827
(dp1828
g7
I1
sg8
I00
sg9
I5
sg10
(lp1829
g1240
ag1566
asg24
I00
sg25
I00
sg26
I9807428
sg17
S'86496.3584123'
p1830
sba(igraph
Edge
p1831
(dp1832
g7
I1
sg8
I00
sg9
I5
sg10
(lp1833
g371
ag1416
asg24
I00
sg25
I00
sg26
I9807429
sg17
S'86506.2338987'
p1834
sba(igraph
Edge
p1835
(dp1836
g7
I1
sg8
I00
sg9
I5
sg10
(lp1837
g1240
ag1416
asg24
I00
sg25
I00
sg26
I9807430
sg17
S'86506.2508327'
p1838
sbasS'vertices'
p1839
(lp1840
g12
ag21
ag31
ag38
ag41
ag48
ag55
ag58
ag65
ag112
ag115
ag122
ag129
ag132
ag139
ag146
ag149
ag156
ag223
ag226
ag233
ag240
ag243
ag250
ag257
ag260
ag267
ag314
ag317
ag324
ag371
ag374
ag381
ag388
ag391
ag398
ag409
ag412
ag419
ag426
ag513
ag516
ag523
ag530
ag533
ag540
ag551
ag554
ag561
ag568
ag655
ag658
ag665
ag672
ag675
ag682
ag693
ag696
ag703
ag710
ag797
ag800
ag807
ag814
ag817
ag824
ag835
ag838
ag845
ag852
ag939
ag942
ag949
ag956
ag959
ag966
ag977
ag980
ag987
ag994
ag1081
ag1084
ag1091
ag1098
ag1101
ag1108
ag1119
ag1122
ag1129
ag1136
ag1223
ag1226
ag1233
ag1240
ag1247
ag1254
ag1261
ag1268
ag1275
ag1350
ag1353
ag1360
ag1367
ag1370
ag1377
ag1388
ag1391
ag1398
ag1405
ag1416
ag1419
ag1426
ag1436
ag1439
ag1448
ag1459
ag1462
ag1469
ag1476
ag1563
ag1566
asS'tags'
p1841
(lp1842
sb.