(igraph
Graph
p0
(dp1
S'labelingConstraints'
p2
I-1
sS'edges'
p3
(lp4
(igraph
Edge
p5
(dp6
S'direction'
p7
I1
sS'selected'
p8
I00
sS'height'
p9
I5
sS'vs'
p10
(lp11
(igraph
Vertex
p12
(dp13
S'xnorm'
p14
F0.11135371179039309
sg8
I01
sS'label'
p15
I0
sS'y'
p16
F-188.79310344827587
sS'x'
p17
F50.48908296943226
sS'circle'
p18
I4228924
sS'id'
p19
S'14071.1852987'
p20
sS'ynorm'
p21
F0.11494252873563218
sba(igraph
Vertex
p22
(dp23
g14
F0.17685589519650657
sg8
I00
sg15
S'NULL'
p24
sg16
F-188.79310344827587
sg17
F2.5414847161571856
sg18
I4228926
sg19
S'14071.1853216'
p25
sg21
F0.11494252873563218
sbasS'wrap'
p26
I00
sS'curved'
p27
I00
sS'line'
p28
I4228725
sg19
S'14071.2102197'
p29
sba(igraph
Edge
p30
(dp31
g7
I1
sg8
I00
sg9
I5
sg10
(lp32
g22
a(igraph
Vertex
p33
(dp34
g14
F0.24235807860262021
sg8
I00
sg15
g24
sg16
F-188.79310344827587
sg17
F-45.406113537117989
sg18
I4228927
sg19
S'14071.1853417'
p35
sg21
F0.11494252873563218
sbasg26
I00
sg27
I00
sg28
I4228726
sg19
S'14071.2102815'
p36
sba(igraph
Edge
p37
(dp38
g7
I1
sg8
I00
sg9
I5
sg10
(lp39
g33
a(igraph
Vertex
p40
(dp41
g14
F0.30786026200873368
sg8
I00
sg15
g24
sg16
F-188.79310344827587
sg17
F-93.353711790393049
sg18
I4228928
sg19
S'14071.1853677'
p42
sg21
F0.11494252873563218
sbasg26
I00
sg27
I00
sg28
I4228727
sg19
S'14071.2103829'
p43
sba(igraph
Edge
p44
(dp45
g7
I1
sg8
I00
sg9
I5
sg10
(lp46
g40
a(igraph
Vertex
p47
(dp48
g14
F0.3733624454148472
sg8
I00
sg15
g24
sg16
F-188.79310344827587
sg17
F-141.30131004366814
sg18
I4228929
sg19
S'14071.1854021'
p49
sg21
F0.11494252873563218
sbasg26
I00
sg27
I00
sg28
I4228728
sg19
S'14071.2105441'
p50
sba(igraph
Edge
p51
(dp52
g7
I1
sg8
I00
sg9
I5
sg10
(lp53
g47
a(igraph
Vertex
p54
(dp55
g14
F0.43886462882096083
sg8
I00
sg15
g24
sg16
F-188.79310344827587
sg17
F-189.24890829694334
sg18
I4228930
sg19
S'14071.1854426'
p56
sg21
F0.11494252873563218
sbasg26
I00
sg27
I00
sg28
I4228729
sg19
S'14071.2106849'
p57
sba(igraph
Edge
p58
(dp59
g7
I1
sg8
I00
sg9
I5
sg10
(lp60
g54
a(igraph
Vertex
p61
(dp62
g14
F0.50436681222707413
sg8
I00
sg15
g24
sg16
F-188.79310344827587
sg17
F-237.19650655021826
sg18
I4228931
sg19
S'14071.1854926'
p63
sg21
F0.11494252873563218
sbasg26
I00
sg27
I00
sg28
I4228730
sg19
S'14071.2108729'
p64
sba(igraph
Edge
p65
(dp66
g7
I1
sg8
I00
sg9
I5
sg10
(lp67
g61
a(igraph
Vertex
p68
(dp69
g14
F0.56986899563318782
sg8
I00
sg15
g24
sg16
F-188.79310344827587
sg17
F-285.14410480349346
sg18
I4228932
sg19
S'14071.1855613'
p70
sg21
F0.11494252873563218
sbasg26
I00
sg27
I00
sg28
I4228731
sg19
S'14071.2110606'
p71
sba(igraph
Edge
p72
(dp73
g7
I1
sg8
I00
sg9
I5
sg10
(lp74
g68
a(igraph
Vertex
p75
(dp76
g14
F0.63537117903930129
sg8
I00
sg15
g24
sg16
F-188.79310344827587
sg17
F-333.09170305676855
sg18
I4228933
sg19
S'14071.1856571'
p77
sg21
F0.11494252873563218
sbasg26
I00
sg27
I00
sg28
I4228732
sg19
S'14071.2113079'
p78
sba(igraph
Edge
p79
(dp80
g7
I1
sg8
I00
sg9
I5
sg10
(lp81
g75
a(igraph
Vertex
p82
(dp83
g14
F0.70087336244541487
sg8
I00
sg15
g24
sg16
F-188.79310344827587
sg17
F-381.0393013100437
sg18
I4228934
sg19
S'14071.1857384'
p84
sg21
F0.11494252873563218
sbasg26
I00
sg27
I00
sg28
I4228733
sg19
S'14071.2115758'
p85
sba(igraph
Edge
p86
(dp87
g7
I1
sg8
I00
sg9
I5
sg10
(lp88
g82
a(igraph
Vertex
p89
(dp90
g14
F0.76637554585152845
sg8
I00
sg15
g24
sg16
F-188.79310344827587
sg17
F-428.98689956331884
sg18
I4228935
sg19
S'14071.1858205'
p91
sg21
F0.11494252873563218
sbasg26
I00
sg27
I00
sg28
I4228734
sg19
S'14071.2118375'
p92
sba(igraph
Edge
p93
(dp94
g7
I1
sg8
I00
sg9
I5
sg10
(lp95
g89
ag12
asg26
I00
sg27
I00
sg28
I4228735
sg19
S'14071.2121501'
p96
sba(igraph
Edge
p97
(dp98
g7
I1
sg8
I00
sg9
I5
sg10
(lp99
(igraph
Vertex
p100
(dp101
g14
F0.11135371179039309
sg8
I00
sg15
g24
sg16
F-89.482758620689651
sg17
F50.48908296943226
sg18
I4228936
sg19
S'14071.1859365'
p102
sg21
F0.28735632183908044
sba(igraph
Vertex
p103
(dp104
g14
F0.17685589519650657
sg8
I00
sg15
g24
sg16
F-89.482758620689651
sg17
F2.5414847161571856
sg18
I4228937
sg19
S'14071.1860474'
p105
sg21
F0.28735632183908044
sbasg26
I00
sg27
I00
sg28
I4228736
sg19
S'14071.2124753'
p106
sba(igraph
Edge
p107
(dp108
g7
I1
sg8
I00
sg9
I5
sg10
(lp109
g103
a(igraph
Vertex
p110
(dp111
g14
F0.24235807860262021
sg8
I00
sg15
I0
sg16
F-89.482758620689651
sg17
F-45.406113537117989
sg18
I4228938
sg19
S'14071.1861535'
p112
sg21
F0.28735632183908044
sbasg26
I00
sg27
I00
sg28
I4228737
sg19
S'14071.2128332'
p113
sba(igraph
Edge
p114
(dp115
g7
I1
sg8
I00
sg9
I5
sg10
(lp116
g110
a(igraph
Vertex
p117
(dp118
g14
F0.30786026200873368
sg8
I00
sg15
g24
sg16
F-89.482758620689651
sg17
F-93.353711790393049
sg18
I4228940
sg19
S'14071.1863002'
p119
sg21
F0.28735632183908044
sbasg26
I00
sg27
I00
sg28
I4228738
sg19
S'14071.2132036'
p120
sba(igraph
Edge
p121
(dp122
g7
I1
sg8
I00
sg9
I5
sg10
(lp123
g117
a(igraph
Vertex
p124
(dp125
g14
F0.3733624454148472
sg8
I00
sg15
g24
sg16
F-89.482758620689651
sg17
F-141.30131004366814
sg18
I4228941
sg19
S'14071.1864382'
p126
sg21
F0.28735632183908044
sbasg26
I00
sg27
I00
sg28
I4228739
sg19
S'14071.2138546'
p127
sba(igraph
Edge
p128
(dp129
g7
I1
sg8
I00
sg9
I5
sg10
(lp130
g124
a(igraph
Vertex
p131
(dp132
g14
F0.43886462882096083
sg8
I00
sg15
g24
sg16
F-89.482758620689651
sg17
F-189.24890829694334
sg18
I4228942
sg19
S'14071.1865695'
p133
sg21
F0.28735632183908044
sbasg26
I00
sg27
I00
sg28
I4228740
sg19
S'14071.2145857'
p134
sba(igraph
Edge
p135
(dp136
g7
I1
sg8
I00
sg9
I5
sg10
(lp137
g131
a(igraph
Vertex
p138
(dp139
g14
F0.50436681222707413
sg8
I00
sg15
g24
sg16
F-89.482758620689651
sg17
F-237.19650655021826
sg18
I4228943
sg19
S'14071.1867075'
p140
sg21
F0.28735632183908044
sbasg26
I00
sg27
I00
sg28
I4228741
sg19
S'14071.2150081'
p141
sba(igraph
Edge
p142
(dp143
g7
I1
sg8
I00
sg9
I5
sg10
(lp144
g138
a(igraph
Vertex
p145
(dp146
g14
F0.56986899563318782
sg8
I00
sg15
g24
sg16
F-89.482758620689651
sg17
F-285.14410480349346
sg18
I4228944
sg19
S'14071.1868997'
p147
sg21
F0.28735632183908044
sbasg26
I00
sg27
I00
sg28
I4228742
sg19
S'14071.2154503'
p148
sba(igraph
Edge
p149
(dp150
g7
I1
sg8
I00
sg9
I5
sg10
(lp151
g145
a(igraph
Vertex
p152
(dp153
g14
F0.63537117903930129
sg8
I00
sg15
g24
sg16
F-89.482758620689651
sg17
F-333.09170305676855
sg18
I4228945
sg19
S'14071.1870551'
p154
sg21
F0.28735632183908044
sbasg26
I00
sg27
I00
sg28
I4228743
sg19
S'14071.2159182'
p155
sba(igraph
Edge
p156
(dp157
g7
I1
sg8
I00
sg9
I5
sg10
(lp158
g152
a(igraph
Vertex
p159
(dp160
g14
F0.70087336244541487
sg8
I00
sg15
g24
sg16
F-89.482758620689651
sg17
F-381.0393013100437
sg18
I4228946
sg19
S'14071.1872394'
p161
sg21
F0.28735632183908044
sbasg26
I00
sg27
I00
sg28
I4228744
sg19
S'14071.2164325'
p162
sba(igraph
Edge
p163
(dp164
g7
I1
sg8
I00
sg9
I5
sg10
(lp165
g159
a(igraph
Vertex
p166
(dp167
g14
F0.76637554585152845
sg8
I00
sg15
g24
sg16
F-89.482758620689651
sg17
F-428.98689956331884
sg18
I4228947
sg19
S'14071.1874099'
p168
sg21
F0.28735632183908044
sbasg26
I00
sg27
I00
sg28
I4228745
sg19
S'14071.2169569'
p169
sba(igraph
Edge
p170
(dp171
g7
I1
sg8
I00
sg9
I5
sg10
(lp172
g166
ag100
asg26
I00
sg27
I00
sg28
I4228746
sg19
S'14071.2174899'
p173
sba(igraph
Edge
p174
(dp175
g7
I1
sg8
I00
sg9
I5
sg10
(lp176
(igraph
Vertex
p177
(dp178
g14
F0.11135371179039309
sg8
I00
sg15
g24
sg16
F9.8275862068965694
sg17
F50.48908296943226
sg18
I4228948
sg19
S'14071.1878728'
p179
sg21
F0.45977011494252873
sba(igraph
Vertex
p180
(dp181
g14
F0.17685589519650657
sg8
I00
sg15
g24
sg16
F9.8275862068965694
sg17
F2.5414847161571856
sg18
I4228949
sg19
S'14071.1882027'
p182
sg21
F0.45977011494252873
sbasg26
I00
sg27
I00
sg28
I4228747
sg19
S'14071.2180456'
p183
sba(igraph
Edge
p184
(dp185
g7
I1
sg8
I00
sg9
I5
sg10
(lp186
g180
a(igraph
Vertex
p187
(dp188
g14
F0.24235807860262021
sg8
I01
sg15
I0
sg16
F9.8275862068965694
sg17
F-45.406113537117989
sg18
I4228951
sg19
S'14071.1883963'
p189
sg21
F0.45977011494252873
sbasg26
I00
sg27
I00
sg28
I4228748
sg19
S'14071.2186216'
p190
sba(igraph
Edge
p191
(dp192
g7
I1
sg8
I00
sg9
I5
sg10
(lp193
g187
a(igraph
Vertex
p194
(dp195
g14
F0.30786026200873368
sg8
I00
sg15
g24
sg16
F9.8275862068965694
sg17
F-93.353711790393049
sg18
I4228953
sg19
S'14071.1886011'
p196
sg21
F0.45977011494252873
sbasg26
I00
sg27
I00
sg28
I4228749
sg19
S'14071.2192153'
p197
sba(igraph
Edge
p198
(dp199
g7
I1
sg8
I00
sg9
I5
sg10
(lp200
g194
a(igraph
Vertex
p201
(dp202
g14
F0.3733624454148472
sg8
I00
sg15
I0
sg16
F9.8275862068965694
sg17
F-141.30131004366814
sg18
I4228954
sg19
S'14071.1888086'
p203
sg21
F0.45977011494252873
sbasg26
I00
sg27
I00
sg28
I4228750
sg19
S'14071.219836'
p204
sba(igraph
Edge
p205
(dp206
g7
I1
sg8
I00
sg9
I5
sg10
(lp207
g201
a(igraph
Vertex
p208
(dp209
g14
F0.43886462882096083
sg8
I00
sg15
g24
sg16
F9.8275862068965694
sg17
F-189.24890829694334
sg18
I4228956
sg19
S'14071.1890293'
p210
sg21
F0.45977011494252873
sbasg26
I00
sg27
I00
sg28
I4228751
sg19
S'14071.2204822'
p211
sba(igraph
Edge
p212
(dp213
g7
I1
sg8
I00
sg9
I5
sg10
(lp214
g208
a(igraph
Vertex
p215
(dp216
g14
F0.50436681222707413
sg8
I00
sg15
g24
sg16
F9.8275862068965694
sg17
F-237.19650655021826
sg18
I4228957
sg19
S'14071.1892584'
p217
sg21
F0.45977011494252873
sbasg26
I00
sg27
I00
sg28
I4228752
sg19
S'14071.2211597'
p218
sba(igraph
Edge
p219
(dp220
g7
I1
sg8
I00
sg9
I5
sg10
(lp221
g215
a(igraph
Vertex
p222
(dp223
g14
F0.56986899563318782
sg8
I00
sg15
g24
sg16
F9.8275862068965694
sg17
F-285.14410480349346
sg18
I4228958
sg19
S'14071.1894942'
p224
sg21
F0.45977011494252873
sbasg26
I00
sg27
I00
sg28
I4228753
sg19
S'14071.2218628'
p225
sba(igraph
Edge
p226
(dp227
g7
I1
sg8
I00
sg9
I5
sg10
(lp228
g222
a(igraph
Vertex
p229
(dp230
g14
F0.63537117903930129
sg8
I00
sg15
g24
sg16
F9.8275862068965694
sg17
F-333.09170305676855
sg18
I4228959
sg19
S'14071.189737'
p231
sg21
F0.45977011494252873
sbasg26
I00
sg27
I00
sg28
I4228754
sg19
S'14071.2225219'
p232
sba(igraph
Edge
p233
(dp234
g7
I1
sg8
I00
sg9
I5
sg10
(lp235
g229
a(igraph
Vertex
p236
(dp237
g14
F0.70087336244541487
sg8
I00
sg15
g24
sg16
F9.8275862068965694
sg17
F-381.0393013100437
sg18
I4228960
sg19
S'14071.1899976'
p238
sg21
F0.45977011494252873
sbasg26
I00
sg27
I00
sg28
I4228755
sg19
S'14071.2232119'
p239
sba(igraph
Edge
p240
(dp241
g7
I1
sg8
I00
sg9
I5
sg10
(lp242
g236
a(igraph
Vertex
p243
(dp244
g14
F0.76637554585152845
sg8
I00
sg15
g24
sg16
F9.8275862068965694
sg17
F-428.98689956331884
sg18
I4228961
sg19
S'14071.1902571'
p245
sg21
F0.45977011494252873
sbasg26
I00
sg27
I00
sg28
I4228756
sg19
S'14071.2239137'
p246
sba(igraph
Edge
p247
(dp248
g7
I1
sg8
I00
sg9
I5
sg10
(lp249
g243
ag177
asg26
I00
sg27
I00
sg28
I4228757
sg19
S'14071.224635'
p250
sba(igraph
Edge
p251
(dp252
g7
I1
sg8
I00
sg9
I5
sg10
(lp253
(igraph
Vertex
p254
(dp255
g14
F0.11135371179039309
sg8
I00
sg15
g24
sg16
F109.13793103448279
sg17
F50.48908296943226
sg18
I4228962
sg19
S'14071.1905281'
p256
sg21
F0.63218390804597702
sba(igraph
Vertex
p257
(dp258
g14
F0.17685589519650657
sg8
I00
sg15
g24
sg16
F109.13793103448279
sg17
F2.5414847161571856
sg18
I4228963
sg19
S'14071.1908044'
p259
sg21
F0.63218390804597702
sbasg26
I00
sg27
I00
sg28
I4228758
sg19
S'14071.2253728'
p260
sba(igraph
Edge
p261
(dp262
g7
I1
sg8
I00
sg9
I5
sg10
(lp263
g257
a(igraph
Vertex
p264
(dp265
g14
F0.24235807860262021
sg8
I00
sg15
g24
sg16
F109.13793103448279
sg17
F-45.406113537117989
sg18
I4228964
sg19
S'14071.1911285'
p266
sg21
F0.63218390804597702
sbasg26
I00
sg27
I00
sg28
I4228759
sg19
S'14071.2261315'
p267
sba(igraph
Edge
p268
(dp269
g7
I1
sg8
I00
sg9
I5
sg10
(lp270
g264
a(igraph
Vertex
p271
(dp272
g14
F0.30786026200873368
sg8
I00
sg15
g24
sg16
F109.13793103448279
sg17
F-93.353711790393049
sg18
I4228965
sg19
S'14071.1914699'
p273
sg21
F0.63218390804597702
sbasg26
I00
sg27
I00
sg28
I4228760
sg19
S'14071.2269165'
p274
sba(igraph
Edge
p275
(dp276
g7
I1
sg8
I00
sg9
I5
sg10
(lp277
g271
a(igraph
Vertex
p278
(dp279
g14
F0.3733624454148472
sg8
I00
sg15
g24
sg16
F109.13793103448279
sg17
F-141.30131004366814
sg18
I4228966
sg19
S'14071.1917774'
p280
sg21
F0.63218390804597702
sbasg26
I00
sg27
I00
sg28
I4228761
sg19
S'14071.2277926'
p281
sba(igraph
Edge
p282
(dp283
g7
I1
sg8
I00
sg9
I5
sg10
(lp284
g278
a(igraph
Vertex
p285
(dp286
g14
F0.43886462882096083
sg8
I00
sg15
g24
sg16
F109.13793103448279
sg17
F-189.24890829694334
sg18
I4228967
sg19
S'14071.1923314'
p287
sg21
F0.63218390804597702
sbasg26
I00
sg27
I00
sg28
I4228762
sg19
S'14071.2286363'
p288
sba(igraph
Edge
p289
(dp290
g7
I1
sg8
I00
sg9
I5
sg10
(lp291
g285
a(igraph
Vertex
p292
(dp293
g14
F0.50436681222707413
sg8
I00
sg15
I0
sg16
F109.13793103448279
sg17
F-237.19650655021826
sg18
I4228968
sg19
S'14071.1926482'
p294
sg21
F0.63218390804597702
sbasg26
I00
sg27
I00
sg28
I4228763
sg19
S'14071.2295205'
p295
sba(igraph
Edge
p296
(dp297
g7
I1
sg8
I00
sg9
I5
sg10
(lp298
g292
a(igraph
Vertex
p299
(dp300
g14
F0.56986899563318782
sg8
I00
sg15
g24
sg16
F109.13793103448279
sg17
F-285.14410480349346
sg18
I4228970
sg19
S'14071.1931899'
p301
sg21
F0.63218390804597702
sbasg26
I00
sg27
I00
sg28
I4228764
sg19
S'14071.2304016'
p302
sba(igraph
Edge
p303
(dp304
g7
I1
sg8
I00
sg9
I5
sg10
(lp305
g299
a(igraph
Vertex
p306
(dp307
g14
F0.63537117903930129
sg8
I00
sg15
g24
sg16
F109.13793103448279
sg17
F-333.09170305676855
sg18
I4228971
sg19
S'14071.1935271'
p308
sg21
F0.63218390804597702
sbasg26
I00
sg27
I00
sg28
I4228765
sg19
S'14071.2313126'
p309
sba(igraph
Edge
p310
(dp311
g7
I1
sg8
I00
sg9
I5
sg10
(lp312
g306
a(igraph
Vertex
p313
(dp314
g14
F0.70087336244541487
sg8
I00
sg15
g24
sg16
F109.13793103448279
sg17
F-381.0393013100437
sg18
I4228972
sg19
S'14071.193864'
p315
sg21
F0.63218390804597702
sbasg26
I00
sg27
I00
sg28
I4228766
sg19
S'14071.2322262'
p316
sba(igraph
Edge
p317
(dp318
g7
I1
sg8
I00
sg9
I5
sg10
(lp319
g313
a(igraph
Vertex
p320
(dp321
g14
F0.76637554585152845
sg8
I00
sg15
g24
sg16
F109.13793103448279
sg17
F-428.98689956331884
sg18
I4228973
sg19
S'14071.1942708'
p322
sg21
F0.63218390804597702
sbasg26
I00
sg27
I00
sg28
I4228767
sg19
S'14071.2331576'
p323
sba(igraph
Edge
p324
(dp325
g7
I1
sg8
I00
sg9
I5
sg10
(lp326
g320
ag254
asg26
I00
sg27
I00
sg28
I4228768
sg19
S'14071.2341242'
p327
sba(igraph
Edge
p328
(dp329
g7
I1
sg8
I00
sg9
I5
sg10
(lp330
(igraph
Vertex
p331
(dp332
g14
F0.11135371179039309
sg8
I00
sg15
g24
sg16
F208.44827586206895
sg17
F50.48908296943226
sg18
I4228974
sg19
S'14071.1946312'
p333
sg21
F0.8045977011494253
sba(igraph
Vertex
p334
(dp335
g14
F0.17685589519650657
sg8
I00
sg15
g24
sg16
F208.44827586206895
sg17
F2.5414847161571856
sg18
I4228975
sg19
S'14071.1951586'
p336
sg21
F0.8045977011494253
sbasg26
I00
sg27
I00
sg28
I4228769
sg19
S'14071.2351944'
p337
sba(igraph
Edge
p338
(dp339
g7
I1
sg8
I00
sg9
I5
sg10
(lp340
g334
a(igraph
Vertex
p341
(dp342
g14
F0.24235807860262021
sg8
I00
sg15
g24
sg16
F208.44827586206895
sg17
F-45.406113537117989
sg18
I4228976
sg19
S'14071.1955302'
p343
sg21
F0.8045977011494253
sbasg26
I00
sg27
I00
sg28
I4228770
sg19
S'14071.2362242'
p344
sba(igraph
Edge
p345
(dp346
g7
I1
sg8
I00
sg9
I5
sg10
(lp347
g341
a(igraph
Vertex
p348
(dp349
g14
F0.30786026200873368
sg8
I00
sg15
g24
sg16
F208.44827586206895
sg17
F-93.353711790393049
sg18
I4228977
sg19
S'14071.1974142'
p350
sg21
F0.8045977011494253
sbasg26
I00
sg27
I00
sg28
I4228771
sg19
S'14071.237248'
p351
sba(igraph
Edge
p352
(dp353
g7
I1
sg8
I00
sg9
I5
sg10
(lp354
g348
a(igraph
Vertex
p355
(dp356
g14
F0.3733624454148472
sg8
I00
sg15
g24
sg16
F208.44827586206895
sg17
F-141.30131004366814
sg18
I4228978
sg19
S'14071.1982101'
p357
sg21
F0.8045977011494253
sbasg26
I00
sg27
I00
sg28
I4228772
sg19
S'14071.2382929'
p358
sba(igraph
Edge
p359
(dp360
g7
I1
sg8
I00
sg9
I5
sg10
(lp361
g355
a(igraph
Vertex
p362
(dp363
g14
F0.43886462882096083
sg8
I00
sg15
g24
sg16
F208.44827586206895
sg17
F-189.24890829694334
sg18
I4228979
sg19
S'14071.1987331'
p364
sg21
F0.8045977011494253
sbasg26
I00
sg27
I00
sg28
I4228773
sg19
S'14071.2394084'
p365
sba(igraph
Edge
p366
(dp367
g7
I1
sg8
I00
sg9
I5
sg10
(lp368
g362
a(igraph
Vertex
p369
(dp370
g14
F0.50436681222707413
sg8
I00
sg15
g24
sg16
F208.44827586206895
sg17
F-237.19650655021826
sg18
I4228980
sg19
S'14071.1992887'
p371
sg21
F0.8045977011494253
sbasg26
I00
sg27
I00
sg28
I4228774
sg19
S'14071.2405038'
p372
sba(igraph
Edge
p373
(dp374
g7
I1
sg8
I00
sg9
I5
sg10
(lp375
g369
a(igraph
Vertex
p376
(dp377
g14
F0.56986899563318782
sg8
I00
sg15
g24
sg16
F208.44827586206895
sg17
F-285.14410480349346
sg18
I4228981
sg19
S'14071.1997044'
p378
sg21
F0.8045977011494253
sbasg26
I00
sg27
I00
sg28
I4228775
sg19
S'14071.2415938'
p379
sba(igraph
Edge
p380
(dp381
g7
I1
sg8
I00
sg9
I5
sg10
(lp382
g376
a(igraph
Vertex
p383
(dp384
g14
F0.63537117903930129
sg8
I00
sg15
I0
sg16
F208.44827586206895
sg17
F-333.09170305676855
sg18
I4228982
sg19
S'14071.2001282'
p385
sg21
F0.8045977011494253
sbasg26
I00
sg27
I00
sg28
I4228776
sg19
S'14071.2427068'
p386
sba(igraph
Edge
p387
(dp388
g7
I1
sg8
I00
sg9
I5
sg10
(lp389
g383
a(igraph
Vertex
p390
(dp391
g14
F0.70087336244541487
sg8
I00
sg15
g24
sg16
F208.44827586206895
sg17
F-381.0393013100437
sg18
I4228984
sg19
S'14071.2005582'
p392
sg21
F0.8045977011494253
sbasg26
I00
sg27
I00
sg28
I4228777
sg19
S'14071.2438721'
p393
sba(igraph
Edge
p394
(dp395
g7
I1
sg8
I00
sg9
I5
sg10
(lp396
g390
a(igraph
Vertex
p397
(dp398
g14
F0.76637554585152845
sg8
I00
sg15
g24
sg16
F208.44827586206895
sg17
F-428.98689956331884
sg18
I4228985
sg19
S'14071.2010035'
p399
sg21
F0.8045977011494253
sbasg26
I00
sg27
I00
sg28
I4228778
sg19
S'14071.245044'
p400
sba(igraph
Edge
p401
(dp402
g7
I1
sg8
I00
sg9
I5
sg10
(lp403
g397
ag331
asg26
I00
sg27
I00
sg28
I4228779
sg19
S'14071.2462933'
p404
sba(igraph
Edge
p405
(dp406
g7
I1
sg8
I00
sg9
I5
sg10
(lp407
(igraph
Vertex
p408
(dp409
g14
F0.11135371179039309
sg8
I00
sg15
g24
sg16
F307.75862068965523
sg17
F50.48908296943226
sg18
I4228986
sg19
S'14071.2018866'
p410
sg21
F0.97701149425287359
sba(igraph
Vertex
p411
(dp412
g14
F0.17685589519650657
sg8
I00
sg15
g24
sg16
F307.75862068965523
sg17
F2.5414847161571856
sg18
I4228987
sg19
S'14071.2024671'
p413
sg21
F0.97701149425287359
sbasg26
I00
sg27
I00
sg28
I4228780
sg19
S'14071.2475105'
p414
sba(igraph
Edge
p415
(dp416
g7
I1
sg8
I00
sg9
I5
sg10
(lp417
g411
a(igraph
Vertex
p418
(dp419
g14
F0.24235807860262021
sg8
I00
sg15
g24
sg16
F307.75862068965523
sg17
F-45.406113537117989
sg18
I4228988
sg19
S'14071.2031551'
p420
sg21
F0.97701149425287359
sbasg26
I00
sg27
I00
sg28
I4228781
sg19
S'14071.2487291'
p421
sba(igraph
Edge
p422
(dp423
g7
I1
sg8
I00
sg9
I5
sg10
(lp424
g418
a(igraph
Vertex
p425
(dp426
g14
F0.30786026200873368
sg8
I00
sg15
g24
sg16
F307.75862068965523
sg17
F-93.353711790393049
sg18
I4228989
sg19
S'14071.2044422'
p427
sg21
F0.97701149425287359
sbasg26
I00
sg27
I00
sg28
I4228782
sg19
S'14071.2499712'
p428
sba(igraph
Edge
p429
(dp430
g7
I1
sg8
I00
sg9
I5
sg10
(lp431
g425
a(igraph
Vertex
p432
(dp433
g14
F0.3733624454148472
sg8
I00
sg15
g24
sg16
F307.75862068965523
sg17
F-141.30131004366814
sg18
I4228990
sg19
S'14071.2051484'
p434
sg21
F0.97701149425287359
sbasg26
I00
sg27
I00
sg28
I4228783
sg19
S'14071.2517147'
p435
sba(igraph
Edge
p436
(dp437
g7
I1
sg8
I00
sg9
I5
sg10
(lp438
g432
a(igraph
Vertex
p439
(dp440
g14
F0.43886462882096083
sg8
I00
sg15
g24
sg16
F307.75862068965523
sg17
F-189.24890829694334
sg18
I4228991
sg19
S'14071.2058217'
p441
sg21
F0.97701149425287359
sbasg26
I00
sg27
I00
sg28
I4228784
sg19
S'14071.2530148'
p442
sba(igraph
Edge
p443
(dp444
g7
I1
sg8
I00
sg9
I5
sg10
(lp445
g439
a(igraph
Vertex
p446
(dp447
g14
F0.50436681222707413
sg8
I00
sg15
g24
sg16
F307.75862068965523
sg17
F-237.19650655021826
sg18
I4228992
sg19
S'14071.2064567'
p448
sg21
F0.97701149425287359
sbasg26
I00
sg27
I00
sg28
I4228785
sg19
S'14071.2543231'
p449
sba(igraph
Edge
p450
(dp451
g7
I1
sg8
I00
sg9
I5
sg10
(lp452
g446
a(igraph
Vertex
p453
(dp454
g14
F0.56986899563318782
sg8
I00
sg15
I0
sg16
F307.75862068965523
sg17
F-285.14410480349346
sg18
I4228993
sg19
S'14071.2072113'
p455
sg21
F0.97701149425287359
sbasg26
I00
sg27
I00
sg28
I4228786
sg19
S'14071.2556942'
p456
sba(igraph
Edge
p457
(dp458
g7
I1
sg8
I00
sg9
I5
sg10
(lp459
g453
a(igraph
Vertex
p460
(dp461
g14
F0.63537117903930129
sg8
I00
sg15
g24
sg16
F307.75862068965523
sg17
F-333.09170305676855
sg18
I4228995
sg19
S'14071.2078977'
p462
sg21
F0.97701149425287359
sbasg26
I00
sg27
I00
sg28
I4228787
sg19
S'14071.2570511'
p463
sba(igraph
Edge
p464
(dp465
g7
I1
sg8
I00
sg9
I5
sg10
(lp466
g460
a(igraph
Vertex
p467
(dp468
g14
F0.70087336244541487
sg8
I00
sg15
g24
sg16
F307.75862068965523
sg17
F-381.0393013100437
sg18
I4228996
sg19
S'14071.2086179'
p469
sg21
F0.97701149425287359
sbasg26
I00
sg27
I00
sg28
I4228788
sg19
S'14071.2585069'
p470
sba(igraph
Edge
p471
(dp472
g7
I1
sg8
I00
sg9
I5
sg10
(lp473
g467
a(igraph
Vertex
p474
(dp475
g14
F0.76637554585152845
sg8
I00
sg15
I0
sg16
F307.75862068965523
sg17
F-428.98689956331884
sg18
I4228997
sg19
S'14071.2093621'
p476
sg21
F0.97701149425287359
sbasg26
I00
sg27
I00
sg28
I4228789
sg19
S'14071.2599054'
p477
sba(igraph
Edge
p478
(dp479
g7
I1
sg8
I00
sg9
I5
sg10
(lp480
g474
ag408
asg26
I00
sg27
I00
sg28
I4228790
sg19
S'14071.261319'
p481
sba(igraph
Edge
p482
(dp483
g7
I1
sg8
I00
sg9
I5
sg10
(lp484
g12
ag100
asg26
I00
sg27
I00
sg28
I4228791
sg19
S'14071.2628233'
p485
sba(igraph
Edge
p486
(dp487
g7
I1
sg8
I00
sg9
I5
sg10
(lp488
g22
ag110
asg26
I00
sg27
I00
sg28
I4228792
sg19
S'14071.2643724'
p489
sba(igraph
Edge
p490
(dp491
g7
I1
sg8
I00
sg9
I5
sg10
(lp492
g33
ag110
asg26
I00
sg27
I00
sg28
I4228793
sg19
S'14071.2658897'
p493
sba(igraph
Edge
p494
(dp495
g7
I1
sg8
I00
sg9
I5
sg10
(lp496
g40
ag124
asg26
I00
sg27
I00
sg28
I4228794
sg19
S'14071.2674605'
p497
sba(igraph
Edge
p498
(dp499
g7
I1
sg8
I00
sg9
I5
sg10
(lp500
g47
ag124
asg26
I00
sg27
I00
sg28
I4228795
sg19
S'14071.2689954'
p501
sba(igraph
Edge
p502
(dp503
g7
I1
sg8
I00
sg9
I5
sg10
(lp504
g54
ag138
asg26
I00
sg27
I00
sg28
I4228796
sg19
S'14071.2705408'
p505
sba(igraph
Edge
p506
(dp507
g7
I1
sg8
I00
sg9
I5
sg10
(lp508
g61
ag138
asg26
I00
sg27
I00
sg28
I4228797
sg19
S'14071.2721779'
p509
sba(igraph
Edge
p510
(dp511
g7
I1
sg8
I00
sg9
I5
sg10
(lp512
g68
ag152
asg26
I00
sg27
I00
sg28
I4228798
sg19
S'14071.2738289'
p513
sba(igraph
Edge
p514
(dp515
g7
I1
sg8
I00
sg9
I5
sg10
(lp516
g75
ag152
asg26
I00
sg27
I00
sg28
I4228799
sg19
S'14071.2755032'
p517
sba(igraph
Edge
p518
(dp519
g7
I1
sg8
I00
sg9
I5
sg10
(lp520
g82
ag166
asg26
I00
sg27
I00
sg28
I4228800
sg19
S'14071.2771433'
p521
sba(igraph
Edge
p522
(dp523
g7
I1
sg8
I00
sg9
I5
sg10
(lp524
g89
ag166
asg26
I00
sg27
I00
sg28
I4228801
sg19
S'14071.2788002'
p525
sba(igraph
Edge
p526
(dp527
g7
I1
sg8
I00
sg9
I5
sg10
(lp528
g12
ag103
asg26
I00
sg27
I00
sg28
I4228802
sg19
S'14071.2804907'
p529
sba(igraph
Edge
p530
(dp531
g7
I1
sg8
I00
sg9
I5
sg10
(lp532
g22
ag103
asg26
I00
sg27
I00
sg28
I4228803
sg19
S'14071.2822018'
p533
sba(igraph
Edge
p534
(dp535
g7
I1
sg8
I00
sg9
I5
sg10
(lp536
g33
ag117
asg26
I00
sg27
I00
sg28
I4228804
sg19
S'14071.2839612'
p537
sba(igraph
Edge
p538
(dp539
g7
I1
sg8
I00
sg9
I5
sg10
(lp540
g40
ag117
asg26
I00
sg27
I00
sg28
I4228805
sg19
S'14071.2857087'
p541
sba(igraph
Edge
p542
(dp543
g7
I1
sg8
I00
sg9
I5
sg10
(lp544
g47
ag131
asg26
I00
sg27
I00
sg28
I4228806
sg19
S'14071.2875734'
p545
sba(igraph
Edge
p546
(dp547
g7
I1
sg8
I00
sg9
I5
sg10
(lp548
g54
ag131
asg26
I00
sg27
I00
sg28
I4228807
sg19
S'14071.2895343'
p549
sba(igraph
Edge
p550
(dp551
g7
I1
sg8
I00
sg9
I5
sg10
(lp552
g61
ag145
asg26
I00
sg27
I00
sg28
I4228808
sg19
S'14071.29137'
p553
sba(igraph
Edge
p554
(dp555
g7
I1
sg8
I00
sg9
I5
sg10
(lp556
g68
ag145
asg26
I00
sg27
I00
sg28
I4228809
sg19
S'14071.2932096'
p557
sba(igraph
Edge
p558
(dp559
g7
I1
sg8
I00
sg9
I5
sg10
(lp560
g75
ag159
asg26
I00
sg27
I00
sg28
I4228810
sg19
S'14071.2950906'
p561
sba(igraph
Edge
p562
(dp563
g7
I1
sg8
I00
sg9
I5
sg10
(lp564
g82
ag159
asg26
I00
sg27
I00
sg28
I4228811
sg19
S'14071.2969782'
p565
sba(igraph
Edge
p566
(dp567
g7
I1
sg8
I00
sg9
I5
sg10
(lp568
g89
ag100
asg26
I00
sg27
I00
sg28
I4228812
sg19
S'14071.2989014'
p569
sba(igraph
Edge
p570
(dp571
g7
I1
sg8
I00
sg9
I5
sg10
(lp572
g12
ag408
asg26
I00
sg27
I00
sg28
I4228813
sg19
S'14071.3008301'
p573
sba(igraph
Edge
p574
(dp575
g7
I1
sg8
I00
sg9
I5
sg10
(lp576
g22
ag408
asg26
I00
sg27
I00
sg28
I4228814
sg19
S'14071.3027885'
p577
sba(igraph
Edge
p578
(dp579
g7
I1
sg8
I00
sg9
I5
sg10
(lp580
g33
ag418
asg26
I00
sg27
I00
sg28
I4228815
sg19
S'14071.3047457'
p581
sba(igraph
Edge
p582
(dp583
g7
I1
sg8
I00
sg9
I5
sg10
(lp584
g40
ag418
asg26
I00
sg27
I00
sg28
I4228816
sg19
S'14071.3068024'
p585
sba(igraph
Edge
p586
(dp587
g7
I1
sg8
I00
sg9
I5
sg10
(lp588
g47
ag432
asg26
I00
sg27
I00
sg28
I4228817
sg19
S'14071.3088281'
p589
sba(igraph
Edge
p590
(dp591
g7
I1
sg8
I00
sg9
I5
sg10
(lp592
g54
ag432
asg26
I00
sg27
I00
sg28
I4228818
sg19
S'14071.3108635'
p593
sba(igraph
Edge
p594
(dp595
g7
I1
sg8
I00
sg9
I5
sg10
(lp596
g61
ag446
asg26
I00
sg27
I00
sg28
I4228819
sg19
S'14071.312913'
p597
sba(igraph
Edge
p598
(dp599
g7
I1
sg8
I00
sg9
I5
sg10
(lp600
g68
ag446
asg26
I00
sg27
I00
sg28
I4228820
sg19
S'14071.3149886'
p601
sba(igraph
Edge
p602
(dp603
g7
I1
sg8
I00
sg9
I5
sg10
(lp604
g75
ag460
asg26
I00
sg27
I00
sg28
I4228821
sg19
S'14071.3170794'
p605
sba(igraph
Edge
p606
(dp607
g7
I1
sg8
I00
sg9
I5
sg10
(lp608
g82
ag460
asg26
I00
sg27
I00
sg28
I4228822
sg19
S'14071.3191833'
p609
sba(igraph
Edge
p610
(dp611
g7
I1
sg8
I00
sg9
I5
sg10
(lp612
g89
ag474
asg26
I00
sg27
I00
sg28
I4228823
sg19
S'14071.3213204'
p613
sba(igraph
Edge
p614
(dp615
g7
I1
sg8
I00
sg9
I5
sg10
(lp616
g12
ag474
asg26
I00
sg27
I00
sg28
I4228824
sg19
S'14071.3235788'
p617
sba(igraph
Edge
p618
(dp619
g7
I1
sg8
I00
sg9
I5
sg10
(lp620
g22
ag411
asg26
I00
sg27
I00
sg28
I4228825
sg19
S'14071.3257833'
p621
sba(igraph
Edge
p622
(dp623
g7
I1
sg8
I00
sg9
I5
sg10
(lp624
g33
ag411
asg26
I00
sg27
I00
sg28
I4228826
sg19
S'14071.3279786'
p625
sba(igraph
Edge
p626
(dp627
g7
I1
sg8
I00
sg9
I5
sg10
(lp628
g40
ag425
asg26
I00
sg27
I00
sg28
I4228827
sg19
S'14071.3301928'
p629
sba(igraph
Edge
p630
(dp631
g7
I1
sg8
I00
sg9
I5
sg10
(lp632
g47
ag425
asg26
I00
sg27
I00
sg28
I4228828
sg19
S'14071.3324328'
p633
sba(igraph
Edge
p634
(dp635
g7
I1
sg8
I00
sg9
I5
sg10
(lp636
g54
ag439
asg26
I00
sg27
I00
sg28
I4228829
sg19
S'14071.334702'
p637
sba(igraph
Edge
p638
(dp639
g7
I1
sg8
I00
sg9
I5
sg10
(lp640
g61
ag439
asg26
I00
sg27
I00
sg28
I4228830
sg19
S'14071.3369741'
p641
sba(igraph
Edge
p642
(dp643
g7
I1
sg8
I00
sg9
I5
sg10
(lp644
g68
ag453
asg26
I00
sg27
I00
sg28
I4228831
sg19
S'14071.3392833'
p645
sba(igraph
Edge
p646
(dp647
g7
I1
sg8
I00
sg9
I5
sg10
(lp648
g75
ag453
asg26
I00
sg27
I00
sg28
I4228832
sg19
S'14071.3416007'
p649
sba(igraph
Edge
p650
(dp651
g7
I1
sg8
I00
sg9
I5
sg10
(lp652
g82
ag467
asg26
I00
sg27
I00
sg28
I4228833
sg19
S'14071.3441306'
p653
sba(igraph
Edge
p654
(dp655
g7
I1
sg8
I00
sg9
I5
sg10
(lp656
g89
ag467
asg26
I00
sg27
I00
sg28
I4228834
sg19
S'14071.3465276'
p657
sba(igraph
Edge
p658
(dp659
g7
I1
sg8
I00
sg9
I5
sg10
(lp660
g100
ag177
asg26
I00
sg27
I00
sg28
I4228835
sg19
S'14071.3489505'
p661
sba(igraph
Edge
p662
(dp663
g7
I1
sg8
I00
sg9
I5
sg10
(lp664
g103
ag187
asg26
I00
sg27
I00
sg28
I4228836
sg19
S'14071.3514871'
p665
sba(igraph
Edge
p666
(dp667
g7
I1
sg8
I00
sg9
I5
sg10
(lp668
g110
ag187
asg26
I00
sg27
I00
sg28
I4228837
sg19
S'14071.3539078'
p669
sba(igraph
Edge
p670
(dp671
g7
I1
sg8
I00
sg9
I5
sg10
(lp672
g117
ag201
asg26
I00
sg27
I00
sg28
I4228838
sg19
S'14071.3564246'
p673
sba(igraph
Edge
p674
(dp675
g7
I1
sg8
I00
sg9
I5
sg10
(lp676
g124
ag201
asg26
I00
sg27
I00
sg28
I4228839
sg19
S'14071.3589607'
p677
sba(igraph
Edge
p678
(dp679
g7
I1
sg8
I00
sg9
I5
sg10
(lp680
g131
ag215
asg26
I00
sg27
I00
sg28
I4228840
sg19
S'14071.3614406'
p681
sba(igraph
Edge
p682
(dp683
g7
I1
sg8
I00
sg9
I5
sg10
(lp684
g138
ag215
asg26
I00
sg27
I00
sg28
I4228841
sg19
S'14071.363975'
p685
sba(igraph
Edge
p686
(dp687
g7
I1
sg8
I00
sg9
I5
sg10
(lp688
g145
ag229
asg26
I00
sg27
I00
sg28
I4228842
sg19
S'14071.3665066'
p689
sba(igraph
Edge
p690
(dp691
g7
I1
sg8
I00
sg9
I5
sg10
(lp692
g152
ag229
asg26
I00
sg27
I00
sg28
I4228843
sg19
S'14071.3691103'
p693
sba(igraph
Edge
p694
(dp695
g7
I1
sg8
I00
sg9
I5
sg10
(lp696
g159
ag243
asg26
I00
sg27
I00
sg28
I4228844
sg19
S'14071.3717148'
p697
sba(igraph
Edge
p698
(dp699
g7
I1
sg8
I00
sg9
I5
sg10
(lp700
g166
ag243
asg26
I00
sg27
I00
sg28
I4228845
sg19
S'14071.3744032'
p701
sba(igraph
Edge
p702
(dp703
g7
I1
sg8
I00
sg9
I5
sg10
(lp704
g100
ag180
asg26
I00
sg27
I00
sg28
I4228846
sg19
S'14071.3770932'
p705
sba(igraph
Edge
p706
(dp707
g7
I1
sg8
I00
sg9
I5
sg10
(lp708
g103
ag180
asg26
I00
sg27
I00
sg28
I4228847
sg19
S'14071.3798117'
p709
sba(igraph
Edge
p710
(dp711
g7
I1
sg8
I00
sg9
I5
sg10
(lp712
g110
ag194
asg26
I00
sg27
I00
sg28
I4228848
sg19
S'14071.3825729'
p713
sba(igraph
Edge
p714
(dp715
g7
I1
sg8
I00
sg9
I5
sg10
(lp716
g117
ag194
asg26
I00
sg27
I00
sg28
I4228849
sg19
S'14071.3852741'
p717
sba(igraph
Edge
p718
(dp719
g7
I1
sg8
I00
sg9
I5
sg10
(lp720
g124
ag208
asg26
I00
sg27
I00
sg28
I4228850
sg19
S'14071.3880004'
p721
sba(igraph
Edge
p722
(dp723
g7
I1
sg8
I00
sg9
I5
sg10
(lp724
g131
ag208
asg26
I00
sg27
I00
sg28
I4228851
sg19
S'14071.3907382'
p725
sba(igraph
Edge
p726
(dp727
g7
I1
sg8
I00
sg9
I5
sg10
(lp728
g138
ag222
asg26
I00
sg27
I00
sg28
I4228852
sg19
S'14071.3935048'
p729
sba(igraph
Edge
p730
(dp731
g7
I1
sg8
I00
sg9
I5
sg10
(lp732
g145
ag222
asg26
I00
sg27
I00
sg28
I4228853
sg19
S'14071.3963945'
p733
sba(igraph
Edge
p734
(dp735
g7
I1
sg8
I00
sg9
I5
sg10
(lp736
g152
ag236
asg26
I00
sg27
I00
sg28
I4228854
sg19
S'14071.3993804'
p737
sba(igraph
Edge
p738
(dp739
g7
I1
sg8
I00
sg9
I5
sg10
(lp740
g159
ag236
asg26
I00
sg27
I00
sg28
I4228855
sg19
S'14071.4022724'
p741
sba(igraph
Edge
p742
(dp743
g7
I1
sg8
I00
sg9
I5
sg10
(lp744
g166
ag177
asg26
I00
sg27
I00
sg28
I4228856
sg19
S'14071.4056504'
p745
sba(igraph
Edge
p746
(dp747
g7
I1
sg8
I00
sg9
I5
sg10
(lp748
g177
ag254
asg26
I00
sg27
I00
sg28
I4228857
sg19
S'14071.4086416'
p749
sba(igraph
Edge
p750
(dp751
g7
I1
sg8
I00
sg9
I5
sg10
(lp752
g180
ag264
asg26
I00
sg27
I00
sg28
I4228858
sg19
S'14071.4115386'
p753
sba(igraph
Edge
p754
(dp755
g7
I1
sg8
I00
sg9
I5
sg10
(lp756
g187
ag264
asg26
I00
sg27
I00
sg28
I4228859
sg19
S'14071.4148952'
p757
sba(igraph
Edge
p758
(dp759
g7
I1
sg8
I00
sg9
I5
sg10
(lp760
g194
ag278
asg26
I00
sg27
I00
sg28
I4228860
sg19
S'14071.4178559'
p761
sba(igraph
Edge
p762
(dp763
g7
I1
sg8
I00
sg9
I5
sg10
(lp764
g201
ag278
asg26
I00
sg27
I00
sg28
I4228861
sg19
S'14071.4209102'
p765
sba(igraph
Edge
p766
(dp767
g7
I1
sg8
I00
sg9
I5
sg10
(lp768
g208
ag292
asg26
I00
sg27
I00
sg28
I4228862
sg19
S'14071.4239419'
p769
sba(igraph
Edge
p770
(dp771
g7
I1
sg8
I00
sg9
I5
sg10
(lp772
g215
ag292
asg26
I00
sg27
I00
sg28
I4228863
sg19
S'14071.4269674'
p773
sba(igraph
Edge
p774
(dp775
g7
I1
sg8
I00
sg9
I5
sg10
(lp776
g222
ag306
asg26
I00
sg27
I00
sg28
I4228864
sg19
S'14071.4299812'
p777
sba(igraph
Edge
p778
(dp779
g7
I1
sg8
I00
sg9
I5
sg10
(lp780
g229
ag306
asg26
I00
sg27
I00
sg28
I4228865
sg19
S'14071.4330743'
p781
sba(igraph
Edge
p782
(dp783
g7
I1
sg8
I00
sg9
I5
sg10
(lp784
g236
ag320
asg26
I00
sg27
I00
sg28
I4228866
sg19
S'14071.4361295'
p785
sba(igraph
Edge
p786
(dp787
g7
I1
sg8
I00
sg9
I5
sg10
(lp788
g243
ag320
asg26
I00
sg27
I00
sg28
I4228867
sg19
S'14071.4393061'
p789
sba(igraph
Edge
p790
(dp791
g7
I1
sg8
I00
sg9
I5
sg10
(lp792
g177
ag257
asg26
I00
sg27
I00
sg28
I4228868
sg19
S'14071.4424515'
p793
sba(igraph
Edge
p794
(dp795
g7
I1
sg8
I00
sg9
I5
sg10
(lp796
g180
ag257
asg26
I00
sg27
I00
sg28
I4228869
sg19
S'14071.4455759'
p797
sba(igraph
Edge
p798
(dp799
g7
I1
sg8
I00
sg9
I5
sg10
(lp800
g187
ag271
asg26
I00
sg27
I00
sg28
I4228870
sg19
S'14071.4487693'
p801
sba(igraph
Edge
p802
(dp803
g7
I1
sg8
I00
sg9
I5
sg10
(lp804
g194
ag271
asg26
I00
sg27
I00
sg28
I4228871
sg19
S'14071.4519533'
p805
sba(igraph
Edge
p806
(dp807
g7
I1
sg8
I00
sg9
I5
sg10
(lp808
g201
ag285
asg26
I00
sg27
I00
sg28
I4228872
sg19
S'14071.4551324'
p809
sba(igraph
Edge
p810
(dp811
g7
I1
sg8
I00
sg9
I5
sg10
(lp812
g208
ag285
asg26
I00
sg27
I00
sg28
I4228873
sg19
S'14071.4583122'
p813
sba(igraph
Edge
p814
(dp815
g7
I1
sg8
I00
sg9
I5
sg10
(lp816
g215
ag299
asg26
I00
sg27
I00
sg28
I4228874
sg19
S'14071.4615047'
p817
sba(igraph
Edge
p818
(dp819
g7
I1
sg8
I00
sg9
I5
sg10
(lp820
g222
ag299
asg26
I00
sg27
I00
sg28
I4228875
sg19
S'14071.4647292'
p821
sba(igraph
Edge
p822
(dp823
g7
I1
sg8
I00
sg9
I5
sg10
(lp824
g229
ag313
asg26
I00
sg27
I00
sg28
I4228876
sg19
S'14071.4680327'
p825
sba(igraph
Edge
p826
(dp827
g7
I1
sg8
I00
sg9
I5
sg10
(lp828
g236
ag313
asg26
I00
sg27
I00
sg28
I4228877
sg19
S'14071.4713666'
p829
sba(igraph
Edge
p830
(dp831
g7
I1
sg8
I00
sg9
I5
sg10
(lp832
g243
ag254
asg26
I00
sg27
I00
sg28
I4228878
sg19
S'14071.4746483'
p833
sba(igraph
Edge
p834
(dp835
g7
I1
sg8
I00
sg9
I5
sg10
(lp836
g254
ag331
asg26
I00
sg27
I00
sg28
I4228879
sg19
S'14071.4780596'
p837
sba(igraph
Edge
p838
(dp839
g7
I1
sg8
I00
sg9
I5
sg10
(lp840
g257
ag341
asg26
I00
sg27
I00
sg28
I4228880
sg19
S'14071.4813813'
p841
sba(igraph
Edge
p842
(dp843
g7
I1
sg8
I00
sg9
I5
sg10
(lp844
g264
ag341
asg26
I00
sg27
I00
sg28
I4228881
sg19
S'14071.484734'
p845
sba(igraph
Edge
p846
(dp847
g7
I1
sg8
I00
sg9
I5
sg10
(lp848
g271
ag355
asg26
I00
sg27
I00
sg28
I4228882
sg19
S'14071.4881171'
p849
sba(igraph
Edge
p850
(dp851
g7
I1
sg8
I00
sg9
I5
sg10
(lp852
g278
ag355
asg26
I00
sg27
I00
sg28
I4228883
sg19
S'14071.4915038'
p853
sba(igraph
Edge
p854
(dp855
g7
I1
sg8
I00
sg9
I5
sg10
(lp856
g285
ag369
asg26
I00
sg27
I00
sg28
I4228884
sg19
S'14071.494954'
p857
sba(igraph
Edge
p858
(dp859
g7
I1
sg8
I00
sg9
I5
sg10
(lp860
g292
ag369
asg26
I00
sg27
I00
sg28
I4228885
sg19
S'14071.4983494'
p861
sba(igraph
Edge
p862
(dp863
g7
I1
sg8
I00
sg9
I5
sg10
(lp864
g299
ag383
asg26
I00
sg27
I00
sg28
I4228886
sg19
S'14071.5017808'
p865
sba(igraph
Edge
p866
(dp867
g7
I1
sg8
I00
sg9
I5
sg10
(lp868
g306
ag383
asg26
I00
sg27
I00
sg28
I4228887
sg19
S'14071.5053218'
p869
sba(igraph
Edge
p870
(dp871
g7
I1
sg8
I00
sg9
I5
sg10
(lp872
g313
ag397
asg26
I00
sg27
I00
sg28
I4228888
sg19
S'14071.509001'
p873
sba(igraph
Edge
p874
(dp875
g7
I1
sg8
I00
sg9
I5
sg10
(lp876
g320
ag397
asg26
I00
sg27
I00
sg28
I4228889
sg19
S'14071.5125936'
p877
sba(igraph
Edge
p878
(dp879
g7
I1
sg8
I00
sg9
I5
sg10
(lp880
g254
ag334
asg26
I00
sg27
I00
sg28
I4228890
sg19
S'14071.5161561'
p881
sba(igraph
Edge
p882
(dp883
g7
I1
sg8
I00
sg9
I5
sg10
(lp884
g257
ag334
asg26
I00
sg27
I00
sg28
I4228891
sg19
S'14071.5197342'
p885
sba(igraph
Edge
p886
(dp887
g7
I1
sg8
I00
sg9
I5
sg10
(lp888
g264
ag348
asg26
I00
sg27
I00
sg28
I4228892
sg19
S'14071.5233696'
p889
sba(igraph
Edge
p890
(dp891
g7
I1
sg8
I00
sg9
I5
sg10
(lp892
g271
ag348
asg26
I00
sg27
I00
sg28
I4228893
sg19
S'14071.5270533'
p893
sba(igraph
Edge
p894
(dp895
g7
I1
sg8
I00
sg9
I5
sg10
(lp896
g278
ag362
asg26
I00
sg27
I00
sg28
I4228894
sg19
S'14071.5307708'
p897
sba(igraph
Edge
p898
(dp899
g7
I1
sg8
I00
sg9
I5
sg10
(lp900
g285
ag362
asg26
I00
sg27
I00
sg28
I4228895
sg19
S'14071.5344255'
p901
sba(igraph
Edge
p902
(dp903
g7
I1
sg8
I00
sg9
I5
sg10
(lp904
g292
ag376
asg26
I00
sg27
I00
sg28
I4228896
sg19
S'14071.5383377'
p905
sba(igraph
Edge
p906
(dp907
g7
I1
sg8
I00
sg9
I5
sg10
(lp908
g299
ag376
asg26
I00
sg27
I00
sg28
I4228897
sg19
S'14071.5420739'
p909
sba(igraph
Edge
p910
(dp911
g7
I1
sg8
I00
sg9
I5
sg10
(lp912
g306
ag390
asg26
I00
sg27
I00
sg28
I4228898
sg19
S'14071.545828'
p913
sba(igraph
Edge
p914
(dp915
g7
I1
sg8
I00
sg9
I5
sg10
(lp916
g313
ag390
asg26
I00
sg27
I00
sg28
I4228899
sg19
S'14071.5497207'
p917
sba(igraph
Edge
p918
(dp919
g7
I1
sg8
I00
sg9
I5
sg10
(lp920
g320
ag331
asg26
I00
sg27
I00
sg28
I4228900
sg19
S'14071.5535366'
p921
sba(igraph
Edge
p922
(dp923
g7
I1
sg8
I00
sg9
I5
sg10
(lp924
g331
ag408
asg26
I00
sg27
I00
sg28
I4228901
sg19
S'14071.5573342'
p925
sba(igraph
Edge
p926
(dp927
g7
I1
sg8
I00
sg9
I5
sg10
(lp928
g334
ag418
asg26
I00
sg27
I00
sg28
I4228902
sg19
S'14071.5611263'
p929
sba(igraph
Edge
p930
(dp931
g7
I1
sg8
I00
sg9
I5
sg10
(lp932
g341
ag418
asg26
I00
sg27
I00
sg28
I4228903
sg19
S'14071.5649928'
p933
sba(igraph
Edge
p934
(dp935
g7
I1
sg8
I00
sg9
I5
sg10
(lp936
g348
ag432
asg26
I00
sg27
I00
sg28
I4228904
sg19
S'14071.5688472'
p937
sba(igraph
Edge
p938
(dp939
g7
I1
sg8
I00
sg9
I5
sg10
(lp940
g355
ag432
asg26
I00
sg27
I00
sg28
I4228905
sg19
S'14071.5727929'
p941
sba(igraph
Edge
p942
(dp943
g7
I1
sg8
I00
sg9
I5
sg10
(lp944
g362
ag446
asg26
I00
sg27
I00
sg28
I4228906
sg19
S'14071.5767216'
p945
sba(igraph
Edge
p946
(dp947
g7
I1
sg8
I00
sg9
I5
sg10
(lp948
g369
ag446
asg26
I00
sg27
I00
sg28
I4228907
sg19
S'14071.5810973'
p949
sba(igraph
Edge
p950
(dp951
g7
I1
sg8
I00
sg9
I5
sg10
(lp952
g376
ag460
asg26
I00
sg27
I00
sg28
I4228908
sg19
S'14071.585349'
p953
sba(igraph
Edge
p954
(dp955
g7
I1
sg8
I00
sg9
I5
sg10
(lp956
g383
ag460
asg26
I00
sg27
I00
sg28
I4228909
sg19
S'14071.58959'
p957
sba(igraph
Edge
p958
(dp959
g7
I1
sg8
I00
sg9
I5
sg10
(lp960
g390
ag474
asg26
I00
sg27
I00
sg28
I4228910
sg19
S'14071.5935866'
p961
sba(igraph
Edge
p962
(dp963
g7
I1
sg8
I00
sg9
I5
sg10
(lp964
g397
ag474
asg26
I00
sg27
I00
sg28
I4228911
sg19
S'14071.5975963'
p965
sba(igraph
Edge
p966
(dp967
g7
I1
sg8
I00
sg9
I5
sg10
(lp968
g331
ag411
asg26
I00
sg27
I00
sg28
I4228912
sg19
S'14071.601636'
p969
sba(igraph
Edge
p970
(dp971
g7
I1
sg8
I00
sg9
I5
sg10
(lp972
g334
ag411
asg26
I00
sg27
I00
sg28
I4228913
sg19
S'14071.6056971'
p973
sba(igraph
Edge
p974
(dp975
g7
I1
sg8
I00
sg9
I5
sg10
(lp976
g341
ag425
asg26
I00
sg27
I00
sg28
I4228914
sg19
S'14071.60983'
p977
sba(igraph
Edge
p978
(dp979
g7
I1
sg8
I00
sg9
I5
sg10
(lp980
g348
ag425
asg26
I00
sg27
I00
sg28
I4228915
sg19
S'14071.6140266'
p981
sba(igraph
Edge
p982
(dp983
g7
I1
sg8
I00
sg9
I5
sg10
(lp984
g355
ag439
asg26
I00
sg27
I00
sg28
I4228916
sg19
S'14071.6183286'
p985
sba(igraph
Edge
p986
(dp987
g7
I1
sg8
I00
sg9
I5
sg10
(lp988
g362
ag439
asg26
I00
sg27
I00
sg28
I4228917
sg19
S'14071.6224548'
p989
sba(igraph
Edge
p990
(dp991
g7
I1
sg8
I00
sg9
I5
sg10
(lp992
g369
ag453
asg26
I00
sg27
I00
sg28
I4228918
sg19
S'14071.6267554'
p993
sba(igraph
Edge
p994
(dp995
g7
I1
sg8
I00
sg9
I5
sg10
(lp996
g376
ag453
asg26
I00
sg27
I00
sg28
I4228919
sg19
S'14071.6309738'
p997
sba(igraph
Edge
p998
(dp999
g7
I1
sg8
I00
sg9
I5
sg10
(lp1000
g383
ag467
asg26
I00
sg27
I00
sg28
I4228920
sg19
S'14071.6352489'
p1001
sba(igraph
Edge
p1002
(dp1003
g7
I1
sg8
I00
sg9
I5
sg10
(lp1004
g390
ag467
asg26
I00
sg27
I00
sg28
I4228921
sg19
S'14071.63964'
p1005
sba(igraph
Edge
p1006
(dp1007
g7
I1
sg8
I00
sg9
I5
sg10
(lp1008
g397
ag408
asg26
I00
sg27
I00
sg28
I4228922
sg19
S'14071.6439246'
p1009
sbasS'vertices'
p1010
(lp1011
g12
ag22
ag33
ag40
ag47
ag54
ag61
ag68
ag75
ag82
ag89
ag100
ag103
ag110
ag117
ag124
ag131
ag138
ag145
ag152
ag159
ag166
ag177
ag180
ag187
ag194
ag201
ag208
ag215
ag222
ag229
ag236
ag243
ag254
ag257
ag264
ag271
ag278
ag285
ag292
ag299
ag306
ag313
ag320
ag331
ag334
ag341
ag348
ag355
ag362
ag369
ag376
ag383
ag390
ag397
ag408
ag411
ag418
ag425
ag432
ag439
ag446
ag453
ag460
ag467
ag474
asS'tags'
p1012
(lp1013
sb.