(igraph
Graph
p0
(dp1
S'labelingConstraints'
p2
I-1
sS'edges'
p3
(lp4
(igraph
Edge
p5
(dp6
S'direction'
p7
I1
sS'selected'
p8
I00
sS'altline'
p9
I4140311
sS'height'
p10
I5
sS'vs'
p11
(lp12
(igraph
Vertex
p13
(dp14
S'xnorm'
p15
F0.033756301004597748
sg8
I00
sS'label'
p16
S'NULL'
p17
sS'y'
p18
F-37.103577186240642
sS'x'
p19
F-249.88555539066894
sS'circle'
p20
I5076595
sS'id'
p21
S'2911.98579987'
p22
sS'ynorm'
p23
F0.32576181367535728
sba(igraph
Vertex
p24
(dp25
g15
F0.11836804640596578
sg8
I00
sg16
g17
sg18
F-37.103577186240642
sg19
F-206.98740047217535
sg20
I5076596
sg21
S'2911.98612785'
p26
sg23
F0.32576181367535728
sbasS'wrap'
p27
I00
sS'curved'
p28
I00
sS'line'
p29
I5076106
sg21
S'2911.99547037'
p30
sba(igraph
Edge
p31
(dp32
g7
I1
sg8
I00
sg10
I5
sg11
(lp33
g24
a(igraph
Vertex
p34
(dp35
g15
F0.20297979180733364
sg8
I00
sg16
g17
sg18
F-37.103577186240642
sg19
F-164.08924555368185
sg20
I5076597
sg21
S'2911.986498'
p36
sg23
F0.32576181367535728
sbasg27
I00
sg28
I00
sg29
I5076107
sg21
S'2911.99788688'
p37
sba(igraph
Edge
p38
(dp39
g7
I1
sg8
I00
sg10
I5
sg11
(lp40
(igraph
Vertex
p41
(dp42
g15
F0.033756301004597748
sg8
I00
sg16
g17
sg18
F5.9285912217904695
sg19
F-249.88555539066894
sg20
I5076598
sg21
S'2911.98685839'
p43
sg23
F0.39919554816005198
sba(igraph
Vertex
p44
(dp45
g15
F0.11836804640596578
sg8
I00
sg16
g17
sg18
F5.9285912217904695
sg19
F-206.98740047217535
sg20
I5076599
sg21
S'2911.98721458'
p46
sg23
F0.39919554816005198
sbasg27
I00
sg28
I00
sg29
I5076108
sg21
S'2911.99983741'
p47
sba(igraph
Edge
p48
(dp49
g7
I1
sg8
I00
sg10
I5
sg11
(lp50
g44
a(igraph
Vertex
p51
(dp52
g15
F0.20297979180733364
sg8
I00
sg16
g17
sg18
F5.9285912217904695
sg19
F-164.08924555368185
sg20
I5076600
sg21
S'2911.98759423'
p53
sg23
F0.39919554816005198
sbasg27
I00
sg28
I00
sg29
I5076109
sg21
S'2912.0022461'
p54
sba(igraph
Edge
p55
(dp56
g7
I1
sg8
I00
sg10
I5
sg11
(lp57
(igraph
Vertex
p58
(dp59
g15
F0.033683573312578374
sg8
I00
sg16
g17
sg18
F48.573638114806727
sg19
F-249.92242833052276
sg20
I5076601
sg21
S'2911.98800853'
p60
sg23
F0.47196866572492618
sba(igraph
Vertex
p61
(dp62
g15
F0.11836804640596578
sg8
I00
sg16
g17
sg18
F48.960759629821553
sg19
F-206.98740047217535
sg20
I5076602
sg21
S'2911.98842646'
p63
sg23
F0.47262928264474663
sbasg27
I00
sg28
I00
sg29
I5076110
sg21
S'2912.00426702'
p64
sba(igraph
Edge
p65
(dp66
g7
I1
sg8
I00
sg10
I5
sg11
(lp67
g61
a(igraph
Vertex
p68
(dp69
g15
F0.20297979180733364
sg8
I00
sg16
g17
sg18
F48.960759629821553
sg19
F-164.08924555368185
sg20
I5076603
sg21
S'2911.9888578'
p70
sg23
F0.47262928264474663
sbasg27
I00
sg28
I00
sg29
I5076111
sg21
S'2912.00635192'
p71
sba(igraph
Edge
p72
(dp73
g7
I1
sg8
I00
sg10
I5
sg11
(lp74
g13
ag41
asg27
I00
sg28
I00
sg29
I5076112
sg21
S'2912.00885029'
p75
sba(igraph
Edge
p76
(dp77
g7
I1
sg8
I00
sg10
I5
sg11
(lp78
g24
ag44
asg27
I00
sg28
I00
sg29
I5076113
sg21
S'2912.01106845'
p79
sba(igraph
Edge
p80
(dp81
g7
I1
sg8
I00
sg10
I5
sg11
(lp82
g34
ag51
asg27
I00
sg28
I00
sg29
I5076114
sg21
S'2912.013326'
p83
sba(igraph
Edge
p84
(dp85
g7
F-1.0
sS'h'
p86
F-338.57146023677672
sS'k'
p87
F-52.936850376525989
sg8
I00
sg10
F3.278651083278433
sS'start'
p88
F15.739964550921378
sg11
(lp89
g41
ag58
asS'extent'
p90
F-31.56925470721599
sg27
I00
sg28
I0
sg29
I5076115
sS'r'
p91
F86.946144879335023
sg21
S'2912.01575116'
p92
sba(igraph
Edge
p93
(dp94
g7
I1
sg8
I00
sg10
I5
sg11
(lp95
g44
ag61
asg27
I00
sg28
I00
sg29
I5076116
sg21
S'2912.01813275'
p96
sba(igraph
Edge
p97
(dp98
g7
I1
sg8
I00
sg10
I5
sg11
(lp99
g51
ag68
asg27
I00
sg28
I00
sg29
I5076117
sg21
S'2912.02063056'
p100
sba(igraph
Edge
p101
(dp102
g7
I1
sg8
I00
sg10
I5
sg11
(lp103
g24
ag41
asg27
I00
sg28
I00
sg29
I5076118
sg21
S'2912.02306271'
p104
sba(igraph
Edge
p105
(dp106
g7
I1
sg8
I00
sg10
I5
sg11
(lp107
g44
ag58
asg27
I00
sg28
I00
sg29
I5076119
sg21
S'2912.02596978'
p108
sba(igraph
Edge
p109
(dp110
g7
I1
sg8
I00
sg10
I5
sg11
(lp111
g34
ag44
asg27
I00
sg28
I00
sg29
I5076120
sg21
S'2912.02846898'
p112
sba(igraph
Edge
p113
(dp114
g7
I1
sg8
I00
sg10
I5
sg11
(lp115
g51
ag61
asg27
I00
sg28
I00
sg29
I5076121
sg21
S'2912.03101986'
p116
sba(igraph
Edge
p117
(dp118
g7
I1
sg8
I00
sg10
I5
sg11
(lp119
(igraph
Vertex
p120
(dp121
g15
F0.29428780417604911
sg8
I00
sg16
g17
sg18
F-37.151097372212746
sg19
F-117.7960832827431
sg20
I5076604
sg21
S'2911.98929585'
p122
sg23
F0.32568072120782809
sba(igraph
Vertex
p123
(dp124
g15
F0.37889954957741701
sg8
I00
sg16
g17
sg18
F-37.151097372212746
sg19
F-74.897928364249566
sg20
I5076605
sg21
S'2911.98976406'
p125
sg23
F0.32568072120782809
sbasg27
I00
sg28
I00
sg29
I5076122
sg21
S'2912.03616577'
p126
sba(igraph
Edge
p127
(dp128
g7
I1
sg8
I00
sg10
I5
sg11
(lp129
g123
a(igraph
Vertex
p130
(dp131
g15
F0.46351129497878496
sg8
I00
sg16
g17
sg18
F-37.151097372212746
sg19
F-31.999773445756034
sg20
I5076606
sg21
S'2911.99023256'
p132
sg23
F0.32568072120782809
sbasg27
I00
sg28
I00
sg29
I5076123
sg21
S'2912.03889545'
p133
sba(igraph
Edge
p134
(dp135
g7
I1
sg8
I00
sg10
I5
sg11
(lp136
(igraph
Vertex
p137
(dp138
g15
F0.29428780417604911
sg8
I00
sg16
g17
sg18
F5.8810710358183655
sg19
F-117.7960832827431
sg20
I5076607
sg21
S'2911.99076223'
p139
sg23
F0.3991144556925228
sba(igraph
Vertex
p140
(dp141
g15
F0.37889954957741701
sg8
I00
sg16
g17
sg18
F5.8810710358183655
sg19
F-74.897928364249566
sg20
I5076608
sg21
S'2911.99138969'
p142
sg23
F0.3991144556925228
sbasg27
I00
sg28
I00
sg29
I5076124
sg21
S'2912.04172597'
p143
sba(igraph
Edge
p144
(dp145
g7
I1
sg8
I00
sg10
I5
sg11
(lp146
g140
a(igraph
Vertex
p147
(dp148
g15
F0.46351129497878496
sg8
I00
sg16
g17
sg18
F5.8810710358183655
sg19
F-31.999773445756034
sg20
I5076609
sg21
S'2911.99194311'
p149
sg23
F0.3991144556925228
sbasg27
I00
sg28
I00
sg29
I5076125
sg21
S'2912.04446962'
p150
sba(igraph
Edge
p151
(dp152
g7
I1
sg8
I00
sg10
I5
sg11
(lp153
(igraph
Vertex
p154
(dp155
g15
F0.29428780417604911
sg8
I00
sg16
g17
sg18
F48.91323944384942
sg19
F-117.7960832827431
sg20
I5076610
sg21
S'2911.99247614'
p156
sg23
F0.47254819017721744
sba(igraph
Vertex
p157
(dp158
g15
F0.37889954957741701
sg8
I00
sg16
g17
sg18
F48.91323944384942
sg19
F-74.897928364249566
sg20
I5076611
sg21
S'2911.99302928'
p159
sg23
F0.47254819017721744
sbasg27
I00
sg28
I00
sg29
I5076126
sg21
S'2912.04724874'
p160
sba(igraph
Edge
p161
(dp162
g7
I1
sg8
I00
sg10
I5
sg11
(lp163
g157
a(igraph
Vertex
p164
(dp165
g15
F0.46351129497878496
sg8
I00
sg16
I0
sg18
F48.91323944384942
sg19
F-31.999773445756034
sg20
I5076612
sg21
S'2911.993595'
p166
sg23
F0.47254819017721744
sbasg27
I00
sg28
I00
sg29
I5076127
sg21
S'2912.05014269'
p167
sba(igraph
Edge
p168
(dp169
g7
I1
sg8
I00
sg10
I5
sg11
(lp170
g120
ag137
asg27
I00
sg28
I00
sg29
I5076128
sg21
S'2912.05304473'
p171
sba(igraph
Edge
p172
(dp173
g7
I1
sg8
I00
sg10
I5
sg11
(lp174
g123
ag140
asg27
I00
sg28
I00
sg29
I5076129
sg21
S'2912.05606774'
p175
sba(igraph
Edge
p176
(dp177
g7
I1
sg8
I00
sg10
I5
sg11
(lp178
g130
ag147
asg27
I00
sg28
I00
sg29
I5076130
sg21
S'2912.05904857'
p179
sba(igraph
Edge
p180
(dp181
g7
I1
sg8
I00
sg10
I5
sg11
(lp182
g137
ag154
asg27
I00
sg28
I00
sg29
I5076131
sg21
S'2912.06216041'
p183
sba(igraph
Edge
p184
(dp185
g7
I1
sg8
I00
sg10
I5
sg11
(lp186
g140
ag157
asg27
I00
sg28
I00
sg29
I5076132
sg21
S'2912.06525271'
p187
sba(igraph
Edge
p188
(dp189
g7
I1
sg8
I00
sg10
I5
sg11
(lp190
g147
ag164
asg27
I00
sg28
I00
sg29
I5076133
sg21
S'2912.06851737'
p191
sba(igraph
Edge
p192
(dp193
g7
I1
sg8
I00
sg10
I5
sg11
(lp194
g123
ag137
asg27
I00
sg28
I00
sg29
I5076134
sg21
S'2912.07109842'
p195
sba(igraph
Edge
p196
(dp197
g7
I1
sg8
I00
sg10
I5
sg11
(lp198
g140
ag154
asg27
I00
sg28
I00
sg29
I5076135
sg21
S'2912.07266901'
p199
sba(igraph
Edge
p200
(dp201
g7
I1
sg8
I00
sg10
I5
sg11
(lp202
g130
ag140
asg27
I00
sg28
I00
sg29
I5076136
sg21
S'2912.07418038'
p203
sba(igraph
Edge
p204
(dp205
g7
I1
sg8
I00
sg10
I5
sg11
(lp206
g147
ag157
asg27
I00
sg28
I00
sg29
I5076137
sg21
S'2912.07579399'
p207
sba(igraph
Edge
p208
(dp209
g7
I1
sg8
I00
sg10
I5
sg11
(lp210
g34
ag120
asg27
I00
sg28
I00
sg29
I5076138
sg21
S'2912.0775322'
p211
sba(igraph
Edge
p212
(dp213
g7
I1
sg8
I00
sg10
I5
sg11
(lp214
g51
ag120
asg27
I00
sg28
I00
sg29
I5076139
sg21
S'2912.07912095'
p215
sba(igraph
Edge
p216
(dp217
g7
I1
sg8
I00
sg10
I5
sg11
(lp218
g51
ag137
asg27
I00
sg28
I00
sg29
I5076140
sg21
S'2912.08071752'
p219
sba(igraph
Edge
p220
(dp221
g7
I1
sg8
I00
sg10
I5
sg11
(lp222
g68
ag137
asg27
I00
sg28
I00
sg29
I5076141
sg21
S'2912.08236717'
p223
sba(igraph
Edge
p224
(dp225
g7
I1
sg8
I00
sg10
I5
sg11
(lp226
g68
ag154
asg27
I00
sg28
I00
sg29
I5076142
sg21
S'2912.08403498'
p227
sba(igraph
Edge
p228
(dp229
g7
I1
sg8
I00
sg10
I5
sg11
(lp230
(igraph
Vertex
p231
(dp232
g15
F0.55216245378639461
sg8
I00
sg16
I0
sg18
F-37.277297866103112
sg19
F12.946364069702042
sg20
I5076614
sg21
S'3008.77282336'
p233
sg23
F0.325465362003237
sba(igraph
Vertex
p234
(dp235
g15
F0.63677419918776257
sg8
I00
sg16
g17
sg18
F-37.277297866103112
sg19
F55.844518988195603
sg20
I5076616
sg21
S'3008.77375141'
p236
sg23
F0.325465362003237
sbasg27
I00
sg28
I00
sg29
I5076143
sg21
S'3008.92055024'
p237
sba(igraph
Edge
p238
(dp239
g7
I1
sg8
I00
sg10
I5
sg11
(lp240
g234
a(igraph
Vertex
p241
(dp242
g15
F0.72138594458913041
sg8
I00
sg16
g17
sg18
F-37.277297866103112
sg19
F98.742673906689106
sg20
I5076617
sg21
S'3008.77482809'
p243
sg23
F0.325465362003237
sbasg27
I00
sg28
I00
sg29
I5076144
sg21
S'3008.92333439'
p244
sba(igraph
Edge
p245
(dp246
g7
I1
sg8
I00
sg10
I5
sg11
(lp247
(igraph
Vertex
p248
(dp249
g15
F0.55216245378639461
sg8
I00
sg16
g17
sg18
F5.7548705419279145
sg19
F12.946364069702042
sg20
I5076618
sg21
S'3008.77591482'
p250
sg23
F0.39889909648793159
sba(igraph
Vertex
p251
(dp252
g15
F0.63677419918776257
sg8
I00
sg16
I0
sg18
F5.7548705419279145
sg19
F55.844518988195603
sg20
I5076619
sg21
S'3008.776944'
p253
sg23
F0.39889909648793159
sbasg27
I00
sg28
I00
sg29
I5076145
sg21
S'3008.92611798'
p254
sba(igraph
Edge
p255
(dp256
g7
I1
sg8
I00
sg10
I5
sg11
(lp257
g251
a(igraph
Vertex
p258
(dp259
g15
F0.72138594458913041
sg8
I00
sg16
g17
sg18
F5.7548705419279145
sg19
F98.742673906689106
sg20
I5076621
sg21
S'3008.7780324'
p260
sg23
F0.39889909648793159
sbasg27
I00
sg28
I00
sg29
I5076146
sg21
S'3008.9289203'
p261
sba(igraph
Edge
p262
(dp263
g7
I1
sg8
I00
sg10
I5
sg11
(lp264
(igraph
Vertex
p265
(dp266
g15
F0.55216245378639461
sg8
I00
sg16
g17
sg18
F48.787038949959026
sg19
F12.946364069702042
sg20
I5076622
sg21
S'3008.77903951'
p267
sg23
F0.47233283097262635
sba(igraph
Vertex
p268
(dp269
g15
F0.63677419918776257
sg8
I00
sg16
g17
sg18
F48.787038949959026
sg19
F55.844518988195603
sg20
I5076623
sg21
S'3008.78006367'
p270
sg23
F0.47233283097262635
sbasg27
I00
sg28
I00
sg29
I5076147
sg21
S'3008.9317159'
p271
sba(igraph
Edge
p272
(dp273
g7
I1
sg8
I00
sg10
I5
sg11
(lp274
g268
a(igraph
Vertex
p275
(dp276
g15
F0.72138594458913041
sg8
I00
sg16
g17
sg18
F48.787038949959026
sg19
F98.742673906689106
sg20
I5076624
sg21
S'3008.78111073'
p277
sg23
F0.47233283097262635
sbasg27
I00
sg28
I00
sg29
I5076148
sg21
S'3008.93453665'
p278
sba(igraph
Edge
p279
(dp280
g7
I1
sg8
I00
sg10
I5
sg11
(lp281
g231
ag248
asg27
I00
sg28
I00
sg29
I5076149
sg21
S'3008.93741607'
p282
sba(igraph
Edge
p283
(dp284
g7
I1
sg8
I00
sg10
I5
sg11
(lp285
g234
ag251
asg27
I00
sg28
I00
sg29
I5076150
sg21
S'3008.94032258'
p286
sba(igraph
Edge
p287
(dp288
g7
I1
sg8
I00
sg10
I5
sg11
(lp289
g241
ag258
asg27
I00
sg28
I00
sg29
I5076151
sg21
S'3008.94320647'
p290
sba(igraph
Edge
p291
(dp292
g7
I1
sg8
I00
sg10
I5
sg11
(lp293
g248
ag265
asg27
I00
sg28
I00
sg29
I5076152
sg21
S'3008.9461426'
p294
sba(igraph
Edge
p295
(dp296
g7
I1
sg8
I00
sg10
I5
sg11
(lp297
g251
ag268
asg27
I00
sg28
I00
sg29
I5076153
sg21
S'3008.94909549'
p298
sba(igraph
Edge
p299
(dp300
g7
I1
sg8
I00
sg10
I5
sg11
(lp301
g258
ag275
asg27
I00
sg28
I00
sg29
I5076154
sg21
S'3008.95204865'
p302
sba(igraph
Edge
p303
(dp304
g7
I1
sg8
I00
sg10
I5
sg11
(lp305
g234
ag248
asg27
I00
sg28
I00
sg29
I5076155
sg21
S'3008.95534907'
p306
sba(igraph
Edge
p307
(dp308
g7
I1
sg8
I00
sg10
I5
sg11
(lp309
g251
ag265
asg27
I00
sg28
I00
sg29
I5076156
sg21
S'3008.95834219'
p310
sba(igraph
Edge
p311
(dp312
g7
I1
sg8
I00
sg10
I5
sg11
(lp313
g241
ag251
asg27
I00
sg28
I00
sg29
I5076157
sg21
S'3008.96141353'
p314
sba(igraph
Edge
p315
(dp316
g7
I1
sg8
I00
sg10
I5
sg11
(lp317
g258
ag268
asg27
I00
sg28
I00
sg29
I5076158
sg21
S'3008.96476256'
p318
sba(igraph
Edge
p319
(dp320
g7
I1
sg8
I00
sg10
I5
sg11
(lp321
(igraph
Vertex
p322
(dp323
g15
F0.81269395695784596
sg8
I00
sg16
I0
sg18
F-37.324818052075187
sg19
F145.03583617762791
sg20
I5076625
sg21
S'3008.78235614'
p324
sg23
F0.32538426953570787
sba(igraph
Vertex
p325
(dp326
g15
F0.81269395695784596
sg8
I00
sg16
g17
sg18
F5.7073503559558674
sg19
F145.03583617762791
sg20
I5076627
sg21
S'3008.78560627'
p327
sg23
F0.39881800402040252
sbasg27
I00
sg28
I00
sg29
I5076159
sg21
S'3008.98811441'
p328
sba(igraph
Edge
p329
(dp330
g7
I1
sg8
I00
sg10
I5
sg11
(lp331
g325
a(igraph
Vertex
p332
(dp333
g15
F0.81269395695784596
sg8
I00
sg16
g17
sg18
F48.739518763987007
sg19
F145.03583617762791
sg20
I5076628
sg21
S'3008.78911957'
p334
sg23
F0.47225173850509727
sbasg27
I00
sg28
I00
sg29
I5076160
sg21
S'3008.99814083'
p335
sba(igraph
Edge
p336
(dp337
g7
I1
sg8
I00
sg10
I5
sg11
(lp338
g241
ag322
asg27
I00
sg28
I00
sg29
I5076161
sg21
S'3009.02246012'
p339
sba(igraph
Edge
p340
(dp341
g7
I1
sg8
I00
sg10
I5
sg11
(lp342
g258
ag322
asg27
I00
sg28
I00
sg29
I5076162
sg21
S'3009.02586306'
p343
sba(igraph
Edge
p344
(dp345
g7
I1
sg8
I00
sg10
I5
sg11
(lp346
g258
ag325
asg27
I00
sg28
I00
sg29
I5076163
sg21
S'3009.02933194'
p347
sba(igraph
Edge
p348
(dp349
g7
I1
sg8
I00
sg10
I5
sg11
(lp350
g275
ag325
asg27
I00
sg28
I00
sg29
I5076164
sg21
S'3009.03281786'
p351
sba(igraph
Edge
p352
(dp353
g7
I1
sg8
I00
sg10
I5
sg11
(lp354
g275
ag332
asg27
I00
sg28
I00
sg29
I5076165
sg21
S'3009.03639876'
p355
sba(igraph
Edge
p356
(dp357
g7
I1
sg8
I00
sg10
I5
sg11
(lp358
g130
ag231
asg27
I00
sg28
I00
sg29
I5076166
sg21
S'3035.77562875'
p359
sba(igraph
Edge
p360
(dp361
g7
I1
sg8
I00
sg10
I5
sg11
(lp362
g147
ag231
asg27
I00
sg28
I00
sg29
I5076167
sg21
S'3035.7801296'
p363
sba(igraph
Edge
p364
(dp365
g7
I1
sg8
I00
sg10
I5
sg11
(lp366
g147
ag248
asg27
I00
sg28
I00
sg29
I5076168
sg21
S'3041.76099141'
p367
sba(igraph
Edge
p368
(dp369
g7
I1
sg8
I00
sg10
I5
sg11
(lp370
g164
ag248
asg27
I00
sg28
I00
sg29
I5076169
sg21
S'3041.76639908'
p371
sba(igraph
Edge
p372
(dp373
g7
I1
sg8
I00
sg10
I5
sg11
(lp374
g164
ag265
asg27
I00
sg28
I00
sg29
I5076170
sg21
S'3045.8820311'
p375
sba(igraph
Edge
p376
(dp377
g7
I1
sg8
I00
sg9
I4081946
sg10
I5
sg11
(lp378
(igraph
Vertex
p379
(dp380
g15
F0.034795166266978358
sg8
I00
sg16
g17
sg18
F-75.650218439990255
sg19
F-249.35885070264197
sg20
I5076629
sg21
S'7983.87495478'
p381
sg23
F0.25998256238909512
sba(igraph
Vertex
p382
(dp383
g15
F0.11940691166834644
sg8
I00
sg16
g17
sg18
F-75.650218439990255
sg19
F-206.46069578414836
sg20
I5076630
sg21
S'7983.87539813'
p384
sg23
F0.25998256238909512
sbasg27
I00
sg28
I00
sg29
I5076171
sg21
S'7983.89368844'
p385
sba(igraph
Edge
p386
(dp387
g7
I1
sg8
I00
sg10
I5
sg11
(lp388
g382
a(igraph
Vertex
p389
(dp390
g15
F0.20401865706971428
sg8
I00
sg16
g17
sg18
F-75.650218439990255
sg19
F-163.56254086565485
sg20
I5076631
sg21
S'7983.87585908'
p391
sg23
F0.25998256238909512
sbasg27
I00
sg28
I00
sg29
I5076172
sg21
S'7983.89639801'
p392
sba(igraph
Edge
p393
(dp394
g7
I1
sg8
I00
sg10
I5
sg11
(lp395
(igraph
Vertex
p396
(dp397
g15
F0.29532666943842978
sg8
I00
sg16
g17
sg18
F-75.697738625962359
sg19
F-117.2693785947161
sg20
I5076632
sg21
S'7983.87770513'
p398
sg23
F0.25990146992156593
sba(igraph
Vertex
p399
(dp400
g15
F0.37993841483979762
sg8
I00
sg16
g17
sg18
F-75.697738625962359
sg19
F-74.371223676222598
sg20
I5076633
sg21
S'7983.87821218'
p401
sg23
F0.25990146992156593
sbasg27
I00
sg28
I00
sg29
I5076173
sg21
S'7983.92046224'
p402
sba(igraph
Edge
p403
(dp404
g7
I1
sg8
I00
sg10
I5
sg11
(lp405
g399
a(igraph
Vertex
p406
(dp407
g15
F0.46455016024116563
sg8
I00
sg16
g17
sg18
F-75.697738625962359
sg19
F-31.473068757729038
sg20
I5076634
sg21
S'7983.87869631'
p408
sg23
F0.25990146992156593
sbasg27
I00
sg28
I00
sg29
I5076174
sg21
S'7983.92356654'
p409
sba(igraph
Edge
p410
(dp411
g7
I1
sg8
I00
sg10
I5
sg11
(lp412
g389
ag396
asg27
I00
sg28
I00
sg29
I5076175
sg21
S'7983.94902173'
p413
sba(igraph
Edge
p414
(dp415
g7
I1
sg8
I00
sg10
I5
sg11
(lp416
(igraph
Vertex
p417
(dp418
g15
F0.55320131904877523
sg8
I00
sg16
g17
sg18
F-75.823939119852781
sg19
F13.473068757729038
sg20
I5076635
sg21
S'7983.88071221'
p419
sg23
F0.25968611071697478
sba(igraph
Vertex
p420
(dp421
g15
F0.63781306445014319
sg8
I00
sg16
g17
sg18
F-75.823939119852781
sg19
F56.371223676222598
sg20
I5076636
sg21
S'7983.88124021'
p422
sg23
F0.25968611071697478
sbasg27
I00
sg28
I00
sg29
I5076176
sg21
S'7983.95862742'
p423
sba(igraph
Edge
p424
(dp425
g7
I1
sg8
I00
sg10
I5
sg11
(lp426
g420
a(igraph
Vertex
p427
(dp428
g15
F0.72242480985151103
sg8
I00
sg16
g17
sg18
F-75.823939119852781
sg19
F99.269378594716102
sg20
I5076637
sg21
S'7983.8818375'
p429
sg23
F0.25968611071697478
sbasg27
I00
sg28
I00
sg29
I5076177
sg21
S'7983.96178313'
p430
sba(igraph
Edge
p431
(dp432
g7
I1
sg8
I00
sg10
I5
sg11
(lp433
g427
a(igraph
Vertex
p434
(dp435
g15
F0.81373282222022669
sg8
I00
sg16
g17
sg18
F-75.871459305824857
sg19
F145.56254086565491
sg20
I5076638
sg21
S'7983.88410622'
p436
sg23
F0.25960501824944565
sbasg27
I00
sg28
I00
sg29
I5076178
sg21
S'7984.02246794'
p437
sba(igraph
Edge
p438
(dp439
g7
I1
sg8
I00
sg10
I5
sg11
(lp440
g406
ag417
asg27
I00
sg28
I00
sg29
I5076179
sg21
S'7984.0346667'
p441
sba(igraph
Edge
p442
(dp443
g7
I1
sg8
I00
sg10
I5
sg11
(lp444
g13
ag379
asg27
I00
sg28
I00
sg29
I5076180
sg21
S'7996.60052325'
p445
sba(igraph
Edge
p446
(dp447
g7
I1
sg8
I00
sg10
I5
sg11
(lp448
g13
ag382
asg27
I00
sg28
I00
sg29
I5076181
sg21
S'7996.60324818'
p449
sba(igraph
Edge
p450
(dp451
g7
I1
sg8
I00
sg10
I5
sg11
(lp452
g24
ag382
asg27
I00
sg28
I00
sg29
I5076182
sg21
S'8002.44703587'
p453
sba(igraph
Edge
p454
(dp455
g7
I1
sg8
I00
sg10
I5
sg11
(lp456
g24
ag389
asg27
I00
sg28
I00
sg29
I5076183
sg21
S'8002.44896181'
p457
sba(igraph
Edge
p458
(dp459
g7
I1
sg8
I00
sg10
I5
sg11
(lp460
g34
ag389
asg27
I00
sg28
I00
sg29
I5076184
sg21
S'8009.81415068'
p461
sba(igraph
Edge
p462
(dp463
g7
I1
sg8
I00
sg10
I5
sg11
(lp464
g34
ag396
asg27
I00
sg28
I00
sg29
I5076185
sg21
S'8009.8160878'
p465
sba(igraph
Edge
p466
(dp467
g7
I1
sg8
I00
sg10
I5
sg11
(lp468
g120
ag396
asg27
I00
sg28
I00
sg29
I5076186
sg21
S'8015.10353858'
p469
sba(igraph
Edge
p470
(dp471
g7
I1
sg8
I00
sg10
I5
sg11
(lp472
g120
ag399
asg27
I00
sg28
I00
sg29
I5076187
sg21
S'8015.1072343'
p473
sba(igraph
Edge
p474
(dp475
g7
I1
sg8
I00
sg10
I5
sg11
(lp476
g123
ag399
asg27
I00
sg28
I00
sg29
I5076188
sg21
S'8021.03128973'
p477
sba(igraph
Edge
p478
(dp479
g7
I1
sg8
I00
sg10
I5
sg11
(lp480
g123
ag406
asg27
I00
sg28
I00
sg29
I5076189
sg21
S'8021.03325814'
p481
sba(igraph
Edge
p482
(dp483
g7
I1
sg8
I00
sg10
I5
sg11
(lp484
g130
ag406
asg27
I00
sg28
I00
sg29
I5076190
sg21
S'8029.32654038'
p485
sba(igraph
Edge
p486
(dp487
g7
I1
sg8
I00
sg10
I5
sg11
(lp488
g130
ag417
asg27
I00
sg28
I00
sg29
I5076191
sg21
S'8029.33093703'
p489
sba(igraph
Edge
p490
(dp491
g7
I1
sg8
I00
sg10
I5
sg11
(lp492
g231
ag417
asg27
I00
sg28
I00
sg29
I5076192
sg21
S'8035.08258061'
p493
sba(igraph
Edge
p494
(dp495
g7
I1
sg8
I00
sg10
I5
sg11
(lp496
g231
ag420
asg27
I00
sg28
I00
sg29
I5076193
sg21
S'8035.08502868'
p497
sba(igraph
Edge
p498
(dp499
g7
I1
sg8
I00
sg10
I5
sg11
(lp500
g234
ag420
asg27
I00
sg28
I00
sg29
I5076194
sg21
S'8041.70945553'
p501
sba(igraph
Edge
p502
(dp503
g7
I1
sg8
I00
sg10
I5
sg11
(lp504
g234
ag427
asg27
I00
sg28
I00
sg29
I5076195
sg21
S'8041.71219359'
p505
sba(igraph
Edge
p506
(dp507
g7
I1
sg8
I00
sg10
I5
sg11
(lp508
g241
ag427
asg27
I00
sg28
I00
sg29
I5076196
sg21
S'8047.54928126'
p509
sba(igraph
Edge
p510
(dp511
g7
I1
sg8
I00
sg10
I5
sg11
(lp512
g241
ag434
asg27
I00
sg28
I00
sg29
I5076197
sg21
S'8047.55383017'
p513
sba(igraph
Edge
p514
(dp515
g7
I1
sg8
I00
sg10
I5
sg11
(lp516
g322
ag434
asg27
I00
sg28
I00
sg29
I5076198
sg21
S'8053.40780379'
p517
sba(igraph
Edge
p518
(dp519
g7
I1
sg8
I00
sg10
I5
sg11
(lp520
(igraph
Vertex
p521
(dp522
g15
F0.033744897882705502
sg8
I00
sg16
g17
sg18
F87.769920844286389
sg19
F-249.89133677346831
sg20
I5076639
sg21
S'10438.1616521'
p523
sg23
F0.53885652021209285
sba(igraph
Vertex
p524
(dp525
g15
F0.11835664328407358
sg8
I00
sg16
g17
sg18
F87.769920844286389
sg19
F-206.99318185497469
sg20
I5076640
sg21
S'10438.1628682'
p526
sg23
F0.53885652021209285
sbasg27
I00
sg28
I00
sg29
I5076199
sg21
S'10438.2003076'
p527
sba(igraph
Edge
p528
(dp529
g7
I1
sg8
I00
sg10
I5
sg11
(lp530
g524
a(igraph
Vertex
p531
(dp532
g15
F0.20296838868544145
sg8
I00
sg16
g17
sg18
F87.769920844286389
sg19
F-164.09502693648119
sg20
I5076641
sg21
S'10438.1640488'
p533
sg23
F0.53885652021209285
sbasg27
I00
sg28
I00
sg29
I5076200
sg21
S'10438.2093305'
p534
sba(igraph
Edge
p535
(dp536
g7
I1
sg8
I00
sg10
I5
sg11
(lp537
(igraph
Vertex
p538
(dp539
g15
F0.29427640105415692
sg8
I00
sg16
I0
sg18
F87.722400658314257
sg19
F-117.80186466554244
sg20
I5076642
sg21
S'10438.1698423'
p540
sg23
F0.53877542774456355
sba(igraph
Vertex
p541
(dp542
g15
F0.37888814645552488
sg8
I00
sg16
g17
sg18
F87.722400658314257
sg19
F-74.903709747048879
sg20
I5076644
sg21
S'10438.1711438'
p543
sg23
F0.53877542774456355
sbasg27
I00
sg28
I00
sg29
I5076201
sg21
S'10438.2875701'
p544
sba(igraph
Edge
p545
(dp546
g7
I1
sg8
I00
sg10
I5
sg11
(lp547
g541
a(igraph
Vertex
p548
(dp549
g15
F0.46349989185689278
sg8
I00
sg16
g17
sg18
F87.722400658314257
sg19
F-32.005554828555375
sg20
I5076645
sg21
S'10438.1724705'
p550
sg23
F0.53877542774456355
sbasg27
I00
sg28
I00
sg29
I5076202
sg21
S'10438.2929699'
p551
sba(igraph
Edge
p552
(dp553
g7
I1
sg8
I00
sg10
I5
sg11
(lp554
g531
ag538
asg27
I00
sg28
I00
sg29
I5076203
sg21
S'10438.3297961'
p555
sba(igraph
Edge
p556
(dp557
g7
I1
sg8
I00
sg10
I5
sg11
(lp558
(igraph
Vertex
p559
(dp560
g15
F0.55215105066450232
sg8
I00
sg16
g17
sg18
F87.596200164423806
sg19
F12.940582686902701
sg20
I5076646
sg21
S'10438.1800768'
p561
sg23
F0.5385600685399724
sba(igraph
Vertex
p562
(dp563
g15
F0.63676279606587038
sg8
I00
sg16
g17
sg18
F87.596200164423806
sg19
F55.838737605396261
sg20
I5076647
sg21
S'10438.1814753'
p564
sg23
F0.5385600685399724
sbasg27
I00
sg28
I00
sg29
I5076204
sg21
S'10438.3432274'
p565
sba(igraph
Edge
p566
(dp567
g7
I1
sg8
I00
sg10
I5
sg11
(lp568
g562
a(igraph
Vertex
p569
(dp570
g15
F0.72137454146723823
sg8
I00
sg16
g17
sg18
F87.596200164423806
sg19
F98.736892523889765
sg20
I5076648
sg21
S'10438.1829584'
p571
sg23
F0.5385600685399724
sbasg27
I00
sg28
I00
sg29
I5076205
sg21
S'10438.3478107'
p572
sba(igraph
Edge
p573
(dp574
g7
I1
sg8
I00
sg10
I5
sg11
(lp575
g569
a(igraph
Vertex
p576
(dp577
g15
F0.81268255383595378
sg8
I00
sg16
g17
sg18
F87.548679978451787
sg19
F145.03005479482857
sg20
I5076649
sg21
S'10438.189195'
p578
sg23
F0.53847897607244333
sbasg27
I00
sg28
I00
sg29
I5076206
sg21
S'10438.4080108'
p579
sba(igraph
Edge
p580
(dp581
g7
I1
sg8
I00
sg10
I5
sg11
(lp582
g548
ag559
asg27
I00
sg28
I00
sg29
I5076207
sg21
S'10438.4231278'
p583
sba(igraph
Edge
p584
(dp585
g7
I1
sg8
I00
sg10
I5
sg11
(lp586
g58
ag521
asg27
I00
sg28
I00
sg29
I5076208
sg21
S'10452.596199'
p587
sba(igraph
Edge
p588
(dp589
g7
I1
sg8
I00
sg10
I5
sg11
(lp590
g61
ag521
asg27
I00
sg28
I00
sg29
I5076209
sg21
S'10452.5998757'
p591
sba(igraph
Edge
p592
(dp593
g7
I1
sg8
I00
sg10
I5
sg11
(lp594
g61
ag524
asg27
I00
sg28
I00
sg29
I5076210
sg21
S'10471.2542751'
p595
sba(igraph
Edge
p596
(dp597
g7
I1
sg8
I00
sg10
I5
sg11
(lp598
g68
ag524
asg27
I00
sg28
I00
sg29
I5076211
sg21
S'10471.2579618'
p599
sba(igraph
Edge
p600
(dp601
g7
I1
sg8
I00
sg10
I5
sg11
(lp602
g68
ag531
asg27
I00
sg28
I00
sg29
I5076212
sg21
S'10477.2857131'
p603
sba(igraph
Edge
p604
(dp605
g7
I1
sg8
I00
sg10
I5
sg11
(lp606
g154
ag531
asg27
I00
sg28
I00
sg29
I5076213
sg21
S'10477.2920631'
p607
sba(igraph
Edge
p608
(dp609
g7
I1
sg8
I00
sg10
I5
sg11
(lp610
g154
ag538
asg27
I00
sg28
I00
sg29
I5076214
sg21
S'10483.0662998'
p611
sba(igraph
Edge
p612
(dp613
g7
I1
sg8
I00
sg10
I5
sg11
(lp614
g157
ag538
asg27
I00
sg28
I00
sg29
I5076215
sg21
S'10483.0701461'
p615
sba(igraph
Edge
p616
(dp617
g7
I1
sg8
I00
sg10
I5
sg11
(lp618
g157
ag541
asg27
I00
sg28
I00
sg29
I5076216
sg21
S'10489.6998306'
p619
sba(igraph
Edge
p620
(dp621
g7
I1
sg8
I00
sg10
I5
sg11
(lp622
g164
ag541
asg27
I00
sg28
I00
sg29
I5076217
sg21
S'10489.7041157'
p623
sba(igraph
Edge
p624
(dp625
g7
I1
sg8
I00
sg10
I5
sg11
(lp626
g164
ag548
asg27
I00
sg28
I00
sg29
I5076218
sg21
S'10495.5813585'
p627
sba(igraph
Edge
p628
(dp629
g7
I1
sg8
I00
sg10
I5
sg11
(lp630
g265
ag548
asg27
I00
sg28
I00
sg29
I5076219
sg21
S'10495.5855694'
p631
sba(igraph
Edge
p632
(dp633
g7
I1
sg8
I00
sg10
I5
sg11
(lp634
g265
ag559
asg27
I00
sg28
I00
sg29
I5076220
sg21
S'10501.2301306'
p635
sba(igraph
Edge
p636
(dp637
g7
I1
sg8
I00
sg10
I5
sg11
(lp638
g268
ag559
asg27
I00
sg28
I00
sg29
I5076221
sg21
S'10501.234203'
p639
sba(igraph
Edge
p640
(dp641
g7
I1
sg8
I00
sg10
I5
sg11
(lp642
g268
ag562
asg27
I00
sg28
I00
sg29
I5076222
sg21
S'10507.7799475'
p643
sba(igraph
Edge
p644
(dp645
g7
I1
sg8
I00
sg10
I5
sg11
(lp646
g275
ag562
asg27
I00
sg28
I00
sg29
I5076223
sg21
S'10507.7892232'
p647
sba(igraph
Edge
p648
(dp649
g7
I1
sg8
I00
sg10
I5
sg11
(lp650
g275
ag569
asg27
I00
sg28
I00
sg29
I5076224
sg21
S'10511.9824763'
p651
sba(igraph
Edge
p652
(dp653
g7
I1
sg8
I00
sg10
I5
sg11
(lp654
g332
ag569
asg27
I00
sg28
I00
sg29
I5076225
sg21
S'10511.9918434'
p655
sba(igraph
Edge
p656
(dp657
g7
I1
sg8
I00
sg10
I5
sg11
(lp658
g332
ag576
asg27
I00
sg28
I00
sg29
I5076226
sg21
S'10517.3060322'
p659
sba(igraph
Edge
p660
(dp661
g7
I1
sg8
I00
sg10
I5
sg11
(lp662
(igraph
Vertex
p663
(dp664
g15
F0.037689671058247907
sg8
I00
sg16
g17
sg18
F123.83145930582486
sg19
F-247.89133677346831
sg20
I5076650
sg21
S'11127.4227744'
p665
sg23
F0.60039498175055439
sba(igraph
Vertex
p666
(dp667
g15
F0.12230141645961599
sg8
I00
sg16
g17
sg18
F123.83145930582486
sg19
F-204.99318185497469
sg20
I5076651
sg21
S'11127.4234454'
p668
sg23
F0.60039498175055439
sbasg27
I00
sg28
I00
sg29
I5076227
sg21
S'11127.4431879'
p669
sba(igraph
Edge
p670
(dp671
g7
I1
sg8
I00
sg10
I5
sg11
(lp672
g666
a(igraph
Vertex
p673
(dp674
g15
F0.20691316186098385
sg8
I00
sg16
g17
sg18
F123.83145930582486
sg19
F-162.09502693648119
sg20
I5076652
sg21
S'11127.4241908'
p675
sg23
F0.60039498175055439
sbasg27
I00
sg28
I00
sg29
I5076228
sg21
S'11127.4478734'
p676
sba(igraph
Edge
p677
(dp678
g7
I1
sg8
I00
sg10
I5
sg11
(lp679
(igraph
Vertex
p680
(dp681
g15
F0.29822117422969935
sg8
I00
sg16
g17
sg18
F123.78393911985273
sg19
F-115.80186466554244
sg20
I5076653
sg21
S'11127.4269319'
p682
sg23
F0.60031388928302509
sba(igraph
Vertex
p683
(dp684
g15
F0.3828329196310673
sg8
I00
sg16
g17
sg18
F123.78393911985273
sg19
F-72.903709747048879
sg20
I5076654
sg21
S'11127.4277183'
p685
sg23
F0.60031388928302509
sbasg27
I00
sg28
I00
sg29
I5076229
sg21
S'11127.4953825'
p686
sba(igraph
Edge
p687
(dp688
g7
I1
sg8
I00
sg10
I5
sg11
(lp689
g683
a(igraph
Vertex
p690
(dp691
g15
F0.46744466503243515
sg8
I00
sg16
g17
sg18
F123.78393911985273
sg19
F-30.005554828555375
sg20
I5076655
sg21
S'11127.4284383'
p692
sg23
F0.60031388928302509
sbasg27
I00
sg28
I00
sg29
I5076230
sg21
S'11127.5017386'
p693
sba(igraph
Edge
p694
(dp695
g7
I1
sg8
I00
sg10
I5
sg11
(lp696
g673
ag680
asg27
I00
sg28
I00
sg29
I5076231
sg21
S'11127.5561028'
p697
sba(igraph
Edge
p698
(dp699
g7
I1
sg8
I00
sg10
I5
sg11
(lp700
(igraph
Vertex
p701
(dp702
g15
F0.55609582384004475
sg8
I00
sg16
g17
sg18
F123.65773862596228
sg19
F14.940582686902701
sg20
I5076656
sg21
S'11127.4316012'
p703
sg23
F0.60009853007843394
sba(igraph
Vertex
p704
(dp705
g15
F0.6407075692414127
sg8
I00
sg16
g17
sg18
F123.65773862596228
sg19
F57.838737605396261
sg20
I5076657
sg21
S'11127.4331729'
p706
sg23
F0.60009853007843394
sbasg27
I00
sg28
I00
sg29
I5076232
sg21
S'11127.5776586'
p707
sba(igraph
Edge
p708
(dp709
g7
I1
sg8
I00
sg10
I5
sg11
(lp710
g704
a(igraph
Vertex
p711
(dp712
g15
F0.72531931464278065
sg8
I00
sg16
g17
sg18
F123.65773862596228
sg19
F100.73689252388976
sg20
I5076658
sg21
S'11127.4339663'
p713
sg23
F0.60009853007843394
sbasg27
I00
sg28
I00
sg29
I5076233
sg21
S'11127.5851118'
p714
sba(igraph
Edge
p715
(dp716
g7
I1
sg8
I00
sg10
I5
sg11
(lp717
g711
a(igraph
Vertex
p718
(dp719
g15
F0.81662732701149621
sg8
I00
sg16
g17
sg18
F123.61021843999026
sg19
F147.03005479482857
sg20
I5076659
sg21
S'11127.4372827'
p720
sg23
F0.60001743761090487
sbasg27
I00
sg28
I00
sg29
I5076234
sg21
S'11127.6919438'
p721
sba(igraph
Edge
p722
(dp723
g7
I1
sg8
I00
sg10
I5
sg11
(lp724
g690
ag701
asg27
I00
sg28
I00
sg29
I5076235
sg21
S'11127.7198323'
p725
sba(igraph
Edge
p726
(dp727
g7
I1
sg8
I00
sg10
I5
sg11
(lp728
g521
ag663
asg27
I00
sg28
I00
sg29
I5076236
sg21
S'11137.653012'
p729
sba(igraph
Edge
p730
(dp731
g7
I1
sg8
I00
sg10
I5
sg11
(lp732
g524
ag663
asg27
I00
sg28
I00
sg29
I5076237
sg21
S'11137.660018'
p733
sba(igraph
Edge
p734
(dp735
g7
I1
sg8
I00
sg10
I5
sg11
(lp736
g524
ag666
asg27
I00
sg28
I00
sg29
I5076238
sg21
S'11143.0567634'
p737
sba(igraph
Edge
p738
(dp739
g7
I1
sg8
I00
sg10
I5
sg11
(lp740
g531
ag666
asg27
I00
sg28
I00
sg29
I5076239
sg21
S'11143.0621551'
p741
sba(igraph
Edge
p742
(dp743
g7
I1
sg8
I00
sg10
I5
sg11
(lp744
g531
ag673
asg27
I00
sg28
I00
sg29
I5076240
sg21
S'11147.7883547'
p745
sba(igraph
Edge
p746
(dp747
g7
I1
sg8
I00
sg10
I5
sg11
(lp748
g538
ag673
asg27
I00
sg28
I00
sg29
I5076241
sg21
S'11147.7968317'
p749
sba(igraph
Edge
p750
(dp751
g7
I1
sg8
I00
sg10
I5
sg11
(lp752
g538
ag680
asg27
I00
sg28
I00
sg29
I5076242
sg21
S'11154.2502704'
p753
sba(igraph
Edge
p754
(dp755
g7
I1
sg8
I00
sg10
I5
sg11
(lp756
g541
ag680
asg27
I00
sg28
I00
sg29
I5076243
sg21
S'11154.2636634'
p757
sba(igraph
Edge
p758
(dp759
g7
I1
sg8
I00
sg10
I5
sg11
(lp760
g541
ag683
asg27
I00
sg28
I00
sg29
I5076244
sg21
S'11159.2989897'
p761
sba(igraph
Edge
p762
(dp763
g7
I1
sg8
I00
sg10
I5
sg11
(lp764
g548
ag683
asg27
I00
sg28
I00
sg29
I5076245
sg21
S'11159.3157376'
p765
sba(igraph
Edge
p766
(dp767
g7
I1
sg8
I00
sg10
I5
sg11
(lp768
g548
ag690
asg27
I00
sg28
I00
sg29
I5076246
sg21
S'11165.3614686'
p769
sba(igraph
Edge
p770
(dp771
g7
I1
sg8
I00
sg10
I5
sg11
(lp772
g559
ag690
asg27
I00
sg28
I00
sg29
I5076247
sg21
S'11165.3673925'
p773
sba(igraph
Edge
p774
(dp775
g7
I1
sg8
I00
sg10
I5
sg11
(lp776
g559
ag701
asg27
I00
sg28
I00
sg29
I5076248
sg21
S'11170.2321985'
p777
sba(igraph
Edge
p778
(dp779
g7
I1
sg8
I00
sg10
I5
sg11
(lp780
g562
ag701
asg27
I00
sg28
I00
sg29
I5076249
sg21
S'11170.2409873'
p781
sba(igraph
Edge
p782
(dp783
g7
I1
sg8
I00
sg10
I5
sg11
(lp784
g562
ag704
asg27
I00
sg28
I00
sg29
I5076250
sg21
S'11175.7076363'
p785
sba(igraph
Edge
p786
(dp787
g7
I1
sg8
I00
sg10
I5
sg11
(lp788
g569
ag704
asg27
I00
sg28
I00
sg29
I5076251
sg21
S'11175.7136309'
p789
sba(igraph
Edge
p790
(dp791
g7
I1
sg8
I00
sg10
I5
sg11
(lp792
g569
ag711
asg27
I00
sg28
I00
sg29
I5076252
sg21
S'11181.0214689'
p793
sba(igraph
Edge
p794
(dp795
g7
I1
sg8
I00
sg10
I5
sg11
(lp796
g576
ag711
asg27
I00
sg28
I00
sg29
I5076253
sg21
S'11181.0311442'
p797
sba(igraph
Edge
p798
(dp799
g7
I1
sg8
I00
sg10
I5
sg11
(lp800
g576
ag718
asg27
I00
sg28
I00
sg29
I5076254
sg21
S'11186.753474'
p801
sba(igraph
Edge
p802
(dp803
g7
I1
sg8
I00
sg10
I5
sg11
(lp804
(igraph
Vertex
p805
(dp806
g15
F0.03513760450932589
sg8
I00
sg16
g17
sg18
F161.06404715030965
sg19
F-249.18523451377177
sg20
I5076660
sg21
S'15542.3547848'
p807
sg23
F0.66393182107561377
sba(igraph
Vertex
p808
(dp809
g15
F0.11974934991069391
sg8
I00
sg16
g17
sg18
F161.06404715030965
sg19
F-206.28707959527819
sg20
I5076661
sg21
S'15542.3556396'
p810
sg23
F0.66393182107561377
sbasg27
I00
sg28
I00
sg29
I5076255
sg21
S'15542.4510537'
p811
sba(igraph
Edge
p812
(dp813
g7
I1
sg8
I00
sg10
I5
sg11
(lp814
g808
a(igraph
Vertex
p815
(dp816
g15
F0.20436109531206176
sg8
I00
sg16
I0
sg18
F161.06404715030965
sg19
F-163.38892467678468
sg20
I5076662
sg21
S'15542.3566093'
p817
sg23
F0.66393182107561377
sbasg27
I00
sg28
I00
sg29
I5076256
sg21
S'15542.4573632'
p818
sba(igraph
Edge
p819
(dp820
g7
I1
sg8
I00
sg10
I5
sg11
(lp821
(igraph
Vertex
p822
(dp823
g15
F0.29566910768077725
sg8
I00
sg16
g17
sg18
F161.01652696433757
sg19
F-117.09576240584593
sg20
I5076664
sg21
S'15542.3578525'
p824
sg23
F0.66385072860808458
sba(igraph
Vertex
p825
(dp826
g15
F0.3802808530821451
sg8
I00
sg16
g17
sg18
F161.01652696433757
sg19
F-74.197607487352428
sg20
I5076665
sg21
S'15542.3587763'
p827
sg23
F0.66385072860808458
sbasg27
I00
sg28
I00
sg29
I5076257
sg21
S'15542.4646314'
p828
sba(igraph
Edge
p829
(dp830
g7
I1
sg8
I00
sg10
I5
sg11
(lp831
g825
a(igraph
Vertex
p832
(dp833
g15
F0.464892598483513
sg8
I00
sg16
g17
sg18
F161.01652696433757
sg19
F-31.299452568858896
sg20
I5076666
sg21
S'15542.3596661'
p834
sg23
F0.66385072860808458
sbasg27
I00
sg28
I00
sg29
I5076258
sg21
S'15542.4710646'
p835
sba(igraph
Edge
p836
(dp837
g7
I1
sg8
I00
sg10
I5
sg11
(lp838
g815
ag822
asg27
I00
sg28
I00
sg29
I5076259
sg21
S'15542.4776719'
p839
sba(igraph
Edge
p840
(dp841
g7
I1
sg8
I00
sg10
I5
sg11
(lp842
(igraph
Vertex
p843
(dp844
g15
F0.5535437572911226
sg8
I00
sg16
g17
sg18
F160.89032647044723
sg19
F13.64668494659918
sg20
I5076667
sg21
S'15542.3607813'
p845
sg23
F0.66363536940349355
sba(igraph
Vertex
p846
(dp847
g15
F0.63815550269249066
sg8
I00
sg16
g17
sg18
F160.89032647044723
sg19
F56.54483986509274
sg20
I5076668
sg21
S'15542.3622662'
p848
sg23
F0.66363536940349355
sbasg27
I00
sg28
I00
sg29
I5076260
sg21
S'15542.4840297'
p849
sba(igraph
Edge
p850
(dp851
g7
I1
sg8
I00
sg10
I5
sg11
(lp852
g846
a(igraph
Vertex
p853
(dp854
g15
F0.72276724809385851
sg8
I00
sg16
g17
sg18
F160.89032647044723
sg19
F99.442994783586244
sg20
I5076669
sg21
S'15542.3631872'
p855
sg23
F0.66363536940349355
sbasg27
I00
sg28
I00
sg29
I5076261
sg21
S'15542.491063'
p856
sba(igraph
Edge
p857
(dp858
g7
I1
sg8
I00
sg10
I5
sg11
(lp859
g853
a(igraph
Vertex
p860
(dp861
g15
F0.81407526046257406
sg8
I00
sg16
g17
sg18
F160.84280628447516
sg19
F145.73615705452505
sg20
I5076670
sg21
S'15542.3641072'
p862
sg23
F0.66355427693596447
sbasg27
I00
sg28
I00
sg29
I5076262
sg21
S'15542.5038277'
p863
sba(igraph
Edge
p864
(dp865
g7
I1
sg8
I00
sg10
I5
sg11
(lp866
g832
ag843
asg27
I00
sg28
I00
sg29
I5076263
sg21
S'15542.5106037'
p867
sba(igraph
Edge
p868
(dp869
g7
I1
sg8
I00
sg10
I5
sg11
(lp870
g663
ag805
asg27
I00
sg28
I00
sg29
I5076264
sg21
S'15554.384074'
p871
sba(igraph
Edge
p872
(dp873
g7
I1
sg8
I00
sg10
I5
sg11
(lp874
g666
ag805
asg27
I00
sg28
I00
sg29
I5076265
sg21
S'15554.3921018'
p875
sba(igraph
Edge
p876
(dp877
g7
I1
sg8
I00
sg10
I5
sg11
(lp878
g666
ag808
asg27
I00
sg28
I00
sg29
I5076266
sg21
S'15560.6391899'
p879
sba(igraph
Edge
p880
(dp881
g7
I1
sg8
I00
sg10
I5
sg11
(lp882
g673
ag808
asg27
I00
sg28
I00
sg29
I5076267
sg21
S'15560.646131'
p883
sba(igraph
Edge
p884
(dp885
g7
I1
sg8
I00
sg10
I5
sg11
(lp886
g673
ag815
asg27
I00
sg28
I00
sg29
I5076268
sg21
S'15566.6716477'
p887
sba(igraph
Edge
p888
(dp889
g7
I1
sg8
I00
sg10
I5
sg11
(lp890
g680
ag815
asg27
I00
sg28
I00
sg29
I5076269
sg21
S'15566.6792436'
p891
sba(igraph
Edge
p892
(dp893
g7
I1
sg8
I00
sg10
I5
sg11
(lp894
g680
ag822
asg27
I00
sg28
I00
sg29
I5076270
sg21
S'15572.1184229'
p895
sba(igraph
Edge
p896
(dp897
g7
I1
sg8
I00
sg10
I5
sg11
(lp898
g683
ag822
asg27
I00
sg28
I00
sg29
I5076271
sg21
S'15572.1245284'
p899
sba(igraph
Edge
p900
(dp901
g7
I1
sg8
I00
sg10
I5
sg11
(lp902
g683
ag825
asg27
I00
sg28
I00
sg29
I5076272
sg21
S'15576.9480051'
p903
sba(igraph
Edge
p904
(dp905
g7
I1
sg8
I00
sg10
I5
sg11
(lp906
g690
ag825
asg27
I00
sg28
I00
sg29
I5076273
sg21
S'15576.9542137'
p907
sba(igraph
Edge
p908
(dp909
g7
I1
sg8
I00
sg10
I5
sg11
(lp910
g690
ag832
asg27
I00
sg28
I00
sg29
I5076274
sg21
S'15582.5724962'
p911
sba(igraph
Edge
p912
(dp913
g7
I1
sg8
I00
sg10
I5
sg11
(lp914
g701
ag832
asg27
I00
sg28
I00
sg29
I5076275
sg21
S'15582.5826341'
p915
sba(igraph
Edge
p916
(dp917
g7
I1
sg8
I00
sg10
I5
sg11
(lp918
g701
ag843
asg27
I00
sg28
I00
sg29
I5076276
sg21
S'15591.0405409'
p919
sba(igraph
Edge
p920
(dp921
g7
I1
sg8
I00
sg10
I5
sg11
(lp922
g704
ag843
asg27
I00
sg28
I00
sg29
I5076277
sg21
S'15591.0470068'
p923
sba(igraph
Edge
p924
(dp925
g7
I1
sg8
I00
sg10
I5
sg11
(lp926
g704
ag846
asg27
I00
sg28
I00
sg29
I5076278
sg21
S'15597.1413727'
p927
sba(igraph
Edge
p928
(dp929
g7
I1
sg8
I00
sg10
I5
sg11
(lp930
g711
ag846
asg27
I00
sg28
I00
sg29
I5076279
sg21
S'15597.1575337'
p931
sba(igraph
Edge
p932
(dp933
g7
I1
sg8
I00
sg10
I5
sg11
(lp934
g711
ag853
asg27
I00
sg28
I00
sg29
I5076280
sg21
S'15602.4326301'
p935
sba(igraph
Edge
p936
(dp937
g7
I1
sg8
I00
sg10
I5
sg11
(lp938
g718
ag853
asg27
I00
sg28
I00
sg29
I5076281
sg21
S'15602.44727'
p939
sba(igraph
Edge
p940
(dp941
g7
I1
sg8
I00
sg10
I5
sg11
(lp942
g718
ag860
asg27
I00
sg28
I00
sg29
I5076282
sg21
S'15607.0331662'
p943
sba(igraph
Edge
p944
(dp945
g7
I1
sg8
I00
sg10
I5
sg11
(lp946
(igraph
Vertex
p947
(dp948
g15
F0.039082377684868295
sg8
I00
sg16
g17
sg18
F194.42097022723271
sg19
F-247.18523451377177
sg20
I5076671
sg21
S'15773.0747478'
p949
sg23
F0.72085489799869062
sba(igraph
Vertex
p950
(dp951
g15
F0.12369412308623626
sg8
I00
sg16
g17
sg18
F194.42097022723271
sg19
F-204.28707959527821
sg20
I5076672
sg21
S'15773.0761742'
p952
sg23
F0.72085489799869062
sbasg27
I00
sg28
I00
sg29
I5076283
sg21
S'15773.1629618'
p953
sba(igraph
Edge
p954
(dp955
g7
I1
sg8
I00
sg10
I5
sg11
(lp956
g950
a(igraph
Vertex
p957
(dp958
g15
F0.20830586848760418
sg8
I00
sg16
g17
sg18
F194.42097022723271
sg19
F-161.38892467678468
sg20
I5076673
sg21
S'15773.0772878'
p959
sg23
F0.72085489799869062
sbasg27
I00
sg28
I00
sg29
I5076284
sg21
S'15773.1696098'
p960
sba(igraph
Edge
p961
(dp962
g7
I1
sg8
I00
sg10
I5
sg11
(lp963
(igraph
Vertex
p964
(dp965
g15
F0.29961388085631968
sg8
I00
sg16
g17
sg18
F194.37345004126064
sg19
F-115.09576240584593
sg20
I5076674
sg21
S'15773.0782641'
p966
sg23
F0.72077380553116155
sba(igraph
Vertex
p967
(dp968
g15
F0.38422562625768752
sg8
I00
sg16
g17
sg18
F194.37345004126064
sg19
F-72.197607487352428
sg20
I5076675
sg21
S'15773.0792293'
p969
sg23
F0.72077380553116155
sbasg27
I00
sg28
I00
sg29
I5076285
sg21
S'15773.1762772'
p970
sba(igraph
Edge
p971
(dp972
g7
I1
sg8
I00
sg10
I5
sg11
(lp973
g967
a(igraph
Vertex
p974
(dp975
g15
F0.46883737165905548
sg8
I00
sg16
g17
sg18
F194.37345004126064
sg19
F-29.299452568858868
sg20
I5076676
sg21
S'15773.0803015'
p976
sg23
F0.72077380553116155
sbasg27
I00
sg28
I00
sg29
I5076286
sg21
S'15773.1832839'
p977
sba(igraph
Edge
p978
(dp979
g7
I1
sg8
I00
sg10
I5
sg11
(lp980
g957
ag964
asg27
I00
sg28
I00
sg29
I5076287
sg21
S'15773.1896699'
p981
sba(igraph
Edge
p982
(dp983
g7
I1
sg8
I00
sg10
I5
sg11
(lp984
(igraph
Vertex
p985
(dp986
g15
F0.55748853046666502
sg8
I00
sg16
g17
sg18
F194.24724954737025
sg19
F15.64668494659918
sg20
I5076677
sg21
S'15773.0812846'
p987
sg23
F0.7205584463265704
sba(igraph
Vertex
p988
(dp989
g15
F0.64210027586803298
sg8
I00
sg16
g17
sg18
F194.24724954737025
sg19
F58.54483986509274
sg20
I5076678
sg21
S'15773.0823015'
p990
sg23
F0.7205584463265704
sbasg27
I00
sg28
I00
sg29
I5076288
sg21
S'15773.1966269'
p991
sba(igraph
Edge
p992
(dp993
g7
I1
sg8
I00
sg10
I5
sg11
(lp994
g988
a(igraph
Vertex
p995
(dp996
g15
F0.72671202126940082
sg8
I00
sg16
g17
sg18
F194.24724954737025
sg19
F101.44299478358624
sg20
I5076679
sg21
S'15773.0835274'
p997
sg23
F0.7205584463265704
sbasg27
I00
sg28
I00
sg29
I5076289
sg21
S'15773.2046648'
p998
sba(igraph
Edge
p999
(dp1000
g7
I1
sg8
I00
sg10
I5
sg11
(lp1001
g995
a(igraph
Vertex
p1002
(dp1003
g15
F0.81802003363811648
sg8
I00
sg16
g17
sg18
F194.19972936139823
sg19
F147.73615705452505
sg20
I5076680
sg21
S'15773.0845364'
p1004
sg23
F0.72047735385904133
sbasg27
I00
sg28
I00
sg29
I5076290
sg21
S'15773.2187317'
p1005
sba(igraph
Edge
p1006
(dp1007
g7
I1
sg8
I00
sg10
I5
sg11
(lp1008
g974
ag985
asg27
I00
sg28
I00
sg29
I5076291
sg21
S'15773.2253915'
p1009
sba(igraph
Edge
p1010
(dp1011
g7
I1
sg8
I00
sg10
I5
sg11
(lp1012
g805
ag947
asg27
I00
sg28
I00
sg29
I5076292
sg21
S'15797.6737278'
p1013
sba(igraph
Edge
p1014
(dp1015
g7
I1
sg8
I00
sg10
I5
sg11
(lp1016
g808
ag947
asg27
I00
sg28
I00
sg29
I5076293
sg21
S'15797.6915605'
p1017
sba(igraph
Edge
p1018
(dp1019
g7
I1
sg8
I00
sg10
I5
sg11
(lp1020
g808
ag950
asg27
I00
sg28
I00
sg29
I5076294
sg21
S'15806.5864044'
p1021
sba(igraph
Edge
p1022
(dp1023
g7
I1
sg8
I00
sg10
I5
sg11
(lp1024
g815
ag950
asg27
I00
sg28
I00
sg29
I5076295
sg21
S'15806.5942579'
p1025
sba(igraph
Edge
p1026
(dp1027
g7
I1
sg8
I00
sg10
I5
sg11
(lp1028
g815
ag957
asg27
I00
sg28
I00
sg29
I5076296
sg21
S'15811.9895252'
p1029
sba(igraph
Edge
p1030
(dp1031
g7
I1
sg8
I00
sg10
I5
sg11
(lp1032
g822
ag957
asg27
I00
sg28
I00
sg29
I5076297
sg21
S'15811.9980573'
p1033
sba(igraph
Edge
p1034
(dp1035
g7
I1
sg8
I00
sg10
I5
sg11
(lp1036
g822
ag964
asg27
I00
sg28
I00
sg29
I5076298
sg21
S'15817.3807833'
p1037
sba(igraph
Edge
p1038
(dp1039
g7
I1
sg8
I00
sg10
I5
sg11
(lp1040
g825
ag964
asg27
I00
sg28
I00
sg29
I5076299
sg21
S'15817.3875152'
p1041
sba(igraph
Edge
p1042
(dp1043
g7
I1
sg8
I00
sg10
I5
sg11
(lp1044
g825
ag967
asg27
I00
sg28
I00
sg29
I5076300
sg21
S'15822.8448504'
p1045
sba(igraph
Edge
p1046
(dp1047
g7
I1
sg8
I00
sg10
I5
sg11
(lp1048
g832
ag967
asg27
I00
sg28
I00
sg29
I5076301
sg21
S'15822.8523125'
p1049
sba(igraph
Edge
p1050
(dp1051
g7
I1
sg8
I00
sg10
I5
sg11
(lp1052
g832
ag974
asg27
I00
sg28
I00
sg29
I5076302
sg21
S'15828.3092438'
p1053
sba(igraph
Edge
p1054
(dp1055
g7
I1
sg8
I00
sg10
I5
sg11
(lp1056
g843
ag974
asg27
I00
sg28
I00
sg29
I5076303
sg21
S'15828.3166581'
p1057
sba(igraph
Edge
p1058
(dp1059
g7
I1
sg8
I00
sg10
I5
sg11
(lp1060
g843
ag985
asg27
I00
sg28
I00
sg29
I5076304
sg21
S'15834.0897821'
p1061
sba(igraph
Edge
p1062
(dp1063
g7
I1
sg8
I00
sg10
I5
sg11
(lp1064
g846
ag985
asg27
I00
sg28
I00
sg29
I5076305
sg21
S'15834.0967179'
p1065
sba(igraph
Edge
p1066
(dp1067
g7
I1
sg8
I00
sg10
I5
sg11
(lp1068
g846
ag988
asg27
I00
sg28
I00
sg29
I5076306
sg21
S'15839.6573145'
p1069
sba(igraph
Edge
p1070
(dp1071
g7
I1
sg8
I00
sg10
I5
sg11
(lp1072
g853
ag988
asg27
I00
sg28
I00
sg29
I5076307
sg21
S'15839.669551'
p1073
sba(igraph
Edge
p1074
(dp1075
g7
I1
sg8
I00
sg10
I5
sg11
(lp1076
g853
ag995
asg27
I00
sg28
I00
sg29
I5076308
sg21
S'15847.4467716'
p1077
sba(igraph
Edge
p1078
(dp1079
g7
I1
sg8
I00
sg10
I5
sg11
(lp1080
g860
ag995
asg27
I00
sg28
I00
sg29
I5076309
sg21
S'15847.4537596'
p1081
sba(igraph
Edge
p1082
(dp1083
g7
I1
sg8
I00
sg10
I5
sg11
(lp1084
g860
ag1002
asg27
I00
sg28
I00
sg29
I5076310
sg21
S'15853.2532037'
p1085
sba(igraph
Edge
p1086
(dp1087
g7
I1
sg8
I00
sg10
I5
sg11
(lp1088
(igraph
Vertex
p1089
(dp1090
g15
F0.031192831333783481
sg8
I00
sg16
g17
sg18
F229.13020099646343
sg19
F-251.18523451377177
sg20
I5076681
sg21
S'16325.0590257'
p1091
sg23
F0.78008566722945982
sba(igraph
Vertex
p1092
(dp1093
g15
F0.11580457673515145
sg8
I00
sg16
I0
sg18
F229.13020099646343
sg19
F-208.28707959527821
sg20
I5076682
sg21
S'16325.0599945'
p1094
sg23
F0.78008566722945982
sbasg27
I00
sg28
I00
sg29
I5076311
sg21
S'16325.1120992'
p1095
sba(igraph
Edge
p1096
(dp1097
g7
I1
sg8
I00
sg10
I5
sg11
(lp1098
g1092
a(igraph
Vertex
p1099
(dp1100
g15
F0.2004163221365193
sg8
I00
sg16
g17
sg18
F229.13020099646343
sg19
F-165.38892467678471
sg20
I5076684
sg21
S'16325.0609401'
p1101
sg23
F0.78008566722945982
sbasg27
I00
sg28
I00
sg29
I5076312
sg21
S'16325.1242499'
p1102
sba(igraph
Edge
p1103
(dp1104
g7
I1
sg8
I00
sg10
I5
sg11
(lp1105
(igraph
Vertex
p1106
(dp1107
g15
F0.29172433450523477
sg8
I00
sg16
g17
sg18
F229.08268081049141
sg19
F-119.09576240584596
sg20
I5076685
sg21
S'16325.0618956'
p1108
sg23
F0.78000457476193075
sba(igraph
Vertex
p1109
(dp1110
g15
F0.37633607990660267
sg8
I00
sg16
g17
sg18
F229.08268081049141
sg19
F-76.197607487352457
sg20
I5076686
sg21
S'16325.0628569'
p1111
sg23
F0.78000457476193075
sbasg27
I00
sg28
I00
sg29
I5076313
sg21
S'16325.1361721'
p1112
sba(igraph
Edge
p1113
(dp1114
g7
I1
sg8
I00
sg10
I5
sg11
(lp1115
g1109
a(igraph
Vertex
p1116
(dp1117
g15
F0.46094782530797063
sg8
I00
sg16
g17
sg18
F229.08268081049141
sg19
F-33.299452568858896
sg20
I5076687
sg21
S'16325.0641299'
p1118
sg23
F0.78000457476193075
sbasg27
I00
sg28
I00
sg29
I5076314
sg21
S'16325.1487851'
p1119
sba(igraph
Edge
p1120
(dp1121
g7
I1
sg8
I00
sg10
I5
sg11
(lp1122
g1099
ag1106
asg27
I00
sg28
I00
sg29
I5076315
sg21
S'16325.1601209'
p1123
sba(igraph
Edge
p1124
(dp1125
g7
I1
sg8
I00
sg10
I5
sg11
(lp1126
(igraph
Vertex
p1127
(dp1128
g15
F0.54959898411558028
sg8
I00
sg16
g17
sg18
F228.95648031660107
sg19
F11.64668494659918
sg20
I5076688
sg21
S'16325.0654214'
p1129
sg23
F0.77978921555733971
sba(igraph
Vertex
p1130
(dp1131
g15
F0.63421072951694824
sg8
I00
sg16
g17
sg18
F228.95648031660107
sg19
F54.54483986509274
sg20
I5076689
sg21
S'16325.0664509'
p1132
sg23
F0.77978921555733971
sbasg27
I00
sg28
I00
sg29
I5076316
sg21
S'16325.1730904'
p1133
sba(igraph
Edge
p1134
(dp1135
g7
I1
sg8
I00
sg10
I5
sg11
(lp1136
g1130
a(igraph
Vertex
p1137
(dp1138
g15
F0.71882247491831608
sg8
I00
sg16
g17
sg18
F228.95648031660107
sg19
F97.442994783586244
sg20
I5076690
sg21
S'16325.0675189'
p1139
sg23
F0.77978921555733971
sbasg27
I00
sg28
I00
sg29
I5076317
sg21
S'16325.1860541'
p1140
sba(igraph
Edge
p1141
(dp1142
g7
I1
sg8
I00
sg10
I5
sg11
(lp1143
g1137
a(igraph
Vertex
p1144
(dp1145
g15
F0.81013048728703163
sg8
I00
sg16
g17
sg18
F228.90896013062905
sg19
F143.73615705452505
sg20
I5076691
sg21
S'16325.068633'
p1146
sg23
F0.77970812308981063
sbasg27
I00
sg28
I00
sg29
I5076318
sg21
S'16325.2092294'
p1147
sba(igraph
Edge
p1148
(dp1149
g7
I1
sg8
I00
sg10
I5
sg11
(lp1150
g1116
ag1127
asg27
I00
sg28
I00
sg29
I5076319
sg21
S'16325.2215921'
p1151
sba(igraph
Edge
p1152
(dp1153
g7
I1
sg8
I00
sg10
I5
sg11
(lp1154
g947
ag1089
asg27
I00
sg28
I00
sg29
I5076320
sg21
S'16345.1153091'
p1155
sba(igraph
Edge
p1156
(dp1157
g7
I1
sg8
I00
sg10
I5
sg11
(lp1158
g950
ag1089
asg27
I00
sg28
I00
sg29
I5076321
sg21
S'16345.134509'
p1159
sba(igraph
Edge
p1160
(dp1161
g7
I1
sg8
I00
sg10
I5
sg11
(lp1162
g950
ag1092
asg27
I00
sg28
I00
sg29
I5076322
sg21
S'16351.140667'
p1163
sba(igraph
Edge
p1164
(dp1165
g7
I1
sg8
I00
sg10
I5
sg11
(lp1166
g957
ag1092
asg27
I00
sg28
I00
sg29
I5076323
sg21
S'16351.1498665'
p1167
sba(igraph
Edge
p1168
(dp1169
g7
I1
sg8
I00
sg10
I5
sg11
(lp1170
g957
ag1099
asg27
I00
sg28
I00
sg29
I5076324
sg21
S'16355.7995022'
p1171
sba(igraph
Edge
p1172
(dp1173
g7
I1
sg8
I00
sg10
I5
sg11
(lp1174
g964
ag1099
asg27
I00
sg28
I00
sg29
I5076325
sg21
S'16355.8202224'
p1175
sba(igraph
Edge
p1176
(dp1177
g7
I1
sg8
I00
sg10
I5
sg11
(lp1178
g964
ag1106
asg27
I00
sg28
I00
sg29
I5076326
sg21
S'16361.9521425'
p1179
sba(igraph
Edge
p1180
(dp1181
g7
I1
sg8
I00
sg10
I5
sg11
(lp1182
g967
ag1106
asg27
I00
sg28
I00
sg29
I5076327
sg21
S'16361.9682233'
p1183
sba(igraph
Edge
p1184
(dp1185
g7
I1
sg8
I00
sg10
I5
sg11
(lp1186
g967
ag1109
asg27
I00
sg28
I00
sg29
I5076328
sg21
S'16368.7950309'
p1187
sba(igraph
Edge
p1188
(dp1189
g7
I1
sg8
I00
sg10
I5
sg11
(lp1190
g974
ag1109
asg27
I00
sg28
I00
sg29
I5076329
sg21
S'16368.8032775'
p1191
sba(igraph
Edge
p1192
(dp1193
g7
I1
sg8
I00
sg10
I5
sg11
(lp1194
g974
ag1116
asg27
I00
sg28
I00
sg29
I5076330
sg21
S'16374.3570814'
p1195
sba(igraph
Edge
p1196
(dp1197
g7
I1
sg8
I00
sg10
I5
sg11
(lp1198
g985
ag1116
asg27
I00
sg28
I00
sg29
I5076331
sg21
S'16374.3726242'
p1199
sba(igraph
Edge
p1200
(dp1201
g7
I1
sg8
I00
sg10
I5
sg11
(lp1202
g985
ag1127
asg27
I00
sg28
I00
sg29
I5076332
sg21
S'16381.2659777'
p1203
sba(igraph
Edge
p1204
(dp1205
g7
I1
sg8
I00
sg10
I5
sg11
(lp1206
g988
ag1127
asg27
I00
sg28
I00
sg29
I5076333
sg21
S'16381.2740002'
p1207
sba(igraph
Edge
p1208
(dp1209
g7
I1
sg8
I00
sg10
I5
sg11
(lp1210
g988
ag1130
asg27
I00
sg28
I00
sg29
I5076334
sg21
S'16387.0407233'
p1211
sba(igraph
Edge
p1212
(dp1213
g7
I1
sg8
I00
sg10
I5
sg11
(lp1214
g995
ag1130
asg27
I00
sg28
I00
sg29
I5076335
sg21
S'16387.049261'
p1215
sba(igraph
Edge
p1216
(dp1217
g7
I1
sg8
I00
sg10
I5
sg11
(lp1218
g995
ag1137
asg27
I00
sg28
I00
sg29
I5076336
sg21
S'16392.385292'
p1219
sba(igraph
Edge
p1220
(dp1221
g7
I1
sg8
I00
sg10
I5
sg11
(lp1222
g1002
ag1137
asg27
I00
sg28
I00
sg29
I5076337
sg21
S'16392.393847'
p1223
sba(igraph
Edge
p1224
(dp1225
g7
I1
sg8
I00
sg10
I5
sg11
(lp1226
g1002
ag1144
asg27
I00
sg28
I00
sg29
I5076338
sg21
S'16398.2405817'
p1227
sba(igraph
Edge
p1228
(dp1229
g7
I1
sg8
I00
sg10
I5
sg11
(lp1230
(igraph
Vertex
p1231
(dp1232
g15
F0.90562741220440524
sg8
I00
sg16
g17
sg18
F-34.065262629014171
sg19
F192.15309798763343
sg20
I5076692
sg21
S'16753.7825349'
p1233
sg23
F0.33094665080373009
sba(igraph
Vertex
p1234
(dp1235
g15
F0.90562741220440524
sg8
I00
sg16
g17
sg18
F8.9669057790168836
sg19
F192.15309798763343
sg20
I5076693
sg21
S'16753.7846045'
p1236
sg23
F0.40438038528842474
sbasg27
I00
sg28
I00
sg29
I5076339
sg21
S'16753.8265531'
p1237
sba(igraph
Edge
p1238
(dp1239
g7
I1
sg8
I00
sg10
I5
sg11
(lp1240
g1234
a(igraph
Vertex
p1241
(dp1242
g15
F0.90562741220440524
sg8
I00
sg16
g17
sg18
F51.999074187048052
sg19
F192.15309798763343
sg20
I5076694
sg21
S'16753.78655'
p1243
sg23
F0.47781411977311949
sbasg27
I00
sg28
I00
sg29
I5076340
sg21
S'16753.8348553'
p1244
sba(igraph
Edge
p1245
(dp1246
g7
I1
sg8
I00
sg10
I5
sg11
(lp1247
g1231
a(igraph
Vertex
p1248
(dp1249
g15
F0.90666627746678585
sg8
I00
sg16
g17
sg18
F-72.611903882763784
sg19
F192.67980267566043
sg20
I5076695
sg21
S'16753.795393'
p1250
sg23
F0.26516739951746793
sbasg27
I00
sg28
I00
sg29
I5076341
sg21
S'16753.9486792'
p1251
sba(igraph
Edge
p1252
(dp1253
g7
I1
sg8
I00
sg10
I5
sg11
(lp1254
g1241
a(igraph
Vertex
p1255
(dp1256
g15
F0.90561600908251294
sg8
I00
sg16
g17
sg18
F90.808235401512832
sg19
F192.14731660483409
sg20
I5076696
sg21
S'16753.8019078'
p1257
sg23
F0.54404135734046555
sbasg27
I00
sg28
I00
sg29
I5076342
sg21
S'16754.0235217'
p1258
sba(igraph
Edge
p1259
(dp1260
g7
I1
sg8
I00
sg10
I5
sg11
(lp1261
g1255
a(igraph
Vertex
p1262
(dp1263
g15
F0.90956078225805537
sg8
I00
sg16
g17
sg18
F126.86977386305125
sg19
F194.14731660483409
sg20
I5076697
sg21
S'16753.8045106'
p1264
sg23
F0.60557981887892709
sbasg27
I00
sg28
I00
sg29
I5076343
sg21
S'16754.0611765'
p1265
sba(igraph
Edge
p1266
(dp1267
g7
I1
sg8
I00
sg10
I5
sg11
(lp1268
g1262
a(igraph
Vertex
p1269
(dp1270
g15
F0.90700871570913322
sg8
I00
sg16
g17
sg18
F164.10236170753615
sg19
F192.85341886453057
sg20
I5076698
sg21
S'16753.807218'
p1271
sg23
F0.66911665820398658
sbasg27
I00
sg28
I00
sg29
I5076344
sg21
S'16754.0969506'
p1272
sba(igraph
Edge
p1273
(dp1274
g7
I1
sg8
I00
sg10
I5
sg11
(lp1275
g1269
a(igraph
Vertex
p1276
(dp1277
g15
F0.91095348888467564
sg8
I00
sg16
g17
sg18
F197.45928478445916
sg19
F194.85341886453057
sg20
I5076699
sg21
S'16753.8111936'
p1278
sg23
F0.72603973512706343
sbasg27
I00
sg28
I00
sg29
I5076345
sg21
S'16754.1333837'
p1279
sba(igraph
Edge
p1280
(dp1281
g7
I1
sg8
I00
sg10
I5
sg11
(lp1282
g1276
a(igraph
Vertex
p1283
(dp1284
g15
F0.9030639425335909
sg8
I00
sg16
g17
sg18
F232.16851555368999
sg19
F190.85341886453057
sg20
I5076700
sg21
S'16753.8139814'
p1285
sg23
F0.78527050435783274
sbasg27
I00
sg28
I00
sg29
I5076346
sg21
S'16754.2502075'
p1286
sba(igraph
Edge
p1287
(dp1288
g7
I1
sg8
I00
sg10
I5
sg11
(lp1289
g322
ag1248
asg27
I00
sg28
I00
sg29
I5076347
sg21
S'16778.8554766'
p1290
sba(igraph
Edge
p1291
(dp1292
g7
I1
sg8
I00
sg10
I5
sg11
(lp1293
g434
ag1248
asg27
I00
sg28
I00
sg29
I5076348
sg21
S'16778.8640526'
p1294
sba(igraph
Edge
p1295
(dp1296
g7
I1
sg8
I00
sg10
I5
sg11
(lp1297
g322
ag1231
asg27
I00
sg28
I00
sg29
I5076349
sg21
S'16785.385763'
p1298
sba(igraph
Edge
p1299
(dp1300
g7
I1
sg8
I00
sg10
I5
sg11
(lp1301
g325
ag1231
asg27
I00
sg28
I00
sg29
I5076350
sg21
S'16785.4019173'
p1302
sba(igraph
Edge
p1303
(dp1304
g7
I1
sg8
I00
sg10
I5
sg11
(lp1305
g325
ag1234
asg27
I00
sg28
I00
sg29
I5076351
sg21
S'16792.6740429'
p1306
sba(igraph
Edge
p1307
(dp1308
g7
I1
sg8
I00
sg10
I5
sg11
(lp1309
g332
ag1234
asg27
I00
sg28
I00
sg29
I5076352
sg21
S'16792.6870088'
p1310
sba(igraph
Edge
p1311
(dp1312
g7
I1
sg8
I00
sg10
I5
sg11
(lp1313
g332
ag1241
asg27
I00
sg28
I00
sg29
I5076353
sg21
S'16798.2211496'
p1314
sba(igraph
Edge
p1315
(dp1316
g7
I1
sg8
I00
sg10
I5
sg11
(lp1317
g576
ag1241
asg27
I00
sg28
I00
sg29
I5076354
sg21
S'16798.22929'
p1318
sba(igraph
Edge
p1319
(dp1320
g7
I1
sg8
I00
sg10
I5
sg11
(lp1321
g576
ag1255
asg27
I00
sg28
I00
sg29
I5076355
sg21
S'16804.2047107'
p1322
sba(igraph
Edge
p1323
(dp1324
g7
I1
sg8
I00
sg10
I5
sg11
(lp1325
g718
ag1255
asg27
I00
sg28
I00
sg29
I5076356
sg21
S'16804.2198165'
p1326
sba(igraph
Edge
p1327
(dp1328
g7
I1
sg8
I00
sg10
I5
sg11
(lp1329
g718
ag1262
asg27
I00
sg28
I00
sg29
I5076357
sg21
S'16808.7532413'
p1330
sba(igraph
Edge
p1331
(dp1332
g7
I1
sg8
I00
sg10
I5
sg11
(lp1333
g860
ag1262
asg27
I00
sg28
I00
sg29
I5076358
sg21
S'16808.7755162'
p1334
sba(igraph
Edge
p1335
(dp1336
g7
I1
sg8
I00
sg10
I5
sg11
(lp1337
g860
ag1269
asg27
I00
sg28
I00
sg29
I5076359
sg21
S'16815.6730501'
p1338
sba(igraph
Edge
p1339
(dp1340
g7
I1
sg8
I00
sg10
I5
sg11
(lp1341
g1002
ag1269
asg27
I00
sg28
I00
sg29
I5076360
sg21
S'16815.6946347'
p1342
sba(igraph
Edge
p1343
(dp1344
g7
I1
sg8
I00
sg10
I5
sg11
(lp1345
g1002
ag1276
asg27
I00
sg28
I00
sg29
I5076361
sg21
S'16821.6160953'
p1346
sba(igraph
Edge
p1347
(dp1348
g7
I1
sg8
I00
sg10
I5
sg11
(lp1349
g1144
ag1276
asg27
I00
sg28
I00
sg29
I5076362
sg21
S'16821.6275295'
p1350
sba(igraph
Edge
p1351
(dp1352
g7
I1
sg8
I00
sg10
I5
sg11
(lp1353
g1144
ag1283
asg27
I00
sg28
I00
sg29
I5076363
sg21
S'16827.0708934'
p1354
sba(igraph
Edge
p1355
(dp1356
g7
I1
sg8
I00
sg10
I5
sg11
(lp1357
(igraph
Vertex
p1358
(dp1359
g15
F0.037437225465185069
sg8
I00
sg16
g17
sg18
F257.87300161584244
sg19
F-248.01932668915117
sg20
I5076701
sg21
S'17307.3792189'
p1360
sg23
F0.82913481504409969
sba(igraph
Vertex
p1361
(dp1362
g15
F0.12204897086655303
sg8
I00
sg16
g17
sg18
F257.87300161584244
sg19
F-205.12117177065761
sg20
I5076702
sg21
S'17307.3809434'
p1363
sg23
F0.82913481504409969
sbasg27
I00
sg28
I00
sg29
I5076364
sg21
S'17307.4275521'
p1364
sba(igraph
Edge
p1365
(dp1366
g7
I1
sg8
I00
sg10
I5
sg11
(lp1367
g1361
a(igraph
Vertex
p1368
(dp1369
g15
F0.2066607162679209
sg8
I00
sg16
g17
sg18
F257.87300161584244
sg19
F-162.22301685216411
sg20
I5076703
sg21
S'17307.3827903'
p1370
sg23
F0.82913481504409969
sbasg27
I00
sg28
I00
sg29
I5076365
sg21
S'17307.4350436'
p1371
sba(igraph
Edge
p1372
(dp1373
g7
I1
sg8
I00
sg10
I5
sg11
(lp1374
(igraph
Vertex
p1375
(dp1376
g15
F0.29796872863663637
sg8
I00
sg16
g17
sg18
F257.82548142987036
sg19
F-115.92985458122536
sg20
I5076704
sg21
S'17307.3844519'
p1377
sg23
F0.82905372257657062
sba(igraph
Vertex
p1378
(dp1379
g15
F0.38258047403800421
sg8
I00
sg16
g17
sg18
F257.82548142987036
sg19
F-73.031699662731853
sg20
I5076705
sg21
S'17307.386117'
p1380
sg23
F0.82905372257657062
sbasg27
I00
sg28
I00
sg29
I5076366
sg21
S'17307.4440975'
p1381
sba(igraph
Edge
p1382
(dp1383
g7
I1
sg8
I00
sg10
I5
sg11
(lp1384
g1378
a(igraph
Vertex
p1385
(dp1386
g15
F0.46719221943937222
sg8
I00
sg16
g17
sg18
F257.82548142987036
sg19
F-30.133544744238293
sg20
I5076706
sg21
S'17307.3879437'
p1387
sg23
F0.82905372257657062
sbasg27
I00
sg28
I00
sg29
I5076367
sg21
S'17307.4517507'
p1388
sba(igraph
Edge
p1389
(dp1390
g7
I1
sg8
I00
sg10
I5
sg11
(lp1391
g1368
ag1375
asg27
I00
sg28
I00
sg29
I5076368
sg21
S'17307.4593919'
p1392
sba(igraph
Edge
p1393
(dp1394
g7
I1
sg8
I00
sg10
I5
sg11
(lp1395
(igraph
Vertex
p1396
(dp1397
g15
F0.55584337824698182
sg8
I00
sg16
g17
sg18
F257.69928093597997
sg19
F14.812592771219784
sg20
I5076707
sg21
S'17307.3923608'
p1398
sg23
F0.82883836337197947
sba(igraph
Vertex
p1399
(dp1400
g15
F0.64045512364834978
sg8
I00
sg16
g17
sg18
F257.69928093597997
sg19
F57.710747689713344
sg20
I5076708
sg21
S'17307.3945356'
p1401
sg23
F0.82883836337197947
sbasg27
I00
sg28
I00
sg29
I5076369
sg21
S'17307.4666219'
p1402
sba(igraph
Edge
p1403
(dp1404
g7
I1
sg8
I00
sg10
I5
sg11
(lp1405
g1399
a(igraph
Vertex
p1406
(dp1407
g15
F0.72506686904971762
sg8
I00
sg16
g17
sg18
F257.69928093597997
sg19
F100.60890260820685
sg20
I5076709
sg21
S'17307.3965093'
p1408
sg23
F0.82883836337197947
sbasg27
I00
sg28
I00
sg29
I5076370
sg21
S'17307.4739558'
p1409
sba(igraph
Edge
p1410
(dp1411
g7
I1
sg8
I00
sg10
I5
sg11
(lp1412
g1406
a(igraph
Vertex
p1413
(dp1414
g15
F0.81637488141843328
sg8
I00
sg16
g17
sg18
F257.65176075000795
sg19
F146.90206487914566
sg20
I5076710
sg21
S'17307.3983132'
p1415
sg23
F0.82875727090445039
sbasg27
I00
sg28
I00
sg29
I5076371
sg21
S'17307.4819129'
p1416
sba(igraph
Edge
p1417
(dp1418
g7
I1
sg8
I00
sg10
I5
sg11
(lp1419
g1385
ag1396
asg27
I00
sg28
I00
sg29
I5076372
sg21
S'17307.4895013'
p1420
sba(igraph
Edge
p1421
(dp1422
g7
I1
sg8
I00
sg10
I5
sg11
(lp1423
(igraph
Vertex
p1424
(dp1425
g15
F0.041381998640727474
sg8
I00
sg16
I0
sg18
F291.22992469276551
sg19
F-246.01932668915117
sg20
I5076711
sg21
S'17307.4002238'
p1426
sg23
F0.88605789196717666
sba(igraph
Vertex
p1427
(dp1428
g15
F0.12599374404209543
sg8
I00
sg16
g17
sg18
F291.22992469276551
sg19
F-203.12117177065761
sg20
I5076713
sg21
S'17307.4020139'
p1429
sg23
F0.88605789196717666
sbasg27
I00
sg28
I00
sg29
I5076373
sg21
S'17307.4974568'
p1430
sba(igraph
Edge
p1431
(dp1432
g7
I1
sg8
I00
sg10
I5
sg11
(lp1433
g1427
a(igraph
Vertex
p1434
(dp1435
g15
F0.2106054894434633
sg8
I00
sg16
g17
sg18
F291.22992469276551
sg19
F-160.22301685216411
sg20
I5076714
sg21
S'17307.4040301'
p1436
sg23
F0.88605789196717666
sbasg27
I00
sg28
I00
sg29
I5076374
sg21
S'17307.5049762'
p1437
sba(igraph
Edge
p1438
(dp1439
g7
I1
sg8
I00
sg10
I5
sg11
(lp1440
(igraph
Vertex
p1441
(dp1442
g15
F0.3019135018121788
sg8
I00
sg16
g17
sg18
F291.18240450679343
sg19
F-113.92985458122536
sg20
I5076715
sg21
S'17307.4059024'
p1443
sg23
F0.88597679949964758
sba(igraph
Vertex
p1444
(dp1445
g15
F0.38652524721354664
sg8
I00
sg16
g17
sg18
F291.18240450679343
sg19
F-71.031699662731853
sg20
I5076716
sg21
S'17307.4078102'
p1446
sg23
F0.88597679949964758
sbasg27
I00
sg28
I00
sg29
I5076375
sg21
S'17307.5126235'
p1447
sba(igraph
Edge
p1448
(dp1449
g7
I1
sg8
I00
sg10
I5
sg11
(lp1450
g1444
a(igraph
Vertex
p1451
(dp1452
g15
F0.4711369926149146
sg8
I00
sg16
g17
sg18
F291.18240450679343
sg19
F-28.133544744238293
sg20
I5076717
sg21
S'17307.4098445'
p1453
sg23
F0.88597679949964758
sbasg27
I00
sg28
I00
sg29
I5076376
sg21
S'17307.5207617'
p1454
sba(igraph
Edge
p1455
(dp1456
g7
I1
sg8
I00
sg10
I5
sg11
(lp1457
g1434
ag1441
asg27
I00
sg28
I00
sg29
I5076377
sg21
S'17307.5298215'
p1458
sba(igraph
Edge
p1459
(dp1460
g7
I1
sg8
I00
sg10
I5
sg11
(lp1461
(igraph
Vertex
p1462
(dp1463
g15
F0.55978815142252425
sg8
I00
sg16
g17
sg18
F291.05620401290309
sg19
F16.812592771219784
sg20
I5076718
sg21
S'17307.4116817'
p1464
sg23
F0.88576144029505643
sba(igraph
Vertex
p1465
(dp1466
g15
F0.6443998968238922
sg8
I00
sg16
g17
sg18
F291.05620401290309
sg19
F59.710747689713344
sg20
I5076719
sg21
S'17307.4143932'
p1467
sg23
F0.88576144029505643
sbasg27
I00
sg28
I00
sg29
I5076378
sg21
S'17307.5384265'
p1468
sba(igraph
Edge
p1469
(dp1470
g7
I1
sg8
I00
sg10
I5
sg11
(lp1471
g1465
a(igraph
Vertex
p1472
(dp1473
g15
F0.72901164222526005
sg8
I00
sg16
g17
sg18
F291.05620401290309
sg19
F102.60890260820685
sg20
I5076720
sg21
S'17307.416706'
p1474
sg23
F0.88576144029505643
sbasg27
I00
sg28
I00
sg29
I5076379
sg21
S'17307.5466597'
p1475
sba(igraph
Edge
p1476
(dp1477
g7
I1
sg8
I00
sg10
I5
sg11
(lp1478
g1472
a(igraph
Vertex
p1479
(dp1480
g15
F0.8203196545939756
sg8
I00
sg16
g17
sg18
F291.00868382693102
sg19
F148.90206487914566
sg20
I5076721
sg21
S'17307.4187745'
p1481
sg23
F0.88568034782752736
sbasg27
I00
sg28
I00
sg29
I5076380
sg21
S'17307.5544238'
p1482
sba(igraph
Edge
p1483
(dp1484
g7
I1
sg8
I00
sg10
I5
sg11
(lp1485
g1451
ag1462
asg27
I00
sg28
I00
sg29
I5076381
sg21
S'17307.5624572'
p1486
sba(igraph
Edge
p1487
(dp1488
g7
I1
sg8
I00
sg10
I5
sg11
(lp1489
g1358
ag1424
asg27
I00
sg28
I00
sg29
I5076382
sg21
S'17307.5705429'
p1490
sba(igraph
Edge
p1491
(dp1492
g7
I1
sg8
I00
sg10
I5
sg11
(lp1493
g1361
ag1424
asg27
I00
sg28
I00
sg29
I5076383
sg21
S'17307.5785395'
p1494
sba(igraph
Edge
p1495
(dp1496
g7
I1
sg8
I00
sg10
I5
sg11
(lp1497
g1361
ag1427
asg27
I00
sg28
I00
sg29
I5076384
sg21
S'17307.5861108'
p1498
sba(igraph
Edge
p1499
(dp1500
g7
I1
sg8
I00
sg10
I5
sg11
(lp1501
g1368
ag1427
asg27
I00
sg28
I00
sg29
I5076385
sg21
S'17307.5939945'
p1502
sba(igraph
Edge
p1503
(dp1504
g7
I1
sg8
I00
sg10
I5
sg11
(lp1505
g1368
ag1434
asg27
I00
sg28
I00
sg29
I5076386
sg21
S'17307.6024081'
p1506
sba(igraph
Edge
p1507
(dp1508
g7
I1
sg8
I00
sg10
I5
sg11
(lp1509
g1375
ag1434
asg27
I00
sg28
I00
sg29
I5076387
sg21
S'17307.6104469'
p1510
sba(igraph
Edge
p1511
(dp1512
g7
I1
sg8
I00
sg10
I5
sg11
(lp1513
g1375
ag1441
asg27
I00
sg28
I00
sg29
I5076388
sg21
S'17307.6184616'
p1514
sba(igraph
Edge
p1515
(dp1516
g7
I1
sg8
I00
sg10
I5
sg11
(lp1517
g1378
ag1441
asg27
I00
sg28
I00
sg29
I5076389
sg21
S'17307.6277907'
p1518
sba(igraph
Edge
p1519
(dp1520
g7
I1
sg8
I00
sg10
I5
sg11
(lp1521
g1378
ag1444
asg27
I00
sg28
I00
sg29
I5076390
sg21
S'17307.6358649'
p1522
sba(igraph
Edge
p1523
(dp1524
g7
I1
sg8
I00
sg10
I5
sg11
(lp1525
g1385
ag1444
asg27
I00
sg28
I00
sg29
I5076391
sg21
S'17307.6443755'
p1526
sba(igraph
Edge
p1527
(dp1528
g7
I1
sg8
I00
sg10
I5
sg11
(lp1529
g1385
ag1451
asg27
I00
sg28
I00
sg29
I5076392
sg21
S'17307.6524941'
p1530
sba(igraph
Edge
p1531
(dp1532
g7
I1
sg8
I00
sg10
I5
sg11
(lp1533
g1396
ag1451
asg27
I00
sg28
I00
sg29
I5076393
sg21
S'17307.660556'
p1534
sba(igraph
Edge
p1535
(dp1536
g7
I1
sg8
I00
sg10
I5
sg11
(lp1537
g1396
ag1462
asg27
I00
sg28
I00
sg29
I5076394
sg21
S'17307.6691317'
p1538
sba(igraph
Edge
p1539
(dp1540
g7
I1
sg8
I00
sg10
I5
sg11
(lp1541
g1399
ag1462
asg27
I00
sg28
I00
sg29
I5076395
sg21
S'17307.6772428'
p1542
sba(igraph
Edge
p1543
(dp1544
g7
I1
sg8
I00
sg10
I5
sg11
(lp1545
g1399
ag1465
asg27
I00
sg28
I00
sg29
I5076396
sg21
S'17307.6855131'
p1546
sba(igraph
Edge
p1547
(dp1548
g7
I1
sg8
I00
sg10
I5
sg11
(lp1549
g1406
ag1465
asg27
I00
sg28
I00
sg29
I5076397
sg21
S'17307.6937541'
p1550
sba(igraph
Edge
p1551
(dp1552
g7
I1
sg8
I00
sg10
I5
sg11
(lp1553
g1406
ag1472
asg27
I00
sg28
I00
sg29
I5076398
sg21
S'17307.7020021'
p1554
sba(igraph
Edge
p1555
(dp1556
g7
I1
sg8
I00
sg10
I5
sg11
(lp1557
g1413
ag1472
asg27
I00
sg28
I00
sg29
I5076399
sg21
S'17307.7104998'
p1558
sba(igraph
Edge
p1559
(dp1560
g7
I1
sg8
I00
sg10
I5
sg11
(lp1561
g1413
ag1479
asg27
I00
sg28
I00
sg29
I5076400
sg21
S'17307.7202846'
p1562
sba(igraph
Edge
p1563
(dp1564
g7
I1
sg8
I00
sg10
I5
sg11
(lp1565
(igraph
Vertex
p1566
(dp1567
g15
F0.90930833666499244
sg8
I00
sg16
g17
sg18
F260.91131617306894
sg19
F194.01932668915117
sg20
I5076722
sg21
S'17307.4208549'
p1568
sg23
F0.83431965217247261
sba(igraph
Vertex
p1569
(dp1570
g15
F0.91325310984053487
sg8
I00
sg16
g17
sg18
F294.26823924999201
sg19
F196.01932668915117
sg20
I5076723
sg21
S'17307.4223959'
p1571
sg23
F0.89124272909554958
sbasg27
I00
sg28
I00
sg29
I5076401
sg21
S'17307.7295673'
p1572
sba(igraph
Edge
p1573
(dp1574
g7
I1
sg8
I00
sg10
I5
sg11
(lp1575
g1413
ag1566
asg27
I00
sg28
I00
sg29
I5076402
sg21
S'17307.7388324'
p1576
sba(igraph
Edge
p1577
(dp1578
g7
I1
sg8
I00
sg10
I5
sg11
(lp1579
g1479
ag1566
asg27
I00
sg28
I00
sg29
I5076403
sg21
S'17307.7476369'
p1580
sba(igraph
Edge
p1581
(dp1582
g7
I1
sg8
I00
sg10
I5
sg11
(lp1583
g1479
ag1569
asg27
I00
sg28
I00
sg29
I5076404
sg21
S'17307.7568392'
p1584
sba(igraph
Edge
p1585
(dp1586
g7
I1
sg8
I00
sg10
I5
sg11
(lp1587
g1089
ag1358
asg27
I00
sg28
I00
sg29
I5076405
sg21
S'17317.313646'
p1588
sba(igraph
Edge
p1589
(dp1590
g7
I1
sg8
I00
sg10
I5
sg11
(lp1591
g1092
ag1358
asg27
I00
sg28
I00
sg29
I5076406
sg21
S'17317.331148'
p1592
sba(igraph
Edge
p1593
(dp1594
g7
I1
sg8
I00
sg10
I5
sg11
(lp1595
g1092
ag1361
asg27
I00
sg28
I00
sg29
I5076407
sg21
S'17323.4701463'
p1596
sba(igraph
Edge
p1597
(dp1598
g7
I1
sg8
I00
sg10
I5
sg11
(lp1599
g1099
ag1361
asg27
I00
sg28
I00
sg29
I5076408
sg21
S'17323.4777493'
p1600
sba(igraph
Edge
p1601
(dp1602
g7
I1
sg8
I00
sg10
I5
sg11
(lp1603
g1099
ag1368
asg27
I00
sg28
I00
sg29
I5076409
sg21
S'17329.0959055'
p1604
sba(igraph
Edge
p1605
(dp1606
g7
I1
sg8
I00
sg10
I5
sg11
(lp1607
g1106
ag1368
asg27
I00
sg28
I00
sg29
I5076410
sg21
S'17329.1123688'
p1608
sba(igraph
Edge
p1609
(dp1610
g7
I1
sg8
I00
sg10
I5
sg11
(lp1611
g1106
ag1375
asg27
I00
sg28
I00
sg29
I5076411
sg21
S'17335.1754782'
p1612
sba(igraph
Edge
p1613
(dp1614
g7
I1
sg8
I00
sg10
I5
sg11
(lp1615
g1109
ag1375
asg27
I00
sg28
I00
sg29
I5076412
sg21
S'17335.1892908'
p1616
sba(igraph
Edge
p1617
(dp1618
g7
I1
sg8
I00
sg10
I5
sg11
(lp1619
g1109
ag1378
asg27
I00
sg28
I00
sg29
I5076413
sg21
S'17340.5254914'
p1620
sba(igraph
Edge
p1621
(dp1622
g7
I1
sg8
I00
sg10
I5
sg11
(lp1623
g1116
ag1378
asg27
I00
sg28
I00
sg29
I5076414
sg21
S'17340.5337108'
p1624
sba(igraph
Edge
p1625
(dp1626
g7
I1
sg8
I00
sg10
I5
sg11
(lp1627
g1116
ag1385
asg27
I00
sg28
I00
sg29
I5076415
sg21
S'17345.2949174'
p1628
sba(igraph
Edge
p1629
(dp1630
g7
I1
sg8
I00
sg10
I5
sg11
(lp1631
g1127
ag1385
asg27
I00
sg28
I00
sg29
I5076416
sg21
S'17345.307498'
p1632
sba(igraph
Edge
p1633
(dp1634
g7
I1
sg8
I00
sg10
I5
sg11
(lp1635
g1127
ag1396
asg27
I00
sg28
I00
sg29
I5076417
sg21
S'17350.4786064'
p1636
sba(igraph
Edge
p1637
(dp1638
g7
I1
sg8
I00
sg10
I5
sg11
(lp1639
g1130
ag1396
asg27
I00
sg28
I00
sg29
I5076418
sg21
S'17350.4868527'
p1640
sba(igraph
Edge
p1641
(dp1642
g7
I1
sg8
I00
sg10
I5
sg11
(lp1643
g1130
ag1399
asg27
I00
sg28
I00
sg29
I5076419
sg21
S'17357.4514185'
p1644
sba(igraph
Edge
p1645
(dp1646
g7
I1
sg8
I00
sg10
I5
sg11
(lp1647
g1137
ag1399
asg27
I00
sg28
I00
sg29
I5076420
sg21
S'17357.4670658'
p1648
sba(igraph
Edge
p1649
(dp1650
g7
I1
sg8
I00
sg10
I5
sg11
(lp1651
g1137
ag1406
asg27
I00
sg28
I00
sg29
I5076421
sg21
S'17363.7037238'
p1652
sba(igraph
Edge
p1653
(dp1654
g7
I1
sg8
I00
sg10
I5
sg11
(lp1655
g1144
ag1406
asg27
I00
sg28
I00
sg29
I5076422
sg21
S'17363.7183201'
p1656
sba(igraph
Edge
p1657
(dp1658
g7
I1
sg8
I00
sg10
I5
sg11
(lp1659
g1144
ag1413
asg27
I00
sg28
I00
sg29
I5076423
sg21
S'17368.7848249'
p1660
sba(igraph
Edge
p1661
(dp1662
g7
I1
sg8
I00
sg10
I5
sg11
(lp1663
g1283
ag1413
asg27
I00
sg28
I00
sg29
I5076424
sg21
S'17368.7928742'
p1664
sba(igraph
Edge
p1665
(dp1666
g7
I1
sg8
I00
sg9
I5076426
sg10
I5
sg11
(lp1667
g1089
ag1283
asg27
I01
sg28
I00
sg29
I5076425
sg21
S'17375.6740644'
p1668
sba(igraph
Edge
p1669
(dp1670
g7
I1
sg8
I00
sg9
I5076428
sg10
I5
sg11
(lp1671
g1089
ag1566
asg27
I01
sg28
I00
sg29
I5076427
sg21
S'17375.6783683'
p1672
sba(igraph
Edge
p1673
(dp1674
g7
I1
sg8
I00
sg10
I5
sg11
(lp1675
g1283
ag1566
asg27
I00
sg28
I00
sg29
I5076429
sg21
S'17375.6882352'
p1676
sba(igraph
Edge
p1677
(dp1678
g7
I1
sg8
I00
sg9
I5076431
sg10
I5
sg11
(lp1679
g947
ag1276
asg27
I01
sg28
I00
sg29
I5076430
sg21
S'17385.8074289'
p1680
sba(igraph
Edge
p1681
(dp1682
g7
I1
sg8
I00
sg9
I5076433
sg10
I5
sg11
(lp1683
g947
ag1283
asg27
I01
sg28
I00
sg29
I5076432
sg21
S'17385.816751'
p1684
sba(igraph
Edge
p1685
(dp1686
g7
I1
sg8
I00
sg9
I5076435
sg10
I5
sg11
(lp1687
g805
ag1269
asg27
I01
sg28
I00
sg29
I5076434
sg21
S'17391.7143129'
p1688
sba(igraph
Edge
p1689
(dp1690
g7
I1
sg8
I00
sg9
I5076437
sg10
I5
sg11
(lp1691
g805
ag1276
asg27
I01
sg28
I00
sg29
I5076436
sg21
S'17391.7191811'
p1692
sba(igraph
Edge
p1693
(dp1694
g7
I1
sg8
I00
sg9
I5076439
sg10
I5
sg11
(lp1695
g663
ag1262
asg27
I01
sg28
I00
sg29
I5076438
sg21
S'17397.390717'
p1696
sba(igraph
Edge
p1697
(dp1698
g7
I1
sg8
I00
sg9
I5076441
sg10
I5
sg11
(lp1699
g663
ag1269
asg27
I01
sg28
I00
sg29
I5076440
sg21
S'17397.3988549'
p1700
sba(igraph
Edge
p1701
(dp1702
g7
I1
sg8
I00
sg9
I5076443
sg10
I5
sg11
(lp1703
g521
ag1255
asg27
I01
sg28
I00
sg29
I5076442
sg21
S'17407.9124953'
p1704
sba(igraph
Edge
p1705
(dp1706
g7
I1
sg8
I00
sg9
I5076445
sg10
I5
sg11
(lp1707
g521
ag1262
asg27
I01
sg28
I00
sg29
I5076444
sg21
S'17407.9174043'
p1708
sba(igraph
Edge
p1709
(dp1710
g7
I1
sg8
I00
sg9
I5076447
sg10
I5
sg11
(lp1711
g58
ag1241
asg27
I01
sg28
I00
sg29
I5076446
sg21
S'17414.2904713'
p1712
sba(igraph
Edge
p1713
(dp1714
g7
I1
sg8
I00
sg9
I5076449
sg10
I5
sg11
(lp1715
g58
ag1255
asg27
I01
sg28
I00
sg29
I5076448
sg21
S'17414.2977415'
p1716
sba(igraph
Edge
p1717
(dp1718
g7
I1
sg8
I00
sg9
I5076451
sg10
I5
sg11
(lp1719
g41
ag1234
asg27
I01
sg28
I00
sg29
I5076450
sg21
S'17421.1833993'
p1720
sba(igraph
Edge
p1721
(dp1722
g7
I1
sg8
I00
sg9
I5076453
sg10
I5
sg11
(lp1723
g41
ag1241
asg27
I01
sg28
I00
sg29
I5076452
sg21
S'17421.190874'
p1724
sba(igraph
Edge
p1725
(dp1726
g7
I1
sg8
I00
sg9
I5076455
sg10
I5
sg11
(lp1727
g13
ag1231
asg27
I01
sg28
I00
sg29
I5076454
sg21
S'17428.6375333'
p1728
sba(igraph
Edge
p1729
(dp1730
g7
I1
sg8
I00
sg9
I5076457
sg10
I5
sg11
(lp1731
g13
ag1234
asg27
I01
sg28
I00
sg29
I5076456
sg21
S'17428.6418729'
p1732
sba(igraph
Edge
p1733
(dp1734
g7
I1
sg8
I00
sg9
I5076459
sg10
I5
sg11
(lp1735
g379
ag1231
asg27
I01
sg28
I00
sg29
I5076458
sg21
S'17435.5000588'
p1736
sba(igraph
Edge
p1737
(dp1738
g7
I1
sg8
I00
sg9
I5076461
sg10
I5
sg11
(lp1739
g379
ag1248
asg27
I01
sg28
I00
sg29
I5076460
sg21
S'17435.5099645'
p1740
sba(igraph
Edge
p1741
(dp1742
g7
I1
sg8
I00
sg9
I5076463
sg10
I5
sg11
(lp1743
g1424
ag1569
asg27
I01
sg28
I00
sg29
I5076462
sg21
S'17458.9008757'
p1744
sba(igraph
Edge
p1745
(dp1746
g7
I1
sg8
I00
sg9
I5076465
sg10
I5
sg11
(lp1747
g1358
ag1566
asg27
I01
sg28
I00
sg29
I5076464
sg21
S'17474.3530513'
p1748
sba(igraph
Edge
p1749
(dp1750
g7
I1
sg8
I00
sg9
I5076467
sg10
I5
sg11
(lp1751
g1358
ag1569
asg27
I01
sg28
I00
sg29
I5076466
sg21
S'17474.3576748'
p1752
sba(igraph
Edge
p1753
(dp1754
g7
I1
sg8
I00
sg10
I5
sg11
(lp1755
(igraph
Vertex
p1756
(dp1757
g18
F-160.65130042283664
sg19
F-249.2826790331647
sg20
I5076724
sg8
I00
sg21
S'22012.8455203'
p1758
sg16
g17
sba(igraph
Vertex
p1759
(dp1760
g18
F-160.65130042283664
sg19
F-206.38452411467108
sg20
I5076725
sg8
I00
sg21
S'22012.8466017'
p1761
sg16
g17
sbasg27
I00
sg28
I00
sg29
I5076468
sg21
S'22012.891691'
p1762
sba(igraph
Edge
p1763
(dp1764
g7
I1
sg8
I00
sg10
I5
sg11
(lp1765
g1759
a(igraph
Vertex
p1766
(dp1767
g18
F-160.65130042283664
sg19
F-163.48636919617758
sg20
I5076726
sg8
I00
sg21
S'22012.8476823'
p1768
sg16
g17
sbasg27
I00
sg28
I00
sg29
I5076469
sg21
S'22012.9001571'
p1769
sba(igraph
Edge
p1770
(dp1771
g7
I1
sg8
I00
sg10
I5
sg11
(lp1772
(igraph
Vertex
p1773
(dp1774
g18
F-117.61913201480553
sg19
F-249.2826790331647
sg20
I5076727
sg8
I00
sg21
S'22012.8487632'
p1775
sg16
g17
sba(igraph
Vertex
p1776
(dp1777
g18
F-117.61913201480553
sg19
F-206.38452411467108
sg20
I5076728
sg8
I00
sg21
S'22012.8499991'
p1778
sg16
g17
sbasg27
I00
sg28
I00
sg29
I5076470
sg21
S'22012.9083607'
p1779
sba(igraph
Edge
p1780
(dp1781
g7
I1
sg8
I00
sg10
I5
sg11
(lp1782
g1776
a(igraph
Vertex
p1783
(dp1784
g18
F-117.61913201480553
sg19
F-163.48636919617758
sg20
I5076729
sg8
I00
sg21
S'22012.8512255'
p1785
sg16
g17
sbasg27
I00
sg28
I00
sg29
I5076471
sg21
S'22012.9163092'
p1786
sba(igraph
Edge
p1787
(dp1788
g7
I1
sg8
I00
sg10
I5
sg11
(lp1789
g1756
ag1773
asg27
I00
sg28
I00
sg29
I5076472
sg21
S'22012.9255059'
p1790
sba(igraph
Edge
p1791
(dp1792
g7
I1
sg8
I00
sg10
I5
sg11
(lp1793
g1759
ag1776
asg27
I00
sg28
I00
sg29
I5076473
sg21
S'22012.9331228'
p1794
sba(igraph
Edge
p1795
(dp1796
g7
I1
sg8
I00
sg10
I5
sg11
(lp1797
g1766
ag1783
asg27
I00
sg28
I00
sg29
I5076474
sg21
S'22012.9413255'
p1798
sba(igraph
Edge
p1799
(dp1800
g7
I1
sg8
I00
sg10
I5
sg11
(lp1801
g1759
ag1773
asg27
I00
sg28
I00
sg29
I5076475
sg21
S'22012.9494542'
p1802
sba(igraph
Edge
p1803
(dp1804
g7
I1
sg8
I00
sg10
I5
sg11
(lp1805
g1766
ag1776
asg27
I00
sg28
I00
sg29
I5076476
sg21
S'22012.9574781'
p1806
sba(igraph
Edge
p1807
(dp1808
g7
I1
sg8
I00
sg10
I5
sg11
(lp1809
(igraph
Vertex
p1810
(dp1811
g18
F-160.69882060880877
sg19
F-117.19320692523883
sg20
I5076730
sg8
I00
sg21
S'22012.8523273'
p1812
sg16
g17
sba(igraph
Vertex
p1813
(dp1814
g18
F-160.69882060880877
sg19
F-74.295052006745308
sg20
I5076731
sg8
I00
sg21
S'22012.8535699'
p1815
sg16
g17
sbasg27
I00
sg28
I00
sg29
I5076477
sg21
S'22012.9653733'
p1816
sba(igraph
Edge
p1817
(dp1818
g7
I1
sg8
I00
sg10
I5
sg11
(lp1819
g1813
a(igraph
Vertex
p1820
(dp1821
g18
F-160.69882060880877
sg19
F-31.396897088251777
sg20
I5076732
sg8
I00
sg21
S'22012.8547757'
p1822
sg16
g17
sbasg27
I00
sg28
I00
sg29
I5076478
sg21
S'22012.9734673'
p1823
sba(igraph
Edge
p1824
(dp1825
g7
I1
sg8
I00
sg10
I5
sg11
(lp1826
(igraph
Vertex
p1827
(dp1828
g18
F-117.66665220077766
sg19
F-117.19320692523883
sg20
I5076733
sg8
I00
sg21
S'22012.8559082'
p1829
sg16
g17
sba(igraph
Vertex
p1830
(dp1831
g18
F-117.66665220077766
sg19
F-74.295052006745308
sg20
I5076734
sg8
I00
sg21
S'22012.8570408'
p1832
sg16
g17
sbasg27
I00
sg28
I00
sg29
I5076479
sg21
S'22012.9815373'
p1833
sba(igraph
Edge
p1834
(dp1835
g7
I1
sg8
I00
sg10
I5
sg11
(lp1836
g1830
a(igraph
Vertex
p1837
(dp1838
g18
F-117.66665220077766
sg19
F-31.396897088251777
sg20
I5076735
sg8
I00
sg21
S'22012.8585186'
p1839
sg16
g17
sbasg27
I00
sg28
I00
sg29
I5076480
sg21
S'22012.9909955'
p1840
sba(igraph
Edge
p1841
(dp1842
g7
I1
sg8
I00
sg10
I5
sg11
(lp1843
g1810
ag1827
asg27
I00
sg28
I00
sg29
I5076481
sg21
S'22012.9989462'
p1844
sba(igraph
Edge
p1845
(dp1846
g7
I1
sg8
I00
sg10
I5
sg11
(lp1847
g1813
ag1830
asg27
I00
sg28
I00
sg29
I5076482
sg21
S'22013.0072856'
p1848
sba(igraph
Edge
p1849
(dp1850
g7
I1
sg8
I00
sg10
I5
sg11
(lp1851
g1820
ag1837
asg27
I00
sg28
I00
sg29
I5076483
sg21
S'22013.0165504'
p1852
sba(igraph
Edge
p1853
(dp1854
g7
I1
sg8
I00
sg10
I5
sg11
(lp1855
g1813
ag1827
asg27
I00
sg28
I00
sg29
I5076484
sg21
S'22013.0247911'
p1856
sba(igraph
Edge
p1857
(dp1858
g7
I1
sg8
I00
sg10
I5
sg11
(lp1859
g1820
ag1830
asg27
I00
sg28
I00
sg29
I5076485
sg21
S'22013.0348477'
p1860
sba(igraph
Edge
p1861
(dp1862
g7
I1
sg8
I00
sg10
I5
sg11
(lp1863
g1766
ag1810
asg27
I00
sg28
I00
sg29
I5076486
sg21
S'22013.0427929'
p1864
sba(igraph
Edge
p1865
(dp1866
g7
I1
sg8
I00
sg10
I5
sg11
(lp1867
g1783
ag1810
asg27
I00
sg28
I00
sg29
I5076487
sg21
S'22013.0508612'
p1868
sba(igraph
Edge
p1869
(dp1870
g7
I1
sg8
I00
sg10
I5
sg11
(lp1871
g1783
ag1827
asg27
I00
sg28
I00
sg29
I5076488
sg21
S'22013.0593425'
p1872
sba(igraph
Edge
p1873
(dp1874
g7
I1
sg8
I00
sg10
I5
sg11
(lp1875
(igraph
Vertex
p1876
(dp1877
g18
F-160.82502110269911
sg19
F13.5492404272063
sg20
I5076736
sg8
I00
sg21
S'22012.859861'
p1878
sg16
g17
sba(igraph
Vertex
p1879
(dp1880
g18
F-160.82502110269911
sg19
F56.44739534569986
sg20
I5076737
sg8
I00
sg21
S'22012.8610958'
p1881
sg16
g17
sbasg27
I00
sg28
I00
sg29
I5076489
sg21
S'22013.0676349'
p1882
sba(igraph
Edge
p1883
(dp1884
g7
I1
sg8
I00
sg10
I5
sg11
(lp1885
g1879
a(igraph
Vertex
p1886
(dp1887
g18
F-160.82502110269911
sg19
F99.345550264193363
sg20
I5076738
sg8
I00
sg21
S'22012.862271'
p1888
sg16
g17
sbasg27
I00
sg28
I00
sg29
I5076490
sg21
S'22013.0771484'
p1889
sba(igraph
Edge
p1890
(dp1891
g7
I1
sg8
I00
sg10
I5
sg11
(lp1892
(igraph
Vertex
p1893
(dp1894
g18
F-117.79285269466811
sg19
F13.5492404272063
sg20
I5076739
sg8
I00
sg21
S'22012.8634634'
p1895
sg16
g17
sba(igraph
Vertex
p1896
(dp1897
g18
F-117.79285269466811
sg19
F56.44739534569986
sg20
I5076740
sg8
I00
sg21
S'22012.8646451'
p1898
sg16
g17
sbasg27
I00
sg28
I00
sg29
I5076491
sg21
S'22013.0853396'
p1899
sba(igraph
Edge
p1900
(dp1901
g7
I1
sg8
I00
sg10
I5
sg11
(lp1902
g1896
a(igraph
Vertex
p1903
(dp1904
g18
F-117.79285269466811
sg19
F99.345550264193363
sg20
I5076741
sg8
I00
sg21
S'22012.8658299'
p1905
sg16
g17
sbasg27
I00
sg28
I00
sg29
I5076492
sg21
S'22013.0936854'
p1906
sba(igraph
Edge
p1907
(dp1908
g7
I1
sg8
I00
sg10
I5
sg11
(lp1909
g1876
ag1893
asg27
I00
sg28
I00
sg29
I5076493
sg21
S'22013.1031916'
p1910
sba(igraph
Edge
p1911
(dp1912
g7
I1
sg8
I00
sg10
I5
sg11
(lp1913
g1879
ag1896
asg27
I00
sg28
I00
sg29
I5076494
sg21
S'22013.1117463'
p1914
sba(igraph
Edge
p1915
(dp1916
g7
I1
sg8
I00
sg10
I5
sg11
(lp1917
g1886
ag1903
asg27
I00
sg28
I00
sg29
I5076495
sg21
S'22013.1199722'
p1918
sba(igraph
Edge
p1919
(dp1920
g7
I1
sg8
I00
sg10
I5
sg11
(lp1921
g1879
ag1893
asg27
I00
sg28
I00
sg29
I5076496
sg21
S'22013.1284892'
p1922
sba(igraph
Edge
p1923
(dp1924
g7
I1
sg8
I00
sg10
I5
sg11
(lp1925
g1886
ag1896
asg27
I00
sg28
I00
sg29
I5076497
sg21
S'22013.136928'
p1926
sba(igraph
Edge
p1927
(dp1928
g7
I1
sg8
I00
sg10
I5
sg11
(lp1929
(igraph
Vertex
p1930
(dp1931
g18
F-160.87254128867119
sg19
F145.63871253513219
sg20
I5076742
sg8
I00
sg21
S'22012.8670694'
p1932
sg16
g17
sba(igraph
Vertex
p1933
(dp1934
g18
F-117.84037288064013
sg19
F145.63871253513219
sg20
I5076743
sg8
I00
sg21
S'22012.8683316'
p1935
sg16
g17
sbasg27
I00
sg28
I00
sg29
I5076498
sg21
S'22013.1462004'
p1936
sba(igraph
Edge
p1937
(dp1938
g7
I1
sg8
I00
sg10
I5
sg11
(lp1939
g1886
ag1930
asg27
I00
sg28
I00
sg29
I5076499
sg21
S'22013.1552703'
p1940
sba(igraph
Edge
p1941
(dp1942
g7
I1
sg8
I00
sg10
I5
sg11
(lp1943
g1903
ag1930
asg27
I00
sg28
I00
sg29
I5076500
sg21
S'22013.1635711'
p1944
sba(igraph
Edge
p1945
(dp1946
g7
I1
sg8
I00
sg10
I5
sg11
(lp1947
g1903
ag1933
asg27
I00
sg28
I00
sg29
I5076501
sg21
S'22013.1730368'
p1948
sba(igraph
Edge
p1949
(dp1950
g7
I1
sg8
I00
sg10
I5
sg11
(lp1951
g1820
ag1876
asg27
I00
sg28
I00
sg29
I5076502
sg21
S'22013.1820226'
p1952
sba(igraph
Edge
p1953
(dp1954
g7
I1
sg8
I00
sg10
I5
sg11
(lp1955
g1837
ag1876
asg27
I00
sg28
I00
sg29
I5076503
sg21
S'22013.1905267'
p1956
sba(igraph
Edge
p1957
(dp1958
g7
I1
sg8
I00
sg10
I5
sg11
(lp1959
g1837
ag1893
asg27
I00
sg28
I00
sg29
I5076504
sg21
S'22013.1993468'
p1960
sba(igraph
Edge
p1961
(dp1962
g7
I1
sg8
I00
sg10
I5
sg11
(lp1963
(igraph
Vertex
p1964
(dp1965
g18
F-199.19794167658625
sg19
F-248.7559743451377
sg20
I5076744
sg8
I00
sg21
S'22012.8696242'
p1966
sg16
g17
sba(igraph
Vertex
p1967
(dp1968
g18
F-199.19794167658625
sg19
F-205.85781942664408
sg20
I5076745
sg8
I00
sg21
S'22012.8716046'
p1969
sg16
g17
sbasg27
I00
sg28
I00
sg29
I5076505
sg21
S'22013.2079256'
p1970
sba(igraph
Edge
p1971
(dp1972
g7
I1
sg8
I00
sg10
I5
sg11
(lp1973
g1967
a(igraph
Vertex
p1974
(dp1975
g18
F-199.19794167658625
sg19
F-162.95966450815058
sg20
I5076746
sg8
I00
sg21
S'22012.8729171'
p1976
sg16
g17
sbasg27
I00
sg28
I00
sg29
I5076506
sg21
S'22013.2170142'
p1977
sba(igraph
Edge
p1978
(dp1979
g7
I1
sg8
I00
sg10
I5
sg11
(lp1980
(igraph
Vertex
p1981
(dp1982
g18
F-199.24546186255839
sg19
F-116.66650223721183
sg20
I5076747
sg8
I00
sg21
S'22012.8741544'
p1983
sg16
g17
sba(igraph
Vertex
p1984
(dp1985
g18
F-199.24546186255839
sg19
F-73.768347318718341
sg20
I5076748
sg8
I00
sg21
S'22012.8754775'
p1986
sg16
g17
sbasg27
I00
sg28
I00
sg29
I5076507
sg21
S'22013.2256695'
p1987
sba(igraph
Edge
p1988
(dp1989
g7
I1
sg8
I00
sg10
I5
sg11
(lp1990
g1984
a(igraph
Vertex
p1991
(dp1992
g18
F-199.24546186255839
sg19
F-30.870192400224781
sg20
I5076749
sg8
I00
sg21
S'22012.8767413'
p1993
sg16
g17
sbasg27
I00
sg28
I00
sg29
I5076508
sg21
S'22013.2342627'
p1994
sba(igraph
Edge
p1995
(dp1996
g7
I1
sg8
I00
sg10
I5
sg11
(lp1997
g1974
ag1981
asg27
I00
sg28
I00
sg29
I5076509
sg21
S'22013.2441897'
p1998
sba(igraph
Edge
p1999
(dp2000
g7
I1
sg8
I00
sg10
I5
sg11
(lp2001
(igraph
Vertex
p2002
(dp2003
g18
F-199.37166235644878
sg19
F14.075945115233296
sg20
I5076750
sg8
I00
sg21
S'22012.8780046'
p2004
sg16
g17
sba(igraph
Vertex
p2005
(dp2006
g18
F-199.37166235644878
sg19
F56.974100033726856
sg20
I5076751
sg8
I00
sg21
S'22012.8793277'
p2007
sg16
g17
sbasg27
I00
sg28
I00
sg29
I5076510
sg21
S'22013.2541225'
p2008
sba(igraph
Edge
p2009
(dp2010
g7
I1
sg8
I00
sg10
I5
sg11
(lp2011
g2005
a(igraph
Vertex
p2012
(dp2013
g18
F-199.37166235644878
sg19
F99.872254952220359
sg20
I5076752
sg8
I00
sg21
S'22012.880644'
p2014
sg16
g17
sbasg27
I00
sg28
I00
sg29
I5076511
sg21
S'22013.2634156'
p2015
sba(igraph
Edge
p2016
(dp2017
g7
I1
sg8
I00
sg10
I5
sg11
(lp2018
g2012
a(igraph
Vertex
p2019
(dp2020
g18
F-199.41918254242086
sg19
F146.16541722315918
sg20
I5076753
sg8
I00
sg21
S'22012.8819696'
p2021
sg16
g17
sbasg27
I00
sg28
I00
sg29
I5076512
sg21
S'22013.2720966'
p2022
sba(igraph
Edge
p2023
(dp2024
g7
I1
sg8
I00
sg10
I5
sg11
(lp2025
g1991
ag2002
asg27
I00
sg28
I00
sg29
I5076513
sg21
S'22013.2811913'
p2026
sba(igraph
Edge
p2027
(dp2028
g7
I1
sg8
I00
sg10
I5
sg11
(lp2029
g1756
ag1964
asg27
I00
sg28
I00
sg29
I5076514
sg21
S'22013.2901464'
p2030
sba(igraph
Edge
p2031
(dp2032
g7
I1
sg8
I00
sg10
I5
sg11
(lp2033
g1756
ag1967
asg27
I00
sg28
I00
sg29
I5076515
sg21
S'22013.2992791'
p2034
sba(igraph
Edge
p2035
(dp2036
g7
I1
sg8
I00
sg10
I5
sg11
(lp2037
g1759
ag1967
asg27
I00
sg28
I00
sg29
I5076516
sg21
S'22013.3092038'
p2038
sba(igraph
Edge
p2039
(dp2040
g7
I1
sg8
I00
sg10
I5
sg11
(lp2041
g1759
ag1974
asg27
I00
sg28
I00
sg29
I5076517
sg21
S'22013.3183153'
p2042
sba(igraph
Edge
p2043
(dp2044
g7
I1
sg8
I00
sg10
I5
sg11
(lp2045
g1766
ag1974
asg27
I00
sg28
I00
sg29
I5076518
sg21
S'22013.3281182'
p2046
sba(igraph
Edge
p2047
(dp2048
g7
I1
sg8
I00
sg10
I5
sg11
(lp2049
g1766
ag1981
asg27
I00
sg28
I00
sg29
I5076519
sg21
S'22013.3373147'
p2050
sba(igraph
Edge
p2051
(dp2052
g7
I1
sg8
I00
sg10
I5
sg11
(lp2053
g1810
ag1981
asg27
I00
sg28
I00
sg29
I5076520
sg21
S'22013.3466346'
p2054
sba(igraph
Edge
p2055
(dp2056
g7
I1
sg8
I00
sg10
I5
sg11
(lp2057
g1810
ag1984
asg27
I00
sg28
I00
sg29
I5076521
sg21
S'22013.356454'
p2058
sba(igraph
Edge
p2059
(dp2060
g7
I1
sg8
I00
sg10
I5
sg11
(lp2061
g1813
ag1984
asg27
I00
sg28
I00
sg29
I5076522
sg21
S'22013.3670087'
p2062
sba(igraph
Edge
p2063
(dp2064
g7
I1
sg8
I00
sg10
I5
sg11
(lp2065
g1813
ag1991
asg27
I00
sg28
I00
sg29
I5076523
sg21
S'22013.3782254'
p2066
sba(igraph
Edge
p2067
(dp2068
g7
I1
sg8
I00
sg10
I5
sg11
(lp2069
g1820
ag1991
asg27
I00
sg28
I00
sg29
I5076524
sg21
S'22013.3875051'
p2070
sba(igraph
Edge
p2071
(dp2072
g7
I1
sg8
I00
sg10
I5
sg11
(lp2073
g1820
ag2002
asg27
I00
sg28
I00
sg29
I5076525
sg21
S'22013.3972765'
p2074
sba(igraph
Edge
p2075
(dp2076
g7
I1
sg8
I00
sg10
I5
sg11
(lp2077
g1876
ag2002
asg27
I00
sg28
I00
sg29
I5076526
sg21
S'22013.4065779'
p2078
sba(igraph
Edge
p2079
(dp2080
g7
I1
sg8
I00
sg10
I5
sg11
(lp2081
g1876
ag2005
asg27
I00
sg28
I00
sg29
I5076527
sg21
S'22013.4155335'
p2082
sba(igraph
Edge
p2083
(dp2084
g7
I1
sg8
I00
sg10
I5
sg11
(lp2085
g1879
ag2005
asg27
I00
sg28
I00
sg29
I5076528
sg21
S'22013.4252842'
p2086
sba(igraph
Edge
p2087
(dp2088
g7
I1
sg8
I00
sg10
I5
sg11
(lp2089
g1879
ag2012
asg27
I00
sg28
I00
sg29
I5076529
sg21
S'22013.4344449'
p2090
sba(igraph
Edge
p2091
(dp2092
g7
I1
sg8
I00
sg10
I5
sg11
(lp2093
g1886
ag2012
asg27
I00
sg28
I00
sg29
I5076530
sg21
S'22013.4437335'
p2094
sba(igraph
Edge
p2095
(dp2096
g7
I1
sg8
I00
sg10
I5
sg11
(lp2097
g1886
ag2019
asg27
I00
sg28
I00
sg29
I5076531
sg21
S'22013.4528886'
p2098
sba(igraph
Edge
p2099
(dp2100
g7
I1
sg8
I00
sg10
I5
sg11
(lp2101
g1930
ag2019
asg27
I00
sg28
I00
sg29
I5076532
sg21
S'22013.4682919'
p2102
sba(igraph
Edge
p2103
(dp2104
g7
I1
sg8
I00
sg10
I5
sg11
(lp2105
(igraph
Vertex
p2106
(dp2107
g18
F-157.6129858656102
sg19
F192.7559743451377
sg20
I5076754
sg8
I00
sg21
S'22012.8833335'
p2108
sg16
g17
sba(igraph
Vertex
p2109
(dp2110
g18
F-114.58081745757914
sg19
F192.7559743451377
sg20
I5076755
sg8
I00
sg21
S'22012.8847826'
p2111
sg16
I0
sbasg27
I00
sg28
I00
sg29
I5076533
sg21
S'22013.4787729'
p2112
sba(igraph
Edge
p2113
(dp2114
g7
I1
sg8
I00
sg10
I5
sg11
(lp2115
g2106
a(igraph
Vertex
p2116
(dp2117
g18
F-196.15962711935981
sg19
F193.2826790331647
sg20
I5076757
sg8
I00
sg21
S'22012.8861408'
p2118
sg16
I0
sbasg27
I00
sg28
I00
sg29
I5076534
sg21
S'22013.4879941'
p2119
sba(igraph
Edge
p2120
(dp2121
g7
I1
sg8
I00
sg10
I5
sg11
(lp2122
g1930
ag2116
asg27
I00
sg28
I00
sg29
I5076535
sg21
S'22013.4977057'
p2123
sba(igraph
Edge
p2124
(dp2125
g7
I1
sg8
I00
sg10
I5
sg11
(lp2126
g2019
ag2116
asg27
I00
sg28
I00
sg29
I5076536
sg21
S'22013.5072502'
p2127
sba(igraph
Edge
p2128
(dp2129
g7
I1
sg8
I00
sg10
I5
sg11
(lp2130
g1930
ag2106
asg27
I00
sg28
I00
sg29
I5076537
sg21
S'22013.5172182'
p2131
sba(igraph
Edge
p2132
(dp2133
g7
I1
sg8
I00
sg10
I5
sg11
(lp2134
g1933
ag2106
asg27
I00
sg28
I00
sg29
I5076538
sg21
S'22013.5266918'
p2135
sba(igraph
Edge
p2136
(dp2137
g7
I1
sg8
I00
sg10
I5
sg11
(lp2138
g1933
ag2109
asg27
I00
sg28
I00
sg29
I5076539
sg21
S'22013.5365607'
p2139
sba(igraph
Edge
p2140
(dp2141
g7
I1
sg8
I00
sg9
I5076541
sg10
I5
sg11
(lp2142
g1773
ag2109
asg27
I01
sg28
I00
sg29
I5076540
sg21
S'22013.5459808'
p2143
sba(igraph
Edge
p2144
(dp2145
g7
I1
sg8
I00
sg9
I5076543
sg10
I5
sg11
(lp2146
g1756
ag2106
asg27
I01
sg28
I00
sg29
I5076542
sg21
S'22013.5555195'
p2147
sba(igraph
Edge
p2148
(dp2149
g7
I1
sg8
I00
sg9
I5076545
sg10
I5
sg11
(lp2150
g1756
ag2109
asg27
I01
sg28
I00
sg29
I5076544
sg21
S'22013.5651685'
p2151
sba(igraph
Edge
p2152
(dp2153
g7
I1
sg8
I00
sg9
I5076547
sg10
I5
sg11
(lp2154
g1964
ag2106
asg27
I01
sg28
I00
sg29
I5076546
sg21
S'22013.5747907'
p2155
sba(igraph
Edge
p2156
(dp2157
g7
I1
sg8
I00
sg9
I5076549
sg10
I5
sg11
(lp2158
g1964
ag2116
asg27
I01
sg28
I00
sg29
I5076548
sg21
S'22013.5852115'
p2159
sba(igraph
Edge
p2160
(dp2161
g7
I1
sg8
I00
sg10
I5
sg11
(lp2162
g379
ag1773
asg27
I00
sg28
I00
sg29
I5076550
sg21
S'22021.8186526'
p2163
sba(igraph
Edge
p2164
(dp2165
g7
I1
sg8
I00
sg10
I5
sg11
(lp2166
g379
ag1776
asg27
I00
sg28
I00
sg29
I5076551
sg21
S'22021.8234192'
p2167
sba(igraph
Edge
p2168
(dp2169
g7
I1
sg8
I00
sg10
I5
sg11
(lp2170
g382
ag1776
asg27
I00
sg28
I00
sg29
I5076552
sg21
S'22028.2529324'
p2171
sba(igraph
Edge
p2172
(dp2173
g7
I1
sg8
I00
sg10
I5
sg11
(lp2174
g382
ag1783
asg27
I00
sg28
I00
sg29
I5076553
sg21
S'22028.2612122'
p2175
sba(igraph
Edge
p2176
(dp2177
g7
I1
sg8
I00
sg10
I5
sg11
(lp2178
g389
ag1783
asg27
I00
sg28
I00
sg29
I5076554
sg21
S'22040.6819414'
p2179
sba(igraph
Edge
p2180
(dp2181
g7
I1
sg8
I00
sg10
I5
sg11
(lp2182
g389
ag1827
asg27
I00
sg28
I00
sg29
I5076555
sg21
S'22040.6867278'
p2183
sba(igraph
Edge
p2184
(dp2185
g7
I1
sg8
I00
sg10
I5
sg11
(lp2186
g396
ag1827
asg27
I00
sg28
I00
sg29
I5076556
sg21
S'22046.6316437'
p2187
sba(igraph
Edge
p2188
(dp2189
g7
I1
sg8
I00
sg10
I5
sg11
(lp2190
g396
ag1830
asg27
I00
sg28
I00
sg29
I5076557
sg21
S'22046.6397819'
p2191
sba(igraph
Edge
p2192
(dp2193
g7
I1
sg8
I00
sg10
I5
sg11
(lp2194
g399
ag1830
asg27
I00
sg28
I00
sg29
I5076558
sg21
S'22052.1864472'
p2195
sba(igraph
Edge
p2196
(dp2197
g7
I1
sg8
I00
sg10
I5
sg11
(lp2198
g399
ag1837
asg27
I00
sg28
I00
sg29
I5076559
sg21
S'22052.1913894'
p2199
sba(igraph
Edge
p2200
(dp2201
g7
I1
sg8
I00
sg10
I5
sg11
(lp2202
g406
ag1837
asg27
I00
sg28
I00
sg29
I5076560
sg21
S'22058.0309933'
p2203
sba(igraph
Edge
p2204
(dp2205
g7
I1
sg8
I00
sg10
I5
sg11
(lp2206
g406
ag1893
asg27
I00
sg28
I00
sg29
I5076561
sg21
S'22058.0389955'
p2207
sba(igraph
Edge
p2208
(dp2209
g7
I1
sg8
I00
sg10
I5
sg11
(lp2210
g417
ag1893
asg27
I00
sg28
I00
sg29
I5076562
sg21
S'22068.0149404'
p2211
sba(igraph
Edge
p2212
(dp2213
g7
I1
sg8
I00
sg10
I5
sg11
(lp2214
g417
ag1896
asg27
I00
sg28
I00
sg29
I5076563
sg21
S'22068.0227691'
p2215
sba(igraph
Edge
p2216
(dp2217
g7
I1
sg8
I00
sg10
I5
sg11
(lp2218
g420
ag1896
asg27
I00
sg28
I00
sg29
I5076564
sg21
S'22074.3802969'
p2219
sba(igraph
Edge
p2220
(dp2221
g7
I1
sg8
I00
sg10
I5
sg11
(lp2222
g420
ag1903
asg27
I00
sg28
I00
sg29
I5076565
sg21
S'22074.392691'
p2223
sba(igraph
Edge
p2224
(dp2225
g7
I1
sg8
I00
sg10
I5
sg11
(lp2226
g427
ag1903
asg27
I00
sg28
I00
sg29
I5076566
sg21
S'22080.0800389'
p2227
sba(igraph
Edge
p2228
(dp2229
g7
I1
sg8
I00
sg10
I5
sg11
(lp2230
g427
ag1933
asg27
I00
sg28
I00
sg29
I5076567
sg21
S'22080.0848887'
p2231
sba(igraph
Edge
p2232
(dp2233
g7
I1
sg8
I00
sg10
I5
sg11
(lp2234
g434
ag1933
asg27
I00
sg28
I00
sg29
I5076568
sg21
S'22085.7934995'
p2235
sba(igraph
Edge
p2236
(dp2237
g7
I1
sg8
I00
sg10
I5
sg11
(lp2238
g434
ag2109
asg27
I00
sg28
I00
sg29
I5076569
sg21
S'22085.8036041'
p2239
sba(igraph
Edge
p2240
(dp2241
g7
I1
sg8
I00
sg9
I5076571
sg10
I5
sg11
(lp2242
g1248
ag1773
asg27
I01
sg28
I00
sg29
I5076570
sg21
S'22092.6589276'
p2243
sba(igraph
Edge
p2244
(dp2245
g7
I1
sg8
I00
sg10
I5
sg11
(lp2246
g1248
ag2109
asg27
I00
sg28
I00
sg29
I5076572
sg21
S'22092.6637321'
p2247
sba(igraph
Edge
p2248
(dp2249
g7
I1
sg8
I00
sg10
I5
sg11
(lp2250
g1427
ag1964
asg27
I00
sg28
I00
sg29
I5076573
sg21
S'22103.9687044'
p2251
sba(igraph
Edge
p2252
(dp2253
g7
I1
sg8
I00
sg10
I5
sg11
(lp2254
g1427
ag1967
asg27
I00
sg28
I00
sg29
I5076574
sg21
S'22103.9768543'
p2255
sba(igraph
Edge
p2256
(dp2257
g7
I1
sg8
I00
sg10
I5
sg11
(lp2258
g1434
ag1967
asg27
I00
sg28
I00
sg29
I5076575
sg21
S'22110.9137131'
p2259
sba(igraph
Edge
p2260
(dp2261
g7
I1
sg8
I00
sg10
I5
sg11
(lp2262
g1434
ag1974
asg27
I00
sg28
I00
sg29
I5076576
sg21
S'22110.9217859'
p2263
sba(igraph
Edge
p2264
(dp2265
g7
I1
sg8
I00
sg10
I5
sg11
(lp2266
g1441
ag1974
asg27
I00
sg28
I00
sg29
I5076577
sg21
S'22117.1674953'
p2267
sba(igraph
Edge
p2268
(dp2269
g7
I1
sg8
I00
sg10
I5
sg11
(lp2270
g1441
ag1981
asg27
I00
sg28
I00
sg29
I5076578
sg21
S'22117.1723959'
p2271
sba(igraph
Edge
p2272
(dp2273
g7
I1
sg8
I00
sg10
I5
sg11
(lp2274
g1444
ag1981
asg27
I00
sg28
I00
sg29
I5076579
sg21
S'22122.7656725'
p2275
sba(igraph
Edge
p2276
(dp2277
g7
I1
sg8
I00
sg10
I5
sg11
(lp2278
g1444
ag1984
asg27
I00
sg28
I00
sg29
I5076580
sg21
S'22122.7765504'
p2279
sba(igraph
Edge
p2280
(dp2281
g7
I1
sg8
I00
sg10
I5
sg11
(lp2282
g1451
ag1984
asg27
I00
sg28
I00
sg29
I5076581
sg21
S'22128.7913819'
p2283
sba(igraph
Edge
p2284
(dp2285
g7
I1
sg8
I00
sg10
I5
sg11
(lp2286
g1451
ag1991
asg27
I00
sg28
I00
sg29
I5076582
sg21
S'22128.8041732'
p2287
sba(igraph
Edge
p2288
(dp2289
g7
I1
sg8
I00
sg10
I5
sg11
(lp2290
g1462
ag1991
asg27
I00
sg28
I00
sg29
I5076583
sg21
S'22138.4718614'
p2291
sba(igraph
Edge
p2292
(dp2293
g7
I1
sg8
I00
sg10
I5
sg11
(lp2294
g1462
ag2002
asg27
I00
sg28
I00
sg29
I5076584
sg21
S'22138.4774721'
p2295
sba(igraph
Edge
p2296
(dp2297
g7
I1
sg8
I00
sg10
I5
sg11
(lp2298
g1465
ag2002
asg27
I00
sg28
I00
sg29
I5076585
sg21
S'22144.0933334'
p2299
sba(igraph
Edge
p2300
(dp2301
g7
I1
sg8
I00
sg10
I5
sg11
(lp2302
g1465
ag2005
asg27
I00
sg28
I00
sg29
I5076586
sg21
S'22144.1045007'
p2303
sba(igraph
Edge
p2304
(dp2305
g7
I1
sg8
I00
sg10
I5
sg11
(lp2306
g1472
ag2005
asg27
I00
sg28
I00
sg29
I5076587
sg21
S'22151.5742705'
p2307
sba(igraph
Edge
p2308
(dp2309
g7
I1
sg8
I00
sg10
I5
sg11
(lp2310
g1472
ag2012
asg27
I00
sg28
I00
sg29
I5076588
sg21
S'22151.585887'
p2311
sba(igraph
Edge
p2312
(dp2313
g7
I1
sg8
I00
sg10
I5
sg11
(lp2314
g1479
ag2012
asg27
I00
sg28
I00
sg29
I5076589
sg21
S'22158.2605429'
p2315
sba(igraph
Edge
p2316
(dp2317
g7
I1
sg8
I00
sg10
I5
sg11
(lp2318
g1479
ag2019
asg27
I00
sg28
I00
sg29
I5076590
sg21
S'22158.2662892'
p2319
sba(igraph
Edge
p2320
(dp2321
g7
I1
sg8
I00
sg10
I5
sg11
(lp2322
g1569
ag2019
asg27
I00
sg28
I00
sg29
I5076591
sg21
S'22166.4210784'
p2323
sba(igraph
Edge
p2324
(dp2325
g7
I1
sg8
I00
sg10
I5
sg11
(lp2326
g1569
ag2116
asg27
I00
sg28
I00
sg29
I5076592
sg21
S'22166.4263142'
p2327
sba(igraph
Edge
p2328
(dp2329
g7
I1
sg8
I00
sg10
I5
sg11
(lp2330
g1424
ag1964
asg27
I00
sg28
I00
sg29
I5076593
sg21
S'22173.6405828'
p2331
sba(igraph
Edge
p2332
(dp2333
g7
I1
sg8
I00
sg10
I5
sg11
(lp2334
g1424
ag2116
asg27
I00
sg28
I00
sg29
I5076594
sg21
S'22173.6475234'
p2335
sbasS'vertices'
p2336
(lp2337
g13
ag24
ag34
ag41
ag44
ag51
ag58
ag61
ag68
ag120
ag123
ag130
ag137
ag140
ag147
ag154
ag157
ag164
ag231
ag234
ag241
ag248
ag251
ag258
ag265
ag268
ag275
ag322
ag325
ag332
ag379
ag382
ag389
ag396
ag399
ag406
ag417
ag420
ag427
ag434
ag521
ag524
ag531
ag538
ag541
ag548
ag559
ag562
ag569
ag576
ag663
ag666
ag673
ag680
ag683
ag690
ag701
ag704
ag711
ag718
ag805
ag808
ag815
ag822
ag825
ag832
ag843
ag846
ag853
ag860
ag947
ag950
ag957
ag964
ag967
ag974
ag985
ag988
ag995
ag1002
ag1089
ag1092
ag1099
ag1106
ag1109
ag1116
ag1127
ag1130
ag1137
ag1144
ag1231
ag1234
ag1241
ag1248
ag1255
ag1262
ag1269
ag1276
ag1283
ag1358
ag1361
ag1368
ag1375
ag1378
ag1385
ag1396
ag1399
ag1406
ag1413
ag1424
ag1427
ag1434
ag1441
ag1444
ag1451
ag1462
ag1465
ag1472
ag1479
ag1566
ag1569
ag1756
ag1759
ag1766
ag1773
ag1776
ag1783
ag1810
ag1813
ag1820
ag1827
ag1830
ag1837
ag1876
ag1879
ag1886
ag1893
ag1896
ag1903
ag1930
ag1933
ag1964
ag1967
ag1974
ag1981
ag1984
ag1991
ag2002
ag2005
ag2012
ag2019
ag2106
ag2109
ag2116
asS'tags'
p2338
(lp2339
sb.