(igraph
Graph
p0
(dp1
S'labelingConstraints'
p2
I-1
sS'edges'
p3
(lp4
(igraph
Edge
p5
(dp6
S'direction'
p7
I1
sS'selected'
p8
I00
sS'height'
p9
I5
sS'vs'
p10
(lp11
(igraph
Vertex
p12
(dp13
S'y'
p14
F-35.78680081730036
sS'x'
p15
F-222.30260147835864
sS'circle'
p16
I9335331
sg8
I00
sS'id'
p17
S'85267.4488414'
p18
sS'label'
p19
S'NULL'
p20
sba(igraph
Vertex
p21
(dp22
g14
F-35.78680081730036
sg15
F-179.40444655986505
sg16
I9335332
sg8
I00
sg17
S'85267.4488654'
p23
sg19
g20
sbasS'wrap'
p24
I00
sS'curved'
p25
I00
sS'line'
p26
I9334772
sg17
S'85267.6415592'
p27
sba(igraph
Edge
p28
(dp29
g7
I1
sg8
I00
sg9
I5
sg10
(lp30
g21
a(igraph
Vertex
p31
(dp32
g14
F-35.78680081730036
sg15
F-136.50629164137155
sg16
I9335333
sg8
I00
sg17
S'85267.4488867'
p33
sg19
g20
sbasg24
I00
sg25
I00
sg26
I9334773
sg17
S'85267.6416204'
p34
sba(igraph
Edge
p35
(dp36
g7
I1
sg8
I00
sg9
I5
sg10
(lp37
(igraph
Vertex
p38
(dp39
g14
F1.8252853103298605
sg15
F-222.30260147835864
sg16
I9335334
sg8
I00
sg17
S'85267.4489132'
p40
sg19
g20
sba(igraph
Vertex
p41
(dp42
g14
F1.8252853103298605
sg15
F-179.40444655986505
sg16
I9335335
sg8
I00
sg17
S'85267.4489467'
p43
sg19
g20
sbasg24
I00
sg25
I00
sg26
I9334774
sg17
S'85267.6417006'
p44
sba(igraph
Edge
p45
(dp46
g7
I1
sg8
I00
sg9
I5
sg10
(lp47
g41
a(igraph
Vertex
p48
(dp49
g14
F1.8252853103298605
sg15
F-136.50629164137155
sg16
I9335336
sg8
I00
sg17
S'85267.4489872'
p50
sg19
g20
sbasg24
I00
sg25
I00
sg26
I9334775
sg17
S'85267.6418014'
p51
sba(igraph
Edge
p52
(dp53
g7
I1
sg8
I00
sg9
I5
sg10
(lp54
(igraph
Vertex
p55
(dp56
g14
F39.099009503080737
sg15
F-222.33947441821246
sg16
I9335337
sg8
I00
sg17
S'85267.4490367'
p57
sg19
g20
sba(igraph
Vertex
p58
(dp59
g14
F39.43737143796011
sg15
F-179.40444655986505
sg16
I9335338
sg8
I00
sg17
S'85267.4490931'
p60
sg19
g20
sbasg24
I00
sg25
I00
sg26
I9334776
sg17
S'85267.6419238'
p61
sba(igraph
Edge
p62
(dp63
g7
I1
sg8
I00
sg9
I5
sg10
(lp64
g58
a(igraph
Vertex
p65
(dp66
g14
F39.43737143796011
sg15
F-136.50629164137155
sg16
I9335339
sg8
I00
sg17
S'85267.4491579'
p67
sg19
g20
sbasg24
I00
sg25
I00
sg26
I9334777
sg17
S'85267.6420682'
p68
sba(igraph
Edge
p69
(dp70
g7
I1
sg8
I00
sg9
I5
sg10
(lp71
g12
ag38
asg24
I00
sg25
I00
sg26
I9334778
sg17
S'85267.642233'
p72
sba(igraph
Edge
p73
(dp74
g7
I1
sg8
I00
sg9
I5
sg10
(lp75
g21
ag41
asg24
I00
sg25
I00
sg26
I9334779
sg17
S'85267.6424185'
p76
sba(igraph
Edge
p77
(dp78
g7
I1
sg8
I00
sg9
I5
sg10
(lp79
g31
ag48
asg24
I00
sg25
I00
sg26
I9334780
sg17
S'85267.6426604'
p80
sba(igraph
Edge
p81
(dp82
g7
F-1.0
sg8
I00
sg9
F3.278651083278433
sg10
(lp83
g38
ag55
asg24
I00
sg25
I0
sg26
I9334781
sg17
S'85267.6429015'
p84
sba(igraph
Edge
p85
(dp86
g7
I1
sg8
I00
sg9
I5
sg10
(lp87
g41
ag58
asg24
I00
sg25
I00
sg26
I9334782
sg17
S'85267.6431577'
p88
sba(igraph
Edge
p89
(dp90
g7
I1
sg8
I00
sg9
I5
sg10
(lp91
g48
ag65
asg24
I00
sg25
I00
sg26
I9334783
sg17
S'85267.6434343'
p92
sba(igraph
Edge
p93
(dp94
g7
I1
sg8
I00
sg9
I5
sg10
(lp95
g21
ag38
asg24
I00
sg25
I00
sg26
I9334784
sg17
S'85267.6437449'
p96
sba(igraph
Edge
p97
(dp98
g7
I1
sg8
I00
sg9
I5
sg10
(lp99
g41
ag55
asg24
I00
sg25
I00
sg26
I9334785
sg17
S'85267.6440654'
p100
sba(igraph
Edge
p101
(dp102
g7
I1
sg8
I00
sg9
I5
sg10
(lp103
g31
ag41
asg24
I00
sg25
I00
sg26
I9334786
sg17
S'85267.6444182'
p104
sba(igraph
Edge
p105
(dp106
g7
I1
sg8
I00
sg9
I5
sg10
(lp107
g48
ag58
asg24
I00
sg25
I00
sg26
I9334787
sg17
S'85267.6447917'
p108
sba(igraph
Edge
p109
(dp110
g7
I1
sg8
I00
sg9
I5
sg10
(lp111
(igraph
Vertex
p112
(dp113
g14
F-35.828335636337044
sg15
F-90.213129370432796
sg16
I9335340
sg8
I00
sg17
S'85267.4492294'
p114
sg19
g20
sba(igraph
Vertex
p115
(dp116
g14
F-35.828335636337044
sg15
F-47.314974451939293
sg16
I9335341
sg8
I00
sg17
S'85267.4493091'
p117
sg19
g20
sbasg24
I00
sg25
I00
sg26
I9334788
sg17
S'85267.6451728'
p118
sba(igraph
Edge
p119
(dp120
g7
I1
sg8
I00
sg9
I5
sg10
(lp121
g115
a(igraph
Vertex
p122
(dp123
g14
F-35.828335636337044
sg15
F-4.4168195334457323
sg16
I9335342
sg8
I00
sg17
S'85267.4493985'
p124
sg19
g20
sbasg24
I00
sg25
I00
sg26
I9334789
sg17
S'85267.6455756'
p125
sba(igraph
Edge
p126
(dp127
g7
I1
sg8
I00
sg9
I5
sg10
(lp128
(igraph
Vertex
p129
(dp130
g14
F1.7837504912932047
sg15
F-90.213129370432796
sg16
I9335343
sg8
I00
sg17
S'85267.449494'
p131
sg19
g20
sba(igraph
Vertex
p132
(dp133
g14
F1.7837504912932047
sg15
F-47.314974451939293
sg16
I9335344
sg8
I00
sg17
S'85267.4495979'
p134
sg19
I0
sbasg24
I00
sg25
I00
sg26
I9334790
sg17
S'85267.6459994'
p135
sba(igraph
Edge
p136
(dp137
g7
I1
sg8
I00
sg9
I5
sg10
(lp138
g132
a(igraph
Vertex
p139
(dp140
g14
F1.7837504912932047
sg15
F-4.4168195334457323
sg16
I9335346
sg8
I00
sg17
S'85267.4497097'
p141
sg19
g20
sbasg24
I00
sg25
I00
sg26
I9334791
sg17
S'85267.6464699'
p142
sba(igraph
Edge
p143
(dp144
g7
I1
sg8
I00
sg9
I5
sg10
(lp145
(igraph
Vertex
p146
(dp147
g14
F39.395836618923369
sg15
F-90.213129370432796
sg16
I9335347
sg8
I00
sg17
S'85267.4498292'
p148
sg19
g20
sba(igraph
Vertex
p149
(dp150
g14
F39.395836618923369
sg15
F-47.314974451939293
sg16
I9335348
sg8
I00
sg17
S'85267.4499558'
p151
sg19
g20
sbasg24
I00
sg25
I00
sg26
I9334792
sg17
S'85267.6469616'
p152
sba(igraph
Edge
p153
(dp154
g7
I1
sg8
I00
sg9
I5
sg10
(lp155
g149
a(igraph
Vertex
p156
(dp157
g14
F39.395836618923369
sg15
F-4.4168195334457323
sg16
I9335350
sg8
I01
sg17
S'85267.450091'
p158
sg19
I0
sbasg24
I00
sg25
I00
sg26
I9334793
sg17
S'85267.6474641'
p159
sba(igraph
Edge
p160
(dp161
g7
I1
sg8
I00
sg9
I5
sg10
(lp162
g112
ag129
asg24
I00
sg25
I00
sg26
I9334794
sg17
S'85267.6479745'
p163
sba(igraph
Edge
p164
(dp165
g7
I1
sg8
I00
sg9
I5
sg10
(lp166
g115
ag132
asg24
I00
sg25
I00
sg26
I9334795
sg17
S'85267.6485204'
p167
sba(igraph
Edge
p168
(dp169
g7
I1
sg8
I00
sg9
I5
sg10
(lp170
g122
ag139
asg24
I00
sg25
I00
sg26
I9334796
sg17
S'85267.649075'
p171
sba(igraph
Edge
p172
(dp173
g7
I1
sg8
I00
sg9
I5
sg10
(lp174
g129
ag146
asg24
I00
sg25
I00
sg26
I9334797
sg17
S'85267.6496479'
p175
sba(igraph
Edge
p176
(dp177
g7
I1
sg8
I00
sg9
I5
sg10
(lp178
g132
ag149
asg24
I00
sg25
I00
sg26
I9334798
sg17
S'85267.6502497'
p179
sba(igraph
Edge
p180
(dp181
g7
I1
sg8
I00
sg9
I5
sg10
(lp182
g139
ag156
asg24
I00
sg25
I00
sg26
I9334799
sg17
S'85267.6509542'
p183
sba(igraph
Edge
p184
(dp185
g7
I1
sg8
I00
sg9
I5
sg10
(lp186
g115
ag129
asg24
I00
sg25
I00
sg26
I9334800
sg17
S'85267.6516138'
p187
sba(igraph
Edge
p188
(dp189
g7
I1
sg8
I00
sg9
I5
sg10
(lp190
g132
ag146
asg24
I00
sg25
I00
sg26
I9334801
sg17
S'85267.6522904'
p191
sba(igraph
Edge
p192
(dp193
g7
I1
sg8
I00
sg9
I5
sg10
(lp194
g122
ag132
asg24
I00
sg25
I00
sg26
I9334802
sg17
S'85267.6529847'
p195
sba(igraph
Edge
p196
(dp197
g7
I1
sg8
I00
sg9
I5
sg10
(lp198
g139
ag149
asg24
I00
sg25
I00
sg26
I9334803
sg17
S'85267.6537049'
p199
sba(igraph
Edge
p200
(dp201
g7
I1
sg8
I00
sg9
I5
sg10
(lp202
g31
ag112
asg24
I00
sg25
I00
sg26
I9334804
sg17
S'85267.6544497'
p203
sba(igraph
Edge
p204
(dp205
g7
I1
sg8
I00
sg9
I5
sg10
(lp206
g48
ag112
asg24
I00
sg25
I00
sg26
I9334805
sg17
S'85267.6552174'
p207
sba(igraph
Edge
p208
(dp209
g7
I1
sg8
I00
sg9
I5
sg10
(lp210
g48
ag129
asg24
I00
sg25
I00
sg26
I9334806
sg17
S'85267.6559971'
p211
sba(igraph
Edge
p212
(dp213
g7
I1
sg8
I00
sg9
I5
sg10
(lp214
g65
ag129
asg24
I00
sg25
I00
sg26
I9334807
sg17
S'85267.6568064'
p215
sba(igraph
Edge
p216
(dp217
g7
I1
sg8
I00
sg9
I5
sg10
(lp218
g65
ag146
asg24
I00
sg25
I00
sg26
I9334808
sg17
S'85267.6576568'
p219
sba(igraph
Edge
p220
(dp221
g7
I1
sg8
I00
sg9
I5
sg10
(lp222
(igraph
Vertex
p223
(dp224
g14
F-35.938640648172537
sg15
F40.529317982012344
sg16
I9335352
sg8
I00
sg17
S'85267.4502533'
p225
sg19
g20
sba(igraph
Vertex
p226
(dp227
g14
F-35.938640648172537
sg15
F83.427472900505904
sg16
I9335353
sg8
I00
sg17
S'85267.4504075'
p228
sg19
g20
sbasg24
I00
sg25
I00
sg26
I9334809
sg17
S'85267.6585072'
p229
sba(igraph
Edge
p230
(dp231
g7
I1
sg8
I00
sg9
I5
sg10
(lp232
g226
a(igraph
Vertex
p233
(dp234
g14
F-35.938640648172537
sg15
F126.32562781899941
sg16
I9335354
sg8
I00
sg17
S'85267.4505679'
p235
sg19
g20
sbasg24
I00
sg25
I00
sg26
I9334810
sg17
S'85267.6593821'
p236
sba(igraph
Edge
p237
(dp238
g7
I1
sg8
I00
sg9
I5
sg10
(lp239
(igraph
Vertex
p240
(dp241
g14
F1.673445479457655
sg15
F40.529317982012344
sg16
I9335355
sg8
I00
sg17
S'85267.4507335'
p242
sg19
g20
sba(igraph
Vertex
p243
(dp244
g14
F1.673445479457655
sg15
F83.427472900505904
sg16
I9335356
sg8
I00
sg17
S'85267.4509118'
p245
sg19
g20
sbasg24
I00
sg25
I00
sg26
I9334811
sg17
S'85267.6603607'
p246
sba(igraph
Edge
p247
(dp248
g7
I1
sg8
I00
sg9
I5
sg10
(lp249
g243
a(igraph
Vertex
p250
(dp251
g14
F1.673445479457655
sg15
F126.32562781899941
sg16
I9335357
sg8
I00
sg17
S'85267.4510962'
p252
sg19
g20
sbasg24
I00
sg25
I00
sg26
I9334812
sg17
S'85267.6612734'
p253
sba(igraph
Edge
p254
(dp255
g7
I1
sg8
I00
sg9
I5
sg10
(lp256
(igraph
Vertex
p257
(dp258
g14
F39.285531607087904
sg15
F40.529317982012344
sg16
I9335358
sg8
I00
sg17
S'85267.451287'
p259
sg19
g20
sba(igraph
Vertex
p260
(dp261
g14
F39.285531607087904
sg15
F83.427472900505904
sg16
I9335359
sg8
I00
sg17
S'85267.451487'
p262
sg19
g20
sbasg24
I00
sg25
I00
sg26
I9334813
sg17
S'85267.6622093'
p263
sba(igraph
Edge
p264
(dp265
g7
I1
sg8
I00
sg9
I5
sg10
(lp266
g260
a(igraph
Vertex
p267
(dp268
g14
F39.285531607087904
sg15
F126.32562781899941
sg16
I9335360
sg8
I00
sg17
S'85267.451694'
p269
sg19
g20
sbasg24
I00
sg25
I00
sg26
I9334814
sg17
S'85267.6631639'
p270
sba(igraph
Edge
p271
(dp272
g7
I1
sg8
I00
sg9
I5
sg10
(lp273
g223
ag240
asg24
I00
sg25
I00
sg26
I9334815
sg17
S'85267.6641431'
p274
sba(igraph
Edge
p275
(dp276
g7
I1
sg8
I00
sg9
I5
sg10
(lp277
g226
ag243
asg24
I00
sg25
I00
sg26
I9334816
sg17
S'85267.6651465'
p278
sba(igraph
Edge
p279
(dp280
g7
I1
sg8
I00
sg9
I5
sg10
(lp281
g233
ag250
asg24
I00
sg25
I00
sg26
I9334817
sg17
S'85267.6661673'
p282
sba(igraph
Edge
p283
(dp284
g7
I1
sg8
I00
sg9
I5
sg10
(lp285
g240
ag257
asg24
I00
sg25
I00
sg26
I9334818
sg17
S'85267.6672619'
p286
sba(igraph
Edge
p287
(dp288
g7
I1
sg8
I00
sg9
I5
sg10
(lp289
g243
ag260
asg24
I00
sg25
I00
sg26
I9334819
sg17
S'85267.6683657'
p290
sba(igraph
Edge
p291
(dp292
g7
I1
sg8
I00
sg9
I5
sg10
(lp293
g250
ag267
asg24
I00
sg25
I00
sg26
I9334820
sg17
S'85267.6699041'
p294
sba(igraph
Edge
p295
(dp296
g7
I1
sg8
I00
sg9
I5
sg10
(lp297
g226
ag240
asg24
I00
sg25
I00
sg26
I9334821
sg17
S'85267.6710177'
p298
sba(igraph
Edge
p299
(dp300
g7
I1
sg8
I00
sg9
I5
sg10
(lp301
g243
ag257
asg24
I00
sg25
I00
sg26
I9334822
sg17
S'85267.6721977'
p302
sba(igraph
Edge
p303
(dp304
g7
I1
sg8
I00
sg9
I5
sg10
(lp305
g233
ag243
asg24
I00
sg25
I00
sg26
I9334823
sg17
S'85267.6733414'
p306
sba(igraph
Edge
p307
(dp308
g7
I1
sg8
I00
sg9
I5
sg10
(lp309
g250
ag260
asg24
I00
sg25
I00
sg26
I9334824
sg17
S'85267.6745276'
p310
sba(igraph
Edge
p311
(dp312
g7
I1
sg8
I00
sg9
I5
sg10
(lp313
(igraph
Vertex
p314
(dp315
g14
F-35.980175467209193
sg15
F172.61879008993822
sg16
I9335361
sg8
I00
sg17
S'85267.4519094'
p316
sg19
g20
sba(igraph
Vertex
p317
(dp318
g14
F1.6319106604209992
sg15
F172.61879008993822
sg16
I9335362
sg8
I00
sg17
S'85267.4521748'
p319
sg19
g20
sbasg24
I00
sg25
I00
sg26
I9334825
sg17
S'85267.6757384'
p320
sba(igraph
Edge
p321
(dp322
g7
I1
sg8
I00
sg9
I5
sg10
(lp323
g317
a(igraph
Vertex
p324
(dp325
g14
F39.243996788051277
sg15
F172.61879008993822
sg16
I9335363
sg8
I00
sg17
S'85267.4524461'
p326
sg19
g20
sbasg24
I00
sg25
I00
sg26
I9334826
sg17
S'85267.6769981'
p327
sba(igraph
Edge
p328
(dp329
g7
I1
sg8
I00
sg9
I5
sg10
(lp330
g233
ag314
asg24
I00
sg25
I00
sg26
I9334827
sg17
S'85267.6782387'
p331
sba(igraph
Edge
p332
(dp333
g7
I1
sg8
I00
sg9
I5
sg10
(lp334
g250
ag314
asg24
I00
sg25
I00
sg26
I9334828
sg17
S'85267.6795875'
p335
sba(igraph
Edge
p336
(dp337
g7
I1
sg8
I00
sg9
I5
sg10
(lp338
g250
ag317
asg24
I00
sg25
I00
sg26
I9334829
sg17
S'85267.6809259'
p339
sba(igraph
Edge
p340
(dp341
g7
I1
sg8
I00
sg9
I5
sg10
(lp342
g267
ag317
asg24
I00
sg25
I00
sg26
I9334830
sg17
S'85267.6822261'
p343
sba(igraph
Edge
p344
(dp345
g7
I1
sg8
I00
sg9
I5
sg10
(lp346
g267
ag324
asg24
I00
sg25
I00
sg26
I9334831
sg17
S'85267.6835936'
p347
sba(igraph
Edge
p348
(dp349
g7
I1
sg8
I00
sg9
I5
sg10
(lp350
g122
ag223
asg24
I00
sg25
I00
sg26
I9334832
sg17
S'85267.6849412'
p351
sba(igraph
Edge
p352
(dp353
g7
I1
sg8
I00
sg9
I5
sg10
(lp354
g139
ag223
asg24
I00
sg25
I00
sg26
I9334833
sg17
S'85267.6863018'
p355
sba(igraph
Edge
p356
(dp357
g7
I1
sg8
I00
sg9
I5
sg10
(lp358
g139
ag240
asg24
I00
sg25
I00
sg26
I9334834
sg17
S'85267.6885953'
p359
sba(igraph
Edge
p360
(dp361
g7
I1
sg8
I00
sg9
I5
sg10
(lp362
g156
ag240
asg24
I00
sg25
I00
sg26
I9334835
sg17
S'85267.6900126'
p363
sba(igraph
Edge
p364
(dp365
g7
I1
sg8
I00
sg9
I5
sg10
(lp366
g156
ag257
asg24
I00
sg25
I00
sg26
I9334836
sg17
S'85267.6914954'
p367
sba(igraph
Edge
p368
(dp369
g7
I1
sg8
I00
sg9
I5
sg10
(lp370
(igraph
Vertex
p371
(dp372
g14
F-69.478330768096782
sg15
F-221.77589679033167
sg16
I9335364
sg8
I00
sg17
S'85267.4526871'
p373
sg19
g20
sba(igraph
Vertex
p374
(dp375
g14
F-69.478330768096782
sg15
F-178.87774187183805
sg16
I9335365
sg8
I00
sg17
S'85267.4529355'
p376
sg19
g20
sbasg24
I00
sg25
I00
sg26
I9334837
sg17
S'85267.6930311'
p377
sba(igraph
Edge
p378
(dp379
g7
I1
sg8
I00
sg9
I5
sg10
(lp380
g374
a(igraph
Vertex
p381
(dp382
g14
F-69.478330768096782
sg15
F-135.97958695334455
sg16
I9335366
sg8
I00
sg17
S'85267.4531947'
p383
sg19
g20
sbasg24
I00
sg25
I00
sg26
I9334838
sg17
S'85267.6944989'
p384
sba(igraph
Edge
p385
(dp386
g7
I1
sg8
I00
sg9
I5
sg10
(lp387
(igraph
Vertex
p388
(dp389
g14
F-69.519865587133481
sg15
F-89.6864246824058
sg16
I9335367
sg8
I00
sg17
S'85267.4534613'
p390
sg19
g20
sba(igraph
Vertex
p391
(dp392
g14
F-69.519865587133481
sg15
F-46.788269763912297
sg16
I9335368
sg8
I00
sg17
S'85267.4537359'
p393
sg19
g20
sbasg24
I00
sg25
I00
sg26
I9334839
sg17
S'85267.6959918'
p394
sba(igraph
Edge
p395
(dp396
g7
I1
sg8
I00
sg9
I5
sg10
(lp397
g391
a(igraph
Vertex
p398
(dp399
g14
F-69.519865587133481
sg15
F-3.8901148454187364
sg16
I9335369
sg8
I00
sg17
S'85267.4540152'
p400
sg19
I0
sbasg24
I00
sg25
I00
sg26
I9334840
sg17
S'85267.6975442'
p401
sba(igraph
Edge
p402
(dp403
g7
I1
sg8
I00
sg9
I5
sg10
(lp404
g381
ag388
asg24
I00
sg25
I00
sg26
I9334841
sg17
S'85267.6991025'
p405
sba(igraph
Edge
p406
(dp407
g7
I1
sg8
I00
sg9
I5
sg10
(lp408
(igraph
Vertex
p409
(dp410
g14
F-69.630170598969002
sg15
F41.05602267003934
sg16
I9335371
sg8
I00
sg17
S'85267.4543175'
p411
sg19
g20
sba(igraph
Vertex
p412
(dp413
g14
F-69.630170598969002
sg15
F83.954177588532843
sg16
I9335372
sg8
I00
sg17
S'85267.4546167'
p414
sg19
g20
sbasg24
I00
sg25
I00
sg26
I9334842
sg17
S'85267.7007058'
p415
sba(igraph
Edge
p416
(dp417
g7
I1
sg8
I00
sg9
I5
sg10
(lp418
g412
a(igraph
Vertex
p419
(dp420
g14
F-69.630170598969002
sg15
F126.8523325070264
sg16
I9335373
sg8
I00
sg17
S'85267.4549221'
p421
sg19
g20
sbasg24
I00
sg25
I00
sg26
I9334843
sg17
S'85267.7023932'
p422
sba(igraph
Edge
p423
(dp424
g7
I1
sg8
I00
sg9
I5
sg10
(lp425
g419
a(igraph
Vertex
p426
(dp427
g14
F-69.671705418005658
sg15
F173.14549477796521
sg16
I9335374
sg8
I00
sg17
S'85267.4552363'
p428
sg19
g20
sbasg24
I00
sg25
I00
sg26
I9334844
sg17
S'85267.7041121'
p429
sba(igraph
Edge
p430
(dp431
g7
I1
sg8
I00
sg9
I5
sg10
(lp432
g398
ag409
asg24
I00
sg25
I00
sg26
I9334845
sg17
S'85267.7057685'
p433
sba(igraph
Edge
p434
(dp435
g7
I1
sg8
I00
sg9
I5
sg10
(lp436
g12
ag371
asg24
I00
sg25
I00
sg26
I9334846
sg17
S'85267.7074262'
p437
sba(igraph
Edge
p438
(dp439
g7
I1
sg8
I00
sg9
I5
sg10
(lp440
g12
ag374
asg24
I00
sg25
I00
sg26
I9334847
sg17
S'85267.709548'
p441
sba(igraph
Edge
p442
(dp443
g7
I1
sg8
I00
sg9
I5
sg10
(lp444
g21
ag374
asg24
I00
sg25
I00
sg26
I9334848
sg17
S'85267.7112527'
p445
sba(igraph
Edge
p446
(dp447
g7
I1
sg8
I00
sg9
I5
sg10
(lp448
g21
ag381
asg24
I00
sg25
I00
sg26
I9334849
sg17
S'85267.7130462'
p449
sba(igraph
Edge
p450
(dp451
g7
I1
sg8
I00
sg9
I5
sg10
(lp452
g31
ag381
asg24
I00
sg25
I00
sg26
I9334850
sg17
S'85267.7147953'
p453
sba(igraph
Edge
p454
(dp455
g7
I1
sg8
I00
sg9
I5
sg10
(lp456
g31
ag388
asg24
I00
sg25
I00
sg26
I9334851
sg17
S'85267.7165629'
p457
sba(igraph
Edge
p458
(dp459
g7
I1
sg8
I00
sg9
I5
sg10
(lp460
g112
ag388
asg24
I00
sg25
I00
sg26
I9334852
sg17
S'85267.7183343'
p461
sba(igraph
Edge
p462
(dp463
g7
I1
sg8
I00
sg9
I5
sg10
(lp464
g112
ag391
asg24
I00
sg25
I00
sg26
I9334853
sg17
S'85267.7201848'
p465
sba(igraph
Edge
p466
(dp467
g7
I1
sg8
I00
sg9
I5
sg10
(lp468
g115
ag391
asg24
I00
sg25
I00
sg26
I9334854
sg17
S'85267.7220211'
p469
sba(igraph
Edge
p470
(dp471
g7
I1
sg8
I00
sg9
I5
sg10
(lp472
g115
ag398
asg24
I00
sg25
I00
sg26
I9334855
sg17
S'85267.7239364'
p473
sba(igraph
Edge
p474
(dp475
g7
I1
sg8
I00
sg9
I5
sg10
(lp476
g122
ag398
asg24
I00
sg25
I00
sg26
I9334856
sg17
S'85267.7258523'
p477
sba(igraph
Edge
p478
(dp479
g7
I1
sg8
I00
sg9
I5
sg10
(lp480
g122
ag409
asg24
I00
sg25
I00
sg26
I9334857
sg17
S'85267.7278297'
p481
sba(igraph
Edge
p482
(dp483
g7
I1
sg8
I00
sg9
I5
sg10
(lp484
g223
ag409
asg24
I00
sg25
I00
sg26
I9334858
sg17
S'85267.7297296'
p485
sba(igraph
Edge
p486
(dp487
g7
I1
sg8
I00
sg9
I5
sg10
(lp488
g223
ag412
asg24
I00
sg25
I00
sg26
I9334859
sg17
S'85267.7317053'
p489
sba(igraph
Edge
p490
(dp491
g7
I1
sg8
I00
sg9
I5
sg10
(lp492
g226
ag412
asg24
I00
sg25
I00
sg26
I9334860
sg17
S'85267.7337438'
p493
sba(igraph
Edge
p494
(dp495
g7
I1
sg8
I00
sg9
I5
sg10
(lp496
g226
ag419
asg24
I00
sg25
I00
sg26
I9334861
sg17
S'85267.7358055'
p497
sba(igraph
Edge
p498
(dp499
g7
I1
sg8
I00
sg9
I5
sg10
(lp500
g233
ag419
asg24
I00
sg25
I00
sg26
I9334862
sg17
S'85267.7378558'
p501
sba(igraph
Edge
p502
(dp503
g7
I1
sg8
I00
sg9
I5
sg10
(lp504
g233
ag426
asg24
I00
sg25
I00
sg26
I9334863
sg17
S'85267.7398843'
p505
sba(igraph
Edge
p506
(dp507
g7
I1
sg8
I00
sg9
I5
sg10
(lp508
g314
ag426
asg24
I00
sg25
I00
sg26
I9334864
sg17
S'85267.7419616'
p509
sba(igraph
Edge
p510
(dp511
g7
I1
sg8
I00
sg9
I5
sg10
(lp512
(igraph
Vertex
p513
(dp514
g14
F75.344643598165817
sg15
F-222.30838286115801
sg16
I9335375
sg8
I00
sg17
S'85267.4555579'
p515
sg19
g20
sba(igraph
Vertex
p516
(dp517
g14
F75.344643598165817
sg15
F-179.41022794266439
sg16
I9335376
sg8
I00
sg17
S'85267.4558906'
p518
sg19
g20
sbasg24
I00
sg25
I00
sg26
I9334865
sg17
S'85267.7440446'
p519
sba(igraph
Edge
p520
(dp521
g7
I1
sg8
I00
sg9
I5
sg10
(lp522
g516
a(igraph
Vertex
p523
(dp524
g14
F75.344643598165817
sg15
F-136.51207302417089
sg16
I9335377
sg8
I00
sg17
S'85267.456284'
p525
sg19
g20
sbasg24
I00
sg25
I00
sg26
I9334866
sg17
S'85267.746189'
p526
sba(igraph
Edge
p527
(dp528
g7
I1
sg8
I00
sg9
I5
sg10
(lp529
(igraph
Vertex
p530
(dp531
g14
F75.297123412193685
sg15
F-90.218910753232137
sg16
I9335378
sg8
I00
sg17
S'85267.4566354'
p532
sg19
I0
sba(igraph
Vertex
p533
(dp534
g14
F75.297123412193685
sg15
F-47.320755834738577
sg16
I9335380
sg8
I00
sg17
S'85267.4569955'
p535
sg19
g20
sbasg24
I00
sg25
I00
sg26
I9334867
sg17
S'85267.74832'
p536
sba(igraph
Edge
p537
(dp538
g7
I1
sg8
I00
sg9
I5
sg10
(lp539
g533
a(igraph
Vertex
p540
(dp541
g14
F75.297123412193685
sg15
F-4.4226009162450737
sg16
I9335381
sg8
I00
sg17
S'85267.457362'
p542
sg19
g20
sbasg24
I00
sg25
I00
sg26
I9334868
sg17
S'85267.7505161'
p543
sba(igraph
Edge
p544
(dp545
g7
I1
sg8
I00
sg9
I5
sg10
(lp546
g523
ag530
asg24
I00
sg25
I00
sg26
I9334869
sg17
S'85267.7529421'
p547
sba(igraph
Edge
p548
(dp549
g7
I1
sg8
I00
sg9
I5
sg10
(lp550
(igraph
Vertex
p551
(dp552
g14
F75.170922918303233
sg15
F40.523536599213003
sg16
I9335382
sg8
I00
sg17
S'85267.4577364'
p553
sg19
g20
sba(igraph
Vertex
p554
(dp555
g14
F75.170922918303233
sg15
F83.421691517706563
sg16
I9335383
sg8
I00
sg17
S'85267.4582261'
p556
sg19
g20
sbasg24
I00
sg25
I00
sg26
I9334870
sg17
S'85267.7553192'
p557
sba(igraph
Edge
p558
(dp559
g7
I1
sg8
I00
sg9
I5
sg10
(lp560
g554
a(igraph
Vertex
p561
(dp562
g14
F75.170922918303233
sg15
F126.31984643620007
sg16
I9335384
sg8
I00
sg17
S'85267.4586167'
p563
sg19
g20
sbasg24
I00
sg25
I00
sg26
I9334871
sg17
S'85267.7575426'
p564
sba(igraph
Edge
p565
(dp566
g7
I1
sg8
I00
sg9
I5
sg10
(lp567
g561
a(igraph
Vertex
p568
(dp569
g14
F75.123402732331215
sg15
F172.61300870713887
sg16
I9335385
sg8
I00
sg17
S'85267.4590187'
p570
sg19
g20
sbasg24
I00
sg25
I00
sg26
I9334872
sg17
S'85267.7597999'
p571
sba(igraph
Edge
p572
(dp573
g7
I1
sg8
I00
sg9
I5
sg10
(lp574
g540
ag551
asg24
I00
sg25
I00
sg26
I9334873
sg17
S'85267.7620781'
p575
sba(igraph
Edge
p576
(dp577
g7
I1
sg8
I00
sg9
I5
sg10
(lp578
g55
ag513
asg24
I00
sg25
I00
sg26
I9334874
sg17
S'85267.7643497'
p579
sba(igraph
Edge
p580
(dp581
g7
I1
sg8
I00
sg9
I5
sg10
(lp582
g58
ag513
asg24
I00
sg25
I00
sg26
I9334875
sg17
S'85267.7666187'
p583
sba(igraph
Edge
p584
(dp585
g7
I1
sg8
I00
sg9
I5
sg10
(lp586
g58
ag516
asg24
I00
sg25
I00
sg26
I9334876
sg17
S'85267.7689522'
p587
sba(igraph
Edge
p588
(dp589
g7
I1
sg8
I00
sg9
I5
sg10
(lp590
g65
ag516
asg24
I00
sg25
I00
sg26
I9334877
sg17
S'85267.7712617'
p591
sba(igraph
Edge
p592
(dp593
g7
I1
sg8
I00
sg9
I5
sg10
(lp594
g65
ag523
asg24
I00
sg25
I00
sg26
I9334878
sg17
S'85267.773733'
p595
sba(igraph
Edge
p596
(dp597
g7
I1
sg8
I00
sg9
I5
sg10
(lp598
g146
ag523
asg24
I00
sg25
I00
sg26
I9334879
sg17
S'85267.7761059'
p599
sba(igraph
Edge
p600
(dp601
g7
I1
sg8
I00
sg9
I5
sg10
(lp602
g146
ag530
asg24
I00
sg25
I00
sg26
I9334880
sg17
S'85267.778511'
p603
sba(igraph
Edge
p604
(dp605
g7
I1
sg8
I00
sg9
I5
sg10
(lp606
g149
ag530
asg24
I00
sg25
I00
sg26
I9334881
sg17
S'85267.7810065'
p607
sba(igraph
Edge
p608
(dp609
g7
I1
sg8
I00
sg9
I5
sg10
(lp610
g149
ag533
asg24
I00
sg25
I00
sg26
I9334882
sg17
S'85267.7834314'
p611
sba(igraph
Edge
p612
(dp613
g7
I1
sg8
I00
sg9
I5
sg10
(lp614
g156
ag533
asg24
I00
sg25
I00
sg26
I9334883
sg17
S'85267.7859231'
p615
sba(igraph
Edge
p616
(dp617
g7
I1
sg8
I00
sg9
I5
sg10
(lp618
g156
ag540
asg24
I00
sg25
I00
sg26
I9334884
sg17
S'85267.7884374'
p619
sba(igraph
Edge
p620
(dp621
g7
I1
sg8
I00
sg9
I5
sg10
(lp622
g257
ag540
asg24
I00
sg25
I00
sg26
I9334885
sg17
S'85267.7909262'
p623
sba(igraph
Edge
p624
(dp625
g7
I1
sg8
I00
sg9
I5
sg10
(lp626
g257
ag551
asg24
I00
sg25
I00
sg26
I9334886
sg17
S'85267.7938989'
p627
sba(igraph
Edge
p628
(dp629
g7
I1
sg8
I00
sg9
I5
sg10
(lp630
g260
ag551
asg24
I00
sg25
I00
sg26
I9334887
sg17
S'85267.7964521'
p631
sba(igraph
Edge
p632
(dp633
g7
I1
sg8
I00
sg9
I5
sg10
(lp634
g260
ag554
asg24
I00
sg25
I00
sg26
I9334888
sg17
S'85267.799039'
p635
sba(igraph
Edge
p636
(dp637
g7
I1
sg8
I00
sg9
I5
sg10
(lp638
g267
ag554
asg24
I00
sg25
I00
sg26
I9334889
sg17
S'85267.8017835'
p639
sba(igraph
Edge
p640
(dp641
g7
I1
sg8
I00
sg9
I5
sg10
(lp642
g267
ag561
asg24
I00
sg25
I00
sg26
I9334890
sg17
S'85267.8043885'
p643
sba(igraph
Edge
p644
(dp645
g7
I1
sg8
I00
sg9
I5
sg10
(lp646
g324
ag561
asg24
I00
sg25
I00
sg26
I9334891
sg17
S'85267.8070023'
p647
sba(igraph
Edge
p648
(dp649
g7
I1
sg8
I00
sg9
I5
sg10
(lp650
g324
ag568
asg24
I00
sg25
I00
sg26
I9334892
sg17
S'85267.8096613'
p651
sba(igraph
Edge
p652
(dp653
g7
I1
sg8
I00
sg9
I5
sg10
(lp654
(igraph
Vertex
p655
(dp656
g14
F111.40618205970429
sg15
F-220.30838286115801
sg16
I9335386
sg8
I00
sg17
S'85267.4594243'
p657
sg19
g20
sba(igraph
Vertex
p658
(dp659
g14
F111.40618205970429
sg15
F-177.41022794266439
sg16
I9335387
sg8
I00
sg17
S'85267.4598358'
p660
sg19
g20
sbasg24
I00
sg25
I00
sg26
I9334893
sg17
S'85267.8123513'
p661
sba(igraph
Edge
p662
(dp663
g7
I1
sg8
I00
sg9
I5
sg10
(lp664
g658
a(igraph
Vertex
p665
(dp666
g14
F111.40618205970429
sg15
F-134.51207302417089
sg16
I9335388
sg8
I00
sg17
S'85267.4606063'
p667
sg19
g20
sbasg24
I00
sg25
I00
sg26
I9334894
sg17
S'85267.8151572'
p668
sba(igraph
Edge
p669
(dp670
g7
I1
sg8
I00
sg9
I5
sg10
(lp671
(igraph
Vertex
p672
(dp673
g14
F111.35866187373216
sg15
F-88.218910753232137
sg16
I9335389
sg8
I00
sg17
S'85267.4612843'
p674
sg19
g20
sba(igraph
Vertex
p675
(dp676
g14
F111.35866187373216
sg15
F-45.320755834738577
sg16
I9335390
sg8
I00
sg17
S'85267.4617246'
p677
sg19
g20
sbasg24
I00
sg25
I00
sg26
I9334895
sg17
S'85267.8179056'
p678
sba(igraph
Edge
p679
(dp680
g7
I1
sg8
I00
sg9
I5
sg10
(lp681
g675
a(igraph
Vertex
p682
(dp683
g14
F111.35866187373216
sg15
F-2.4226009162450737
sg16
I9335391
sg8
I00
sg17
S'85267.4621895'
p684
sg19
g20
sbasg24
I00
sg25
I00
sg26
I9334896
sg17
S'85267.820701'
p685
sba(igraph
Edge
p686
(dp687
g7
I1
sg8
I00
sg9
I5
sg10
(lp688
g665
ag672
asg24
I00
sg25
I00
sg26
I9334897
sg17
S'85267.8234424'
p689
sba(igraph
Edge
p690
(dp691
g7
I1
sg8
I00
sg9
I5
sg10
(lp692
(igraph
Vertex
p693
(dp694
g14
F111.23246137984171
sg15
F42.523536599213003
sg16
I9335392
sg8
I00
sg17
S'85267.4626437'
p695
sg19
g20
sba(igraph
Vertex
p696
(dp697
g14
F111.23246137984171
sg15
F85.421691517706563
sg16
I9335393
sg8
I00
sg17
S'85267.4631077'
p698
sg19
g20
sbasg24
I00
sg25
I00
sg26
I9334898
sg17
S'85267.8262223'
p699
sba(igraph
Edge
p700
(dp701
g7
I1
sg8
I00
sg9
I5
sg10
(lp702
g696
a(igraph
Vertex
p703
(dp704
g14
F111.23246137984171
sg15
F128.31984643620007
sg16
I9335394
sg8
I00
sg17
S'85267.4635821'
p705
sg19
g20
sbasg24
I00
sg25
I00
sg26
I9334899
sg17
S'85267.8289961'
p706
sba(igraph
Edge
p707
(dp708
g7
I1
sg8
I00
sg9
I5
sg10
(lp709
g703
a(igraph
Vertex
p710
(dp711
g14
F111.18494119386969
sg15
F174.61300870713887
sg16
I9335395
sg8
I00
sg17
S'85267.4641447'
p712
sg19
g20
sbasg24
I00
sg25
I00
sg26
I9334900
sg17
S'85267.8317722'
p713
sba(igraph
Edge
p714
(dp715
g7
I1
sg8
I00
sg9
I5
sg10
(lp716
g682
ag693
asg24
I00
sg25
I00
sg26
I9334901
sg17
S'85267.8351514'
p717
sba(igraph
Edge
p718
(dp719
g7
I1
sg8
I00
sg9
I5
sg10
(lp720
g513
ag655
asg24
I00
sg25
I00
sg26
I9334902
sg17
S'85267.8381336'
p721
sba(igraph
Edge
p722
(dp723
g7
I1
sg8
I00
sg9
I5
sg10
(lp724
g516
ag655
asg24
I00
sg25
I00
sg26
I9334903
sg17
S'85267.8410524'
p725
sba(igraph
Edge
p726
(dp727
g7
I1
sg8
I00
sg9
I5
sg10
(lp728
g516
ag658
asg24
I00
sg25
I00
sg26
I9334904
sg17
S'85267.8440296'
p729
sba(igraph
Edge
p730
(dp731
g7
I1
sg8
I00
sg9
I5
sg10
(lp732
g523
ag658
asg24
I00
sg25
I00
sg26
I9334905
sg17
S'85267.8506184'
p733
sba(igraph
Edge
p734
(dp735
g7
I1
sg8
I00
sg9
I5
sg10
(lp736
g523
ag665
asg24
I00
sg25
I00
sg26
I9334906
sg17
S'85267.8536926'
p737
sba(igraph
Edge
p738
(dp739
g7
I1
sg8
I00
sg9
I5
sg10
(lp740
g530
ag665
asg24
I00
sg25
I00
sg26
I9334907
sg17
S'85267.8567575'
p741
sba(igraph
Edge
p742
(dp743
g7
I1
sg8
I00
sg9
I5
sg10
(lp744
g530
ag672
asg24
I00
sg25
I00
sg26
I9334908
sg17
S'85267.8597853'
p745
sba(igraph
Edge
p746
(dp747
g7
I1
sg8
I00
sg9
I5
sg10
(lp748
g533
ag672
asg24
I00
sg25
I00
sg26
I9334909
sg17
S'85267.8629183'
p749
sba(igraph
Edge
p750
(dp751
g7
I1
sg8
I00
sg9
I5
sg10
(lp752
g533
ag675
asg24
I00
sg25
I00
sg26
I9334910
sg17
S'85267.8660338'
p753
sba(igraph
Edge
p754
(dp755
g7
I1
sg8
I00
sg9
I5
sg10
(lp756
g540
ag675
asg24
I00
sg25
I00
sg26
I9334911
sg17
S'85267.869142'
p757
sba(igraph
Edge
p758
(dp759
g7
I1
sg8
I00
sg9
I5
sg10
(lp760
g540
ag682
asg24
I00
sg25
I00
sg26
I9334912
sg17
S'85267.8722561'
p761
sba(igraph
Edge
p762
(dp763
g7
I1
sg8
I00
sg9
I5
sg10
(lp764
g551
ag682
asg24
I00
sg25
I00
sg26
I9334913
sg17
S'85267.8754439'
p765
sba(igraph
Edge
p766
(dp767
g7
I1
sg8
I00
sg9
I5
sg10
(lp768
g551
ag693
asg24
I00
sg25
I00
sg26
I9334914
sg17
S'85267.8790525'
p769
sba(igraph
Edge
p770
(dp771
g7
I1
sg8
I00
sg9
I5
sg10
(lp772
g554
ag693
asg24
I00
sg25
I00
sg26
I9334915
sg17
S'85267.8821917'
p773
sba(igraph
Edge
p774
(dp775
g7
I1
sg8
I00
sg9
I5
sg10
(lp776
g554
ag696
asg24
I00
sg25
I00
sg26
I9334916
sg17
S'85267.8853812'
p777
sba(igraph
Edge
p778
(dp779
g7
I1
sg8
I00
sg9
I5
sg10
(lp780
g561
ag696
asg24
I00
sg25
I00
sg26
I9334917
sg17
S'85267.8886009'
p781
sba(igraph
Edge
p782
(dp783
g7
I1
sg8
I00
sg9
I5
sg10
(lp784
g561
ag703
asg24
I00
sg25
I00
sg26
I9334918
sg17
S'85267.8918575'
p785
sba(igraph
Edge
p786
(dp787
g7
I1
sg8
I00
sg9
I5
sg10
(lp788
g568
ag703
asg24
I00
sg25
I00
sg26
I9334919
sg17
S'85267.8950629'
p789
sba(igraph
Edge
p790
(dp791
g7
I1
sg8
I00
sg9
I5
sg10
(lp792
g568
ag710
asg24
I00
sg25
I00
sg26
I9334920
sg17
S'85267.8983767'
p793
sba(igraph
Edge
p794
(dp795
g7
I1
sg8
I00
sg9
I5
sg10
(lp796
(igraph
Vertex
p797
(dp798
g14
F148.63876990418908
sg15
F-221.60228060146147
sg16
I9335396
sg8
I00
sg17
S'85267.4646322'
p799
sg19
g20
sba(igraph
Vertex
p800
(dp801
g14
F148.63876990418908
sg15
F-178.70412568296788
sg16
I9335397
sg8
I00
sg17
S'85267.4651334'
p802
sg19
g20
sbasg24
I00
sg25
I00
sg26
I9334921
sg17
S'85267.9017219'
p803
sba(igraph
Edge
p804
(dp805
g7
I1
sg8
I00
sg9
I5
sg10
(lp806
g800
a(igraph
Vertex
p807
(dp808
g14
F148.63876990418908
sg15
F-135.80597076447438
sg16
I9335398
sg8
I00
sg17
S'85267.4656407'
p809
sg19
I0
sbasg24
I00
sg25
I00
sg26
I9334922
sg17
S'85267.9050706'
p810
sba(igraph
Edge
p811
(dp812
g7
I1
sg8
I00
sg9
I5
sg10
(lp813
(igraph
Vertex
p814
(dp815
g14
F148.591249718217
sg15
F-89.51280849353563
sg16
I9335400
sg8
I00
sg17
S'85267.466159'
p816
sg19
g20
sba(igraph
Vertex
p817
(dp818
g14
F148.591249718217
sg15
F-46.614653575042126
sg16
I9335401
sg8
I00
sg17
S'85267.4666845'
p819
sg19
g20
sbasg24
I00
sg25
I00
sg26
I9334923
sg17
S'85267.9084029'
p820
sba(igraph
Edge
p821
(dp822
g7
I1
sg8
I00
sg9
I5
sg10
(lp823
g817
a(igraph
Vertex
p824
(dp825
g14
F148.591249718217
sg15
F-3.7164986565485947
sg16
I9335402
sg8
I00
sg17
S'85267.4672465'
p826
sg19
g20
sbasg24
I00
sg25
I00
sg26
I9334924
sg17
S'85267.9121715'
p827
sba(igraph
Edge
p828
(dp829
g7
I1
sg8
I00
sg9
I5
sg10
(lp830
g807
ag814
asg24
I00
sg25
I00
sg26
I9334925
sg17
S'85267.9155812'
p831
sba(igraph
Edge
p832
(dp833
g7
I1
sg8
I00
sg9
I5
sg10
(lp834
(igraph
Vertex
p835
(dp836
g14
F148.46504922432666
sg15
F41.229638858909482
sg16
I9335403
sg8
I00
sg17
S'85267.4678081'
p837
sg19
g20
sba(igraph
Vertex
p838
(dp839
g14
F148.46504922432666
sg15
F84.127793777403042
sg16
I9335404
sg8
I00
sg17
S'85267.4683604'
p840
sg19
g20
sbasg24
I00
sg25
I00
sg26
I9334926
sg17
S'85267.919461'
p841
sba(igraph
Edge
p842
(dp843
g7
I1
sg8
I00
sg9
I5
sg10
(lp844
g838
a(igraph
Vertex
p845
(dp846
g14
F148.46504922432666
sg15
F127.02594869589655
sg16
I9335405
sg8
I00
sg17
S'85267.4689644'
p847
sg19
g20
sbasg24
I00
sg25
I00
sg26
I9334927
sg17
S'85267.9229497'
p848
sba(igraph
Edge
p849
(dp850
g7
I1
sg8
I00
sg9
I5
sg10
(lp851
g845
a(igraph
Vertex
p852
(dp853
g14
F148.41752903835459
sg15
F173.31911096683535
sg16
I9335406
sg8
I00
sg17
S'85267.4695348'
p854
sg19
g20
sbasg24
I00
sg25
I00
sg26
I9334928
sg17
S'85267.9263906'
p855
sba(igraph
Edge
p856
(dp857
g7
I1
sg8
I00
sg9
I5
sg10
(lp858
g824
ag835
asg24
I00
sg25
I00
sg26
I9334929
sg17
S'85267.9298623'
p859
sba(igraph
Edge
p860
(dp861
g7
I1
sg8
I00
sg9
I5
sg10
(lp862
g655
ag797
asg24
I00
sg25
I00
sg26
I9334930
sg17
S'85267.9333717'
p863
sba(igraph
Edge
p864
(dp865
g7
I1
sg8
I00
sg9
I5
sg10
(lp866
g658
ag797
asg24
I00
sg25
I00
sg26
I9334931
sg17
S'85267.9369811'
p867
sba(igraph
Edge
p868
(dp869
g7
I1
sg8
I00
sg9
I5
sg10
(lp870
g658
ag800
asg24
I00
sg25
I00
sg26
I9334932
sg17
S'85267.9409632'
p871
sba(igraph
Edge
p872
(dp873
g7
I1
sg8
I00
sg9
I5
sg10
(lp874
g665
ag800
asg24
I00
sg25
I00
sg26
I9334933
sg17
S'85267.9445538'
p875
sba(igraph
Edge
p876
(dp877
g7
I1
sg8
I00
sg9
I5
sg10
(lp878
g665
ag807
asg24
I00
sg25
I00
sg26
I9334934
sg17
S'85267.9481426'
p879
sba(igraph
Edge
p880
(dp881
g7
I1
sg8
I00
sg9
I5
sg10
(lp882
g672
ag807
asg24
I00
sg25
I00
sg26
I9334935
sg17
S'85267.9517805'
p883
sba(igraph
Edge
p884
(dp885
g7
I1
sg8
I00
sg9
I5
sg10
(lp886
g672
ag814
asg24
I00
sg25
I00
sg26
I9334936
sg17
S'85267.9554019'
p887
sba(igraph
Edge
p888
(dp889
g7
I1
sg8
I00
sg9
I5
sg10
(lp890
g675
ag814
asg24
I00
sg25
I00
sg26
I9334937
sg17
S'85267.9591632'
p891
sba(igraph
Edge
p892
(dp893
g7
I1
sg8
I00
sg9
I5
sg10
(lp894
g675
ag817
asg24
I00
sg25
I00
sg26
I9334938
sg17
S'85267.9632395'
p895
sba(igraph
Edge
p896
(dp897
g7
I1
sg8
I00
sg9
I5
sg10
(lp898
g682
ag817
asg24
I00
sg25
I00
sg26
I9334939
sg17
S'85267.9669128'
p899
sba(igraph
Edge
p900
(dp901
g7
I1
sg8
I00
sg9
I5
sg10
(lp902
g682
ag824
asg24
I00
sg25
I00
sg26
I9334940
sg17
S'85267.9706329'
p903
sba(igraph
Edge
p904
(dp905
g7
I1
sg8
I00
sg9
I5
sg10
(lp906
g693
ag824
asg24
I00
sg25
I00
sg26
I9334941
sg17
S'85267.9743543'
p907
sba(igraph
Edge
p908
(dp909
g7
I1
sg8
I00
sg9
I5
sg10
(lp910
g693
ag835
asg24
I00
sg25
I00
sg26
I9334942
sg17
S'85267.9781129'
p911
sba(igraph
Edge
p912
(dp913
g7
I1
sg8
I00
sg9
I5
sg10
(lp914
g696
ag835
asg24
I00
sg25
I00
sg26
I9334943
sg17
S'85267.9818527'
p915
sba(igraph
Edge
p916
(dp917
g7
I1
sg8
I00
sg9
I5
sg10
(lp918
g696
ag838
asg24
I00
sg25
I00
sg26
I9334944
sg17
S'85267.9856965'
p919
sba(igraph
Edge
p920
(dp921
g7
I1
sg8
I00
sg9
I5
sg10
(lp922
g703
ag838
asg24
I00
sg25
I00
sg26
I9334945
sg17
S'85267.9895598'
p923
sba(igraph
Edge
p924
(dp925
g7
I1
sg8
I00
sg9
I5
sg10
(lp926
g703
ag845
asg24
I00
sg25
I00
sg26
I9334946
sg17
S'85267.9934472'
p927
sba(igraph
Edge
p928
(dp929
g7
I1
sg8
I00
sg9
I5
sg10
(lp930
g710
ag845
asg24
I00
sg25
I00
sg26
I9334947
sg17
S'85267.9973282'
p931
sba(igraph
Edge
p932
(dp933
g7
I1
sg8
I00
sg9
I5
sg10
(lp934
g710
ag852
asg24
I00
sg25
I00
sg26
I9334948
sg17
S'85268.0015237'
p935
sba(igraph
Edge
p936
(dp937
g7
I1
sg8
I00
sg9
I5
sg10
(lp938
(igraph
Vertex
p939
(dp940
g14
F181.99569298111214
sg15
F-219.60228060146147
sg16
I9335407
sg8
I00
sg17
S'85267.4701092'
p941
sg19
g20
sba(igraph
Vertex
p942
(dp943
g14
F181.99569298111214
sg15
F-176.70412568296791
sg16
I9335408
sg8
I00
sg17
S'85267.4707132'
p944
sg19
g20
sbasg24
I00
sg25
I00
sg26
I9334949
sg17
S'85268.0057479'
p945
sba(igraph
Edge
p946
(dp947
g7
I1
sg8
I00
sg9
I5
sg10
(lp948
g942
a(igraph
Vertex
p949
(dp950
g14
F181.99569298111214
sg15
F-133.80597076447438
sg16
I9335409
sg8
I00
sg17
S'85267.4713127'
p951
sg19
g20
sbasg24
I00
sg25
I00
sg26
I9334950
sg17
S'85268.0096794'
p952
sba(igraph
Edge
p953
(dp954
g7
I1
sg8
I00
sg9
I5
sg10
(lp955
(igraph
Vertex
p956
(dp957
g14
F181.94817279514007
sg15
F-87.51280849353563
sg16
I9335410
sg8
I00
sg17
S'85267.4722745'
p958
sg19
g20
sba(igraph
Vertex
p959
(dp960
g14
F181.94817279514007
sg15
F-44.614653575042126
sg16
I9335411
sg8
I00
sg17
S'85267.4730713'
p961
sg19
g20
sbasg24
I00
sg25
I00
sg26
I9334951
sg17
S'85268.0137023'
p962
sba(igraph
Edge
p963
(dp964
g7
I1
sg8
I00
sg9
I5
sg10
(lp965
g959
a(igraph
Vertex
p966
(dp967
g14
F181.94817279514007
sg15
F-1.7164986565485663
sg16
I9335412
sg8
I00
sg17
S'85267.4736893'
p968
sg19
g20
sbasg24
I00
sg25
I00
sg26
I9334952
sg17
S'85268.0185957'
p969
sba(igraph
Edge
p970
(dp971
g7
I1
sg8
I00
sg9
I5
sg10
(lp972
g949
ag956
asg24
I00
sg25
I00
sg26
I9334953
sg17
S'85268.0226615'
p973
sba(igraph
Edge
p974
(dp975
g7
I1
sg8
I00
sg9
I5
sg10
(lp976
(igraph
Vertex
p977
(dp978
g14
F181.82197230124967
sg15
F43.229638858909482
sg16
I9335413
sg8
I00
sg17
S'85267.4743159'
p979
sg19
g20
sba(igraph
Vertex
p980
(dp981
g14
F181.82197230124967
sg15
F86.127793777403042
sg16
I9335414
sg8
I00
sg17
S'85267.4749665'
p982
sg19
g20
sbasg24
I00
sg25
I00
sg26
I9334954
sg17
S'85268.0267506'
p983
sba(igraph
Edge
p984
(dp985
g7
I1
sg8
I00
sg9
I5
sg10
(lp986
g980
a(igraph
Vertex
p987
(dp988
g14
F181.82197230124967
sg15
F129.02594869589655
sg16
I9335415
sg8
I00
sg17
S'85267.4756244'
p989
sg19
g20
sbasg24
I00
sg25
I00
sg26
I9334955
sg17
S'85268.0308391'
p990
sba(igraph
Edge
p991
(dp992
g7
I1
sg8
I00
sg9
I5
sg10
(lp993
g987
a(igraph
Vertex
p994
(dp995
g14
F181.77445211527765
sg15
F175.31911096683535
sg16
I9335416
sg8
I00
sg17
S'85267.4762795'
p996
sg19
g20
sbasg24
I00
sg25
I00
sg26
I9334956
sg17
S'85268.034943'
p997
sba(igraph
Edge
p998
(dp999
g7
I1
sg8
I00
sg9
I5
sg10
(lp1000
g966
ag977
asg24
I00
sg25
I00
sg26
I9334957
sg17
S'85268.0391363'
p1001
sba(igraph
Edge
p1002
(dp1003
g7
I1
sg8
I00
sg9
I5
sg10
(lp1004
g797
ag939
asg24
I00
sg25
I00
sg26
I9334958
sg17
S'85268.0433415'
p1005
sba(igraph
Edge
p1006
(dp1007
g7
I1
sg8
I00
sg9
I5
sg10
(lp1008
g800
ag939
asg24
I00
sg25
I00
sg26
I9334959
sg17
S'85268.0474812'
p1009
sba(igraph
Edge
p1010
(dp1011
g7
I1
sg8
I00
sg9
I5
sg10
(lp1012
g800
ag942
asg24
I00
sg25
I00
sg26
I9334960
sg17
S'85268.0517624'
p1013
sba(igraph
Edge
p1014
(dp1015
g7
I1
sg8
I00
sg9
I5
sg10
(lp1016
g807
ag942
asg24
I00
sg25
I00
sg26
I9334961
sg17
S'85268.055963'
p1017
sba(igraph
Edge
p1018
(dp1019
g7
I1
sg8
I00
sg9
I5
sg10
(lp1020
g807
ag949
asg24
I00
sg25
I00
sg26
I9334962
sg17
S'85268.0601697'
p1021
sba(igraph
Edge
p1022
(dp1023
g7
I1
sg8
I00
sg9
I5
sg10
(lp1024
g814
ag949
asg24
I00
sg25
I00
sg26
I9334963
sg17
S'85268.0646132'
p1025
sba(igraph
Edge
p1026
(dp1027
g7
I1
sg8
I00
sg9
I5
sg10
(lp1028
g814
ag956
asg24
I00
sg25
I00
sg26
I9334964
sg17
S'85268.0688202'
p1029
sba(igraph
Edge
p1030
(dp1031
g7
I1
sg8
I00
sg9
I5
sg10
(lp1032
g817
ag956
asg24
I00
sg25
I00
sg26
I9334965
sg17
S'85268.0730341'
p1033
sba(igraph
Edge
p1034
(dp1035
g7
I1
sg8
I00
sg9
I5
sg10
(lp1036
g817
ag959
asg24
I00
sg25
I00
sg26
I9334966
sg17
S'85268.0773772'
p1037
sba(igraph
Edge
p1038
(dp1039
g7
I1
sg8
I00
sg9
I5
sg10
(lp1040
g824
ag959
asg24
I00
sg25
I00
sg26
I9334967
sg17
S'85268.0816928'
p1041
sba(igraph
Edge
p1042
(dp1043
g7
I1
sg8
I00
sg9
I5
sg10
(lp1044
g824
ag966
asg24
I00
sg25
I00
sg26
I9334968
sg17
S'85268.0868353'
p1045
sba(igraph
Edge
p1046
(dp1047
g7
I1
sg8
I00
sg9
I5
sg10
(lp1048
g835
ag966
asg24
I00
sg25
I00
sg26
I9334969
sg17
S'85268.0912535'
p1049
sba(igraph
Edge
p1050
(dp1051
g7
I1
sg8
I00
sg9
I5
sg10
(lp1052
g835
ag977
asg24
I00
sg25
I00
sg26
I9334970
sg17
S'85268.0958102'
p1053
sba(igraph
Edge
p1054
(dp1055
g7
I1
sg8
I00
sg9
I5
sg10
(lp1056
g838
ag977
asg24
I00
sg25
I00
sg26
I9334971
sg17
S'85268.1002507'
p1057
sba(igraph
Edge
p1058
(dp1059
g7
I1
sg8
I00
sg9
I5
sg10
(lp1060
g838
ag980
asg24
I00
sg25
I00
sg26
I9334972
sg17
S'85268.1047535'
p1061
sba(igraph
Edge
p1062
(dp1063
g7
I1
sg8
I00
sg9
I5
sg10
(lp1064
g845
ag980
asg24
I00
sg25
I00
sg26
I9334973
sg17
S'85268.1092438'
p1065
sba(igraph
Edge
p1066
(dp1067
g7
I1
sg8
I00
sg9
I5
sg10
(lp1068
g845
ag987
asg24
I00
sg25
I00
sg26
I9334974
sg17
S'85268.1137653'
p1069
sba(igraph
Edge
p1070
(dp1071
g7
I1
sg8
I00
sg9
I5
sg10
(lp1072
g852
ag987
asg24
I00
sg25
I00
sg26
I9334975
sg17
S'85268.1184064'
p1073
sba(igraph
Edge
p1074
(dp1075
g7
I1
sg8
I00
sg9
I5
sg10
(lp1076
g852
ag994
asg24
I00
sg25
I00
sg26
I9334976
sg17
S'85268.122938'
p1077
sba(igraph
Edge
p1078
(dp1079
g7
I1
sg8
I00
sg9
I5
sg10
(lp1080
(igraph
Vertex
p1081
(dp1082
g14
F216.70492375034286
sg15
F-223.60228060146147
sg16
I9335417
sg8
I00
sg17
S'85267.4769617'
p1083
sg19
g20
sba(igraph
Vertex
p1084
(dp1085
g14
F216.70492375034286
sg15
F-180.70412568296791
sg16
I9335418
sg8
I00
sg17
S'85267.4776423'
p1086
sg19
I0
sbasg24
I00
sg25
I00
sg26
I9334977
sg17
S'85268.1281699'
p1087
sba(igraph
Edge
p1088
(dp1089
g7
I1
sg8
I00
sg9
I5
sg10
(lp1090
g1084
a(igraph
Vertex
p1091
(dp1092
g14
F216.70492375034286
sg15
F-137.80597076447441
sg16
I9335420
sg8
I00
sg17
S'85267.4783256'
p1093
sg19
g20
sbasg24
I00
sg25
I00
sg26
I9334978
sg17
S'85268.1327764'
p1094
sba(igraph
Edge
p1095
(dp1096
g7
I1
sg8
I00
sg9
I5
sg10
(lp1097
(igraph
Vertex
p1098
(dp1099
g14
F216.65740356437084
sg15
F-91.512808493535658
sg16
I9335421
sg8
I00
sg17
S'85267.4790296'
p1100
sg19
g20
sba(igraph
Vertex
p1101
(dp1102
g14
F216.65740356437084
sg15
F-48.614653575042155
sg16
I9335422
sg8
I00
sg17
S'85267.4797945'
p1103
sg19
g20
sbasg24
I00
sg25
I00
sg26
I9334979
sg17
S'85268.1373705'
p1104
sba(igraph
Edge
p1105
(dp1106
g7
I1
sg8
I00
sg9
I5
sg10
(lp1107
g1101
a(igraph
Vertex
p1108
(dp1109
g14
F216.65740356437084
sg15
F-5.7164986565485947
sg16
I9335423
sg8
I00
sg17
S'85267.4805248'
p1110
sg19
g20
sbasg24
I00
sg25
I00
sg26
I9334980
sg17
S'85268.1419921'
p1111
sba(igraph
Edge
p1112
(dp1113
g7
I1
sg8
I00
sg9
I5
sg10
(lp1114
g1091
ag1098
asg24
I00
sg25
I00
sg26
I9334981
sg17
S'85268.1466273'
p1115
sba(igraph
Edge
p1116
(dp1117
g7
I1
sg8
I00
sg9
I5
sg10
(lp1118
(igraph
Vertex
p1119
(dp1120
g14
F216.5312030704805
sg15
F39.229638858909482
sg16
I9335424
sg8
I00
sg17
S'85267.4812424'
p1121
sg19
g20
sba(igraph
Vertex
p1122
(dp1123
g14
F216.5312030704805
sg15
F82.127793777403042
sg16
I9335425
sg8
I00
sg17
S'85267.4819635'
p1124
sg19
g20
sbasg24
I00
sg25
I00
sg26
I9334982
sg17
S'85268.151543'
p1125
sba(igraph
Edge
p1126
(dp1127
g7
I1
sg8
I00
sg9
I5
sg10
(lp1128
g1122
a(igraph
Vertex
p1129
(dp1130
g14
F216.5312030704805
sg15
F125.02594869589655
sg16
I9335426
sg8
I00
sg17
S'85267.4828228'
p1131
sg19
g20
sbasg24
I00
sg25
I00
sg26
I9334983
sg17
S'85268.1561916'
p1132
sba(igraph
Edge
p1133
(dp1134
g7
I1
sg8
I00
sg9
I5
sg10
(lp1135
g1129
a(igraph
Vertex
p1136
(dp1137
g14
F216.48368288450848
sg15
F171.31911096683535
sg16
I9335427
sg8
I00
sg17
S'85267.4836291'
p1138
sg19
g20
sbasg24
I00
sg25
I00
sg26
I9334984
sg17
S'85268.1609674'
p1139
sba(igraph
Edge
p1140
(dp1141
g7
I1
sg8
I00
sg9
I5
sg10
(lp1142
g1108
ag1119
asg24
I00
sg25
I00
sg26
I9334985
sg17
S'85268.1656328'
p1143
sba(igraph
Edge
p1144
(dp1145
g7
I1
sg8
I00
sg9
I5
sg10
(lp1146
g939
ag1081
asg24
I00
sg25
I00
sg26
I9334986
sg17
S'85268.1707804'
p1147
sba(igraph
Edge
p1148
(dp1149
g7
I1
sg8
I00
sg9
I5
sg10
(lp1150
g942
ag1081
asg24
I00
sg25
I00
sg26
I9334987
sg17
S'85268.1756952'
p1151
sba(igraph
Edge
p1152
(dp1153
g7
I1
sg8
I00
sg9
I5
sg10
(lp1154
g942
ag1084
asg24
I00
sg25
I00
sg26
I9334988
sg17
S'85268.1804905'
p1155
sba(igraph
Edge
p1156
(dp1157
g7
I1
sg8
I00
sg9
I5
sg10
(lp1158
g949
ag1084
asg24
I00
sg25
I00
sg26
I9334989
sg17
S'85268.1853892'
p1159
sba(igraph
Edge
p1160
(dp1161
g7
I1
sg8
I00
sg9
I5
sg10
(lp1162
g949
ag1091
asg24
I00
sg25
I00
sg26
I9334990
sg17
S'85268.1902591'
p1163
sba(igraph
Edge
p1164
(dp1165
g7
I1
sg8
I00
sg9
I5
sg10
(lp1166
g956
ag1091
asg24
I00
sg25
I00
sg26
I9334991
sg17
S'85268.1951307'
p1167
sba(igraph
Edge
p1168
(dp1169
g7
I1
sg8
I00
sg9
I5
sg10
(lp1170
g956
ag1098
asg24
I00
sg25
I00
sg26
I9334992
sg17
S'85268.1999849'
p1171
sba(igraph
Edge
p1172
(dp1173
g7
I1
sg8
I00
sg9
I5
sg10
(lp1174
g959
ag1098
asg24
I00
sg25
I00
sg26
I9334993
sg17
S'85268.2048028'
p1175
sba(igraph
Edge
p1176
(dp1177
g7
I1
sg8
I00
sg9
I5
sg10
(lp1178
g959
ag1101
asg24
I00
sg25
I00
sg26
I9334994
sg17
S'85268.2101789'
p1179
sba(igraph
Edge
p1180
(dp1181
g7
I1
sg8
I00
sg9
I5
sg10
(lp1182
g966
ag1101
asg24
I00
sg25
I00
sg26
I9334995
sg17
S'85268.2151131'
p1183
sba(igraph
Edge
p1184
(dp1185
g7
I1
sg8
I00
sg9
I5
sg10
(lp1186
g966
ag1108
asg24
I00
sg25
I00
sg26
I9334996
sg17
S'85268.2201271'
p1187
sba(igraph
Edge
p1188
(dp1189
g7
I1
sg8
I00
sg9
I5
sg10
(lp1190
g977
ag1108
asg24
I00
sg25
I00
sg26
I9334997
sg17
S'85268.2251303'
p1191
sba(igraph
Edge
p1192
(dp1193
g7
I1
sg8
I00
sg9
I5
sg10
(lp1194
g977
ag1119
asg24
I00
sg25
I00
sg26
I9334998
sg17
S'85268.2300826'
p1195
sba(igraph
Edge
p1196
(dp1197
g7
I1
sg8
I00
sg9
I5
sg10
(lp1198
g980
ag1119
asg24
I00
sg25
I00
sg26
I9334999
sg17
S'85268.2352623'
p1199
sba(igraph
Edge
p1200
(dp1201
g7
I1
sg8
I00
sg9
I5
sg10
(lp1202
g980
ag1122
asg24
I00
sg25
I00
sg26
I9335000
sg17
S'85268.2403479'
p1203
sba(igraph
Edge
p1204
(dp1205
g7
I1
sg8
I00
sg9
I5
sg10
(lp1206
g987
ag1122
asg24
I00
sg25
I00
sg26
I9335001
sg17
S'85268.2454524'
p1207
sba(igraph
Edge
p1208
(dp1209
g7
I1
sg8
I00
sg9
I5
sg10
(lp1210
g987
ag1129
asg24
I00
sg25
I00
sg26
I9335002
sg17
S'85268.2507129'
p1211
sba(igraph
Edge
p1212
(dp1213
g7
I1
sg8
I00
sg9
I5
sg10
(lp1214
g994
ag1129
asg24
I00
sg25
I00
sg26
I9335003
sg17
S'85268.2562974'
p1215
sba(igraph
Edge
p1216
(dp1217
g7
I1
sg8
I00
sg9
I5
sg10
(lp1218
g994
ag1136
asg24
I00
sg25
I00
sg26
I9335004
sg17
S'85268.2614737'
p1219
sba(igraph
Edge
p1220
(dp1221
g7
I1
sg8
I00
sg9
I5
sg10
(lp1222
(igraph
Vertex
p1223
(dp1224
g14
F-33.13117473483905
sg15
F219.73605189994373
sg16
I9335428
sg8
I00
sg17
S'85267.4844342'
p1225
sg19
g20
sba(igraph
Vertex
p1226
(dp1227
g14
F4.4809113927911142
sg15
F219.73605189994373
sg16
I9335429
sg8
I00
sg17
S'85267.4851938'
p1228
sg19
g20
sbasg24
I00
sg25
I00
sg26
I9335005
sg17
S'85268.2666797'
p1229
sba(igraph
Edge
p1230
(dp1231
g7
I1
sg8
I00
sg9
I5
sg10
(lp1232
g1226
a(igraph
Vertex
p1233
(dp1234
g14
F42.09299752042142
sg15
F219.73605189994373
sg16
I9335430
sg8
I00
sg17
S'85267.4859584'
p1235
sg19
g20
sbasg24
I00
sg25
I00
sg26
I9335006
sg17
S'85268.2719376'
p1236
sba(igraph
Edge
p1237
(dp1238
g7
I1
sg8
I00
sg9
I5
sg10
(lp1239
g1223
a(igraph
Vertex
p1240
(dp1241
g14
F-66.822704685635486
sg15
F220.26275658797073
sg16
I9335431
sg8
I00
sg17
S'85267.4867471'
p1242
sg19
g20
sbasg24
I00
sg25
I00
sg26
I9335007
sg17
S'85268.2771059'
p1243
sba(igraph
Edge
p1244
(dp1245
g7
I1
sg8
I00
sg9
I5
sg10
(lp1246
g1233
a(igraph
Vertex
p1247
(dp1248
g14
F78.382958155392259
sg15
F219.73027051714439
sg16
I9335432
sg8
I00
sg17
S'85267.4875287'
p1249
sg19
g20
sbasg24
I00
sg25
I00
sg26
I9335008
sg17
S'85268.2824194'
p1250
sba(igraph
Edge
p1251
(dp1252
g7
I1
sg8
I00
sg9
I5
sg10
(lp1253
g1247
a(igraph
Vertex
p1254
(dp1255
g14
F114.44449661693068
sg15
F221.73027051714439
sg16
I9335433
sg8
I00
sg17
S'85267.4883548'
p1256
sg19
g20
sbasg24
I00
sg25
I00
sg26
I9335009
sg17
S'85268.2877212'
p1257
sba(igraph
Edge
p1258
(dp1259
g7
I1
sg8
I00
sg9
I5
sg10
(lp1260
g1254
a(igraph
Vertex
p1261
(dp1262
g14
F151.67708446141557
sg15
F220.43637277684087
sg16
I9335434
sg8
I00
sg17
S'85267.489153'
p1263
sg19
g20
sbasg24
I00
sg25
I00
sg26
I9335010
sg17
S'85268.2935186'
p1264
sba(igraph
Edge
p1265
(dp1266
g7
I1
sg8
I00
sg9
I5
sg10
(lp1267
g1261
a(igraph
Vertex
p1268
(dp1269
g14
F185.03400753833859
sg15
F222.43637277684087
sg16
I9335435
sg8
I00
sg17
S'85267.4899595'
p1270
sg19
g20
sbasg24
I00
sg25
I00
sg26
I9335011
sg17
S'85268.298848'
p1271
sba(igraph
Edge
p1272
(dp1273
g7
I1
sg8
I00
sg9
I5
sg10
(lp1274
g1268
a(igraph
Vertex
p1275
(dp1276
g14
F219.74323830756941
sg15
F218.43637277684087
sg16
I9335436
sg8
I00
sg17
S'85267.4907984'
p1277
sg19
g20
sbasg24
I00
sg25
I00
sg26
I9335012
sg17
S'85268.3041683'
p1278
sba(igraph
Edge
p1279
(dp1280
g7
I1
sg8
I00
sg9
I5
sg10
(lp1281
g314
ag1240
asg24
I00
sg25
I00
sg26
I9335013
sg17
S'85268.3093997'
p1282
sba(igraph
Edge
p1283
(dp1284
g7
I1
sg8
I00
sg9
I5
sg10
(lp1285
g426
ag1240
asg24
I00
sg25
I00
sg26
I9335014
sg17
S'85268.3148506'
p1286
sba(igraph
Edge
p1287
(dp1288
g7
I1
sg8
I00
sg9
I5
sg10
(lp1289
g314
ag1223
asg24
I00
sg25
I00
sg26
I9335015
sg17
S'85268.3202524'
p1290
sba(igraph
Edge
p1291
(dp1292
g7
I1
sg8
I00
sg9
I5
sg10
(lp1293
g317
ag1223
asg24
I00
sg25
I00
sg26
I9335016
sg17
S'85268.3256811'
p1294
sba(igraph
Edge
p1295
(dp1296
g7
I1
sg8
I00
sg9
I5
sg10
(lp1297
g317
ag1226
asg24
I00
sg25
I00
sg26
I9335017
sg17
S'85268.3312692'
p1298
sba(igraph
Edge
p1299
(dp1300
g7
I1
sg8
I00
sg9
I5
sg10
(lp1301
g324
ag1226
asg24
I00
sg25
I00
sg26
I9335018
sg17
S'85268.3371923'
p1302
sba(igraph
Edge
p1303
(dp1304
g7
I1
sg8
I00
sg9
I5
sg10
(lp1305
g324
ag1233
asg24
I00
sg25
I00
sg26
I9335019
sg17
S'85268.3426354'
p1306
sba(igraph
Edge
p1307
(dp1308
g7
I1
sg8
I00
sg9
I5
sg10
(lp1309
g568
ag1233
asg24
I00
sg25
I00
sg26
I9335020
sg17
S'85268.3486234'
p1310
sba(igraph
Edge
p1311
(dp1312
g7
I1
sg8
I00
sg9
I5
sg10
(lp1313
g568
ag1247
asg24
I00
sg25
I00
sg26
I9335021
sg17
S'85268.3542202'
p1314
sba(igraph
Edge
p1315
(dp1316
g7
I1
sg8
I00
sg9
I5
sg10
(lp1317
g710
ag1247
asg24
I00
sg25
I00
sg26
I9335022
sg17
S'85268.359879'
p1318
sba(igraph
Edge
p1319
(dp1320
g7
I1
sg8
I00
sg9
I5
sg10
(lp1321
g710
ag1254
asg24
I00
sg25
I00
sg26
I9335023
sg17
S'85268.3655029'
p1322
sba(igraph
Edge
p1323
(dp1324
g7
I1
sg8
I00
sg9
I5
sg10
(lp1325
g852
ag1254
asg24
I00
sg25
I00
sg26
I9335024
sg17
S'85268.3711072'
p1326
sba(igraph
Edge
p1327
(dp1328
g7
I1
sg8
I00
sg9
I5
sg10
(lp1329
g852
ag1261
asg24
I00
sg25
I00
sg26
I9335025
sg17
S'85268.3771893'
p1330
sba(igraph
Edge
p1331
(dp1332
g7
I1
sg8
I00
sg9
I5
sg10
(lp1333
g994
ag1261
asg24
I00
sg25
I00
sg26
I9335026
sg17
S'85268.38274'
p1334
sba(igraph
Edge
p1335
(dp1336
g7
I1
sg8
I00
sg9
I5
sg10
(lp1337
g994
ag1268
asg24
I00
sg25
I00
sg26
I9335027
sg17
S'85268.3883111'
p1338
sba(igraph
Edge
p1339
(dp1340
g7
I1
sg8
I00
sg9
I5
sg10
(lp1341
g1136
ag1268
asg24
I00
sg25
I00
sg26
I9335028
sg17
S'85268.393964'
p1342
sba(igraph
Edge
p1343
(dp1344
g7
I1
sg8
I00
sg9
I5
sg10
(lp1345
g1136
ag1275
asg24
I00
sg25
I00
sg26
I9335029
sg17
S'85268.3996446'
p1346
sba(igraph
Edge
p1347
(dp1348
g7
I1
sg8
I00
sg9
I5
sg10
(lp1349
(igraph
Vertex
p1350
(dp1351
g14
F245.44772436972187
sg15
F-220.43637277684087
sg16
I9335437
sg8
I00
sg17
S'85267.49162'
p1352
sg19
g20
sba(igraph
Vertex
p1353
(dp1354
g14
F245.44772436972187
sg15
F-177.53821785834731
sg16
I9335438
sg8
I00
sg17
S'85267.4925366'
p1355
sg19
g20
sbasg24
I00
sg25
I00
sg26
I9335030
sg17
S'85268.4054233'
p1356
sba(igraph
Edge
p1357
(dp1358
g7
I1
sg8
I00
sg9
I5
sg10
(lp1359
g1353
a(igraph
Vertex
p1360
(dp1361
g14
F245.44772436972187
sg15
F-134.64006293985381
sg16
I9335439
sg8
I00
sg17
S'85267.4933864'
p1362
sg19
g20
sbasg24
I00
sg25
I00
sg26
I9335031
sg17
S'85268.4111062'
p1363
sba(igraph
Edge
p1364
(dp1365
g7
I1
sg8
I00
sg9
I5
sg10
(lp1366
(igraph
Vertex
p1367
(dp1368
g14
F245.40020418374979
sg15
F-88.346900668915055
sg16
I9335440
sg8
I00
sg17
S'85267.494262'
p1369
sg19
g20
sba(igraph
Vertex
p1370
(dp1371
g14
F245.40020418374979
sg15
F-45.448745750421551
sg16
I9335441
sg8
I00
sg17
S'85267.4951548'
p1372
sg19
g20
sbasg24
I00
sg25
I00
sg26
I9335032
sg17
S'85268.4169265'
p1373
sba(igraph
Edge
p1374
(dp1375
g7
I1
sg8
I00
sg9
I5
sg10
(lp1376
g1370
a(igraph
Vertex
p1377
(dp1378
g14
F245.40020418374979
sg15
F-2.5505908319279911
sg16
I9335442
sg8
I00
sg17
S'85267.4960463'
p1379
sg19
g20
sbasg24
I00
sg25
I00
sg26
I9335033
sg17
S'85268.423054'
p1380
sba(igraph
Edge
p1381
(dp1382
g7
I1
sg8
I00
sg9
I5
sg10
(lp1383
g1360
ag1367
asg24
I00
sg25
I00
sg26
I9335034
sg17
S'85268.4287944'
p1384
sba(igraph
Edge
p1385
(dp1386
g7
I1
sg8
I00
sg9
I5
sg10
(lp1387
(igraph
Vertex
p1388
(dp1389
g14
F245.2740036898594
sg15
F42.395546683530085
sg16
I9335443
sg8
I00
sg17
S'85267.49694'
p1390
sg19
g20
sba(igraph
Vertex
p1391
(dp1392
g14
F245.2740036898594
sg15
F85.293701602023646
sg16
I9335444
sg8
I00
sg17
S'85267.5072983'
p1393
sg19
g20
sbasg24
I00
sg25
I00
sg26
I9335035
sg17
S'85268.4345111'
p1394
sba(igraph
Edge
p1395
(dp1396
g7
I1
sg8
I00
sg9
I5
sg10
(lp1397
g1391
a(igraph
Vertex
p1398
(dp1399
g14
F245.2740036898594
sg15
F128.19185652051715
sg16
I9335445
sg8
I00
sg17
S'85267.508737'
p1400
sg19
g20
sbasg24
I00
sg25
I00
sg26
I9335036
sg17
S'85268.4404146'
p1401
sba(igraph
Edge
p1402
(dp1403
g7
I1
sg8
I00
sg9
I5
sg10
(lp1404
g1398
a(igraph
Vertex
p1405
(dp1406
g14
F245.22648350388738
sg15
F174.48501879145596
sg16
I9335446
sg8
I00
sg17
S'85267.5096486'
p1407
sg19
g20
sbasg24
I00
sg25
I00
sg26
I9335037
sg17
S'85268.4462196'
p1408
sba(igraph
Edge
p1409
(dp1410
g7
I1
sg8
I00
sg9
I5
sg10
(lp1411
g1377
ag1388
asg24
I00
sg25
I00
sg26
I9335038
sg17
S'85268.452025'
p1412
sba(igraph
Edge
p1413
(dp1414
g7
I1
sg8
I00
sg9
I5
sg10
(lp1415
(igraph
Vertex
p1416
(dp1417
g14
F278.80464744664494
sg15
F-218.43637277684087
sg16
I9335447
sg8
I00
sg17
S'85267.5105568'
p1418
sg19
I0
sba(igraph
Vertex
p1419
(dp1420
g14
F278.57472275387943
sg15
F-176.4170460876897
sg16
I9335449
sg8
I00
sg17
S'85267.5114767'
p1421
sg19
g20
sbasg24
I00
sg25
I00
sg26
I9335039
sg17
S'85268.4581518'
p1422
sba(igraph
Edge
p1423
(dp1424
g7
I1
sg8
I00
sg9
I5
sg10
(lp1425
g1419
a(igraph
Vertex
p1426
(dp1427
g14
F278.80464744664494
sg15
F-132.64006293985381
sg16
I9335450
sg8
I00
sg17
S'85267.512431'
p1428
sg19
g20
sbasg24
I00
sg25
I00
sg26
I9335040
sg17
S'85268.4644554'
p1429
sba(igraph
Edge
p1430
(dp1431
g7
I1
sg8
I00
sg9
I5
sg10
(lp1432
(igraph
Vertex
p1433
(dp1434
g14
F278.75712726067286
sg15
F-86.346900668915055
sg16
I9335451
sg8
I00
sg17
S'85267.5134217'
p1435
sg19
g20
sba(igraph
Vertex
p1436
(dp1437
g14
F278.75712726067286
sg15
F-43.448745750421551
sg16
I9335452
sg8
I00
sg17
S'85267.5144087'
p1438
sg19
g20
sbasg24
I00
sg25
I00
sg26
I9335041
sg17
S'85268.4702617'
p1439
sba(igraph
Edge
p1440
(dp1441
g7
I1
sg8
I00
sg9
I5
sg10
(lp1442
g1436
a(igraph
Vertex
p1443
(dp1444
g14
F278.75712726067286
sg15
F-0.55059083192799108
sg16
I9335453
sg8
I00
sg17
S'85267.5153624'
p1445
sg19
g20
sbasg24
I00
sg25
I00
sg26
I9335042
sg17
S'85268.476282'
p1446
sba(igraph
Edge
p1447
(dp1448
g7
I1
sg8
I00
sg9
I5
sg10
(lp1449
g1426
ag1433
asg24
I00
sg25
I00
sg26
I9335043
sg17
S'85268.4821482'
p1450
sba(igraph
Edge
p1451
(dp1452
g7
I1
sg8
I00
sg9
I5
sg10
(lp1453
(igraph
Vertex
p1454
(dp1455
g14
F278.63092676678252
sg15
F44.395546683530085
sg16
I9335454
sg8
I00
sg17
S'85267.5163802'
p1456
sg19
g20
sba(igraph
Vertex
p1457
(dp1458
g14
F278.63092676678252
sg15
F87.293701602023646
sg16
I9335455
sg8
I00
sg17
S'85267.5173582'
p1459
sg19
g20
sbasg24
I00
sg25
I00
sg26
I9335044
sg17
S'85268.488235'
p1460
sba(igraph
Edge
p1461
(dp1462
g7
I1
sg8
I00
sg9
I5
sg10
(lp1463
g1457
a(igraph
Vertex
p1464
(dp1465
g14
F278.63092676678252
sg15
F130.19185652051715
sg16
I9335456
sg8
I00
sg17
S'85267.5183379'
p1466
sg19
g20
sbasg24
I00
sg25
I00
sg26
I9335045
sg17
S'85268.4942385'
p1467
sba(igraph
Edge
p1468
(dp1469
g7
I1
sg8
I00
sg9
I5
sg10
(lp1470
g1464
a(igraph
Vertex
p1471
(dp1472
g14
F278.58340658081045
sg15
F176.48501879145596
sg16
I9335457
sg8
I00
sg17
S'85267.5193269'
p1473
sg19
g20
sbasg24
I00
sg25
I00
sg26
I9335046
sg17
S'85268.5004569'
p1474
sba(igraph
Edge
p1475
(dp1476
g7
I1
sg8
I00
sg9
I5
sg10
(lp1477
g1443
ag1454
asg24
I00
sg25
I00
sg26
I9335047
sg17
S'85268.5068284'
p1478
sba(igraph
Edge
p1479
(dp1480
g7
I1
sg8
I00
sg9
I5
sg10
(lp1481
g1350
ag1416
asg24
I00
sg25
I00
sg26
I9335048
sg17
S'85268.5129085'
p1482
sba(igraph
Edge
p1483
(dp1484
g7
I1
sg8
I00
sg9
I5
sg10
(lp1485
g1353
ag1416
asg24
I00
sg25
I00
sg26
I9335049
sg17
S'85268.5191068'
p1486
sba(igraph
Edge
p1487
(dp1488
g7
I1
sg8
I00
sg9
I5
sg10
(lp1489
g1353
ag1419
asg24
I00
sg25
I00
sg26
I9335050
sg17
S'85268.5253112'
p1490
sba(igraph
Edge
p1491
(dp1492
g7
I1
sg8
I00
sg9
I5
sg10
(lp1493
g1360
ag1419
asg24
I00
sg25
I00
sg26
I9335051
sg17
S'85268.5315203'
p1494
sba(igraph
Edge
p1495
(dp1496
g7
I1
sg8
I00
sg9
I5
sg10
(lp1497
g1360
ag1426
asg24
I00
sg25
I00
sg26
I9335052
sg17
S'85268.5377052'
p1498
sba(igraph
Edge
p1499
(dp1500
g7
I1
sg8
I00
sg9
I5
sg10
(lp1501
g1367
ag1426
asg24
I00
sg25
I00
sg26
I9335053
sg17
S'85268.5438881'
p1502
sba(igraph
Edge
p1503
(dp1504
g7
I1
sg8
I00
sg9
I5
sg10
(lp1505
g1367
ag1433
asg24
I00
sg25
I00
sg26
I9335054
sg17
S'85268.5505365'
p1506
sba(igraph
Edge
p1507
(dp1508
g7
I1
sg8
I00
sg9
I5
sg10
(lp1509
g1370
ag1433
asg24
I00
sg25
I00
sg26
I9335055
sg17
S'85268.5568817'
p1510
sba(igraph
Edge
p1511
(dp1512
g7
I1
sg8
I00
sg9
I5
sg10
(lp1513
g1370
ag1436
asg24
I00
sg25
I00
sg26
I9335056
sg17
S'85268.5631755'
p1514
sba(igraph
Edge
p1515
(dp1516
g7
I1
sg8
I00
sg9
I5
sg10
(lp1517
g1377
ag1436
asg24
I00
sg25
I00
sg26
I9335057
sg17
S'85268.5702971'
p1518
sba(igraph
Edge
p1519
(dp1520
g7
I1
sg8
I00
sg9
I5
sg10
(lp1521
g1377
ag1443
asg24
I00
sg25
I00
sg26
I9335058
sg17
S'85268.5766216'
p1522
sba(igraph
Edge
p1523
(dp1524
g7
I1
sg8
I00
sg9
I5
sg10
(lp1525
g1388
ag1443
asg24
I00
sg25
I00
sg26
I9335059
sg17
S'85268.5829406'
p1526
sba(igraph
Edge
p1527
(dp1528
g7
I1
sg8
I00
sg9
I5
sg10
(lp1529
g1388
ag1454
asg24
I00
sg25
I00
sg26
I9335060
sg17
S'85268.5897677'
p1530
sba(igraph
Edge
p1531
(dp1532
g7
I1
sg8
I00
sg9
I5
sg10
(lp1533
g1391
ag1454
asg24
I00
sg25
I00
sg26
I9335061
sg17
S'85268.5962372'
p1534
sba(igraph
Edge
p1535
(dp1536
g7
I1
sg8
I00
sg9
I5
sg10
(lp1537
g1391
ag1457
asg24
I00
sg25
I00
sg26
I9335062
sg17
S'85268.6026375'
p1538
sba(igraph
Edge
p1539
(dp1540
g7
I1
sg8
I00
sg9
I5
sg10
(lp1541
g1398
ag1457
asg24
I00
sg25
I00
sg26
I9335063
sg17
S'85268.6091162'
p1542
sba(igraph
Edge
p1543
(dp1544
g7
I1
sg8
I00
sg9
I5
sg10
(lp1545
g1398
ag1464
asg24
I00
sg25
I00
sg26
I9335064
sg17
S'85268.6155671'
p1546
sba(igraph
Edge
p1547
(dp1548
g7
I1
sg8
I00
sg9
I5
sg10
(lp1549
g1405
ag1464
asg24
I00
sg25
I00
sg26
I9335065
sg17
S'85268.6224154'
p1550
sba(igraph
Edge
p1551
(dp1552
g7
I1
sg8
I00
sg9
I5
sg10
(lp1553
g1405
ag1471
asg24
I00
sg25
I00
sg26
I9335066
sg17
S'85268.6295278'
p1554
sba(igraph
Edge
p1555
(dp1556
g7
I1
sg8
I00
sg9
I5
sg10
(lp1557
(igraph
Vertex
p1558
(dp1559
g14
F248.48603892694837
sg15
F221.60228060146147
sg16
I9335458
sg8
I00
sg17
S'85267.5204541'
p1560
sg19
g20
sba(igraph
Vertex
p1561
(dp1562
g14
F281.84296200387143
sg15
F223.60228060146147
sg16
I9335459
sg8
I00
sg17
S'85267.5214763'
p1563
sg19
g20
sbasg24
I00
sg25
I00
sg26
I9335067
sg17
S'85268.636073'
p1564
sba(igraph
Edge
p1565
(dp1566
g7
I1
sg8
I00
sg9
I5
sg10
(lp1567
g1405
ag1558
asg24
I00
sg25
I00
sg26
I9335068
sg17
S'85268.6427146'
p1568
sba(igraph
Edge
p1569
(dp1570
g7
I1
sg8
I00
sg9
I5
sg10
(lp1571
g1471
ag1558
asg24
I00
sg25
I00
sg26
I9335069
sg17
S'85268.6493138'
p1572
sba(igraph
Edge
p1573
(dp1574
g7
I1
sg8
I00
sg9
I5
sg10
(lp1575
g1471
ag1561
asg24
I00
sg25
I00
sg26
I9335070
sg17
S'85268.6558926'
p1576
sba(igraph
Edge
p1577
(dp1578
g7
I1
sg8
I00
sg9
I5
sg10
(lp1579
g1081
ag1350
asg24
I00
sg25
I00
sg26
I9335071
sg17
S'85268.662518'
p1580
sba(igraph
Edge
p1581
(dp1582
g7
I1
sg8
I00
sg9
I5
sg10
(lp1583
g1084
ag1350
asg24
I00
sg25
I00
sg26
I9335072
sg17
S'85268.6693647'
p1584
sba(igraph
Edge
p1585
(dp1586
g7
I1
sg8
I00
sg9
I5
sg10
(lp1587
g1084
ag1353
asg24
I00
sg25
I00
sg26
I9335073
sg17
S'85268.6780999'
p1588
sba(igraph
Edge
p1589
(dp1590
g7
I1
sg8
I00
sg9
I5
sg10
(lp1591
g1091
ag1353
asg24
I00
sg25
I00
sg26
I9335074
sg17
S'85268.6856106'
p1592
sba(igraph
Edge
p1593
(dp1594
g7
I1
sg8
I00
sg9
I5
sg10
(lp1595
g1091
ag1360
asg24
I00
sg25
I00
sg26
I9335075
sg17
S'85268.6968201'
p1596
sba(igraph
Edge
p1597
(dp1598
g7
I1
sg8
I00
sg9
I5
sg10
(lp1599
g1098
ag1360
asg24
I00
sg25
I00
sg26
I9335076
sg17
S'85268.7076592'
p1600
sba(igraph
Edge
p1601
(dp1602
g7
I1
sg8
I00
sg9
I5
sg10
(lp1603
g1098
ag1367
asg24
I00
sg25
I00
sg26
I9335077
sg17
S'85268.7210154'
p1604
sba(igraph
Edge
p1605
(dp1606
g7
I1
sg8
I00
sg9
I5
sg10
(lp1607
g1101
ag1367
asg24
I00
sg25
I00
sg26
I9335078
sg17
S'85268.7335935'
p1608
sba(igraph
Edge
p1609
(dp1610
g7
I1
sg8
I00
sg9
I5
sg10
(lp1611
g1101
ag1370
asg24
I00
sg25
I00
sg26
I9335079
sg17
S'85268.7429436'
p1612
sba(igraph
Edge
p1613
(dp1614
g7
I1
sg8
I00
sg9
I5
sg10
(lp1615
g1108
ag1370
asg24
I00
sg25
I00
sg26
I9335080
sg17
S'85268.7513634'
p1616
sba(igraph
Edge
p1617
(dp1618
g7
I1
sg8
I00
sg9
I5
sg10
(lp1619
g1108
ag1377
asg24
I00
sg25
I00
sg26
I9335081
sg17
S'85268.7595457'
p1620
sba(igraph
Edge
p1621
(dp1622
g7
I1
sg8
I00
sg9
I5
sg10
(lp1623
g1119
ag1377
asg24
I00
sg25
I00
sg26
I9335082
sg17
S'85268.7674355'
p1624
sba(igraph
Edge
p1625
(dp1626
g7
I1
sg8
I00
sg9
I5
sg10
(lp1627
g1119
ag1388
asg24
I00
sg25
I00
sg26
I9335083
sg17
S'85268.7759514'
p1628
sba(igraph
Edge
p1629
(dp1630
g7
I1
sg8
I00
sg9
I5
sg10
(lp1631
g1122
ag1388
asg24
I00
sg25
I00
sg26
I9335084
sg17
S'85268.7838058'
p1632
sba(igraph
Edge
p1633
(dp1634
g7
I1
sg8
I00
sg9
I5
sg10
(lp1635
g1122
ag1391
asg24
I00
sg25
I00
sg26
I9335085
sg17
S'85268.7915107'
p1636
sba(igraph
Edge
p1637
(dp1638
g7
I1
sg8
I00
sg9
I5
sg10
(lp1639
g1129
ag1391
asg24
I00
sg25
I00
sg26
I9335086
sg17
S'85268.7990739'
p1640
sba(igraph
Edge
p1641
(dp1642
g7
I1
sg8
I00
sg9
I5
sg10
(lp1643
g1129
ag1398
asg24
I00
sg25
I00
sg26
I9335087
sg17
S'85268.8060374'
p1644
sba(igraph
Edge
p1645
(dp1646
g7
I1
sg8
I00
sg9
I5
sg10
(lp1647
g1136
ag1398
asg24
I00
sg25
I00
sg26
I9335088
sg17
S'85268.8132394'
p1648
sba(igraph
Edge
p1649
(dp1650
g7
I1
sg8
I00
sg9
I5
sg10
(lp1651
g1136
ag1405
asg24
I00
sg25
I00
sg26
I9335089
sg17
S'85268.8201657'
p1652
sba(igraph
Edge
p1653
(dp1654
g7
I1
sg8
I00
sg9
I5
sg10
(lp1655
g1275
ag1405
asg24
I00
sg25
I00
sg26
I9335090
sg17
S'85268.8272252'
p1656
sba(igraph
Edge
p1657
(dp1658
g7
I1
sg8
I00
sS'altline'
p1659
I9335092
sg9
I5
sg10
(lp1660
g1081
ag1275
asg24
I01
sg25
I00
sg26
I9335091
sg17
S'85268.834767'
p1661
sba(igraph
Edge
p1662
(dp1663
g7
I1
sg8
I00
sg1659
I9335094
sg9
I5
sg10
(lp1664
g1081
ag1558
asg24
I01
sg25
I00
sg26
I9335093
sg17
S'85268.8418684'
p1665
sba(igraph
Edge
p1666
(dp1667
g7
I1
sg8
I00
sg9
I5
sg10
(lp1668
g1275
ag1558
asg24
I00
sg25
I00
sg26
I9335095
sg17
S'85268.8533274'
p1669
sba(igraph
Edge
p1670
(dp1671
g7
I1
sg8
I00
sg1659
I9335097
sg9
I5
sg10
(lp1672
g939
ag1268
asg24
I01
sg25
I00
sg26
I9335096
sg17
S'85268.8604334'
p1673
sba(igraph
Edge
p1674
(dp1675
g7
I1
sg8
I00
sg1659
I9335099
sg9
I5
sg10
(lp1676
g939
ag1275
asg24
I01
sg25
I00
sg26
I9335098
sg17
S'85268.8678989'
p1677
sba(igraph
Edge
p1678
(dp1679
g7
I1
sg8
I00
sg1659
I9335101
sg9
I5
sg10
(lp1680
g797
ag1261
asg24
I01
sg25
I00
sg26
I9335100
sg17
S'85268.8770302'
p1681
sba(igraph
Edge
p1682
(dp1683
g7
I1
sg8
I00
sg1659
I9335103
sg9
I5
sg10
(lp1684
g797
ag1268
asg24
I01
sg25
I00
sg26
I9335102
sg17
S'85268.8848499'
p1685
sba(igraph
Edge
p1686
(dp1687
g7
I1
sg8
I00
sg1659
I9335105
sg9
I5
sg10
(lp1688
g655
ag1254
asg24
I01
sg25
I00
sg26
I9335104
sg17
S'85268.8949649'
p1689
sba(igraph
Edge
p1690
(dp1691
g7
I1
sg8
I00
sg1659
I9335107
sg9
I5
sg10
(lp1692
g655
ag1261
asg24
I01
sg25
I00
sg26
I9335106
sg17
S'85268.9034886'
p1693
sba(igraph
Edge
p1694
(dp1695
g7
I1
sg8
I00
sg1659
I9335109
sg9
I5
sg10
(lp1696
g513
ag1247
asg24
I01
sg25
I00
sg26
I9335108
sg17
S'85268.9116318'
p1697
sba(igraph
Edge
p1698
(dp1699
g7
I1
sg8
I00
sg1659
I9335111
sg9
I5
sg10
(lp1700
g513
ag1254
asg24
I01
sg25
I00
sg26
I9335110
sg17
S'85268.9199289'
p1701
sba(igraph
Edge
p1702
(dp1703
g7
I1
sg8
I00
sg1659
I9335113
sg9
I5
sg10
(lp1704
g55
ag1233
asg24
I01
sg25
I00
sg26
I9335112
sg17
S'85268.9279556'
p1705
sba(igraph
Edge
p1706
(dp1707
g7
I1
sg8
I00
sg1659
I9335115
sg9
I5
sg10
(lp1708
g55
ag1247
asg24
I01
sg25
I00
sg26
I9335114
sg17
S'85268.9359399'
p1709
sba(igraph
Edge
p1710
(dp1711
g7
I1
sg8
I00
sg1659
I9335117
sg9
I5
sg10
(lp1712
g38
ag1226
asg24
I01
sg25
I00
sg26
I9335116
sg17
S'85268.9445818'
p1713
sba(igraph
Edge
p1714
(dp1715
g7
I1
sg8
I00
sg1659
I9335119
sg9
I5
sg10
(lp1716
g38
ag1233
asg24
I01
sg25
I00
sg26
I9335118
sg17
S'85268.9524398'
p1717
sba(igraph
Edge
p1718
(dp1719
g7
I1
sg8
I00
sg1659
I9335121
sg9
I5
sg10
(lp1720
g12
ag1223
asg24
I01
sg25
I00
sg26
I9335120
sg17
S'85268.9611431'
p1721
sba(igraph
Edge
p1722
(dp1723
g7
I1
sg8
I00
sg1659
I9335123
sg9
I5
sg10
(lp1724
g12
ag1226
asg24
I01
sg25
I00
sg26
I9335122
sg17
S'85268.9715081'
p1725
sba(igraph
Edge
p1726
(dp1727
g7
I1
sg8
I00
sg1659
I9335125
sg9
I5
sg10
(lp1728
g371
ag1223
asg24
I01
sg25
I00
sg26
I9335124
sg17
S'85268.9795052'
p1729
sba(igraph
Edge
p1730
(dp1731
g7
I1
sg8
I00
sg1659
I9335127
sg9
I5
sg10
(lp1732
g371
ag1240
asg24
I01
sg25
I00
sg26
I9335126
sg17
S'85268.9873196'
p1733
sba(igraph
Edge
p1734
(dp1735
g7
I1
sg8
I00
sg1659
I9335129
sg9
I5
sg10
(lp1736
g1416
ag1561
asg24
I01
sg25
I00
sg26
I9335128
sg17
S'85268.9952446'
p1737
sba(igraph
Edge
p1738
(dp1739
g7
I1
sg8
I00
sg1659
I9335131
sg9
I5
sg10
(lp1740
g1350
ag1558
asg24
I01
sg25
I00
sg26
I9335130
sg17
S'85269.0062184'
p1741
sba(igraph
Edge
p1742
(dp1743
g7
I1
sg8
I00
sg1659
I9335133
sg9
I5
sg10
(lp1744
g1350
ag1561
asg24
I01
sg25
I00
sg26
I9335132
sg17
S'85269.0181976'
p1745
sba(igraph
Edge
p1746
(dp1747
g7
I1
sg8
I00
sg9
I5
sg10
(lp1748
(igraph
Vertex
p1749
(dp1750
g14
F-143.773169600432
sg15
F-221.6997251208544
sg16
I9335460
sg8
I00
sg17
S'85267.5225309'
p1751
sg19
g20
sba(igraph
Vertex
p1752
(dp1753
g14
F-143.773169600432
sg15
F-178.80157020236078
sg16
I9335461
sg8
I00
sg17
S'85267.5235601'
p1754
sg19
g20
sbasg24
I00
sg25
I00
sg26
I9335134
sg17
S'85269.0270836'
p1755
sba(igraph
Edge
p1756
(dp1757
g7
I1
sg8
I00
sg9
I5
sg10
(lp1758
g1752
a(igraph
Vertex
p1759
(dp1760
g14
F-143.773169600432
sg15
F-135.90341528386728
sg16
I9335462
sg8
I00
sg17
S'85267.5246234'
p1761
sg19
g20
sbasg24
I00
sg25
I00
sg26
I9335135
sg17
S'85269.0366142'
p1762
sba(igraph
Edge
p1763
(dp1764
g7
I1
sg8
I00
sg9
I5
sg10
(lp1765
(igraph
Vertex
p1766
(dp1767
g14
F-106.16108347280174
sg15
F-221.6997251208544
sg16
I9335463
sg8
I00
sg17
S'85267.525671'
p1768
sg19
g20
sba(igraph
Vertex
p1769
(dp1770
g14
F-106.16108347280174
sg15
F-178.80157020236078
sg16
I9335464
sg8
I00
sg17
S'85267.5267223'
p1771
sg19
g20
sbasg24
I00
sg25
I00
sg26
I9335136
sg17
S'85269.0454614'
p1772
sba(igraph
Edge
p1773
(dp1774
g7
I1
sg8
I00
sg9
I5
sg10
(lp1775
g1769
a(igraph
Vertex
p1776
(dp1777
g14
F-106.16108347280174
sg15
F-135.90341528386728
sg16
I9335465
sg8
I00
sg17
S'85267.527781'
p1778
sg19
g20
sbasg24
I00
sg25
I00
sg26
I9335137
sg17
S'85269.0548852'
p1779
sba(igraph
Edge
p1780
(dp1781
g7
I1
sg8
I00
sg9
I5
sg10
(lp1782
g1749
ag1766
asg24
I00
sg25
I00
sg26
I9335138
sg17
S'85269.0646124'
p1783
sba(igraph
Edge
p1784
(dp1785
g7
I1
sg8
I00
sg9
I5
sg10
(lp1786
g1752
ag1769
asg24
I00
sg25
I00
sg26
I9335139
sg17
S'85269.073561'
p1787
sba(igraph
Edge
p1788
(dp1789
g7
I1
sg8
I00
sg9
I5
sg10
(lp1790
g1759
ag1776
asg24
I00
sg25
I00
sg26
I9335140
sg17
S'85269.0839182'
p1791
sba(igraph
Edge
p1792
(dp1793
g7
I1
sg8
I00
sg9
I5
sg10
(lp1794
g1752
ag1766
asg24
I00
sg25
I00
sg26
I9335141
sg17
S'85269.0967182'
p1795
sba(igraph
Edge
p1796
(dp1797
g7
I1
sg8
I00
sg9
I5
sg10
(lp1798
g1759
ag1769
asg24
I00
sg25
I00
sg26
I9335142
sg17
S'85269.106306'
p1799
sba(igraph
Edge
p1800
(dp1801
g7
I1
sg8
I00
sg9
I5
sg10
(lp1802
(igraph
Vertex
p1803
(dp1804
g14
F-143.81470441946868
sg15
F-89.610253012928524
sg16
I9335466
sg8
I00
sg17
S'85267.5288901'
p1805
sg19
g20
sba(igraph
Vertex
p1806
(dp1807
g14
F-143.81470441946868
sg15
F-46.712098094435021
sg16
I9335467
sg8
I00
sg17
S'85267.5300386'
p1808
sg19
g20
sbasg24
I00
sg25
I00
sg26
I9335143
sg17
S'85269.1154406'
p1809
sba(igraph
Edge
p1810
(dp1811
g7
I1
sg8
I00
sg9
I5
sg10
(lp1812
g1806
a(igraph
Vertex
p1813
(dp1814
g14
F-143.81470441946868
sg15
F-3.8139431759414606
sg16
I9335468
sg8
I00
sg17
S'85267.5311644'
p1815
sg19
g20
sbasg24
I00
sg25
I00
sg26
I9335144
sg17
S'85269.1239727'
p1816
sba(igraph
Edge
p1817
(dp1818
g7
I1
sg8
I00
sg9
I5
sg10
(lp1819
(igraph
Vertex
p1820
(dp1821
g14
F-106.20261829183846
sg15
F-89.610253012928524
sg16
I9335469
sg8
I00
sg17
S'85267.5324073'
p1822
sg19
g20
sba(igraph
Vertex
p1823
(dp1824
g14
F-106.20261829183846
sg15
F-46.712098094435021
sg16
I9335470
sg8
I00
sg17
S'85267.5335404'
p1825
sg19
g20
sbasg24
I00
sg25
I00
sg26
I9335145
sg17
S'85269.133467'
p1826
sba(igraph
Edge
p1827
(dp1828
g7
I1
sg8
I00
sg9
I5
sg10
(lp1829
g1823
a(igraph
Vertex
p1830
(dp1831
g14
F-106.20261829183846
sg15
F-3.8139431759414606
sg16
I9335471
sg8
I00
sg17
S'85267.5346755'
p1832
sg19
g20
sbasg24
I00
sg25
I00
sg26
I9335146
sg17
S'85269.1416937'
p1833
sba(igraph
Edge
p1834
(dp1835
g7
I1
sg8
I00
sg9
I5
sg10
(lp1836
g1803
ag1820
asg24
I00
sg25
I00
sg26
I9335147
sg17
S'85269.1543855'
p1837
sba(igraph
Edge
p1838
(dp1839
g7
I1
sg8
I00
sg9
I5
sg10
(lp1840
g1806
ag1823
asg24
I00
sg25
I00
sg26
I9335148
sg17
S'85269.1628623'
p1841
sba(igraph
Edge
p1842
(dp1843
g7
I1
sg8
I00
sg9
I5
sg10
(lp1844
g1813
ag1830
asg24
I00
sg25
I00
sg26
I9335149
sg17
S'85269.1724926'
p1845
sba(igraph
Edge
p1846
(dp1847
g7
I1
sg8
I00
sg9
I5
sg10
(lp1848
g1806
ag1820
asg24
I00
sg25
I00
sg26
I9335150
sg17
S'85269.1807805'
p1849
sba(igraph
Edge
p1850
(dp1851
g7
I1
sg8
I00
sg9
I5
sg10
(lp1852
g1813
ag1823
asg24
I00
sg25
I00
sg26
I9335151
sg17
S'85269.1890154'
p1853
sba(igraph
Edge
p1854
(dp1855
g7
I1
sg8
I00
sg9
I5
sg10
(lp1856
g1759
ag1803
asg24
I00
sg25
I00
sg26
I9335152
sg17
S'85269.1986088'
p1857
sba(igraph
Edge
p1858
(dp1859
g7
I1
sg8
I00
sg9
I5
sg10
(lp1860
g1776
ag1803
asg24
I00
sg25
I00
sg26
I9335153
sg17
S'85269.209081'
p1861
sba(igraph
Edge
p1862
(dp1863
g7
I1
sg8
I00
sg9
I5
sg10
(lp1864
g1776
ag1820
asg24
I00
sg25
I00
sg26
I9335154
sg17
S'85269.2193089'
p1865
sba(igraph
Edge
p1866
(dp1867
g7
I1
sg8
I00
sg9
I5
sg10
(lp1868
(igraph
Vertex
p1869
(dp1870
g14
F-143.92500943130415
sg15
F41.132194339516616
sg16
I9335472
sg8
I00
sg17
S'85267.5436208'
p1871
sg19
I0
sba(igraph
Vertex
p1872
(dp1873
g14
F-143.92500943130415
sg15
F84.030349258010176
sg16
I9335474
sg8
I00
sg17
S'85267.5454084'
p1874
sg19
g20
sbasg24
I00
sg25
I00
sg26
I9335155
sg17
S'85269.2309059'
p1875
sba(igraph
Edge
p1876
(dp1877
g7
I1
sg8
I00
sg9
I5
sg10
(lp1878
g1872
a(igraph
Vertex
p1879
(dp1880
g14
F-143.92500943130415
sg15
F126.92850417650368
sg16
I9335475
sg8
I00
sg17
S'85267.5466203'
p1881
sg19
g20
sbasg24
I00
sg25
I00
sg26
I9335156
sg17
S'85269.2417061'
p1882
sba(igraph
Edge
p1883
(dp1884
g7
I1
sg8
I00
sg9
I5
sg10
(lp1885
(igraph
Vertex
p1886
(dp1887
g14
F-106.312923303674
sg15
F41.132194339516616
sg16
I9335476
sg8
I00
sg17
S'85267.5477953'
p1888
sg19
g20
sba(igraph
Vertex
p1889
(dp1890
g14
F-106.312923303674
sg15
F84.030349258010176
sg16
I9335477
sg8
I00
sg17
S'85267.5543294'
p1891
sg19
g20
sbasg24
I00
sg25
I00
sg26
I9335157
sg17
S'85269.2532827'
p1892
sba(igraph
Edge
p1893
(dp1894
g7
I1
sg8
I00
sg9
I5
sg10
(lp1895
g1889
a(igraph
Vertex
p1896
(dp1897
g14
F-106.312923303674
sg15
F126.92850417650368
sg16
I9335478
sg8
I00
sg17
S'85267.5555167'
p1898
sg19
g20
sbasg24
I00
sg25
I00
sg26
I9335158
sg17
S'85269.263327'
p1899
sba(igraph
Edge
p1900
(dp1901
g7
I1
sg8
I00
sg9
I5
sg10
(lp1902
g1869
ag1886
asg24
I00
sg25
I00
sg26
I9335159
sg17
S'85269.2735004'
p1903
sba(igraph
Edge
p1904
(dp1905
g7
I1
sg8
I00
sg9
I5
sg10
(lp1906
g1872
ag1889
asg24
I00
sg25
I00
sg26
I9335160
sg17
S'85269.2837741'
p1907
sba(igraph
Edge
p1908
(dp1909
g7
I1
sg8
I00
sg9
I5
sg10
(lp1910
g1879
ag1896
asg24
I00
sg25
I00
sg26
I9335161
sg17
S'85269.2940483'
p1911
sba(igraph
Edge
p1912
(dp1913
g7
I1
sg8
I00
sg9
I5
sg10
(lp1914
g1872
ag1886
asg24
I00
sg25
I00
sg26
I9335162
sg17
S'85269.3029257'
p1915
sba(igraph
Edge
p1916
(dp1917
g7
I1
sg8
I00
sg9
I5
sg10
(lp1918
g1879
ag1889
asg24
I00
sg25
I00
sg26
I9335163
sg17
S'85269.3122123'
p1919
sba(igraph
Edge
p1920
(dp1921
g7
I1
sg8
I00
sg9
I5
sg10
(lp1922
(igraph
Vertex
p1923
(dp1924
g14
F-143.9665442503408
sg15
F173.22166644744249
sg16
I9335479
sg8
I00
sg17
S'85267.5567635'
p1925
sg19
g20
sba(igraph
Vertex
p1926
(dp1927
g14
F-106.35445812271061
sg15
F173.22166644744249
sg16
I9335480
sg8
I00
sg17
S'85267.5579681'
p1928
sg19
g20
sbasg24
I00
sg25
I00
sg26
I9335164
sg17
S'85269.3216504'
p1929
sba(igraph
Edge
p1930
(dp1931
g7
I1
sg8
I00
sg9
I5
sg10
(lp1932
g1879
ag1923
asg24
I00
sg25
I00
sg26
I9335165
sg17
S'85269.3309753'
p1933
sba(igraph
Edge
p1934
(dp1935
g7
I1
sg8
I00
sg9
I5
sg10
(lp1936
g1896
ag1923
asg24
I00
sg25
I00
sg26
I9335166
sg17
S'85269.3420108'
p1937
sba(igraph
Edge
p1938
(dp1939
g7
I1
sg8
I00
sg9
I5
sg10
(lp1940
g1896
ag1926
asg24
I00
sg25
I00
sg26
I9335167
sg17
S'85269.3524392'
p1941
sba(igraph
Edge
p1942
(dp1943
g7
I1
sg8
I00
sg9
I5
sg10
(lp1944
g1813
ag1869
asg24
I00
sg25
I00
sg26
I9335168
sg17
S'85269.3618357'
p1945
sba(igraph
Edge
p1946
(dp1947
g7
I1
sg8
I00
sg9
I5
sg10
(lp1948
g1830
ag1869
asg24
I00
sg25
I00
sg26
I9335169
sg17
S'85269.3713584'
p1949
sba(igraph
Edge
p1950
(dp1951
g7
I1
sg8
I00
sg9
I5
sg10
(lp1952
g1830
ag1886
asg24
I00
sg25
I00
sg26
I9335170
sg17
S'85269.3865103'
p1953
sba(igraph
Edge
p1954
(dp1955
g7
I1
sg8
I00
sg9
I5
sg10
(lp1956
(igraph
Vertex
p1957
(dp1958
g14
F-141.11754351797072
sg15
F220.33892825744795
sg16
I9335481
sg8
I00
sg17
S'85267.5620161'
p1959
sg19
g20
sba(igraph
Vertex
p1960
(dp1961
g14
F-103.50545739034051
sg15
F220.33892825744795
sg16
I9335482
sg8
I00
sg17
S'85267.5632716'
p1962
sg19
g20
sbasg24
I00
sg25
I00
sg26
I9335171
sg17
S'85269.4020693'
p1963
sba(igraph
Edge
p1964
(dp1965
g7
I1
sg8
I00
sg9
I5
sg10
(lp1966
g1923
ag1957
asg24
I00
sg25
I00
sg26
I9335172
sg17
S'85269.4137674'
p1967
sba(igraph
Edge
p1968
(dp1969
g7
I1
sg8
I00
sg9
I5
sg10
(lp1970
g1926
ag1957
asg24
I00
sg25
I00
sg26
I9335173
sg17
S'85269.4250747'
p1971
sba(igraph
Edge
p1972
(dp1973
g7
I1
sg8
I00
sg9
I5
sg10
(lp1974
g1926
ag1960
asg24
I00
sg25
I00
sg26
I9335174
sg17
S'85269.4362007'
p1975
sba(igraph
Edge
p1976
(dp1977
g7
I1
sg8
I00
sg1659
I9335176
sg9
I5
sg10
(lp1978
g1766
ag1960
asg24
I01
sg25
I00
sg26
I9335175
sg17
S'85269.4479424'
p1979
sba(igraph
Edge
p1980
(dp1981
g7
I1
sg8
I00
sg1659
I9335178
sg9
I5
sg10
(lp1982
g1749
ag1957
asg24
I01
sg25
I00
sg26
I9335177
sg17
S'85269.4589159'
p1983
sba(igraph
Edge
p1984
(dp1985
g7
I1
sg8
I00
sg1659
I9335180
sg9
I5
sg10
(lp1986
g1749
ag1960
asg24
I01
sg25
I00
sg26
I9335179
sg17
S'85269.469427'
p1987
sba(igraph
Edge
p1988
(dp1989
g7
I1
sg8
I00
sg9
I5
sg10
(lp1990
g371
ag1766
asg24
I00
sg25
I00
sg26
I9335181
sg17
S'85269.4808513'
p1991
sba(igraph
Edge
p1992
(dp1993
g7
I1
sg8
I00
sg9
I5
sg10
(lp1994
g371
ag1769
asg24
I00
sg25
I00
sg26
I9335182
sg17
S'85269.4898958'
p1995
sba(igraph
Edge
p1996
(dp1997
g7
I1
sg8
I00
sg9
I5
sg10
(lp1998
g374
ag1769
asg24
I00
sg25
I00
sg26
I9335183
sg17
S'85269.5061054'
p1999
sba(igraph
Edge
p2000
(dp2001
g7
I1
sg8
I00
sg9
I5
sg10
(lp2002
g374
ag1776
asg24
I00
sg25
I00
sg26
I9335184
sg17
S'85269.5221312'
p2003
sba(igraph
Edge
p2004
(dp2005
g7
I1
sg8
I00
sg9
I5
sg10
(lp2006
g381
ag1776
asg24
I00
sg25
I00
sg26
I9335185
sg17
S'85269.537242'
p2007
sba(igraph
Edge
p2008
(dp2009
g7
I1
sg8
I00
sg9
I5
sg10
(lp2010
g381
ag1820
asg24
I00
sg25
I00
sg26
I9335186
sg17
S'85269.5481753'
p2011
sba(igraph
Edge
p2012
(dp2013
g7
I1
sg8
I00
sg9
I5
sg10
(lp2014
g388
ag1820
asg24
I00
sg25
I00
sg26
I9335187
sg17
S'85269.5605556'
p2015
sba(igraph
Edge
p2016
(dp2017
g7
I1
sg8
I00
sg9
I5
sg10
(lp2018
g388
ag1823
asg24
I00
sg25
I00
sg26
I9335188
sg17
S'85269.5719456'
p2019
sba(igraph
Edge
p2020
(dp2021
g7
I1
sg8
I00
sg9
I5
sg10
(lp2022
g391
ag1823
asg24
I00
sg25
I00
sg26
I9335189
sg17
S'85269.5860857'
p2023
sba(igraph
Edge
p2024
(dp2025
g7
I1
sg8
I00
sg9
I5
sg10
(lp2026
g391
ag1830
asg24
I00
sg25
I00
sg26
I9335190
sg17
S'85269.5964255'
p2027
sba(igraph
Edge
p2028
(dp2029
g7
I1
sg8
I00
sg9
I5
sg10
(lp2030
g398
ag1830
asg24
I00
sg25
I00
sg26
I9335191
sg17
S'85269.6064835'
p2031
sba(igraph
Edge
p2032
(dp2033
g7
I1
sg8
I00
sg9
I5
sg10
(lp2034
g398
ag1886
asg24
I00
sg25
I00
sg26
I9335192
sg17
S'85269.6164035'
p2035
sba(igraph
Edge
p2036
(dp2037
g7
I1
sg8
I00
sg9
I5
sg10
(lp2038
g409
ag1886
asg24
I00
sg25
I00
sg26
I9335193
sg17
S'85269.626911'
p2039
sba(igraph
Edge
p2040
(dp2041
g7
I1
sg8
I00
sg9
I5
sg10
(lp2042
g409
ag1889
asg24
I00
sg25
I00
sg26
I9335194
sg17
S'85269.6372952'
p2043
sba(igraph
Edge
p2044
(dp2045
g7
I1
sg8
I00
sg9
I5
sg10
(lp2046
g412
ag1889
asg24
I00
sg25
I00
sg26
I9335195
sg17
S'85269.6508486'
p2047
sba(igraph
Edge
p2048
(dp2049
g7
I1
sg8
I00
sg9
I5
sg10
(lp2050
g412
ag1896
asg24
I00
sg25
I00
sg26
I9335196
sg17
S'85269.6717636'
p2051
sba(igraph
Edge
p2052
(dp2053
g7
I1
sg8
I00
sg9
I5
sg10
(lp2054
g419
ag1896
asg24
I00
sg25
I00
sg26
I9335197
sg17
S'85269.6849745'
p2055
sba(igraph
Edge
p2056
(dp2057
g7
I1
sg8
I00
sg9
I5
sg10
(lp2058
g419
ag1926
asg24
I00
sg25
I00
sg26
I9335198
sg17
S'85269.6945282'
p2059
sba(igraph
Edge
p2060
(dp2061
g7
I1
sg8
I00
sg9
I5
sg10
(lp2062
g426
ag1926
asg24
I00
sg25
I00
sg26
I9335199
sg17
S'85269.7176295'
p2063
sba(igraph
Edge
p2064
(dp2065
g7
I1
sg8
I00
sg9
I5
sg10
(lp2066
g426
ag1960
asg24
I00
sg25
I00
sg26
I9335200
sg17
S'85269.7314201'
p2067
sba(igraph
Edge
p2068
(dp2069
g7
I1
sg8
I00
sg1659
I9335202
sg9
I5
sg10
(lp2070
g1240
ag1766
asg24
I01
sg25
I00
sg26
I9335201
sg17
S'85269.7564487'
p2071
sba(igraph
Edge
p2072
(dp2073
g7
I1
sg8
I00
sg9
I5
sg10
(lp2074
g1240
ag1960
asg24
I00
sg25
I00
sg26
I9335203
sg17
S'85269.7783389'
p2075
sba(igraph
Edge
p2076
(dp2077
g7
I1
sg8
I00
sg9
I5
sg10
(lp2078
(igraph
Vertex
p2079
(dp2080
g14
F-173.66321857083102
sg15
F-220.73781095559303
sg16
I9335483
sg8
I00
sg17
S'85267.5645461'
p2081
sg19
g20
sba(igraph
Vertex
p2082
(dp2083
g14
F-173.66321857083102
sg15
F-177.83965603709942
sg16
I9335484
sg8
I00
sg17
S'85267.56577'
p2084
sg19
g20
sbasg24
I00
sg25
I00
sg26
I9335204
sg17
S'85269.7986283'
p2085
sba(igraph
Edge
p2086
(dp2087
g7
I1
sg8
I00
sg9
I5
sg10
(lp2088
g2082
a(igraph
Vertex
p2089
(dp2090
g14
F-173.66321857083102
sg15
F-134.94150111860591
sg16
I9335485
sg8
I00
sg17
S'85267.5670302'
p2091
sg19
g20
sbasg24
I00
sg25
I00
sg26
I9335205
sg17
S'85269.8187929'
p2092
sba(igraph
Edge
p2093
(dp2094
g7
I1
sg8
I00
sg9
I5
sg10
(lp2095
(igraph
Vertex
p2096
(dp2097
g14
F-173.70475338986768
sg15
F-88.648338847667162
sg16
I9335486
sg8
I00
sg17
S'85267.568268'
p2098
sg19
g20
sba(igraph
Vertex
p2099
(dp2100
g14
F-173.70475338986768
sg15
F-45.750183929173645
sg16
I9335487
sg8
I00
sg17
S'85267.5695573'
p2101
sg19
g20
sbasg24
I00
sg25
I00
sg26
I9335206
sg17
S'85269.8288542'
p2102
sba(igraph
Edge
p2103
(dp2104
g7
I1
sg8
I00
sg9
I5
sg10
(lp2105
g2099
a(igraph
Vertex
p2106
(dp2107
g14
F-173.70475338986768
sg15
F-2.8520290106800843
sg16
I9335488
sg8
I00
sg17
S'85267.5708192'
p2108
sg19
g20
sbasg24
I00
sg25
I00
sg26
I9335207
sg17
S'85269.8412427'
p2109
sba(igraph
Edge
p2110
(dp2111
g7
I1
sg8
I00
sg9
I5
sg10
(lp2112
g2089
ag2096
asg24
I00
sg25
I00
sg26
I9335208
sg17
S'85269.855761'
p2113
sba(igraph
Edge
p2114
(dp2115
g7
I1
sg8
I00
sg9
I5
sg10
(lp2116
(igraph
Vertex
p2117
(dp2118
g14
F-173.8150584017032
sg15
F42.094108504777992
sg16
I9335489
sg8
I00
sg17
S'85267.5720892'
p2119
sg19
g20
sba(igraph
Vertex
p2120
(dp2121
g14
F-173.8150584017032
sg15
F84.992263423271552
sg16
I9335490
sg8
I00
sg17
S'85267.5734254'
p2122
sg19
g20
sbasg24
I00
sg25
I00
sg26
I9335209
sg17
S'85269.8681053'
p2123
sba(igraph
Edge
p2124
(dp2125
g7
I1
sg8
I00
sg9
I5
sg10
(lp2126
g2120
a(igraph
Vertex
p2127
(dp2128
g14
F-173.8150584017032
sg15
F127.89041834176506
sg16
I9335492
sg8
I01
sg17
S'85267.5747457'
p2129
sg19
I0
sbasg24
I00
sg25
I00
sg26
I9335210
sg17
S'85269.8801325'
p2130
sba(igraph
Edge
p2131
(dp2132
g7
I1
sg8
I00
sg9
I5
sg10
(lp2133
g2127
a(igraph
Vertex
p2134
(dp2135
g14
F-173.85659322073985
sg15
F174.18358061270385
sg16
I9335494
sg8
I00
sg17
S'85267.576047'
p2136
sg19
g20
sbasg24
I00
sg25
I00
sg26
I9335211
sg17
S'85269.8919446'
p2137
sba(igraph
Edge
p2138
(dp2139
g7
I1
sg8
I00
sg9
I5
sg10
(lp2140
g2106
ag2117
asg24
I00
sg25
I00
sg26
I9335212
sg17
S'85269.9042253'
p2141
sba(igraph
Edge
p2142
(dp2143
g7
I1
sg8
I00
sg9
I5
sg10
(lp2144
(igraph
Vertex
p2145
(dp2146
g14
F-207.35474852162741
sg15
F-220.21110626756604
sg16
I9335495
sg8
I00
sg17
S'85267.5774178'
p2147
sg19
g20
sba(igraph
Vertex
p2148
(dp2149
g14
F-207.35474852162741
sg15
F-177.31295134907242
sg16
I9335496
sg8
I00
sg17
S'85267.5787529'
p2150
sg19
g20
sbasg24
I00
sg25
I00
sg26
I9335213
sg17
S'85269.9234671'
p2151
sba(igraph
Edge
p2152
(dp2153
g7
I1
sg8
I00
sg9
I5
sg10
(lp2154
g2148
a(igraph
Vertex
p2155
(dp2156
g14
F-207.35474852162741
sg15
F-134.41479643057892
sg16
I9335497
sg8
I00
sg17
S'85267.5801223'
p2157
sg19
g20
sbasg24
I00
sg25
I00
sg26
I9335214
sg17
S'85269.9389953'
p2158
sba(igraph
Edge
p2159
(dp2160
g7
I1
sg8
I00
sg9
I5
sg10
(lp2161
(igraph
Vertex
p2162
(dp2163
g14
F-207.39628334066413
sg15
F-88.121634159640166
sg16
I9335498
sg8
I00
sg17
S'85267.5820027'
p2164
sg19
g20
sba(igraph
Vertex
p2165
(dp2166
g14
F-207.39628334066413
sg15
F-45.223479241146649
sg16
I9335499
sg8
I00
sg17
S'85267.5833666'
p2167
sg19
g20
sbasg24
I00
sg25
I00
sg26
I9335215
sg17
S'85269.9498643'
p2168
sba(igraph
Edge
p2169
(dp2170
g7
I1
sg8
I00
sg9
I5
sg10
(lp2171
g2165
a(igraph
Vertex
p2172
(dp2173
g14
F-207.39628334066413
sg15
F-2.3253243226530884
sg16
I9335500
sg8
I00
sg17
S'85267.585473'
p2174
sg19
g20
sbasg24
I00
sg25
I00
sg26
I9335216
sg17
S'85269.9860334'
p2175
sba(igraph
Edge
p2176
(dp2177
g7
I1
sg8
I00
sg9
I5
sg10
(lp2178
g2155
ag2162
asg24
I00
sg25
I00
sg26
I9335217
sg17
S'85270.0070154'
p2179
sba(igraph
Edge
p2180
(dp2181
g7
I1
sg8
I00
sg9
I5
sg10
(lp2182
(igraph
Vertex
p2183
(dp2184
g14
F-207.50658835249965
sg15
F42.620813192804988
sg16
I9335501
sg8
I00
sg17
S'85267.5868662'
p2185
sg19
g20
sba(igraph
Vertex
p2186
(dp2187
g14
F-207.50658835249965
sg15
F85.518968111298491
sg16
I9335502
sg8
I00
sg17
S'85267.5882689'
p2188
sg19
I0
sbasg24
I00
sg25
I00
sg26
I9335218
sg17
S'85270.0286109'
p2189
sba(igraph
Edge
p2190
(dp2191
g7
I1
sg8
I00
sg9
I5
sg10
(lp2192
g2186
a(igraph
Vertex
p2193
(dp2194
g14
F-207.50658835249965
sg15
F128.41712302979204
sg16
I9335504
sg8
I00
sg17
S'85267.5897199'
p2195
sg19
g20
sbasg24
I00
sg25
I00
sg26
I9335219
sg17
S'85270.0424847'
p2196
sba(igraph
Edge
p2197
(dp2198
g7
I1
sg8
I00
sg9
I5
sg10
(lp2199
g2193
a(igraph
Vertex
p2200
(dp2201
g14
F-207.5481231715363
sg15
F174.71028530073085
sg16
I9335505
sg8
I00
sg17
S'85267.5911148'
p2202
sg19
g20
sbasg24
I00
sg25
I00
sg26
I9335220
sg17
S'85270.0565698'
p2203
sba(igraph
Edge
p2204
(dp2205
g7
I1
sg8
I00
sg9
I5
sg10
(lp2206
g2172
ag2183
asg24
I00
sg25
I00
sg26
I9335221
sg17
S'85270.0737664'
p2207
sba(igraph
Edge
p2208
(dp2209
g7
I1
sg8
I00
sg9
I5
sg10
(lp2210
g2079
ag2145
asg24
I00
sg25
I00
sg26
I9335222
sg17
S'85270.0862336'
p2211
sba(igraph
Edge
p2212
(dp2213
g7
I1
sg8
I00
sg9
I5
sg10
(lp2214
g2079
ag2148
asg24
I00
sg25
I00
sg26
I9335223
sg17
S'85270.0987765'
p2215
sba(igraph
Edge
p2216
(dp2217
g7
I1
sg8
I00
sg9
I5
sg10
(lp2218
g2082
ag2148
asg24
I00
sg25
I00
sg26
I9335224
sg17
S'85270.1094527'
p2219
sba(igraph
Edge
p2220
(dp2221
g7
I1
sg8
I00
sg9
I5
sg10
(lp2222
g2082
ag2155
asg24
I00
sg25
I00
sg26
I9335225
sg17
S'85270.1204469'
p2223
sba(igraph
Edge
p2224
(dp2225
g7
I1
sg8
I00
sg9
I5
sg10
(lp2226
g2089
ag2155
asg24
I00
sg25
I00
sg26
I9335226
sg17
S'85270.1323448'
p2227
sba(igraph
Edge
p2228
(dp2229
g7
I1
sg8
I00
sg9
I5
sg10
(lp2230
g2089
ag2162
asg24
I00
sg25
I00
sg26
I9335227
sg17
S'85270.1428992'
p2231
sba(igraph
Edge
p2232
(dp2233
g7
I1
sg8
I00
sg9
I5
sg10
(lp2234
g2096
ag2162
asg24
I00
sg25
I00
sg26
I9335228
sg17
S'85270.1535203'
p2235
sba(igraph
Edge
p2236
(dp2237
g7
I1
sg8
I00
sg9
I5
sg10
(lp2238
g2096
ag2165
asg24
I00
sg25
I00
sg26
I9335229
sg17
S'85270.1632389'
p2239
sba(igraph
Edge
p2240
(dp2241
g7
I1
sg8
I00
sg9
I5
sg10
(lp2242
g2099
ag2165
asg24
I00
sg25
I00
sg26
I9335230
sg17
S'85270.1733625'
p2243
sba(igraph
Edge
p2244
(dp2245
g7
I1
sg8
I00
sg9
I5
sg10
(lp2246
g2099
ag2172
asg24
I00
sg25
I00
sg26
I9335231
sg17
S'85270.1830258'
p2247
sba(igraph
Edge
p2248
(dp2249
g7
I1
sg8
I00
sg9
I5
sg10
(lp2250
g2106
ag2172
asg24
I00
sg25
I00
sg26
I9335232
sg17
S'85270.1926966'
p2251
sba(igraph
Edge
p2252
(dp2253
g7
I1
sg8
I00
sg9
I5
sg10
(lp2254
g2106
ag2183
asg24
I00
sg25
I00
sg26
I9335233
sg17
S'85270.2024372'
p2255
sba(igraph
Edge
p2256
(dp2257
g7
I1
sg8
I00
sg9
I5
sg10
(lp2258
g2117
ag2183
asg24
I00
sg25
I00
sg26
I9335234
sg17
S'85270.2134637'
p2259
sba(igraph
Edge
p2260
(dp2261
g7
I1
sg8
I00
sg9
I5
sg10
(lp2262
g2117
ag2186
asg24
I00
sg25
I00
sg26
I9335235
sg17
S'85270.2233524'
p2263
sba(igraph
Edge
p2264
(dp2265
g7
I1
sg8
I00
sg9
I5
sg10
(lp2266
g2120
ag2186
asg24
I00
sg25
I00
sg26
I9335236
sg17
S'85270.2333034'
p2267
sba(igraph
Edge
p2268
(dp2269
g7
I1
sg8
I00
sg9
I5
sg10
(lp2270
g2120
ag2193
asg24
I00
sg25
I00
sg26
I9335237
sg17
S'85270.2432597'
p2271
sba(igraph
Edge
p2272
(dp2273
g7
I1
sg8
I00
sg9
I5
sg10
(lp2274
g2127
ag2193
asg24
I00
sg25
I00
sg26
I9335238
sg17
S'85270.2535004'
p2275
sba(igraph
Edge
p2276
(dp2277
g7
I1
sg8
I00
sg9
I5
sg10
(lp2278
g2127
ag2200
asg24
I00
sg25
I00
sg26
I9335239
sg17
S'85270.2635215'
p2279
sba(igraph
Edge
p2280
(dp2281
g7
I1
sg8
I00
sg9
I5
sg10
(lp2282
g2134
ag2200
asg24
I00
sg25
I00
sg26
I9335240
sg17
S'85270.2735124'
p2283
sba(igraph
Edge
p2284
(dp2285
g7
I1
sg8
I00
sg9
I5
sg10
(lp2286
(igraph
Vertex
p2287
(dp2288
g14
F-171.00759248836971
sg15
F221.30084242270937
sg16
I9335506
sg8
I00
sg17
S'85267.5925912'
p2289
sg19
g20
sba(igraph
Vertex
p2290
(dp2291
g14
F-204.6991224391661
sg15
F221.82754711073636
sg16
I9335507
sg8
I00
sg17
S'85267.5940241'
p2292
sg19
g20
sbasg24
I00
sg25
I00
sg26
I9335241
sg17
S'85270.2834089'
p2293
sba(igraph
Edge
p2294
(dp2295
g7
I1
sg8
I00
sg9
I5
sg10
(lp2296
g2134
ag2290
asg24
I00
sg25
I00
sg26
I9335242
sg17
S'85270.293905'
p2297
sba(igraph
Edge
p2298
(dp2299
g7
I1
sg8
I00
sg9
I5
sg10
(lp2300
g2200
ag2290
asg24
I00
sg25
I00
sg26
I9335243
sg17
S'85270.303864'
p2301
sba(igraph
Edge
p2302
(dp2303
g7
I1
sg8
I00
sg9
I5
sg10
(lp2304
g2134
ag2287
asg24
I00
sg25
I00
sg26
I9335244
sg17
S'85270.3142925'
p2305
sba(igraph
Edge
p2306
(dp2307
g7
I1
sg8
I00
sg1659
I9335246
sg9
I5
sg10
(lp2308
g2079
ag2287
asg24
I01
sg25
I00
sg26
I9335245
sg17
S'85270.3243812'
p2309
sba(igraph
Edge
p2310
(dp2311
g7
I1
sg8
I00
sg1659
I9335248
sg9
I5
sg10
(lp2312
g2145
ag2287
asg24
I01
sg25
I00
sg26
I9335247
sg17
S'85270.3348898'
p2313
sba(igraph
Edge
p2314
(dp2315
g7
I1
sg8
I00
sg1659
I9335250
sg9
I5
sg10
(lp2316
g2145
ag2290
asg24
I01
sg25
I00
sg26
I9335249
sg17
S'85270.3448047'
p2317
sba(igraph
Edge
p2318
(dp2319
g7
I1
sg8
I00
sg9
I5
sg10
(lp2320
(igraph
Vertex
p2321
(dp2322
g14
F-244.03750122633238
sg15
F-220.13493459808876
sg16
I9335508
sg8
I00
sg17
S'85267.6051819'
p2323
sg19
g20
sba(igraph
Vertex
p2324
(dp2325
g14
F-244.03750122633238
sg15
F-177.23677967959514
sg16
I9335509
sg8
I00
sg17
S'85267.6066698'
p2326
sg19
g20
sbasg24
I00
sg25
I00
sg26
I9335251
sg17
S'85270.3758777'
p2327
sba(igraph
Edge
p2328
(dp2329
g7
I1
sg8
I00
sg9
I5
sg10
(lp2330
g2324
a(igraph
Vertex
p2331
(dp2332
g14
F-244.03750122633238
sg15
F-134.33862476110164
sg16
I9335510
sg8
I00
sg17
S'85267.6081284'
p2333
sg19
g20
sbasg24
I00
sg25
I00
sg26
I9335252
sg17
S'85270.3864058'
p2334
sba(igraph
Edge
p2335
(dp2336
g7
I1
sg8
I00
sg9
I5
sg10
(lp2337
(igraph
Vertex
p2338
(dp2339
g14
F-244.07903604536909
sg15
F-88.04546249016289
sg16
I9335511
sg8
I00
sg17
S'85267.6142756'
p2340
sg19
g20
sba(igraph
Vertex
p2341
(dp2342
g14
F-244.07903604536909
sg15
F-45.147307571669373
sg16
I9335512
sg8
I00
sg17
S'85267.6157755'
p2343
sg19
g20
sbasg24
I00
sg25
I00
sg26
I9335253
sg17
S'85270.4714515'
p2344
sba(igraph
Edge
p2345
(dp2346
g7
I1
sg8
I00
sg9
I5
sg10
(lp2347
g2341
a(igraph
Vertex
p2348
(dp2349
g14
F-244.07903604536909
sg15
F-2.2491526531758126
sg16
I9335513
sg8
I00
sg17
S'85267.6173064'
p2350
sg19
g20
sbasg24
I00
sg25
I00
sg26
I9335254
sg17
S'85270.4819381'
p2351
sba(igraph
Edge
p2352
(dp2353
g7
I1
sg8
I00
sg9
I5
sg10
(lp2354
g2331
ag2338
asg24
I00
sg25
I00
sg26
I9335255
sg17
S'85270.5671657'
p2355
sba(igraph
Edge
p2356
(dp2357
g7
I1
sg8
I00
sg9
I5
sg10
(lp2358
(igraph
Vertex
p2359
(dp2360
g14
F-244.18934105720462
sg15
F42.696984862282264
sg16
I9335514
sg8
I00
sg17
S'85267.6235424'
p2361
sg19
g20
sba(igraph
Vertex
p2362
(dp2363
g14
F-244.18934105720462
sg15
F85.595139780775824
sg16
I9335515
sg8
I00
sg17
S'85267.6258036'
p2364
sg19
g20
sbasg24
I00
sg25
I00
sg26
I9335256
sg17
S'85270.5994206'
p2365
sba(igraph
Edge
p2366
(dp2367
g7
I1
sg8
I00
sg9
I5
sg10
(lp2368
g2362
a(igraph
Vertex
p2369
(dp2370
g14
F-244.18934105720462
sg15
F128.49329469926931
sg16
I9335516
sg8
I00
sg17
S'85267.6274074'
p2371
sg19
g20
sbasg24
I00
sg25
I00
sg26
I9335257
sg17
S'85270.6100449'
p2372
sba(igraph
Edge
p2373
(dp2374
g7
I1
sg8
I00
sg9
I5
sg10
(lp2375
g2369
a(igraph
Vertex
p2376
(dp2377
g14
F-244.23087587624127
sg15
F174.78645697020812
sg16
I9335517
sg8
I00
sg17
S'85267.6306528'
p2378
sg19
I0
sbasg24
I00
sg25
I00
sg26
I9335258
sg17
S'85270.7076391'
p2379
sba(igraph
Edge
p2380
(dp2381
g7
I1
sg8
I00
sg9
I5
sg10
(lp2382
g2348
ag2359
asg24
I00
sg25
I00
sg26
I9335259
sg17
S'85270.7414347'
p2383
sba(igraph
Edge
p2384
(dp2385
g7
I1
sg8
I00
sg9
I5
sg10
(lp2386
g2376
a(igraph
Vertex
p2387
(dp2388
g14
F-241.38187514387113
sg15
F221.90371878021358
sg16
I9335519
sg8
I00
sg17
S'85267.6398464'
p2389
sg19
g20
sbasg24
I00
sg25
I00
sg26
I9335260
sg17
S'85270.7861907'
p2390
sba(igraph
Edge
p2391
(dp2392
g7
I1
sg8
I00
sg1659
I9335262
sg9
I5
sg10
(lp2393
g2321
ag2387
asg24
I01
sg25
I00
sg26
I9335261
sg17
S'85270.7975123'
p2394
sba(igraph
Edge
p2395
(dp2396
g7
I1
sg8
I00
sg9
I5
sg10
(lp2397
g2145
ag2321
asg24
I00
sg25
I00
sg26
I9335263
sg17
S'85270.8305665'
p2398
sba(igraph
Edge
p2399
(dp2400
g7
I1
sg8
I00
sg9
I5
sg10
(lp2401
g2145
ag2324
asg24
I00
sg25
I00
sg26
I9335264
sg17
S'85270.8419869'
p2402
sba(igraph
Edge
p2403
(dp2404
g7
I1
sg8
I00
sg9
I5
sg10
(lp2405
g2148
ag2324
asg24
I00
sg25
I00
sg26
I9335265
sg17
S'85270.8569857'
p2406
sba(igraph
Edge
p2407
(dp2408
g7
I1
sg8
I00
sg9
I5
sg10
(lp2409
g2148
ag2331
asg24
I00
sg25
I00
sg26
I9335266
sg17
S'85270.8685654'
p2410
sba(igraph
Edge
p2411
(dp2412
g7
I1
sg8
I00
sg9
I5
sg10
(lp2413
g2155
ag2331
asg24
I00
sg25
I00
sg26
I9335267
sg17
S'85270.8810039'
p2414
sba(igraph
Edge
p2415
(dp2416
g7
I1
sg8
I00
sg9
I5
sg10
(lp2417
g2155
ag2338
asg24
I00
sg25
I00
sg26
I9335268
sg17
S'85270.8930914'
p2418
sba(igraph
Edge
p2419
(dp2420
g7
I1
sg8
I00
sg9
I5
sg10
(lp2421
g2162
ag2338
asg24
I00
sg25
I00
sg26
I9335269
sg17
S'85270.9046164'
p2422
sba(igraph
Edge
p2423
(dp2424
g7
I1
sg8
I00
sg9
I5
sg10
(lp2425
g2162
ag2341
asg24
I00
sg25
I00
sg26
I9335270
sg17
S'85270.9160572'
p2426
sba(igraph
Edge
p2427
(dp2428
g7
I1
sg8
I00
sg9
I5
sg10
(lp2429
g2165
ag2341
asg24
I00
sg25
I00
sg26
I9335271
sg17
S'85270.9277224'
p2430
sba(igraph
Edge
p2431
(dp2432
g7
I1
sg8
I00
sg9
I5
sg10
(lp2433
g2165
ag2348
asg24
I00
sg25
I00
sg26
I9335272
sg17
S'85270.9390668'
p2434
sba(igraph
Edge
p2435
(dp2436
g7
I1
sg8
I00
sg9
I5
sg10
(lp2437
g2172
ag2348
asg24
I00
sg25
I00
sg26
I9335273
sg17
S'85270.9502579'
p2438
sba(igraph
Edge
p2439
(dp2440
g7
I1
sg8
I00
sg9
I5
sg10
(lp2441
g2172
ag2359
asg24
I00
sg25
I00
sg26
I9335274
sg17
S'85270.9619371'
p2442
sba(igraph
Edge
p2443
(dp2444
g7
I1
sg8
I00
sg9
I5
sg10
(lp2445
g2183
ag2359
asg24
I00
sg25
I00
sg26
I9335275
sg17
S'85270.9734997'
p2446
sba(igraph
Edge
p2447
(dp2448
g7
I1
sg8
I00
sg9
I5
sg10
(lp2449
g2183
ag2362
asg24
I00
sg25
I00
sg26
I9335276
sg17
S'85270.9848886'
p2450
sba(igraph
Edge
p2451
(dp2452
g7
I1
sg8
I00
sg9
I5
sg10
(lp2453
g2186
ag2362
asg24
I00
sg25
I00
sg26
I9335277
sg17
S'85270.9962093'
p2454
sba(igraph
Edge
p2455
(dp2456
g7
I1
sg8
I00
sg9
I5
sg10
(lp2457
g2186
ag2369
asg24
I00
sg25
I00
sg26
I9335278
sg17
S'85271.0079739'
p2458
sba(igraph
Edge
p2459
(dp2460
g7
I1
sg8
I00
sg9
I5
sg10
(lp2461
g2193
ag2369
asg24
I00
sg25
I00
sg26
I9335279
sg17
S'85271.0192002'
p2462
sba(igraph
Edge
p2463
(dp2464
g7
I1
sg8
I00
sg9
I5
sg10
(lp2465
g2193
ag2376
asg24
I00
sg25
I00
sg26
I9335280
sg17
S'85271.0307824'
p2466
sba(igraph
Edge
p2467
(dp2468
g7
I1
sg8
I00
sg9
I5
sg10
(lp2469
g2200
ag2376
asg24
I00
sg25
I00
sg26
I9335281
sg17
S'85271.0422559'
p2470
sba(igraph
Edge
p2471
(dp2472
g7
I1
sg8
I00
sg9
I5
sg10
(lp2473
g2200
ag2387
asg24
I00
sg25
I00
sg26
I9335282
sg17
S'85271.0540851'
p2474
sba(igraph
Edge
p2475
(dp2476
g7
I1
sg8
I00
sg1659
I9335284
sg9
I5
sg10
(lp2477
g2290
ag2321
asg24
I01
sg25
I00
sg26
I9335283
sg17
S'85271.0656583'
p2478
sba(igraph
Edge
p2479
(dp2480
g7
I1
sg8
I00
sg9
I5
sg10
(lp2481
g2290
ag2387
asg24
I00
sg25
I00
sg26
I9335285
sg17
S'85271.0772313'
p2482
sba(igraph
Edge
p2483
(dp2484
g7
I1
sg8
I00
sg9
I5
sg10
(lp2485
g1749
ag2079
asg24
I00
sg25
I00
sg26
I9335286
sg17
S'85271.0893926'
p2486
sba(igraph
Edge
p2487
(dp2488
g7
I1
sg8
I00
sg9
I5
sg10
(lp2489
g1749
ag2082
asg24
I00
sg25
I00
sg26
I9335287
sg17
S'85271.1010243'
p2490
sba(igraph
Edge
p2491
(dp2492
g7
I1
sg8
I00
sg9
I5
sg10
(lp2493
g1752
ag2082
asg24
I00
sg25
I00
sg26
I9335288
sg17
S'85271.1125646'
p2494
sba(igraph
Edge
p2495
(dp2496
g7
I1
sg8
I00
sg9
I5
sg10
(lp2497
g1752
ag2089
asg24
I00
sg25
I00
sg26
I9335289
sg17
S'85271.124175'
p2498
sba(igraph
Edge
p2499
(dp2500
g7
I1
sg8
I00
sg9
I5
sg10
(lp2501
g1759
ag2089
asg24
I00
sg25
I00
sg26
I9335290
sg17
S'85271.1362791'
p2502
sba(igraph
Edge
p2503
(dp2504
g7
I1
sg8
I00
sg9
I5
sg10
(lp2505
g1759
ag2096
asg24
I00
sg25
I00
sg26
I9335291
sg17
S'85271.1481504'
p2506
sba(igraph
Edge
p2507
(dp2508
g7
I1
sg8
I00
sg9
I5
sg10
(lp2509
g1803
ag2096
asg24
I00
sg25
I00
sg26
I9335292
sg17
S'85271.1597306'
p2510
sba(igraph
Edge
p2511
(dp2512
g7
I1
sg8
I00
sg9
I5
sg10
(lp2513
g1803
ag2099
asg24
I00
sg25
I00
sg26
I9335293
sg17
S'85271.1717461'
p2514
sba(igraph
Edge
p2515
(dp2516
g7
I1
sg8
I00
sg9
I5
sg10
(lp2517
g1806
ag2099
asg24
I00
sg25
I00
sg26
I9335294
sg17
S'85271.1835585'
p2518
sba(igraph
Edge
p2519
(dp2520
g7
I1
sg8
I00
sg9
I5
sg10
(lp2521
g1806
ag2106
asg24
I00
sg25
I00
sg26
I9335295
sg17
S'85271.1953522'
p2522
sba(igraph
Edge
p2523
(dp2524
g7
I1
sg8
I00
sg9
I5
sg10
(lp2525
g1813
ag2106
asg24
I00
sg25
I00
sg26
I9335296
sg17
S'85271.2070297'
p2526
sba(igraph
Edge
p2527
(dp2528
g7
I1
sg8
I00
sg9
I5
sg10
(lp2529
g1813
ag2117
asg24
I00
sg25
I00
sg26
I9335297
sg17
S'85271.2194134'
p2530
sba(igraph
Edge
p2531
(dp2532
g7
I1
sg8
I00
sg9
I5
sg10
(lp2533
g1869
ag2117
asg24
I00
sg25
I00
sg26
I9335298
sg17
S'85271.2312422'
p2534
sba(igraph
Edge
p2535
(dp2536
g7
I1
sg8
I00
sg9
I5
sg10
(lp2537
g1869
ag2120
asg24
I00
sg25
I00
sg26
I9335299
sg17
S'85271.243279'
p2538
sba(igraph
Edge
p2539
(dp2540
g7
I1
sg8
I00
sg9
I5
sg10
(lp2541
g1872
ag2120
asg24
I00
sg25
I00
sg26
I9335300
sg17
S'85271.2556755'
p2542
sba(igraph
Edge
p2543
(dp2544
g7
I1
sg8
I00
sg9
I5
sg10
(lp2545
g1872
ag2127
asg24
I00
sg25
I00
sg26
I9335301
sg17
S'85271.2675262'
p2546
sba(igraph
Edge
p2547
(dp2548
g7
I1
sg8
I00
sg9
I5
sg10
(lp2549
g1879
ag2127
asg24
I00
sg25
I00
sg26
I9335302
sg17
S'85271.279476'
p2550
sba(igraph
Edge
p2551
(dp2552
g7
I1
sg8
I00
sg9
I5
sg10
(lp2553
g1879
ag2134
asg24
I00
sg25
I00
sg26
I9335303
sg17
S'85271.2913868'
p2554
sba(igraph
Edge
p2555
(dp2556
g7
I1
sg8
I00
sg9
I5
sg10
(lp2557
g1923
ag2134
asg24
I00
sg25
I00
sg26
I9335304
sg17
S'85271.3040948'
p2558
sba(igraph
Edge
p2559
(dp2560
g7
I1
sg8
I00
sg9
I5
sg10
(lp2561
g1923
ag2287
asg24
I00
sg25
I00
sg26
I9335305
sg17
S'85271.3160983'
p2562
sba(igraph
Edge
p2563
(dp2564
g7
I1
sg8
I00
sg1659
I9335307
sg9
I5
sg10
(lp2565
g1957
ag2079
asg24
I01
sg25
I00
sg26
I9335306
sg17
S'85271.328204'
p2566
sba(igraph
Edge
p2567
(dp2568
g7
I1
sg8
I00
sg9
I5
sg10
(lp2569
g1957
ag2287
asg24
I00
sg25
I00
sg26
I9335308
sg17
S'85271.340814'
p2570
sba(igraph
Edge
p2571
(dp2572
g7
I1
sg8
I00
sg9
I5
sg10
(lp2573
g1419
ag2321
asg24
I00
sg25
I00
sg26
I9335309
sg17
S'85359.9244608'
p2574
sba(igraph
Edge
p2575
(dp2576
g7
I1
sg8
I00
sg9
I5
sg10
(lp2577
g1419
ag2324
asg24
I00
sg25
I00
sg26
I9335310
sg17
S'85359.9300062'
p2578
sba(igraph
Edge
p2579
(dp2580
g7
I1
sg8
I00
sg9
I5
sg10
(lp2581
g1426
ag2324
asg24
I00
sg25
I00
sg26
I9335311
sg17
S'85367.6091269'
p2582
sba(igraph
Edge
p2583
(dp2584
g7
I1
sg8
I00
sg9
I5
sg10
(lp2585
g1426
ag2331
asg24
I00
sg25
I00
sg26
I9335312
sg17
S'85367.6149262'
p2586
sba(igraph
Edge
p2587
(dp2588
g7
I1
sg8
I00
sg9
I5
sg10
(lp2589
g1433
ag2331
asg24
I00
sg25
I00
sg26
I9335313
sg17
S'85374.2964662'
p2590
sba(igraph
Edge
p2591
(dp2592
g7
I1
sg8
I00
sg9
I5
sg10
(lp2593
g1433
ag2338
asg24
I00
sg25
I00
sg26
I9335314
sg17
S'85374.3088535'
p2594
sba(igraph
Edge
p2595
(dp2596
g7
I1
sg8
I00
sg9
I5
sg10
(lp2597
g1436
ag2338
asg24
I00
sg25
I00
sg26
I9335315
sg17
S'85381.4280904'
p2598
sba(igraph
Edge
p2599
(dp2600
g7
I1
sg8
I00
sg9
I5
sg10
(lp2601
g1436
ag2341
asg24
I00
sg25
I00
sg26
I9335316
sg17
S'85381.4416824'
p2602
sba(igraph
Edge
p2603
(dp2604
g7
I1
sg8
I00
sg9
I5
sg10
(lp2605
g1443
ag2341
asg24
I00
sg25
I00
sg26
I9335317
sg17
S'85387.7454749'
p2606
sba(igraph
Edge
p2607
(dp2608
g7
I1
sg8
I00
sg9
I5
sg10
(lp2609
g1443
ag2348
asg24
I00
sg25
I00
sg26
I9335318
sg17
S'85387.7510913'
p2610
sba(igraph
Edge
p2611
(dp2612
g7
I1
sg8
I00
sg9
I5
sg10
(lp2613
g1454
ag2348
asg24
I00
sg25
I00
sg26
I9335319
sg17
S'85398.5938216'
p2614
sba(igraph
Edge
p2615
(dp2616
g7
I1
sg8
I00
sg9
I5
sg10
(lp2617
g1454
ag2359
asg24
I00
sg25
I00
sg26
I9335320
sg17
S'85398.6069875'
p2618
sba(igraph
Edge
p2619
(dp2620
g7
I1
sg8
I00
sg9
I5
sg10
(lp2621
g1457
ag2359
asg24
I00
sg25
I00
sg26
I9335321
sg17
S'85405.1503429'
p2622
sba(igraph
Edge
p2623
(dp2624
g7
I1
sg8
I00
sg9
I5
sg10
(lp2625
g1457
ag2362
asg24
I00
sg25
I00
sg26
I9335322
sg17
S'85405.1627469'
p2626
sba(igraph
Edge
p2627
(dp2628
g7
I1
sg8
I00
sg9
I5
sg10
(lp2629
g1464
ag2362
asg24
I00
sg25
I00
sg26
I9335323
sg17
S'85413.2866172'
p2630
sba(igraph
Edge
p2631
(dp2632
g7
I1
sg8
I00
sg9
I5
sg10
(lp2633
g1464
ag2369
asg24
I00
sg25
I00
sg26
I9335324
sg17
S'85413.2924011'
p2634
sba(igraph
Edge
p2635
(dp2636
g7
I1
sg8
I00
sg9
I5
sg10
(lp2637
g1471
ag2369
asg24
I00
sg25
I00
sg26
I9335325
sg17
S'85420.2793274'
p2638
sba(igraph
Edge
p2639
(dp2640
g7
I1
sg8
I00
sg9
I5
sg10
(lp2641
g1471
ag2376
asg24
I00
sg25
I00
sg26
I9335326
sg17
S'85420.2920768'
p2642
sba(igraph
Edge
p2643
(dp2644
g7
I1
sg8
I00
sg9
I5
sg10
(lp2645
g1561
ag2376
asg24
I00
sg25
I00
sg26
I9335327
sg17
S'85428.1553069'
p2646
sba(igraph
Edge
p2647
(dp2648
g7
I1
sg8
I00
sg9
I5
sg10
(lp2649
g1561
ag2387
asg24
I00
sg25
I00
sg26
I9335328
sg17
S'85428.1677601'
p2650
sba(igraph
Edge
p2651
(dp2652
g7
I1
sg8
I00
sg9
I5
sg10
(lp2653
g1416
ag2321
asg24
I00
sg25
I00
sg26
I9335329
sg17
S'85436.2692672'
p2654
sba(igraph
Edge
p2655
(dp2656
g7
I1
sg8
I00
sg9
I5
sg10
(lp2657
g1416
ag2387
asg24
I00
sg25
I00
sg26
I9335330
sg17
S'85436.281916'
p2658
sbasS'vertices'
p2659
(lp2660
g12
ag21
ag31
ag38
ag41
ag48
ag55
ag58
ag65
ag112
ag115
ag122
ag129
ag132
ag139
ag146
ag149
ag156
ag223
ag226
ag233
ag240
ag243
ag250
ag257
ag260
ag267
ag314
ag317
ag324
ag371
ag374
ag381
ag388
ag391
ag398
ag409
ag412
ag419
ag426
ag513
ag516
ag523
ag530
ag533
ag540
ag551
ag554
ag561
ag568
ag655
ag658
ag665
ag672
ag675
ag682
ag693
ag696
ag703
ag710
ag797
ag800
ag807
ag814
ag817
ag824
ag835
ag838
ag845
ag852
ag939
ag942
ag949
ag956
ag959
ag966
ag977
ag980
ag987
ag994
ag1081
ag1084
ag1091
ag1098
ag1101
ag1108
ag1119
ag1122
ag1129
ag1136
ag1223
ag1226
ag1233
ag1240
ag1247
ag1254
ag1261
ag1268
ag1275
ag1350
ag1353
ag1360
ag1367
ag1370
ag1377
ag1388
ag1391
ag1398
ag1405
ag1416
ag1419
ag1426
ag1433
ag1436
ag1443
ag1454
ag1457
ag1464
ag1471
ag1558
ag1561
ag1749
ag1752
ag1759
ag1766
ag1769
ag1776
ag1803
ag1806
ag1813
ag1820
ag1823
ag1830
ag1869
ag1872
ag1879
ag1886
ag1889
ag1896
ag1923
ag1926
ag1957
ag1960
ag2079
ag2082
ag2089
ag2096
ag2099
ag2106
ag2117
ag2120
ag2127
ag2134
ag2145
ag2148
ag2155
ag2162
ag2165
ag2172
ag2183
ag2186
ag2193
ag2200
ag2287
ag2290
ag2321
ag2324
ag2331
ag2338
ag2341
ag2348
ag2359
ag2362
ag2369
ag2376
ag2387
asS'tags'
p2661
(lp2662
sb.