(igraph
Graph
p0
(dp1
S'labelingConstraints'
p2
I-1
sS'edges'
p3
(lp4
(igraph
Edge
p5
(dp6
S'direction'
p7
I1
sS'selected'
p8
I00
sS'height'
p9
I5
sS'vs'
p10
(lp11
(igraph
Vertex
p12
(dp13
S'y'
p14
F-9.4572271838862605
sS'x'
p15
F-162.68957117481725
sS'circle'
p16
I11573676
sg8
I00
sS'id'
p17
S'101363.264905'
p18
sS'label'
p19
S'NULL'
p20
sba(igraph
Vertex
p21
(dp22
g14
F-9.4572271838862605
sg15
F-119.79141625632374
sg16
I11573677
sg8
I00
sg17
S'101363.264941'
p23
sg19
g20
sbasS'wrap'
p24
I00
sS'curved'
p25
I00
sS'line'
p26
I11573028
sg17
S'101363.631331'
p27
sba(igraph
Edge
p28
(dp29
g7
I1
sg8
I00
sg9
I5
sg10
(lp30
(igraph
Vertex
p31
(dp32
g14
F25.728272741961291
sg15
F-162.68957117481725
sg16
I11573678
sg8
I00
sg17
S'101363.264974'
p33
sg19
g20
sba(igraph
Vertex
p34
(dp35
g14
F25.728272741961291
sg15
F-119.79141625632374
sg16
I11573679
sg8
I00
sg17
S'101363.265011'
p36
sg19
g20
sbasg24
I00
sg25
I00
sg26
I11573029
sg17
S'101363.631478'
p37
sba(igraph
Edge
p38
(dp39
g7
I1
sg8
I00
sg9
I5
sg10
(lp40
(igraph
Vertex
p41
(dp42
g14
F60.913772667808928
sg15
F-162.68957117481725
sg16
I11573680
sg8
I00
sg17
S'101363.265065'
p43
sg19
g20
sba(igraph
Vertex
p44
(dp45
g14
F60.913772667808928
sg15
F-119.79141625632374
sg16
I11573681
sg8
I00
sg17
S'101363.265126'
p46
sg19
g20
sbasg24
I00
sg25
I00
sg26
I11573030
sg17
S'101363.631599'
p47
sba(igraph
Edge
p48
(dp49
g7
I1
sg8
I00
sg9
I5
sg10
(lp50
g12
ag31
asg24
I00
sg25
I00
sg26
I11573031
sg17
S'101363.631899'
p51
sba(igraph
Edge
p52
(dp53
g7
I1
sg8
I00
sg9
I5
sg10
(lp54
g21
ag34
asg24
I00
sg25
I00
sg26
I11573032
sg17
S'101363.632084'
p55
sba(igraph
Edge
p56
(dp57
g7
I1
sg8
I00
sg9
I5
sg10
(lp58
g31
ag41
asg24
I00
sg25
I00
sg26
I11573033
sg17
S'101363.632288'
p59
sba(igraph
Edge
p60
(dp61
g7
I1
sg8
I00
sg9
I5
sg10
(lp62
g34
ag44
asg24
I00
sg25
I00
sg26
I11573034
sg17
S'101363.632535'
p63
sba(igraph
Edge
p64
(dp65
g7
I1
sg8
I00
sg9
I5
sg10
(lp66
g21
ag31
asg24
I00
sg25
I00
sg26
I11573035
sg17
S'101363.632796'
p67
sba(igraph
Edge
p68
(dp69
g7
I1
sg8
I00
sg9
I5
sg10
(lp70
g34
ag41
asg24
I00
sg25
I00
sg26
I11573036
sg17
S'101363.633098'
p71
sba(igraph
Edge
p72
(dp73
g7
I1
sg8
I00
sg9
I5
sg10
(lp74
(igraph
Vertex
p75
(dp76
g14
F-9.4960823371786773
sg15
F-73.498253985384991
sg16
I11573682
sg8
I00
sg17
S'101363.265196'
p77
sg19
g20
sba(igraph
Vertex
p78
(dp79
g14
F-9.4960823371786773
sg15
F-30.600099066891488
sg16
I11573683
sg8
I00
sg17
S'101363.265283'
p80
sg19
g20
sbasg24
I00
sg25
I00
sg26
I11573037
sg17
S'101363.633427'
p81
sba(igraph
Edge
p82
(dp83
g7
I1
sg8
I00
sg9
I5
sg10
(lp84
g78
a(igraph
Vertex
p85
(dp86
g14
F-9.4960823371786773
sg15
F12.298055851602072
sg16
I11573684
sg8
I00
sg17
S'101363.265377'
p87
sg19
I0
sbasg24
I00
sg25
I00
sg26
I11573038
sg17
S'101363.63407'
p88
sba(igraph
Edge
p89
(dp90
g7
I1
sg8
I00
sg9
I5
sg10
(lp91
(igraph
Vertex
p92
(dp93
g14
F25.689417588668903
sg15
F-73.498253985384991
sg16
I11573686
sg8
I00
sg17
S'101363.265481'
p94
sg19
I0
sba(igraph
Vertex
p95
(dp96
g14
F25.689417588668903
sg15
F-30.600099066891488
sg16
I11573688
sg8
I00
sg17
S'101363.265605'
p97
sg19
g20
sbasg24
I00
sg25
I00
sg26
I11573039
sg17
S'101363.634471'
p98
sba(igraph
Edge
p99
(dp100
g7
I1
sg8
I00
sg9
I5
sg10
(lp101
g95
a(igraph
Vertex
p102
(dp103
g14
F25.689417588668903
sg15
F12.298055851602072
sg16
I11573689
sg8
I00
sg17
S'101363.265735'
p104
sg19
g20
sbasg24
I00
sg25
I00
sg26
I11573040
sg17
S'101363.634887'
p105
sba(igraph
Edge
p106
(dp107
g7
I1
sg8
I00
sg9
I5
sg10
(lp108
(igraph
Vertex
p109
(dp110
g14
F60.87491751451654
sg15
F-73.498253985384991
sg16
I11573690
sg8
I00
sg17
S'101363.265881'
p111
sg19
g20
sba(igraph
Vertex
p112
(dp113
g14
F60.87491751451654
sg15
F-30.600099066891488
sg16
I11573691
sg8
I00
sg17
S'101363.266036'
p114
sg19
g20
sbasg24
I00
sg25
I00
sg26
I11573041
sg17
S'101363.635332'
p115
sba(igraph
Edge
p116
(dp117
g7
I1
sg8
I00
sg9
I5
sg10
(lp118
g112
a(igraph
Vertex
p119
(dp120
g14
F60.87491751451654
sg15
F12.298055851602072
sg16
I11573692
sg8
I00
sg17
S'101363.266198'
p121
sg19
g20
sbasg24
I00
sg25
I00
sg26
I11573042
sg17
S'101363.635833'
p122
sba(igraph
Edge
p123
(dp124
g7
I1
sg8
I00
sg9
I5
sg10
(lp125
g75
ag92
asg24
I00
sg25
I00
sg26
I11573043
sg17
S'101363.636355'
p126
sba(igraph
Edge
p127
(dp128
g7
I1
sg8
I00
sg9
I5
sg10
(lp129
g78
ag95
asg24
I00
sg25
I00
sg26
I11573044
sg17
S'101363.636903'
p130
sba(igraph
Edge
p131
(dp132
g7
I1
sg8
I00
sg9
I5
sg10
(lp133
g92
ag109
asg24
I00
sg25
I00
sg26
I11573045
sg17
S'101363.637477'
p134
sba(igraph
Edge
p135
(dp136
g7
I1
sg8
I00
sg9
I5
sg10
(lp137
g95
ag112
asg24
I00
sg25
I00
sg26
I11573046
sg17
S'101363.638103'
p138
sba(igraph
Edge
p139
(dp140
g7
I1
sg8
I00
sg9
I5
sg10
(lp141
g102
ag119
asg24
I00
sg25
I00
sg26
I11573047
sg17
S'101363.638852'
p142
sba(igraph
Edge
p143
(dp144
g7
I1
sg8
I00
sg9
I5
sg10
(lp145
g78
ag92
asg24
I00
sg25
I00
sg26
I11573048
sg17
S'101363.639523'
p146
sba(igraph
Edge
p147
(dp148
g7
I1
sg8
I00
sg9
I5
sg10
(lp149
g95
ag109
asg24
I00
sg25
I00
sg26
I11573049
sg17
S'101363.640279'
p150
sba(igraph
Edge
p151
(dp152
g7
I1
sg8
I00
sg9
I5
sg10
(lp153
g85
ag95
asg24
I00
sg25
I00
sg26
I11573050
sg17
S'101363.641108'
p154
sba(igraph
Edge
p155
(dp156
g7
I1
sg8
I00
sg9
I5
sg10
(lp157
g102
ag112
asg24
I00
sg25
I00
sg26
I11573051
sg17
S'101363.64195'
p158
sba(igraph
Edge
p159
(dp160
g7
I1
sg8
I00
sg9
I5
sg10
(lp161
g21
ag75
asg24
I00
sg25
I00
sg26
I11573052
sg17
S'101363.642974'
p162
sba(igraph
Edge
p163
(dp164
g7
I1
sg8
I00
sg9
I5
sg10
(lp165
g34
ag75
asg24
I00
sg25
I00
sg26
I11573053
sg17
S'101363.644353'
p166
sba(igraph
Edge
p167
(dp168
g7
I1
sg8
I00
sg9
I5
sg10
(lp169
g34
ag92
asg24
I00
sg25
I00
sg26
I11573054
sg17
S'101363.645229'
p170
sba(igraph
Edge
p171
(dp172
g7
I1
sg8
I00
sg9
I5
sg10
(lp173
g44
ag92
asg24
I00
sg25
I00
sg26
I11573055
sg17
S'101363.646112'
p174
sba(igraph
Edge
p175
(dp176
g7
I1
sg8
I00
sg9
I5
sg10
(lp177
g44
ag109
asg24
I00
sg25
I00
sg26
I11573056
sg17
S'101363.647153'
p178
sba(igraph
Edge
p179
(dp180
g7
I1
sg8
I00
sg9
I5
sg10
(lp181
(igraph
Vertex
p182
(dp183
g14
F-9.5992708966376483
sg15
F57.244193367060149
sg16
I11573693
sg8
I00
sg17
S'101363.266368'
p184
sg19
g20
sba(igraph
Vertex
p185
(dp186
g14
F-9.5992708966376483
sg15
F100.14234828555371
sg16
I11573694
sg8
I00
sg17
S'101363.266556'
p187
sg19
g20
sbasg24
I00
sg25
I00
sg26
I11573057
sg17
S'101363.648108'
p188
sba(igraph
Edge
p189
(dp190
g7
I1
sg8
I00
sg9
I5
sg10
(lp191
g185
a(igraph
Vertex
p192
(dp193
g14
F-9.5992708966376483
sg15
F143.04050320404721
sg16
I11573695
sg8
I00
sg17
S'101363.266793'
p194
sg19
g20
sbasg24
I00
sg25
I00
sg26
I11573058
sg17
S'101363.649115'
p195
sba(igraph
Edge
p196
(dp197
g7
I1
sg8
I00
sg9
I5
sg10
(lp198
(igraph
Vertex
p199
(dp200
g14
F25.586229029209903
sg15
F57.244193367060149
sg16
I11573696
sg8
I00
sg17
S'101363.26725'
p201
sg19
g20
sba(igraph
Vertex
p202
(dp203
g14
F25.586229029209903
sg15
F100.14234828555371
sg16
I11573697
sg8
I00
sg17
S'101363.267937'
p204
sg19
g20
sbasg24
I00
sg25
I00
sg26
I11573059
sg17
S'101363.650127'
p205
sba(igraph
Edge
p206
(dp207
g7
I1
sg8
I00
sg9
I5
sg10
(lp208
g202
a(igraph
Vertex
p209
(dp210
g14
F24.956231645201115
sg15
F140.7148753850478
sg16
I11573698
sg8
I00
sg17
S'101363.268295'
p211
sg19
g20
sbasg24
I00
sg25
I00
sg26
I11573060
sg17
S'101363.651203'
p212
sba(igraph
Edge
p213
(dp214
g7
I1
sg8
I00
sg9
I5
sg10
(lp215
(igraph
Vertex
p216
(dp217
g14
F60.771728955057597
sg15
F57.244193367060149
sg16
I11573699
sg8
I00
sg17
S'101363.268609'
p218
sg19
g20
sba(igraph
Vertex
p219
(dp220
g14
F60.771728955057597
sg15
F100.14234828555371
sg16
I11573700
sg8
I00
sg17
S'101363.268881'
p221
sg19
g20
sbasg24
I00
sg25
I00
sg26
I11573061
sg17
S'101363.65236'
p222
sba(igraph
Edge
p223
(dp224
g7
I1
sg8
I00
sg9
I5
sg10
(lp225
g219
a(igraph
Vertex
p226
(dp227
g14
F60.771728955057597
sg15
F143.04050320404721
sg16
I11573701
sg8
I00
sg17
S'101363.269148'
p228
sg19
g20
sbasg24
I00
sg25
I00
sg26
I11573062
sg17
S'101363.653452'
p229
sba(igraph
Edge
p230
(dp231
g7
I1
sg8
I00
sg9
I5
sg10
(lp232
g182
ag199
asg24
I00
sg25
I00
sg26
I11573063
sg17
S'101363.654631'
p233
sba(igraph
Edge
p234
(dp235
g7
I1
sg8
I00
sg9
I5
sg10
(lp236
g185
ag202
asg24
I00
sg25
I00
sg26
I11573064
sg17
S'101363.655802'
p237
sba(igraph
Edge
p238
(dp239
g7
I1
sg8
I00
sg9
I5
sg10
(lp240
g192
ag209
asg24
I00
sg25
I00
sg26
I11573065
sg17
S'101363.657062'
p241
sba(igraph
Edge
p242
(dp243
g7
I1
sg8
I00
sg9
I5
sg10
(lp244
g199
ag216
asg24
I00
sg25
I00
sg26
I11573066
sg17
S'101363.658405'
p245
sba(igraph
Edge
p246
(dp247
g7
I1
sg8
I00
sg9
I5
sg10
(lp248
g202
ag219
asg24
I00
sg25
I00
sg26
I11573067
sg17
S'101363.659799'
p249
sba(igraph
Edge
p250
(dp251
g7
I1
sg8
I00
sg9
I5
sg10
(lp252
g209
ag226
asg24
I00
sg25
I00
sg26
I11573068
sg17
S'101363.661116'
p253
sba(igraph
Edge
p254
(dp255
g7
I1
sg8
I00
sg9
I5
sg10
(lp256
g185
ag199
asg24
I00
sg25
I00
sg26
I11573069
sg17
S'101363.662472'
p257
sba(igraph
Edge
p258
(dp259
g7
I1
sg8
I00
sg9
I5
sg10
(lp260
g202
ag216
asg24
I00
sg25
I00
sg26
I11573070
sg17
S'101363.664079'
p261
sba(igraph
Edge
p262
(dp263
g7
I1
sg8
I00
sg9
I5
sg10
(lp264
g192
ag202
asg24
I00
sg25
I00
sg26
I11573071
sg17
S'101363.665471'
p265
sba(igraph
Edge
p266
(dp267
g7
I1
sg8
I00
sg9
I5
sg10
(lp268
g209
ag219
asg24
I00
sg25
I00
sg26
I11573072
sg17
S'101363.667314'
p269
sba(igraph
Edge
p270
(dp271
g7
I1
sg8
I00
sg9
I5
sg10
(lp272
(igraph
Vertex
p273
(dp274
g14
F-9.6381260499300083
sg15
F189.33366547498602
sg16
I11573702
sg8
I00
sg17
S'101363.269432'
p275
sg19
g20
sba(igraph
Vertex
p276
(dp277
g14
F25.547373875917572
sg15
F189.33366547498602
sg16
I11573703
sg8
I00
sg17
S'101363.269745'
p278
sg19
g20
sbasg24
I00
sg25
I00
sg26
I11573073
sg17
S'101363.668786'
p279
sba(igraph
Edge
p280
(dp281
g7
I1
sg8
I00
sg9
I5
sg10
(lp282
g276
a(igraph
Vertex
p283
(dp284
g14
F60.732873801765209
sg15
F189.33366547498602
sg16
I11573704
sg8
I00
sg17
S'101363.270058'
p285
sg19
g20
sbasg24
I00
sg25
I00
sg26
I11573074
sg17
S'101363.670301'
p286
sba(igraph
Edge
p287
(dp288
g7
I1
sg8
I00
sg9
I5
sg10
(lp289
g192
ag273
asg24
I00
sg25
I00
sg26
I11573075
sg17
S'101363.671859'
p290
sba(igraph
Edge
p291
(dp292
g7
I1
sg8
I00
sg9
I5
sg10
(lp293
g209
ag273
asg24
I00
sg25
I00
sg26
I11573076
sg17
S'101363.673391'
p294
sba(igraph
Edge
p295
(dp296
g7
I1
sg8
I00
sg9
I5
sg10
(lp297
g209
ag276
asg24
I00
sg25
I00
sg26
I11573077
sg17
S'101363.675077'
p298
sba(igraph
Edge
p299
(dp300
g7
I1
sg8
I00
sg9
I5
sg10
(lp301
g226
ag276
asg24
I00
sg25
I00
sg26
I11573078
sg17
S'101363.676775'
p302
sba(igraph
Edge
p303
(dp304
g7
I1
sg8
I00
sg9
I5
sg10
(lp305
g226
ag283
asg24
I00
sg25
I00
sg26
I11573079
sg17
S'101363.678408'
p306
sba(igraph
Edge
p307
(dp308
g7
I1
sg8
I00
sg9
I5
sg10
(lp309
g85
ag182
asg24
I00
sg25
I00
sg26
I11573080
sg17
S'101363.680125'
p310
sba(igraph
Edge
p311
(dp312
g7
I1
sg8
I00
sg9
I5
sg10
(lp313
g102
ag182
asg24
I00
sg25
I00
sg26
I11573081
sg17
S'101363.681827'
p314
sba(igraph
Edge
p315
(dp316
g7
I1
sg8
I00
sg9
I5
sg10
(lp317
g102
ag199
asg24
I00
sg25
I00
sg26
I11573082
sg17
S'101363.683638'
p318
sba(igraph
Edge
p319
(dp320
g7
I1
sg8
I00
sg9
I5
sg10
(lp321
g119
ag199
asg24
I00
sg25
I00
sg26
I11573083
sg17
S'101363.685453'
p322
sba(igraph
Edge
p323
(dp324
g7
I1
sg8
I00
sg9
I5
sg10
(lp325
g119
ag216
asg24
I00
sg25
I00
sg26
I11573084
sg17
S'101363.687624'
p326
sba(igraph
Edge
p327
(dp328
g7
I1
sg8
I00
sg9
I5
sg10
(lp329
(igraph
Vertex
p330
(dp331
g14
F-40.975110041082957
sg15
F-162.16286648679025
sg16
I11573705
sg8
I00
sg17
S'101363.270439'
p332
sg19
g20
sba(igraph
Vertex
p333
(dp334
g14
F-40.975110041082957
sg15
F-119.26471156829675
sg16
I11573706
sg8
I00
sg17
S'101363.270777'
p335
sg19
g20
sbasg24
I00
sg25
I00
sg26
I11573085
sg17
S'101363.689715'
p336
sba(igraph
Edge
p337
(dp338
g7
I1
sg8
I00
sg9
I5
sg10
(lp339
(igraph
Vertex
p340
(dp341
g14
F-41.013965194375345
sg15
F-72.971549297357996
sg16
I11573707
sg8
I00
sg17
S'101363.271123'
p342
sg19
g20
sba(igraph
Vertex
p343
(dp344
g14
F-41.013965194375345
sg15
F-30.073394378864492
sg16
I11573708
sg8
I00
sg17
S'101363.271538'
p345
sg19
I0
sbasg24
I00
sg25
I00
sg26
I11573086
sg17
S'101363.691604'
p346
sba(igraph
Edge
p347
(dp348
g7
I1
sg8
I00
sg9
I5
sg10
(lp349
g343
a(igraph
Vertex
p350
(dp351
g14
F-41.013965194375345
sg15
F12.824760539629068
sg16
I11573710
sg8
I00
sg17
S'101363.271914'
p352
sg19
g20
sbasg24
I00
sg25
I00
sg26
I11573087
sg17
S'101363.69349'
p353
sba(igraph
Edge
p354
(dp355
g7
I1
sg8
I00
sg9
I5
sg10
(lp356
g333
ag340
asg24
I00
sg25
I00
sg26
I11573088
sg17
S'101363.695437'
p357
sba(igraph
Edge
p358
(dp359
g7
I1
sg8
I00
sg9
I5
sg10
(lp360
(igraph
Vertex
p361
(dp362
g14
F-41.117153753834401
sg15
F57.770898055087144
sg16
I11573711
sg8
I00
sg17
S'101363.272296'
p363
sg19
g20
sba(igraph
Vertex
p364
(dp365
g14
F-41.117153753834401
sg15
F100.66905297358065
sg16
I11573712
sg8
I00
sg17
S'101363.272802'
p366
sg19
g20
sbasg24
I00
sg25
I00
sg26
I11573089
sg17
S'101363.698077'
p367
sba(igraph
Edge
p368
(dp369
g7
I1
sg8
I00
sg9
I5
sg10
(lp370
g364
a(igraph
Vertex
p371
(dp372
g14
F-41.117153753834401
sg15
F143.56720789207421
sg16
I11573713
sg8
I00
sg17
S'101363.273213'
p373
sg19
g20
sbasg24
I00
sg25
I00
sg26
I11573090
sg17
S'101363.700587'
p374
sba(igraph
Edge
p375
(dp376
g7
I1
sg8
I00
sg9
I5
sg10
(lp377
g371
a(igraph
Vertex
p378
(dp379
g14
F-41.156008907126733
sg15
F189.86037016301302
sg16
I11573714
sg8
I00
sg17
S'101363.273671'
p380
sg19
g20
sbasg24
I00
sg25
I00
sg26
I11573091
sg17
S'101363.702732'
p381
sba(igraph
Edge
p382
(dp383
g7
I1
sg8
I00
sg9
I5
sg10
(lp384
g350
ag361
asg24
I00
sg25
I00
sg26
I11573092
sg17
S'101363.705009'
p385
sba(igraph
Edge
p386
(dp387
g7
I1
sg8
I00
sg9
I5
sg10
(lp388
g12
ag330
asg24
I00
sg25
I00
sg26
I11573093
sg17
S'101363.707349'
p389
sba(igraph
Edge
p390
(dp391
g7
I1
sg8
I00
sg9
I5
sg10
(lp392
g12
ag333
asg24
I00
sg25
I00
sg26
I11573094
sg17
S'101363.709703'
p393
sba(igraph
Edge
p394
(dp395
g7
I1
sg8
I00
sg9
I5
sg10
(lp396
g21
ag333
asg24
I00
sg25
I00
sg26
I11573095
sg17
S'101363.712082'
p397
sba(igraph
Edge
p398
(dp399
g7
I1
sg8
I00
sg9
I5
sg10
(lp400
g21
ag340
asg24
I00
sg25
I00
sg26
I11573096
sg17
S'101363.714603'
p401
sba(igraph
Edge
p402
(dp403
g7
I1
sg8
I00
sg9
I5
sg10
(lp404
g75
ag340
asg24
I00
sg25
I00
sg26
I11573097
sg17
S'101363.716902'
p405
sba(igraph
Edge
p406
(dp407
g7
I1
sg8
I00
sg9
I5
sg10
(lp408
g75
ag343
asg24
I00
sg25
I00
sg26
I11573098
sg17
S'101363.719149'
p409
sba(igraph
Edge
p410
(dp411
g7
I1
sg8
I00
sg9
I5
sg10
(lp412
g78
ag343
asg24
I00
sg25
I00
sg26
I11573099
sg17
S'101363.723311'
p413
sba(igraph
Edge
p414
(dp415
g7
I1
sg8
I00
sg9
I5
sg10
(lp416
g78
ag350
asg24
I00
sg25
I00
sg26
I11573100
sg17
S'101363.725706'
p417
sba(igraph
Edge
p418
(dp419
g7
I1
sg8
I00
sg9
I5
sg10
(lp420
g85
ag350
asg24
I00
sg25
I00
sg26
I11573101
sg17
S'101363.728844'
p421
sba(igraph
Edge
p422
(dp423
g7
I1
sg8
I00
sg9
I5
sg10
(lp424
g85
ag361
asg24
I00
sg25
I00
sg26
I11573102
sg17
S'101363.731275'
p425
sba(igraph
Edge
p426
(dp427
g7
I1
sg8
I00
sg9
I5
sg10
(lp428
g182
ag361
asg24
I00
sg25
I00
sg26
I11573103
sg17
S'101363.733783'
p429
sba(igraph
Edge
p430
(dp431
g7
I1
sg8
I00
sg9
I5
sg10
(lp432
g182
ag364
asg24
I00
sg25
I00
sg26
I11573104
sg17
S'101363.736466'
p433
sba(igraph
Edge
p434
(dp435
g7
I1
sg8
I00
sg9
I5
sg10
(lp436
g185
ag364
asg24
I00
sg25
I00
sg26
I11573105
sg17
S'101363.739211'
p437
sba(igraph
Edge
p438
(dp439
g7
I1
sg8
I00
sg9
I5
sg10
(lp440
g185
ag371
asg24
I00
sg25
I00
sg26
I11573106
sg17
S'101363.742458'
p441
sba(igraph
Edge
p442
(dp443
g7
I1
sg8
I00
sg9
I5
sg10
(lp444
g192
ag371
asg24
I00
sg25
I00
sg26
I11573107
sg17
S'101363.745169'
p445
sba(igraph
Edge
p446
(dp447
g7
I1
sg8
I00
sg9
I5
sg10
(lp448
g192
ag378
asg24
I00
sg25
I00
sg26
I11573108
sg17
S'101363.747819'
p449
sba(igraph
Edge
p450
(dp451
g7
I1
sg8
I00
sg9
I5
sg10
(lp452
g273
ag378
asg24
I00
sg25
I00
sg26
I11573109
sg17
S'101363.750486'
p453
sba(igraph
Edge
p454
(dp455
g7
I1
sg8
I00
sg9
I5
sg10
(lp456
(igraph
Vertex
p457
(dp458
g14
F94.504446624130424
sg15
F-162.69535255761659
sg16
I11573715
sg8
I00
sg17
S'101363.274109'
p459
sg19
g20
sba(igraph
Vertex
p460
(dp461
g14
F94.504446624130424
sg15
F-119.79719763912308
sg16
I11573716
sg8
I00
sg17
S'101363.274608'
p462
sg19
I0
sbasg24
I00
sg25
I00
sg26
I11573110
sg17
S'101363.754166'
p463
sba(igraph
Edge
p464
(dp465
g7
I1
sg8
I00
sg9
I5
sg10
(lp466
(igraph
Vertex
p467
(dp468
g14
F94.459992256608075
sg15
F-73.504035368184333
sg16
I11573718
sg8
I00
sg17
S'101363.275058'
p469
sg19
g20
sba(igraph
Vertex
p470
(dp471
g14
F94.459992256608075
sg15
F-30.605880449690773
sg16
I11573719
sg8
I00
sg17
S'101363.275527'
p472
sg19
g20
sbasg24
I00
sg25
I00
sg26
I11573111
sg17
S'101363.756952'
p473
sba(igraph
Edge
p474
(dp475
g7
I1
sg8
I00
sg9
I5
sg10
(lp476
g470
a(igraph
Vertex
p477
(dp478
g14
F94.459992256608075
sg15
F12.292274468802731
sg16
I11573720
sg8
I00
sg17
S'101363.276003'
p479
sg19
g20
sbasg24
I00
sg25
I00
sg26
I11573112
sg17
S'101363.759751'
p480
sba(igraph
Edge
p481
(dp482
g7
I1
sg8
I00
sg9
I5
sg10
(lp483
g460
ag467
asg24
I00
sg25
I00
sg26
I11573113
sg17
S'101363.763084'
p484
sba(igraph
Edge
p485
(dp486
g7
I1
sg8
I00
sg9
I5
sg10
(lp487
(igraph
Vertex
p488
(dp489
g14
F94.341933730065421
sg15
F57.238411984260807
sg16
I11573721
sg8
I00
sg17
S'101363.2766'
p490
sg19
g20
sba(igraph
Vertex
p491
(dp492
g14
F94.341933730065421
sg15
F100.13656690275437
sg16
I11573722
sg8
I00
sg17
S'101363.277111'
p493
sg19
g20
sbasg24
I00
sg25
I00
sg26
I11573114
sg17
S'101363.766118'
p494
sba(igraph
Edge
p495
(dp496
g7
I1
sg8
I00
sg9
I5
sg10
(lp497
g491
a(igraph
Vertex
p498
(dp499
g14
F94.341933730065421
sg15
F143.03472182124787
sg16
I11573723
sg8
I00
sg17
S'101363.277626'
p500
sg19
g20
sbasg24
I00
sg25
I00
sg26
I11573115
sg17
S'101363.769046'
p501
sba(igraph
Edge
p502
(dp503
g7
I1
sg8
I00
sg9
I5
sg10
(lp504
g498
a(igraph
Vertex
p505
(dp506
g14
F94.297479362543186
sg15
F189.32788409218668
sg16
I11573724
sg8
I00
sg17
S'101363.278152'
p507
sg19
g20
sbasg24
I00
sg25
I00
sg26
I11573116
sg17
S'101363.772078'
p508
sba(igraph
Edge
p509
(dp510
g7
I1
sg8
I00
sg9
I5
sg10
(lp511
g477
ag488
asg24
I00
sg25
I00
sg26
I11573117
sg17
S'101363.774986'
p512
sba(igraph
Edge
p513
(dp514
g7
I1
sg8
I00
sg9
I5
sg10
(lp515
g41
ag457
asg24
I00
sg25
I00
sg26
I11573118
sg17
S'101363.778524'
p516
sba(igraph
Edge
p517
(dp518
g7
I1
sg8
I00
sg9
I5
sg10
(lp519
g44
ag457
asg24
I00
sg25
I00
sg26
I11573119
sg17
S'101363.781541'
p520
sba(igraph
Edge
p521
(dp522
g7
I1
sg8
I00
sg9
I5
sg10
(lp523
g44
ag460
asg24
I00
sg25
I00
sg26
I11573120
sg17
S'101363.784963'
p524
sba(igraph
Edge
p525
(dp526
g7
I1
sg8
I00
sg9
I5
sg10
(lp527
g109
ag460
asg24
I00
sg25
I00
sg26
I11573121
sg17
S'101363.788118'
p528
sba(igraph
Edge
p529
(dp530
g7
I1
sg8
I00
sg9
I5
sg10
(lp531
g109
ag467
asg24
I00
sg25
I00
sg26
I11573122
sg17
S'101363.791385'
p532
sba(igraph
Edge
p533
(dp534
g7
I1
sg8
I00
sg9
I5
sg10
(lp535
g112
ag467
asg24
I00
sg25
I00
sg26
I11573123
sg17
S'101363.794615'
p536
sba(igraph
Edge
p537
(dp538
g7
I1
sg8
I00
sg9
I5
sg10
(lp539
g112
ag470
asg24
I00
sg25
I00
sg26
I11573124
sg17
S'101363.798302'
p540
sba(igraph
Edge
p541
(dp542
g7
I1
sg8
I00
sg9
I5
sg10
(lp543
g119
ag470
asg24
I00
sg25
I00
sg26
I11573125
sg17
S'101363.802001'
p544
sba(igraph
Edge
p545
(dp546
g7
I1
sg8
I00
sg9
I5
sg10
(lp547
g119
ag477
asg24
I00
sg25
I00
sg26
I11573126
sg17
S'101363.805478'
p548
sba(igraph
Edge
p549
(dp550
g7
I1
sg8
I00
sg9
I5
sg10
(lp551
g216
ag477
asg24
I00
sg25
I00
sg26
I11573127
sg17
S'101363.810979'
p552
sba(igraph
Edge
p553
(dp554
g7
I1
sg8
I00
sg9
I5
sg10
(lp555
g216
ag488
asg24
I00
sg25
I00
sg26
I11573128
sg17
S'101363.823381'
p556
sba(igraph
Edge
p557
(dp558
g7
I1
sg8
I00
sg9
I5
sg10
(lp559
g219
ag488
asg24
I00
sg25
I00
sg26
I11573129
sg17
S'101363.829189'
p560
sba(igraph
Edge
p561
(dp562
g7
I1
sg8
I00
sg9
I5
sg10
(lp563
g219
ag491
asg24
I00
sg25
I00
sg26
I11573130
sg17
S'101363.834034'
p564
sba(igraph
Edge
p565
(dp566
g7
I1
sg8
I00
sg9
I5
sg10
(lp567
g226
ag491
asg24
I00
sg25
I00
sg26
I11573131
sg17
S'101363.837992'
p568
sba(igraph
Edge
p569
(dp570
g7
I1
sg8
I00
sg9
I5
sg10
(lp571
g226
ag498
asg24
I00
sg25
I00
sg26
I11573132
sg17
S'101363.843435'
p572
sba(igraph
Edge
p573
(dp574
g7
I1
sg8
I00
sg9
I5
sg10
(lp575
g283
ag498
asg24
I00
sg25
I00
sg26
I11573133
sg17
S'101363.847001'
p576
sba(igraph
Edge
p577
(dp578
g7
I1
sg8
I00
sg9
I5
sg10
(lp579
g283
ag505
asg24
I00
sg25
I00
sg26
I11573134
sg17
S'101363.850442'
p580
sba(igraph
Edge
p581
(dp582
g7
I1
sg8
I00
sg9
I5
sg10
(lp583
(igraph
Vertex
p584
(dp585
g14
F128.23943421718258
sg15
F-160.69535255761659
sg16
I11573725
sg8
I00
sg17
S'101363.278717'
p586
sg19
g20
sba(igraph
Vertex
p587
(dp588
g14
F128.23943421718258
sg15
F-117.79719763912308
sg16
I11573726
sg8
I00
sg17
S'101363.279261'
p589
sg19
g20
sbasg24
I00
sg25
I00
sg26
I11573135
sg17
S'101363.85451'
p590
sba(igraph
Edge
p591
(dp592
g7
I1
sg8
I00
sg9
I5
sg10
(lp593
(igraph
Vertex
p594
(dp595
g14
F128.19497984966023
sg15
F-71.504035368184333
sg16
I11573727
sg8
I00
sg17
S'101363.279827'
p596
sg19
g20
sba(igraph
Vertex
p597
(dp598
g14
F128.19497984966023
sg15
F-28.605880449690773
sg16
I11573728
sg8
I00
sg17
S'101363.280399'
p599
sg19
g20
sbasg24
I00
sg25
I00
sg26
I11573136
sg17
S'101363.858288'
p600
sba(igraph
Edge
p601
(dp602
g7
I1
sg8
I00
sg9
I5
sg10
(lp603
g597
a(igraph
Vertex
p604
(dp605
g14
F128.19497984966023
sg15
F14.292274468802731
sg16
I11573729
sg8
I00
sg17
S'101363.280977'
p606
sg19
g20
sbasg24
I00
sg25
I00
sg26
I11573137
sg17
S'101363.863294'
p607
sba(igraph
Edge
p608
(dp609
g7
I1
sg8
I00
sg9
I5
sg10
(lp610
g587
ag594
asg24
I00
sg25
I00
sg26
I11573138
sg17
S'101363.869816'
p611
sba(igraph
Edge
p612
(dp613
g7
I1
sg8
I00
sg9
I5
sg10
(lp614
(igraph
Vertex
p615
(dp616
g14
F128.07692132311757
sg15
F59.238411984260807
sg16
I11573730
sg8
I00
sg17
S'101363.281721'
p617
sg19
g20
sba(igraph
Vertex
p618
(dp619
g14
F128.07692132311757
sg15
F102.13656690275437
sg16
I11573731
sg8
I00
sg17
S'101363.283294'
p620
sg19
g20
sbasg24
I00
sg25
I00
sg26
I11573139
sg17
S'101363.874968'
p621
sba(igraph
Edge
p622
(dp623
g7
I1
sg8
I00
sg9
I5
sg10
(lp624
g618
a(igraph
Vertex
p625
(dp626
g14
F128.07692132311757
sg15
F145.03472182124787
sg16
I11573732
sg8
I00
sg17
S'101363.283975'
p627
sg19
g20
sbasg24
I00
sg25
I00
sg26
I11573140
sg17
S'101363.881078'
p628
sba(igraph
Edge
p629
(dp630
g7
I1
sg8
I00
sg9
I5
sg10
(lp631
g625
a(igraph
Vertex
p632
(dp633
g14
F128.03246695559534
sg15
F191.32788409218668
sg16
I11573733
sg8
I00
sg17
S'101363.284663'
p634
sg19
g20
sbasg24
I00
sg25
I00
sg26
I11573141
sg17
S'101363.886065'
p635
sba(igraph
Edge
p636
(dp637
g7
I1
sg8
I00
sg9
I5
sg10
(lp638
g604
ag615
asg24
I00
sg25
I00
sg26
I11573142
sg17
S'101363.892657'
p639
sba(igraph
Edge
p640
(dp641
g7
I1
sg8
I00
sg9
I5
sg10
(lp642
g457
ag584
asg24
I00
sg25
I00
sg26
I11573143
sg17
S'101363.897049'
p643
sba(igraph
Edge
p644
(dp645
g7
I1
sg8
I00
sg9
I5
sg10
(lp646
g460
ag584
asg24
I00
sg25
I00
sg26
I11573144
sg17
S'101363.903734'
p647
sba(igraph
Edge
p648
(dp649
g7
I1
sg8
I00
sg9
I5
sg10
(lp650
g460
ag587
asg24
I00
sg25
I00
sg26
I11573145
sg17
S'101363.909016'
p651
sba(igraph
Edge
p652
(dp653
g7
I1
sg8
I00
sg9
I5
sg10
(lp654
g467
ag587
asg24
I00
sg25
I00
sg26
I11573146
sg17
S'101363.914521'
p655
sba(igraph
Edge
p656
(dp657
g7
I1
sg8
I00
sg9
I5
sg10
(lp658
g467
ag594
asg24
I00
sg25
I00
sg26
I11573147
sg17
S'101363.919213'
p659
sba(igraph
Edge
p660
(dp661
g7
I1
sg8
I00
sg9
I5
sg10
(lp662
g470
ag594
asg24
I00
sg25
I00
sg26
I11573148
sg17
S'101363.925938'
p663
sba(igraph
Edge
p664
(dp665
g7
I1
sg8
I00
sg9
I5
sg10
(lp666
g470
ag597
asg24
I00
sg25
I00
sg26
I11573149
sg17
S'101363.932363'
p667
sba(igraph
Edge
p668
(dp669
g7
I1
sg8
I00
sg9
I5
sg10
(lp670
g477
ag597
asg24
I00
sg25
I00
sg26
I11573150
sg17
S'101363.938855'
p671
sba(igraph
Edge
p672
(dp673
g7
I1
sg8
I00
sg9
I5
sg10
(lp674
g477
ag604
asg24
I00
sg25
I00
sg26
I11573151
sg17
S'101363.948516'
p675
sba(igraph
Edge
p676
(dp677
g7
I1
sg8
I00
sg9
I5
sg10
(lp678
g488
ag604
asg24
I00
sg25
I00
sg26
I11573152
sg17
S'101363.95578'
p679
sba(igraph
Edge
p680
(dp681
g7
I1
sg8
I00
sg9
I5
sg10
(lp682
g488
ag615
asg24
I00
sg25
I00
sg26
I11573153
sg17
S'101363.961118'
p683
sba(igraph
Edge
p684
(dp685
g7
I1
sg8
I00
sg9
I5
sg10
(lp686
g491
ag615
asg24
I00
sg25
I00
sg26
I11573154
sg17
S'101363.966173'
p687
sba(igraph
Edge
p688
(dp689
g7
I1
sg8
I00
sg9
I5
sg10
(lp690
g491
ag618
asg24
I00
sg25
I00
sg26
I11573155
sg17
S'101363.973705'
p691
sba(igraph
Edge
p692
(dp693
g7
I1
sg8
I00
sg9
I5
sg10
(lp694
g498
ag618
asg24
I00
sg25
I00
sg26
I11573156
sg17
S'101363.978815'
p695
sba(igraph
Edge
p696
(dp697
g7
I1
sg8
I00
sg9
I5
sg10
(lp698
g498
ag625
asg24
I00
sg25
I00
sg26
I11573157
sg17
S'101363.983412'
p699
sba(igraph
Edge
p700
(dp701
g7
I1
sg8
I00
sg9
I5
sg10
(lp702
g505
ag625
asg24
I00
sg25
I00
sg26
I11573158
sg17
S'101363.987922'
p703
sba(igraph
Edge
p704
(dp705
g7
I1
sg8
I00
sg9
I5
sg10
(lp706
g505
ag632
asg24
I00
sg25
I00
sg26
I11573159
sg17
S'101363.992235'
p707
sba(igraph
Edge
p708
(dp709
g7
I1
sg8
I00
sg9
I5
sg10
(lp710
(igraph
Vertex
p711
(dp712
g14
F163.06991962008772
sg15
F-161.98925029792008
sg16
I11573734
sg8
I00
sg17
S'101363.285326'
p713
sg19
I0
sba(igraph
Vertex
p714
(dp715
g14
F163.06991962008772
sg15
F-119.09109537942658
sg16
I11573736
sg8
I00
sg17
S'101363.28599'
p716
sg19
g20
sbasg24
I00
sg25
I00
sg26
I11573160
sg17
S'101363.996437'
p717
sba(igraph
Edge
p718
(dp719
g7
I1
sg8
I00
sg9
I5
sg10
(lp720
(igraph
Vertex
p721
(dp722
g14
F163.02546525256543
sg15
F-72.797933108487825
sg16
I11573737
sg8
I00
sg17
S'101363.286691'
p723
sg19
g20
sba(igraph
Vertex
p724
(dp725
g14
F163.02546525256543
sg15
F-29.899778189994322
sg16
I11573738
sg8
I00
sg17
S'101363.287382'
p726
sg19
g20
sbasg24
I00
sg25
I00
sg26
I11573161
sg17
S'101364.003017'
p727
sba(igraph
Edge
p728
(dp729
g7
I1
sg8
I00
sg9
I5
sg10
(lp730
g724
a(igraph
Vertex
p731
(dp732
g14
F163.02546525256543
sg15
F12.99837672849921
sg16
I11573739
sg8
I00
sg17
S'101363.288275'
p733
sg19
g20
sbasg24
I00
sg25
I00
sg26
I11573162
sg17
S'101364.007549'
p734
sba(igraph
Edge
p735
(dp736
g7
I1
sg8
I00
sg9
I5
sg10
(lp737
g714
ag721
asg24
I00
sg25
I00
sg26
I11573163
sg17
S'101364.011986'
p738
sba(igraph
Edge
p739
(dp740
g7
I1
sg8
I00
sg9
I5
sg10
(lp741
(igraph
Vertex
p742
(dp743
g14
F162.90740672602288
sg15
F57.944514243957286
sg16
I11573740
sg8
I00
sg17
S'101363.288995'
p744
sg19
g20
sba(igraph
Vertex
p745
(dp746
g14
F162.90740672602288
sg15
F100.84266916245085
sg16
I11573741
sg8
I00
sg17
S'101363.28972'
p747
sg19
g20
sbasg24
I00
sg25
I00
sg26
I11573164
sg17
S'101364.016346'
p748
sba(igraph
Edge
p749
(dp750
g7
I1
sg8
I00
sg9
I5
sg10
(lp751
g745
a(igraph
Vertex
p752
(dp753
g14
F162.90740672602288
sg15
F143.74082408094435
sg16
I11573742
sg8
I00
sg17
S'101363.29145'
p754
sg19
g20
sbasg24
I00
sg25
I00
sg26
I11573165
sg17
S'101364.021452'
p755
sba(igraph
Edge
p756
(dp757
g7
I1
sg8
I00
sg9
I5
sg10
(lp758
g752
a(igraph
Vertex
p759
(dp760
g14
F162.86295235850059
sg15
F190.03398635188316
sg16
I11573743
sg8
I00
sg17
S'101363.292211'
p761
sg19
g20
sbasg24
I00
sg25
I00
sg26
I11573166
sg17
S'101364.026118'
p762
sba(igraph
Edge
p763
(dp764
g7
I1
sg8
I00
sg9
I5
sg10
(lp765
g731
ag742
asg24
I00
sg25
I00
sg26
I11573167
sg17
S'101364.030587'
p766
sba(igraph
Edge
p767
(dp768
g7
I1
sg8
I00
sg9
I5
sg10
(lp769
g584
ag711
asg24
I00
sg25
I00
sg26
I11573168
sg17
S'101364.036024'
p770
sba(igraph
Edge
p771
(dp772
g7
I1
sg8
I00
sg9
I5
sg10
(lp773
g587
ag711
asg24
I00
sg25
I00
sg26
I11573169
sg17
S'101364.04065'
p774
sba(igraph
Edge
p775
(dp776
g7
I1
sg8
I00
sg9
I5
sg10
(lp777
g587
ag714
asg24
I00
sg25
I00
sg26
I11573170
sg17
S'101364.045643'
p778
sba(igraph
Edge
p779
(dp780
g7
I1
sg8
I00
sg9
I5
sg10
(lp781
g594
ag714
asg24
I00
sg25
I00
sg26
I11573171
sg17
S'101364.050639'
p782
sba(igraph
Edge
p783
(dp784
g7
I1
sg8
I00
sg9
I5
sg10
(lp785
g594
ag721
asg24
I00
sg25
I00
sg26
I11573172
sg17
S'101364.055303'
p786
sba(igraph
Edge
p787
(dp788
g7
I1
sg8
I00
sg9
I5
sg10
(lp789
g597
ag721
asg24
I00
sg25
I00
sg26
I11573173
sg17
S'101364.060576'
p790
sba(igraph
Edge
p791
(dp792
g7
I1
sg8
I00
sg9
I5
sg10
(lp793
g597
ag724
asg24
I00
sg25
I00
sg26
I11573174
sg17
S'101364.065424'
p794
sba(igraph
Edge
p795
(dp796
g7
I1
sg8
I00
sg9
I5
sg10
(lp797
g604
ag724
asg24
I00
sg25
I00
sg26
I11573175
sg17
S'101364.070141'
p798
sba(igraph
Edge
p799
(dp800
g7
I1
sg8
I00
sg9
I5
sg10
(lp801
g604
ag731
asg24
I00
sg25
I00
sg26
I11573176
sg17
S'101364.075191'
p802
sba(igraph
Edge
p803
(dp804
g7
I1
sg8
I00
sg9
I5
sg10
(lp805
g615
ag731
asg24
I00
sg25
I00
sg26
I11573177
sg17
S'101364.079938'
p806
sba(igraph
Edge
p807
(dp808
g7
I1
sg8
I00
sg9
I5
sg10
(lp809
g615
ag742
asg24
I00
sg25
I00
sg26
I11573178
sg17
S'101364.086194'
p810
sba(igraph
Edge
p811
(dp812
g7
I1
sg8
I00
sg9
I5
sg10
(lp813
g618
ag742
asg24
I00
sg25
I00
sg26
I11573179
sg17
S'101364.091274'
p814
sba(igraph
Edge
p815
(dp816
g7
I1
sg8
I00
sg9
I5
sg10
(lp817
g618
ag745
asg24
I00
sg25
I00
sg26
I11573180
sg17
S'101364.096299'
p818
sba(igraph
Edge
p819
(dp820
g7
I1
sg8
I00
sg9
I5
sg10
(lp821
g625
ag745
asg24
I00
sg25
I00
sg26
I11573181
sg17
S'101364.10124'
p822
sba(igraph
Edge
p823
(dp824
g7
I1
sg8
I00
sg9
I5
sg10
(lp825
g625
ag752
asg24
I00
sg25
I00
sg26
I11573182
sg17
S'101364.107067'
p826
sba(igraph
Edge
p827
(dp828
g7
I1
sg8
I00
sg9
I5
sg10
(lp829
g632
ag752
asg24
I00
sg25
I00
sg26
I11573183
sg17
S'101364.112067'
p830
sba(igraph
Edge
p831
(dp832
g7
I1
sg8
I00
sg9
I5
sg10
(lp833
g632
ag759
asg24
I00
sg25
I00
sg26
I11573184
sg17
S'101364.117235'
p834
sba(igraph
Edge
p835
(dp836
g7
I1
sg8
I00
sg9
I5
sg10
(lp837
(igraph
Vertex
p838
(dp839
g14
F194.2747831436609
sg15
F-159.98925029792011
sg16
I11573744
sg8
I00
sg17
S'101363.292972'
p840
sg19
g20
sba(igraph
Vertex
p841
(dp842
g14
F194.2747831436609
sg15
F-117.09109537942658
sg16
I11573745
sg8
I00
sg17
S'101363.29374'
p843
sg19
I0
sbasg24
I00
sg25
I00
sg26
I11573185
sg17
S'101364.122509'
p844
sba(igraph
Edge
p845
(dp846
g7
I1
sg8
I00
sg9
I5
sg10
(lp847
(igraph
Vertex
p848
(dp849
g14
F194.23032877613861
sg15
F-70.797933108487825
sg16
I11573747
sg8
I00
sg17
S'101363.294559'
p850
sg19
g20
sba(igraph
Vertex
p851
(dp852
g14
F194.23032877613861
sg15
F-27.899778189994322
sg16
I11573748
sg8
I00
sg17
S'101363.2954'
p853
sg19
g20
sbasg24
I00
sg25
I00
sg26
I11573186
sg17
S'101364.128422'
p854
sba(igraph
Edge
p855
(dp856
g7
I1
sg8
I00
sg9
I5
sg10
(lp857
g851
a(igraph
Vertex
p858
(dp859
g14
F194.23032877613861
sg15
F14.998376728499238
sg16
I11573749
sg8
I00
sg17
S'101363.296232'
p860
sg19
g20
sbasg24
I00
sg25
I00
sg26
I11573187
sg17
S'101364.133621'
p861
sba(igraph
Edge
p862
(dp863
g7
I1
sg8
I00
sg9
I5
sg10
(lp864
g841
ag848
asg24
I00
sg25
I00
sg26
I11573188
sg17
S'101364.140095'
p865
sba(igraph
Edge
p866
(dp867
g7
I1
sg8
I00
sg9
I5
sg10
(lp868
(igraph
Vertex
p869
(dp870
g14
F194.11227024959601
sg15
F59.944514243957286
sg16
I11573750
sg8
I00
sg17
S'101363.297286'
p871
sg19
g20
sba(igraph
Vertex
p872
(dp873
g14
F194.11227024959601
sg15
F102.84266916245085
sg16
I11573751
sg8
I00
sg17
S'101363.298318'
p874
sg19
g20
sbasg24
I00
sg25
I00
sg26
I11573189
sg17
S'101364.145395'
p875
sba(igraph
Edge
p876
(dp877
g7
I1
sg8
I00
sg9
I5
sg10
(lp878
g872
a(igraph
Vertex
p879
(dp880
g14
F194.11227024959601
sg15
F145.74082408094435
sg16
I11573752
sg8
I00
sg17
S'101363.299177'
p881
sg19
g20
sbasg24
I00
sg25
I00
sg26
I11573190
sg17
S'101364.150824'
p882
sba(igraph
Edge
p883
(dp884
g7
I1
sg8
I00
sg9
I5
sg10
(lp885
g879
a(igraph
Vertex
p886
(dp887
g14
F194.06781588207377
sg15
F192.03398635188316
sg16
I11573753
sg8
I00
sg17
S'101363.300036'
p888
sg19
g20
sbasg24
I00
sg25
I00
sg26
I11573191
sg17
S'101364.156666'
p889
sba(igraph
Edge
p890
(dp891
g7
I1
sg8
I00
sg9
I5
sg10
(lp892
g858
ag869
asg24
I00
sg25
I00
sg26
I11573192
sg17
S'101364.164257'
p893
sba(igraph
Edge
p894
(dp895
g7
I1
sg8
I00
sg9
I5
sg10
(lp896
g711
ag838
asg24
I00
sg25
I00
sg26
I11573193
sg17
S'101364.169877'
p897
sba(igraph
Edge
p898
(dp899
g7
I1
sg8
I00
sg9
I5
sg10
(lp900
g714
ag838
asg24
I00
sg25
I00
sg26
I11573194
sg17
S'101364.176373'
p901
sba(igraph
Edge
p902
(dp903
g7
I1
sg8
I00
sg9
I5
sg10
(lp904
g714
ag841
asg24
I00
sg25
I00
sg26
I11573195
sg17
S'101364.182534'
p905
sba(igraph
Edge
p906
(dp907
g7
I1
sg8
I00
sg9
I5
sg10
(lp908
g721
ag841
asg24
I00
sg25
I00
sg26
I11573196
sg17
S'101364.189512'
p909
sba(igraph
Edge
p910
(dp911
g7
I1
sg8
I00
sg9
I5
sg10
(lp912
g721
ag848
asg24
I00
sg25
I00
sg26
I11573197
sg17
S'101364.195068'
p913
sba(igraph
Edge
p914
(dp915
g7
I1
sg8
I00
sg9
I5
sg10
(lp916
g724
ag848
asg24
I00
sg25
I00
sg26
I11573198
sg17
S'101364.200631'
p917
sba(igraph
Edge
p918
(dp919
g7
I1
sg8
I00
sg9
I5
sg10
(lp920
g724
ag851
asg24
I00
sg25
I00
sg26
I11573199
sg17
S'101364.206219'
p921
sba(igraph
Edge
p922
(dp923
g7
I1
sg8
I00
sg9
I5
sg10
(lp924
g731
ag851
asg24
I00
sg25
I00
sg26
I11573200
sg17
S'101364.211976'
p925
sba(igraph
Edge
p926
(dp927
g7
I1
sg8
I00
sg9
I5
sg10
(lp928
g731
ag858
asg24
I00
sg25
I00
sg26
I11573201
sg17
S'101364.217657'
p929
sba(igraph
Edge
p930
(dp931
g7
I1
sg8
I00
sg9
I5
sg10
(lp932
g742
ag858
asg24
I00
sg25
I00
sg26
I11573202
sg17
S'101364.223911'
p933
sba(igraph
Edge
p934
(dp935
g7
I1
sg8
I00
sg9
I5
sg10
(lp936
g742
ag869
asg24
I00
sg25
I00
sg26
I11573203
sg17
S'101364.230658'
p937
sba(igraph
Edge
p938
(dp939
g7
I1
sg8
I00
sg9
I5
sg10
(lp940
g745
ag869
asg24
I00
sg25
I00
sg26
I11573204
sg17
S'101364.236426'
p941
sba(igraph
Edge
p942
(dp943
g7
I1
sg8
I00
sg9
I5
sg10
(lp944
g745
ag872
asg24
I00
sg25
I00
sg26
I11573205
sg17
S'101364.242307'
p945
sba(igraph
Edge
p946
(dp947
g7
I1
sg8
I00
sg9
I5
sg10
(lp948
g752
ag872
asg24
I00
sg25
I00
sg26
I11573206
sg17
S'101364.248066'
p949
sba(igraph
Edge
p950
(dp951
g7
I1
sg8
I00
sg9
I5
sg10
(lp952
g752
ag879
asg24
I00
sg25
I00
sg26
I11573207
sg17
S'101364.254507'
p953
sba(igraph
Edge
p954
(dp955
g7
I1
sg8
I00
sg9
I5
sg10
(lp956
g759
ag879
asg24
I00
sg25
I00
sg26
I11573208
sg17
S'101364.260571'
p957
sba(igraph
Edge
p958
(dp959
g7
I1
sg8
I00
sg9
I5
sg10
(lp960
g759
ag886
asg24
I00
sg25
I00
sg26
I11573209
sg17
S'101364.266669'
p961
sba(igraph
Edge
p962
(dp963
g7
I1
sg8
I00
sg9
I5
sg10
(lp964
(igraph
Vertex
p965
(dp966
g14
F226.74470870197359
sg15
F-163.98925029792011
sg16
I11573754
sg8
I00
sg17
S'101363.300913'
p967
sg19
g20
sba(igraph
Vertex
p968
(dp969
g14
F226.74470870197359
sg15
F-121.0910953794266
sg16
I11573755
sg8
I00
sg17
S'101363.301824'
p970
sg19
g20
sbasg24
I00
sg25
I00
sg26
I11573210
sg17
S'101364.272855'
p971
sba(igraph
Edge
p972
(dp973
g7
I1
sg8
I00
sg9
I5
sg10
(lp974
(igraph
Vertex
p975
(dp976
g14
F226.7002543344513
sg15
F-74.797933108487854
sg16
I11573756
sg8
I00
sg17
S'101363.302713'
p977
sg19
g20
sba(igraph
Vertex
p978
(dp979
g14
F226.7002543344513
sg15
F-31.89977818999435
sg16
I11573757
sg8
I00
sg17
S'101363.303657'
p980
sg19
g20
sbasg24
I00
sg25
I00
sg26
I11573211
sg17
S'101364.279857'
p981
sba(igraph
Edge
p982
(dp983
g7
I1
sg8
I00
sg9
I5
sg10
(lp984
g978
a(igraph
Vertex
p985
(dp986
g14
F226.7002543344513
sg15
F10.99837672849921
sg16
I11573758
sg8
I00
sg17
S'101363.304581'
p987
sg19
g20
sbasg24
I00
sg25
I00
sg26
I11573212
sg17
S'101364.286586'
p988
sba(igraph
Edge
p989
(dp990
g7
I1
sg8
I00
sg9
I5
sg10
(lp991
g968
ag975
asg24
I00
sg25
I00
sg26
I11573213
sg17
S'101364.292704'
p992
sba(igraph
Edge
p993
(dp994
g7
I1
sg8
I00
sg9
I5
sg10
(lp995
(igraph
Vertex
p996
(dp997
g14
F226.58219580790865
sg15
F55.944514243957286
sg16
I11573759
sg8
I00
sg17
S'101363.305505'
p998
sg19
g20
sba(igraph
Vertex
p999
(dp1000
g14
F226.58219580790865
sg15
F98.842669162450846
sg16
I11573760
sg8
I00
sg17
S'101363.306447'
p1001
sg19
g20
sbasg24
I00
sg25
I00
sg26
I11573214
sg17
S'101364.298804'
p1002
sba(igraph
Edge
p1003
(dp1004
g7
I1
sg8
I00
sg9
I5
sg10
(lp1005
g999
a(igraph
Vertex
p1006
(dp1007
g14
F226.58219580790865
sg15
F141.74082408094435
sg16
I11573761
sg8
I00
sg17
S'101363.307482'
p1008
sg19
g20
sbasg24
I00
sg25
I00
sg26
I11573215
sg17
S'101364.304957'
p1009
sba(igraph
Edge
p1010
(dp1011
g7
I1
sg8
I00
sg9
I5
sg10
(lp1012
g1006
a(igraph
Vertex
p1013
(dp1014
g14
F226.53774144038647
sg15
F188.03398635188316
sg16
I11573762
sg8
I00
sg17
S'101363.308503'
p1015
sg19
g20
sbasg24
I00
sg25
I00
sg26
I11573216
sg17
S'101364.313249'
p1016
sba(igraph
Edge
p1017
(dp1018
g7
I1
sg8
I00
sg9
I5
sg10
(lp1019
g985
ag996
asg24
I00
sg25
I00
sg26
I11573217
sg17
S'101364.319482'
p1020
sba(igraph
Edge
p1021
(dp1022
g7
I1
sg8
I00
sg9
I5
sg10
(lp1023
g838
ag965
asg24
I00
sg25
I00
sg26
I11573218
sg17
S'101364.325618'
p1024
sba(igraph
Edge
p1025
(dp1026
g7
I1
sg8
I00
sg9
I5
sg10
(lp1027
g841
ag965
asg24
I00
sg25
I00
sg26
I11573219
sg17
S'101364.332758'
p1028
sba(igraph
Edge
p1029
(dp1030
g7
I1
sg8
I00
sg9
I5
sg10
(lp1031
g841
ag968
asg24
I00
sg25
I00
sg26
I11573220
sg17
S'101364.339307'
p1032
sba(igraph
Edge
p1033
(dp1034
g7
I1
sg8
I00
sg9
I5
sg10
(lp1035
g848
ag968
asg24
I00
sg25
I00
sg26
I11573221
sg17
S'101364.347545'
p1036
sba(igraph
Edge
p1037
(dp1038
g7
I1
sg8
I00
sg9
I5
sg10
(lp1039
g848
ag975
asg24
I00
sg25
I00
sg26
I11573222
sg17
S'101364.354298'
p1040
sba(igraph
Edge
p1041
(dp1042
g7
I1
sg8
I00
sg9
I5
sg10
(lp1043
g851
ag975
asg24
I00
sg25
I00
sg26
I11573223
sg17
S'101364.361072'
p1044
sba(igraph
Edge
p1045
(dp1046
g7
I1
sg8
I00
sg9
I5
sg10
(lp1047
g851
ag978
asg24
I00
sg25
I00
sg26
I11573224
sg17
S'101364.36897'
p1048
sba(igraph
Edge
p1049
(dp1050
g7
I1
sg8
I00
sg9
I5
sg10
(lp1051
g858
ag978
asg24
I00
sg25
I00
sg26
I11573225
sg17
S'101364.377597'
p1052
sba(igraph
Edge
p1053
(dp1054
g7
I1
sg8
I00
sg9
I5
sg10
(lp1055
g858
ag985
asg24
I00
sg25
I00
sg26
I11573226
sg17
S'101364.384769'
p1056
sba(igraph
Edge
p1057
(dp1058
g7
I1
sg8
I00
sg9
I5
sg10
(lp1059
g869
ag985
asg24
I00
sg25
I00
sg26
I11573227
sg17
S'101364.391337'
p1060
sba(igraph
Edge
p1061
(dp1062
g7
I1
sg8
I00
sg9
I5
sg10
(lp1063
g869
ag996
asg24
I00
sg25
I00
sg26
I11573228
sg17
S'101364.40172'
p1064
sba(igraph
Edge
p1065
(dp1066
g7
I1
sg8
I00
sg9
I5
sg10
(lp1067
g872
ag996
asg24
I00
sg25
I00
sg26
I11573229
sg17
S'101364.408953'
p1068
sba(igraph
Edge
p1069
(dp1070
g7
I1
sg8
I00
sg9
I5
sg10
(lp1071
g872
ag999
asg24
I00
sg25
I00
sg26
I11573230
sg17
S'101364.416138'
p1072
sba(igraph
Edge
p1073
(dp1074
g7
I1
sg8
I00
sg9
I5
sg10
(lp1075
g879
ag999
asg24
I00
sg25
I00
sg26
I11573231
sg17
S'101364.422944'
p1076
sba(igraph
Edge
p1077
(dp1078
g7
I1
sg8
I00
sg9
I5
sg10
(lp1079
g879
ag1006
asg24
I00
sg25
I00
sg26
I11573232
sg17
S'101364.430271'
p1080
sba(igraph
Edge
p1081
(dp1082
g7
I1
sg8
I00
sg9
I5
sg10
(lp1083
g886
ag1006
asg24
I00
sg25
I00
sg26
I11573233
sg17
S'101364.438632'
p1084
sba(igraph
Edge
p1085
(dp1086
g7
I1
sg8
I00
sg9
I5
sg10
(lp1087
g886
ag1013
asg24
I00
sg25
I00
sg26
I11573234
sg17
S'101364.445605'
p1088
sba(igraph
Edge
p1089
(dp1090
g7
I1
sg8
I00
sg9
I5
sg10
(lp1091
(igraph
Vertex
p1092
(dp1093
g14
F-6.9729318164225162
sg15
F236.45092728499154
sg16
I11573763
sg8
I00
sg17
S'101363.309489'
p1094
sg19
g20
sba(igraph
Vertex
p1095
(dp1096
g14
F28.212568109425092
sg15
F236.45092728499154
sg16
I11573764
sg8
I00
sg17
S'101363.310528'
p1097
sg19
g20
sbasg24
I00
sg25
I00
sg26
I11573235
sg17
S'101364.453375'
p1098
sba(igraph
Edge
p1099
(dp1100
g7
I1
sg8
I00
sg9
I5
sg10
(lp1101
g1095
a(igraph
Vertex
p1102
(dp1103
g14
F63.398068035272786
sg15
F236.45092728499154
sg16
I11573765
sg8
I00
sg17
S'101363.312302'
p1104
sg19
g20
sbasg24
I00
sg25
I00
sg26
I11573236
sg17
S'101364.460605'
p1105
sba(igraph
Edge
p1106
(dp1107
g7
I1
sg8
I00
sg9
I5
sg10
(lp1108
g1092
a(igraph
Vertex
p1109
(dp1110
g14
F-38.490814673619155
sg15
F236.97763197301853
sg16
I11573766
sg8
I00
sg17
S'101363.313486'
p1111
sg19
g20
sbasg24
I00
sg25
I00
sg26
I11573237
sg17
S'101364.467579'
p1112
sba(igraph
Edge
p1113
(dp1114
g7
I1
sg8
I00
sg9
I5
sg10
(lp1115
g1102
a(igraph
Vertex
p1116
(dp1117
g14
F97.346740887342321
sg15
F236.44514590219219
sg16
I11573767
sg8
I00
sg17
S'101363.314561'
p1118
sg19
g20
sbasg24
I00
sg25
I00
sg26
I11573238
sg17
S'101364.475186'
p1119
sba(igraph
Edge
p1120
(dp1121
g7
I1
sg8
I00
sg9
I5
sg10
(lp1122
g1116
a(igraph
Vertex
p1123
(dp1124
g14
F131.08172848039436
sg15
F238.44514590219219
sg16
I11573768
sg8
I00
sg17
S'101363.315663'
p1125
sg19
g20
sbasg24
I00
sg25
I00
sg26
I11573239
sg17
S'101364.48231'
p1126
sba(igraph
Edge
p1127
(dp1128
g7
I1
sg8
I00
sg9
I5
sg10
(lp1129
g1123
a(igraph
Vertex
p1130
(dp1131
g14
F165.91221388329961
sg15
F237.15124816188867
sg16
I11573769
sg8
I00
sg17
S'101363.316746'
p1132
sg19
g20
sbasg24
I00
sg25
I00
sg26
I11573240
sg17
S'101364.490646'
p1133
sba(igraph
Edge
p1134
(dp1135
g7
I1
sg8
I00
sg9
I5
sg10
(lp1136
g1130
a(igraph
Vertex
p1137
(dp1138
g14
F197.11707740687274
sg15
F239.15124816188867
sg16
I11573770
sg8
I00
sg17
S'101363.317824'
p1139
sg19
g20
sbasg24
I00
sg25
I00
sg26
I11573241
sg17
S'101364.497482'
p1140
sba(igraph
Edge
p1141
(dp1142
g7
I1
sg8
I00
sg9
I5
sg10
(lp1143
g1137
a(igraph
Vertex
p1144
(dp1145
g14
F229.58700296518543
sg15
F235.15124816188867
sg16
I11573771
sg8
I00
sg17
S'101363.318984'
p1146
sg19
g20
sbasg24
I00
sg25
I00
sg26
I11573242
sg17
S'101364.505015'
p1147
sba(igraph
Edge
p1148
(dp1149
g7
I1
sg8
I00
sg9
I5
sg10
(lp1150
g273
ag1109
asg24
I00
sg25
I00
sg26
I11573243
sg17
S'101364.512529'
p1151
sba(igraph
Edge
p1152
(dp1153
g7
I1
sg8
I00
sg9
I5
sg10
(lp1154
g378
ag1109
asg24
I00
sg25
I00
sg26
I11573244
sg17
S'101364.519473'
p1155
sba(igraph
Edge
p1156
(dp1157
g7
I1
sg8
I00
sg9
I5
sg10
(lp1158
g273
ag1092
asg24
I00
sg25
I00
sg26
I11573245
sg17
S'101364.526529'
p1159
sba(igraph
Edge
p1160
(dp1161
g7
I1
sg8
I00
sg9
I5
sg10
(lp1162
g276
ag1092
asg24
I00
sg25
I00
sg26
I11573246
sg17
S'101364.533797'
p1163
sba(igraph
Edge
p1164
(dp1165
g7
I1
sg8
I00
sg9
I5
sg10
(lp1166
g276
ag1095
asg24
I00
sg25
I00
sg26
I11573247
sg17
S'101364.540957'
p1167
sba(igraph
Edge
p1168
(dp1169
g7
I1
sg8
I00
sg9
I5
sg10
(lp1170
g283
ag1095
asg24
I00
sg25
I00
sg26
I11573248
sg17
S'101364.548481'
p1171
sba(igraph
Edge
p1172
(dp1173
g7
I1
sg8
I00
sg9
I5
sg10
(lp1174
g283
ag1102
asg24
I00
sg25
I00
sg26
I11573249
sg17
S'101364.556156'
p1175
sba(igraph
Edge
p1176
(dp1177
g7
I1
sg8
I00
sg9
I5
sg10
(lp1178
g505
ag1102
asg24
I00
sg25
I00
sg26
I11573250
sg17
S'101364.563559'
p1179
sba(igraph
Edge
p1180
(dp1181
g7
I1
sg8
I00
sg9
I5
sg10
(lp1182
g505
ag1116
asg24
I00
sg25
I00
sg26
I11573251
sg17
S'101364.571408'
p1183
sba(igraph
Edge
p1184
(dp1185
g7
I1
sg8
I00
sg9
I5
sg10
(lp1186
g632
ag1116
asg24
I00
sg25
I00
sg26
I11573252
sg17
S'101364.578746'
p1187
sba(igraph
Edge
p1188
(dp1189
g7
I1
sg8
I00
sg9
I5
sg10
(lp1190
g632
ag1123
asg24
I00
sg25
I00
sg26
I11573253
sg17
S'101364.585971'
p1191
sba(igraph
Edge
p1192
(dp1193
g7
I1
sg8
I00
sg9
I5
sg10
(lp1194
g759
ag1123
asg24
I00
sg25
I00
sg26
I11573254
sg17
S'101364.596535'
p1195
sba(igraph
Edge
p1196
(dp1197
g7
I1
sg8
I00
sg9
I5
sg10
(lp1198
g759
ag1130
asg24
I00
sg25
I00
sg26
I11573255
sg17
S'101364.604114'
p1199
sba(igraph
Edge
p1200
(dp1201
g7
I1
sg8
I00
sg9
I5
sg10
(lp1202
g886
ag1130
asg24
I00
sg25
I00
sg26
I11573256
sg17
S'101364.611494'
p1203
sba(igraph
Edge
p1204
(dp1205
g7
I1
sg8
I00
sg9
I5
sg10
(lp1206
g886
ag1137
asg24
I00
sg25
I00
sg26
I11573257
sg17
S'101364.618799'
p1207
sba(igraph
Edge
p1208
(dp1209
g7
I1
sg8
I00
sg9
I5
sg10
(lp1210
g1013
ag1137
asg24
I00
sg25
I00
sg26
I11573258
sg17
S'101364.626328'
p1211
sba(igraph
Edge
p1212
(dp1213
g7
I1
sg8
I00
sg9
I5
sg10
(lp1214
g1013
ag1144
asg24
I00
sg25
I00
sg26
I11573259
sg17
S'101364.633786'
p1215
sba(igraph
Edge
p1216
(dp1217
g7
I1
sg8
I00
sg9
I5
sg10
(lp1218
(igraph
Vertex
p1219
(dp1220
g14
F253.63313508784415
sg15
F-160.8233424732995
sg16
I11573772
sg8
I00
sg17
S'101363.320254'
p1221
sg19
g20
sba(igraph
Vertex
p1222
(dp1223
g14
F253.63313508784415
sg15
F-117.925187554806
sg16
I11573773
sg8
I00
sg17
S'101363.321365'
p1224
sg19
g20
sbasg24
I00
sg25
I00
sg26
I11573260
sg17
S'101364.641812'
p1225
sba(igraph
Edge
p1226
(dp1227
g7
I1
sg8
I00
sg9
I5
sg10
(lp1228
(igraph
Vertex
p1229
(dp1230
g14
F253.58868072032192
sg15
F-71.63202528386725
sg16
I11573774
sg8
I00
sg17
S'101363.322954'
p1231
sg19
g20
sba(igraph
Vertex
p1232
(dp1233
g14
F253.58868072032192
sg15
F-28.733870365373747
sg16
I11573775
sg8
I00
sg17
S'101363.324624'
p1234
sg19
g20
sbasg24
I00
sg25
I00
sg26
I11573261
sg17
S'101364.650492'
p1235
sba(igraph
Edge
p1236
(dp1237
g7
I1
sg8
I00
sg9
I5
sg10
(lp1238
g1232
a(igraph
Vertex
p1239
(dp1240
g14
F253.58868072032192
sg15
F14.164284553119813
sg16
I11573776
sg8
I00
sg17
S'101363.325787'
p1241
sg19
g20
sbasg24
I00
sg25
I00
sg26
I11573262
sg17
S'101364.658404'
p1242
sba(igraph
Edge
p1243
(dp1244
g7
I1
sg8
I00
sg9
I5
sg10
(lp1245
g1222
ag1229
asg24
I00
sg25
I00
sg26
I11573263
sg17
S'101364.665909'
p1246
sba(igraph
Edge
p1247
(dp1248
g7
I1
sg8
I00
sg9
I5
sg10
(lp1249
(igraph
Vertex
p1250
(dp1251
g14
F253.47062219377932
sg15
F59.11042206857789
sg16
I11573777
sg8
I00
sg17
S'101363.32702'
p1252
sg19
g20
sba(igraph
Vertex
p1253
(dp1254
g14
F253.47062219377932
sg15
F102.00857698707145
sg16
I11573778
sg8
I00
sg17
S'101363.328219'
p1255
sg19
g20
sbasg24
I00
sg25
I00
sg26
I11573264
sg17
S'101364.673821'
p1256
sba(igraph
Edge
p1257
(dp1258
g7
I1
sg8
I00
sg9
I5
sg10
(lp1259
g1253
a(igraph
Vertex
p1260
(dp1261
g14
F253.47062219377932
sg15
F144.90673190556495
sg16
I11573779
sg8
I00
sg17
S'101363.329416'
p1262
sg19
g20
sbasg24
I00
sg25
I00
sg26
I11573265
sg17
S'101364.683105'
p1263
sba(igraph
Edge
p1264
(dp1265
g7
I1
sg8
I00
sg9
I5
sg10
(lp1266
g1260
a(igraph
Vertex
p1267
(dp1268
g14
F253.42616782625709
sg15
F191.19989417650376
sg16
I11573780
sg8
I00
sg17
S'101363.330743'
p1269
sg19
g20
sbasg24
I00
sg25
I00
sg26
I11573266
sg17
S'101364.692543'
p1270
sba(igraph
Edge
p1271
(dp1272
g7
I1
sg8
I00
sg9
I5
sg10
(lp1273
g1239
ag1250
asg24
I00
sg25
I00
sg26
I11573267
sg17
S'101364.700471'
p1274
sba(igraph
Edge
p1275
(dp1276
g7
I1
sg8
I00
sg9
I5
sg10
(lp1277
(igraph
Vertex
p1278
(dp1279
g14
F284.62290776979796
sg15
F-159.70217070264189
sg16
I11573781
sg8
I00
sg17
S'101363.332053'
p1280
sg19
g20
sba(igraph
Vertex
p1281
(dp1282
g14
F284.83799861141733
sg15
F-115.925187554806
sg16
I11573782
sg8
I00
sg17
S'101363.333302'
p1283
sg19
g20
sbasg24
I00
sg25
I00
sg26
I11573268
sg17
S'101364.708178'
p1284
sba(igraph
Edge
p1285
(dp1286
g7
I1
sg8
I00
sg9
I5
sg10
(lp1287
(igraph
Vertex
p1288
(dp1289
g14
F284.7935442438951
sg15
F-69.63202528386725
sg16
I11573783
sg8
I00
sg17
S'101363.334606'
p1290
sg19
g20
sba(igraph
Vertex
p1291
(dp1292
g14
F284.7935442438951
sg15
F-26.733870365373747
sg16
I11573784
sg8
I00
sg17
S'101363.335875'
p1293
sg19
g20
sbasg24
I00
sg25
I00
sg26
I11573269
sg17
S'101364.717035'
p1294
sba(igraph
Edge
p1295
(dp1296
g7
I1
sg8
I00
sg9
I5
sg10
(lp1297
g1291
a(igraph
Vertex
p1298
(dp1299
g14
F284.7935442438951
sg15
F16.164284553119813
sg16
I11573785
sg8
I00
sg17
S'101363.337192'
p1300
sg19
g20
sbasg24
I00
sg25
I00
sg26
I11573270
sg17
S'101364.725721'
p1301
sba(igraph
Edge
p1302
(dp1303
g7
I1
sg8
I00
sg9
I5
sg10
(lp1304
g1281
ag1288
asg24
I00
sg25
I00
sg26
I11573271
sg17
S'101364.733704'
p1305
sba(igraph
Edge
p1306
(dp1307
g7
I1
sg8
I00
sg9
I5
sg10
(lp1308
(igraph
Vertex
p1309
(dp1310
g14
F284.67548571735256
sg15
F61.11042206857789
sg16
I11573786
sg8
I00
sg17
S'101363.338553'
p1311
sg19
g20
sba(igraph
Vertex
p1312
(dp1313
g14
F284.67548571735256
sg15
F104.00857698707145
sg16
I11573787
sg8
I00
sg17
S'101363.339863'
p1314
sg19
g20
sbasg24
I00
sg25
I00
sg26
I11573272
sg17
S'101364.742277'
p1315
sba(igraph
Edge
p1316
(dp1317
g7
I1
sg8
I00
sg9
I5
sg10
(lp1318
g1312
a(igraph
Vertex
p1319
(dp1320
g14
F284.67548571735256
sg15
F146.90673190556495
sg16
I11573788
sg8
I00
sg17
S'101363.341176'
p1321
sg19
g20
sbasg24
I00
sg25
I00
sg26
I11573273
sg17
S'101364.750229'
p1322
sba(igraph
Edge
p1323
(dp1324
g7
I1
sg8
I00
sg9
I5
sg10
(lp1325
g1319
a(igraph
Vertex
p1326
(dp1327
g14
F284.63103134983032
sg15
F193.19989417650376
sg16
I11573789
sg8
I00
sg17
S'101363.342562'
p1328
sg19
g20
sbasg24
I00
sg25
I00
sg26
I11573274
sg17
S'101364.75822'
p1329
sba(igraph
Edge
p1330
(dp1331
g7
I1
sg8
I00
sg9
I5
sg10
(lp1332
g1298
ag1309
asg24
I00
sg25
I00
sg26
I11573275
sg17
S'101364.766822'
p1333
sba(igraph
Edge
p1334
(dp1335
g7
I1
sg8
I00
sg9
I5
sg10
(lp1336
g1219
ag1278
asg24
I00
sg25
I00
sg26
I11573276
sg17
S'101364.776205'
p1337
sba(igraph
Edge
p1338
(dp1339
g7
I1
sg8
I00
sg9
I5
sg10
(lp1340
g1222
ag1278
asg24
I00
sg25
I00
sg26
I11573277
sg17
S'101364.784658'
p1341
sba(igraph
Edge
p1342
(dp1343
g7
I1
sg8
I00
sg9
I5
sg10
(lp1344
g1222
ag1281
asg24
I00
sg25
I00
sg26
I11573278
sg17
S'101364.792851'
p1345
sba(igraph
Edge
p1346
(dp1347
g7
I1
sg8
I00
sg9
I5
sg10
(lp1348
g1229
ag1281
asg24
I00
sg25
I00
sg26
I11573279
sg17
S'101364.801243'
p1349
sba(igraph
Edge
p1350
(dp1351
g7
I1
sg8
I00
sg9
I5
sg10
(lp1352
g1229
ag1288
asg24
I00
sg25
I00
sg26
I11573280
sg17
S'101364.810711'
p1353
sba(igraph
Edge
p1354
(dp1355
g7
I1
sg8
I00
sg9
I5
sg10
(lp1356
g1232
ag1288
asg24
I00
sg25
I00
sg26
I11573281
sg17
S'101364.819987'
p1357
sba(igraph
Edge
p1358
(dp1359
g7
I1
sg8
I00
sg9
I5
sg10
(lp1360
g1232
ag1291
asg24
I00
sg25
I00
sg26
I11573282
sg17
S'101364.828548'
p1361
sba(igraph
Edge
p1362
(dp1363
g7
I1
sg8
I00
sg9
I5
sg10
(lp1364
g1239
ag1291
asg24
I00
sg25
I00
sg26
I11573283
sg17
S'101364.836806'
p1365
sba(igraph
Edge
p1366
(dp1367
g7
I1
sg8
I00
sg9
I5
sg10
(lp1368
g1239
ag1298
asg24
I00
sg25
I00
sg26
I11573284
sg17
S'101364.845255'
p1369
sba(igraph
Edge
p1370
(dp1371
g7
I1
sg8
I00
sg9
I5
sg10
(lp1372
g1250
ag1298
asg24
I00
sg25
I00
sg26
I11573285
sg17
S'101364.85438'
p1373
sba(igraph
Edge
p1374
(dp1375
g7
I1
sg8
I00
sg9
I5
sg10
(lp1376
g1250
ag1309
asg24
I00
sg25
I00
sg26
I11573286
sg17
S'101364.862805'
p1377
sba(igraph
Edge
p1378
(dp1379
g7
I1
sg8
I00
sg9
I5
sg10
(lp1380
g1253
ag1309
asg24
I00
sg25
I00
sg26
I11573287
sg17
S'101364.871195'
p1381
sba(igraph
Edge
p1382
(dp1383
g7
I1
sg8
I00
sg9
I5
sg10
(lp1384
g1253
ag1312
asg24
I00
sg25
I00
sg26
I11573288
sg17
S'101364.879604'
p1385
sba(igraph
Edge
p1386
(dp1387
g7
I1
sg8
I00
sg9
I5
sg10
(lp1388
g1260
ag1312
asg24
I00
sg25
I00
sg26
I11573289
sg17
S'101364.889713'
p1389
sba(igraph
Edge
p1390
(dp1391
g7
I1
sg8
I00
sg9
I5
sg10
(lp1392
g1260
ag1319
asg24
I00
sg25
I00
sg26
I11573290
sg17
S'101364.898444'
p1393
sba(igraph
Edge
p1394
(dp1395
g7
I1
sg8
I00
sg9
I5
sg10
(lp1396
g1267
ag1319
asg24
I00
sg25
I00
sg26
I11573291
sg17
S'101364.906952'
p1397
sba(igraph
Edge
p1398
(dp1399
g7
I1
sg8
I00
sg9
I5
sg10
(lp1400
g1267
ag1326
asg24
I00
sg25
I00
sg26
I11573292
sg17
S'101364.91544'
p1401
sba(igraph
Edge
p1402
(dp1403
g7
I1
sg8
I00
sg9
I5
sg10
(lp1404
(igraph
Vertex
p1405
(dp1406
g14
F256.47542935105605
sg15
F238.31715598650928
sg16
I11573790
sg8
I00
sg17
S'101363.344553'
p1407
sg19
g20
sba(igraph
Vertex
p1408
(dp1409
g14
F287.68029287462923
sg15
F240.31715598650928
sg16
I11573791
sg8
I00
sg17
S'101363.345976'
p1410
sg19
g20
sbasg24
I00
sg25
I00
sg26
I11573293
sg17
S'101364.925092'
p1411
sba(igraph
Edge
p1412
(dp1413
g7
I1
sg8
I00
sg9
I5
sg10
(lp1414
g1267
ag1405
asg24
I00
sg25
I00
sg26
I11573294
sg17
S'101364.935264'
p1415
sba(igraph
Edge
p1416
(dp1417
g7
I1
sg8
I00
sg9
I5
sg10
(lp1418
g1326
ag1405
asg24
I00
sg25
I00
sg26
I11573295
sg17
S'101364.949593'
p1419
sba(igraph
Edge
p1420
(dp1421
g7
I1
sg8
I00
sg9
I5
sg10
(lp1422
g1326
ag1408
asg24
I00
sg25
I00
sg26
I11573296
sg17
S'101364.958564'
p1423
sba(igraph
Edge
p1424
(dp1425
g7
I1
sg8
I00
sg9
I5
sg10
(lp1426
g965
ag1219
asg24
I00
sg25
I00
sg26
I11573297
sg17
S'101364.970266'
p1427
sba(igraph
Edge
p1428
(dp1429
g7
I1
sg8
I00
sg9
I5
sg10
(lp1430
g968
ag1219
asg24
I00
sg25
I00
sg26
I11573298
sg17
S'101364.97923'
p1431
sba(igraph
Edge
p1432
(dp1433
g7
I1
sg8
I00
sg9
I5
sg10
(lp1434
g968
ag1222
asg24
I00
sg25
I00
sg26
I11573299
sg17
S'101364.988031'
p1435
sba(igraph
Edge
p1436
(dp1437
g7
I1
sg8
I00
sg9
I5
sg10
(lp1438
g975
ag1222
asg24
I00
sg25
I00
sg26
I11573300
sg17
S'101364.997001'
p1439
sba(igraph
Edge
p1440
(dp1441
g7
I1
sg8
I00
sg9
I5
sg10
(lp1442
g975
ag1229
asg24
I00
sg25
I00
sg26
I11573301
sg17
S'101365.007'
p1443
sba(igraph
Edge
p1444
(dp1445
g7
I1
sg8
I00
sg9
I5
sg10
(lp1446
g978
ag1229
asg24
I00
sg25
I00
sg26
I11573302
sg17
S'101365.016597'
p1447
sba(igraph
Edge
p1448
(dp1449
g7
I1
sg8
I00
sg9
I5
sg10
(lp1450
g978
ag1232
asg24
I00
sg25
I00
sg26
I11573303
sg17
S'101365.025861'
p1451
sba(igraph
Edge
p1452
(dp1453
g7
I1
sg8
I00
sg9
I5
sg10
(lp1454
g985
ag1232
asg24
I00
sg25
I00
sg26
I11573304
sg17
S'101365.03593'
p1455
sba(igraph
Edge
p1456
(dp1457
g7
I1
sg8
I00
sg9
I5
sg10
(lp1458
g985
ag1239
asg24
I00
sg25
I00
sg26
I11573305
sg17
S'101365.044923'
p1459
sba(igraph
Edge
p1460
(dp1461
g7
I1
sg8
I00
sg9
I5
sg10
(lp1462
g996
ag1239
asg24
I00
sg25
I00
sg26
I11573306
sg17
S'101365.054503'
p1463
sba(igraph
Edge
p1464
(dp1465
g7
I1
sg8
I00
sg9
I5
sg10
(lp1466
g996
ag1250
asg24
I00
sg25
I00
sg26
I11573307
sg17
S'101365.064539'
p1467
sba(igraph
Edge
p1468
(dp1469
g7
I1
sg8
I00
sg9
I5
sg10
(lp1470
g999
ag1250
asg24
I00
sg25
I00
sg26
I11573308
sg17
S'101365.073616'
p1471
sba(igraph
Edge
p1472
(dp1473
g7
I1
sg8
I00
sg9
I5
sg10
(lp1474
g999
ag1253
asg24
I00
sg25
I00
sg26
I11573309
sg17
S'101365.082802'
p1475
sba(igraph
Edge
p1476
(dp1477
g7
I1
sg8
I00
sg9
I5
sg10
(lp1478
g1006
ag1253
asg24
I00
sg25
I00
sg26
I11573310
sg17
S'101365.092087'
p1479
sba(igraph
Edge
p1480
(dp1481
g7
I1
sg8
I00
sg9
I5
sg10
(lp1482
g1006
ag1260
asg24
I00
sg25
I00
sg26
I11573311
sg17
S'101365.101881'
p1483
sba(igraph
Edge
p1484
(dp1485
g7
I1
sg8
I00
sg9
I5
sg10
(lp1486
g1013
ag1260
asg24
I00
sg25
I00
sg26
I11573312
sg17
S'101365.111279'
p1487
sba(igraph
Edge
p1488
(dp1489
g7
I1
sg8
I00
sg9
I5
sg10
(lp1490
g1013
ag1267
asg24
I00
sg25
I00
sg26
I11573313
sg17
S'101365.120692'
p1491
sba(igraph
Edge
p1492
(dp1493
g7
I1
sg8
I00
sg9
I5
sg10
(lp1494
g1144
ag1267
asg24
I00
sg25
I00
sg26
I11573314
sg17
S'101365.130465'
p1495
sba(igraph
Edge
p1496
(dp1497
g7
I1
sg8
I00
sg9
I5
sg10
(lp1498
g1144
ag1405
asg24
I00
sg25
I00
sg26
I11573315
sg17
S'101365.140274'
p1499
sba(igraph
Edge
p1500
(dp1501
g7
I1
sg8
I00
sg9
I5
sg10
(lp1502
(igraph
Vertex
p1503
(dp1504
g14
F-110.47673346488043
sg15
F-162.08669481731297
sg16
I11573792
sg8
I00
sg17
S'101363.347411'
p1505
sg19
g20
sba(igraph
Vertex
p1506
(dp1507
g14
F-110.47673346488043
sg15
F-119.18853989881947
sg16
I11573793
sg8
I00
sg17
S'101363.348772'
p1508
sg19
g20
sbasg24
I00
sg25
I00
sg26
I11573316
sg17
S'101365.151472'
p1509
sba(igraph
Edge
p1510
(dp1511
g7
I1
sg8
I00
sg9
I5
sg10
(lp1512
(igraph
Vertex
p1513
(dp1514
g14
F-75.29123353903276
sg15
F-162.08669481731297
sg16
I11573794
sg8
I00
sg17
S'101363.350148'
p1515
sg19
g20
sba(igraph
Vertex
p1516
(dp1517
g14
F-75.29123353903276
sg15
F-119.18853989881947
sg16
I11573795
sg8
I00
sg17
S'101363.352404'
p1518
sg19
g20
sbasg24
I00
sg25
I00
sg26
I11573317
sg17
S'101365.1617'
p1519
sba(igraph
Edge
p1520
(dp1521
g7
I1
sg8
I00
sg9
I5
sg10
(lp1522
g1503
ag1513
asg24
I00
sg25
I00
sg26
I11573318
sg17
S'101365.171505'
p1523
sba(igraph
Edge
p1524
(dp1525
g7
I1
sg8
I00
sg9
I5
sg10
(lp1526
g1506
ag1516
asg24
I00
sg25
I00
sg26
I11573319
sg17
S'101365.181586'
p1527
sba(igraph
Edge
p1528
(dp1529
g7
I1
sg8
I00
sg9
I5
sg10
(lp1530
g1506
ag1513
asg24
I00
sg25
I00
sg26
I11573320
sg17
S'101365.195663'
p1531
sba(igraph
Edge
p1532
(dp1533
g7
I1
sg8
I00
sg9
I5
sg10
(lp1534
(igraph
Vertex
p1535
(dp1536
g14
F-110.51558861817279
sg15
F-72.89537762788072
sg16
I11573796
sg8
I00
sg17
S'101363.353985'
p1537
sg19
g20
sba(igraph
Vertex
p1538
(dp1539
g14
F-110.51558861817279
sg15
F-29.997222709387216
sg16
I11573797
sg8
I00
sg17
S'101363.355628'
p1540
sg19
g20
sbasg24
I00
sg25
I00
sg26
I11573321
sg17
S'101365.206219'
p1541
sba(igraph
Edge
p1542
(dp1543
g7
I1
sg8
I00
sg9
I5
sg10
(lp1544
g1538
a(igraph
Vertex
p1545
(dp1546
g14
F-110.51558861817279
sg15
F12.900932209106344
sg16
I11573798
sg8
I00
sg17
S'101363.357084'
p1547
sg19
I0
sbasg24
I00
sg25
I00
sg26
I11573322
sg17
S'101365.217332'
p1548
sba(igraph
Edge
p1549
(dp1550
g7
I1
sg8
I00
sg9
I5
sg10
(lp1551
(igraph
Vertex
p1552
(dp1553
g14
F-75.330088692325148
sg15
F-72.89537762788072
sg16
I11573800
sg8
I00
sg17
S'101363.358652'
p1554
sg19
g20
sba(igraph
Vertex
p1555
(dp1556
g14
F-75.330088692325148
sg15
F-29.997222709387216
sg16
I11573801
sg8
I00
sg17
S'101363.360209'
p1557
sg19
g20
sbasg24
I00
sg25
I00
sg26
I11573323
sg17
S'101365.228247'
p1558
sba(igraph
Edge
p1559
(dp1560
g7
I1
sg8
I00
sg9
I5
sg10
(lp1561
g1555
a(igraph
Vertex
p1562
(dp1563
g14
F-75.330088692325148
sg15
F12.900932209106344
sg16
I11573802
sg8
I00
sg17
S'101363.361708'
p1564
sg19
g20
sbasg24
I00
sg25
I00
sg26
I11573324
sg17
S'101365.239754'
p1565
sba(igraph
Edge
p1566
(dp1567
g7
I1
sg8
I00
sg9
I5
sg10
(lp1568
g1535
ag1552
asg24
I00
sg25
I00
sg26
I11573325
sg17
S'101365.253401'
p1569
sba(igraph
Edge
p1570
(dp1571
g7
I1
sg8
I00
sg9
I5
sg10
(lp1572
g1538
ag1555
asg24
I00
sg25
I00
sg26
I11573326
sg17
S'101365.264358'
p1573
sba(igraph
Edge
p1574
(dp1575
g7
I1
sg8
I00
sg9
I5
sg10
(lp1576
g1545
ag1562
asg24
I00
sg25
I00
sg26
I11573327
sg17
S'101365.275885'
p1577
sba(igraph
Edge
p1578
(dp1579
g7
I1
sg8
I00
sg9
I5
sg10
(lp1580
g1538
ag1552
asg24
I00
sg25
I00
sg26
I11573328
sg17
S'101365.286421'
p1581
sba(igraph
Edge
p1582
(dp1583
g7
I1
sg8
I00
sg9
I5
sg10
(lp1584
g1545
ag1555
asg24
I00
sg25
I00
sg26
I11573329
sg17
S'101365.296893'
p1585
sba(igraph
Edge
p1586
(dp1587
g7
I1
sg8
I00
sg9
I5
sg10
(lp1588
g1506
ag1535
asg24
I00
sg25
I00
sg26
I11573330
sg17
S'101365.310286'
p1589
sba(igraph
Edge
p1590
(dp1591
g7
I1
sg8
I00
sg9
I5
sg10
(lp1592
g1516
ag1535
asg24
I00
sg25
I00
sg26
I11573331
sg17
S'101365.32117'
p1593
sba(igraph
Edge
p1594
(dp1595
g7
I1
sg8
I00
sg9
I5
sg10
(lp1596
g1516
ag1552
asg24
I00
sg25
I00
sg26
I11573332
sg17
S'101365.331834'
p1597
sba(igraph
Edge
p1598
(dp1599
g7
I1
sg8
I00
sg9
I5
sg10
(lp1600
(igraph
Vertex
p1601
(dp1602
g14
F-110.61877717763178
sg15
F57.84706972456442
sg16
I11573803
sg8
I00
sg17
S'101363.363326'
p1603
sg19
g20
sba(igraph
Vertex
p1604
(dp1605
g14
F-110.61877717763178
sg15
F100.74522464305798
sg16
I11573804
sg8
I00
sg17
S'101363.364908'
p1606
sg19
g20
sbasg24
I00
sg25
I00
sg26
I11573333
sg17
S'101365.343332'
p1607
sba(igraph
Edge
p1608
(dp1609
g7
I1
sg8
I00
sg9
I5
sg10
(lp1610
g1604
a(igraph
Vertex
p1611
(dp1612
g14
F-110.61877717763178
sg15
F143.64337956155148
sg16
I11573805
sg8
I00
sg17
S'101363.366461'
p1613
sg19
g20
sbasg24
I00
sg25
I00
sg26
I11573334
sg17
S'101365.356174'
p1614
sba(igraph
Edge
p1615
(dp1616
g7
I1
sg8
I00
sg9
I5
sg10
(lp1617
(igraph
Vertex
p1618
(dp1619
g14
F-75.433277251784205
sg15
F57.84706972456442
sg16
I11573806
sg8
I00
sg17
S'101363.368019'
p1620
sg19
g20
sba(igraph
Vertex
p1621
(dp1622
g14
F-75.433277251784205
sg15
F100.74522464305798
sg16
I11573807
sg8
I00
sg17
S'101363.369683'
p1623
sg19
g20
sbasg24
I00
sg25
I00
sg26
I11573335
sg17
S'101365.371858'
p1624
sba(igraph
Edge
p1625
(dp1626
g7
I1
sg8
I00
sg9
I5
sg10
(lp1627
g1621
a(igraph
Vertex
p1628
(dp1629
g14
F-75.433277251784205
sg15
F143.64337956155148
sg16
I11573808
sg8
I00
sg17
S'101363.371387'
p1630
sg19
g20
sbasg24
I00
sg25
I00
sg26
I11573336
sg17
S'101365.394796'
p1631
sba(igraph
Edge
p1632
(dp1633
g7
I1
sg8
I00
sg9
I5
sg10
(lp1634
g1601
ag1618
asg24
I00
sg25
I00
sg26
I11573337
sg17
S'101365.405581'
p1635
sba(igraph
Edge
p1636
(dp1637
g7
I1
sg8
I00
sg9
I5
sg10
(lp1638
g1604
ag1621
asg24
I00
sg25
I00
sg26
I11573338
sg17
S'101365.416758'
p1639
sba(igraph
Edge
p1640
(dp1641
g7
I1
sg8
I00
sg9
I5
sg10
(lp1642
g1611
ag1628
asg24
I00
sg25
I00
sg26
I11573339
sg17
S'101365.427412'
p1643
sba(igraph
Edge
p1644
(dp1645
g7
I1
sg8
I00
sg9
I5
sg10
(lp1646
g1604
ag1618
asg24
I00
sg25
I00
sg26
I11573340
sg17
S'101365.437752'
p1647
sba(igraph
Edge
p1648
(dp1649
g7
I1
sg8
I00
sg9
I5
sg10
(lp1650
g1611
ag1621
asg24
I00
sg25
I00
sg26
I11573341
sg17
S'101365.454711'
p1651
sba(igraph
Edge
p1652
(dp1653
g7
I1
sg8
I00
sg9
I5
sg10
(lp1654
(igraph
Vertex
p1655
(dp1656
g14
F-110.65763233092412
sg15
F189.93654183249029
sg16
I11573809
sg8
I00
sg17
S'101363.372941'
p1657
sg19
g20
sba(igraph
Vertex
p1658
(dp1659
g14
F-75.472132405076536
sg15
F189.93654183249029
sg16
I11573810
sg8
I00
sg17
S'101363.37459'
p1660
sg19
g20
sbasg24
I00
sg25
I00
sg26
I11573342
sg17
S'101365.472606'
p1661
sba(igraph
Edge
p1662
(dp1663
g7
I1
sg8
I00
sg9
I5
sg10
(lp1664
g1611
ag1655
asg24
I00
sg25
I00
sg26
I11573343
sg17
S'101365.487893'
p1665
sba(igraph
Edge
p1666
(dp1667
g7
I1
sg8
I00
sg9
I5
sg10
(lp1668
g1628
ag1655
asg24
I00
sg25
I00
sg26
I11573344
sg17
S'101365.50212'
p1669
sba(igraph
Edge
p1670
(dp1671
g7
I1
sg8
I00
sg9
I5
sg10
(lp1672
g1628
ag1658
asg24
I00
sg25
I00
sg26
I11573345
sg17
S'101365.514441'
p1673
sba(igraph
Edge
p1674
(dp1675
g7
I1
sg8
I00
sg9
I5
sg10
(lp1676
g1545
ag1601
asg24
I00
sg25
I00
sg26
I11573346
sg17
S'101365.528058'
p1677
sba(igraph
Edge
p1678
(dp1679
g7
I1
sg8
I00
sg9
I5
sg10
(lp1680
g1562
ag1601
asg24
I00
sg25
I00
sg26
I11573347
sg17
S'101365.541517'
p1681
sba(igraph
Edge
p1682
(dp1683
g7
I1
sg8
I00
sg9
I5
sg10
(lp1684
g1562
ag1618
asg24
I00
sg25
I00
sg26
I11573348
sg17
S'101365.55551'
p1685
sba(igraph
Edge
p1686
(dp1687
g7
I1
sg8
I00
sg9
I5
sg10
(lp1688
(igraph
Vertex
p1689
(dp1690
g14
F-107.99243809741665
sg15
F237.05380364249575
sg16
I11573811
sg8
I00
sg17
S'101363.376661'
p1691
sg19
g20
sba(igraph
Vertex
p1692
(dp1693
g14
F-72.806938171569016
sg15
F237.05380364249575
sg16
I11573812
sg8
I00
sg17
S'101363.378383'
p1694
sg19
g20
sbasg24
I00
sg25
I00
sg26
I11573349
sg17
S'101365.571384'
p1695
sba(igraph
Edge
p1696
(dp1697
g7
I1
sg8
I00
sg9
I5
sg10
(lp1698
g1655
ag1689
asg24
I00
sg25
I00
sg26
I11573350
sg17
S'101365.586697'
p1699
sba(igraph
Edge
p1700
(dp1701
g7
I1
sg8
I00
sg9
I5
sg10
(lp1702
g1658
ag1689
asg24
I00
sg25
I00
sg26
I11573351
sg17
S'101365.599839'
p1703
sba(igraph
Edge
p1704
(dp1705
g7
I1
sg8
I00
sg9
I5
sg10
(lp1706
g1658
ag1692
asg24
I00
sg25
I00
sg26
I11573352
sg17
S'101365.613253'
p1707
sba(igraph
Edge
p1708
(dp1709
g7
I1
sg8
I00
sg9
I5
sg10
(lp1710
g330
ag1513
asg24
I00
sg25
I00
sg26
I11573353
sg17
S'101365.626521'
p1711
sba(igraph
Edge
p1712
(dp1713
g7
I1
sg8
I00
sg9
I5
sg10
(lp1714
g330
ag1516
asg24
I00
sg25
I00
sg26
I11573354
sg17
S'101365.641669'
p1715
sba(igraph
Edge
p1716
(dp1717
g7
I1
sg8
I00
sg9
I5
sg10
(lp1718
g333
ag1516
asg24
I00
sg25
I00
sg26
I11573355
sg17
S'101365.653229'
p1719
sba(igraph
Edge
p1720
(dp1721
g7
I1
sg8
I00
sg9
I5
sg10
(lp1722
g333
ag1552
asg24
I00
sg25
I00
sg26
I11573356
sg17
S'101365.665341'
p1723
sba(igraph
Edge
p1724
(dp1725
g7
I1
sg8
I00
sg9
I5
sg10
(lp1726
g340
ag1552
asg24
I00
sg25
I00
sg26
I11573357
sg17
S'101365.67762'
p1727
sba(igraph
Edge
p1728
(dp1729
g7
I1
sg8
I00
sg9
I5
sg10
(lp1730
g340
ag1555
asg24
I00
sg25
I00
sg26
I11573358
sg17
S'101365.706886'
p1731
sba(igraph
Edge
p1732
(dp1733
g7
I1
sg8
I00
sg9
I5
sg10
(lp1734
g343
ag1555
asg24
I00
sg25
I00
sg26
I11573359
sg17
S'101365.725218'
p1735
sba(igraph
Edge
p1736
(dp1737
g7
I1
sg8
I00
sg9
I5
sg10
(lp1738
g343
ag1562
asg24
I00
sg25
I00
sg26
I11573360
sg17
S'101365.739593'
p1739
sba(igraph
Edge
p1740
(dp1741
g7
I1
sg8
I00
sg9
I5
sg10
(lp1742
g350
ag1562
asg24
I00
sg25
I00
sg26
I11573361
sg17
S'101365.755496'
p1743
sba(igraph
Edge
p1744
(dp1745
g7
I1
sg8
I00
sg9
I5
sg10
(lp1746
g350
ag1618
asg24
I00
sg25
I00
sg26
I11573362
sg17
S'101365.771262'
p1747
sba(igraph
Edge
p1748
(dp1749
g7
I1
sg8
I00
sg9
I5
sg10
(lp1750
g361
ag1618
asg24
I00
sg25
I00
sg26
I11573363
sg17
S'101365.787117'
p1751
sba(igraph
Edge
p1752
(dp1753
g7
I1
sg8
I00
sg9
I5
sg10
(lp1754
g361
ag1621
asg24
I00
sg25
I00
sg26
I11573364
sg17
S'101365.805393'
p1755
sba(igraph
Edge
p1756
(dp1757
g7
I1
sg8
I00
sg9
I5
sg10
(lp1758
g364
ag1621
asg24
I00
sg25
I00
sg26
I11573365
sg17
S'101365.819561'
p1759
sba(igraph
Edge
p1760
(dp1761
g7
I1
sg8
I00
sg9
I5
sg10
(lp1762
g364
ag1628
asg24
I00
sg25
I00
sg26
I11573366
sg17
S'101365.832771'
p1763
sba(igraph
Edge
p1764
(dp1765
g7
I1
sg8
I00
sg9
I5
sg10
(lp1766
g371
ag1628
asg24
I00
sg25
I00
sg26
I11573367
sg17
S'101365.852246'
p1767
sba(igraph
Edge
p1768
(dp1769
g7
I1
sg8
I00
sg9
I5
sg10
(lp1770
g371
ag1658
asg24
I00
sg25
I00
sg26
I11573368
sg17
S'101365.86594'
p1771
sba(igraph
Edge
p1772
(dp1773
g7
I1
sg8
I00
sg9
I5
sg10
(lp1774
g378
ag1658
asg24
I00
sg25
I00
sg26
I11573369
sg17
S'101365.880708'
p1775
sba(igraph
Edge
p1776
(dp1777
g7
I1
sg8
I00
sg9
I5
sg10
(lp1778
g378
ag1692
asg24
I00
sg25
I00
sg26
I11573370
sg17
S'101365.894543'
p1779
sba(igraph
Edge
p1780
(dp1781
g7
I1
sg8
I00
sg9
I5
sg10
(lp1782
g1109
ag1692
asg24
I00
sg25
I00
sg26
I11573371
sg17
S'101365.907693'
p1783
sba(igraph
Edge
p1784
(dp1785
g7
I1
sg8
I00
sg9
I5
sg10
(lp1786
(igraph
Vertex
p1787
(dp1788
g14
F-138.43839217912466
sg15
F-161.12478065205161
sg16
I11573813
sg8
I00
sg17
S'101363.380036'
p1789
sg19
g20
sba(igraph
Vertex
p1790
(dp1791
g14
F-138.43839217912466
sg15
F-118.22662573355811
sg16
I11573814
sg8
I00
sg17
S'101363.381791'
p1792
sg19
g20
sbasg24
I00
sg25
I00
sg26
I11573372
sg17
S'101365.920859'
p1793
sba(igraph
Edge
p1794
(dp1795
g7
I1
sg8
I00
sg9
I5
sg10
(lp1796
(igraph
Vertex
p1797
(dp1798
g14
F-138.47724733241699
sg15
F-71.933463462619358
sg16
I11573815
sg8
I00
sg17
S'101363.383458'
p1799
sg19
g20
sba(igraph
Vertex
p1800
(dp1801
g14
F-138.47724733241699
sg15
F-29.035308544125854
sg16
I11573816
sg8
I00
sg17
S'101363.385143'
p1802
sg19
g20
sbasg24
I00
sg25
I00
sg26
I11573373
sg17
S'101365.936365'
p1803
sba(igraph
Edge
p1804
(dp1805
g7
I1
sg8
I00
sg9
I5
sg10
(lp1806
g1800
a(igraph
Vertex
p1807
(dp1808
g14
F-138.47724733241699
sg15
F13.862846374367706
sg16
I11573817
sg8
I00
sg17
S'101363.387448'
p1809
sg19
g20
sbasg24
I00
sg25
I00
sg26
I11573374
sg17
S'101365.955451'
p1810
sba(igraph
Edge
p1811
(dp1812
g7
I1
sg8
I00
sg9
I5
sg10
(lp1813
g1790
ag1797
asg24
I00
sg25
I00
sg26
I11573375
sg17
S'101365.967509'
p1814
sba(igraph
Edge
p1815
(dp1816
g7
I1
sg8
I00
sg9
I5
sg10
(lp1817
(igraph
Vertex
p1818
(dp1819
g14
F-138.58043589187605
sg15
F58.808983889825782
sg16
I11573818
sg8
I00
sg17
S'101363.389306'
p1820
sg19
g20
sba(igraph
Vertex
p1821
(dp1822
g14
F-138.58043589187605
sg15
F101.70713880831934
sg16
I11573819
sg8
I00
sg17
S'101363.391203'
p1823
sg19
g20
sbasg24
I00
sg25
I00
sg26
I11573376
sg17
S'101365.980969'
p1824
sba(igraph
Edge
p1825
(dp1826
g7
I1
sg8
I00
sg9
I5
sg10
(lp1827
g1821
a(igraph
Vertex
p1828
(dp1829
g14
F-138.58043589187605
sg15
F144.60529372681285
sg16
I11573820
sg8
I00
sg17
S'101363.392943'
p1830
sg19
g20
sbasg24
I00
sg25
I00
sg26
I11573377
sg17
S'101365.995076'
p1831
sba(igraph
Edge
p1832
(dp1833
g7
I1
sg8
I00
sg9
I5
sg10
(lp1834
g1828
a(igraph
Vertex
p1835
(dp1836
g14
F-138.61929104516841
sg15
F190.89845599775165
sg16
I11573821
sg8
I00
sg17
S'101363.39505'
p1837
sg19
g20
sbasg24
I00
sg25
I00
sg26
I11573378
sg17
S'101366.007964'
p1838
sba(igraph
Edge
p1839
(dp1840
g7
I1
sg8
I00
sg9
I5
sg10
(lp1841
g1807
ag1818
asg24
I00
sg25
I00
sg26
I11573379
sg17
S'101366.021933'
p1842
sba(igraph
Edge
p1843
(dp1844
g7
I1
sg8
I00
sg9
I5
sg10
(lp1845
(igraph
Vertex
p1846
(dp1847
g14
F-169.9562750363213
sg15
F-160.59807596402462
sg16
I11573822
sg8
I00
sg17
S'101363.397425'
p1848
sg19
g20
sba(igraph
Vertex
p1849
(dp1850
g14
F-169.9562750363213
sg15
F-117.69992104553111
sg16
I11573823
sg8
I00
sg17
S'101363.399629'
p1851
sg19
g20
sbasg24
I00
sg25
I00
sg26
I11573380
sg17
S'101366.0351'
p1852
sba(igraph
Edge
p1853
(dp1854
g7
I1
sg8
I00
sg9
I5
sg10
(lp1855
(igraph
Vertex
p1856
(dp1857
g14
F-169.99513018961369
sg15
F-71.406758774592362
sg16
I11573824
sg8
I00
sg17
S'101363.401471'
p1858
sg19
g20
sba(igraph
Vertex
p1859
(dp1860
g14
F-169.99513018961369
sg15
F-28.508603856098858
sg16
I11573825
sg8
I00
sg17
S'101363.403402'
p1861
sg19
g20
sbasg24
I00
sg25
I00
sg26
I11573381
sg17
S'101366.048159'
p1862
sba(igraph
Edge
p1863
(dp1864
g7
I1
sg8
I00
sg9
I5
sg10
(lp1865
g1859
a(igraph
Vertex
p1866
(dp1867
g14
F-169.99513018961369
sg15
F14.389551062394702
sg16
I11573826
sg8
I00
sg17
S'101363.405242'
p1868
sg19
g20
sbasg24
I00
sg25
I00
sg26
I11573382
sg17
S'101366.062091'
p1869
sba(igraph
Edge
p1870
(dp1871
g7
I1
sg8
I00
sg9
I5
sg10
(lp1872
g1849
ag1856
asg24
I00
sg25
I00
sg26
I11573383
sg17
S'101366.085181'
p1873
sba(igraph
Edge
p1874
(dp1875
g7
I1
sg8
I00
sg9
I5
sg10
(lp1876
(igraph
Vertex
p1877
(dp1878
g14
F-170.09831874907275
sg15
F59.335688577852778
sg16
I11573827
sg8
I00
sg17
S'101363.407172'
p1879
sg19
I0
sba(igraph
Vertex
p1880
(dp1881
g14
F-170.09831874907275
sg15
F102.23384349634628
sg16
I11573829
sg8
I00
sg17
S'101363.409033'
p1882
sg19
g20
sbasg24
I00
sg25
I00
sg26
I11573384
sg17
S'101366.105436'
p1883
sba(igraph
Edge
p1884
(dp1885
g7
I1
sg8
I00
sg9
I5
sg10
(lp1886
g1880
a(igraph
Vertex
p1887
(dp1888
g14
F-170.09831874907275
sg15
F145.13199841483984
sg16
I11573830
sg8
I00
sg17
S'101363.410944'
p1889
sg19
g20
sbasg24
I00
sg25
I00
sg26
I11573385
sg17
S'101366.128944'
p1890
sba(igraph
Edge
p1891
(dp1892
g7
I1
sg8
I00
sg9
I5
sg10
(lp1893
g1887
a(igraph
Vertex
p1894
(dp1895
g14
F-170.13717390236508
sg15
F191.42516068577865
sg16
I11573831
sg8
I00
sg17
S'101363.412851'
p1896
sg19
g20
sbasg24
I00
sg25
I00
sg26
I11573386
sg17
S'101366.141975'
p1897
sba(igraph
Edge
p1898
(dp1899
g7
I1
sg8
I00
sg9
I5
sg10
(lp1900
g1866
ag1877
asg24
I00
sg25
I00
sg26
I11573387
sg17
S'101366.160995'
p1901
sba(igraph
Edge
p1902
(dp1903
g7
I1
sg8
I00
sg9
I5
sg10
(lp1904
g1787
ag1846
asg24
I00
sg25
I00
sg26
I11573388
sg17
S'101366.174614'
p1905
sba(igraph
Edge
p1906
(dp1907
g7
I1
sg8
I00
sg9
I5
sg10
(lp1908
g1787
ag1849
asg24
I00
sg25
I00
sg26
I11573389
sg17
S'101366.193258'
p1909
sba(igraph
Edge
p1910
(dp1911
g7
I1
sg8
I00
sg9
I5
sg10
(lp1912
g1790
ag1849
asg24
I00
sg25
I00
sg26
I11573390
sg17
S'101366.210171'
p1913
sba(igraph
Edge
p1914
(dp1915
g7
I1
sg8
I00
sg9
I5
sg10
(lp1916
g1790
ag1856
asg24
I00
sg25
I00
sg26
I11573391
sg17
S'101366.226659'
p1917
sba(igraph
Edge
p1918
(dp1919
g7
I1
sg8
I00
sg9
I5
sg10
(lp1920
g1797
ag1856
asg24
I00
sg25
I00
sg26
I11573392
sg17
S'101366.243474'
p1921
sba(igraph
Edge
p1922
(dp1923
g7
I1
sg8
I00
sg9
I5
sg10
(lp1924
g1797
ag1859
asg24
I00
sg25
I00
sg26
I11573393
sg17
S'101366.258745'
p1925
sba(igraph
Edge
p1926
(dp1927
g7
I1
sg8
I00
sg9
I5
sg10
(lp1928
g1800
ag1859
asg24
I00
sg25
I00
sg26
I11573394
sg17
S'101366.275821'
p1929
sba(igraph
Edge
p1930
(dp1931
g7
I1
sg8
I00
sg9
I5
sg10
(lp1932
g1800
ag1866
asg24
I00
sg25
I00
sg26
I11573395
sg17
S'101366.293858'
p1933
sba(igraph
Edge
p1934
(dp1935
g7
I1
sg8
I00
sg9
I5
sg10
(lp1936
g1807
ag1866
asg24
I00
sg25
I00
sg26
I11573396
sg17
S'101366.311114'
p1937
sba(igraph
Edge
p1938
(dp1939
g7
I1
sg8
I00
sg9
I5
sg10
(lp1940
g1807
ag1877
asg24
I00
sg25
I00
sg26
I11573397
sg17
S'101366.326903'
p1941
sba(igraph
Edge
p1942
(dp1943
g7
I1
sg8
I00
sg9
I5
sg10
(lp1944
g1818
ag1877
asg24
I00
sg25
I00
sg26
I11573398
sg17
S'101366.339623'
p1945
sba(igraph
Edge
p1946
(dp1947
g7
I1
sg8
I00
sg9
I5
sg10
(lp1948
g1818
ag1880
asg24
I00
sg25
I00
sg26
I11573399
sg17
S'101366.356162'
p1949
sba(igraph
Edge
p1950
(dp1951
g7
I1
sg8
I00
sg9
I5
sg10
(lp1952
g1821
ag1880
asg24
I00
sg25
I00
sg26
I11573400
sg17
S'101366.372827'
p1953
sba(igraph
Edge
p1954
(dp1955
g7
I1
sg8
I00
sg9
I5
sg10
(lp1956
g1821
ag1887
asg24
I00
sg25
I00
sg26
I11573401
sg17
S'101366.401832'
p1957
sba(igraph
Edge
p1958
(dp1959
g7
I1
sg8
I00
sg9
I5
sg10
(lp1960
g1828
ag1887
asg24
I00
sg25
I00
sg26
I11573402
sg17
S'101366.416532'
p1961
sba(igraph
Edge
p1962
(dp1963
g7
I1
sg8
I00
sg9
I5
sg10
(lp1964
g1828
ag1894
asg24
I00
sg25
I00
sg26
I11573403
sg17
S'101366.429225'
p1965
sba(igraph
Edge
p1966
(dp1967
g7
I1
sg8
I00
sg9
I5
sg10
(lp1968
g1835
ag1894
asg24
I00
sg25
I00
sg26
I11573404
sg17
S'101366.442322'
p1969
sba(igraph
Edge
p1970
(dp1971
g7
I1
sg8
I00
sg9
I5
sg10
(lp1972
(igraph
Vertex
p1973
(dp1974
g14
F-135.95409681166086
sg15
F238.01571780775717
sg16
I11573832
sg8
I00
sg17
S'101363.414784'
p1975
sg19
g20
sba(igraph
Vertex
p1976
(dp1977
g14
F-167.47197966885747
sg15
F238.54242249578417
sg16
I11573833
sg8
I00
sg17
S'101363.417344'
p1978
sg19
g20
sbasg24
I00
sg25
I00
sg26
I11573405
sg17
S'101366.459265'
p1979
sba(igraph
Edge
p1980
(dp1981
g7
I1
sg8
I00
sg9
I5
sg10
(lp1982
g1835
ag1976
asg24
I00
sg25
I00
sg26
I11573406
sg17
S'101366.479568'
p1983
sba(igraph
Edge
p1984
(dp1985
g7
I1
sg8
I00
sg9
I5
sg10
(lp1986
g1894
ag1976
asg24
I00
sg25
I00
sg26
I11573407
sg17
S'101366.497099'
p1987
sba(igraph
Edge
p1988
(dp1989
g7
I1
sg8
I00
sg9
I5
sg10
(lp1990
g1835
ag1973
asg24
I00
sg25
I00
sg26
I11573408
sg17
S'101366.510675'
p1991
sba(igraph
Edge
p1992
(dp1993
g7
I1
sg8
I00
sg9
I5
sg10
(lp1994
(igraph
Vertex
p1995
(dp1996
g14
F-204.27239853427108
sg15
F-160.52190429454734
sg16
I11573834
sg8
I00
sg17
S'101363.419424'
p1997
sg19
g20
sba(igraph
Vertex
p1998
(dp1999
g14
F-204.27239853427108
sg15
F-117.62374937605384
sg16
I11573835
sg8
I00
sg17
S'101363.421347'
p2000
sg19
g20
sbasg24
I00
sg25
I00
sg26
I11573409
sg17
S'101366.525852'
p2001
sba(igraph
Edge
p2002
(dp2003
g7
I1
sg8
I00
sg9
I5
sg10
(lp2004
(igraph
Vertex
p2005
(dp2006
g14
F-204.31125368756349
sg15
F-71.330587105115086
sg16
I11573836
sg8
I00
sg17
S'101363.423422'
p2007
sg19
g20
sba(igraph
Vertex
p2008
(dp2009
g14
F-204.31125368756349
sg15
F-28.432432186621583
sg16
I11573837
sg8
I00
sg17
S'101363.425563'
p2010
sg19
g20
sbasg24
I00
sg25
I00
sg26
I11573410
sg17
S'101366.5435'
p2011
sba(igraph
Edge
p2012
(dp2013
g7
I1
sg8
I00
sg9
I5
sg10
(lp2014
g2008
a(igraph
Vertex
p2015
(dp2016
g14
F-204.31125368756349
sg15
F14.465722731871978
sg16
I11573838
sg8
I00
sg17
S'101363.42759'
p2017
sg19
g20
sbasg24
I00
sg25
I00
sg26
I11573411
sg17
S'101366.558505'
p2018
sba(igraph
Edge
p2019
(dp2020
g7
I1
sg8
I00
sg9
I5
sg10
(lp2021
g1998
ag2005
asg24
I00
sg25
I00
sg26
I11573412
sg17
S'101366.578319'
p2022
sba(igraph
Edge
p2023
(dp2024
g7
I1
sg8
I00
sg9
I5
sg10
(lp2025
(igraph
Vertex
p2026
(dp2027
g14
F-204.41444224702252
sg15
F59.411860247330054
sg16
I11573839
sg8
I00
sg17
S'101363.42954'
p2028
sg19
g20
sba(igraph
Vertex
p2029
(dp2030
g14
F-204.41444224702252
sg15
F102.31001516582361
sg16
I11573840
sg8
I00
sg17
S'101363.431619'
p2031
sg19
g20
sbasg24
I00
sg25
I00
sg26
I11573413
sg17
S'101366.595567'
p2032
sba(igraph
Edge
p2033
(dp2034
g7
I1
sg8
I00
sg9
I5
sg10
(lp2035
g2029
a(igraph
Vertex
p2036
(dp2037
g14
F-204.41444224702252
sg15
F145.20817008431712
sg16
I11573841
sg8
I00
sg17
S'101363.433592'
p2038
sg19
I0
sbasg24
I00
sg25
I00
sg26
I11573414
sg17
S'101366.615516'
p2039
sba(igraph
Edge
p2040
(dp2041
g7
I1
sg8
I00
sg9
I5
sg10
(lp2042
g2036
a(igraph
Vertex
p2043
(dp2044
g14
F-204.45329740031488
sg15
F191.50133235525593
sg16
I11573843
sg8
I00
sg17
S'101363.435734'
p2045
sg19
g20
sbasg24
I00
sg25
I00
sg26
I11573415
sg17
S'101366.632367'
p2046
sba(igraph
Edge
p2047
(dp2048
g7
I1
sg8
I00
sg9
I5
sg10
(lp2049
g2015
ag2026
asg24
I00
sg25
I00
sg26
I11573416
sg17
S'101366.648863'
p2050
sba(igraph
Edge
p2051
(dp2052
g7
I1
sg8
I00
sg9
I5
sg10
(lp2053
g2043
a(igraph
Vertex
p2054
(dp2055
g14
F-201.78810316680733
sg15
F238.61859416526138
sg16
I11573844
sg8
I00
sg17
S'101363.438676'
p2056
sg19
g20
sbasg24
I00
sg25
I00
sg26
I11573417
sg17
S'101366.664095'
p2057
sba(igraph
Edge
p2058
(dp2059
g7
I1
sg8
I00
sg9
I5
sg10
(lp2060
g1846
ag1995
asg24
I00
sg25
I00
sg26
I11573418
sg17
S'101366.680111'
p2061
sba(igraph
Edge
p2062
(dp2063
g7
I1
sg8
I00
sg9
I5
sg10
(lp2064
g1846
ag1998
asg24
I00
sg25
I00
sg26
I11573419
sg17
S'101366.697271'
p2065
sba(igraph
Edge
p2066
(dp2067
g7
I1
sg8
I00
sg9
I5
sg10
(lp2068
g1849
ag1998
asg24
I00
sg25
I00
sg26
I11573420
sg17
S'101366.711379'
p2069
sba(igraph
Edge
p2070
(dp2071
g7
I1
sg8
I00
sg9
I5
sg10
(lp2072
g1849
ag2005
asg24
I00
sg25
I00
sg26
I11573421
sg17
S'101366.726888'
p2073
sba(igraph
Edge
p2074
(dp2075
g7
I1
sg8
I00
sg9
I5
sg10
(lp2076
g1856
ag2005
asg24
I00
sg25
I00
sg26
I11573422
sg17
S'101366.741988'
p2077
sba(igraph
Edge
p2078
(dp2079
g7
I1
sg8
I00
sg9
I5
sg10
(lp2080
g1856
ag2008
asg24
I00
sg25
I00
sg26
I11573423
sg17
S'101366.756766'
p2081
sba(igraph
Edge
p2082
(dp2083
g7
I1
sg8
I00
sg9
I5
sg10
(lp2084
g1859
ag2008
asg24
I00
sg25
I00
sg26
I11573424
sg17
S'101366.773194'
p2085
sba(igraph
Edge
p2086
(dp2087
g7
I1
sg8
I00
sg9
I5
sg10
(lp2088
g1859
ag2015
asg24
I00
sg25
I00
sg26
I11573425
sg17
S'101366.787434'
p2089
sba(igraph
Edge
p2090
(dp2091
g7
I1
sg8
I00
sg9
I5
sg10
(lp2092
g1866
ag2015
asg24
I00
sg25
I00
sg26
I11573426
sg17
S'101366.800773'
p2093
sba(igraph
Edge
p2094
(dp2095
g7
I1
sg8
I00
sg9
I5
sg10
(lp2096
g1866
ag2026
asg24
I00
sg25
I00
sg26
I11573427
sg17
S'101366.814538'
p2097
sba(igraph
Edge
p2098
(dp2099
g7
I1
sg8
I00
sg9
I5
sg10
(lp2100
g1877
ag2026
asg24
I00
sg25
I00
sg26
I11573428
sg17
S'101366.828922'
p2101
sba(igraph
Edge
p2102
(dp2103
g7
I1
sg8
I00
sg9
I5
sg10
(lp2104
g1877
ag2029
asg24
I00
sg25
I00
sg26
I11573429
sg17
S'101366.841748'
p2105
sba(igraph
Edge
p2106
(dp2107
g7
I1
sg8
I00
sg9
I5
sg10
(lp2108
g1880
ag2029
asg24
I00
sg25
I00
sg26
I11573430
sg17
S'101366.857564'
p2109
sba(igraph
Edge
p2110
(dp2111
g7
I1
sg8
I00
sg9
I5
sg10
(lp2112
g1880
ag2036
asg24
I00
sg25
I00
sg26
I11573431
sg17
S'101366.870634'
p2113
sba(igraph
Edge
p2114
(dp2115
g7
I1
sg8
I00
sg9
I5
sg10
(lp2116
g1887
ag2036
asg24
I00
sg25
I00
sg26
I11573432
sg17
S'101366.884853'
p2117
sba(igraph
Edge
p2118
(dp2119
g7
I1
sg8
I00
sg9
I5
sg10
(lp2120
g1887
ag2043
asg24
I00
sg25
I00
sg26
I11573433
sg17
S'101366.901419'
p2121
sba(igraph
Edge
p2122
(dp2123
g7
I1
sg8
I00
sg9
I5
sg10
(lp2124
g1894
ag2043
asg24
I00
sg25
I00
sg26
I11573434
sg17
S'101366.915421'
p2125
sba(igraph
Edge
p2126
(dp2127
g7
I1
sg8
I00
sg9
I5
sg10
(lp2128
g1894
ag2054
asg24
I00
sg25
I00
sg26
I11573435
sg17
S'101366.929145'
p2129
sba(igraph
Edge
p2130
(dp2131
g7
I1
sg8
I00
sg9
I5
sg10
(lp2132
g1976
ag2054
asg24
I00
sg25
I00
sg26
I11573436
sg17
S'101366.946091'
p2133
sba(igraph
Edge
p2134
(dp2135
g7
I1
sg8
I00
sg9
I5
sg10
(lp2136
g1503
ag1787
asg24
I00
sg25
I00
sg26
I11573437
sg17
S'101366.959458'
p2137
sba(igraph
Edge
p2138
(dp2139
g7
I1
sg8
I00
sg9
I5
sg10
(lp2140
g1503
ag1790
asg24
I00
sg25
I00
sg26
I11573438
sg17
S'101366.974267'
p2141
sba(igraph
Edge
p2142
(dp2143
g7
I1
sg8
I00
sg9
I5
sg10
(lp2144
g1506
ag1790
asg24
I00
sg25
I00
sg26
I11573439
sg17
S'101366.987702'
p2145
sba(igraph
Edge
p2146
(dp2147
g7
I1
sg8
I00
sg9
I5
sg10
(lp2148
g1506
ag1797
asg24
I00
sg25
I00
sg26
I11573440
sg17
S'101367.001543'
p2149
sba(igraph
Edge
p2150
(dp2151
g7
I1
sg8
I00
sg9
I5
sg10
(lp2152
g1535
ag1797
asg24
I00
sg25
I00
sg26
I11573441
sg17
S'101367.017135'
p2153
sba(igraph
Edge
p2154
(dp2155
g7
I1
sg8
I00
sg9
I5
sg10
(lp2156
g1535
ag1800
asg24
I00
sg25
I00
sg26
I11573442
sg17
S'101367.031041'
p2157
sba(igraph
Edge
p2158
(dp2159
g7
I1
sg8
I00
sg9
I5
sg10
(lp2160
g1538
ag1800
asg24
I00
sg25
I00
sg26
I11573443
sg17
S'101367.044728'
p2161
sba(igraph
Edge
p2162
(dp2163
g7
I1
sg8
I00
sg9
I5
sg10
(lp2164
g1538
ag1807
asg24
I00
sg25
I00
sg26
I11573444
sg17
S'101367.059729'
p2165
sba(igraph
Edge
p2166
(dp2167
g7
I1
sg8
I00
sg9
I5
sg10
(lp2168
g1545
ag1807
asg24
I00
sg25
I00
sg26
I11573445
sg17
S'101367.073465'
p2169
sba(igraph
Edge
p2170
(dp2171
g7
I1
sg8
I00
sg9
I5
sg10
(lp2172
g1545
ag1818
asg24
I00
sg25
I00
sg26
I11573446
sg17
S'101367.088088'
p2173
sba(igraph
Edge
p2174
(dp2175
g7
I1
sg8
I00
sg9
I5
sg10
(lp2176
g1601
ag1818
asg24
I00
sg25
I00
sg26
I11573447
sg17
S'101367.103358'
p2177
sba(igraph
Edge
p2178
(dp2179
g7
I1
sg8
I00
sg9
I5
sg10
(lp2180
g1601
ag1821
asg24
I00
sg25
I00
sg26
I11573448
sg17
S'101367.118198'
p2181
sba(igraph
Edge
p2182
(dp2183
g7
I1
sg8
I00
sg9
I5
sg10
(lp2184
g1604
ag1821
asg24
I00
sg25
I00
sg26
I11573449
sg17
S'101367.13304'
p2185
sba(igraph
Edge
p2186
(dp2187
g7
I1
sg8
I00
sg9
I5
sg10
(lp2188
g1604
ag1828
asg24
I00
sg25
I00
sg26
I11573450
sg17
S'101367.14787'
p2189
sba(igraph
Edge
p2190
(dp2191
g7
I1
sg8
I00
sg9
I5
sg10
(lp2192
g1611
ag1828
asg24
I00
sg25
I00
sg26
I11573451
sg17
S'101367.163031'
p2193
sba(igraph
Edge
p2194
(dp2195
g7
I1
sg8
I00
sg9
I5
sg10
(lp2196
g1611
ag1835
asg24
I00
sg25
I00
sg26
I11573452
sg17
S'101367.178236'
p2197
sba(igraph
Edge
p2198
(dp2199
g7
I1
sg8
I00
sg9
I5
sg10
(lp2200
g1655
ag1835
asg24
I00
sg25
I00
sg26
I11573453
sg17
S'101367.195058'
p2201
sba(igraph
Edge
p2202
(dp2203
g7
I1
sg8
I00
sg9
I5
sg10
(lp2204
g1655
ag1973
asg24
I00
sg25
I00
sg26
I11573454
sg17
S'101367.212301'
p2205
sba(igraph
Edge
p2206
(dp2207
g7
I1
sg8
I00
sg9
I5
sg10
(lp2208
g1689
ag1973
asg24
I00
sg25
I00
sg26
I11573455
sg17
S'101367.231239'
p2209
sba(igraph
Edge
p2210
(dp2211
g7
I1
sg8
I00
sg9
I5
sg10
(lp2212
(igraph
Vertex
p2213
(dp2214
g14
F-219.81796190318596
sg15
F-159.2851246149522
sg16
I11573845
sg8
I00
sg17
S'101363.441456'
p2215
sg19
g20
sba(igraph
Vertex
p2216
(dp2217
g14
F-221.05265697632274
sg15
F-116.80957964586838
sg16
I11573846
sg8
I00
sg17
S'101363.443603'
p2218
sg19
g20
sbasg24
I00
sg25
I00
sg26
I11573456
sg17
S'101367.249876'
p2219
sba(igraph
Edge
p2220
(dp2221
g7
I1
sg8
I00
sg9
I5
sg10
(lp2222
(igraph
Vertex
p2223
(dp2224
g14
F-221.09151212961507
sg15
F-70.516417374929631
sg16
I11573847
sg8
I00
sg17
S'101363.446011'
p2225
sg19
g20
sba(igraph
Vertex
p2226
(dp2227
g14
F-221.09151212961507
sg15
F-27.618262456436128
sg16
I11573848
sg8
I00
sg17
S'101363.448176'
p2228
sg19
g20
sbasg24
I00
sg25
I00
sg26
I11573457
sg17
S'101367.265992'
p2229
sba(igraph
Edge
p2230
(dp2231
g7
I1
sg8
I00
sg9
I5
sg10
(lp2232
g2226
a(igraph
Vertex
p2233
(dp2234
g14
F-221.09151212961507
sg15
F15.279892462057433
sg16
I11573849
sg8
I00
sg17
S'101363.450388'
p2235
sg19
g20
sbasg24
I00
sg25
I00
sg26
I11573458
sg17
S'101367.281831'
p2236
sba(igraph
Edge
p2237
(dp2238
g7
I1
sg8
I00
sg9
I5
sg10
(lp2239
g2216
ag2223
asg24
I00
sg25
I00
sg26
I11573459
sg17
S'101367.298687'
p2240
sba(igraph
Edge
p2241
(dp2242
g7
I1
sg8
I00
sg9
I5
sg10
(lp2243
(igraph
Vertex
p2244
(dp2245
g14
F-221.19470068907412
sg15
F60.226029977515509
sg16
I11573850
sg8
I00
sg17
S'101363.452577'
p2246
sg19
g20
sba(igraph
Vertex
p2247
(dp2248
g14
F-221.19470068907412
sg15
F103.12418489600907
sg16
I11573851
sg8
I00
sg17
S'101363.454726'
p2249
sg19
I0
sbasg24
I00
sg25
I00
sg26
I11573460
sg17
S'101367.318208'
p2250
sba(igraph
Edge
p2251
(dp2252
g7
I1
sg8
I00
sg9
I5
sg10
(lp2253
g2247
a(igraph
Vertex
p2254
(dp2255
g14
F-221.19470068907412
sg15
F146.02233981450257
sg16
I11573853
sg8
I00
sg17
S'101363.456988'
p2256
sg19
g20
sbasg24
I00
sg25
I00
sg26
I11573461
sg17
S'101367.336343'
p2257
sba(igraph
Edge
p2258
(dp2259
g7
I1
sg8
I00
sg9
I5
sg10
(lp2260
g2254
a(igraph
Vertex
p2261
(dp2262
g14
F-221.23355584236651
sg15
F192.31550208544138
sg16
I11573854
sg8
I00
sg17
S'101363.459187'
p2263
sg19
g20
sbasg24
I00
sg25
I00
sg26
I11573462
sg17
S'101367.353941'
p2264
sba(igraph
Edge
p2265
(dp2266
g7
I1
sg8
I00
sg9
I5
sg10
(lp2267
g2233
ag2244
asg24
I00
sg25
I00
sg26
I11573463
sg17
S'101367.369223'
p2268
sba(igraph
Edge
p2269
(dp2270
g7
I1
sg8
I00
sg9
I5
sg10
(lp2271
(igraph
Vertex
p2272
(dp2273
g14
F-252.57053983351938
sg15
F-159.18102987633489
sg16
I11573855
sg8
I00
sg17
S'101363.461362'
p2274
sg19
g20
sba(igraph
Vertex
p2275
(dp2276
g14
F-252.57053983351938
sg15
F-116.28287495784139
sg16
I11573856
sg8
I00
sg17
S'101363.464039'
p2277
sg19
g20
sbasg24
I00
sg25
I00
sg26
I11573464
sg17
S'101367.387881'
p2278
sba(igraph
Edge
p2279
(dp2280
g7
I1
sg8
I00
sg9
I5
sg10
(lp2281
(igraph
Vertex
p2282
(dp2283
g14
F-252.60939498681176
sg15
F-69.989712686902635
sg16
I11573857
sg8
I00
sg17
S'101363.466282'
p2284
sg19
g20
sba(igraph
Vertex
p2285
(dp2286
g14
F-252.60939498681176
sg15
F-27.091557768409132
sg16
I11573858
sg8
I00
sg17
S'101363.468621'
p2287
sg19
g20
sbasg24
I00
sg25
I00
sg26
I11573465
sg17
S'101367.403277'
p2288
sba(igraph
Edge
p2289
(dp2290
g7
I1
sg8
I00
sg9
I5
sg10
(lp2291
g2285
a(igraph
Vertex
p2292
(dp2293
g14
F-252.60939498681176
sg15
F15.806597150084428
sg16
I11573859
sg8
I00
sg17
S'101363.470837'
p2294
sg19
g20
sbasg24
I00
sg25
I00
sg26
I11573466
sg17
S'101367.419482'
p2295
sba(igraph
Edge
p2296
(dp2297
g7
I1
sg8
I00
sg9
I5
sg10
(lp2298
g2275
ag2282
asg24
I00
sg25
I00
sg26
I11573467
sg17
S'101367.437077'
p2299
sba(igraph
Edge
p2300
(dp2301
g7
I1
sg8
I00
sg9
I5
sg10
(lp2302
(igraph
Vertex
p2303
(dp2304
g14
F-252.71258354627082
sg15
F60.752734665542505
sg16
I11573860
sg8
I00
sg17
S'101363.47305'
p2305
sg19
g20
sba(igraph
Vertex
p2306
(dp2307
g14
F-252.71258354627082
sg15
F103.65088958403601
sg16
I11573861
sg8
I00
sg17
S'101363.475657'
p2308
sg19
g20
sbasg24
I00
sg25
I00
sg26
I11573468
sg17
S'101367.45795'
p2309
sba(igraph
Edge
p2310
(dp2311
g7
I1
sg8
I00
sg9
I5
sg10
(lp2312
g2306
a(igraph
Vertex
p2313
(dp2314
g14
F-252.71258354627082
sg15
F146.54904450252957
sg16
I11573862
sg8
I00
sg17
S'101363.478566'
p2315
sg19
g20
sbasg24
I00
sg25
I00
sg26
I11573469
sg17
S'101367.485628'
p2316
sba(igraph
Edge
p2317
(dp2318
g7
I1
sg8
I00
sg9
I5
sg10
(lp2319
g2313
a(igraph
Vertex
p2320
(dp2321
g14
F-252.75143869956315
sg15
F192.84220677346838
sg16
I11573863
sg8
I00
sg17
S'101363.480883'
p2322
sg19
g20
sbasg24
I00
sg25
I00
sg26
I11573470
sg17
S'101367.502524'
p2323
sba(igraph
Edge
p2324
(dp2325
g7
I1
sg8
I00
sg9
I5
sg10
(lp2326
g2292
ag2303
asg24
I00
sg25
I00
sg26
I11573471
sg17
S'101367.518715'
p2327
sba(igraph
Edge
p2328
(dp2329
g7
I1
sg8
I00
sg9
I5
sg10
(lp2330
g2213
ag2272
asg24
I00
sg25
I00
sg26
I11573472
sg17
S'101367.539954'
p2331
sba(igraph
Edge
p2332
(dp2333
g7
I1
sg8
I00
sg9
I5
sg10
(lp2334
g2213
ag2275
asg24
I00
sg25
I00
sg26
I11573473
sg17
S'101367.561191'
p2335
sba(igraph
Edge
p2336
(dp2337
g7
I1
sg8
I00
sg9
I5
sg10
(lp2338
g2216
ag2275
asg24
I00
sg25
I00
sg26
I11573474
sg17
S'101367.581816'
p2339
sba(igraph
Edge
p2340
(dp2341
g7
I1
sg8
I00
sg9
I5
sg10
(lp2342
g2216
ag2282
asg24
I00
sg25
I00
sg26
I11573475
sg17
S'101367.600104'
p2343
sba(igraph
Edge
p2344
(dp2345
g7
I1
sg8
I00
sg9
I5
sg10
(lp2346
g2223
ag2282
asg24
I00
sg25
I00
sg26
I11573476
sg17
S'101367.617563'
p2347
sba(igraph
Edge
p2348
(dp2349
g7
I1
sg8
I00
sg9
I5
sg10
(lp2350
g2223
ag2285
asg24
I00
sg25
I00
sg26
I11573477
sg17
S'101367.636632'
p2351
sba(igraph
Edge
p2352
(dp2353
g7
I1
sg8
I00
sg9
I5
sg10
(lp2354
g2226
ag2285
asg24
I00
sg25
I00
sg26
I11573478
sg17
S'101367.653715'
p2355
sba(igraph
Edge
p2356
(dp2357
g7
I1
sg8
I00
sg9
I5
sg10
(lp2358
g2226
ag2292
asg24
I00
sg25
I00
sg26
I11573479
sg17
S'101367.675397'
p2359
sba(igraph
Edge
p2360
(dp2361
g7
I1
sg8
I00
sg9
I5
sg10
(lp2362
g2233
ag2292
asg24
I00
sg25
I00
sg26
I11573480
sg17
S'101367.695462'
p2363
sba(igraph
Edge
p2364
(dp2365
g7
I1
sg8
I00
sg9
I5
sg10
(lp2366
g2233
ag2303
asg24
I00
sg25
I00
sg26
I11573481
sg17
S'101367.71336'
p2367
sba(igraph
Edge
p2368
(dp2369
g7
I1
sg8
I00
sg9
I5
sg10
(lp2370
g2244
ag2303
asg24
I00
sg25
I00
sg26
I11573482
sg17
S'101367.734041'
p2371
sba(igraph
Edge
p2372
(dp2373
g7
I1
sg8
I00
sg9
I5
sg10
(lp2374
g2244
ag2306
asg24
I00
sg25
I00
sg26
I11573483
sg17
S'101367.749611'
p2375
sba(igraph
Edge
p2376
(dp2377
g7
I1
sg8
I00
sg9
I5
sg10
(lp2378
g2247
ag2306
asg24
I00
sg25
I00
sg26
I11573484
sg17
S'101367.774672'
p2379
sba(igraph
Edge
p2380
(dp2381
g7
I1
sg8
I00
sg9
I5
sg10
(lp2382
g2247
ag2313
asg24
I00
sg25
I00
sg26
I11573485
sg17
S'101367.793373'
p2383
sba(igraph
Edge
p2384
(dp2385
g7
I1
sg8
I00
sg9
I5
sg10
(lp2386
g2254
ag2313
asg24
I00
sg25
I00
sg26
I11573486
sg17
S'101367.811397'
p2387
sba(igraph
Edge
p2388
(dp2389
g7
I1
sg8
I00
sg9
I5
sg10
(lp2390
g2254
ag2320
asg24
I00
sg25
I00
sg26
I11573487
sg17
S'101367.828075'
p2391
sba(igraph
Edge
p2392
(dp2393
g7
I1
sg8
I00
sg9
I5
sg10
(lp2394
g2261
ag2320
asg24
I00
sg25
I00
sg26
I11573488
sg17
S'101367.856898'
p2395
sba(igraph
Edge
p2396
(dp2397
g7
I1
sg8
I00
sg9
I5
sg10
(lp2398
(igraph
Vertex
p2399
(dp2400
g14
F-218.56836160885894
sg15
F239.4327638954469
sg16
I11573864
sg8
I00
sg17
S'101363.483261'
p2401
sg19
I0
sba(igraph
Vertex
p2402
(dp2403
g14
F-250.08624446605552
sg15
F239.95946858347389
sg16
I11573866
sg8
I00
sg17
S'101363.486851'
p2404
sg19
g20
sbasg24
I00
sg25
I00
sg26
I11573489
sg17
S'101367.873644'
p2405
sba(igraph
Edge
p2406
(dp2407
g7
I1
sg8
I00
sg9
I5
sg10
(lp2408
g2261
ag2402
asg24
I00
sg25
I00
sg26
I11573490
sg17
S'101367.891628'
p2409
sba(igraph
Edge
p2410
(dp2411
g7
I1
sg8
I00
sg9
I5
sg10
(lp2412
g2320
ag2402
asg24
I00
sg25
I00
sg26
I11573491
sg17
S'101367.909563'
p2413
sba(igraph
Edge
p2414
(dp2415
g7
I1
sg8
I00
sg9
I5
sg10
(lp2416
g2261
ag2399
asg24
I00
sg25
I00
sg26
I11573492
sg17
S'101367.932501'
p2417
sba(igraph
Edge
p2418
(dp2419
g7
I1
sg8
I00
sg9
I5
sg10
(lp2420
g2213
ag1995
asg24
I00
sg25
I00
sg26
I11573493
sg17
S'101368.570855'
p2421
sba(igraph
Edge
p2422
(dp2423
g7
I1
sg8
I00
sg9
I5
sg10
(lp2424
g1995
ag2216
asg24
I00
sg25
I00
sg26
I11573494
sg17
S'101368.590192'
p2425
sba(igraph
Edge
p2426
(dp2427
g7
I1
sg8
I00
sg9
I5
sg10
(lp2428
g2216
ag1998
asg24
I00
sg25
I00
sg26
I11573495
sg17
S'101368.610937'
p2429
sba(igraph
Edge
p2430
(dp2431
g7
I1
sg8
I00
sg9
I5
sg10
(lp2432
g1998
ag2223
asg24
I00
sg25
I00
sg26
I11573496
sg17
S'101368.638003'
p2433
sba(igraph
Edge
p2434
(dp2435
g7
I1
sg8
I00
sg9
I5
sg10
(lp2436
g2223
ag2005
asg24
I00
sg25
I00
sg26
I11573497
sg17
S'101368.676012'
p2437
sba(igraph
Edge
p2438
(dp2439
g7
I1
sg8
I00
sg9
I5
sg10
(lp2440
g2005
ag2226
asg24
I00
sg25
I00
sg26
I11573498
sg17
S'101368.700081'
p2441
sba(igraph
Edge
p2442
(dp2443
g7
I1
sg8
I00
sg9
I5
sg10
(lp2444
g2226
ag2008
asg24
I00
sg25
I00
sg26
I11573499
sg17
S'101368.716645'
p2445
sba(igraph
Edge
p2446
(dp2447
g7
I1
sg8
I00
sg9
I5
sg10
(lp2448
g2008
ag2233
asg24
I00
sg25
I00
sg26
I11573500
sg17
S'101368.740891'
p2449
sba(igraph
Edge
p2450
(dp2451
g7
I1
sg8
I00
sg9
I5
sg10
(lp2452
g2233
ag2015
asg24
I00
sg25
I00
sg26
I11573501
sg17
S'101368.761302'
p2453
sba(igraph
Edge
p2454
(dp2455
g7
I1
sg8
I00
sg9
I5
sg10
(lp2456
g2015
ag2244
asg24
I00
sg25
I00
sg26
I11573502
sg17
S'101368.784568'
p2457
sba(igraph
Edge
p2458
(dp2459
g7
I1
sg8
I00
sg9
I5
sg10
(lp2460
g2244
ag2026
asg24
I00
sg25
I00
sg26
I11573503
sg17
S'101368.814514'
p2461
sba(igraph
Edge
p2462
(dp2463
g7
I1
sg8
I00
sg9
I5
sg10
(lp2464
g2026
ag2247
asg24
I00
sg25
I00
sg26
I11573504
sg17
S'101368.837755'
p2465
sba(igraph
Edge
p2466
(dp2467
g7
I1
sg8
I00
sg9
I5
sg10
(lp2468
g2247
ag2029
asg24
I00
sg25
I00
sg26
I11573505
sg17
S'101368.857211'
p2469
sba(igraph
Edge
p2470
(dp2471
g7
I1
sg8
I00
sg9
I5
sg10
(lp2472
g2029
ag2254
asg24
I00
sg25
I00
sg26
I11573506
sg17
S'101368.882338'
p2473
sba(igraph
Edge
p2474
(dp2475
g7
I1
sg8
I00
sg9
I5
sg10
(lp2476
g2254
ag2036
asg24
I00
sg25
I00
sg26
I11573507
sg17
S'101368.903117'
p2477
sba(igraph
Edge
p2478
(dp2479
g7
I1
sg8
I00
sg9
I5
sg10
(lp2480
g2036
ag2261
asg24
I00
sg25
I00
sg26
I11573508
sg17
S'101368.923889'
p2481
sba(igraph
Edge
p2482
(dp2483
g7
I1
sg8
I00
sg9
I5
sg10
(lp2484
g2261
ag2043
asg24
I00
sg25
I00
sg26
I11573509
sg17
S'101368.942919'
p2485
sba(igraph
Edge
p2486
(dp2487
g7
I1
sg8
I00
sg9
I5
sg10
(lp2488
g2043
ag2399
asg24
I00
sg25
I00
sg26
I11573510
sg17
S'101368.963171'
p2489
sba(igraph
Edge
p2490
(dp2491
g7
I1
sg8
I00
sg9
I5
sg10
(lp2492
g2399
ag2054
asg24
I00
sg25
I00
sg26
I11573511
sg17
S'101369.003831'
p2493
sba(igraph
Edge
p2494
(dp2495
g7
I1
sg8
I00
sg9
I5
sg10
(lp2496
(igraph
Vertex
p2497
(dp2498
g14
F-10.250856727046312
sg15
F-239.01747686340639
sg16
I11573867
sg8
I00
sg17
S'101363.515884'
p2499
sg19
g20
sba(igraph
Vertex
p2500
(dp2501
g14
F-10.250856727046312
sg15
F-196.11932194491288
sg16
I11573868
sg8
I00
sg17
S'101363.518665'
p2502
sg19
g20
sbasg24
I00
sg25
I00
sg26
I11573512
sg17
S'101369.451098'
p2503
sba(igraph
Edge
p2504
(dp2505
g7
I1
sg8
I00
sg9
I5
sg10
(lp2506
(igraph
Vertex
p2507
(dp2508
g14
F24.93464319880124
sg15
F-239.01747686340639
sg16
I11573869
sg8
I00
sg17
S'101363.522089'
p2509
sg19
g20
sba(igraph
Vertex
p2510
(dp2511
g14
F24.93464319880124
sg15
F-196.11932194491288
sg16
I11573870
sg8
I00
sg17
S'101363.525035'
p2512
sg19
g20
sbasg24
I00
sg25
I00
sg26
I11573513
sg17
S'101369.468556'
p2513
sba(igraph
Edge
p2514
(dp2515
g7
I1
sg8
I00
sg9
I5
sg10
(lp2516
(igraph
Vertex
p2517
(dp2518
g14
F60.120143124648877
sg15
F-239.01747686340639
sg16
I11573871
sg8
I00
sg17
S'101363.528279'
p2519
sg19
g20
sba(igraph
Vertex
p2520
(dp2521
g14
F60.120143124648877
sg15
F-196.11932194491288
sg16
I11573872
sg8
I00
sg17
S'101363.530931'
p2522
sg19
g20
sbasg24
I00
sg25
I00
sg26
I11573514
sg17
S'101369.486854'
p2523
sba(igraph
Edge
p2524
(dp2525
g7
I1
sg8
I00
sg9
I5
sg10
(lp2526
g2497
ag2507
asg24
I00
sg25
I00
sg26
I11573515
sg17
S'101369.504707'
p2527
sba(igraph
Edge
p2528
(dp2529
g7
I1
sg8
I00
sg9
I5
sg10
(lp2530
g2500
ag2510
asg24
I00
sg25
I00
sg26
I11573516
sg17
S'101369.52575'
p2531
sba(igraph
Edge
p2532
(dp2533
g7
I1
sg8
I00
sg9
I5
sg10
(lp2534
g2507
ag2517
asg24
I00
sg25
I00
sg26
I11573517
sg17
S'101369.543903'
p2535
sba(igraph
Edge
p2536
(dp2537
g7
I1
sg8
I00
sg9
I5
sg10
(lp2538
g2510
ag2520
asg24
I00
sg25
I00
sg26
I11573518
sg17
S'101369.562704'
p2539
sba(igraph
Edge
p2540
(dp2541
g7
I1
sg8
I00
sg9
I5
sg10
(lp2542
g2500
ag2507
asg24
I00
sg25
I00
sg26
I11573519
sg17
S'101369.581094'
p2543
sba(igraph
Edge
p2544
(dp2545
g7
I1
sg8
I00
sg9
I5
sg10
(lp2546
g2510
ag2517
asg24
I00
sg25
I00
sg26
I11573520
sg17
S'101369.601749'
p2547
sba(igraph
Edge
p2548
(dp2549
g7
I1
sg8
I00
sg9
I5
sg10
(lp2550
(igraph
Vertex
p2551
(dp2552
g14
F-41.768739584243008
sg15
F-238.49077217537939
sg16
I11573873
sg8
I00
sg17
S'101363.533654'
p2553
sg19
g20
sba(igraph
Vertex
p2554
(dp2555
g14
F-41.768739584243008
sg15
F-195.59261725688589
sg16
I11573874
sg8
I00
sg17
S'101363.536325'
p2556
sg19
g20
sbasg24
I00
sg25
I00
sg26
I11573521
sg17
S'101369.621295'
p2557
sba(igraph
Edge
p2558
(dp2559
g7
I1
sg8
I00
sg9
I5
sg10
(lp2560
g2497
ag2551
asg24
I00
sg25
I00
sg26
I11573522
sg17
S'101369.64206'
p2561
sba(igraph
Edge
p2562
(dp2563
g7
I1
sg8
I00
sg9
I5
sg10
(lp2564
g2497
ag2554
asg24
I00
sg25
I00
sg26
I11573523
sg17
S'101369.660934'
p2565
sba(igraph
Edge
p2566
(dp2567
g7
I1
sg8
I00
sg9
I5
sg10
(lp2568
g2500
ag2554
asg24
I00
sg25
I00
sg26
I11573524
sg17
S'101369.678472'
p2569
sba(igraph
Edge
p2570
(dp2571
g7
I1
sg8
I00
sg9
I5
sg10
(lp2572
(igraph
Vertex
p2573
(dp2574
g14
F93.710817080970372
sg15
F-239.02325824620573
sg16
I11573875
sg8
I00
sg17
S'101363.538931'
p2575
sg19
g20
sba(igraph
Vertex
p2576
(dp2577
g14
F93.710817080970372
sg15
F-196.12510332771222
sg16
I11573876
sg8
I00
sg17
S'101363.541542'
p2578
sg19
g20
sbasg24
I00
sg25
I00
sg26
I11573525
sg17
S'101369.699453'
p2579
sba(igraph
Edge
p2580
(dp2581
g7
I1
sg8
I00
sg9
I5
sg10
(lp2582
g2517
ag2573
asg24
I00
sg25
I00
sg26
I11573526
sg17
S'101369.71757'
p2583
sba(igraph
Edge
p2584
(dp2585
g7
I1
sg8
I00
sg9
I5
sg10
(lp2586
g2520
ag2573
asg24
I00
sg25
I00
sg26
I11573527
sg17
S'101369.736394'
p2587
sba(igraph
Edge
p2588
(dp2589
g7
I1
sg8
I00
sg9
I5
sg10
(lp2590
g2520
ag2576
asg24
I00
sg25
I00
sg26
I11573528
sg17
S'101369.755996'
p2591
sba(igraph
Edge
p2592
(dp2593
g7
I1
sg8
I00
sg9
I5
sg10
(lp2594
(igraph
Vertex
p2595
(dp2596
g14
F127.44580467402253
sg15
F-237.02325824620573
sg16
I11573877
sg8
I00
sg17
S'101363.544264'
p2597
sg19
g20
sba(igraph
Vertex
p2598
(dp2599
g14
F127.44580467402253
sg15
F-194.12510332771222
sg16
I11573878
sg8
I00
sg17
S'101363.546892'
p2600
sg19
g20
sbasg24
I00
sg25
I00
sg26
I11573529
sg17
S'101369.775428'
p2601
sba(igraph
Edge
p2602
(dp2603
g7
I1
sg8
I00
sg9
I5
sg10
(lp2604
g2573
ag2595
asg24
I00
sg25
I00
sg26
I11573530
sg17
S'101369.793897'
p2605
sba(igraph
Edge
p2606
(dp2607
g7
I1
sg8
I00
sg9
I5
sg10
(lp2608
g2576
ag2595
asg24
I00
sg25
I00
sg26
I11573531
sg17
S'101369.814921'
p2609
sba(igraph
Edge
p2610
(dp2611
g7
I1
sg8
I00
sg9
I5
sg10
(lp2612
g2576
ag2598
asg24
I00
sg25
I00
sg26
I11573532
sg17
S'101369.832822'
p2613
sba(igraph
Edge
p2614
(dp2615
g7
I1
sg8
I00
sg9
I5
sg10
(lp2616
(igraph
Vertex
p2617
(dp2618
g14
F162.27629007692767
sg15
F-238.31715598650919
sg16
I11573879
sg8
I00
sg17
S'101363.549892'
p2619
sg19
g20
sba(igraph
Vertex
p2620
(dp2621
g14
F162.27629007692767
sg15
F-195.41900106801575
sg16
I11573880
sg8
I00
sg17
S'101363.552723'
p2622
sg19
g20
sbasg24
I00
sg25
I00
sg26
I11573533
sg17
S'101369.854168'
p2623
sba(igraph
Edge
p2624
(dp2625
g7
I1
sg8
I00
sg9
I5
sg10
(lp2626
g2595
ag2617
asg24
I00
sg25
I00
sg26
I11573534
sg17
S'101369.872435'
p2627
sba(igraph
Edge
p2628
(dp2629
g7
I1
sg8
I00
sg9
I5
sg10
(lp2630
g2598
ag2617
asg24
I00
sg25
I00
sg26
I11573535
sg17
S'101369.892976'
p2631
sba(igraph
Edge
p2632
(dp2633
g7
I1
sg8
I00
sg9
I5
sg10
(lp2634
g2598
ag2620
asg24
I00
sg25
I00
sg26
I11573536
sg17
S'101369.911137'
p2635
sba(igraph
Edge
p2636
(dp2637
g7
I1
sg8
I00
sg9
I5
sg10
(lp2638
(igraph
Vertex
p2639
(dp2640
g14
F193.48115360050085
sg15
F-236.31715598650925
sg16
I11573881
sg8
I00
sg17
S'101363.555435'
p2641
sg19
g20
sba(igraph
Vertex
p2642
(dp2643
g14
F193.48115360050085
sg15
F-193.41900106801575
sg16
I11573882
sg8
I00
sg17
S'101363.558082'
p2644
sg19
g20
sbasg24
I00
sg25
I00
sg26
I11573537
sg17
S'101369.930383'
p2645
sba(igraph
Edge
p2646
(dp2647
g7
I1
sg8
I00
sg9
I5
sg10
(lp2648
g2617
ag2639
asg24
I00
sg25
I00
sg26
I11573538
sg17
S'101369.957044'
p2649
sba(igraph
Edge
p2650
(dp2651
g7
I1
sg8
I00
sg9
I5
sg10
(lp2652
g2620
ag2639
asg24
I00
sg25
I00
sg26
I11573539
sg17
S'101369.976731'
p2653
sba(igraph
Edge
p2654
(dp2655
g7
I1
sg8
I00
sg9
I5
sg10
(lp2656
g2620
ag2642
asg24
I00
sg25
I00
sg26
I11573540
sg17
S'101369.995285'
p2657
sba(igraph
Edge
p2658
(dp2659
g7
I1
sg8
I00
sg9
I5
sg10
(lp2660
(igraph
Vertex
p2661
(dp2662
g14
F225.95107915881354
sg15
F-240.31715598650928
sg16
I11573883
sg8
I00
sg17
S'101363.5616'
p2663
sg19
g20
sba(igraph
Vertex
p2664
(dp2665
g14
F225.95107915881354
sg15
F-197.41900106801575
sg16
I11573884
sg8
I00
sg17
S'101363.564884'
p2666
sg19
I0
sbasg24
I00
sg25
I00
sg26
I11573541
sg17
S'101370.014245'
p2667
sba(igraph
Edge
p2668
(dp2669
g7
I1
sg8
I00
sg9
I5
sg10
(lp2670
g2639
ag2661
asg24
I00
sg25
I00
sg26
I11573542
sg17
S'101370.032891'
p2671
sba(igraph
Edge
p2672
(dp2673
g7
I1
sg8
I00
sg9
I5
sg10
(lp2674
g2642
ag2661
asg24
I00
sg25
I00
sg26
I11573543
sg17
S'101370.051438'
p2675
sba(igraph
Edge
p2676
(dp2677
g7
I1
sg8
I00
sg9
I5
sg10
(lp2678
g2642
ag2664
asg24
I00
sg25
I00
sg26
I11573544
sg17
S'101370.072061'
p2679
sba(igraph
Edge
p2680
(dp2681
g7
I1
sg8
I00
sg9
I5
sg10
(lp2682
(igraph
Vertex
p2683
(dp2684
g14
F252.8395055446841
sg15
F-237.15124816188865
sg16
I11573886
sg8
I00
sg17
S'101363.567823'
p2685
sg19
g20
sba(igraph
Vertex
p2686
(dp2687
g14
F252.8395055446841
sg15
F-194.25309324339514
sg16
I11573887
sg8
I00
sg17
S'101363.5707'
p2688
sg19
g20
sbasg24
I00
sg25
I00
sg26
I11573545
sg17
S'101370.091809'
p2689
sba(igraph
Edge
p2690
(dp2691
g7
I1
sg8
I00
sg9
I5
sg10
(lp2692
(igraph
Vertex
p2693
(dp2694
g14
F283.82927822663794
sg15
F-236.03007639123103
sg16
I11573888
sg8
I00
sg17
S'101363.573461'
p2695
sg19
I0
sba(igraph
Vertex
p2696
(dp2697
g14
F284.04436906825731
sg15
F-192.25309324339514
sg16
I11573890
sg8
I00
sg17
S'101363.576315'
p2698
sg19
g20
sbasg24
I00
sg25
I00
sg26
I11573546
sg17
S'101370.110808'
p2699
sba(igraph
Edge
p2700
(dp2701
g7
I1
sg8
I00
sg9
I5
sg10
(lp2702
g2683
ag2693
asg24
I00
sg25
I00
sg26
I11573547
sg17
S'101370.13076'
p2703
sba(igraph
Edge
p2704
(dp2705
g7
I1
sg8
I00
sg9
I5
sg10
(lp2706
g2686
ag2693
asg24
I00
sg25
I00
sg26
I11573548
sg17
S'101370.149841'
p2707
sba(igraph
Edge
p2708
(dp2709
g7
I1
sg8
I00
sg9
I5
sg10
(lp2710
g2686
ag2696
asg24
I00
sg25
I00
sg26
I11573549
sg17
S'101370.169503'
p2711
sba(igraph
Edge
p2712
(dp2713
g7
I1
sg8
I00
sg9
I5
sg10
(lp2714
g2661
ag2683
asg24
I00
sg25
I00
sg26
I11573550
sg17
S'101370.190371'
p2715
sba(igraph
Edge
p2716
(dp2717
g7
I1
sg8
I00
sg9
I5
sg10
(lp2718
g2664
ag2683
asg24
I00
sg25
I00
sg26
I11573551
sg17
S'101370.209078'
p2719
sba(igraph
Edge
p2720
(dp2721
g7
I1
sg8
I00
sg9
I5
sg10
(lp2722
g2664
ag2686
asg24
I00
sg25
I00
sg26
I11573552
sg17
S'101370.229236'
p2723
sba(igraph
Edge
p2724
(dp2725
g7
I1
sg8
I00
sg9
I5
sg10
(lp2726
(igraph
Vertex
p2727
(dp2728
g14
F-111.27036300804048
sg15
F-238.41460050590211
sg16
I11573891
sg8
I00
sg17
S'101363.579126'
p2729
sg19
g20
sba(igraph
Vertex
p2730
(dp2731
g14
F-111.27036300804048
sg15
F-195.51644558740861
sg16
I11573892
sg8
I00
sg17
S'101363.582791'
p2732
sg19
g20
sbasg24
I00
sg25
I00
sg26
I11573553
sg17
S'101370.248309'
p2733
sba(igraph
Edge
p2734
(dp2735
g7
I1
sg8
I00
sg9
I5
sg10
(lp2736
(igraph
Vertex
p2737
(dp2738
g14
F-76.084863082192811
sg15
F-238.41460050590211
sg16
I11573893
sg8
I00
sg17
S'101363.585638'
p2739
sg19
g20
sba(igraph
Vertex
p2740
(dp2741
g14
F-76.084863082192811
sg15
F-195.51644558740861
sg16
I11573894
sg8
I00
sg17
S'101363.588541'
p2742
sg19
g20
sbasg24
I00
sg25
I00
sg26
I11573554
sg17
S'101370.267912'
p2743
sba(igraph
Edge
p2744
(dp2745
g7
I1
sg8
I00
sg9
I5
sg10
(lp2746
g2727
ag2737
asg24
I00
sg25
I00
sg26
I11573555
sg17
S'101370.287136'
p2747
sba(igraph
Edge
p2748
(dp2749
g7
I1
sg8
I00
sg9
I5
sg10
(lp2750
g2730
ag2740
asg24
I00
sg25
I00
sg26
I11573556
sg17
S'101370.308026'
p2751
sba(igraph
Edge
p2752
(dp2753
g7
I1
sg8
I00
sg9
I5
sg10
(lp2754
g2730
ag2737
asg24
I00
sg25
I00
sg26
I11573557
sg17
S'101370.327749'
p2755
sba(igraph
Edge
p2756
(dp2757
g7
I1
sg8
I00
sg9
I5
sg10
(lp2758
g2551
ag2737
asg24
I00
sg25
I00
sg26
I11573558
sg17
S'101370.347755'
p2759
sba(igraph
Edge
p2760
(dp2761
g7
I1
sg8
I00
sg9
I5
sg10
(lp2762
g2551
ag2740
asg24
I00
sg25
I00
sg26
I11573559
sg17
S'101370.368593'
p2763
sba(igraph
Edge
p2764
(dp2765
g7
I1
sg8
I00
sg9
I5
sg10
(lp2766
g2554
ag2740
asg24
I00
sg25
I00
sg26
I11573560
sg17
S'101370.388719'
p2767
sba(igraph
Edge
p2768
(dp2769
g7
I1
sg8
I00
sg9
I5
sg10
(lp2770
(igraph
Vertex
p2771
(dp2772
g14
F-139.23202172228471
sg15
F-237.45268634064075
sg16
I11573895
sg8
I00
sg17
S'101363.591363'
p2773
sg19
g20
sba(igraph
Vertex
p2774
(dp2775
g14
F-139.23202172228471
sg15
F-194.55453142214725
sg16
I11573896
sg8
I00
sg17
S'101363.594358'
p2776
sg19
g20
sbasg24
I00
sg25
I00
sg26
I11573561
sg17
S'101370.410363'
p2777
sba(igraph
Edge
p2778
(dp2779
g7
I1
sg8
I00
sg9
I5
sg10
(lp2780
(igraph
Vertex
p2781
(dp2782
g14
F-170.74990457948135
sg15
F-236.92598165261376
sg16
I11573897
sg8
I00
sg17
S'101363.597259'
p2783
sg19
g20
sba(igraph
Vertex
p2784
(dp2785
g14
F-170.74990457948135
sg15
F-194.02782673412025
sg16
I11573898
sg8
I00
sg17
S'101363.600463'
p2786
sg19
g20
sbasg24
I00
sg25
I00
sg26
I11573562
sg17
S'101370.430851'
p2787
sba(igraph
Edge
p2788
(dp2789
g7
I1
sg8
I00
sg9
I5
sg10
(lp2790
g2771
ag2781
asg24
I00
sg25
I00
sg26
I11573563
sg17
S'101370.450888'
p2791
sba(igraph
Edge
p2792
(dp2793
g7
I1
sg8
I00
sg9
I5
sg10
(lp2794
g2771
ag2784
asg24
I00
sg25
I00
sg26
I11573564
sg17
S'101370.470553'
p2795
sba(igraph
Edge
p2796
(dp2797
g7
I1
sg8
I00
sg9
I5
sg10
(lp2798
g2774
ag2784
asg24
I00
sg25
I00
sg26
I11573565
sg17
S'101370.490442'
p2799
sba(igraph
Edge
p2800
(dp2801
g7
I1
sg8
I00
sg9
I5
sg10
(lp2802
(igraph
Vertex
p2803
(dp2804
g14
F-205.06602807743113
sg15
F-236.84980998313648
sg16
I11573899
sg8
I00
sg17
S'101363.604401'
p2805
sg19
g20
sba(igraph
Vertex
p2806
(dp2807
g14
F-205.06602807743113
sg15
F-193.95165506464298
sg16
I11573900
sg8
I00
sg17
S'101363.607546'
p2808
sg19
g20
sbasg24
I00
sg25
I00
sg26
I11573566
sg17
S'101370.510438'
p2809
sba(igraph
Edge
p2810
(dp2811
g7
I1
sg8
I00
sg9
I5
sg10
(lp2812
g2781
ag2803
asg24
I00
sg25
I00
sg26
I11573567
sg17
S'101370.531061'
p2813
sba(igraph
Edge
p2814
(dp2815
g7
I1
sg8
I00
sg9
I5
sg10
(lp2816
g2781
ag2806
asg24
I00
sg25
I00
sg26
I11573568
sg17
S'101370.550056'
p2817
sba(igraph
Edge
p2818
(dp2819
g7
I1
sg8
I00
sg9
I5
sg10
(lp2820
g2784
ag2806
asg24
I00
sg25
I00
sg26
I11573569
sg17
S'101370.571323'
p2821
sba(igraph
Edge
p2822
(dp2823
g7
I1
sg8
I00
sg9
I5
sg10
(lp2824
g2727
ag2771
asg24
I00
sg25
I00
sg26
I11573570
sg17
S'101370.59092'
p2825
sba(igraph
Edge
p2826
(dp2827
g7
I1
sg8
I00
sg9
I5
sg10
(lp2828
g2727
ag2774
asg24
I00
sg25
I00
sg26
I11573571
sg17
S'101370.610889'
p2829
sba(igraph
Edge
p2830
(dp2831
g7
I1
sg8
I00
sg9
I5
sg10
(lp2832
g2730
ag2774
asg24
I00
sg25
I00
sg26
I11573572
sg17
S'101370.632472'
p2833
sba(igraph
Edge
p2834
(dp2835
g7
I1
sg8
I00
sg9
I5
sg10
(lp2836
(igraph
Vertex
p2837
(dp2838
g14
F-220.61159144634601
sg15
F-235.61303030354134
sg16
I11573901
sg8
I00
sg17
S'101363.61085'
p2839
sg19
g20
sba(igraph
Vertex
p2840
(dp2841
g14
F-221.84628651948276
sg15
F-193.13748533445755
sg16
I11573902
sg8
I00
sg17
S'101363.615358'
p2842
sg19
g20
sbasg24
I00
sg25
I00
sg26
I11573573
sg17
S'101370.653205'
p2843
sba(igraph
Edge
p2844
(dp2845
g7
I1
sg8
I00
sg9
I5
sg10
(lp2846
(igraph
Vertex
p2847
(dp2848
g14
F-253.36416937667946
sg15
F-235.50893556492406
sg16
I11573903
sg8
I00
sg17
S'101363.618617'
p2849
sg19
g20
sba(igraph
Vertex
p2850
(dp2851
g14
F-253.36416937667946
sg15
F-192.6107806464305
sg16
I11573904
sg8
I00
sg17
S'101363.621604'
p2852
sg19
g20
sbasg24
I00
sg25
I00
sg26
I11573574
sg17
S'101370.674768'
p2853
sba(igraph
Edge
p2854
(dp2855
g7
I1
sg8
I00
sg9
I5
sg10
(lp2856
g2837
ag2847
asg24
I00
sg25
I00
sg26
I11573575
sg17
S'101370.69584'
p2857
sba(igraph
Edge
p2858
(dp2859
g7
I1
sg8
I00
sg9
I5
sg10
(lp2860
g2837
ag2850
asg24
I00
sg25
I00
sg26
I11573576
sg17
S'101370.715931'
p2861
sba(igraph
Edge
p2862
(dp2863
g7
I1
sg8
I00
sg9
I5
sg10
(lp2864
g2840
ag2850
asg24
I00
sg25
I00
sg26
I11573577
sg17
S'101370.738917'
p2865
sba(igraph
Edge
p2866
(dp2867
g7
I1
sg8
I00
sg9
I5
sg10
(lp2868
g2837
ag2803
asg24
I00
sg25
I00
sg26
I11573578
sg17
S'101370.844809'
p2869
sba(igraph
Edge
p2870
(dp2871
g7
I1
sg8
I00
sg9
I5
sg10
(lp2872
g2803
ag2840
asg24
I00
sg25
I00
sg26
I11573579
sg17
S'101370.866681'
p2873
sba(igraph
Edge
p2874
(dp2875
g7
I1
sg8
I00
sg9
I5
sg10
(lp2876
g2840
ag2806
asg24
I00
sg25
I00
sg26
I11573580
sg17
S'101370.887736'
p2877
sba(igraph
Edge
p2878
(dp2879
g7
I1
sg8
I00
sg9
I5
sg10
(lp2880
g1278
ag2696
asg24
I00
sg25
I00
sg26
I11573581
sg17
S'101371.01854'
p2881
sba(igraph
Edge
p2882
(dp2883
g7
I1
sg8
I00
sg9
I5
sg10
(lp2884
g2696
ag1219
asg24
I00
sg25
I00
sg26
I11573582
sg17
S'101371.03869'
p2885
sba(igraph
Edge
p2886
(dp2887
g7
I1
sg8
I00
sg9
I5
sg10
(lp2888
g1219
ag2686
asg24
I00
sg25
I00
sg26
I11573583
sg17
S'101371.06113'
p2889
sba(igraph
Edge
p2890
(dp2891
g7
I1
sg8
I00
sg9
I5
sg10
(lp2892
g2686
ag965
asg24
I00
sg25
I00
sg26
I11573584
sg17
S'101371.081797'
p2893
sba(igraph
Edge
p2894
(dp2895
g7
I1
sg8
I00
sg9
I5
sg10
(lp2896
g965
ag2664
asg24
I00
sg25
I00
sg26
I11573585
sg17
S'101371.104007'
p2897
sba(igraph
Edge
p2898
(dp2899
g7
I1
sg8
I00
sg9
I5
sg10
(lp2900
g2664
ag838
asg24
I00
sg25
I00
sg26
I11573586
sg17
S'101371.124495'
p2901
sba(igraph
Edge
p2902
(dp2903
g7
I1
sg8
I00
sg9
I5
sg10
(lp2904
g838
ag2642
asg24
I00
sg25
I00
sg26
I11573587
sg17
S'101371.14605'
p2905
sba(igraph
Edge
p2906
(dp2907
g7
I1
sg8
I00
sg9
I5
sg10
(lp2908
g2642
ag711
asg24
I00
sg25
I00
sg26
I11573588
sg17
S'101371.167932'
p2909
sba(igraph
Edge
p2910
(dp2911
g7
I1
sg8
I00
sg9
I5
sg10
(lp2912
g711
ag2620
asg24
I00
sg25
I00
sg26
I11573589
sg17
S'101371.1898'
p2913
sba(igraph
Edge
p2914
(dp2915
g7
I1
sg8
I00
sg9
I5
sg10
(lp2916
g2620
ag584
asg24
I00
sg25
I00
sg26
I11573590
sg17
S'101371.212988'
p2917
sba(igraph
Edge
p2918
(dp2919
g7
I1
sg8
I00
sg9
I5
sg10
(lp2920
g584
ag2598
asg24
I00
sg25
I00
sg26
I11573591
sg17
S'101371.237836'
p2921
sba(igraph
Edge
p2922
(dp2923
g7
I1
sg8
I00
sg9
I5
sg10
(lp2924
g2598
ag457
asg24
I00
sg25
I00
sg26
I11573592
sg17
S'101371.263038'
p2925
sba(igraph
Edge
p2926
(dp2927
g7
I1
sg8
I00
sg9
I5
sg10
(lp2928
g457
ag2576
asg24
I00
sg25
I00
sg26
I11573593
sg17
S'101371.288998'
p2929
sba(igraph
Edge
p2930
(dp2931
g7
I1
sg8
I00
sg9
I5
sg10
(lp2932
g2576
ag41
asg24
I00
sg25
I00
sg26
I11573594
sg17
S'101371.31365'
p2933
sba(igraph
Edge
p2934
(dp2935
g7
I1
sg8
I00
sg9
I5
sg10
(lp2936
g41
ag2520
asg24
I00
sg25
I00
sg26
I11573595
sg17
S'101371.337931'
p2937
sba(igraph
Edge
p2938
(dp2939
g7
I1
sg8
I00
sg9
I5
sg10
(lp2940
g2520
ag31
asg24
I00
sg25
I00
sg26
I11573596
sg17
S'101371.374974'
p2941
sba(igraph
Edge
p2942
(dp2943
g7
I1
sg8
I00
sg9
I5
sg10
(lp2944
g31
ag2510
asg24
I00
sg25
I00
sg26
I11573597
sg17
S'101371.414932'
p2945
sba(igraph
Edge
p2946
(dp2947
g7
I1
sg8
I00
sg9
I5
sg10
(lp2948
g2510
ag12
asg24
I00
sg25
I00
sg26
I11573598
sg17
S'101371.443633'
p2949
sba(igraph
Edge
p2950
(dp2951
g7
I1
sg8
I00
sg9
I5
sg10
(lp2952
g12
ag2500
asg24
I00
sg25
I00
sg26
I11573599
sg17
S'101371.47041'
p2953
sba(igraph
Edge
p2954
(dp2955
g7
I1
sg8
I00
sg9
I5
sg10
(lp2956
g2500
ag330
asg24
I00
sg25
I00
sg26
I11573600
sg17
S'101371.500647'
p2957
sba(igraph
Edge
p2958
(dp2959
g7
I1
sg8
I00
sg9
I5
sg10
(lp2960
g330
ag2554
asg24
I00
sg25
I00
sg26
I11573601
sg17
S'101371.53159'
p2961
sba(igraph
Edge
p2962
(dp2963
g7
I1
sg8
I00
sg9
I5
sg10
(lp2964
g2554
ag1513
asg24
I00
sg25
I00
sg26
I11573602
sg17
S'101371.559297'
p2965
sba(igraph
Edge
p2966
(dp2967
g7
I1
sg8
I00
sg9
I5
sg10
(lp2968
g1513
ag2740
asg24
I00
sg25
I00
sg26
I11573603
sg17
S'101371.583119'
p2969
sba(igraph
Edge
p2970
(dp2971
g7
I1
sg8
I00
sg9
I5
sg10
(lp2972
g2740
ag1503
asg24
I00
sg25
I00
sg26
I11573604
sg17
S'101371.612017'
p2973
sba(igraph
Edge
p2974
(dp2975
g7
I1
sg8
I00
sg9
I5
sg10
(lp2976
g1503
ag2730
asg24
I00
sg25
I00
sg26
I11573605
sg17
S'101371.641098'
p2977
sba(igraph
Edge
p2978
(dp2979
g7
I1
sg8
I00
sg9
I5
sg10
(lp2980
g2730
ag1787
asg24
I00
sg25
I00
sg26
I11573606
sg17
S'101371.668346'
p2981
sba(igraph
Edge
p2982
(dp2983
g7
I1
sg8
I00
sg9
I5
sg10
(lp2984
g1787
ag2774
asg24
I00
sg25
I00
sg26
I11573607
sg17
S'101371.699931'
p2985
sba(igraph
Edge
p2986
(dp2987
g7
I1
sg8
I00
sg9
I5
sg10
(lp2988
g2774
ag1846
asg24
I00
sg25
I00
sg26
I11573608
sg17
S'101371.739208'
p2989
sba(igraph
Edge
p2990
(dp2991
g7
I1
sg8
I00
sg9
I5
sg10
(lp2992
g1846
ag2784
asg24
I00
sg25
I00
sg26
I11573609
sg17
S'101371.76572'
p2993
sba(igraph
Edge
p2994
(dp2995
g7
I1
sg8
I00
sg9
I5
sg10
(lp2996
g2784
ag1995
asg24
I00
sg25
I00
sg26
I11573610
sg17
S'101371.795507'
p2997
sba(igraph
Edge
p2998
(dp2999
g7
I1
sg8
I00
sg9
I5
sg10
(lp3000
g1995
ag2806
asg24
I00
sg25
I00
sg26
I11573611
sg17
S'101371.83326'
p3001
sba(igraph
Edge
p3002
(dp3003
g7
I1
sg8
I00
sg9
I5
sg10
(lp3004
g2806
ag2213
asg24
I00
sg25
I00
sg26
I11573612
sg17
S'101371.860885'
p3005
sba(igraph
Edge
p3006
(dp3007
g7
I1
sg8
I00
sg9
I5
sg10
(lp3008
g2213
ag2840
asg24
I00
sg25
I00
sg26
I11573613
sg17
S'101371.887777'
p3009
sba(igraph
Edge
p3010
(dp3011
g7
I1
sg8
I00
sg9
I5
sg10
(lp3012
g2840
ag2272
asg24
I00
sg25
I00
sg26
I11573614
sg17
S'101371.919587'
p3013
sba(igraph
Edge
p3014
(dp3015
g7
I1
sg8
I00
sg9
I5
sg10
(lp3016
g2272
ag2850
asg24
I00
sg25
I00
sg26
I11573615
sg17
S'101371.950031'
p3017
sba(igraph
Edge
p3018
(dp3019
g7
I1
sg8
I00
sg9
I5
sg10
(lp3020
g2399
ag2847
asg24
I00
sg25
I00
sg26
I11573616
sg17
S'101372.055382'
p3021
sba(igraph
Edge
p3022
(dp3023
g7
I1
sg8
I00
sg9
I5
sg10
(lp3024
g2402
ag2847
asg24
I00
sg25
I00
sg26
I11573617
sg17
S'101372.090405'
p3025
sba(igraph
Edge
p3026
(dp3027
g7
I1
sg8
I00
sg9
I5
sg10
(lp3028
g2054
ag2837
asg24
I00
sg25
I00
sg26
I11573618
sg17
S'101372.130597'
p3029
sba(igraph
Edge
p3030
(dp3031
g7
I1
sg8
I00
sg9
I5
sg10
(lp3032
g2399
ag2837
asg24
I00
sg25
I00
sg26
I11573619
sg17
S'101372.159134'
p3033
sba(igraph
Edge
p3034
(dp3035
g7
I1
sg8
I00
sg9
I5
sg10
(lp3036
g1976
ag2803
asg24
I00
sg25
I00
sg26
I11573620
sg17
S'101372.194782'
p3037
sba(igraph
Edge
p3038
(dp3039
g7
I1
sg8
I00
sg9
I5
sg10
(lp3040
g2054
ag2803
asg24
I00
sg25
I00
sg26
I11573621
sg17
S'101372.227296'
p3041
sba(igraph
Edge
p3042
(dp3043
g7
I1
sg8
I00
sg9
I5
sg10
(lp3044
g1973
ag2781
asg24
I00
sg25
I00
sg26
I11573622
sg17
S'101372.260811'
p3045
sba(igraph
Edge
p3046
(dp3047
g7
I1
sg8
I00
sg9
I5
sg10
(lp3048
g1976
ag2781
asg24
I00
sg25
I00
sg26
I11573623
sg17
S'101372.286682'
p3049
sba(igraph
Edge
p3050
(dp3051
g7
I1
sg8
I00
sg9
I5
sg10
(lp3052
g1689
ag2771
asg24
I00
sg25
I00
sg26
I11573624
sg17
S'101372.312853'
p3053
sba(igraph
Edge
p3054
(dp3055
g7
I1
sg8
I00
sg9
I5
sg10
(lp3056
g1973
ag2771
asg24
I00
sg25
I00
sg26
I11573625
sg17
S'101372.338639'
p3057
sba(igraph
Edge
p3058
(dp3059
g7
I1
sg8
I00
sg9
I5
sg10
(lp3060
g1689
ag2727
asg24
I00
sg25
I00
sg26
I11573626
sg17
S'101372.373471'
p3061
sba(igraph
Edge
p3062
(dp3063
g7
I1
sg8
I00
sg9
I5
sg10
(lp3064
g1692
ag2727
asg24
I00
sg25
I00
sg26
I11573627
sg17
S'101372.417381'
p3065
sba(igraph
Edge
p3066
(dp3067
g7
I1
sg8
I00
sg9
I5
sg10
(lp3068
g1109
ag2737
asg24
I00
sg25
I00
sg26
I11573628
sg17
S'101372.445122'
p3069
sba(igraph
Edge
p3070
(dp3071
g7
I1
sg8
I00
sg9
I5
sg10
(lp3072
g1692
ag2737
asg24
I00
sg25
I00
sg26
I11573629
sg17
S'101372.473251'
p3073
sba(igraph
Edge
p3074
(dp3075
g7
I1
sg8
I00
sg9
I5
sg10
(lp3076
g1092
ag2551
asg24
I00
sg25
I00
sg26
I11573630
sg17
S'101372.503363'
p3077
sba(igraph
Edge
p3078
(dp3079
g7
I1
sg8
I00
sg9
I5
sg10
(lp3080
g1109
ag2551
asg24
I00
sg25
I00
sg26
I11573631
sg17
S'101372.540878'
p3081
sba(igraph
Edge
p3082
(dp3083
g7
I1
sg8
I00
sg9
I5
sg10
(lp3084
g1092
ag2497
asg24
I00
sg25
I00
sg26
I11573632
sg17
S'101372.569014'
p3085
sba(igraph
Edge
p3086
(dp3087
g7
I1
sg8
I00
sg9
I5
sg10
(lp3088
g1095
ag2497
asg24
I00
sg25
I00
sg26
I11573633
sg17
S'101372.597364'
p3089
sba(igraph
Edge
p3090
(dp3091
g7
I1
sg8
I00
sg9
I5
sg10
(lp3092
g1095
ag2507
asg24
I00
sg25
I00
sg26
I11573634
sg17
S'101372.626554'
p3093
sba(igraph
Edge
p3094
(dp3095
g7
I1
sg8
I00
sg9
I5
sg10
(lp3096
g1102
ag2507
asg24
I00
sg25
I00
sg26
I11573635
sg17
S'101372.65218'
p3097
sba(igraph
Edge
p3098
(dp3099
g7
I1
sg8
I00
sg9
I5
sg10
(lp3100
g1102
ag2517
asg24
I00
sg25
I00
sg26
I11573636
sg17
S'101372.676606'
p3101
sba(igraph
Edge
p3102
(dp3103
g7
I1
sg8
I00
sg9
I5
sg10
(lp3104
g1116
ag2517
asg24
I00
sg25
I00
sg26
I11573637
sg17
S'101372.702804'
p3105
sba(igraph
Edge
p3106
(dp3107
g7
I1
sg8
I00
sg9
I5
sg10
(lp3108
g1116
ag2573
asg24
I00
sg25
I00
sg26
I11573638
sg17
S'101372.728067'
p3109
sba(igraph
Edge
p3110
(dp3111
g7
I1
sg8
I00
sg9
I5
sg10
(lp3112
g1123
ag2573
asg24
I00
sg25
I00
sg26
I11573639
sg17
S'101372.749997'
p3113
sba(igraph
Edge
p3114
(dp3115
g7
I1
sg8
I00
sg9
I5
sg10
(lp3116
g1123
ag2595
asg24
I00
sg25
I00
sg26
I11573640
sg17
S'101372.774341'
p3117
sba(igraph
Edge
p3118
(dp3119
g7
I1
sg8
I00
sg9
I5
sg10
(lp3120
g1130
ag2595
asg24
I00
sg25
I00
sg26
I11573641
sg17
S'101372.796936'
p3121
sba(igraph
Edge
p3122
(dp3123
g7
I1
sg8
I00
sg9
I5
sg10
(lp3124
g1130
ag2617
asg24
I00
sg25
I00
sg26
I11573642
sg17
S'101372.822585'
p3125
sba(igraph
Edge
p3126
(dp3127
g7
I1
sg8
I00
sg9
I5
sg10
(lp3128
g1137
ag2617
asg24
I00
sg25
I00
sg26
I11573643
sg17
S'101372.845393'
p3129
sba(igraph
Edge
p3130
(dp3131
g7
I1
sg8
I00
sg9
I5
sg10
(lp3132
g1137
ag2639
asg24
I00
sg25
I00
sg26
I11573644
sg17
S'101372.869948'
p3133
sba(igraph
Edge
p3134
(dp3135
g7
I1
sg8
I00
sg9
I5
sg10
(lp3136
g1144
ag2639
asg24
I00
sg25
I00
sg26
I11573645
sg17
S'101372.893892'
p3137
sba(igraph
Edge
p3138
(dp3139
g7
I1
sg8
I00
sg9
I5
sg10
(lp3140
g1144
ag2661
asg24
I00
sg25
I00
sg26
I11573646
sg17
S'101372.917942'
p3141
sba(igraph
Edge
p3142
(dp3143
g7
I1
sg8
I00
sg9
I5
sg10
(lp3144
g1405
ag2661
asg24
I00
sg25
I00
sg26
I11573647
sg17
S'101372.944583'
p3145
sba(igraph
Edge
p3146
(dp3147
g7
I1
sg8
I00
sg9
I5
sg10
(lp3148
g1405
ag2683
asg24
I00
sg25
I00
sg26
I11573648
sg17
S'101372.969181'
p3149
sba(igraph
Edge
p3150
(dp3151
g7
I1
sg8
I00
sg9
I5
sg10
(lp3152
g1408
ag2683
asg24
I00
sg25
I00
sg26
I11573649
sg17
S'101372.993227'
p3153
sba(igraph
Edge
p3154
(dp3155
g7
I1
sg8
I00
sg9
I5
sg10
(lp3156
g1408
ag2693
asg24
I00
sg25
I00
sg26
I11573650
sg17
S'101373.016892'
p3157
sba(igraph
Edge
p3158
(dp3159
g7
I1
sg8
I00
sg9
I5
sg10
(lp3160
g2696
ag2847
asg24
I00
sg25
I00
sg26
I11573651
sg17
S'101463.70415'
p3161
sba(igraph
Edge
p3162
(dp3163
g7
I1
sg8
I00
sg9
I5
sg10
(lp3164
g2696
ag2850
asg24
I00
sg25
I00
sg26
I11573652
sg17
S'101463.719392'
p3165
sba(igraph
Edge
p3166
(dp3167
g7
I1
sg8
I00
sg9
I5
sg10
(lp3168
g1278
ag2272
asg24
I00
sg25
I00
sg26
I11573653
sg17
S'101470.857876'
p3169
sba(igraph
Edge
p3170
(dp3171
g7
I1
sg8
I00
sg9
I5
sg10
(lp3172
g1278
ag2850
asg24
I00
sg25
I00
sg26
I11573654
sg17
S'101470.868772'
p3173
sba(igraph
Edge
p3174
(dp3175
g7
I1
sg8
I00
sg9
I5
sg10
(lp3176
g1281
ag2272
asg24
I00
sg25
I00
sg26
I11573655
sg17
S'101478.67367'
p3177
sba(igraph
Edge
p3178
(dp3179
g7
I1
sg8
I00
sg9
I5
sg10
(lp3180
g1281
ag2275
asg24
I00
sg25
I00
sg26
I11573656
sg17
S'101478.690767'
p3181
sba(igraph
Edge
p3182
(dp3183
g7
I1
sg8
I00
sg9
I5
sg10
(lp3184
g1288
ag2275
asg24
I00
sg25
I00
sg26
I11573657
sg17
S'101575.274083'
p3185
sba(igraph
Edge
p3186
(dp3187
g7
I1
sg8
I00
sg9
I5
sg10
(lp3188
g1288
ag2282
asg24
I00
sg25
I00
sg26
I11573658
sg17
S'101575.284513'
p3189
sba(igraph
Edge
p3190
(dp3191
g7
I1
sg8
I00
sg9
I5
sg10
(lp3192
g1291
ag2282
asg24
I00
sg25
I00
sg26
I11573659
sg17
S'101582.654417'
p3193
sba(igraph
Edge
p3194
(dp3195
g7
I1
sg8
I00
sg9
I5
sg10
(lp3196
g1291
ag2285
asg24
I00
sg25
I00
sg26
I11573660
sg17
S'101582.665756'
p3197
sba(igraph
Edge
p3198
(dp3199
g7
I1
sg8
I00
sg9
I5
sg10
(lp3200
g1298
ag2285
asg24
I00
sg25
I00
sg26
I11573661
sg17
S'101590.96192'
p3201
sba(igraph
Edge
p3202
(dp3203
g7
I1
sg8
I00
sg9
I5
sg10
(lp3204
g1298
ag2292
asg24
I00
sg25
I00
sg26
I11573662
sg17
S'101590.98066'
p3205
sba(igraph
Edge
p3206
(dp3207
g7
I1
sg8
I00
sg9
I5
sg10
(lp3208
g85
ag102
asg24
I00
sg25
I00
sg26
I11573663
sg17
S'101602.138712'
p3209
sba(igraph
Edge
p3210
(dp3211
g7
I1
sg8
I00
sg9
I5
sg10
(lp3212
g1309
ag2292
asg24
I00
sg25
I00
sg26
I11573664
sg17
S'101683.839086'
p3213
sba(igraph
Edge
p3214
(dp3215
g7
I1
sg8
I00
sg9
I5
sg10
(lp3216
g1309
ag2303
asg24
I00
sg25
I00
sg26
I11573665
sg17
S'101683.851172'
p3217
sba(igraph
Edge
p3218
(dp3219
g7
I1
sg8
I00
sg9
I5
sg10
(lp3220
g1312
ag2303
asg24
I00
sg25
I00
sg26
I11573666
sg17
S'101691.13372'
p3221
sba(igraph
Edge
p3222
(dp3223
g7
I1
sg8
I00
sg9
I5
sg10
(lp3224
g1312
ag2306
asg24
I00
sg25
I00
sg26
I11573667
sg17
S'101691.145183'
p3225
sba(igraph
Edge
p3226
(dp3227
g7
I1
sg8
I00
sg9
I5
sg10
(lp3228
g1319
ag2306
asg24
I00
sg25
I00
sg26
I11573668
sg17
S'101698.335411'
p3229
sba(igraph
Edge
p3230
(dp3231
g7
I1
sg8
I00
sg9
I5
sg10
(lp3232
g1319
ag2313
asg24
I00
sg25
I00
sg26
I11573669
sg17
S'101698.347495'
p3233
sba(igraph
Edge
p3234
(dp3235
g7
I1
sg8
I00
sg9
I5
sg10
(lp3236
g1326
ag2313
asg24
I00
sg25
I00
sg26
I11573670
sg17
S'101705.677257'
p3237
sba(igraph
Edge
p3238
(dp3239
g7
I1
sg8
I00
sg9
I5
sg10
(lp3240
g1326
ag2320
asg24
I00
sg25
I00
sg26
I11573671
sg17
S'101705.6888'
p3241
sba(igraph
Edge
p3242
(dp3243
g7
I1
sg8
I00
sg9
I5
sg10
(lp3244
g1408
ag2320
asg24
I00
sg25
I00
sg26
I11573672
sg17
S'101713.744081'
p3245
sba(igraph
Edge
p3246
(dp3247
g7
I1
sg8
I00
sg9
I5
sg10
(lp3248
g1408
ag2402
asg24
I00
sg25
I00
sg26
I11573673
sg17
S'101713.756764'
p3249
sba(igraph
Edge
p3250
(dp3251
g7
I1
sg8
I00
sg9
I5
sg10
(lp3252
g2402
ag2693
asg24
I00
sg25
I00
sg26
I11573674
sg17
S'101723.778014'
p3253
sba(igraph
Edge
p3254
(dp3255
g7
I1
sg8
I00
sg9
I5
sg10
(lp3256
g2693
ag2847
asg24
I00
sg25
I00
sg26
I11573675
sg17
S'101723.803321'
p3257
sbasS'vertices'
p3258
(lp3259
g12
ag21
ag31
ag34
ag41
ag44
ag75
ag78
ag85
ag92
ag95
ag102
ag109
ag112
ag119
ag182
ag185
ag192
ag199
ag202
ag209
ag216
ag219
ag226
ag273
ag276
ag283
ag330
ag333
ag340
ag343
ag350
ag361
ag364
ag371
ag378
ag457
ag460
ag467
ag470
ag477
ag488
ag491
ag498
ag505
ag584
ag587
ag594
ag597
ag604
ag615
ag618
ag625
ag632
ag711
ag714
ag721
ag724
ag731
ag742
ag745
ag752
ag759
ag838
ag841
ag848
ag851
ag858
ag869
ag872
ag879
ag886
ag965
ag968
ag975
ag978
ag985
ag996
ag999
ag1006
ag1013
ag1092
ag1095
ag1102
ag1109
ag1116
ag1123
ag1130
ag1137
ag1144
ag1219
ag1222
ag1229
ag1232
ag1239
ag1250
ag1253
ag1260
ag1267
ag1278
ag1281
ag1288
ag1291
ag1298
ag1309
ag1312
ag1319
ag1326
ag1405
ag1408
ag1503
ag1506
ag1513
ag1516
ag1535
ag1538
ag1545
ag1552
ag1555
ag1562
ag1601
ag1604
ag1611
ag1618
ag1621
ag1628
ag1655
ag1658
ag1689
ag1692
ag1787
ag1790
ag1797
ag1800
ag1807
ag1818
ag1821
ag1828
ag1835
ag1846
ag1849
ag1856
ag1859
ag1866
ag1877
ag1880
ag1887
ag1894
ag1973
ag1976
ag1995
ag1998
ag2005
ag2008
ag2015
ag2026
ag2029
ag2036
ag2043
ag2054
ag2213
ag2216
ag2223
ag2226
ag2233
ag2244
ag2247
ag2254
ag2261
ag2272
ag2275
ag2282
ag2285
ag2292
ag2303
ag2306
ag2313
ag2320
ag2399
ag2402
ag2497
ag2500
ag2507
ag2510
ag2517
ag2520
ag2551
ag2554
ag2573
ag2576
ag2595
ag2598
ag2617
ag2620
ag2639
ag2642
ag2661
ag2664
ag2683
ag2686
ag2693
ag2696
ag2727
ag2730
ag2737
ag2740
ag2771
ag2774
ag2781
ag2784
ag2803
ag2806
ag2837
ag2840
ag2847
ag2850
asS'tags'
p3260
(lp3261
sb.