(igraph
Graph
p0
(dp1
S'labelingConstraints'
p2
I-1
sS'edges'
p3
(lp4
(igraph
Edge
p5
(dp6
S'direction'
p7
I1
sS'selected'
p8
I00
sS'height'
p9
I5
sS'vs'
p10
(lp11
(igraph
Vertex
p12
(dp13
S'xnorm'
p14
F0.35406177702612707
sg8
I00
sS'label'
p15
S'NULL'
p16
sS'y'
p17
F74.911857871112829
sS'x'
p18
F-102.98925029792008
sS'circle'
p19
I16571710
sS'id'
p20
S'104678.029629'
p21
sS'ynorm'
p22
F0.6067944495002463
sba(igraph
Vertex
p23
(dp24
g14
F0.41605333037655118
sg8
I00
sg15
g16
sg17
F74.911857871112829
sg18
F-60.091095379426577
sg19
I16571711
sg20
S'104678.030288'
p25
sg22
F0.6067944495002463
sbasS'wrap'
p26
I00
sS'curved'
p27
I00
sS'line'
p28
I16571386
sg20
S'104678.635802'
p29
sba(igraph
Edge
p30
(dp31
g7
I1
sg8
I00
sg9
I5
sg10
(lp32
(igraph
Vertex
p33
(dp34
g14
F0.48295096371605806
sg8
I00
sg15
g16
sg17
F74.867403503590538
sg18
F-13.797933108487825
sg19
I16571712
sg20
S'104678.03105'
p35
sg22
F0.60669738756242475
sba(igraph
Vertex
p36
(dp37
g14
F0.54494251706648222
sg8
I00
sg15
g16
sg17
F74.867403503590538
sg18
F29.100221810005678
sg19
I16571713
sg20
S'104678.031738'
p38
sg22
F0.60669738756242475
sbasg26
I00
sg27
I00
sg28
I16571387
sg20
S'104678.639943'
p39
sba(igraph
Edge
p40
(dp41
g7
I1
sg8
I00
sg9
I5
sg10
(lp42
g36
a(igraph
Vertex
p43
(dp44
g14
F0.60693407041690639
sg8
I00
sg15
g16
sg17
F74.867403503590538
sg18
F71.998376728499238
sg19
I16571714
sg20
S'104678.032496'
p45
sg22
F0.60669738756242475
sbasg26
I00
sg27
I00
sg28
I16571388
sg20
S'104678.644163'
p46
sba(igraph
Edge
p47
(dp48
g7
I1
sg8
I00
sg9
I5
sg10
(lp49
g23
ag33
asg26
I00
sg27
I00
sg28
I16571389
sg20
S'104678.649431'
p50
sba(igraph
Edge
p51
(dp52
g7
I1
sg8
I00
sg9
I5
sg10
(lp53
(igraph
Vertex
p54
(dp55
g14
F0.67188513619068979
sg8
I00
sg15
g16
sg17
F74.749344977047997
sg18
F116.94451424395731
sg19
I16571715
sg20
S'104678.033199'
p56
sg22
F0.60643961785381661
sba(igraph
Vertex
p57
(dp58
g14
F0.73387668954111396
sg8
I00
sg15
I0
sg17
F74.749344977047997
sg18
F159.84266916245087
sg19
I16571716
sg20
S'104678.03395'
p59
sg22
F0.60643961785381661
sbasg26
I00
sg27
I00
sg28
I16571390
sg20
S'104678.653757'
p60
sba(igraph
Edge
p61
(dp62
g7
I1
sg8
I00
sg9
I5
sg10
(lp63
g57
a(igraph
Vertex
p64
(dp65
g14
F0.79586824289153801
sg8
I00
sg15
g16
sg17
F74.749344977047997
sg18
F202.74082408094432
sg19
I16571718
sg20
S'104678.034682'
p66
sg22
F0.60643961785381661
sbasg26
I00
sg27
I00
sg28
I16571391
sg20
S'104678.658217'
p67
sba(igraph
Edge
p68
(dp69
g7
I1
sg8
I00
sg9
I5
sg10
(lp70
g64
a(igraph
Vertex
p71
(dp72
g14
F0.86276587623104506
sg8
I00
sg15
g16
sg17
F74.704890609525705
sg18
F249.03398635188319
sg19
I16571719
sg20
S'104678.035431'
p73
sg22
F0.60634255591599495
sbasg26
I00
sg27
I00
sg28
I16571392
sg20
S'104678.662555'
p74
sba(igraph
Edge
p75
(dp76
g7
I1
sg8
I00
sg9
I5
sg10
(lp77
g43
ag54
asg26
I00
sg27
I00
sg28
I16571393
sg20
S'104678.666981'
p78
sba(igraph
Edge
p79
(dp80
g7
I1
sg8
I00
sg9
I5
sg10
(lp81
(igraph
Vertex
p82
(dp83
g14
F0.35695195043653166
sg8
I00
sg15
g16
sg17
F106.11672139468601
sg18
F-100.98925029792011
sg19
I16571720
sg20
S'104678.036184'
p84
sg22
F0.6749273392897075
sba(igraph
Vertex
p85
(dp86
g14
F0.41894350378695583
sg8
I00
sg15
I0
sg17
F106.11672139468601
sg18
F-58.091095379426577
sg19
I16571721
sg20
S'104678.036949'
p87
sg22
F0.6749273392897075
sbasg26
I00
sg27
I00
sg28
I16571394
sg20
S'104678.756111'
p88
sba(igraph
Edge
p89
(dp90
g7
I1
sg8
I00
sg9
I5
sg10
(lp91
(igraph
Vertex
p92
(dp93
g14
F0.48584113712646271
sg8
I00
sg15
g16
sg17
F106.07226702716372
sg18
F-11.797933108487825
sg19
I16571723
sg20
S'104678.037718'
p94
sg22
F0.67483027735188583
sba(igraph
Vertex
p95
(dp96
g14
F0.54783269047688676
sg8
I00
sg15
g16
sg17
F106.07226702716372
sg18
F31.100221810005678
sg19
I16571724
sg20
S'104678.038523'
p97
sg22
F0.67483027735188583
sbasg26
I00
sg27
I00
sg28
I16571395
sg20
S'104678.761192'
p98
sba(igraph
Edge
p99
(dp100
g7
I1
sg8
I00
sg9
I5
sg10
(lp101
g95
a(igraph
Vertex
p102
(dp103
g14
F0.60982424382731104
sg8
I00
sg15
I0
sg17
F106.07226702716372
sg18
F73.998376728499238
sg19
I16571725
sg20
S'104678.039347'
p104
sg22
F0.67483027735188583
sbasg26
I00
sg27
I00
sg28
I16571396
sg20
S'104678.76629'
p105
sba(igraph
Edge
p106
(dp107
g7
I1
sg8
I00
sg9
I5
sg10
(lp108
g85
ag92
asg26
I00
sg27
I00
sg28
I16571397
sg20
S'104678.77137'
p109
sba(igraph
Edge
p110
(dp111
g7
I1
sg8
I00
sg9
I5
sg10
(lp112
(igraph
Vertex
p113
(dp114
g14
F0.67477530960109433
sg8
I00
sg15
g16
sg17
F105.95420850062112
sg18
F118.94451424395731
sg19
I16571727
sg20
S'104678.040169'
p115
sg22
F0.67457250764327759
sba(igraph
Vertex
p116
(dp117
g14
F0.73676686295151861
sg8
I00
sg15
g16
sg17
F105.95420850062112
sg18
F161.84266916245087
sg19
I16571728
sg20
S'104678.040999'
p118
sg22
F0.67457250764327759
sbasg26
I00
sg27
I00
sg28
I16571398
sg20
S'104678.776886'
p119
sba(igraph
Edge
p120
(dp121
g7
I1
sg8
I00
sg9
I5
sg10
(lp122
g116
a(igraph
Vertex
p123
(dp124
g14
F0.79875841630194266
sg8
I00
sg15
g16
sg17
F105.95420850062112
sg18
F204.74082408094432
sg19
I16571729
sg20
S'104678.041861'
p125
sg22
F0.67457250764327759
sbasg26
I00
sg27
I00
sg28
I16571399
sg20
S'104678.78297'
p126
sba(igraph
Edge
p127
(dp128
g7
I1
sg8
I00
sg9
I5
sg10
(lp129
g123
a(igraph
Vertex
p130
(dp131
g14
F0.86565604964144971
sg8
I00
sg15
g16
sg17
F105.90975413309889
sg18
F251.03398635188319
sg19
I16571730
sg20
S'104678.042719'
p132
sg22
F0.67447544570545603
sbasg26
I00
sg27
I00
sg28
I16571400
sg20
S'104678.78869'
p133
sba(igraph
Edge
p134
(dp135
g7
I1
sg8
I00
sg9
I5
sg10
(lp136
g102
ag113
asg26
I00
sg27
I00
sg28
I16571401
sg20
S'104678.793894'
p137
sba(igraph
Edge
p138
(dp139
g7
I1
sg8
I00
sg9
I5
sg10
(lp140
g12
ag82
asg26
I00
sg27
I00
sg28
I16571402
sg20
S'104678.79897'
p141
sba(igraph
Edge
p142
(dp143
g7
I1
sg8
I00
sg9
I5
sg10
(lp144
g23
ag82
asg26
I00
sg27
I00
sg28
I16571403
sg20
S'104678.804392'
p145
sba(igraph
Edge
p146
(dp147
g7
I1
sg8
I00
sg9
I5
sg10
(lp148
g23
ag85
asg26
I00
sg27
I00
sg28
I16571404
sg20
S'104678.809559'
p149
sba(igraph
Edge
p150
(dp151
g7
I1
sg8
I00
sg9
I5
sg10
(lp152
g33
ag85
asg26
I00
sg27
I00
sg28
I16571405
sg20
S'104678.814986'
p153
sba(igraph
Edge
p154
(dp155
g7
I1
sg8
I00
sg9
I5
sg10
(lp156
g33
ag92
asg26
I00
sg27
I00
sg28
I16571406
sg20
S'104678.820847'
p157
sba(igraph
Edge
p158
(dp159
g7
I1
sg8
I00
sg9
I5
sg10
(lp160
g36
ag92
asg26
I00
sg27
I00
sg28
I16571407
sg20
S'104678.827015'
p161
sba(igraph
Edge
p162
(dp163
g7
I1
sg8
I00
sg9
I5
sg10
(lp164
g36
ag95
asg26
I00
sg27
I00
sg28
I16571408
sg20
S'104678.834332'
p165
sba(igraph
Edge
p166
(dp167
g7
I1
sg8
I00
sg9
I5
sg10
(lp168
g43
ag95
asg26
I00
sg27
I00
sg28
I16571409
sg20
S'104678.840924'
p169
sba(igraph
Edge
p170
(dp171
g7
I1
sg8
I00
sg9
I5
sg10
(lp172
g43
ag102
asg26
I00
sg27
I00
sg28
I16571410
sg20
S'104678.847645'
p173
sba(igraph
Edge
p174
(dp175
g7
I1
sg8
I00
sg9
I5
sg10
(lp176
g54
ag102
asg26
I00
sg27
I00
sg28
I16571411
sg20
S'104678.853914'
p177
sba(igraph
Edge
p178
(dp179
g7
I1
sg8
I00
sg9
I5
sg10
(lp180
g54
ag113
asg26
I00
sg27
I00
sg28
I16571412
sg20
S'104678.860189'
p181
sba(igraph
Edge
p182
(dp183
g7
I1
sg8
I00
sg9
I5
sg10
(lp184
g57
ag113
asg26
I00
sg27
I00
sg28
I16571413
sg20
S'104678.865993'
p185
sba(igraph
Edge
p186
(dp187
g7
I1
sg8
I00
sg9
I5
sg10
(lp188
g57
ag116
asg26
I00
sg27
I00
sg28
I16571414
sg20
S'104678.872103'
p189
sba(igraph
Edge
p190
(dp191
g7
I1
sg8
I00
sg9
I5
sg10
(lp192
g64
ag116
asg26
I00
sg27
I00
sg28
I16571415
sg20
S'104678.885444'
p193
sba(igraph
Edge
p194
(dp195
g7
I1
sg8
I00
sg9
I5
sg10
(lp196
g64
ag123
asg26
I00
sg27
I00
sg28
I16571416
sg20
S'104678.896012'
p197
sba(igraph
Edge
p198
(dp199
g7
I1
sg8
I00
sg9
I5
sg10
(lp200
g71
ag123
asg26
I00
sg27
I00
sg28
I16571417
sg20
S'104678.904887'
p201
sba(igraph
Edge
p202
(dp203
g7
I1
sg8
I00
sg9
I5
sg10
(lp204
g71
ag130
asg26
I00
sg27
I00
sg28
I16571418
sg20
S'104678.912276'
p205
sba(igraph
Edge
p206
(dp207
g7
I1
sg8
I00
sg9
I5
sg10
(lp208
(igraph
Vertex
p209
(dp210
g14
F0.35117160361572236
sg8
I00
sg15
g16
sg17
F138.58664695299871
sg18
F-104.98925029792011
sg19
I16571731
sg20
S'104678.043593'
p211
sg22
F0.74582237325982248
sba(igraph
Vertex
p212
(dp213
g14
F0.41316315696614647
sg8
I00
sg15
g16
sg17
F138.58664695299871
sg18
F-62.091095379426633
sg19
I16571732
sg20
S'104678.044477'
p214
sg22
F0.74582237325982248
sbasg26
I00
sg27
I00
sg28
I16571419
sg20
S'104678.919682'
p215
sba(igraph
Edge
p216
(dp217
g7
I1
sg8
I00
sg9
I5
sg10
(lp218
(igraph
Vertex
p219
(dp220
g14
F0.48006079030565335
sg8
I00
sg15
I0
sg17
F138.54219258547641
sg18
F-15.797933108487882
sg19
I16571733
sg20
S'104678.045362'
p221
sg22
F0.74572531132200093
sba(igraph
Vertex
p222
(dp223
g14
F0.54205234365607757
sg8
I00
sg15
g16
sg17
F138.54219258547641
sg18
F27.100221810005678
sg19
I16571735
sg20
S'104678.046269'
p224
sg22
F0.74572531132200093
sbasg26
I00
sg27
I00
sg28
I16571420
sg20
S'104678.934627'
p225
sba(igraph
Edge
p226
(dp227
g7
I1
sg8
I00
sg9
I5
sg10
(lp228
g222
a(igraph
Vertex
p229
(dp230
g14
F0.60404389700650174
sg8
I00
sg15
g16
sg17
F138.54219258547641
sg18
F69.998376728499238
sg19
I16571736
sg20
S'104678.047187'
p231
sg22
F0.74572531132200093
sbasg26
I00
sg27
I00
sg28
I16571421
sg20
S'104678.943247'
p232
sba(igraph
Edge
p233
(dp234
g7
I1
sg8
I00
sg9
I5
sg10
(lp235
g212
ag219
asg26
I00
sg27
I00
sg28
I16571422
sg20
S'104678.951476'
p236
sba(igraph
Edge
p237
(dp238
g7
I1
sg8
I00
sg9
I5
sg10
(lp239
(igraph
Vertex
p240
(dp241
g14
F0.66899496278028514
sg8
I00
sg15
g16
sg17
F138.42413405893376
sg18
F114.94451424395731
sg19
I16571737
sg20
S'104678.048114'
p242
sg22
F0.74546754161339246
sba(igraph
Vertex
p243
(dp244
g14
F0.73098651613070931
sg8
I00
sg15
g16
sg17
F138.42413405893376
sg18
F157.84266916245087
sg19
I16571738
sg20
S'104678.049055'
p245
sg22
F0.74546754161339246
sbasg26
I00
sg27
I00
sg28
I16571423
sg20
S'104678.95876'
p246
sba(igraph
Edge
p247
(dp248
g7
I1
sg8
I00
sg9
I5
sg10
(lp249
g243
a(igraph
Vertex
p250
(dp251
g14
F0.79297806948113336
sg8
I00
sg15
g16
sg17
F138.42413405893376
sg18
F200.74082408094432
sg19
I16571739
sg20
S'104678.050043'
p252
sg22
F0.74546754161339246
sbasg26
I00
sg27
I00
sg28
I16571424
sg20
S'104678.966368'
p253
sba(igraph
Edge
p254
(dp255
g7
I1
sg8
I00
sg9
I5
sg10
(lp256
g250
a(igraph
Vertex
p257
(dp258
g14
F0.85987570282064041
sg8
I00
sg15
g16
sg17
F138.37967969141158
sg18
F247.03398635188319
sg19
I16571740
sg20
S'104678.051015'
p259
sg22
F0.74537047967557113
sbasg26
I00
sg27
I00
sg28
I16571425
sg20
S'104678.973564'
p260
sba(igraph
Edge
p261
(dp262
g7
I1
sg8
I00
sg9
I5
sg10
(lp263
g229
ag240
asg26
I00
sg27
I00
sg28
I16571426
sg20
S'104678.979468'
p264
sba(igraph
Edge
p265
(dp266
g7
I1
sg8
I00
sg9
I5
sg10
(lp267
g82
ag209
asg26
I00
sg27
I00
sg28
I16571427
sg20
S'104678.985919'
p268
sba(igraph
Edge
p269
(dp270
g7
I1
sg8
I00
sg9
I5
sg10
(lp271
g85
ag209
asg26
I00
sg27
I00
sg28
I16571428
sg20
S'104678.99197'
p272
sba(igraph
Edge
p273
(dp274
g7
I1
sg8
I00
sg9
I5
sg10
(lp275
g85
ag212
asg26
I00
sg27
I00
sg28
I16571429
sg20
S'104678.997944'
p276
sba(igraph
Edge
p277
(dp278
g7
I1
sg8
I00
sg9
I5
sg10
(lp279
g92
ag212
asg26
I00
sg27
I00
sg28
I16571430
sg20
S'104679.003961'
p280
sba(igraph
Edge
p281
(dp282
g7
I1
sg8
I00
sg9
I5
sg10
(lp283
g92
ag219
asg26
I00
sg27
I00
sg28
I16571431
sg20
S'104679.010142'
p284
sba(igraph
Edge
p285
(dp286
g7
I1
sg8
I00
sg9
I5
sg10
(lp287
g95
ag219
asg26
I00
sg27
I00
sg28
I16571432
sg20
S'104679.016286'
p288
sba(igraph
Edge
p289
(dp290
g7
I1
sg8
I00
sg9
I5
sg10
(lp291
g95
ag222
asg26
I00
sg27
I00
sg28
I16571433
sg20
S'104679.022594'
p292
sba(igraph
Edge
p293
(dp294
g7
I1
sg8
I00
sg9
I5
sg10
(lp295
g102
ag222
asg26
I00
sg27
I00
sg28
I16571434
sg20
S'104679.028774'
p296
sba(igraph
Edge
p297
(dp298
g7
I1
sg8
I00
sg9
I5
sg10
(lp299
g102
ag229
asg26
I00
sg27
I00
sg28
I16571435
sg20
S'104679.035169'
p300
sba(igraph
Edge
p301
(dp302
g7
I1
sg8
I00
sg9
I5
sg10
(lp303
g113
ag229
asg26
I00
sg27
I00
sg28
I16571436
sg20
S'104679.041636'
p304
sba(igraph
Edge
p305
(dp306
g7
I1
sg8
I00
sg9
I5
sg10
(lp307
g113
ag240
asg26
I00
sg27
I00
sg28
I16571437
sg20
S'104679.048104'
p308
sba(igraph
Edge
p309
(dp310
g7
I1
sg8
I00
sg9
I5
sg10
(lp311
g116
ag240
asg26
I00
sg27
I00
sg28
I16571438
sg20
S'104679.054626'
p312
sba(igraph
Edge
p313
(dp314
g7
I1
sg8
I00
sg9
I5
sg10
(lp315
g116
ag243
asg26
I00
sg27
I00
sg28
I16571439
sg20
S'104679.061115'
p316
sba(igraph
Edge
p317
(dp318
g7
I1
sg8
I00
sg9
I5
sg10
(lp319
g123
ag243
asg26
I00
sg27
I00
sg28
I16571440
sg20
S'104679.06746'
p320
sba(igraph
Edge
p321
(dp322
g7
I1
sg8
I00
sg9
I5
sg10
(lp323
g123
ag250
asg26
I00
sg27
I00
sg28
I16571441
sg20
S'104679.073997'
p324
sba(igraph
Edge
p325
(dp326
g7
I1
sg8
I00
sg9
I5
sg10
(lp327
g130
ag250
asg26
I00
sg27
I00
sg28
I16571442
sg20
S'104679.080441'
p328
sba(igraph
Edge
p329
(dp330
g7
I1
sg8
I00
sg9
I5
sg10
(lp331
g130
ag257
asg26
I00
sg27
I00
sg28
I16571443
sg20
S'104679.08717'
p332
sba(igraph
Edge
p333
(dp334
g7
I1
sg8
I00
sg9
I5
sg10
(lp335
(igraph
Vertex
p336
(dp337
g14
F0.93085440485822069
sg8
I00
sg15
g16
sg17
F77.754152134324727
sg18
F296.1512481618887
sg19
I16571741
sg20
S'104678.058308'
p338
sg22
F0.61300033217101468
sba(igraph
Vertex
p339
(dp340
g14
F0.93374457826862534
sg8
I00
sg15
g16
sg17
F108.95901565789785
sg18
F298.1512481618887
sg19
I16571742
sg20
S'104678.059369'
p341
sg22
F0.68113322196047565
sbasg26
I00
sg27
I00
sg28
I16571444
sg20
S'104679.134863'
p342
sba(igraph
Edge
p343
(dp344
g7
I1
sg8
I00
sg9
I5
sg10
(lp345
g339
a(igraph
Vertex
p346
(dp347
g14
F0.92796423144781603
sg8
I00
sg15
g16
sg17
F141.42894121621055
sg18
F294.1512481618887
sg19
I16571743
sg20
S'104678.060487'
p348
sg22
F0.75202825593059075
sbasg26
I00
sg27
I00
sg28
I16571445
sg20
S'104679.141661'
p349
sba(igraph
Edge
p350
(dp351
g7
I1
sg8
I00
sg9
I5
sg10
(lp352
g71
ag336
asg26
I00
sg27
I00
sg28
I16571446
sg20
S'104679.233558'
p353
sba(igraph
Edge
p354
(dp355
g7
I1
sg8
I00
sg9
I5
sg10
(lp356
g130
ag336
asg26
I00
sg27
I00
sg28
I16571447
sg20
S'104679.240782'
p357
sba(igraph
Edge
p358
(dp359
g7
I1
sg8
I00
sg9
I5
sg10
(lp360
g130
ag339
asg26
I00
sg27
I00
sg28
I16571448
sg20
S'104679.248133'
p361
sba(igraph
Edge
p362
(dp363
g7
I1
sg8
I00
sg9
I5
sg10
(lp364
g257
ag339
asg26
I00
sg27
I00
sg28
I16571449
sg20
S'104679.255562'
p365
sba(igraph
Edge
p366
(dp367
g7
I1
sg8
I00
sg9
I5
sg10
(lp368
g257
ag346
asg26
I00
sg27
I00
sg28
I16571450
sg20
S'104679.262647'
p369
sba(igraph
Edge
p370
(dp371
g7
I1
sg8
I00
sg9
I5
sg10
(lp372
(igraph
Vertex
p373
(dp374
g14
F0.3557466149229776
sg8
I00
sg15
I0
sg17
F165.47507333886927
sg18
F-101.8233424732995
sg19
I16571744
sg20
S'104678.061574'
p375
sg22
F0.80453072781412505
sba(igraph
Vertex
p376
(dp377
g14
F0.41773816827340171
sg8
I00
sg15
g16
sg17
F165.47507333886927
sg18
F-58.92518755480603
sg19
I16571746
sg20
S'104678.062804'
p378
sg22
F0.80453072781412505
sbasg26
I00
sg27
I00
sg28
I16571451
sg20
S'104679.269866'
p379
sba(igraph
Edge
p380
(dp381
g7
I1
sg8
I00
sg9
I5
sg10
(lp382
(igraph
Vertex
p383
(dp384
g14
F0.48463580161290853
sg8
I00
sg15
g16
sg17
F165.43061897134703
sg18
F-12.632025283867279
sg19
I16571747
sg20
S'104678.063976'
p385
sg22
F0.80443366587630361
sba(igraph
Vertex
p386
(dp387
g14
F0.54662735496333281
sg8
I00
sg15
g16
sg17
F165.43061897134703
sg18
F30.266129634626282
sg19
I16571748
sg20
S'104678.065397'
p388
sg22
F0.80443366587630361
sbasg26
I00
sg27
I00
sg28
I16571452
sg20
S'104679.277188'
p389
sba(igraph
Edge
p390
(dp391
g7
I1
sg8
I00
sg9
I5
sg10
(lp392
g386
a(igraph
Vertex
p393
(dp394
g14
F0.60861890831375698
sg8
I00
sg15
g16
sg17
F165.43061897134703
sg18
F73.164284553119842
sg19
I16571749
sg20
S'104678.066591'
p395
sg22
F0.80443366587630361
sbasg26
I00
sg27
I00
sg28
I16571453
sg20
S'104679.285104'
p396
sba(igraph
Edge
p397
(dp398
g7
I1
sg8
I00
sg9
I5
sg10
(lp399
g376
ag383
asg26
I00
sg27
I00
sg28
I16571454
sg20
S'104679.293359'
p400
sba(igraph
Edge
p401
(dp402
g7
I1
sg8
I00
sg9
I5
sg10
(lp403
(igraph
Vertex
p404
(dp405
g14
F0.67356997408754038
sg8
I00
sg15
g16
sg17
F165.31256044480443
sg18
F118.11042206857792
sg19
I16571750
sg20
S'104678.067761'
p406
sg22
F0.80417589616769525
sba(igraph
Vertex
p407
(dp408
g14
F0.73556152743796455
sg8
I00
sg15
g16
sg17
F165.31256044480443
sg18
F161.00857698707148
sg19
I16571751
sg20
S'104678.068967'
p409
sg22
F0.80417589616769525
sbasg26
I00
sg27
I00
sg28
I16571455
sg20
S'104679.302952'
p410
sba(igraph
Edge
p411
(dp412
g7
I1
sg8
I00
sg9
I5
sg10
(lp413
g407
a(igraph
Vertex
p414
(dp415
g14
F0.7975530807883886
sg8
I00
sg15
g16
sg17
F165.31256044480443
sg18
F203.90673190556493
sg19
I16571752
sg20
S'104678.070147'
p416
sg22
F0.80417589616769525
sbasg26
I00
sg27
I00
sg28
I16571456
sg20
S'104679.311752'
p417
sba(igraph
Edge
p418
(dp419
g7
I1
sg8
I00
sg9
I5
sg10
(lp420
g414
a(igraph
Vertex
p421
(dp422
g14
F0.86445071412789565
sg8
I00
sg15
g16
sg17
F165.2681060772822
sg18
F250.19989417650379
sg19
I16571753
sg20
S'104678.071346'
p423
sg22
F0.80407883422987381
sbasg26
I00
sg27
I00
sg28
I16571457
sg20
S'104679.320935'
p424
sba(igraph
Edge
p425
(dp426
g7
I1
sg8
I00
sg9
I5
sg10
(lp427
g393
ag404
asg26
I00
sg27
I00
sg28
I16571458
sg20
S'104679.330849'
p428
sba(igraph
Edge
p429
(dp430
g7
I1
sg8
I00
sg9
I5
sg10
(lp431
(igraph
Vertex
p432
(dp433
g14
F0.35736680534300302
sg8
I00
sg15
g16
sg17
F196.46484602082307
sg18
F-100.70217070264189
sg19
I16571754
sg20
S'104678.072562'
p434
sg22
F0.87219398694502859
sba(igraph
Vertex
p435
(dp436
g14
F0.42062834168380631
sg8
I00
sg15
g16
sg17
F196.67993686244245
sg18
F-56.92518755480603
sg19
I16571755
sg20
S'104678.073779'
p437
sg22
F0.87266361760358613
sbasg26
I00
sg27
I00
sg28
I16571459
sg20
S'104679.33911'
p438
sba(igraph
Edge
p439
(dp440
g7
I1
sg8
I00
sg9
I5
sg10
(lp441
(igraph
Vertex
p442
(dp443
g14
F0.48752597502331319
sg8
I00
sg15
g16
sg17
F196.63548249492021
sg18
F-10.632025283867279
sg19
I16571756
sg20
S'104678.075104'
p444
sg22
F0.87256655566576469
sba(igraph
Vertex
p445
(dp446
g14
F0.54951752837373735
sg8
I00
sg15
g16
sg17
F196.63548249492021
sg18
F32.266129634626282
sg19
I16571757
sg20
S'104678.076372'
p447
sg22
F0.87256655566576469
sbasg26
I00
sg27
I00
sg28
I16571460
sg20
S'104679.347992'
p448
sba(igraph
Edge
p449
(dp450
g7
I1
sg8
I00
sg9
I5
sg10
(lp451
g445
a(igraph
Vertex
p452
(dp453
g14
F0.61150908172416163
sg8
I00
sg15
g16
sg17
F196.63548249492021
sg18
F75.164284553119842
sg19
I16571758
sg20
S'104678.077634'
p454
sg22
F0.87256655566576469
sbasg26
I00
sg27
I00
sg28
I16571461
sg20
S'104679.356346'
p455
sba(igraph
Edge
p456
(dp457
g7
I1
sg8
I00
sg9
I5
sg10
(lp458
g435
ag442
asg26
I00
sg27
I00
sg28
I16571462
sg20
S'104679.366137'
p459
sba(igraph
Edge
p460
(dp461
g7
I1
sg8
I00
sg9
I5
sg10
(lp462
(igraph
Vertex
p463
(dp464
g14
F0.67646014749794492
sg8
I00
sg15
g16
sg17
F196.51742396837767
sg18
F120.11042206857792
sg19
I16571759
sg20
S'104678.078901'
p465
sg22
F0.87230878595715644
sba(igraph
Vertex
p466
(dp467
g14
F0.7384517008483692
sg8
I00
sg15
g16
sg17
F196.51742396837767
sg18
F163.00857698707148
sg19
I16571760
sg20
S'104678.080232'
p468
sg22
F0.87230878595715644
sbasg26
I00
sg27
I00
sg28
I16571463
sg20
S'104679.375147'
p469
sba(igraph
Edge
p470
(dp471
g7
I1
sg8
I00
sg9
I5
sg10
(lp472
g466
a(igraph
Vertex
p473
(dp474
g14
F0.80044325419879325
sg8
I00
sg15
g16
sg17
F196.51742396837767
sg18
F205.90673190556493
sg19
I16571761
sg20
S'104678.08171'
p475
sg22
F0.87230878595715644
sbasg26
I00
sg27
I00
sg28
I16571464
sg20
S'104679.38398'
p476
sba(igraph
Edge
p477
(dp478
g7
I1
sg8
I00
sg9
I5
sg10
(lp479
g473
a(igraph
Vertex
p480
(dp481
g14
F0.8673408875383003
sg8
I00
sg15
g16
sg17
F196.47296960085544
sg18
F252.19989417650379
sg19
I16571762
sg20
S'104678.083096'
p482
sg22
F0.872211724019335
sbasg26
I00
sg27
I00
sg28
I16571465
sg20
S'104679.393514'
p483
sba(igraph
Edge
p484
(dp485
g7
I1
sg8
I00
sg9
I5
sg10
(lp486
g452
ag463
asg26
I00
sg27
I00
sg28
I16571466
sg20
S'104679.408559'
p487
sba(igraph
Edge
p488
(dp489
g7
I1
sg8
I00
sg9
I5
sg10
(lp490
g373
ag432
asg26
I00
sg27
I00
sg28
I16571467
sg20
S'104679.417265'
p491
sba(igraph
Edge
p492
(dp493
g7
I1
sg8
I00
sg9
I5
sg10
(lp494
g376
ag432
asg26
I00
sg27
I00
sg28
I16571468
sg20
S'104679.427757'
p495
sba(igraph
Edge
p496
(dp497
g7
I1
sg8
I00
sg9
I5
sg10
(lp498
g376
ag435
asg26
I00
sg27
I00
sg28
I16571469
sg20
S'104679.43721'
p499
sba(igraph
Edge
p500
(dp501
g7
I1
sg8
I00
sg9
I5
sg10
(lp502
g383
ag435
asg26
I00
sg27
I00
sg28
I16571470
sg20
S'104679.446773'
p503
sba(igraph
Edge
p504
(dp505
g7
I1
sg8
I00
sg9
I5
sg10
(lp506
g383
ag442
asg26
I00
sg27
I00
sg28
I16571471
sg20
S'104679.457495'
p507
sba(igraph
Edge
p508
(dp509
g7
I1
sg8
I00
sg9
I5
sg10
(lp510
g386
ag442
asg26
I00
sg27
I00
sg28
I16571472
sg20
S'104679.47001'
p511
sba(igraph
Edge
p512
(dp513
g7
I1
sg8
I00
sg9
I5
sg10
(lp514
g386
ag445
asg26
I00
sg27
I00
sg28
I16571473
sg20
S'104679.479749'
p515
sba(igraph
Edge
p516
(dp517
g7
I1
sg8
I00
sg9
I5
sg10
(lp518
g393
ag445
asg26
I00
sg27
I00
sg28
I16571474
sg20
S'104679.490412'
p519
sba(igraph
Edge
p520
(dp521
g7
I1
sg8
I00
sg9
I5
sg10
(lp522
g393
ag452
asg26
I00
sg27
I00
sg28
I16571475
sg20
S'104679.499741'
p523
sba(igraph
Edge
p524
(dp525
g7
I1
sg8
I00
sg9
I5
sg10
(lp526
g404
ag452
asg26
I00
sg27
I00
sg28
I16571476
sg20
S'104679.510233'
p527
sba(igraph
Edge
p528
(dp529
g7
I1
sg8
I00
sg9
I5
sg10
(lp530
g404
ag463
asg26
I00
sg27
I00
sg28
I16571477
sg20
S'104679.520114'
p531
sba(igraph
Edge
p532
(dp533
g7
I1
sg8
I00
sg9
I5
sg10
(lp534
g407
ag463
asg26
I00
sg27
I00
sg28
I16571478
sg20
S'104679.528767'
p535
sba(igraph
Edge
p536
(dp537
g7
I1
sg8
I00
sg9
I5
sg10
(lp538
g407
ag466
asg26
I00
sg27
I00
sg28
I16571479
sg20
S'104679.540058'
p539
sba(igraph
Edge
p540
(dp541
g7
I1
sg8
I00
sg9
I5
sg10
(lp542
g414
ag466
asg26
I00
sg27
I00
sg28
I16571480
sg20
S'104679.549454'
p543
sba(igraph
Edge
p544
(dp545
g7
I1
sg8
I00
sg9
I5
sg10
(lp546
g414
ag473
asg26
I00
sg27
I00
sg28
I16571481
sg20
S'104679.558451'
p547
sba(igraph
Edge
p548
(dp549
g7
I1
sg8
I00
sg9
I5
sg10
(lp550
g421
ag473
asg26
I00
sg27
I00
sg28
I16571482
sg20
S'104679.568539'
p551
sba(igraph
Edge
p552
(dp553
g7
I1
sg8
I00
sg9
I5
sg10
(lp554
g421
ag480
asg26
I00
sg27
I00
sg28
I16571483
sg20
S'104679.577921'
p555
sba(igraph
Edge
p556
(dp557
g7
I1
sg8
I00
sg9
I5
sg10
(lp558
(igraph
Vertex
p559
(dp560
g14
F0.93253924275507127
sg8
I00
sg15
g16
sg17
F168.31736760208116
sg18
F297.31715598650931
sg19
I16571763
sg20
S'104678.084466'
p561
sg22
F0.81073661048489332
sba(igraph
Vertex
p562
(dp563
g14
F0.93542941616547592
sg8
I00
sg15
g16
sg17
F199.52223112565434
sg18
F299.31715598650931
sg19
I16571764
sg20
S'104678.085903'
p564
sg22
F0.87886950027435451
sbasg26
I00
sg27
I00
sg28
I16571484
sg20
S'104679.588227'
p565
sba(igraph
Edge
p566
(dp567
g7
I1
sg8
I00
sg9
I5
sg10
(lp568
g421
ag559
asg26
I00
sg27
I00
sg28
I16571485
sg20
S'104679.599052'
p569
sba(igraph
Edge
p570
(dp571
g7
I1
sg8
I00
sg9
I5
sg10
(lp572
g480
ag559
asg26
I00
sg27
I00
sg28
I16571486
sg20
S'104679.609612'
p573
sba(igraph
Edge
p574
(dp575
g7
I1
sg8
I00
sg9
I5
sg10
(lp576
g480
ag562
asg26
I00
sg27
I00
sg28
I16571487
sg20
S'104679.620019'
p577
sba(igraph
Edge
p578
(dp579
g7
I1
sg8
I00
sg9
I5
sg10
(lp580
g209
ag373
asg26
I00
sg27
I00
sg28
I16571488
sg20
S'104679.630624'
p581
sba(igraph
Edge
p582
(dp583
g7
I1
sg8
I00
sg9
I5
sg10
(lp584
g212
ag373
asg26
I00
sg27
I00
sg28
I16571489
sg20
S'104679.641061'
p585
sba(igraph
Edge
p586
(dp587
g7
I1
sg8
I00
sg9
I5
sg10
(lp588
g212
ag376
asg26
I00
sg27
I00
sg28
I16571490
sg20
S'104679.655346'
p589
sba(igraph
Edge
p590
(dp591
g7
I1
sg8
I00
sg9
I5
sg10
(lp592
g219
ag376
asg26
I00
sg27
I00
sg28
I16571491
sg20
S'104679.666256'
p593
sba(igraph
Edge
p594
(dp595
g7
I1
sg8
I00
sg9
I5
sg10
(lp596
g219
ag383
asg26
I00
sg27
I00
sg28
I16571492
sg20
S'104679.676764'
p597
sba(igraph
Edge
p598
(dp599
g7
I1
sg8
I00
sg9
I5
sg10
(lp600
g222
ag383
asg26
I00
sg27
I00
sg28
I16571493
sg20
S'104679.686601'
p601
sba(igraph
Edge
p602
(dp603
g7
I1
sg8
I00
sg9
I5
sg10
(lp604
g222
ag386
asg26
I00
sg27
I00
sg28
I16571494
sg20
S'104679.695922'
p605
sba(igraph
Edge
p606
(dp607
g7
I1
sg8
I00
sg9
I5
sg10
(lp608
g229
ag386
asg26
I00
sg27
I00
sg28
I16571495
sg20
S'104679.705635'
p609
sba(igraph
Edge
p610
(dp611
g7
I1
sg8
I00
sg9
I5
sg10
(lp612
g229
ag393
asg26
I00
sg27
I00
sg28
I16571496
sg20
S'104679.715299'
p613
sba(igraph
Edge
p614
(dp615
g7
I1
sg8
I00
sg9
I5
sg10
(lp616
g240
ag393
asg26
I00
sg27
I00
sg28
I16571497
sg20
S'104679.724975'
p617
sba(igraph
Edge
p618
(dp619
g7
I1
sg8
I00
sg9
I5
sg10
(lp620
g240
ag404
asg26
I00
sg27
I00
sg28
I16571498
sg20
S'104679.734529'
p621
sba(igraph
Edge
p622
(dp623
g7
I1
sg8
I00
sg9
I5
sg10
(lp624
g243
ag404
asg26
I00
sg27
I00
sg28
I16571499
sg20
S'104679.744502'
p625
sba(igraph
Edge
p626
(dp627
g7
I1
sg8
I00
sg9
I5
sg10
(lp628
g243
ag407
asg26
I00
sg27
I00
sg28
I16571500
sg20
S'104679.756709'
p629
sba(igraph
Edge
p630
(dp631
g7
I1
sg8
I00
sg9
I5
sg10
(lp632
g250
ag407
asg26
I00
sg27
I00
sg28
I16571501
sg20
S'104679.768332'
p633
sba(igraph
Edge
p634
(dp635
g7
I1
sg8
I00
sg9
I5
sg10
(lp636
g250
ag414
asg26
I00
sg27
I00
sg28
I16571502
sg20
S'104679.78053'
p637
sba(igraph
Edge
p638
(dp639
g7
I1
sg8
I00
sg9
I5
sg10
(lp640
g257
ag414
asg26
I00
sg27
I00
sg28
I16571503
sg20
S'104679.793568'
p641
sba(igraph
Edge
p642
(dp643
g7
I1
sg8
I00
sg9
I5
sg10
(lp644
g257
ag421
asg26
I00
sg27
I00
sg28
I16571504
sg20
S'104679.810421'
p645
sba(igraph
Edge
p646
(dp647
g7
I1
sg8
I00
sg9
I5
sg10
(lp648
g346
ag421
asg26
I00
sg27
I00
sg28
I16571505
sg20
S'104679.821561'
p649
sba(igraph
Edge
p650
(dp651
g7
I1
sg8
I00
sg9
I5
sg10
(lp652
g346
ag559
asg26
I00
sg27
I00
sg28
I16571506
sg20
S'104679.832665'
p653
sba(igraph
Edge
p654
(dp655
g7
I1
sg8
I00
sg9
I5
sg10
(lp656
(igraph
Vertex
p657
(dp658
g14
F0.243761335279611
sg8
I00
sg15
g16
sg17
F74.118228327952806
sg18
F-179.31715598650919
sg19
I16571765
sg20
S'104678.247323'
p659
sg22
F0.60506163390382706
sba(igraph
Vertex
p660
(dp661
g14
F0.30575288863003502
sg8
I00
sg15
g16
sg17
F74.118228327952806
sg18
F-136.41900106801575
sg19
I16571766
sg20
S'104678.249842'
p662
sg22
F0.60506163390382706
sbasg26
I00
sg27
I00
sg28
I16571507
sg20
S'104683.1285'
p663
sba(igraph
Edge
p664
(dp665
g7
I1
sg8
I00
sg9
I5
sg10
(lp666
(igraph
Vertex
p667
(dp668
g14
F0.24665150869001554
sg8
I00
sg15
g16
sg17
F105.32309185152599
sg18
F-177.31715598650925
sg19
I16571767
sg20
S'104678.252369'
p669
sg22
F0.67319452369328814
sba(igraph
Vertex
p670
(dp671
g14
F0.30864306204043968
sg8
I00
sg15
g16
sg17
F105.32309185152599
sg18
F-134.41900106801575
sg19
I16571768
sg20
S'104678.254915'
p672
sg22
F0.67319452369328814
sbasg26
I00
sg27
I00
sg28
I16571508
sg20
S'104683.207481'
p673
sba(igraph
Edge
p674
(dp675
g7
I1
sg8
I00
sg9
I5
sg10
(lp676
g657
ag667
asg26
I00
sg27
I00
sg28
I16571509
sg20
S'104683.226909'
p677
sba(igraph
Edge
p678
(dp679
g7
I1
sg8
I00
sg9
I5
sg10
(lp680
g660
ag667
asg26
I00
sg27
I00
sg28
I16571510
sg20
S'104683.245663'
p681
sba(igraph
Edge
p682
(dp683
g7
I1
sg8
I00
sg9
I5
sg10
(lp684
g660
ag670
asg26
I00
sg27
I00
sg28
I16571511
sg20
S'104683.267857'
p685
sba(igraph
Edge
p686
(dp687
g7
I1
sg8
I00
sg9
I5
sg10
(lp688
(igraph
Vertex
p689
(dp690
g14
F0.24087116186920624
sg8
I00
sg15
g16
sg17
F137.79301740983863
sg18
F-181.31715598650928
sg19
I16571769
sg20
S'104678.257458'
p691
sg22
F0.74408955766340312
sba(igraph
Vertex
p692
(dp693
g14
F0.30286271521963043
sg8
I00
sg15
g16
sg17
F137.79301740983863
sg18
F-138.41900106801575
sg19
I16571770
sg20
S'104678.260153'
p694
sg22
F0.74408955766340312
sbasg26
I00
sg27
I00
sg28
I16571512
sg20
S'104683.290747'
p695
sba(igraph
Edge
p696
(dp697
g7
I1
sg8
I00
sg9
I5
sg10
(lp698
g667
ag689
asg26
I00
sg27
I00
sg28
I16571513
sg20
S'104683.316495'
p699
sba(igraph
Edge
p700
(dp701
g7
I1
sg8
I00
sg9
I5
sg10
(lp702
g670
ag689
asg26
I00
sg27
I00
sg28
I16571514
sg20
S'104683.34007'
p703
sba(igraph
Edge
p704
(dp705
g7
I1
sg8
I00
sg9
I5
sg10
(lp706
g670
ag692
asg26
I00
sg27
I00
sg28
I16571515
sg20
S'104683.36628'
p707
sba(igraph
Edge
p708
(dp709
g7
I1
sg8
I00
sg9
I5
sg10
(lp710
(igraph
Vertex
p711
(dp712
g14
F0.2454461731764615
sg8
I00
sg15
g16
sg17
F164.68144379570924
sg18
F-178.15124816188865
sg19
I16571771
sg20
S'104678.26272'
p713
sg22
F0.8027979122177058
sba(igraph
Vertex
p714
(dp715
g14
F0.30743772652688561
sg8
I00
sg15
g16
sg17
F164.68144379570924
sg18
F-135.25309324339514
sg19
I16571772
sg20
S'104678.265324'
p716
sg22
F0.8027979122177058
sbasg26
I00
sg27
I00
sg28
I16571516
sg20
S'104683.387363'
p717
sba(igraph
Edge
p718
(dp719
g7
I1
sg8
I00
sg9
I5
sg10
(lp720
(igraph
Vertex
p721
(dp722
g14
F0.24706636359648695
sg8
I00
sg15
I0
sg17
F195.67121647766305
sg18
F-177.03007639123103
sg19
I16571773
sg20
S'104678.303786'
p723
sg22
F0.87046117134860923
sba(igraph
Vertex
p724
(dp725
g14
F0.31032789993729026
sg8
I00
sg15
g16
sg17
F195.88630731928242
sg18
F-133.25309324339514
sg19
I16571775
sg20
S'104678.306541'
p726
sg22
F0.87093080200716688
sbasg26
I00
sg27
I00
sg28
I16571517
sg20
S'104683.410183'
p727
sba(igraph
Edge
p728
(dp729
g7
I1
sg8
I00
sg9
I5
sg10
(lp730
g711
ag721
asg26
I00
sg27
I00
sg28
I16571518
sg20
S'104683.430677'
p731
sba(igraph
Edge
p732
(dp733
g7
I1
sg8
I00
sg9
I5
sg10
(lp734
g714
ag721
asg26
I00
sg27
I00
sg28
I16571519
sg20
S'104683.451304'
p735
sba(igraph
Edge
p736
(dp737
g7
I1
sg8
I00
sg9
I5
sg10
(lp738
g714
ag724
asg26
I00
sg27
I00
sg28
I16571520
sg20
S'104683.470337'
p739
sba(igraph
Edge
p740
(dp741
g7
I1
sg8
I00
sg9
I5
sg10
(lp742
g689
ag711
asg26
I00
sg27
I00
sg28
I16571521
sg20
S'104683.491348'
p743
sba(igraph
Edge
p744
(dp745
g7
I1
sg8
I00
sg9
I5
sg10
(lp746
g692
ag711
asg26
I00
sg27
I00
sg28
I16571522
sg20
S'104683.512087'
p747
sba(igraph
Edge
p748
(dp749
g7
I1
sg8
I00
sg9
I5
sg10
(lp750
g692
ag714
asg26
I00
sg27
I00
sg28
I16571523
sg20
S'104683.532626'
p751
sba(igraph
Edge
p752
(dp753
g7
I1
sg8
I00
sg9
I5
sg10
(lp754
g432
ag724
asg26
I00
sg27
I00
sg28
I16571524
sg20
S'104684.228739'
p755
sba(igraph
Edge
p756
(dp757
g7
I1
sg8
I00
sg9
I5
sg10
(lp758
g724
ag373
asg26
I00
sg27
I00
sg28
I16571525
sg20
S'104684.262657'
p759
sba(igraph
Edge
p760
(dp761
g7
I1
sg8
I00
sg9
I5
sg10
(lp762
g373
ag714
asg26
I00
sg27
I00
sg28
I16571526
sg20
S'104684.320353'
p763
sba(igraph
Edge
p764
(dp765
g7
I1
sg8
I00
sg9
I5
sg10
(lp766
g714
ag209
asg26
I00
sg27
I00
sg28
I16571527
sg20
S'104684.346351'
p767
sba(igraph
Edge
p768
(dp769
g7
I1
sg8
I00
sg9
I5
sg10
(lp770
g209
ag692
asg26
I00
sg27
I00
sg28
I16571528
sg20
S'104684.387906'
p771
sba(igraph
Edge
p772
(dp773
g7
I1
sg8
I00
sg9
I5
sg10
(lp774
g692
ag82
asg26
I00
sg27
I00
sg28
I16571529
sg20
S'104684.420435'
p775
sba(igraph
Edge
p776
(dp777
g7
I1
sg8
I00
sg9
I5
sg10
(lp778
g82
ag670
asg26
I00
sg27
I00
sg28
I16571530
sg20
S'104684.446658'
p779
sba(igraph
Edge
p780
(dp781
g7
I1
sg8
I00
sg9
I5
sg10
(lp782
g670
ag12
asg26
I00
sg27
I00
sg28
I16571531
sg20
S'104684.475914'
p783
sba(igraph
Edge
p784
(dp785
g7
I1
sg8
I00
sg9
I5
sg10
(lp786
g12
ag660
asg26
I00
sg27
I00
sg28
I16571532
sg20
S'104684.511916'
p787
sba(igraph
Edge
p788
(dp789
g7
I1
sg8
I00
sg9
I5
sg10
(lp790
g336
ag657
asg26
I00
sg27
I00
sg28
I16571533
sg20
S'104685.682213'
p791
sba(igraph
Edge
p792
(dp793
g7
I1
sg8
I00
sg9
I5
sg10
(lp794
g339
ag657
asg26
I00
sg27
I00
sg28
I16571534
sg20
S'104685.701632'
p795
sba(igraph
Edge
p796
(dp797
g7
I1
sg8
I00
sg9
I5
sg10
(lp798
g339
ag667
asg26
I00
sg27
I00
sg28
I16571535
sg20
S'104685.720749'
p799
sba(igraph
Edge
p800
(dp801
g7
I1
sg8
I00
sg9
I5
sg10
(lp802
g346
ag667
asg26
I00
sg27
I00
sg28
I16571536
sg20
S'104685.741491'
p803
sba(igraph
Edge
p804
(dp805
g7
I1
sg8
I00
sg9
I5
sg10
(lp806
g346
ag689
asg26
I00
sg27
I00
sg28
I16571537
sg20
S'104685.760994'
p807
sba(igraph
Edge
p808
(dp809
g7
I1
sg8
I00
sg9
I5
sg10
(lp810
g559
ag689
asg26
I00
sg27
I00
sg28
I16571538
sg20
S'104685.780744'
p811
sba(igraph
Edge
p812
(dp813
g7
I1
sg8
I00
sg9
I5
sg10
(lp814
g559
ag711
asg26
I00
sg27
I00
sg28
I16571539
sg20
S'104685.800413'
p815
sba(igraph
Edge
p816
(dp817
g7
I1
sg8
I00
sg9
I5
sg10
(lp818
g562
ag711
asg26
I00
sg27
I00
sg28
I16571540
sg20
S'104685.820769'
p819
sba(igraph
Edge
p820
(dp821
g7
I1
sg8
I00
sg9
I5
sg10
(lp822
g562
ag721
asg26
I00
sg27
I00
sg28
I16571541
sg20
S'104685.840289'
p823
sba(igraph
Edge
p824
(dp825
g7
I1
sg8
I00
sg9
I5
sg10
(lp826
(igraph
Vertex
p827
(dp828
g17
F-49.703508332117565
sg18
F-100.98925029792012
sg19
I16571776
sg8
I00
sg20
S'109840.649873'
p829
sg15
g16
sba(igraph
Vertex
p830
(dp831
g17
F-49.703508332117565
sg18
F-58.091095379426591
sg19
I16571777
sg8
I00
sg20
S'109840.650816'
p832
sg15
g16
sbasg26
I00
sg27
I00
sg28
I16571542
sg20
S'109840.771977'
p833
sba(igraph
Edge
p834
(dp835
g7
I1
sg8
I00
sg9
I5
sg10
(lp836
(igraph
Vertex
p837
(dp838
g17
F-49.747962699639857
sg18
F-11.79793310848784
sg19
I16571778
sg8
I00
sg20
S'109840.651781'
p839
sg15
g16
sba(igraph
Vertex
p840
(dp841
g17
F-49.747962699639857
sg18
F31.100221810005664
sg19
I16571779
sg8
I00
sg20
S'109840.65272'
p842
sg15
g16
sbasg26
I00
sg27
I00
sg28
I16571543
sg20
S'109840.778175'
p843
sba(igraph
Edge
p844
(dp845
g7
I1
sg8
I00
sg9
I5
sg10
(lp846
g840
a(igraph
Vertex
p847
(dp848
g17
F-49.747962699639857
sg18
F73.998376728499224
sg19
I16571780
sg8
I00
sg20
S'109840.653675'
p849
sg15
g16
sbasg26
I00
sg27
I00
sg28
I16571544
sg20
S'109840.785336'
p850
sba(igraph
Edge
p851
(dp852
g7
I1
sg8
I00
sg9
I5
sg10
(lp853
g830
ag837
asg26
I00
sg27
I00
sg28
I16571545
sg20
S'109840.792554'
p854
sba(igraph
Edge
p855
(dp856
g7
I1
sg8
I00
sg9
I5
sg10
(lp857
(igraph
Vertex
p858
(dp859
g17
F-49.866021226182454
sg18
F118.9445142439573
sg19
I16571781
sg8
I00
sg20
S'109840.654875'
p860
sg15
g16
sba(igraph
Vertex
p861
(dp862
g17
F-49.866021226182454
sg18
F161.84266916245087
sg19
I16571782
sg8
I00
sg20
S'109840.655852'
p863
sg15
g16
sbasg26
I00
sg27
I00
sg28
I16571546
sg20
S'109840.801937'
p864
sba(igraph
Edge
p865
(dp866
g7
I1
sg8
I00
sg9
I5
sg10
(lp867
g861
a(igraph
Vertex
p868
(dp869
g17
F-49.866021226182454
sg18
F204.74082408094432
sg19
I16571783
sg8
I00
sg20
S'109840.657565'
p870
sg15
g16
sbasg26
I00
sg27
I00
sg28
I16571547
sg20
S'109840.809074'
p871
sba(igraph
Edge
p872
(dp873
g7
I1
sg8
I00
sg9
I5
sg10
(lp874
g868
a(igraph
Vertex
p875
(dp876
g17
F-49.910475593704689
sg18
F251.03398635188319
sg19
I16571784
sg8
I00
sg20
S'109840.658749'
p877
sg15
g16
sbasg26
I00
sg27
I00
sg28
I16571548
sg20
S'109840.816701'
p878
sba(igraph
Edge
p879
(dp880
g7
I1
sg8
I00
sg9
I5
sg10
(lp881
g847
ag858
asg26
I00
sg27
I00
sg28
I16571549
sg20
S'109840.823969'
p882
sba(igraph
Edge
p883
(dp884
g7
I1
sg8
I00
sg9
I5
sg10
(lp885
(igraph
Vertex
p886
(dp887
g17
F-17.233582773804869
sg18
F-104.98925029792012
sg19
I16571785
sg8
I00
sg20
S'109840.659766'
p888
sg15
g16
sba(igraph
Vertex
p889
(dp890
g17
F-17.233582773804869
sg18
F-62.091095379426648
sg19
I16571786
sg8
I00
sg20
S'109840.660778'
p891
sg15
g16
sbasg26
I00
sg27
I00
sg28
I16571550
sg20
S'109840.953082'
p892
sba(igraph
Edge
p893
(dp894
g7
I1
sg8
I00
sg9
I5
sg10
(lp895
(igraph
Vertex
p896
(dp897
g17
F-17.278037141327161
sg18
F-15.797933108487896
sg19
I16571787
sg8
I00
sg20
S'109840.661785'
p898
sg15
g16
sba(igraph
Vertex
p899
(dp900
g17
F-17.278037141327161
sg18
F27.100221810005664
sg19
I16571788
sg8
I00
sg20
S'109840.66408'
p901
sg15
g16
sbasg26
I00
sg27
I00
sg28
I16571551
sg20
S'109840.960299'
p902
sba(igraph
Edge
p903
(dp904
g7
I1
sg8
I00
sg9
I5
sg10
(lp905
g899
a(igraph
Vertex
p906
(dp907
g17
F-17.278037141327161
sg18
F69.998376728499224
sg19
I16571789
sg8
I00
sg20
S'109840.665114'
p908
sg15
g16
sbasg26
I00
sg27
I00
sg28
I16571552
sg20
S'109840.967186'
p909
sba(igraph
Edge
p910
(dp911
g7
I1
sg8
I00
sg9
I5
sg10
(lp912
g889
ag896
asg26
I00
sg27
I00
sg28
I16571553
sg20
S'109840.974588'
p913
sba(igraph
Edge
p914
(dp915
g7
I1
sg8
I00
sg9
I5
sg10
(lp916
(igraph
Vertex
p917
(dp918
g17
F-17.396095667869815
sg18
F114.9445142439573
sg19
I16571790
sg8
I00
sg20
S'109840.666348'
p919
sg15
g16
sba(igraph
Vertex
p920
(dp921
g17
F-17.396095667869815
sg18
F157.84266916245087
sg19
I16571791
sg8
I00
sg20
S'109840.667491'
p922
sg15
g16
sbasg26
I00
sg27
I00
sg28
I16571554
sg20
S'109840.983119'
p923
sba(igraph
Edge
p924
(dp925
g7
I1
sg8
I00
sg9
I5
sg10
(lp926
g920
a(igraph
Vertex
p927
(dp928
g17
F-17.396095667869815
sg18
F200.74082408094432
sg19
I16571792
sg8
I00
sg20
S'109840.66863'
p929
sg15
g16
sbasg26
I00
sg27
I00
sg28
I16571555
sg20
S'109840.990685'
p930
sba(igraph
Edge
p931
(dp932
g7
I1
sg8
I00
sg9
I5
sg10
(lp933
g927
a(igraph
Vertex
p934
(dp935
g17
F-17.440550035391993
sg18
F247.03398635188319
sg19
I16571793
sg8
I00
sg20
S'109840.669702'
p936
sg15
g16
sbasg26
I00
sg27
I00
sg28
I16571556
sg20
S'109840.998857'
p937
sba(igraph
Edge
p938
(dp939
g7
I1
sg8
I00
sg9
I5
sg10
(lp940
g906
ag917
asg26
I00
sg27
I00
sg28
I16571557
sg20
S'109841.007824'
p941
sba(igraph
Edge
p942
(dp943
g7
I1
sg8
I00
sg9
I5
sg10
(lp944
g827
ag886
asg26
I00
sg27
I00
sg28
I16571558
sg20
S'109841.015589'
p945
sba(igraph
Edge
p946
(dp947
g7
I1
sg8
I00
sg9
I5
sg10
(lp948
g830
ag886
asg26
I00
sg27
I00
sg28
I16571559
sg20
S'109841.022984'
p949
sba(igraph
Edge
p950
(dp951
g7
I1
sg8
I00
sg9
I5
sg10
(lp952
g830
ag889
asg26
I00
sg27
I00
sg28
I16571560
sg20
S'109841.030758'
p953
sba(igraph
Edge
p954
(dp955
g7
I1
sg8
I00
sg9
I5
sg10
(lp956
g837
ag889
asg26
I00
sg27
I00
sg28
I16571561
sg20
S'109841.038635'
p957
sba(igraph
Edge
p958
(dp959
g7
I1
sg8
I00
sg9
I5
sg10
(lp960
g837
ag896
asg26
I00
sg27
I00
sg28
I16571562
sg20
S'109841.046063'
p961
sba(igraph
Edge
p962
(dp963
g7
I1
sg8
I00
sg9
I5
sg10
(lp964
g840
ag896
asg26
I00
sg27
I00
sg28
I16571563
sg20
S'109841.054121'
p965
sba(igraph
Edge
p966
(dp967
g7
I1
sg8
I00
sg9
I5
sg10
(lp968
g840
ag899
asg26
I00
sg27
I00
sg28
I16571564
sg20
S'109841.062952'
p969
sba(igraph
Edge
p970
(dp971
g7
I1
sg8
I00
sg9
I5
sg10
(lp972
g847
ag899
asg26
I00
sg27
I00
sg28
I16571565
sg20
S'109841.070118'
p973
sba(igraph
Edge
p974
(dp975
g7
I1
sg8
I00
sg9
I5
sg10
(lp976
g847
ag906
asg26
I00
sg27
I00
sg28
I16571566
sg20
S'109841.078214'
p977
sba(igraph
Edge
p978
(dp979
g7
I1
sg8
I00
sg9
I5
sg10
(lp980
g858
ag906
asg26
I00
sg27
I00
sg28
I16571567
sg20
S'109841.086538'
p981
sba(igraph
Edge
p982
(dp983
g7
I1
sg8
I00
sg9
I5
sg10
(lp984
g858
ag917
asg26
I00
sg27
I00
sg28
I16571568
sg20
S'109841.09397'
p985
sba(igraph
Edge
p986
(dp987
g7
I1
sg8
I00
sg9
I5
sg10
(lp988
g861
ag917
asg26
I00
sg27
I00
sg28
I16571569
sg20
S'109841.101921'
p989
sba(igraph
Edge
p990
(dp991
g7
I1
sg8
I00
sg9
I5
sg10
(lp992
g861
ag920
asg26
I00
sg27
I00
sg28
I16571570
sg20
S'109841.10987'
p993
sba(igraph
Edge
p994
(dp995
g7
I1
sg8
I00
sg9
I5
sg10
(lp996
g868
ag920
asg26
I00
sg27
I00
sg28
I16571571
sg20
S'109841.117042'
p997
sba(igraph
Edge
p998
(dp999
g7
I1
sg8
I00
sg9
I5
sg10
(lp1000
g868
ag927
asg26
I00
sg27
I00
sg28
I16571572
sg20
S'109841.125753'
p1001
sba(igraph
Edge
p1002
(dp1003
g7
I1
sg8
I00
sg9
I5
sg10
(lp1004
g875
ag927
asg26
I00
sg27
I00
sg28
I16571573
sg20
S'109841.133101'
p1005
sba(igraph
Edge
p1006
(dp1007
g7
I1
sg8
I00
sg9
I5
sg10
(lp1008
g875
ag934
asg26
I00
sg27
I00
sg28
I16571574
sg20
S'109841.140483'
p1009
sba(igraph
Edge
p1010
(dp1011
g7
I1
sg8
I00
sg9
I5
sg10
(lp1012
(igraph
Vertex
p1013
(dp1014
g17
F-46.861214068905724
sg18
F298.1512481618887
sg19
I16571794
sg8
I00
sg20
S'109840.672232'
p1015
sg15
g16
sba(igraph
Vertex
p1016
(dp1017
g17
F-14.391288510593029
sg18
F294.1512481618887
sg19
I16571795
sg8
I00
sg20
S'109840.673425'
p1018
sg15
I0
sbasg26
I00
sg27
I00
sg28
I16571575
sg20
S'109841.161382'
p1019
sba(igraph
Edge
p1020
(dp1021
g7
I1
sg8
I00
sg9
I5
sg10
(lp1022
g875
ag1013
asg26
I00
sg27
I00
sg28
I16571576
sg20
S'109841.194757'
p1023
sba(igraph
Edge
p1024
(dp1025
g7
I1
sg8
I00
sg9
I5
sg10
(lp1026
g934
ag1013
asg26
I00
sg27
I00
sg28
I16571577
sg20
S'109841.203562'
p1027
sba(igraph
Edge
p1028
(dp1029
g7
I1
sg8
I00
sg9
I5
sg10
(lp1030
g934
ag1016
asg26
I00
sg27
I00
sg28
I16571578
sg20
S'109841.21219'
p1031
sba(igraph
Edge
p1032
(dp1033
g7
I1
sg8
I00
sg9
I5
sg10
(lp1034
(igraph
Vertex
p1035
(dp1036
g17
F9.6548436120656902
sg18
F-101.82334247329952
sg19
I16571797
sg8
I00
sg20
S'109840.674752'
p1037
sg15
g16
sba(igraph
Vertex
p1038
(dp1039
g17
F9.6548436120656902
sg18
F-58.925187554806044
sg19
I16571798
sg8
I00
sg20
S'109840.675982'
p1040
sg15
g16
sbasg26
I00
sg27
I00
sg28
I16571579
sg20
S'109841.222455'
p1041
sba(igraph
Edge
p1042
(dp1043
g7
I1
sg8
I00
sg9
I5
sg10
(lp1044
(igraph
Vertex
p1045
(dp1046
g17
F9.6103892445434553
sg18
F-12.632025283867293
sg19
I16571799
sg8
I00
sg20
S'109840.677894'
p1047
sg15
g16
sba(igraph
Vertex
p1048
(dp1049
g17
F9.6103892445434553
sg18
F30.266129634626267
sg19
I16571800
sg8
I00
sg20
S'109840.67963'
p1050
sg15
g16
sbasg26
I00
sg27
I00
sg28
I16571580
sg20
S'109841.231796'
p1051
sba(igraph
Edge
p1052
(dp1053
g7
I1
sg8
I00
sg9
I5
sg10
(lp1054
g1048
a(igraph
Vertex
p1055
(dp1056
g17
F9.6103892445434553
sg18
F73.164284553119828
sg19
I16571801
sg8
I00
sg20
S'109840.680986'
p1057
sg15
g16
sbasg26
I00
sg27
I00
sg28
I16571581
sg20
S'109841.240383'
p1058
sba(igraph
Edge
p1059
(dp1060
g7
I1
sg8
I00
sg9
I5
sg10
(lp1061
g1038
ag1045
asg26
I00
sg27
I00
sg28
I16571582
sg20
S'109841.249196'
p1062
sba(igraph
Edge
p1063
(dp1064
g7
I1
sg8
I00
sg9
I5
sg10
(lp1065
(igraph
Vertex
p1066
(dp1067
g17
F9.4923307180008578
sg18
F118.1104220685779
sg19
I16571802
sg8
I00
sg20
S'109840.682655'
p1068
sg15
g16
sba(igraph
Vertex
p1069
(dp1070
g17
F9.4923307180008578
sg18
F161.00857698707148
sg19
I16571803
sg8
I00
sg20
S'109840.684113'
p1071
sg15
g16
sbasg26
I00
sg27
I00
sg28
I16571583
sg20
S'109841.258307'
p1072
sba(igraph
Edge
p1073
(dp1074
g7
I1
sg8
I00
sg9
I5
sg10
(lp1075
g1069
a(igraph
Vertex
p1076
(dp1077
g17
F9.4923307180008578
sg18
F203.90673190556493
sg19
I16571804
sg8
I00
sg20
S'109840.685353'
p1078
sg15
I0
sbasg26
I00
sg27
I00
sg28
I16571584
sg20
S'109841.267647'
p1079
sba(igraph
Edge
p1080
(dp1081
g7
I1
sg8
I00
sg9
I5
sg10
(lp1082
g1076
a(igraph
Vertex
p1083
(dp1084
g17
F9.447876350478623
sg18
F250.19989417650379
sg19
I16571806
sg8
I00
sg20
S'109840.686684'
p1085
sg15
g16
sbasg26
I00
sg27
I00
sg28
I16571585
sg20
S'109841.276226'
p1086
sba(igraph
Edge
p1087
(dp1088
g7
I1
sg8
I00
sg9
I5
sg10
(lp1089
g1055
ag1066
asg26
I00
sg27
I00
sg28
I16571586
sg20
S'109841.28501'
p1090
sba(igraph
Edge
p1091
(dp1092
g7
I1
sg8
I00
sg9
I5
sg10
(lp1093
(igraph
Vertex
p1094
(dp1095
g17
F40.644616294019499
sg18
F-100.70217070264191
sg19
I16571807
sg8
I00
sg20
S'109840.688058'
p1096
sg15
g16
sba(igraph
Vertex
p1097
(dp1098
g17
F40.859707135638871
sg18
F-56.925187554806044
sg19
I16571808
sg8
I00
sg20
S'109840.689269'
p1099
sg15
g16
sbasg26
I00
sg27
I00
sg28
I16571587
sg20
S'109841.293555'
p1100
sba(igraph
Edge
p1101
(dp1102
g7
I1
sg8
I00
sg9
I5
sg10
(lp1103
(igraph
Vertex
p1104
(dp1105
g17
F40.815252768116636
sg18
F-10.632025283867293
sg19
I16571809
sg8
I00
sg20
S'109840.690642'
p1106
sg15
g16
sba(igraph
Vertex
p1107
(dp1108
g17
F40.815252768116636
sg18
F32.266129634626267
sg19
I16571810
sg8
I00
sg20
S'109840.691958'
p1109
sg15
g16
sbasg26
I00
sg27
I00
sg28
I16571588
sg20
S'109841.302798'
p1110
sba(igraph
Edge
p1111
(dp1112
g7
I1
sg8
I00
sg9
I5
sg10
(lp1113
g1107
a(igraph
Vertex
p1114
(dp1115
g17
F40.815252768116636
sg18
F75.164284553119828
sg19
I16571811
sg8
I00
sg20
S'109840.693564'
p1116
sg15
g16
sbasg26
I00
sg27
I00
sg28
I16571589
sg20
S'109841.310877'
p1117
sba(igraph
Edge
p1118
(dp1119
g7
I1
sg8
I00
sg9
I5
sg10
(lp1120
g1097
ag1104
asg26
I00
sg27
I00
sg28
I16571590
sg20
S'109841.32015'
p1121
sba(igraph
Edge
p1122
(dp1123
g7
I1
sg8
I00
sg9
I5
sg10
(lp1124
(igraph
Vertex
p1125
(dp1126
g17
F40.697194241574095
sg18
F120.1104220685779
sg19
I16571812
sg8
I00
sg20
S'109840.694896'
p1127
sg15
g16
sba(igraph
Vertex
p1128
(dp1129
g17
F44.0
sg18
F164.0
sg19
I16571813
sg8
I00
sg20
S'109840.696224'
p1130
sg15
g16
sbasg26
I00
sg27
I00
sg28
I16571591
sg20
S'109841.328933'
p1131
sba(igraph
Edge
p1132
(dp1133
g7
I1
sg8
I00
sg9
I5
sg10
(lp1134
g1128
a(igraph
Vertex
p1135
(dp1136
g17
F40.697194241574095
sg18
F205.90673190556493
sg19
I16571814
sg8
I00
sg20
S'109840.697669'
p1137
sg15
g16
sbasg26
I00
sg27
I00
sg28
I16571592
sg20
S'109841.337738'
p1138
sba(igraph
Edge
p1139
(dp1140
g7
I1
sg8
I00
sg9
I5
sg10
(lp1141
g1135
a(igraph
Vertex
p1142
(dp1143
g17
F40.652739874051861
sg18
F252.19989417650379
sg19
I16571815
sg8
I00
sg20
S'109840.699255'
p1144
sg15
I0
sbasg26
I00
sg27
I00
sg28
I16571593
sg20
S'109841.348134'
p1145
sba(igraph
Edge
p1146
(dp1147
g7
I1
sg8
I00
sg9
I5
sg10
(lp1148
g1114
ag1125
asg26
I00
sg27
I00
sg28
I16571594
sg20
S'109841.358905'
p1149
sba(igraph
Edge
p1150
(dp1151
g7
I1
sg8
I00
sg9
I5
sg10
(lp1152
g1035
ag1094
asg26
I00
sg27
I00
sg28
I16571595
sg20
S'109841.367136'
p1153
sba(igraph
Edge
p1154
(dp1155
g7
I1
sg8
I00
sg9
I5
sg10
(lp1156
g1038
ag1094
asg26
I00
sg27
I00
sg28
I16571596
sg20
S'109841.376553'
p1157
sba(igraph
Edge
p1158
(dp1159
g7
I1
sg8
I00
sg9
I5
sg10
(lp1160
g1038
ag1097
asg26
I00
sg27
I00
sg28
I16571597
sg20
S'109841.384919'
p1161
sba(igraph
Edge
p1162
(dp1163
g7
I1
sg8
I00
sg9
I5
sg10
(lp1164
g1045
ag1097
asg26
I00
sg27
I00
sg28
I16571598
sg20
S'109841.394905'
p1165
sba(igraph
Edge
p1166
(dp1167
g7
I1
sg8
I00
sg9
I5
sg10
(lp1168
g1045
ag1104
asg26
I00
sg27
I00
sg28
I16571599
sg20
S'109841.404996'
p1169
sba(igraph
Edge
p1170
(dp1171
g7
I1
sg8
I00
sg9
I5
sg10
(lp1172
g1048
ag1104
asg26
I00
sg27
I00
sg28
I16571600
sg20
S'109841.414477'
p1173
sba(igraph
Edge
p1174
(dp1175
g7
I1
sg8
I00
sg9
I5
sg10
(lp1176
g1048
ag1107
asg26
I00
sg27
I00
sg28
I16571601
sg20
S'109841.42538'
p1177
sba(igraph
Edge
p1178
(dp1179
g7
I1
sg8
I00
sg9
I5
sg10
(lp1180
g1055
ag1107
asg26
I00
sg27
I00
sg28
I16571602
sg20
S'109841.434807'
p1181
sba(igraph
Edge
p1182
(dp1183
g7
I1
sg8
I00
sg9
I5
sg10
(lp1184
g1055
ag1114
asg26
I00
sg27
I00
sg28
I16571603
sg20
S'109841.444571'
p1185
sba(igraph
Edge
p1186
(dp1187
g7
I1
sg8
I00
sg9
I5
sg10
(lp1188
g1066
ag1114
asg26
I00
sg27
I00
sg28
I16571604
sg20
S'109841.454241'
p1189
sba(igraph
Edge
p1190
(dp1191
g7
I1
sg8
I00
sg9
I5
sg10
(lp1192
g1066
ag1125
asg26
I00
sg27
I00
sg28
I16571605
sg20
S'109841.464069'
p1193
sba(igraph
Edge
p1194
(dp1195
g7
I1
sg8
I00
sg9
I5
sg10
(lp1196
g1069
ag1125
asg26
I00
sg27
I00
sg28
I16571606
sg20
S'109841.473208'
p1197
sba(igraph
Edge
p1198
(dp1199
g7
I1
sg8
I00
sg9
I5
sg10
(lp1200
g1069
ag1128
asg26
I00
sg27
I00
sg28
I16571607
sg20
S'109841.485413'
p1201
sba(igraph
Edge
p1202
(dp1203
g7
I1
sg8
I00
sg9
I5
sg10
(lp1204
g1076
ag1128
asg26
I00
sg27
I00
sg28
I16571608
sg20
S'109841.494935'
p1205
sba(igraph
Edge
p1206
(dp1207
g7
I1
sg8
I00
sg9
I5
sg10
(lp1208
g1076
ag1135
asg26
I00
sg27
I00
sg28
I16571609
sg20
S'109841.50633'
p1209
sba(igraph
Edge
p1210
(dp1211
g7
I1
sg8
I00
sg9
I5
sg10
(lp1212
g1083
ag1135
asg26
I00
sg27
I00
sg28
I16571610
sg20
S'109841.515234'
p1213
sba(igraph
Edge
p1214
(dp1215
g7
I1
sg8
I00
sg9
I5
sg10
(lp1216
g1083
ag1142
asg26
I00
sg27
I00
sg28
I16571611
sg20
S'109841.524181'
p1217
sba(igraph
Edge
p1218
(dp1219
g7
I1
sg8
I00
sg9
I5
sg10
(lp1220
(igraph
Vertex
p1221
(dp1222
g17
F12.497137875277588
sg18
F297.31715598650931
sg19
I16571817
sg8
I00
sg20
S'109840.700684'
p1223
sg15
g16
sba(igraph
Vertex
p1224
(dp1225
g17
F43.702001398850769
sg18
F299.31715598650931
sg19
I16571818
sg8
I00
sg20
S'109840.70225'
p1226
sg15
g16
sbasg26
I00
sg27
I00
sg28
I16571612
sg20
S'109841.533659'
p1227
sba(igraph
Edge
p1228
(dp1229
g7
I1
sg8
I00
sg9
I5
sg10
(lp1230
g1083
ag1221
asg26
I00
sg27
I00
sg28
I16571613
sg20
S'109841.543903'
p1231
sba(igraph
Edge
p1232
(dp1233
g7
I1
sg8
I00
sg9
I5
sg10
(lp1234
g1142
ag1221
asg26
I00
sg27
I00
sg28
I16571614
sg20
S'109841.55277'
p1235
sba(igraph
Edge
p1236
(dp1237
g7
I1
sg8
I00
sg9
I5
sg10
(lp1238
g1142
ag1224
asg26
I00
sg27
I00
sg28
I16571615
sg20
S'109841.563163'
p1239
sba(igraph
Edge
p1240
(dp1241
g7
I1
sg8
I00
sg9
I5
sg10
(lp1242
g886
ag1035
asg26
I00
sg27
I00
sg28
I16571616
sg20
S'109841.574795'
p1243
sba(igraph
Edge
p1244
(dp1245
g7
I1
sg8
I00
sg9
I5
sg10
(lp1246
g889
ag1035
asg26
I00
sg27
I00
sg28
I16571617
sg20
S'109841.591621'
p1247
sba(igraph
Edge
p1248
(dp1249
g7
I1
sg8
I00
sg9
I5
sg10
(lp1250
g889
ag1038
asg26
I00
sg27
I00
sg28
I16571618
sg20
S'109841.601324'
p1251
sba(igraph
Edge
p1252
(dp1253
g7
I1
sg8
I00
sg9
I5
sg10
(lp1254
g896
ag1038
asg26
I00
sg27
I00
sg28
I16571619
sg20
S'109841.614429'
p1255
sba(igraph
Edge
p1256
(dp1257
g7
I1
sg8
I00
sg9
I5
sg10
(lp1258
g896
ag1045
asg26
I00
sg27
I00
sg28
I16571620
sg20
S'109841.630368'
p1259
sba(igraph
Edge
p1260
(dp1261
g7
I1
sg8
I00
sg9
I5
sg10
(lp1262
g899
ag1045
asg26
I00
sg27
I00
sg28
I16571621
sg20
S'109841.659844'
p1263
sba(igraph
Edge
p1264
(dp1265
g7
I1
sg8
I00
sg9
I5
sg10
(lp1266
g899
ag1048
asg26
I00
sg27
I00
sg28
I16571622
sg20
S'109841.673969'
p1267
sba(igraph
Edge
p1268
(dp1269
g7
I1
sg8
I00
sg9
I5
sg10
(lp1270
g906
ag1048
asg26
I00
sg27
I00
sg28
I16571623
sg20
S'109841.684525'
p1271
sba(igraph
Edge
p1272
(dp1273
g7
I1
sg8
I00
sg9
I5
sg10
(lp1274
g906
ag1055
asg26
I00
sg27
I00
sg28
I16571624
sg20
S'109841.694926'
p1275
sba(igraph
Edge
p1276
(dp1277
g7
I1
sg8
I00
sg9
I5
sg10
(lp1278
g917
ag1055
asg26
I00
sg27
I00
sg28
I16571625
sg20
S'109841.726134'
p1279
sba(igraph
Edge
p1280
(dp1281
g7
I1
sg8
I00
sg9
I5
sg10
(lp1282
g917
ag1066
asg26
I00
sg27
I00
sg28
I16571626
sg20
S'109841.759516'
p1283
sba(igraph
Edge
p1284
(dp1285
g7
I1
sg8
I00
sg9
I5
sg10
(lp1286
g920
ag1066
asg26
I00
sg27
I00
sg28
I16571627
sg20
S'109841.77877'
p1287
sba(igraph
Edge
p1288
(dp1289
g7
I1
sg8
I00
sg9
I5
sg10
(lp1290
g920
ag1069
asg26
I00
sg27
I00
sg28
I16571628
sg20
S'109841.794521'
p1291
sba(igraph
Edge
p1292
(dp1293
g7
I1
sg8
I00
sg9
I5
sg10
(lp1294
g927
ag1069
asg26
I00
sg27
I00
sg28
I16571629
sg20
S'109841.809301'
p1295
sba(igraph
Edge
p1296
(dp1297
g7
I1
sg8
I00
sg9
I5
sg10
(lp1298
g927
ag1076
asg26
I00
sg27
I00
sg28
I16571630
sg20
S'109841.820457'
p1299
sba(igraph
Edge
p1300
(dp1301
g7
I1
sg8
I00
sg9
I5
sg10
(lp1302
g934
ag1076
asg26
I00
sg27
I00
sg28
I16571631
sg20
S'109841.830916'
p1303
sba(igraph
Edge
p1304
(dp1305
g7
I1
sg8
I00
sg9
I5
sg10
(lp1306
g934
ag1083
asg26
I00
sg27
I00
sg28
I16571632
sg20
S'109841.847388'
p1307
sba(igraph
Edge
p1308
(dp1309
g7
I1
sg8
I00
sg9
I5
sg10
(lp1310
g1016
ag1083
asg26
I00
sg27
I00
sg28
I16571633
sg20
S'109841.857669'
p1311
sba(igraph
Edge
p1312
(dp1313
g7
I1
sg8
I00
sg9
I5
sg10
(lp1314
g1016
ag1221
asg26
I00
sg27
I00
sg28
I16571634
sg20
S'109841.86912'
p1315
sba(igraph
Edge
p1316
(dp1317
g7
I1
sg8
I00
sg9
I5
sg10
(lp1318
(igraph
Vertex
p1319
(dp1320
g17
F-50.497137875277588
sg18
F-177.31715598650925
sg19
I16571819
sg8
I00
sg20
S'109840.707405'
p1321
sg15
g16
sba(igraph
Vertex
p1322
(dp1323
g17
F-50.497137875277588
sg18
F-134.41900106801575
sg19
I16571820
sg8
I00
sg20
S'109840.708877'
p1324
sg15
g16
sbasg26
I00
sg27
I00
sg28
I16571635
sg20
S'109841.892213'
p1325
sba(igraph
Edge
p1326
(dp1327
g7
I1
sg8
I00
sg9
I5
sg10
(lp1328
(igraph
Vertex
p1329
(dp1330
g17
F-18.027212316964949
sg18
F-181.31715598650931
sg19
I16571821
sg8
I00
sg20
S'109840.710375'
p1331
sg15
g16
sba(igraph
Vertex
p1332
(dp1333
g17
F-18.027212316964949
sg18
F-138.41900106801575
sg19
I16571822
sg8
I00
sg20
S'109840.711937'
p1334
sg15
g16
sbasg26
I00
sg27
I00
sg28
I16571636
sg20
S'109841.945637'
p1335
sba(igraph
Edge
p1336
(dp1337
g7
I1
sg8
I00
sg9
I5
sg10
(lp1338
g1319
ag1329
asg26
I00
sg27
I00
sg28
I16571637
sg20
S'109841.957217'
p1339
sba(igraph
Edge
p1340
(dp1341
g7
I1
sg8
I00
sg9
I5
sg10
(lp1342
g1322
ag1329
asg26
I00
sg27
I00
sg28
I16571638
sg20
S'109841.967399'
p1343
sba(igraph
Edge
p1344
(dp1345
g7
I1
sg8
I00
sg9
I5
sg10
(lp1346
g1322
ag1332
asg26
I00
sg27
I00
sg28
I16571639
sg20
S'109841.978354'
p1347
sba(igraph
Edge
p1348
(dp1349
g7
I1
sg8
I00
sg9
I5
sg10
(lp1350
(igraph
Vertex
p1351
(dp1352
g17
F8.8612140689056673
sg18
F-178.15124816188865
sg19
I16571823
sg8
I00
sg20
S'109840.713614'
p1353
sg15
g16
sba(igraph
Vertex
p1354
(dp1355
g17
F8.8612140689056673
sg18
F-135.25309324339514
sg19
I16571824
sg8
I00
sg20
S'109840.715438'
p1356
sg15
g16
sbasg26
I00
sg27
I00
sg28
I16571640
sg20
S'109841.989925'
p1357
sba(igraph
Edge
p1358
(dp1359
g7
I1
sg8
I00
sg9
I5
sg10
(lp1360
(igraph
Vertex
p1361
(dp1362
g17
F39.850986750859477
sg18
F-177.03007639123103
sg19
I16571825
sg8
I00
sg20
S'109840.717536'
p1363
sg15
g16
sba(igraph
Vertex
p1364
(dp1365
g17
F40.066077592478848
sg18
F-133.25309324339514
sg19
I16571826
sg8
I00
sg20
S'109840.719498'
p1366
sg15
g16
sbasg26
I00
sg27
I00
sg28
I16571641
sg20
S'109842.003464'
p1367
sba(igraph
Edge
p1368
(dp1369
g7
I1
sg8
I00
sg9
I5
sg10
(lp1370
g1351
ag1361
asg26
I00
sg27
I00
sg28
I16571642
sg20
S'109842.015194'
p1371
sba(igraph
Edge
p1372
(dp1373
g7
I1
sg8
I00
sg9
I5
sg10
(lp1374
g1354
ag1361
asg26
I00
sg27
I00
sg28
I16571643
sg20
S'109842.03678'
p1375
sba(igraph
Edge
p1376
(dp1377
g7
I1
sg8
I00
sg9
I5
sg10
(lp1378
g1354
ag1364
asg26
I00
sg27
I00
sg28
I16571644
sg20
S'109842.059286'
p1379
sba(igraph
Edge
p1380
(dp1381
g7
I1
sg8
I00
sg9
I5
sg10
(lp1382
g1329
ag1351
asg26
I00
sg27
I00
sg28
I16571645
sg20
S'109842.080973'
p1383
sba(igraph
Edge
p1384
(dp1385
g7
I1
sg8
I00
sg9
I5
sg10
(lp1386
g1332
ag1351
asg26
I00
sg27
I00
sg28
I16571646
sg20
S'109842.098388'
p1387
sba(igraph
Edge
p1388
(dp1389
g7
I1
sg8
I00
sg9
I5
sg10
(lp1390
g1332
ag1354
asg26
I00
sg27
I00
sg28
I16571647
sg20
S'109842.116405'
p1391
sba(igraph
Edge
p1392
(dp1393
g7
I1
sg8
I00
sg9
I5
sg10
(lp1394
g1094
ag1364
asg26
I00
sg27
I00
sg28
I16571648
sg20
S'109842.130353'
p1395
sba(igraph
Edge
p1396
(dp1397
g7
I1
sg8
I00
sg9
I5
sg10
(lp1398
g1364
ag1035
asg26
I00
sg27
I00
sg28
I16571649
sg20
S'109842.14201'
p1399
sba(igraph
Edge
p1400
(dp1401
g7
I1
sg8
I00
sg9
I5
sg10
(lp1402
g1035
ag1354
asg26
I00
sg27
I00
sg28
I16571650
sg20
S'109842.153599'
p1403
sba(igraph
Edge
p1404
(dp1405
g7
I1
sg8
I00
sg9
I5
sg10
(lp1406
g1354
ag886
asg26
I00
sg27
I00
sg28
I16571651
sg20
S'109842.165213'
p1407
sba(igraph
Edge
p1408
(dp1409
g7
I1
sg8
I00
sg9
I5
sg10
(lp1410
g886
ag1332
asg26
I00
sg27
I00
sg28
I16571652
sg20
S'109842.177046'
p1411
sba(igraph
Edge
p1412
(dp1413
g7
I1
sg8
I00
sg9
I5
sg10
(lp1414
g1332
ag827
asg26
I00
sg27
I00
sg28
I16571653
sg20
S'109842.187718'
p1415
sba(igraph
Edge
p1416
(dp1417
g7
I1
sg8
I00
sg9
I5
sg10
(lp1418
g827
ag1322
asg26
I00
sg27
I00
sg28
I16571654
sg20
S'109842.198362'
p1419
sba(igraph
Edge
p1420
(dp1421
g7
I1
sg8
I00
sg9
I5
sg10
(lp1422
g1013
ag1319
asg26
I00
sg27
I00
sg28
I16571655
sg20
S'109842.253594'
p1423
sba(igraph
Edge
p1424
(dp1425
g7
I1
sg8
I00
sg9
I5
sg10
(lp1426
g1016
ag1319
asg26
I00
sg27
I00
sg28
I16571656
sg20
S'109842.263465'
p1427
sba(igraph
Edge
p1428
(dp1429
g7
I1
sg8
I00
sg9
I5
sg10
(lp1430
g1016
ag1329
asg26
I00
sg27
I00
sg28
I16571657
sg20
S'109842.273149'
p1431
sba(igraph
Edge
p1432
(dp1433
g7
I1
sg8
I00
sg9
I5
sg10
(lp1434
g1221
ag1329
asg26
I00
sg27
I00
sg28
I16571658
sg20
S'109842.28279'
p1435
sba(igraph
Edge
p1436
(dp1437
g7
I1
sg8
I00
sg9
I5
sg10
(lp1438
g1221
ag1351
asg26
I00
sg27
I00
sg28
I16571659
sg20
S'109842.292411'
p1439
sba(igraph
Edge
p1440
(dp1441
g7
I1
sg8
I00
sg9
I5
sg10
(lp1442
g1224
ag1351
asg26
I00
sg27
I00
sg28
I16571660
sg20
S'109842.302634'
p1443
sba(igraph
Edge
p1444
(dp1445
g7
I1
sg8
I00
sg9
I5
sg10
(lp1446
g1224
ag1361
asg26
I00
sg27
I00
sg28
I16571661
sg20
S'109842.312369'
p1447
sba(igraph
Edge
p1448
(dp1449
g7
I1
sg8
I00
sg9
I5
sg10
(lp1450
g657
ag1361
asg26
I00
sg27
I00
sg28
I16571662
sg20
S'109851.681112'
p1451
sba(igraph
Edge
p1452
(dp1453
g7
I1
sg8
I00
sg9
I5
sg10
(lp1454
g657
ag1364
asg26
I00
sg27
I00
sg28
I16571663
sg20
S'109853.858352'
p1455
sba(igraph
Edge
p1456
(dp1457
g7
I1
sg8
I00
sg9
I5
sg10
(lp1458
g1364
ag660
asg26
I00
sg27
I00
sg28
I16571664
sg20
S'109855.715717'
p1459
sba(igraph
Edge
p1460
(dp1461
g7
I1
sg8
I00
sg9
I5
sg10
(lp1462
g660
ag1094
asg26
I00
sg27
I00
sg28
I16571665
sg20
S'109857.269236'
p1463
sba(igraph
Edge
p1464
(dp1465
g7
I1
sg8
I00
sg9
I5
sg10
(lp1466
g1094
ag12
asg26
I00
sg27
I00
sg28
I16571666
sg20
S'109858.913248'
p1467
sba(igraph
Edge
p1468
(dp1469
g7
I1
sg8
I00
sg9
I5
sg10
(lp1470
g12
ag1097
asg26
I00
sg27
I00
sg28
I16571667
sg20
S'109860.622268'
p1471
sba(igraph
Edge
p1472
(dp1473
g7
I1
sg8
I00
sg9
I5
sg10
(lp1474
g1097
ag23
asg26
I00
sg27
I00
sg28
I16571668
sg20
S'109862.432982'
p1475
sba(igraph
Edge
p1476
(dp1477
g7
I1
sg8
I00
sg9
I5
sg10
(lp1478
g23
ag1104
asg26
I00
sg27
I00
sg28
I16571669
sg20
S'109865.36557'
p1479
sba(igraph
Edge
p1480
(dp1481
g7
I1
sg8
I00
sg9
I5
sg10
(lp1482
g1104
ag33
asg26
I00
sg27
I00
sg28
I16571670
sg20
S'109866.786642'
p1483
sba(igraph
Edge
p1484
(dp1485
g7
I1
sg8
I00
sg9
I5
sg10
(lp1486
g33
ag1107
asg26
I00
sg27
I00
sg28
I16571671
sg20
S'109868.698894'
p1487
sba(igraph
Edge
p1488
(dp1489
g7
I1
sg8
I00
sg9
I5
sg10
(lp1490
g1107
ag36
asg26
I00
sg27
I00
sg28
I16571672
sg20
S'109870.501952'
p1491
sba(igraph
Edge
p1492
(dp1493
g7
I1
sg8
I00
sg9
I5
sg10
(lp1494
g36
ag1114
asg26
I00
sg27
I00
sg28
I16571673
sg20
S'109872.335014'
p1495
sba(igraph
Edge
p1496
(dp1497
g7
I1
sg8
I00
sg9
I5
sg10
(lp1498
g1114
ag43
asg26
I00
sg27
I00
sg28
I16571674
sg20
S'109874.358695'
p1499
sba(igraph
Edge
p1500
(dp1501
g7
I1
sg8
I00
sg9
I5
sg10
(lp1502
g43
ag1125
asg26
I00
sg27
I00
sg28
I16571675
sg20
S'109889.121316'
p1503
sba(igraph
Edge
p1504
(dp1505
g7
I1
sg8
I00
sg9
I5
sg10
(lp1506
g1125
ag54
asg26
I00
sg27
I00
sg28
I16571676
sg20
S'109891.196414'
p1507
sba(igraph
Edge
p1508
(dp1509
g7
I1
sg8
I00
sg9
I5
sg10
(lp1510
g54
ag1128
asg26
I00
sg27
I00
sg28
I16571677
sg20
S'109893.154871'
p1511
sba(igraph
Edge
p1512
(dp1513
g7
I1
sg8
I00
sg9
I5
sg10
(lp1514
g1128
ag57
asg26
I00
sg27
I00
sg28
I16571678
sg20
S'109904.03049'
p1515
sba(igraph
Edge
p1516
(dp1517
g7
I1
sg8
I00
sg9
I5
sg10
(lp1518
g57
ag1135
asg26
I00
sg27
I00
sg28
I16571679
sg20
S'109906.232085'
p1519
sba(igraph
Edge
p1520
(dp1521
g7
I1
sg8
I00
sg9
I5
sg10
(lp1522
g1135
ag64
asg26
I00
sg27
I00
sg28
I16571680
sg20
S'109908.608883'
p1523
sba(igraph
Edge
p1524
(dp1525
g7
I1
sg8
I00
sg9
I5
sg10
(lp1526
g64
ag1142
asg26
I00
sg27
I00
sg28
I16571681
sg20
S'109910.613893'
p1527
sba(igraph
Edge
p1528
(dp1529
g7
I1
sg8
I00
sg9
I5
sg10
(lp1530
g1142
ag71
asg26
I00
sg27
I00
sg28
I16571682
sg20
S'109912.733751'
p1531
sba(igraph
Edge
p1532
(dp1533
g7
I1
sg8
I00
sg9
I5
sg10
(lp1534
g71
ag1224
asg26
I00
sg27
I00
sg28
I16571683
sg20
S'109914.648627'
p1535
sba(igraph
Edge
p1536
(dp1537
g7
I1
sg8
I00
sg9
I5
sg10
(lp1538
g1224
ag336
asg26
I00
sg27
I00
sg28
I16571684
sg20
S'109915.957124'
p1539
sba(igraph
Edge
p1540
(dp1541
g7
I1
sg8
I00
sg9
I5
sg10
(lp1542
g336
ag1361
asg26
I00
sg27
I00
sg28
I16571685
sg20
S'109919.066122'
p1543
sba(igraph
Edge
p1544
(dp1545
g7
I1
sg8
I00
sg9
I5
sg10
(lp1546
g721
ag1319
asg26
I00
sg27
I00
sg28
I16571686
sg20
S'110226.762204'
p1547
sba(igraph
Edge
p1548
(dp1549
g7
I1
sg8
I00
sg9
I5
sg10
(lp1550
g1319
ag724
asg26
I00
sg27
I00
sg28
I16571687
sg20
S'110228.608929'
p1551
sba(igraph
Edge
p1552
(dp1553
g7
I1
sg8
I00
sg9
I5
sg10
(lp1554
g724
ag1322
asg26
I00
sg27
I00
sg28
I16571688
sg20
S'110231.271131'
p1555
sba(igraph
Edge
p1556
(dp1557
g7
I1
sg8
I00
sg9
I5
sg10
(lp1558
g1322
ag432
asg26
I00
sg27
I00
sg28
I16571689
sg20
S'110233.600991'
p1559
sba(igraph
Edge
p1560
(dp1561
g7
I1
sg8
I00
sg9
I5
sg10
(lp1562
g432
ag827
asg26
I00
sg27
I00
sg28
I16571690
sg20
S'110236.105352'
p1563
sba(igraph
Edge
p1564
(dp1565
g7
I1
sg8
I00
sg9
I5
sg10
(lp1566
g827
ag435
asg26
I00
sg27
I00
sg28
I16571691
sg20
S'110239.216206'
p1567
sba(igraph
Edge
p1568
(dp1569
g7
I1
sg8
I00
sg9
I5
sg10
(lp1570
g435
ag830
asg26
I00
sg27
I00
sg28
I16571692
sg20
S'110241.798862'
p1571
sba(igraph
Edge
p1572
(dp1573
g7
I1
sg8
I00
sg9
I5
sg10
(lp1574
g830
ag442
asg26
I00
sg27
I00
sg28
I16571693
sg20
S'110244.154391'
p1575
sba(igraph
Edge
p1576
(dp1577
g7
I1
sg8
I00
sg9
I5
sg10
(lp1578
g442
ag837
asg26
I00
sg27
I00
sg28
I16571694
sg20
S'110246.6717'
p1579
sba(igraph
Edge
p1580
(dp1581
g7
I1
sg8
I00
sg9
I5
sg10
(lp1582
g837
ag445
asg26
I00
sg27
I00
sg28
I16571695
sg20
S'110249.230521'
p1583
sba(igraph
Edge
p1584
(dp1585
g7
I1
sg8
I00
sg9
I5
sg10
(lp1586
g445
ag840
asg26
I00
sg27
I00
sg28
I16571696
sg20
S'110253.140437'
p1587
sba(igraph
Edge
p1588
(dp1589
g7
I1
sg8
I00
sg9
I5
sg10
(lp1590
g840
ag452
asg26
I00
sg27
I00
sg28
I16571697
sg20
S'110255.427901'
p1591
sba(igraph
Edge
p1592
(dp1593
g7
I1
sg8
I00
sg9
I5
sg10
(lp1594
g452
ag847
asg26
I00
sg27
I00
sg28
I16571698
sg20
S'110257.578706'
p1595
sba(igraph
Edge
p1596
(dp1597
g7
I1
sg8
I00
sg9
I5
sg10
(lp1598
g847
ag463
asg26
I00
sg27
I00
sg28
I16571699
sg20
S'110260.787124'
p1599
sba(igraph
Edge
p1600
(dp1601
g7
I1
sg8
I00
sg9
I5
sg10
(lp1602
g463
ag858
asg26
I00
sg27
I00
sg28
I16571700
sg20
S'110263.304167'
p1603
sba(igraph
Edge
p1604
(dp1605
g7
I1
sg8
I00
sg9
I5
sg10
(lp1606
g858
ag466
asg26
I00
sg27
I00
sg28
I16571701
sg20
S'110266.226124'
p1607
sba(igraph
Edge
p1608
(dp1609
g7
I1
sg8
I00
sg9
I5
sg10
(lp1610
g466
ag861
asg26
I00
sg27
I00
sg28
I16571702
sg20
S'110269.185139'
p1611
sba(igraph
Edge
p1612
(dp1613
g7
I1
sg8
I00
sg9
I5
sg10
(lp1614
g861
ag473
asg26
I00
sg27
I00
sg28
I16571703
sg20
S'110271.640309'
p1615
sba(igraph
Edge
p1616
(dp1617
g7
I1
sg8
I00
sg9
I5
sg10
(lp1618
g473
ag868
asg26
I00
sg27
I00
sg28
I16571704
sg20
S'110274.649177'
p1619
sba(igraph
Edge
p1620
(dp1621
g7
I1
sg8
I00
sg9
I5
sg10
(lp1622
g868
ag480
asg26
I00
sg27
I00
sg28
I16571705
sg20
S'110277.703301'
p1623
sba(igraph
Edge
p1624
(dp1625
g7
I1
sg8
I00
sg9
I5
sg10
(lp1626
g480
ag875
asg26
I00
sg27
I00
sg28
I16571706
sg20
S'110279.72477'
p1627
sba(igraph
Edge
p1628
(dp1629
g7
I1
sg8
I00
sg9
I5
sg10
(lp1630
g875
ag562
asg26
I00
sg27
I00
sg28
I16571707
sg20
S'110282.463588'
p1631
sba(igraph
Edge
p1632
(dp1633
g7
I1
sg8
I00
sg9
I5
sg10
(lp1634
g562
ag1013
asg26
I00
sg27
I00
sg28
I16571708
sg20
S'110284.933499'
p1635
sba(igraph
Edge
p1636
(dp1637
g7
I1
sg8
I00
sg9
I5
sg10
(lp1638
g1013
ag721
asg26
I00
sg27
I00
sg28
I16571709
sg20
S'110287.65378'
p1639
sbasS'vertices'
p1640
(lp1641
g12
ag23
ag33
ag36
ag43
ag54
ag57
ag64
ag71
ag82
ag85
ag92
ag95
ag102
ag113
ag116
ag123
ag130
ag209
ag212
ag219
ag222
ag229
ag240
ag243
ag250
ag257
ag336
ag339
ag346
ag373
ag376
ag383
ag386
ag393
ag404
ag407
ag414
ag421
ag432
ag435
ag442
ag445
ag452
ag463
ag466
ag473
ag480
ag559
ag562
ag657
ag660
ag667
ag670
ag689
ag692
ag711
ag714
ag721
ag724
ag827
ag830
ag837
ag840
ag847
ag858
ag861
ag868
ag875
ag886
ag889
ag896
ag899
ag906
ag917
ag920
ag927
ag934
ag1013
ag1016
ag1035
ag1038
ag1045
ag1048
ag1055
ag1066
ag1069
ag1076
ag1083
ag1094
ag1097
ag1104
ag1107
ag1114
ag1125
ag1128
ag1135
ag1142
ag1221
ag1224
ag1319
ag1322
ag1329
ag1332
ag1351
ag1354
ag1361
ag1364
asS'tags'
p1642
(lp1643
sb.