(igraph
Graph
p0
(dp1
S'labelingConstraints'
p2
I-1
sS'edges'
p3
(lp4
(igraph
Edge
p5
(dp6
S'direction'
p7
I1
sS'selected'
p8
I00
sS'height'
p9
I5
sS'vs'
p10
(lp11
(igraph
Vertex
p12
(dp13
S'xnorm'
p14
F0.35406177702612707
sg8
I00
sS'label'
p15
S'NULL'
p16
sS'y'
p17
F74.911857871112829
sS'x'
p18
F-102.98925029792008
sS'circle'
p19
I16519512
sS'id'
p20
S'104678.029629'
p21
sS'ynorm'
p22
F0.6067944495002463
sba(igraph
Vertex
p23
(dp24
g14
F0.41605333037655118
sg8
I00
sg15
g16
sg17
F74.911857871112829
sg18
F-60.091095379426577
sg19
I16519513
sg20
S'104678.030288'
p25
sg22
F0.6067944495002463
sbasS'wrap'
p26
I00
sS'curved'
p27
I00
sS'line'
p28
I16519152
sg20
S'104678.635802'
p29
sba(igraph
Edge
p30
(dp31
g7
I1
sg8
I00
sg9
I5
sg10
(lp32
(igraph
Vertex
p33
(dp34
g14
F0.48295096371605806
sg8
I00
sg15
g16
sg17
F74.867403503590538
sg18
F-13.797933108487825
sg19
I16519514
sg20
S'104678.03105'
p35
sg22
F0.60669738756242475
sba(igraph
Vertex
p36
(dp37
g14
F0.54494251706648222
sg8
I00
sg15
g16
sg17
F74.867403503590538
sg18
F29.100221810005678
sg19
I16519515
sg20
S'104678.031738'
p38
sg22
F0.60669738756242475
sbasg26
I00
sg27
I00
sg28
I16519153
sg20
S'104678.639943'
p39
sba(igraph
Edge
p40
(dp41
g7
I1
sg8
I00
sg9
I5
sg10
(lp42
g36
a(igraph
Vertex
p43
(dp44
g14
F0.60693407041690639
sg8
I00
sg15
g16
sg17
F74.867403503590538
sg18
F71.998376728499238
sg19
I16519516
sg20
S'104678.032496'
p45
sg22
F0.60669738756242475
sbasg26
I00
sg27
I00
sg28
I16519154
sg20
S'104678.644163'
p46
sba(igraph
Edge
p47
(dp48
g7
I1
sg8
I00
sg9
I5
sg10
(lp49
g23
ag33
asg26
I00
sg27
I00
sg28
I16519155
sg20
S'104678.649431'
p50
sba(igraph
Edge
p51
(dp52
g7
I1
sg8
I00
sg9
I5
sg10
(lp53
(igraph
Vertex
p54
(dp55
g14
F0.67188513619068979
sg8
I00
sg15
g16
sg17
F74.749344977047997
sg18
F116.94451424395731
sg19
I16519517
sg20
S'104678.033199'
p56
sg22
F0.60643961785381661
sba(igraph
Vertex
p57
(dp58
g14
F0.73387668954111396
sg8
I01
sg15
I0
sg17
F74.749344977047997
sg18
F159.84266916245087
sg19
I16519519
sg20
S'104678.03395'
p59
sg22
F0.60643961785381661
sbasg26
I00
sg27
I00
sg28
I16519156
sg20
S'104678.653757'
p60
sba(igraph
Edge
p61
(dp62
g7
I1
sg8
I00
sg9
I5
sg10
(lp63
g57
a(igraph
Vertex
p64
(dp65
g14
F0.79586824289153801
sg8
I00
sg15
g16
sg17
F74.749344977047997
sg18
F202.74082408094432
sg19
I16519521
sg20
S'104678.034682'
p66
sg22
F0.60643961785381661
sbasg26
I00
sg27
I00
sg28
I16519157
sg20
S'104678.658217'
p67
sba(igraph
Edge
p68
(dp69
g7
I1
sg8
I00
sg9
I5
sg10
(lp70
g64
a(igraph
Vertex
p71
(dp72
g14
F0.86276587623104506
sg8
I00
sg15
g16
sg17
F74.704890609525705
sg18
F249.03398635188319
sg19
I16519522
sg20
S'104678.035431'
p73
sg22
F0.60634255591599495
sbasg26
I00
sg27
I00
sg28
I16519158
sg20
S'104678.662555'
p74
sba(igraph
Edge
p75
(dp76
g7
I1
sg8
I00
sg9
I5
sg10
(lp77
g43
ag54
asg26
I00
sg27
I00
sg28
I16519159
sg20
S'104678.666981'
p78
sba(igraph
Edge
p79
(dp80
g7
I1
sg8
I00
sg9
I5
sg10
(lp81
(igraph
Vertex
p82
(dp83
g14
F0.35695195043653166
sg8
I00
sg15
g16
sg17
F106.11672139468601
sg18
F-100.98925029792011
sg19
I16519523
sg20
S'104678.036184'
p84
sg22
F0.6749273392897075
sba(igraph
Vertex
p85
(dp86
g14
F0.41894350378695583
sg8
I01
sg15
I0
sg17
F106.11672139468601
sg18
F-58.091095379426577
sg19
I16519525
sg20
S'104678.036949'
p87
sg22
F0.6749273392897075
sbasg26
I00
sg27
I00
sg28
I16519160
sg20
S'104678.756111'
p88
sba(igraph
Edge
p89
(dp90
g7
I1
sg8
I00
sg9
I5
sg10
(lp91
(igraph
Vertex
p92
(dp93
g14
F0.48584113712646271
sg8
I00
sg15
g16
sg17
F106.07226702716372
sg18
F-11.797933108487825
sg19
I16519527
sg20
S'104678.037718'
p94
sg22
F0.67483027735188583
sba(igraph
Vertex
p95
(dp96
g14
F0.54783269047688676
sg8
I00
sg15
g16
sg17
F106.07226702716372
sg18
F31.100221810005678
sg19
I16519528
sg20
S'104678.038523'
p97
sg22
F0.67483027735188583
sbasg26
I00
sg27
I00
sg28
I16519161
sg20
S'104678.761192'
p98
sba(igraph
Edge
p99
(dp100
g7
I1
sg8
I00
sg9
I5
sg10
(lp101
g95
a(igraph
Vertex
p102
(dp103
g14
F0.60982424382731104
sg8
I01
sg15
I0
sg17
F106.07226702716372
sg18
F73.998376728499238
sg19
I16519530
sg20
S'104678.039347'
p104
sg22
F0.67483027735188583
sbasg26
I00
sg27
I00
sg28
I16519162
sg20
S'104678.76629'
p105
sba(igraph
Edge
p106
(dp107
g7
I1
sg8
I00
sg9
I5
sg10
(lp108
g85
ag92
asg26
I00
sg27
I00
sg28
I16519163
sg20
S'104678.77137'
p109
sba(igraph
Edge
p110
(dp111
g7
I1
sg8
I00
sg9
I5
sg10
(lp112
(igraph
Vertex
p113
(dp114
g14
F0.67477530960109433
sg8
I00
sg15
g16
sg17
F105.95420850062112
sg18
F118.94451424395731
sg19
I16519532
sg20
S'104678.040169'
p115
sg22
F0.67457250764327759
sba(igraph
Vertex
p116
(dp117
g14
F0.73676686295151861
sg8
I00
sg15
g16
sg17
F105.95420850062112
sg18
F161.84266916245087
sg19
I16519533
sg20
S'104678.040999'
p118
sg22
F0.67457250764327759
sbasg26
I00
sg27
I00
sg28
I16519164
sg20
S'104678.776886'
p119
sba(igraph
Edge
p120
(dp121
g7
I1
sg8
I00
sg9
I5
sg10
(lp122
g116
a(igraph
Vertex
p123
(dp124
g14
F0.79875841630194266
sg8
I00
sg15
g16
sg17
F105.95420850062112
sg18
F204.74082408094432
sg19
I16519534
sg20
S'104678.041861'
p125
sg22
F0.67457250764327759
sbasg26
I00
sg27
I00
sg28
I16519165
sg20
S'104678.78297'
p126
sba(igraph
Edge
p127
(dp128
g7
I1
sg8
I00
sg9
I5
sg10
(lp129
g123
a(igraph
Vertex
p130
(dp131
g14
F0.86565604964144971
sg8
I00
sg15
g16
sg17
F105.90975413309889
sg18
F251.03398635188319
sg19
I16519535
sg20
S'104678.042719'
p132
sg22
F0.67447544570545603
sbasg26
I00
sg27
I00
sg28
I16519166
sg20
S'104678.78869'
p133
sba(igraph
Edge
p134
(dp135
g7
I1
sg8
I00
sg9
I5
sg10
(lp136
g102
ag113
asg26
I00
sg27
I00
sg28
I16519167
sg20
S'104678.793894'
p137
sba(igraph
Edge
p138
(dp139
g7
I1
sg8
I00
sg9
I5
sg10
(lp140
g12
ag82
asg26
I00
sg27
I00
sg28
I16519168
sg20
S'104678.79897'
p141
sba(igraph
Edge
p142
(dp143
g7
I1
sg8
I00
sg9
I5
sg10
(lp144
g23
ag82
asg26
I00
sg27
I00
sg28
I16519169
sg20
S'104678.804392'
p145
sba(igraph
Edge
p146
(dp147
g7
I1
sg8
I00
sg9
I5
sg10
(lp148
g23
ag85
asg26
I00
sg27
I00
sg28
I16519170
sg20
S'104678.809559'
p149
sba(igraph
Edge
p150
(dp151
g7
I1
sg8
I00
sg9
I5
sg10
(lp152
g33
ag85
asg26
I00
sg27
I00
sg28
I16519171
sg20
S'104678.814986'
p153
sba(igraph
Edge
p154
(dp155
g7
I1
sg8
I00
sg9
I5
sg10
(lp156
g33
ag92
asg26
I00
sg27
I00
sg28
I16519172
sg20
S'104678.820847'
p157
sba(igraph
Edge
p158
(dp159
g7
I1
sg8
I00
sg9
I5
sg10
(lp160
g36
ag92
asg26
I00
sg27
I00
sg28
I16519173
sg20
S'104678.827015'
p161
sba(igraph
Edge
p162
(dp163
g7
I1
sg8
I00
sg9
I5
sg10
(lp164
g36
ag95
asg26
I00
sg27
I00
sg28
I16519174
sg20
S'104678.834332'
p165
sba(igraph
Edge
p166
(dp167
g7
I1
sg8
I00
sg9
I5
sg10
(lp168
g43
ag95
asg26
I00
sg27
I00
sg28
I16519175
sg20
S'104678.840924'
p169
sba(igraph
Edge
p170
(dp171
g7
I1
sg8
I00
sg9
I5
sg10
(lp172
g43
ag102
asg26
I00
sg27
I00
sg28
I16519176
sg20
S'104678.847645'
p173
sba(igraph
Edge
p174
(dp175
g7
I1
sg8
I00
sg9
I5
sg10
(lp176
g54
ag102
asg26
I00
sg27
I00
sg28
I16519177
sg20
S'104678.853914'
p177
sba(igraph
Edge
p178
(dp179
g7
I1
sg8
I00
sg9
I5
sg10
(lp180
g54
ag113
asg26
I00
sg27
I00
sg28
I16519178
sg20
S'104678.860189'
p181
sba(igraph
Edge
p182
(dp183
g7
I1
sg8
I00
sg9
I5
sg10
(lp184
g57
ag113
asg26
I00
sg27
I00
sg28
I16519179
sg20
S'104678.865993'
p185
sba(igraph
Edge
p186
(dp187
g7
I1
sg8
I00
sg9
I5
sg10
(lp188
g57
ag116
asg26
I00
sg27
I00
sg28
I16519180
sg20
S'104678.872103'
p189
sba(igraph
Edge
p190
(dp191
g7
I1
sg8
I00
sg9
I5
sg10
(lp192
g64
ag116
asg26
I00
sg27
I00
sg28
I16519181
sg20
S'104678.885444'
p193
sba(igraph
Edge
p194
(dp195
g7
I1
sg8
I00
sg9
I5
sg10
(lp196
g64
ag123
asg26
I00
sg27
I00
sg28
I16519182
sg20
S'104678.896012'
p197
sba(igraph
Edge
p198
(dp199
g7
I1
sg8
I00
sg9
I5
sg10
(lp200
g71
ag123
asg26
I00
sg27
I00
sg28
I16519183
sg20
S'104678.904887'
p201
sba(igraph
Edge
p202
(dp203
g7
I1
sg8
I00
sg9
I5
sg10
(lp204
g71
ag130
asg26
I00
sg27
I00
sg28
I16519184
sg20
S'104678.912276'
p205
sba(igraph
Edge
p206
(dp207
g7
I1
sg8
I00
sg9
I5
sg10
(lp208
(igraph
Vertex
p209
(dp210
g14
F0.35117160361572236
sg8
I00
sg15
g16
sg17
F138.58664695299871
sg18
F-104.98925029792011
sg19
I16519536
sg20
S'104678.043593'
p211
sg22
F0.74582237325982248
sba(igraph
Vertex
p212
(dp213
g14
F0.41316315696614647
sg8
I00
sg15
g16
sg17
F138.58664695299871
sg18
F-62.091095379426633
sg19
I16519537
sg20
S'104678.044477'
p214
sg22
F0.74582237325982248
sbasg26
I00
sg27
I00
sg28
I16519185
sg20
S'104678.919682'
p215
sba(igraph
Edge
p216
(dp217
g7
I1
sg8
I00
sg9
I5
sg10
(lp218
(igraph
Vertex
p219
(dp220
g14
F0.48006079030565335
sg8
I01
sg15
I0
sg17
F138.54219258547641
sg18
F-15.797933108487882
sg19
I16519539
sg20
S'104678.045362'
p221
sg22
F0.74572531132200093
sba(igraph
Vertex
p222
(dp223
g14
F0.54205234365607757
sg8
I00
sg15
g16
sg17
F138.54219258547641
sg18
F27.100221810005678
sg19
I16519541
sg20
S'104678.046269'
p224
sg22
F0.74572531132200093
sbasg26
I00
sg27
I00
sg28
I16519186
sg20
S'104678.934627'
p225
sba(igraph
Edge
p226
(dp227
g7
I1
sg8
I00
sg9
I5
sg10
(lp228
g222
a(igraph
Vertex
p229
(dp230
g14
F0.60404389700650174
sg8
I00
sg15
g16
sg17
F138.54219258547641
sg18
F69.998376728499238
sg19
I16519542
sg20
S'104678.047187'
p231
sg22
F0.74572531132200093
sbasg26
I00
sg27
I00
sg28
I16519187
sg20
S'104678.943247'
p232
sba(igraph
Edge
p233
(dp234
g7
I1
sg8
I00
sg9
I5
sg10
(lp235
g212
ag219
asg26
I00
sg27
I00
sg28
I16519188
sg20
S'104678.951476'
p236
sba(igraph
Edge
p237
(dp238
g7
I1
sg8
I00
sg9
I5
sg10
(lp239
(igraph
Vertex
p240
(dp241
g14
F0.66899496278028514
sg8
I00
sg15
g16
sg17
F138.42413405893376
sg18
F114.94451424395731
sg19
I16519543
sg20
S'104678.048114'
p242
sg22
F0.74546754161339246
sba(igraph
Vertex
p243
(dp244
g14
F0.73098651613070931
sg8
I00
sg15
g16
sg17
F138.42413405893376
sg18
F157.84266916245087
sg19
I16519544
sg20
S'104678.049055'
p245
sg22
F0.74546754161339246
sbasg26
I00
sg27
I00
sg28
I16519189
sg20
S'104678.95876'
p246
sba(igraph
Edge
p247
(dp248
g7
I1
sg8
I00
sg9
I5
sg10
(lp249
g243
a(igraph
Vertex
p250
(dp251
g14
F0.79297806948113336
sg8
I00
sg15
g16
sg17
F138.42413405893376
sg18
F200.74082408094432
sg19
I16519545
sg20
S'104678.050043'
p252
sg22
F0.74546754161339246
sbasg26
I00
sg27
I00
sg28
I16519190
sg20
S'104678.966368'
p253
sba(igraph
Edge
p254
(dp255
g7
I1
sg8
I00
sg9
I5
sg10
(lp256
g250
a(igraph
Vertex
p257
(dp258
g14
F0.85987570282064041
sg8
I00
sg15
g16
sg17
F138.37967969141158
sg18
F247.03398635188319
sg19
I16519546
sg20
S'104678.051015'
p259
sg22
F0.74537047967557113
sbasg26
I00
sg27
I00
sg28
I16519191
sg20
S'104678.973564'
p260
sba(igraph
Edge
p261
(dp262
g7
I1
sg8
I00
sg9
I5
sg10
(lp263
g229
ag240
asg26
I00
sg27
I00
sg28
I16519192
sg20
S'104678.979468'
p264
sba(igraph
Edge
p265
(dp266
g7
I1
sg8
I00
sg9
I5
sg10
(lp267
g82
ag209
asg26
I00
sg27
I00
sg28
I16519193
sg20
S'104678.985919'
p268
sba(igraph
Edge
p269
(dp270
g7
I1
sg8
I00
sg9
I5
sg10
(lp271
g85
ag209
asg26
I00
sg27
I00
sg28
I16519194
sg20
S'104678.99197'
p272
sba(igraph
Edge
p273
(dp274
g7
I1
sg8
I00
sg9
I5
sg10
(lp275
g85
ag212
asg26
I00
sg27
I00
sg28
I16519195
sg20
S'104678.997944'
p276
sba(igraph
Edge
p277
(dp278
g7
I1
sg8
I00
sg9
I5
sg10
(lp279
g92
ag212
asg26
I00
sg27
I00
sg28
I16519196
sg20
S'104679.003961'
p280
sba(igraph
Edge
p281
(dp282
g7
I1
sg8
I00
sg9
I5
sg10
(lp283
g92
ag219
asg26
I00
sg27
I00
sg28
I16519197
sg20
S'104679.010142'
p284
sba(igraph
Edge
p285
(dp286
g7
I1
sg8
I00
sg9
I5
sg10
(lp287
g95
ag219
asg26
I00
sg27
I00
sg28
I16519198
sg20
S'104679.016286'
p288
sba(igraph
Edge
p289
(dp290
g7
I1
sg8
I00
sg9
I5
sg10
(lp291
g95
ag222
asg26
I00
sg27
I00
sg28
I16519199
sg20
S'104679.022594'
p292
sba(igraph
Edge
p293
(dp294
g7
I1
sg8
I00
sg9
I5
sg10
(lp295
g102
ag222
asg26
I00
sg27
I00
sg28
I16519200
sg20
S'104679.028774'
p296
sba(igraph
Edge
p297
(dp298
g7
I1
sg8
I00
sg9
I5
sg10
(lp299
g102
ag229
asg26
I00
sg27
I00
sg28
I16519201
sg20
S'104679.035169'
p300
sba(igraph
Edge
p301
(dp302
g7
I1
sg8
I00
sg9
I5
sg10
(lp303
g113
ag229
asg26
I00
sg27
I00
sg28
I16519202
sg20
S'104679.041636'
p304
sba(igraph
Edge
p305
(dp306
g7
I1
sg8
I00
sg9
I5
sg10
(lp307
g113
ag240
asg26
I00
sg27
I00
sg28
I16519203
sg20
S'104679.048104'
p308
sba(igraph
Edge
p309
(dp310
g7
I1
sg8
I00
sg9
I5
sg10
(lp311
g116
ag240
asg26
I00
sg27
I00
sg28
I16519204
sg20
S'104679.054626'
p312
sba(igraph
Edge
p313
(dp314
g7
I1
sg8
I00
sg9
I5
sg10
(lp315
g116
ag243
asg26
I00
sg27
I00
sg28
I16519205
sg20
S'104679.061115'
p316
sba(igraph
Edge
p317
(dp318
g7
I1
sg8
I00
sg9
I5
sg10
(lp319
g123
ag243
asg26
I00
sg27
I00
sg28
I16519206
sg20
S'104679.06746'
p320
sba(igraph
Edge
p321
(dp322
g7
I1
sg8
I00
sg9
I5
sg10
(lp323
g123
ag250
asg26
I00
sg27
I00
sg28
I16519207
sg20
S'104679.073997'
p324
sba(igraph
Edge
p325
(dp326
g7
I1
sg8
I00
sg9
I5
sg10
(lp327
g130
ag250
asg26
I00
sg27
I00
sg28
I16519208
sg20
S'104679.080441'
p328
sba(igraph
Edge
p329
(dp330
g7
I1
sg8
I00
sg9
I5
sg10
(lp331
g130
ag257
asg26
I00
sg27
I00
sg28
I16519209
sg20
S'104679.08717'
p332
sba(igraph
Edge
p333
(dp334
g7
I1
sg8
I00
sg9
I5
sg10
(lp335
(igraph
Vertex
p336
(dp337
g14
F0.93085440485822069
sg8
I00
sg15
g16
sg17
F77.754152134324727
sg18
F296.1512481618887
sg19
I16519547
sg20
S'104678.058308'
p338
sg22
F0.61300033217101468
sba(igraph
Vertex
p339
(dp340
g14
F0.93374457826862534
sg8
I00
sg15
g16
sg17
F108.95901565789785
sg18
F298.1512481618887
sg19
I16519548
sg20
S'104678.059369'
p341
sg22
F0.68113322196047565
sbasg26
I00
sg27
I00
sg28
I16519210
sg20
S'104679.134863'
p342
sba(igraph
Edge
p343
(dp344
g7
I1
sg8
I00
sg9
I5
sg10
(lp345
g339
a(igraph
Vertex
p346
(dp347
g14
F0.92796423144781603
sg8
I00
sg15
g16
sg17
F141.42894121621055
sg18
F294.1512481618887
sg19
I16519549
sg20
S'104678.060487'
p348
sg22
F0.75202825593059075
sbasg26
I00
sg27
I00
sg28
I16519211
sg20
S'104679.141661'
p349
sba(igraph
Edge
p350
(dp351
g7
I1
sg8
I00
sg9
I5
sg10
(lp352
g71
ag336
asg26
I00
sg27
I00
sg28
I16519212
sg20
S'104679.233558'
p353
sba(igraph
Edge
p354
(dp355
g7
I1
sg8
I00
sg9
I5
sg10
(lp356
g130
ag336
asg26
I00
sg27
I00
sg28
I16519213
sg20
S'104679.240782'
p357
sba(igraph
Edge
p358
(dp359
g7
I1
sg8
I00
sg9
I5
sg10
(lp360
g130
ag339
asg26
I00
sg27
I00
sg28
I16519214
sg20
S'104679.248133'
p361
sba(igraph
Edge
p362
(dp363
g7
I1
sg8
I00
sg9
I5
sg10
(lp364
g257
ag339
asg26
I00
sg27
I00
sg28
I16519215
sg20
S'104679.255562'
p365
sba(igraph
Edge
p366
(dp367
g7
I1
sg8
I00
sg9
I5
sg10
(lp368
g257
ag346
asg26
I00
sg27
I00
sg28
I16519216
sg20
S'104679.262647'
p369
sba(igraph
Edge
p370
(dp371
g7
I1
sg8
I00
sg9
I5
sg10
(lp372
(igraph
Vertex
p373
(dp374
g14
F0.3557466149229776
sg8
I01
sg15
I0
sg17
F165.47507333886927
sg18
F-101.8233424732995
sg19
I16519551
sg20
S'104678.061574'
p375
sg22
F0.80453072781412505
sba(igraph
Vertex
p376
(dp377
g14
F0.41773816827340171
sg8
I00
sg15
g16
sg17
F165.47507333886927
sg18
F-58.92518755480603
sg19
I16519553
sg20
S'104678.062804'
p378
sg22
F0.80453072781412505
sbasg26
I00
sg27
I00
sg28
I16519217
sg20
S'104679.269866'
p379
sba(igraph
Edge
p380
(dp381
g7
I1
sg8
I00
sg9
I5
sg10
(lp382
(igraph
Vertex
p383
(dp384
g14
F0.48463580161290853
sg8
I00
sg15
g16
sg17
F165.43061897134703
sg18
F-12.632025283867279
sg19
I16519554
sg20
S'104678.063976'
p385
sg22
F0.80443366587630361
sba(igraph
Vertex
p386
(dp387
g14
F0.54662735496333281
sg8
I00
sg15
g16
sg17
F165.43061897134703
sg18
F30.266129634626282
sg19
I16519555
sg20
S'104678.065397'
p388
sg22
F0.80443366587630361
sbasg26
I00
sg27
I00
sg28
I16519218
sg20
S'104679.277188'
p389
sba(igraph
Edge
p390
(dp391
g7
I1
sg8
I00
sg9
I5
sg10
(lp392
g386
a(igraph
Vertex
p393
(dp394
g14
F0.60861890831375698
sg8
I00
sg15
g16
sg17
F165.43061897134703
sg18
F73.164284553119842
sg19
I16519556
sg20
S'104678.066591'
p395
sg22
F0.80443366587630361
sbasg26
I00
sg27
I00
sg28
I16519219
sg20
S'104679.285104'
p396
sba(igraph
Edge
p397
(dp398
g7
I1
sg8
I00
sg9
I5
sg10
(lp399
g376
ag383
asg26
I00
sg27
I00
sg28
I16519220
sg20
S'104679.293359'
p400
sba(igraph
Edge
p401
(dp402
g7
I1
sg8
I00
sg9
I5
sg10
(lp403
(igraph
Vertex
p404
(dp405
g14
F0.67356997408754038
sg8
I00
sg15
g16
sg17
F165.31256044480443
sg18
F118.11042206857792
sg19
I16519557
sg20
S'104678.067761'
p406
sg22
F0.80417589616769525
sba(igraph
Vertex
p407
(dp408
g14
F0.73556152743796455
sg8
I00
sg15
g16
sg17
F165.31256044480443
sg18
F161.00857698707148
sg19
I16519558
sg20
S'104678.068967'
p409
sg22
F0.80417589616769525
sbasg26
I00
sg27
I00
sg28
I16519221
sg20
S'104679.302952'
p410
sba(igraph
Edge
p411
(dp412
g7
I1
sg8
I00
sg9
I5
sg10
(lp413
g407
a(igraph
Vertex
p414
(dp415
g14
F0.7975530807883886
sg8
I00
sg15
g16
sg17
F165.31256044480443
sg18
F203.90673190556493
sg19
I16519559
sg20
S'104678.070147'
p416
sg22
F0.80417589616769525
sbasg26
I00
sg27
I00
sg28
I16519222
sg20
S'104679.311752'
p417
sba(igraph
Edge
p418
(dp419
g7
I1
sg8
I00
sg9
I5
sg10
(lp420
g414
a(igraph
Vertex
p421
(dp422
g14
F0.86445071412789565
sg8
I00
sg15
g16
sg17
F165.2681060772822
sg18
F250.19989417650379
sg19
I16519560
sg20
S'104678.071346'
p423
sg22
F0.80407883422987381
sbasg26
I00
sg27
I00
sg28
I16519223
sg20
S'104679.320935'
p424
sba(igraph
Edge
p425
(dp426
g7
I1
sg8
I00
sg9
I5
sg10
(lp427
g393
ag404
asg26
I00
sg27
I00
sg28
I16519224
sg20
S'104679.330849'
p428
sba(igraph
Edge
p429
(dp430
g7
I1
sg8
I00
sg9
I5
sg10
(lp431
(igraph
Vertex
p432
(dp433
g14
F0.35736680534300302
sg8
I00
sg15
g16
sg17
F196.46484602082307
sg18
F-100.70217070264189
sg19
I16519561
sg20
S'104678.072562'
p434
sg22
F0.87219398694502859
sba(igraph
Vertex
p435
(dp436
g14
F0.42062834168380631
sg8
I00
sg15
g16
sg17
F196.67993686244245
sg18
F-56.92518755480603
sg19
I16519562
sg20
S'104678.073779'
p437
sg22
F0.87266361760358613
sbasg26
I00
sg27
I00
sg28
I16519225
sg20
S'104679.33911'
p438
sba(igraph
Edge
p439
(dp440
g7
I1
sg8
I00
sg9
I5
sg10
(lp441
(igraph
Vertex
p442
(dp443
g14
F0.48752597502331319
sg8
I00
sg15
g16
sg17
F196.63548249492021
sg18
F-10.632025283867279
sg19
I16519563
sg20
S'104678.075104'
p444
sg22
F0.87256655566576469
sba(igraph
Vertex
p445
(dp446
g14
F0.54951752837373735
sg8
I00
sg15
g16
sg17
F196.63548249492021
sg18
F32.266129634626282
sg19
I16519564
sg20
S'104678.076372'
p447
sg22
F0.87256655566576469
sbasg26
I00
sg27
I00
sg28
I16519226
sg20
S'104679.347992'
p448
sba(igraph
Edge
p449
(dp450
g7
I1
sg8
I00
sg9
I5
sg10
(lp451
g445
a(igraph
Vertex
p452
(dp453
g14
F0.61150908172416163
sg8
I00
sg15
g16
sg17
F196.63548249492021
sg18
F75.164284553119842
sg19
I16519565
sg20
S'104678.077634'
p454
sg22
F0.87256655566576469
sbasg26
I00
sg27
I00
sg28
I16519227
sg20
S'104679.356346'
p455
sba(igraph
Edge
p456
(dp457
g7
I1
sg8
I00
sg9
I5
sg10
(lp458
g435
ag442
asg26
I00
sg27
I00
sg28
I16519228
sg20
S'104679.366137'
p459
sba(igraph
Edge
p460
(dp461
g7
I1
sg8
I00
sg9
I5
sg10
(lp462
(igraph
Vertex
p463
(dp464
g14
F0.67646014749794492
sg8
I00
sg15
g16
sg17
F196.51742396837767
sg18
F120.11042206857792
sg19
I16519566
sg20
S'104678.078901'
p465
sg22
F0.87230878595715644
sba(igraph
Vertex
p466
(dp467
g14
F0.7384517008483692
sg8
I00
sg15
g16
sg17
F196.51742396837767
sg18
F163.00857698707148
sg19
I16519567
sg20
S'104678.080232'
p468
sg22
F0.87230878595715644
sbasg26
I00
sg27
I00
sg28
I16519229
sg20
S'104679.375147'
p469
sba(igraph
Edge
p470
(dp471
g7
I1
sg8
I00
sg9
I5
sg10
(lp472
g466
a(igraph
Vertex
p473
(dp474
g14
F0.80044325419879325
sg8
I00
sg15
g16
sg17
F196.51742396837767
sg18
F205.90673190556493
sg19
I16519568
sg20
S'104678.08171'
p475
sg22
F0.87230878595715644
sbasg26
I00
sg27
I00
sg28
I16519230
sg20
S'104679.38398'
p476
sba(igraph
Edge
p477
(dp478
g7
I1
sg8
I00
sg9
I5
sg10
(lp479
g473
a(igraph
Vertex
p480
(dp481
g14
F0.8673408875383003
sg8
I00
sg15
g16
sg17
F196.47296960085544
sg18
F252.19989417650379
sg19
I16519569
sg20
S'104678.083096'
p482
sg22
F0.872211724019335
sbasg26
I00
sg27
I00
sg28
I16519231
sg20
S'104679.393514'
p483
sba(igraph
Edge
p484
(dp485
g7
I1
sg8
I00
sg9
I5
sg10
(lp486
g452
ag463
asg26
I00
sg27
I00
sg28
I16519232
sg20
S'104679.408559'
p487
sba(igraph
Edge
p488
(dp489
g7
I1
sg8
I00
sg9
I5
sg10
(lp490
g373
ag432
asg26
I00
sg27
I00
sg28
I16519233
sg20
S'104679.417265'
p491
sba(igraph
Edge
p492
(dp493
g7
I1
sg8
I00
sg9
I5
sg10
(lp494
g376
ag432
asg26
I00
sg27
I00
sg28
I16519234
sg20
S'104679.427757'
p495
sba(igraph
Edge
p496
(dp497
g7
I1
sg8
I00
sg9
I5
sg10
(lp498
g376
ag435
asg26
I00
sg27
I00
sg28
I16519235
sg20
S'104679.43721'
p499
sba(igraph
Edge
p500
(dp501
g7
I1
sg8
I00
sg9
I5
sg10
(lp502
g383
ag435
asg26
I00
sg27
I00
sg28
I16519236
sg20
S'104679.446773'
p503
sba(igraph
Edge
p504
(dp505
g7
I1
sg8
I00
sg9
I5
sg10
(lp506
g383
ag442
asg26
I00
sg27
I00
sg28
I16519237
sg20
S'104679.457495'
p507
sba(igraph
Edge
p508
(dp509
g7
I1
sg8
I00
sg9
I5
sg10
(lp510
g386
ag442
asg26
I00
sg27
I00
sg28
I16519238
sg20
S'104679.47001'
p511
sba(igraph
Edge
p512
(dp513
g7
I1
sg8
I00
sg9
I5
sg10
(lp514
g386
ag445
asg26
I00
sg27
I00
sg28
I16519239
sg20
S'104679.479749'
p515
sba(igraph
Edge
p516
(dp517
g7
I1
sg8
I00
sg9
I5
sg10
(lp518
g393
ag445
asg26
I00
sg27
I00
sg28
I16519240
sg20
S'104679.490412'
p519
sba(igraph
Edge
p520
(dp521
g7
I1
sg8
I00
sg9
I5
sg10
(lp522
g393
ag452
asg26
I00
sg27
I00
sg28
I16519241
sg20
S'104679.499741'
p523
sba(igraph
Edge
p524
(dp525
g7
I1
sg8
I00
sg9
I5
sg10
(lp526
g404
ag452
asg26
I00
sg27
I00
sg28
I16519242
sg20
S'104679.510233'
p527
sba(igraph
Edge
p528
(dp529
g7
I1
sg8
I00
sg9
I5
sg10
(lp530
g404
ag463
asg26
I00
sg27
I00
sg28
I16519243
sg20
S'104679.520114'
p531
sba(igraph
Edge
p532
(dp533
g7
I1
sg8
I00
sg9
I5
sg10
(lp534
g407
ag463
asg26
I00
sg27
I00
sg28
I16519244
sg20
S'104679.528767'
p535
sba(igraph
Edge
p536
(dp537
g7
I1
sg8
I00
sg9
I5
sg10
(lp538
g407
ag466
asg26
I00
sg27
I00
sg28
I16519245
sg20
S'104679.540058'
p539
sba(igraph
Edge
p540
(dp541
g7
I1
sg8
I00
sg9
I5
sg10
(lp542
g414
ag466
asg26
I00
sg27
I00
sg28
I16519246
sg20
S'104679.549454'
p543
sba(igraph
Edge
p544
(dp545
g7
I1
sg8
I00
sg9
I5
sg10
(lp546
g414
ag473
asg26
I00
sg27
I00
sg28
I16519247
sg20
S'104679.558451'
p547
sba(igraph
Edge
p548
(dp549
g7
I1
sg8
I00
sg9
I5
sg10
(lp550
g421
ag473
asg26
I00
sg27
I00
sg28
I16519248
sg20
S'104679.568539'
p551
sba(igraph
Edge
p552
(dp553
g7
I1
sg8
I00
sg9
I5
sg10
(lp554
g421
ag480
asg26
I00
sg27
I00
sg28
I16519249
sg20
S'104679.577921'
p555
sba(igraph
Edge
p556
(dp557
g7
I1
sg8
I00
sg9
I5
sg10
(lp558
(igraph
Vertex
p559
(dp560
g14
F0.93253924275507127
sg8
I00
sg15
g16
sg17
F168.31736760208116
sg18
F297.31715598650931
sg19
I16519570
sg20
S'104678.084466'
p561
sg22
F0.81073661048489332
sba(igraph
Vertex
p562
(dp563
g14
F0.93542941616547592
sg8
I00
sg15
g16
sg17
F199.52223112565434
sg18
F299.31715598650931
sg19
I16519571
sg20
S'104678.085903'
p564
sg22
F0.87886950027435451
sbasg26
I00
sg27
I00
sg28
I16519250
sg20
S'104679.588227'
p565
sba(igraph
Edge
p566
(dp567
g7
I1
sg8
I00
sg9
I5
sg10
(lp568
g421
ag559
asg26
I00
sg27
I00
sg28
I16519251
sg20
S'104679.599052'
p569
sba(igraph
Edge
p570
(dp571
g7
I1
sg8
I00
sg9
I5
sg10
(lp572
g480
ag559
asg26
I00
sg27
I00
sg28
I16519252
sg20
S'104679.609612'
p573
sba(igraph
Edge
p574
(dp575
g7
I1
sg8
I00
sg9
I5
sg10
(lp576
g480
ag562
asg26
I00
sg27
I00
sg28
I16519253
sg20
S'104679.620019'
p577
sba(igraph
Edge
p578
(dp579
g7
I1
sg8
I00
sg9
I5
sg10
(lp580
g209
ag373
asg26
I00
sg27
I00
sg28
I16519254
sg20
S'104679.630624'
p581
sba(igraph
Edge
p582
(dp583
g7
I1
sg8
I00
sg9
I5
sg10
(lp584
g212
ag373
asg26
I00
sg27
I00
sg28
I16519255
sg20
S'104679.641061'
p585
sba(igraph
Edge
p586
(dp587
g7
I1
sg8
I00
sg9
I5
sg10
(lp588
g212
ag376
asg26
I00
sg27
I00
sg28
I16519256
sg20
S'104679.655346'
p589
sba(igraph
Edge
p590
(dp591
g7
I1
sg8
I00
sg9
I5
sg10
(lp592
g219
ag376
asg26
I00
sg27
I00
sg28
I16519257
sg20
S'104679.666256'
p593
sba(igraph
Edge
p594
(dp595
g7
I1
sg8
I00
sg9
I5
sg10
(lp596
g219
ag383
asg26
I00
sg27
I00
sg28
I16519258
sg20
S'104679.676764'
p597
sba(igraph
Edge
p598
(dp599
g7
I1
sg8
I00
sg9
I5
sg10
(lp600
g222
ag383
asg26
I00
sg27
I00
sg28
I16519259
sg20
S'104679.686601'
p601
sba(igraph
Edge
p602
(dp603
g7
I1
sg8
I00
sg9
I5
sg10
(lp604
g222
ag386
asg26
I00
sg27
I00
sg28
I16519260
sg20
S'104679.695922'
p605
sba(igraph
Edge
p606
(dp607
g7
I1
sg8
I00
sg9
I5
sg10
(lp608
g229
ag386
asg26
I00
sg27
I00
sg28
I16519261
sg20
S'104679.705635'
p609
sba(igraph
Edge
p610
(dp611
g7
I1
sg8
I00
sg9
I5
sg10
(lp612
g229
ag393
asg26
I00
sg27
I00
sg28
I16519262
sg20
S'104679.715299'
p613
sba(igraph
Edge
p614
(dp615
g7
I1
sg8
I00
sg9
I5
sg10
(lp616
g240
ag393
asg26
I00
sg27
I00
sg28
I16519263
sg20
S'104679.724975'
p617
sba(igraph
Edge
p618
(dp619
g7
I1
sg8
I00
sg9
I5
sg10
(lp620
g240
ag404
asg26
I00
sg27
I00
sg28
I16519264
sg20
S'104679.734529'
p621
sba(igraph
Edge
p622
(dp623
g7
I1
sg8
I00
sg9
I5
sg10
(lp624
g243
ag404
asg26
I00
sg27
I00
sg28
I16519265
sg20
S'104679.744502'
p625
sba(igraph
Edge
p626
(dp627
g7
I1
sg8
I00
sg9
I5
sg10
(lp628
g243
ag407
asg26
I00
sg27
I00
sg28
I16519266
sg20
S'104679.756709'
p629
sba(igraph
Edge
p630
(dp631
g7
I1
sg8
I00
sg9
I5
sg10
(lp632
g250
ag407
asg26
I00
sg27
I00
sg28
I16519267
sg20
S'104679.768332'
p633
sba(igraph
Edge
p634
(dp635
g7
I1
sg8
I00
sg9
I5
sg10
(lp636
g250
ag414
asg26
I00
sg27
I00
sg28
I16519268
sg20
S'104679.78053'
p637
sba(igraph
Edge
p638
(dp639
g7
I1
sg8
I00
sg9
I5
sg10
(lp640
g257
ag414
asg26
I00
sg27
I00
sg28
I16519269
sg20
S'104679.793568'
p641
sba(igraph
Edge
p642
(dp643
g7
I1
sg8
I00
sg9
I5
sg10
(lp644
g257
ag421
asg26
I00
sg27
I00
sg28
I16519270
sg20
S'104679.810421'
p645
sba(igraph
Edge
p646
(dp647
g7
I1
sg8
I00
sg9
I5
sg10
(lp648
g346
ag421
asg26
I00
sg27
I00
sg28
I16519271
sg20
S'104679.821561'
p649
sba(igraph
Edge
p650
(dp651
g7
I1
sg8
I00
sg9
I5
sg10
(lp652
g346
ag559
asg26
I00
sg27
I00
sg28
I16519272
sg20
S'104679.832665'
p653
sba(igraph
Edge
p654
(dp655
g7
I1
sg8
I00
sg9
I5
sg10
(lp656
(igraph
Vertex
p657
(dp658
g14
F0.243761335279611
sg8
I00
sg15
g16
sg17
F74.118228327952806
sg18
F-179.31715598650919
sg19
I16519572
sg20
S'104678.247323'
p659
sg22
F0.60506163390382706
sba(igraph
Vertex
p660
(dp661
g14
F0.30575288863003502
sg8
I00
sg15
g16
sg17
F74.118228327952806
sg18
F-136.41900106801575
sg19
I16519573
sg20
S'104678.249842'
p662
sg22
F0.60506163390382706
sbasg26
I00
sg27
I00
sg28
I16519273
sg20
S'104683.1285'
p663
sba(igraph
Edge
p664
(dp665
g7
I1
sg8
I00
sg9
I5
sg10
(lp666
(igraph
Vertex
p667
(dp668
g14
F0.24665150869001554
sg8
I00
sg15
g16
sg17
F105.32309185152599
sg18
F-177.31715598650925
sg19
I16519574
sg20
S'104678.252369'
p669
sg22
F0.67319452369328814
sba(igraph
Vertex
p670
(dp671
g14
F0.30864306204043968
sg8
I00
sg15
g16
sg17
F105.32309185152599
sg18
F-134.41900106801575
sg19
I16519575
sg20
S'104678.254915'
p672
sg22
F0.67319452369328814
sbasg26
I00
sg27
I00
sg28
I16519274
sg20
S'104683.207481'
p673
sba(igraph
Edge
p674
(dp675
g7
I1
sg8
I00
sg9
I5
sg10
(lp676
g657
ag667
asg26
I00
sg27
I00
sg28
I16519275
sg20
S'104683.226909'
p677
sba(igraph
Edge
p678
(dp679
g7
I1
sg8
I00
sg9
I5
sg10
(lp680
g660
ag667
asg26
I00
sg27
I00
sg28
I16519276
sg20
S'104683.245663'
p681
sba(igraph
Edge
p682
(dp683
g7
I1
sg8
I00
sg9
I5
sg10
(lp684
g660
ag670
asg26
I00
sg27
I00
sg28
I16519277
sg20
S'104683.267857'
p685
sba(igraph
Edge
p686
(dp687
g7
I1
sg8
I00
sg9
I5
sg10
(lp688
(igraph
Vertex
p689
(dp690
g14
F0.24087116186920624
sg8
I00
sg15
g16
sg17
F137.79301740983863
sg18
F-181.31715598650928
sg19
I16519576
sg20
S'104678.257458'
p691
sg22
F0.74408955766340312
sba(igraph
Vertex
p692
(dp693
g14
F0.30286271521963043
sg8
I00
sg15
g16
sg17
F137.79301740983863
sg18
F-138.41900106801575
sg19
I16519577
sg20
S'104678.260153'
p694
sg22
F0.74408955766340312
sbasg26
I00
sg27
I00
sg28
I16519278
sg20
S'104683.290747'
p695
sba(igraph
Edge
p696
(dp697
g7
I1
sg8
I00
sg9
I5
sg10
(lp698
g667
ag689
asg26
I00
sg27
I00
sg28
I16519279
sg20
S'104683.316495'
p699
sba(igraph
Edge
p700
(dp701
g7
I1
sg8
I00
sg9
I5
sg10
(lp702
g670
ag689
asg26
I00
sg27
I00
sg28
I16519280
sg20
S'104683.34007'
p703
sba(igraph
Edge
p704
(dp705
g7
I1
sg8
I00
sg9
I5
sg10
(lp706
g670
ag692
asg26
I00
sg27
I00
sg28
I16519281
sg20
S'104683.36628'
p707
sba(igraph
Edge
p708
(dp709
g7
I1
sg8
I00
sg9
I5
sg10
(lp710
(igraph
Vertex
p711
(dp712
g14
F0.2454461731764615
sg8
I00
sg15
g16
sg17
F164.68144379570924
sg18
F-178.15124816188865
sg19
I16519578
sg20
S'104678.26272'
p713
sg22
F0.8027979122177058
sba(igraph
Vertex
p714
(dp715
g14
F0.30743772652688561
sg8
I00
sg15
g16
sg17
F164.68144379570924
sg18
F-135.25309324339514
sg19
I16519579
sg20
S'104678.265324'
p716
sg22
F0.8027979122177058
sbasg26
I00
sg27
I00
sg28
I16519282
sg20
S'104683.387363'
p717
sba(igraph
Edge
p718
(dp719
g7
I1
sg8
I00
sg9
I5
sg10
(lp720
(igraph
Vertex
p721
(dp722
g14
F0.24706636359648695
sg8
I01
sg15
I0
sg17
F195.67121647766305
sg18
F-177.03007639123103
sg19
I16519581
sg20
S'104678.303786'
p723
sg22
F0.87046117134860923
sba(igraph
Vertex
p724
(dp725
g14
F0.31032789993729026
sg8
I00
sg15
g16
sg17
F195.88630731928242
sg18
F-133.25309324339514
sg19
I16519583
sg20
S'104678.306541'
p726
sg22
F0.87093080200716688
sbasg26
I00
sg27
I00
sg28
I16519283
sg20
S'104683.410183'
p727
sba(igraph
Edge
p728
(dp729
g7
I1
sg8
I00
sg9
I5
sg10
(lp730
g711
ag721
asg26
I00
sg27
I00
sg28
I16519284
sg20
S'104683.430677'
p731
sba(igraph
Edge
p732
(dp733
g7
I1
sg8
I00
sg9
I5
sg10
(lp734
g714
ag721
asg26
I00
sg27
I00
sg28
I16519285
sg20
S'104683.451304'
p735
sba(igraph
Edge
p736
(dp737
g7
I1
sg8
I00
sg9
I5
sg10
(lp738
g714
ag724
asg26
I00
sg27
I00
sg28
I16519286
sg20
S'104683.470337'
p739
sba(igraph
Edge
p740
(dp741
g7
I1
sg8
I00
sg9
I5
sg10
(lp742
g689
ag711
asg26
I00
sg27
I00
sg28
I16519287
sg20
S'104683.491348'
p743
sba(igraph
Edge
p744
(dp745
g7
I1
sg8
I00
sg9
I5
sg10
(lp746
g692
ag711
asg26
I00
sg27
I00
sg28
I16519288
sg20
S'104683.512087'
p747
sba(igraph
Edge
p748
(dp749
g7
I1
sg8
I00
sg9
I5
sg10
(lp750
g692
ag714
asg26
I00
sg27
I00
sg28
I16519289
sg20
S'104683.532626'
p751
sba(igraph
Edge
p752
(dp753
g7
I1
sg8
I00
sg9
I5
sg10
(lp754
g432
ag724
asg26
I00
sg27
I00
sg28
I16519290
sg20
S'104684.228739'
p755
sba(igraph
Edge
p756
(dp757
g7
I1
sg8
I00
sg9
I5
sg10
(lp758
g724
ag373
asg26
I00
sg27
I00
sg28
I16519291
sg20
S'104684.262657'
p759
sba(igraph
Edge
p760
(dp761
g7
I1
sg8
I00
sg9
I5
sg10
(lp762
g373
ag714
asg26
I00
sg27
I00
sg28
I16519292
sg20
S'104684.320353'
p763
sba(igraph
Edge
p764
(dp765
g7
I1
sg8
I00
sg9
I5
sg10
(lp766
g714
ag209
asg26
I00
sg27
I00
sg28
I16519293
sg20
S'104684.346351'
p767
sba(igraph
Edge
p768
(dp769
g7
I1
sg8
I00
sg9
I5
sg10
(lp770
g209
ag692
asg26
I00
sg27
I00
sg28
I16519294
sg20
S'104684.387906'
p771
sba(igraph
Edge
p772
(dp773
g7
I1
sg8
I00
sg9
I5
sg10
(lp774
g692
ag82
asg26
I00
sg27
I00
sg28
I16519295
sg20
S'104684.420435'
p775
sba(igraph
Edge
p776
(dp777
g7
I1
sg8
I00
sg9
I5
sg10
(lp778
g82
ag670
asg26
I00
sg27
I00
sg28
I16519296
sg20
S'104684.446658'
p779
sba(igraph
Edge
p780
(dp781
g7
I1
sg8
I00
sg9
I5
sg10
(lp782
g670
ag12
asg26
I00
sg27
I00
sg28
I16519297
sg20
S'104684.475914'
p783
sba(igraph
Edge
p784
(dp785
g7
I1
sg8
I00
sg9
I5
sg10
(lp786
g12
ag660
asg26
I00
sg27
I00
sg28
I16519298
sg20
S'104684.511916'
p787
sba(igraph
Edge
p788
(dp789
g7
I1
sg8
I00
sg9
I5
sg10
(lp790
g336
ag657
asg26
I00
sg27
I00
sg28
I16519299
sg20
S'104685.682213'
p791
sba(igraph
Edge
p792
(dp793
g7
I1
sg8
I00
sg9
I5
sg10
(lp794
g339
ag657
asg26
I00
sg27
I00
sg28
I16519300
sg20
S'104685.701632'
p795
sba(igraph
Edge
p796
(dp797
g7
I1
sg8
I00
sg9
I5
sg10
(lp798
g339
ag667
asg26
I00
sg27
I00
sg28
I16519301
sg20
S'104685.720749'
p799
sba(igraph
Edge
p800
(dp801
g7
I1
sg8
I00
sg9
I5
sg10
(lp802
g346
ag667
asg26
I00
sg27
I00
sg28
I16519302
sg20
S'104685.741491'
p803
sba(igraph
Edge
p804
(dp805
g7
I1
sg8
I00
sg9
I5
sg10
(lp806
g346
ag689
asg26
I00
sg27
I00
sg28
I16519303
sg20
S'104685.760994'
p807
sba(igraph
Edge
p808
(dp809
g7
I1
sg8
I00
sg9
I5
sg10
(lp810
g559
ag689
asg26
I00
sg27
I00
sg28
I16519304
sg20
S'104685.780744'
p811
sba(igraph
Edge
p812
(dp813
g7
I1
sg8
I00
sg9
I5
sg10
(lp814
g559
ag711
asg26
I00
sg27
I00
sg28
I16519305
sg20
S'104685.800413'
p815
sba(igraph
Edge
p816
(dp817
g7
I1
sg8
I00
sg9
I5
sg10
(lp818
g562
ag711
asg26
I00
sg27
I00
sg28
I16519306
sg20
S'104685.820769'
p819
sba(igraph
Edge
p820
(dp821
g7
I1
sg8
I00
sg9
I5
sg10
(lp822
g562
ag721
asg26
I00
sg27
I00
sg28
I16519307
sg20
S'104685.840289'
p823
sba(igraph
Edge
p824
(dp825
g7
I1
sg8
I00
sg9
I5
sg10
(lp826
(igraph
Vertex
p827
(dp828
g17
F-80.908371855690746
sg18
F-102.98925029792009
sg19
I16519584
sg8
I00
sg20
S'109840.641735'
p829
sg15
g16
sba(igraph
Vertex
p830
(dp831
g17
F-80.908371855690746
sg18
F-60.091095379426591
sg19
I16519585
sg8
I00
sg20
S'109840.642576'
p832
sg15
g16
sbasg26
I00
sg27
I00
sg28
I16519308
sg20
S'109840.724314'
p833
sba(igraph
Edge
p834
(dp835
g7
I1
sg8
I00
sg9
I5
sg10
(lp836
(igraph
Vertex
p837
(dp838
g17
F-80.952826223213037
sg18
F-13.79793310848784
sg19
I16519586
sg8
I00
sg20
S'109840.643392'
p839
sg15
g16
sba(igraph
Vertex
p840
(dp841
g17
F-80.952826223213037
sg18
F29.100221810005664
sg19
I16519587
sg8
I00
sg20
S'109840.644373'
p842
sg15
g16
sbasg26
I00
sg27
I00
sg28
I16519309
sg20
S'109840.73078'
p843
sba(igraph
Edge
p844
(dp845
g7
I1
sg8
I00
sg9
I5
sg10
(lp846
g840
a(igraph
Vertex
p847
(dp848
g17
F-80.952826223213037
sg18
F71.998376728499224
sg19
I16519588
sg8
I00
sg20
S'109840.645205'
p849
sg15
g16
sbasg26
I00
sg27
I00
sg28
I16519310
sg20
S'109840.736694'
p850
sba(igraph
Edge
p851
(dp852
g7
I1
sg8
I00
sg9
I5
sg10
(lp853
g830
ag837
asg26
I00
sg27
I00
sg28
I16519311
sg20
S'109840.742516'
p854
sba(igraph
Edge
p855
(dp856
g7
I1
sg8
I00
sg9
I5
sg10
(lp857
(igraph
Vertex
p858
(dp859
g17
F-81.070884749755578
sg18
F116.9445142439573
sg19
I16519589
sg8
I00
sg20
S'109840.646083'
p860
sg15
g16
sba(igraph
Vertex
p861
(dp862
g17
F-81.070884749755578
sg18
F159.84266916245087
sg19
I16519590
sg8
I00
sg20
S'109840.647107'
p863
sg15
g16
sbasg26
I00
sg27
I00
sg28
I16519312
sg20
S'109840.748447'
p864
sba(igraph
Edge
p865
(dp866
g7
I1
sg8
I00
sg9
I5
sg10
(lp867
g861
a(igraph
Vertex
p868
(dp869
g17
F-81.070884749755578
sg18
F202.74082408094432
sg19
I16519591
sg8
I00
sg20
S'109840.648104'
p870
sg15
g16
sbasg26
I00
sg27
I00
sg28
I16519313
sg20
S'109840.754205'
p871
sba(igraph
Edge
p872
(dp873
g7
I1
sg8
I00
sg9
I5
sg10
(lp874
g868
a(igraph
Vertex
p875
(dp876
g17
F-81.11533911727787
sg18
F249.03398635188319
sg19
I16519592
sg8
I00
sg20
S'109840.648964'
p877
sg15
g16
sbasg26
I00
sg27
I00
sg28
I16519314
sg20
S'109840.760497'
p878
sba(igraph
Edge
p879
(dp880
g7
I1
sg8
I00
sg9
I5
sg10
(lp881
g847
ag858
asg26
I00
sg27
I00
sg28
I16519315
sg20
S'109840.766164'
p882
sba(igraph
Edge
p883
(dp884
g7
I1
sg8
I00
sg9
I5
sg10
(lp885
(igraph
Vertex
p886
(dp887
g17
F-49.703508332117565
sg18
F-100.98925029792012
sg19
I16519593
sg8
I00
sg20
S'109840.649873'
p888
sg15
g16
sba(igraph
Vertex
p889
(dp890
g17
F-49.703508332117565
sg18
F-58.091095379426591
sg19
I16519594
sg8
I00
sg20
S'109840.650816'
p891
sg15
g16
sbasg26
I00
sg27
I00
sg28
I16519316
sg20
S'109840.771977'
p892
sba(igraph
Edge
p893
(dp894
g7
I1
sg8
I00
sg9
I5
sg10
(lp895
(igraph
Vertex
p896
(dp897
g17
F-49.747962699639857
sg18
F-11.79793310848784
sg19
I16519595
sg8
I00
sg20
S'109840.651781'
p898
sg15
g16
sba(igraph
Vertex
p899
(dp900
g17
F-49.747962699639857
sg18
F31.100221810005664
sg19
I16519596
sg8
I00
sg20
S'109840.65272'
p901
sg15
g16
sbasg26
I00
sg27
I00
sg28
I16519317
sg20
S'109840.778175'
p902
sba(igraph
Edge
p903
(dp904
g7
I1
sg8
I00
sg9
I5
sg10
(lp905
g899
a(igraph
Vertex
p906
(dp907
g17
F-49.747962699639857
sg18
F73.998376728499224
sg19
I16519597
sg8
I00
sg20
S'109840.653675'
p908
sg15
g16
sbasg26
I00
sg27
I00
sg28
I16519318
sg20
S'109840.785336'
p909
sba(igraph
Edge
p910
(dp911
g7
I1
sg8
I00
sg9
I5
sg10
(lp912
g889
ag896
asg26
I00
sg27
I00
sg28
I16519319
sg20
S'109840.792554'
p913
sba(igraph
Edge
p914
(dp915
g7
I1
sg8
I00
sg9
I5
sg10
(lp916
(igraph
Vertex
p917
(dp918
g17
F-49.866021226182454
sg18
F118.9445142439573
sg19
I16519598
sg8
I00
sg20
S'109840.654875'
p919
sg15
g16
sba(igraph
Vertex
p920
(dp921
g17
F-49.866021226182454
sg18
F161.84266916245087
sg19
I16519599
sg8
I00
sg20
S'109840.655852'
p922
sg15
g16
sbasg26
I00
sg27
I00
sg28
I16519320
sg20
S'109840.801937'
p923
sba(igraph
Edge
p924
(dp925
g7
I1
sg8
I00
sg9
I5
sg10
(lp926
g920
a(igraph
Vertex
p927
(dp928
g17
F-49.866021226182454
sg18
F204.74082408094432
sg19
I16519600
sg8
I00
sg20
S'109840.657565'
p929
sg15
g16
sbasg26
I00
sg27
I00
sg28
I16519321
sg20
S'109840.809074'
p930
sba(igraph
Edge
p931
(dp932
g7
I1
sg8
I00
sg9
I5
sg10
(lp933
g927
a(igraph
Vertex
p934
(dp935
g17
F-49.910475593704689
sg18
F251.03398635188319
sg19
I16519601
sg8
I00
sg20
S'109840.658749'
p936
sg15
g16
sbasg26
I00
sg27
I00
sg28
I16519322
sg20
S'109840.816701'
p937
sba(igraph
Edge
p938
(dp939
g7
I1
sg8
I00
sg9
I5
sg10
(lp940
g906
ag917
asg26
I00
sg27
I00
sg28
I16519323
sg20
S'109840.823969'
p941
sba(igraph
Edge
p942
(dp943
g7
I1
sg8
I00
sg9
I5
sg10
(lp944
g827
ag886
asg26
I00
sg27
I00
sg28
I16519324
sg20
S'109840.83104'
p945
sba(igraph
Edge
p946
(dp947
g7
I1
sg8
I00
sg9
I5
sg10
(lp948
g830
ag886
asg26
I00
sg27
I00
sg28
I16519325
sg20
S'109840.838546'
p949
sba(igraph
Edge
p950
(dp951
g7
I1
sg8
I00
sg9
I5
sg10
(lp952
g830
ag889
asg26
I00
sg27
I00
sg28
I16519326
sg20
S'109840.845839'
p953
sba(igraph
Edge
p954
(dp955
g7
I1
sg8
I00
sg9
I5
sg10
(lp956
g837
ag889
asg26
I00
sg27
I00
sg28
I16519327
sg20
S'109840.853121'
p957
sba(igraph
Edge
p958
(dp959
g7
I1
sg8
I00
sg9
I5
sg10
(lp960
g837
ag896
asg26
I00
sg27
I00
sg28
I16519328
sg20
S'109840.861096'
p961
sba(igraph
Edge
p962
(dp963
g7
I1
sg8
I00
sg9
I5
sg10
(lp964
g840
ag896
asg26
I00
sg27
I00
sg28
I16519329
sg20
S'109840.867045'
p965
sba(igraph
Edge
p966
(dp967
g7
I1
sg8
I00
sg9
I5
sg10
(lp968
g840
ag899
asg26
I00
sg27
I00
sg28
I16519330
sg20
S'109840.874107'
p969
sba(igraph
Edge
p970
(dp971
g7
I1
sg8
I00
sg9
I5
sg10
(lp972
g847
ag899
asg26
I00
sg27
I00
sg28
I16519331
sg20
S'109840.881933'
p973
sba(igraph
Edge
p974
(dp975
g7
I1
sg8
I00
sg9
I5
sg10
(lp976
g847
ag906
asg26
I00
sg27
I00
sg28
I16519332
sg20
S'109840.889235'
p977
sba(igraph
Edge
p978
(dp979
g7
I1
sg8
I00
sg9
I5
sg10
(lp980
g858
ag906
asg26
I00
sg27
I00
sg28
I16519333
sg20
S'109840.895634'
p981
sba(igraph
Edge
p982
(dp983
g7
I1
sg8
I00
sg9
I5
sg10
(lp984
g858
ag917
asg26
I00
sg27
I00
sg28
I16519334
sg20
S'109840.902754'
p985
sba(igraph
Edge
p986
(dp987
g7
I1
sg8
I00
sg9
I5
sg10
(lp988
g861
ag917
asg26
I00
sg27
I00
sg28
I16519335
sg20
S'109840.911592'
p989
sba(igraph
Edge
p990
(dp991
g7
I1
sg8
I00
sg9
I5
sg10
(lp992
g861
ag920
asg26
I00
sg27
I00
sg28
I16519336
sg20
S'109840.919048'
p993
sba(igraph
Edge
p994
(dp995
g7
I1
sg8
I00
sg9
I5
sg10
(lp996
g868
ag920
asg26
I00
sg27
I00
sg28
I16519337
sg20
S'109840.925363'
p997
sba(igraph
Edge
p998
(dp999
g7
I1
sg8
I00
sg9
I5
sg10
(lp1000
g868
ag927
asg26
I00
sg27
I00
sg28
I16519338
sg20
S'109840.932104'
p1001
sba(igraph
Edge
p1002
(dp1003
g7
I1
sg8
I00
sg9
I5
sg10
(lp1004
g875
ag927
asg26
I00
sg27
I00
sg28
I16519339
sg20
S'109840.940065'
p1005
sba(igraph
Edge
p1006
(dp1007
g7
I1
sg8
I00
sg9
I5
sg10
(lp1008
g875
ag934
asg26
I00
sg27
I00
sg28
I16519340
sg20
S'109840.946496'
p1009
sba(igraph
Edge
p1010
(dp1011
g7
I1
sg8
I00
sg9
I5
sg10
(lp1012
(igraph
Vertex
p1013
(dp1014
g17
F-17.233582773804869
sg18
F-104.98925029792012
sg19
I16519602
sg8
I00
sg20
S'109840.659766'
p1015
sg15
g16
sba(igraph
Vertex
p1016
(dp1017
g17
F-17.233582773804869
sg18
F-62.091095379426648
sg19
I16519603
sg8
I00
sg20
S'109840.660778'
p1018
sg15
g16
sbasg26
I00
sg27
I00
sg28
I16519341
sg20
S'109840.953082'
p1019
sba(igraph
Edge
p1020
(dp1021
g7
I1
sg8
I00
sg9
I5
sg10
(lp1022
(igraph
Vertex
p1023
(dp1024
g17
F-17.278037141327161
sg18
F-15.797933108487896
sg19
I16519604
sg8
I00
sg20
S'109840.661785'
p1025
sg15
g16
sba(igraph
Vertex
p1026
(dp1027
g17
F-17.278037141327161
sg18
F27.100221810005664
sg19
I16519605
sg8
I00
sg20
S'109840.66408'
p1028
sg15
g16
sbasg26
I00
sg27
I00
sg28
I16519342
sg20
S'109840.960299'
p1029
sba(igraph
Edge
p1030
(dp1031
g7
I1
sg8
I00
sg9
I5
sg10
(lp1032
g1026
a(igraph
Vertex
p1033
(dp1034
g17
F-17.278037141327161
sg18
F69.998376728499224
sg19
I16519606
sg8
I00
sg20
S'109840.665114'
p1035
sg15
g16
sbasg26
I00
sg27
I00
sg28
I16519343
sg20
S'109840.967186'
p1036
sba(igraph
Edge
p1037
(dp1038
g7
I1
sg8
I00
sg9
I5
sg10
(lp1039
g1016
ag1023
asg26
I00
sg27
I00
sg28
I16519344
sg20
S'109840.974588'
p1040
sba(igraph
Edge
p1041
(dp1042
g7
I1
sg8
I00
sg9
I5
sg10
(lp1043
(igraph
Vertex
p1044
(dp1045
g17
F-17.396095667869815
sg18
F114.9445142439573
sg19
I16519607
sg8
I00
sg20
S'109840.666348'
p1046
sg15
g16
sba(igraph
Vertex
p1047
(dp1048
g17
F-17.396095667869815
sg18
F157.84266916245087
sg19
I16519608
sg8
I00
sg20
S'109840.667491'
p1049
sg15
g16
sbasg26
I00
sg27
I00
sg28
I16519345
sg20
S'109840.983119'
p1050
sba(igraph
Edge
p1051
(dp1052
g7
I1
sg8
I00
sg9
I5
sg10
(lp1053
g1047
a(igraph
Vertex
p1054
(dp1055
g17
F-17.396095667869815
sg18
F200.74082408094432
sg19
I16519609
sg8
I00
sg20
S'109840.66863'
p1056
sg15
g16
sbasg26
I00
sg27
I00
sg28
I16519346
sg20
S'109840.990685'
p1057
sba(igraph
Edge
p1058
(dp1059
g7
I1
sg8
I00
sg9
I5
sg10
(lp1060
g1054
a(igraph
Vertex
p1061
(dp1062
g17
F-17.440550035391993
sg18
F247.03398635188319
sg19
I16519610
sg8
I00
sg20
S'109840.669702'
p1063
sg15
g16
sbasg26
I00
sg27
I00
sg28
I16519347
sg20
S'109840.998857'
p1064
sba(igraph
Edge
p1065
(dp1066
g7
I1
sg8
I00
sg9
I5
sg10
(lp1067
g1033
ag1044
asg26
I00
sg27
I00
sg28
I16519348
sg20
S'109841.007824'
p1068
sba(igraph
Edge
p1069
(dp1070
g7
I1
sg8
I00
sg9
I5
sg10
(lp1071
g886
ag1013
asg26
I00
sg27
I00
sg28
I16519349
sg20
S'109841.015589'
p1072
sba(igraph
Edge
p1073
(dp1074
g7
I1
sg8
I00
sg9
I5
sg10
(lp1075
g889
ag1013
asg26
I00
sg27
I00
sg28
I16519350
sg20
S'109841.022984'
p1076
sba(igraph
Edge
p1077
(dp1078
g7
I1
sg8
I00
sg9
I5
sg10
(lp1079
g889
ag1016
asg26
I00
sg27
I00
sg28
I16519351
sg20
S'109841.030758'
p1080
sba(igraph
Edge
p1081
(dp1082
g7
I1
sg8
I00
sg9
I5
sg10
(lp1083
g896
ag1016
asg26
I00
sg27
I00
sg28
I16519352
sg20
S'109841.038635'
p1084
sba(igraph
Edge
p1085
(dp1086
g7
I1
sg8
I00
sg9
I5
sg10
(lp1087
g896
ag1023
asg26
I00
sg27
I00
sg28
I16519353
sg20
S'109841.046063'
p1088
sba(igraph
Edge
p1089
(dp1090
g7
I1
sg8
I00
sg9
I5
sg10
(lp1091
g899
ag1023
asg26
I00
sg27
I00
sg28
I16519354
sg20
S'109841.054121'
p1092
sba(igraph
Edge
p1093
(dp1094
g7
I1
sg8
I00
sg9
I5
sg10
(lp1095
g899
ag1026
asg26
I00
sg27
I00
sg28
I16519355
sg20
S'109841.062952'
p1096
sba(igraph
Edge
p1097
(dp1098
g7
I1
sg8
I00
sg9
I5
sg10
(lp1099
g906
ag1026
asg26
I00
sg27
I00
sg28
I16519356
sg20
S'109841.070118'
p1100
sba(igraph
Edge
p1101
(dp1102
g7
I1
sg8
I00
sg9
I5
sg10
(lp1103
g906
ag1033
asg26
I00
sg27
I00
sg28
I16519357
sg20
S'109841.078214'
p1104
sba(igraph
Edge
p1105
(dp1106
g7
I1
sg8
I00
sg9
I5
sg10
(lp1107
g917
ag1033
asg26
I00
sg27
I00
sg28
I16519358
sg20
S'109841.086538'
p1108
sba(igraph
Edge
p1109
(dp1110
g7
I1
sg8
I00
sg9
I5
sg10
(lp1111
g917
ag1044
asg26
I00
sg27
I00
sg28
I16519359
sg20
S'109841.09397'
p1112
sba(igraph
Edge
p1113
(dp1114
g7
I1
sg8
I00
sg9
I5
sg10
(lp1115
g920
ag1044
asg26
I00
sg27
I00
sg28
I16519360
sg20
S'109841.101921'
p1116
sba(igraph
Edge
p1117
(dp1118
g7
I1
sg8
I00
sg9
I5
sg10
(lp1119
g920
ag1047
asg26
I00
sg27
I00
sg28
I16519361
sg20
S'109841.10987'
p1120
sba(igraph
Edge
p1121
(dp1122
g7
I1
sg8
I00
sg9
I5
sg10
(lp1123
g927
ag1047
asg26
I00
sg27
I00
sg28
I16519362
sg20
S'109841.117042'
p1124
sba(igraph
Edge
p1125
(dp1126
g7
I1
sg8
I00
sg9
I5
sg10
(lp1127
g927
ag1054
asg26
I00
sg27
I00
sg28
I16519363
sg20
S'109841.125753'
p1128
sba(igraph
Edge
p1129
(dp1130
g7
I1
sg8
I00
sg9
I5
sg10
(lp1131
g934
ag1054
asg26
I00
sg27
I00
sg28
I16519364
sg20
S'109841.133101'
p1132
sba(igraph
Edge
p1133
(dp1134
g7
I1
sg8
I00
sg9
I5
sg10
(lp1135
g934
ag1061
asg26
I00
sg27
I00
sg28
I16519365
sg20
S'109841.140483'
p1136
sba(igraph
Edge
p1137
(dp1138
g7
I1
sg8
I00
sg9
I5
sg10
(lp1139
(igraph
Vertex
p1140
(dp1141
g17
F-78.066077592478848
sg18
F296.1512481618887
sg19
I16519611
sg8
I00
sg20
S'109840.671088'
p1142
sg15
g16
sba(igraph
Vertex
p1143
(dp1144
g17
F-46.861214068905724
sg18
F298.1512481618887
sg19
I16519612
sg8
I00
sg20
S'109840.672232'
p1145
sg15
g16
sbasg26
I00
sg27
I00
sg28
I16519366
sg20
S'109841.149882'
p1146
sba(igraph
Edge
p1147
(dp1148
g7
I1
sg8
I00
sg9
I5
sg10
(lp1149
g1143
a(igraph
Vertex
p1150
(dp1151
g17
F-14.391288510593029
sg18
F294.1512481618887
sg19
I16519613
sg8
I00
sg20
S'109840.673425'
p1152
sg15
g16
sbasg26
I00
sg27
I00
sg28
I16519367
sg20
S'109841.161382'
p1153
sba(igraph
Edge
p1154
(dp1155
g7
I1
sg8
I00
sg9
I5
sg10
(lp1156
g875
ag1140
asg26
I00
sg27
I00
sg28
I16519368
sg20
S'109841.177436'
p1157
sba(igraph
Edge
p1158
(dp1159
g7
I1
sg8
I00
sg9
I5
sg10
(lp1160
g934
ag1140
asg26
I00
sg27
I00
sg28
I16519369
sg20
S'109841.186845'
p1161
sba(igraph
Edge
p1162
(dp1163
g7
I1
sg8
I00
sg9
I5
sg10
(lp1164
g934
ag1143
asg26
I00
sg27
I00
sg28
I16519370
sg20
S'109841.194757'
p1165
sba(igraph
Edge
p1166
(dp1167
g7
I1
sg8
I00
sg9
I5
sg10
(lp1168
g1061
ag1143
asg26
I00
sg27
I00
sg28
I16519371
sg20
S'109841.203562'
p1169
sba(igraph
Edge
p1170
(dp1171
g7
I1
sg8
I00
sg9
I5
sg10
(lp1172
g1061
ag1150
asg26
I00
sg27
I00
sg28
I16519372
sg20
S'109841.21219'
p1173
sba(igraph
Edge
p1174
(dp1175
g7
I1
sg8
I00
sg9
I5
sg10
(lp1176
(igraph
Vertex
p1177
(dp1178
g17
F9.6548436120656902
sg18
F-101.82334247329952
sg19
I16519614
sg8
I00
sg20
S'109840.674752'
p1179
sg15
g16
sba(igraph
Vertex
p1180
(dp1181
g17
F9.6548436120656902
sg18
F-58.925187554806044
sg19
I16519615
sg8
I00
sg20
S'109840.675982'
p1182
sg15
g16
sbasg26
I00
sg27
I00
sg28
I16519373
sg20
S'109841.222455'
p1183
sba(igraph
Edge
p1184
(dp1185
g7
I1
sg8
I00
sg9
I5
sg10
(lp1186
(igraph
Vertex
p1187
(dp1188
g17
F9.6103892445434553
sg18
F-12.632025283867293
sg19
I16519616
sg8
I00
sg20
S'109840.677894'
p1189
sg15
g16
sba(igraph
Vertex
p1190
(dp1191
g17
F9.6103892445434553
sg18
F30.266129634626267
sg19
I16519617
sg8
I00
sg20
S'109840.67963'
p1192
sg15
g16
sbasg26
I00
sg27
I00
sg28
I16519374
sg20
S'109841.231796'
p1193
sba(igraph
Edge
p1194
(dp1195
g7
I1
sg8
I00
sg9
I5
sg10
(lp1196
g1190
a(igraph
Vertex
p1197
(dp1198
g17
F9.6103892445434553
sg18
F73.164284553119828
sg19
I16519618
sg8
I00
sg20
S'109840.680986'
p1199
sg15
g16
sbasg26
I00
sg27
I00
sg28
I16519375
sg20
S'109841.240383'
p1200
sba(igraph
Edge
p1201
(dp1202
g7
I1
sg8
I00
sg9
I5
sg10
(lp1203
g1180
ag1187
asg26
I00
sg27
I00
sg28
I16519376
sg20
S'109841.249196'
p1204
sba(igraph
Edge
p1205
(dp1206
g7
I1
sg8
I00
sg9
I5
sg10
(lp1207
(igraph
Vertex
p1208
(dp1209
g17
F9.4923307180008578
sg18
F118.1104220685779
sg19
I16519619
sg8
I00
sg20
S'109840.682655'
p1210
sg15
g16
sba(igraph
Vertex
p1211
(dp1212
g17
F9.4923307180008578
sg18
F161.00857698707148
sg19
I16519620
sg8
I00
sg20
S'109840.684113'
p1213
sg15
g16
sbasg26
I00
sg27
I00
sg28
I16519377
sg20
S'109841.258307'
p1214
sba(igraph
Edge
p1215
(dp1216
g7
I1
sg8
I00
sg9
I5
sg10
(lp1217
g1211
a(igraph
Vertex
p1218
(dp1219
g17
F9.4923307180008578
sg18
F203.90673190556493
sg19
I16519622
sg8
I01
sg20
S'109840.685353'
p1220
sg15
I0
sbasg26
I00
sg27
I00
sg28
I16519378
sg20
S'109841.267647'
p1221
sba(igraph
Edge
p1222
(dp1223
g7
I1
sg8
I00
sg9
I5
sg10
(lp1224
g1218
a(igraph
Vertex
p1225
(dp1226
g17
F9.447876350478623
sg18
F250.19989417650379
sg19
I16519624
sg8
I00
sg20
S'109840.686684'
p1227
sg15
g16
sbasg26
I00
sg27
I00
sg28
I16519379
sg20
S'109841.276226'
p1228
sba(igraph
Edge
p1229
(dp1230
g7
I1
sg8
I00
sg9
I5
sg10
(lp1231
g1197
ag1208
asg26
I00
sg27
I00
sg28
I16519380
sg20
S'109841.28501'
p1232
sba(igraph
Edge
p1233
(dp1234
g7
I1
sg8
I00
sg9
I5
sg10
(lp1235
(igraph
Vertex
p1236
(dp1237
g17
F40.644616294019499
sg18
F-100.70217070264191
sg19
I16519625
sg8
I00
sg20
S'109840.688058'
p1238
sg15
g16
sba(igraph
Vertex
p1239
(dp1240
g17
F40.859707135638871
sg18
F-56.925187554806044
sg19
I16519626
sg8
I00
sg20
S'109840.689269'
p1241
sg15
g16
sbasg26
I00
sg27
I00
sg28
I16519381
sg20
S'109841.293555'
p1242
sba(igraph
Edge
p1243
(dp1244
g7
I1
sg8
I00
sg9
I5
sg10
(lp1245
(igraph
Vertex
p1246
(dp1247
g17
F40.815252768116636
sg18
F-10.632025283867293
sg19
I16519627
sg8
I00
sg20
S'109840.690642'
p1248
sg15
g16
sba(igraph
Vertex
p1249
(dp1250
g17
F40.815252768116636
sg18
F32.266129634626267
sg19
I16519628
sg8
I00
sg20
S'109840.691958'
p1251
sg15
g16
sbasg26
I00
sg27
I00
sg28
I16519382
sg20
S'109841.302798'
p1252
sba(igraph
Edge
p1253
(dp1254
g7
I1
sg8
I00
sg9
I5
sg10
(lp1255
g1249
a(igraph
Vertex
p1256
(dp1257
g17
F40.815252768116636
sg18
F75.164284553119828
sg19
I16519629
sg8
I00
sg20
S'109840.693564'
p1258
sg15
g16
sbasg26
I00
sg27
I00
sg28
I16519383
sg20
S'109841.310877'
p1259
sba(igraph
Edge
p1260
(dp1261
g7
I1
sg8
I00
sg9
I5
sg10
(lp1262
g1239
ag1246
asg26
I00
sg27
I00
sg28
I16519384
sg20
S'109841.32015'
p1263
sba(igraph
Edge
p1264
(dp1265
g7
I1
sg8
I00
sg9
I5
sg10
(lp1266
(igraph
Vertex
p1267
(dp1268
g17
F40.697194241574095
sg18
F120.1104220685779
sg19
I16519630
sg8
I00
sg20
S'109840.694896'
p1269
sg15
g16
sba(igraph
Vertex
p1270
(dp1271
g17
F44.0
sg18
F164.0
sg19
I16519631
sg8
I00
sg20
S'109840.696224'
p1272
sg15
g16
sbasg26
I00
sg27
I00
sg28
I16519385
sg20
S'109841.328933'
p1273
sba(igraph
Edge
p1274
(dp1275
g7
I1
sg8
I00
sg9
I5
sg10
(lp1276
g1270
a(igraph
Vertex
p1277
(dp1278
g17
F40.697194241574095
sg18
F205.90673190556493
sg19
I16519632
sg8
I00
sg20
S'109840.697669'
p1279
sg15
g16
sbasg26
I00
sg27
I00
sg28
I16519386
sg20
S'109841.337738'
p1280
sba(igraph
Edge
p1281
(dp1282
g7
I1
sg8
I00
sg9
I5
sg10
(lp1283
g1277
a(igraph
Vertex
p1284
(dp1285
g17
F40.652739874051861
sg18
F252.19989417650379
sg19
I16519634
sg8
I01
sg20
S'109840.699255'
p1286
sg15
I0
sbasg26
I00
sg27
I00
sg28
I16519387
sg20
S'109841.348134'
p1287
sba(igraph
Edge
p1288
(dp1289
g7
I1
sg8
I00
sg9
I5
sg10
(lp1290
g1256
ag1267
asg26
I00
sg27
I00
sg28
I16519388
sg20
S'109841.358905'
p1291
sba(igraph
Edge
p1292
(dp1293
g7
I1
sg8
I00
sg9
I5
sg10
(lp1294
g1177
ag1236
asg26
I00
sg27
I00
sg28
I16519389
sg20
S'109841.367136'
p1295
sba(igraph
Edge
p1296
(dp1297
g7
I1
sg8
I00
sg9
I5
sg10
(lp1298
g1180
ag1236
asg26
I00
sg27
I00
sg28
I16519390
sg20
S'109841.376553'
p1299
sba(igraph
Edge
p1300
(dp1301
g7
I1
sg8
I00
sg9
I5
sg10
(lp1302
g1180
ag1239
asg26
I00
sg27
I00
sg28
I16519391
sg20
S'109841.384919'
p1303
sba(igraph
Edge
p1304
(dp1305
g7
I1
sg8
I00
sg9
I5
sg10
(lp1306
g1187
ag1239
asg26
I00
sg27
I00
sg28
I16519392
sg20
S'109841.394905'
p1307
sba(igraph
Edge
p1308
(dp1309
g7
I1
sg8
I00
sg9
I5
sg10
(lp1310
g1187
ag1246
asg26
I00
sg27
I00
sg28
I16519393
sg20
S'109841.404996'
p1311
sba(igraph
Edge
p1312
(dp1313
g7
I1
sg8
I00
sg9
I5
sg10
(lp1314
g1190
ag1246
asg26
I00
sg27
I00
sg28
I16519394
sg20
S'109841.414477'
p1315
sba(igraph
Edge
p1316
(dp1317
g7
I1
sg8
I00
sg9
I5
sg10
(lp1318
g1190
ag1249
asg26
I00
sg27
I00
sg28
I16519395
sg20
S'109841.42538'
p1319
sba(igraph
Edge
p1320
(dp1321
g7
I1
sg8
I00
sg9
I5
sg10
(lp1322
g1197
ag1249
asg26
I00
sg27
I00
sg28
I16519396
sg20
S'109841.434807'
p1323
sba(igraph
Edge
p1324
(dp1325
g7
I1
sg8
I00
sg9
I5
sg10
(lp1326
g1197
ag1256
asg26
I00
sg27
I00
sg28
I16519397
sg20
S'109841.444571'
p1327
sba(igraph
Edge
p1328
(dp1329
g7
I1
sg8
I00
sg9
I5
sg10
(lp1330
g1208
ag1256
asg26
I00
sg27
I00
sg28
I16519398
sg20
S'109841.454241'
p1331
sba(igraph
Edge
p1332
(dp1333
g7
I1
sg8
I00
sg9
I5
sg10
(lp1334
g1208
ag1267
asg26
I00
sg27
I00
sg28
I16519399
sg20
S'109841.464069'
p1335
sba(igraph
Edge
p1336
(dp1337
g7
I1
sg8
I00
sg9
I5
sg10
(lp1338
g1211
ag1267
asg26
I00
sg27
I00
sg28
I16519400
sg20
S'109841.473208'
p1339
sba(igraph
Edge
p1340
(dp1341
g7
I1
sg8
I00
sg9
I5
sg10
(lp1342
g1211
ag1270
asg26
I00
sg27
I00
sg28
I16519401
sg20
S'109841.485413'
p1343
sba(igraph
Edge
p1344
(dp1345
g7
I1
sg8
I00
sg9
I5
sg10
(lp1346
g1218
ag1270
asg26
I00
sg27
I00
sg28
I16519402
sg20
S'109841.494935'
p1347
sba(igraph
Edge
p1348
(dp1349
g7
I1
sg8
I00
sg9
I5
sg10
(lp1350
g1218
ag1277
asg26
I00
sg27
I00
sg28
I16519403
sg20
S'109841.50633'
p1351
sba(igraph
Edge
p1352
(dp1353
g7
I1
sg8
I00
sg9
I5
sg10
(lp1354
g1225
ag1277
asg26
I00
sg27
I00
sg28
I16519404
sg20
S'109841.515234'
p1355
sba(igraph
Edge
p1356
(dp1357
g7
I1
sg8
I00
sg9
I5
sg10
(lp1358
g1225
ag1284
asg26
I00
sg27
I00
sg28
I16519405
sg20
S'109841.524181'
p1359
sba(igraph
Edge
p1360
(dp1361
g7
I1
sg8
I00
sg9
I5
sg10
(lp1362
(igraph
Vertex
p1363
(dp1364
g17
F12.497137875277588
sg18
F297.31715598650931
sg19
I16519636
sg8
I00
sg20
S'109840.700684'
p1365
sg15
g16
sba(igraph
Vertex
p1366
(dp1367
g17
F43.702001398850769
sg18
F299.31715598650931
sg19
I16519637
sg8
I00
sg20
S'109840.70225'
p1368
sg15
g16
sbasg26
I00
sg27
I00
sg28
I16519406
sg20
S'109841.533659'
p1369
sba(igraph
Edge
p1370
(dp1371
g7
I1
sg8
I00
sg9
I5
sg10
(lp1372
g1225
ag1363
asg26
I00
sg27
I00
sg28
I16519407
sg20
S'109841.543903'
p1373
sba(igraph
Edge
p1374
(dp1375
g7
I1
sg8
I00
sg9
I5
sg10
(lp1376
g1284
ag1363
asg26
I00
sg27
I00
sg28
I16519408
sg20
S'109841.55277'
p1377
sba(igraph
Edge
p1378
(dp1379
g7
I1
sg8
I00
sg9
I5
sg10
(lp1380
g1284
ag1366
asg26
I00
sg27
I00
sg28
I16519409
sg20
S'109841.563163'
p1381
sba(igraph
Edge
p1382
(dp1383
g7
I1
sg8
I00
sg9
I5
sg10
(lp1384
g1013
ag1177
asg26
I00
sg27
I00
sg28
I16519410
sg20
S'109841.574795'
p1385
sba(igraph
Edge
p1386
(dp1387
g7
I1
sg8
I00
sg9
I5
sg10
(lp1388
g1016
ag1177
asg26
I00
sg27
I00
sg28
I16519411
sg20
S'109841.591621'
p1389
sba(igraph
Edge
p1390
(dp1391
g7
I1
sg8
I00
sg9
I5
sg10
(lp1392
g1016
ag1180
asg26
I00
sg27
I00
sg28
I16519412
sg20
S'109841.601324'
p1393
sba(igraph
Edge
p1394
(dp1395
g7
I1
sg8
I00
sg9
I5
sg10
(lp1396
g1023
ag1180
asg26
I00
sg27
I00
sg28
I16519413
sg20
S'109841.614429'
p1397
sba(igraph
Edge
p1398
(dp1399
g7
I1
sg8
I00
sg9
I5
sg10
(lp1400
g1023
ag1187
asg26
I00
sg27
I00
sg28
I16519414
sg20
S'109841.630368'
p1401
sba(igraph
Edge
p1402
(dp1403
g7
I1
sg8
I00
sg9
I5
sg10
(lp1404
g1026
ag1187
asg26
I00
sg27
I00
sg28
I16519415
sg20
S'109841.659844'
p1405
sba(igraph
Edge
p1406
(dp1407
g7
I1
sg8
I00
sg9
I5
sg10
(lp1408
g1026
ag1190
asg26
I00
sg27
I00
sg28
I16519416
sg20
S'109841.673969'
p1409
sba(igraph
Edge
p1410
(dp1411
g7
I1
sg8
I00
sg9
I5
sg10
(lp1412
g1033
ag1190
asg26
I00
sg27
I00
sg28
I16519417
sg20
S'109841.684525'
p1413
sba(igraph
Edge
p1414
(dp1415
g7
I1
sg8
I00
sg9
I5
sg10
(lp1416
g1033
ag1197
asg26
I00
sg27
I00
sg28
I16519418
sg20
S'109841.694926'
p1417
sba(igraph
Edge
p1418
(dp1419
g7
I1
sg8
I00
sg9
I5
sg10
(lp1420
g1044
ag1197
asg26
I00
sg27
I00
sg28
I16519419
sg20
S'109841.726134'
p1421
sba(igraph
Edge
p1422
(dp1423
g7
I1
sg8
I00
sg9
I5
sg10
(lp1424
g1044
ag1208
asg26
I00
sg27
I00
sg28
I16519420
sg20
S'109841.759516'
p1425
sba(igraph
Edge
p1426
(dp1427
g7
I1
sg8
I00
sg9
I5
sg10
(lp1428
g1047
ag1208
asg26
I00
sg27
I00
sg28
I16519421
sg20
S'109841.77877'
p1429
sba(igraph
Edge
p1430
(dp1431
g7
I1
sg8
I00
sg9
I5
sg10
(lp1432
g1047
ag1211
asg26
I00
sg27
I00
sg28
I16519422
sg20
S'109841.794521'
p1433
sba(igraph
Edge
p1434
(dp1435
g7
I1
sg8
I00
sg9
I5
sg10
(lp1436
g1054
ag1211
asg26
I00
sg27
I00
sg28
I16519423
sg20
S'109841.809301'
p1437
sba(igraph
Edge
p1438
(dp1439
g7
I1
sg8
I00
sg9
I5
sg10
(lp1440
g1054
ag1218
asg26
I00
sg27
I00
sg28
I16519424
sg20
S'109841.820457'
p1441
sba(igraph
Edge
p1442
(dp1443
g7
I1
sg8
I00
sg9
I5
sg10
(lp1444
g1061
ag1218
asg26
I00
sg27
I00
sg28
I16519425
sg20
S'109841.830916'
p1445
sba(igraph
Edge
p1446
(dp1447
g7
I1
sg8
I00
sg9
I5
sg10
(lp1448
g1061
ag1225
asg26
I00
sg27
I00
sg28
I16519426
sg20
S'109841.847388'
p1449
sba(igraph
Edge
p1450
(dp1451
g7
I1
sg8
I00
sg9
I5
sg10
(lp1452
g1150
ag1225
asg26
I00
sg27
I00
sg28
I16519427
sg20
S'109841.857669'
p1453
sba(igraph
Edge
p1454
(dp1455
g7
I1
sg8
I00
sg9
I5
sg10
(lp1456
g1150
ag1363
asg26
I00
sg27
I00
sg28
I16519428
sg20
S'109841.86912'
p1457
sba(igraph
Edge
p1458
(dp1459
g7
I1
sg8
I00
sg9
I5
sg10
(lp1460
(igraph
Vertex
p1461
(dp1462
g17
F-81.702001398850769
sg18
F-179.31715598650919
sg19
I16519638
sg8
I00
sg20
S'109840.70441'
p1463
sg15
g16
sba(igraph
Vertex
p1464
(dp1465
g17
F-81.702001398850769
sg18
F-136.41900106801575
sg19
I16519639
sg8
I00
sg20
S'109840.705838'
p1466
sg15
g16
sbasg26
I00
sg27
I00
sg28
I16519429
sg20
S'109841.880068'
p1467
sba(igraph
Edge
p1468
(dp1469
g7
I1
sg8
I00
sg9
I5
sg10
(lp1470
(igraph
Vertex
p1471
(dp1472
g17
F-50.497137875277588
sg18
F-177.31715598650925
sg19
I16519640
sg8
I00
sg20
S'109840.707405'
p1473
sg15
g16
sba(igraph
Vertex
p1474
(dp1475
g17
F-50.497137875277588
sg18
F-134.41900106801575
sg19
I16519642
sg8
I01
sg20
S'109840.708877'
p1476
sg15
I0
sbasg26
I00
sg27
I00
sg28
I16519430
sg20
S'109841.892213'
p1477
sba(igraph
Edge
p1478
(dp1479
g7
I1
sg8
I00
sg9
I5
sg10
(lp1480
g1461
ag1471
asg26
I00
sg27
I00
sg28
I16519431
sg20
S'109841.903066'
p1481
sba(igraph
Edge
p1482
(dp1483
g7
I1
sg8
I00
sg9
I5
sg10
(lp1484
g1464
ag1471
asg26
I00
sg27
I00
sg28
I16519432
sg20
S'109841.919681'
p1485
sba(igraph
Edge
p1486
(dp1487
g7
I1
sg8
I00
sg9
I5
sg10
(lp1488
g1464
ag1474
asg26
I00
sg27
I00
sg28
I16519433
sg20
S'109841.932718'
p1489
sba(igraph
Edge
p1490
(dp1491
g7
I1
sg8
I00
sg9
I5
sg10
(lp1492
(igraph
Vertex
p1493
(dp1494
g17
F-18.027212316964949
sg18
F-181.31715598650931
sg19
I16519644
sg8
I00
sg20
S'109840.710375'
p1495
sg15
g16
sba(igraph
Vertex
p1496
(dp1497
g17
F-18.027212316964949
sg18
F-138.41900106801575
sg19
I16519645
sg8
I00
sg20
S'109840.711937'
p1498
sg15
g16
sbasg26
I00
sg27
I00
sg28
I16519434
sg20
S'109841.945637'
p1499
sba(igraph
Edge
p1500
(dp1501
g7
I1
sg8
I00
sg9
I5
sg10
(lp1502
g1471
ag1493
asg26
I00
sg27
I00
sg28
I16519435
sg20
S'109841.957217'
p1503
sba(igraph
Edge
p1504
(dp1505
g7
I1
sg8
I00
sg9
I5
sg10
(lp1506
g1474
ag1493
asg26
I00
sg27
I00
sg28
I16519436
sg20
S'109841.967399'
p1507
sba(igraph
Edge
p1508
(dp1509
g7
I1
sg8
I00
sg9
I5
sg10
(lp1510
g1474
ag1496
asg26
I00
sg27
I00
sg28
I16519437
sg20
S'109841.978354'
p1511
sba(igraph
Edge
p1512
(dp1513
g7
I1
sg8
I00
sg9
I5
sg10
(lp1514
(igraph
Vertex
p1515
(dp1516
g17
F8.8612140689056673
sg18
F-178.15124816188865
sg19
I16519647
sg8
I01
sg20
S'109840.713614'
p1517
sg15
I0
sba(igraph
Vertex
p1518
(dp1519
g17
F8.8612140689056673
sg18
F-135.25309324339514
sg19
I16519649
sg8
I00
sg20
S'109840.715438'
p1520
sg15
g16
sbasg26
I00
sg27
I00
sg28
I16519438
sg20
S'109841.989925'
p1521
sba(igraph
Edge
p1522
(dp1523
g7
I1
sg8
I00
sg9
I5
sg10
(lp1524
(igraph
Vertex
p1525
(dp1526
g17
F39.850986750859477
sg18
F-177.03007639123103
sg19
I16519650
sg8
I00
sg20
S'109840.717536'
p1527
sg15
g16
sba(igraph
Vertex
p1528
(dp1529
g17
F40.066077592478848
sg18
F-133.25309324339514
sg19
I16519651
sg8
I00
sg20
S'109840.719498'
p1530
sg15
g16
sbasg26
I00
sg27
I00
sg28
I16519439
sg20
S'109842.003464'
p1531
sba(igraph
Edge
p1532
(dp1533
g7
I1
sg8
I00
sg9
I5
sg10
(lp1534
g1515
ag1525
asg26
I00
sg27
I00
sg28
I16519440
sg20
S'109842.015194'
p1535
sba(igraph
Edge
p1536
(dp1537
g7
I1
sg8
I00
sg9
I5
sg10
(lp1538
g1518
ag1525
asg26
I00
sg27
I00
sg28
I16519441
sg20
S'109842.03678'
p1539
sba(igraph
Edge
p1540
(dp1541
g7
I1
sg8
I00
sg9
I5
sg10
(lp1542
g1518
ag1528
asg26
I00
sg27
I00
sg28
I16519442
sg20
S'109842.059286'
p1543
sba(igraph
Edge
p1544
(dp1545
g7
I1
sg8
I00
sg9
I5
sg10
(lp1546
g1493
ag1515
asg26
I00
sg27
I00
sg28
I16519443
sg20
S'109842.080973'
p1547
sba(igraph
Edge
p1548
(dp1549
g7
I1
sg8
I00
sg9
I5
sg10
(lp1550
g1496
ag1515
asg26
I00
sg27
I00
sg28
I16519444
sg20
S'109842.098388'
p1551
sba(igraph
Edge
p1552
(dp1553
g7
I1
sg8
I00
sg9
I5
sg10
(lp1554
g1496
ag1518
asg26
I00
sg27
I00
sg28
I16519445
sg20
S'109842.116405'
p1555
sba(igraph
Edge
p1556
(dp1557
g7
I1
sg8
I00
sg9
I5
sg10
(lp1558
g1236
ag1528
asg26
I00
sg27
I00
sg28
I16519446
sg20
S'109842.130353'
p1559
sba(igraph
Edge
p1560
(dp1561
g7
I1
sg8
I00
sg9
I5
sg10
(lp1562
g1528
ag1177
asg26
I00
sg27
I00
sg28
I16519447
sg20
S'109842.14201'
p1563
sba(igraph
Edge
p1564
(dp1565
g7
I1
sg8
I00
sg9
I5
sg10
(lp1566
g1177
ag1518
asg26
I00
sg27
I00
sg28
I16519448
sg20
S'109842.153599'
p1567
sba(igraph
Edge
p1568
(dp1569
g7
I1
sg8
I00
sg9
I5
sg10
(lp1570
g1518
ag1013
asg26
I00
sg27
I00
sg28
I16519449
sg20
S'109842.165213'
p1571
sba(igraph
Edge
p1572
(dp1573
g7
I1
sg8
I00
sg9
I5
sg10
(lp1574
g1013
ag1496
asg26
I00
sg27
I00
sg28
I16519450
sg20
S'109842.177046'
p1575
sba(igraph
Edge
p1576
(dp1577
g7
I1
sg8
I00
sg9
I5
sg10
(lp1578
g1496
ag886
asg26
I00
sg27
I00
sg28
I16519451
sg20
S'109842.187718'
p1579
sba(igraph
Edge
p1580
(dp1581
g7
I1
sg8
I00
sg9
I5
sg10
(lp1582
g886
ag1474
asg26
I00
sg27
I00
sg28
I16519452
sg20
S'109842.198362'
p1583
sba(igraph
Edge
p1584
(dp1585
g7
I1
sg8
I00
sg9
I5
sg10
(lp1586
g1474
ag827
asg26
I00
sg27
I00
sg28
I16519453
sg20
S'109842.20957'
p1587
sba(igraph
Edge
p1588
(dp1589
g7
I1
sg8
I00
sg9
I5
sg10
(lp1590
g827
ag1464
asg26
I00
sg27
I00
sg28
I16519454
sg20
S'109842.220424'
p1591
sba(igraph
Edge
p1592
(dp1593
g7
I1
sg8
I00
sg9
I5
sg10
(lp1594
g1140
ag1461
asg26
I00
sg27
I00
sg28
I16519455
sg20
S'109842.232551'
p1595
sba(igraph
Edge
p1596
(dp1597
g7
I1
sg8
I00
sg9
I5
sg10
(lp1598
g1143
ag1461
asg26
I00
sg27
I00
sg28
I16519456
sg20
S'109842.243951'
p1599
sba(igraph
Edge
p1600
(dp1601
g7
I1
sg8
I00
sg9
I5
sg10
(lp1602
g1143
ag1471
asg26
I00
sg27
I00
sg28
I16519457
sg20
S'109842.253594'
p1603
sba(igraph
Edge
p1604
(dp1605
g7
I1
sg8
I00
sg9
I5
sg10
(lp1606
g1150
ag1471
asg26
I00
sg27
I00
sg28
I16519458
sg20
S'109842.263465'
p1607
sba(igraph
Edge
p1608
(dp1609
g7
I1
sg8
I00
sg9
I5
sg10
(lp1610
g1150
ag1493
asg26
I00
sg27
I00
sg28
I16519459
sg20
S'109842.273149'
p1611
sba(igraph
Edge
p1612
(dp1613
g7
I1
sg8
I00
sg9
I5
sg10
(lp1614
g1363
ag1493
asg26
I00
sg27
I00
sg28
I16519460
sg20
S'109842.28279'
p1615
sba(igraph
Edge
p1616
(dp1617
g7
I1
sg8
I00
sg9
I5
sg10
(lp1618
g1363
ag1515
asg26
I00
sg27
I00
sg28
I16519461
sg20
S'109842.292411'
p1619
sba(igraph
Edge
p1620
(dp1621
g7
I1
sg8
I00
sg9
I5
sg10
(lp1622
g1366
ag1515
asg26
I00
sg27
I00
sg28
I16519462
sg20
S'109842.302634'
p1623
sba(igraph
Edge
p1624
(dp1625
g7
I1
sg8
I00
sg9
I5
sg10
(lp1626
g1366
ag1525
asg26
I00
sg27
I00
sg28
I16519463
sg20
S'109842.312369'
p1627
sba(igraph
Edge
p1628
(dp1629
g7
I1
sg8
I00
sg9
I5
sg10
(lp1630
g657
ag1525
asg26
I00
sg27
I00
sg28
I16519464
sg20
S'109851.681112'
p1631
sba(igraph
Edge
p1632
(dp1633
g7
I1
sg8
I00
sg9
I5
sg10
(lp1634
g657
ag1528
asg26
I00
sg27
I00
sg28
I16519465
sg20
S'109853.858352'
p1635
sba(igraph
Edge
p1636
(dp1637
g7
I1
sg8
I00
sg9
I5
sg10
(lp1638
g1528
ag660
asg26
I00
sg27
I00
sg28
I16519466
sg20
S'109855.715717'
p1639
sba(igraph
Edge
p1640
(dp1641
g7
I1
sg8
I00
sg9
I5
sg10
(lp1642
g660
ag1236
asg26
I00
sg27
I00
sg28
I16519467
sg20
S'109857.269236'
p1643
sba(igraph
Edge
p1644
(dp1645
g7
I1
sg8
I00
sg9
I5
sg10
(lp1646
g1236
ag12
asg26
I00
sg27
I00
sg28
I16519468
sg20
S'109858.913248'
p1647
sba(igraph
Edge
p1648
(dp1649
g7
I1
sg8
I00
sg9
I5
sg10
(lp1650
g12
ag1239
asg26
I00
sg27
I00
sg28
I16519469
sg20
S'109860.622268'
p1651
sba(igraph
Edge
p1652
(dp1653
g7
I1
sg8
I00
sg9
I5
sg10
(lp1654
g1239
ag23
asg26
I00
sg27
I00
sg28
I16519470
sg20
S'109862.432982'
p1655
sba(igraph
Edge
p1656
(dp1657
g7
I1
sg8
I00
sg9
I5
sg10
(lp1658
g23
ag1246
asg26
I00
sg27
I00
sg28
I16519471
sg20
S'109865.36557'
p1659
sba(igraph
Edge
p1660
(dp1661
g7
I1
sg8
I00
sg9
I5
sg10
(lp1662
g1246
ag33
asg26
I00
sg27
I00
sg28
I16519472
sg20
S'109866.786642'
p1663
sba(igraph
Edge
p1664
(dp1665
g7
I1
sg8
I00
sg9
I5
sg10
(lp1666
g33
ag1249
asg26
I00
sg27
I00
sg28
I16519473
sg20
S'109868.698894'
p1667
sba(igraph
Edge
p1668
(dp1669
g7
I1
sg8
I00
sg9
I5
sg10
(lp1670
g1249
ag36
asg26
I00
sg27
I00
sg28
I16519474
sg20
S'109870.501952'
p1671
sba(igraph
Edge
p1672
(dp1673
g7
I1
sg8
I00
sg9
I5
sg10
(lp1674
g36
ag1256
asg26
I00
sg27
I00
sg28
I16519475
sg20
S'109872.335014'
p1675
sba(igraph
Edge
p1676
(dp1677
g7
I1
sg8
I00
sg9
I5
sg10
(lp1678
g1256
ag43
asg26
I00
sg27
I00
sg28
I16519476
sg20
S'109874.358695'
p1679
sba(igraph
Edge
p1680
(dp1681
g7
I1
sg8
I00
sg9
I5
sg10
(lp1682
g43
ag1267
asg26
I00
sg27
I00
sg28
I16519477
sg20
S'109889.121316'
p1683
sba(igraph
Edge
p1684
(dp1685
g7
I1
sg8
I00
sg9
I5
sg10
(lp1686
g1267
ag54
asg26
I00
sg27
I00
sg28
I16519478
sg20
S'109891.196414'
p1687
sba(igraph
Edge
p1688
(dp1689
g7
I1
sg8
I00
sg9
I5
sg10
(lp1690
g54
ag1270
asg26
I00
sg27
I00
sg28
I16519479
sg20
S'109893.154871'
p1691
sba(igraph
Edge
p1692
(dp1693
g7
I1
sg8
I00
sg9
I5
sg10
(lp1694
g1270
ag57
asg26
I00
sg27
I00
sg28
I16519480
sg20
S'109904.03049'
p1695
sba(igraph
Edge
p1696
(dp1697
g7
I1
sg8
I00
sg9
I5
sg10
(lp1698
g57
ag1277
asg26
I00
sg27
I00
sg28
I16519481
sg20
S'109906.232085'
p1699
sba(igraph
Edge
p1700
(dp1701
g7
I1
sg8
I00
sg9
I5
sg10
(lp1702
g1277
ag64
asg26
I00
sg27
I00
sg28
I16519482
sg20
S'109908.608883'
p1703
sba(igraph
Edge
p1704
(dp1705
g7
I1
sg8
I00
sg9
I5
sg10
(lp1706
g64
ag1284
asg26
I00
sg27
I00
sg28
I16519483
sg20
S'109910.613893'
p1707
sba(igraph
Edge
p1708
(dp1709
g7
I1
sg8
I00
sg9
I5
sg10
(lp1710
g1284
ag71
asg26
I00
sg27
I00
sg28
I16519484
sg20
S'109912.733751'
p1711
sba(igraph
Edge
p1712
(dp1713
g7
I1
sg8
I00
sg9
I5
sg10
(lp1714
g71
ag1366
asg26
I00
sg27
I00
sg28
I16519485
sg20
S'109914.648627'
p1715
sba(igraph
Edge
p1716
(dp1717
g7
I1
sg8
I00
sg9
I5
sg10
(lp1718
g1366
ag336
asg26
I00
sg27
I00
sg28
I16519486
sg20
S'109915.957124'
p1719
sba(igraph
Edge
p1720
(dp1721
g7
I1
sg8
I00
sg9
I5
sg10
(lp1722
g336
ag1525
asg26
I00
sg27
I00
sg28
I16519487
sg20
S'109919.066122'
p1723
sba(igraph
Edge
p1724
(dp1725
g7
I1
sg8
I00
sg9
I5
sg10
(lp1726
g721
ag1461
asg26
I00
sg27
I00
sg28
I16519488
sg20
S'109932.862912'
p1727
sba(igraph
Edge
p1728
(dp1729
g7
I1
sg8
I00
sg9
I5
sg10
(lp1730
g1461
ag724
asg26
I00
sg27
I00
sg28
I16519489
sg20
S'109935.524525'
p1731
sba(igraph
Edge
p1732
(dp1733
g7
I1
sg8
I00
sg9
I5
sg10
(lp1734
g724
ag1464
asg26
I00
sg27
I00
sg28
I16519490
sg20
S'109937.232137'
p1735
sba(igraph
Edge
p1736
(dp1737
g7
I1
sg8
I00
sg9
I5
sg10
(lp1738
g1464
ag432
asg26
I00
sg27
I00
sg28
I16519491
sg20
S'109939.971398'
p1739
sba(igraph
Edge
p1740
(dp1741
g7
I1
sg8
I00
sg9
I5
sg10
(lp1742
g432
ag827
asg26
I00
sg27
I00
sg28
I16519492
sg20
S'109942.654066'
p1743
sba(igraph
Edge
p1744
(dp1745
g7
I1
sg8
I00
sg9
I5
sg10
(lp1746
g827
ag435
asg26
I00
sg27
I00
sg28
I16519493
sg20
S'109945.058803'
p1747
sba(igraph
Edge
p1748
(dp1749
g7
I1
sg8
I00
sg9
I5
sg10
(lp1750
g435
ag830
asg26
I00
sg27
I00
sg28
I16519494
sg20
S'109947.386252'
p1751
sba(igraph
Edge
p1752
(dp1753
g7
I1
sg8
I00
sg9
I5
sg10
(lp1754
g830
ag442
asg26
I00
sg27
I00
sg28
I16519495
sg20
S'109949.554574'
p1755
sba(igraph
Edge
p1756
(dp1757
g7
I1
sg8
I00
sg9
I5
sg10
(lp1758
g442
ag837
asg26
I00
sg27
I00
sg28
I16519496
sg20
S'109952.01223'
p1759
sba(igraph
Edge
p1760
(dp1761
g7
I1
sg8
I00
sg9
I5
sg10
(lp1762
g837
ag445
asg26
I00
sg27
I00
sg28
I16519497
sg20
S'109954.208607'
p1763
sba(igraph
Edge
p1764
(dp1765
g7
I1
sg8
I00
sg9
I5
sg10
(lp1766
g445
ag840
asg26
I00
sg27
I00
sg28
I16519498
sg20
S'109956.06731'
p1767
sba(igraph
Edge
p1768
(dp1769
g7
I1
sg8
I00
sg9
I5
sg10
(lp1770
g452
ag840
asg26
I00
sg27
I00
sg28
I16519499
sg20
S'109963.530859'
p1771
sba(igraph
Edge
p1772
(dp1773
g7
I1
sg8
I00
sg9
I5
sg10
(lp1774
g847
ag452
asg26
I00
sg27
I00
sg28
I16519500
sg20
S'109967.333776'
p1775
sba(igraph
Edge
p1776
(dp1777
g7
I1
sg8
I00
sg9
I5
sg10
(lp1778
g847
ag463
asg26
I00
sg27
I00
sg28
I16519501
sg20
S'109971.006735'
p1779
sba(igraph
Edge
p1780
(dp1781
g7
I1
sg8
I00
sg9
I5
sg10
(lp1782
g463
ag858
asg26
I00
sg27
I00
sg28
I16519502
sg20
S'109973.933225'
p1783
sba(igraph
Edge
p1784
(dp1785
g7
I1
sg8
I00
sg9
I5
sg10
(lp1786
g858
ag466
asg26
I00
sg27
I00
sg28
I16519503
sg20
S'109977.16482'
p1787
sba(igraph
Edge
p1788
(dp1789
g7
I1
sg8
I00
sg9
I5
sg10
(lp1790
g466
ag861
asg26
I00
sg27
I00
sg28
I16519504
sg20
S'109979.310294'
p1791
sba(igraph
Edge
p1792
(dp1793
g7
I1
sg8
I00
sg9
I5
sg10
(lp1794
g861
ag473
asg26
I00
sg27
I00
sg28
I16519505
sg20
S'109982.018926'
p1795
sba(igraph
Edge
p1796
(dp1797
g7
I1
sg8
I00
sg9
I5
sg10
(lp1798
g473
ag868
asg26
I00
sg27
I00
sg28
I16519506
sg20
S'109984.508809'
p1799
sba(igraph
Edge
p1800
(dp1801
g7
I1
sg8
I00
sg9
I5
sg10
(lp1802
g868
ag480
asg26
I00
sg27
I00
sg28
I16519507
sg20
S'109986.678976'
p1803
sba(igraph
Edge
p1804
(dp1805
g7
I1
sg8
I00
sg9
I5
sg10
(lp1806
g480
ag875
asg26
I00
sg27
I00
sg28
I16519508
sg20
S'109989.176232'
p1807
sba(igraph
Edge
p1808
(dp1809
g7
I1
sg8
I00
sg9
I5
sg10
(lp1810
g875
ag562
asg26
I00
sg27
I00
sg28
I16519509
sg20
S'109991.858895'
p1811
sba(igraph
Edge
p1812
(dp1813
g7
I1
sg8
I00
sg9
I5
sg10
(lp1814
g562
ag1140
asg26
I00
sg27
I00
sg28
I16519510
sg20
S'109993.912246'
p1815
sba(igraph
Edge
p1816
(dp1817
g7
I1
sg8
I00
sg9
I5
sg10
(lp1818
g1140
ag721
asg26
I00
sg27
I00
sg28
I16519511
sg20
S'109997.691144'
p1819
sbasS'vertices'
p1820
(lp1821
g12
ag23
ag33
ag36
ag43
ag54
ag57
ag64
ag71
ag82
ag85
ag92
ag95
ag102
ag113
ag116
ag123
ag130
ag209
ag212
ag219
ag222
ag229
ag240
ag243
ag250
ag257
ag336
ag339
ag346
ag373
ag376
ag383
ag386
ag393
ag404
ag407
ag414
ag421
ag432
ag435
ag442
ag445
ag452
ag463
ag466
ag473
ag480
ag559
ag562
ag657
ag660
ag667
ag670
ag689
ag692
ag711
ag714
ag721
ag724
ag827
ag830
ag837
ag840
ag847
ag858
ag861
ag868
ag875
ag886
ag889
ag896
ag899
ag906
ag917
ag920
ag927
ag934
ag1013
ag1016
ag1023
ag1026
ag1033
ag1044
ag1047
ag1054
ag1061
ag1140
ag1143
ag1150
ag1177
ag1180
ag1187
ag1190
ag1197
ag1208
ag1211
ag1218
ag1225
ag1236
ag1239
ag1246
ag1249
ag1256
ag1267
ag1270
ag1277
ag1284
ag1363
ag1366
ag1461
ag1464
ag1471
ag1474
ag1493
ag1496
ag1515
ag1518
ag1525
ag1528
asS'tags'
p1822
(lp1823
sb.