(igraph
Graph
p0
(dp1
S'labelingConstraints'
p2
I-1
sS'edges'
p3
(lp4
(igraph
Edge
p5
(dp6
S'direction'
p7
I1
sS'selected'
p8
I00
sS'height'
p9
I5
sS'vs'
p10
(lp11
(igraph
Vertex
p12
(dp13
S'y'
p14
F-26.615288932861148
sS'x'
p15
F-162.68957117481725
sS'circle'
p16
I15118549
sg8
I00
sS'id'
p17
S'104678.011722'
p18
sS'label'
p19
S'NULL'
p20
sba(igraph
Vertex
p21
(dp22
g14
F-26.615288932861148
sg15
F-119.79141625632374
sg16
I15118550
sg8
I00
sg17
S'104678.011757'
p23
sg19
g20
sbasS'wrap'
p24
I00
sS'curved'
p25
I00
sS'line'
p26
I15118081
sg17
S'104678.350058'
p27
sba(igraph
Edge
p28
(dp29
g7
I1
sg8
I00
sg9
I5
sg10
(lp30
(igraph
Vertex
p31
(dp32
g14
F8.5702109929864037
sg15
F-162.68957117481725
sg16
I15118551
sg8
I00
sg17
S'104678.011788'
p33
sg19
g20
sba(igraph
Vertex
p34
(dp35
g14
F8.5702109929864037
sg15
F-119.79141625632374
sg16
I15118552
sg8
I00
sg17
S'104678.011826'
p36
sg19
g20
sbasg24
I00
sg25
I00
sg26
I15118082
sg17
S'104678.350147'
p37
sba(igraph
Edge
p38
(dp39
g7
I1
sg8
I00
sg9
I5
sg10
(lp40
(igraph
Vertex
p41
(dp42
g14
F43.755710918834041
sg15
F-162.68957117481725
sg16
I15118553
sg8
I00
sg17
S'104678.01187'
p43
sg19
g20
sba(igraph
Vertex
p44
(dp45
g14
F43.755710918834041
sg15
F-119.79141625632374
sg16
I15118554
sg8
I00
sg17
S'104678.011931'
p46
sg19
g20
sbasg24
I00
sg25
I00
sg26
I15118083
sg17
S'104678.350281'
p47
sba(igraph
Edge
p48
(dp49
g7
I1
sg8
I00
sg9
I5
sg10
(lp50
g12
ag31
asg24
I00
sg25
I00
sg26
I15118084
sg17
S'104678.35042'
p51
sba(igraph
Edge
p52
(dp53
g7
I1
sg8
I00
sg9
I5
sg10
(lp54
g21
ag34
asg24
I00
sg25
I00
sg26
I15118085
sg17
S'104678.350598'
p55
sba(igraph
Edge
p56
(dp57
g7
I1
sg8
I00
sg9
I5
sg10
(lp58
g31
ag41
asg24
I00
sg25
I00
sg26
I15118086
sg17
S'104678.350798'
p59
sba(igraph
Edge
p60
(dp61
g7
I1
sg8
I00
sg9
I5
sg10
(lp62
g34
ag44
asg24
I00
sg25
I00
sg26
I15118087
sg17
S'104678.351039'
p63
sba(igraph
Edge
p64
(dp65
g7
I1
sg8
I00
sg9
I5
sg10
(lp66
g21
ag31
asg24
I00
sg25
I00
sg26
I15118088
sg17
S'104678.351301'
p67
sba(igraph
Edge
p68
(dp69
g7
I1
sg8
I00
sg9
I5
sg10
(lp70
g34
ag41
asg24
I00
sg25
I00
sg26
I15118089
sg17
S'104678.351603'
p71
sba(igraph
Edge
p72
(dp73
g7
I1
sg8
I00
sg9
I5
sg10
(lp74
(igraph
Vertex
p75
(dp76
g14
F-26.654144086153565
sg15
F-73.498253985384991
sg16
I15118555
sg8
I00
sg17
S'104678.01201'
p77
sg19
g20
sba(igraph
Vertex
p78
(dp79
g14
F-26.654144086153565
sg15
F-30.600099066891488
sg16
I15118556
sg8
I00
sg17
S'104678.012086'
p80
sg19
g20
sbasg24
I00
sg25
I00
sg26
I15118090
sg17
S'104678.351929'
p81
sba(igraph
Edge
p82
(dp83
g7
I1
sg8
I00
sg9
I5
sg10
(lp84
g78
a(igraph
Vertex
p85
(dp86
g14
F-26.654144086153565
sg15
F12.298055851602072
sg16
I15118557
sg8
I00
sg17
S'104678.01218'
p87
sg19
I0
sbasg24
I00
sg25
I00
sg26
I15118091
sg17
S'104678.352337'
p88
sba(igraph
Edge
p89
(dp90
g7
I1
sg8
I00
sg9
I5
sg10
(lp91
(igraph
Vertex
p92
(dp93
g14
F8.5313558396940152
sg15
F-73.498253985384991
sg16
I15118559
sg8
I00
sg17
S'104678.012294'
p94
sg19
I0
sba(igraph
Vertex
p95
(dp96
g14
F8.5313558396940152
sg15
F-30.600099066891488
sg16
I15118561
sg8
I00
sg17
S'104678.012406'
p97
sg19
g20
sbasg24
I00
sg25
I00
sg26
I15118092
sg17
S'104678.352746'
p98
sba(igraph
Edge
p99
(dp100
g7
I1
sg8
I00
sg9
I5
sg10
(lp101
g95
a(igraph
Vertex
p102
(dp103
g14
F8.5313558396940152
sg15
F12.298055851602072
sg16
I15118562
sg8
I00
sg17
S'104678.012545'
p104
sg19
g20
sbasg24
I00
sg25
I00
sg26
I15118093
sg17
S'104678.353184'
p105
sba(igraph
Edge
p106
(dp107
g7
I1
sg8
I00
sg9
I5
sg10
(lp108
(igraph
Vertex
p109
(dp110
g14
F43.716855765541652
sg15
F-73.498253985384991
sg16
I15118563
sg8
I00
sg17
S'104678.012682'
p111
sg19
g20
sba(igraph
Vertex
p112
(dp113
g14
F43.716855765541652
sg15
F-30.600099066891488
sg16
I15118564
sg8
I00
sg17
S'104678.012838'
p114
sg19
g20
sbasg24
I00
sg25
I00
sg26
I15118094
sg17
S'104678.353635'
p115
sba(igraph
Edge
p116
(dp117
g7
I1
sg8
I00
sg9
I5
sg10
(lp118
g112
a(igraph
Vertex
p119
(dp120
g14
F43.716855765541652
sg15
F12.298055851602072
sg16
I15118565
sg8
I00
sg17
S'104678.013'
p121
sg19
g20
sbasg24
I00
sg25
I00
sg26
I15118095
sg17
S'104678.354125'
p122
sba(igraph
Edge
p123
(dp124
g7
I1
sg8
I00
sg9
I5
sg10
(lp125
g75
ag92
asg24
I00
sg25
I00
sg26
I15118096
sg17
S'104678.354694'
p126
sba(igraph
Edge
p127
(dp128
g7
I1
sg8
I00
sg9
I5
sg10
(lp129
g78
ag95
asg24
I00
sg25
I00
sg26
I15118097
sg17
S'104678.355236'
p130
sba(igraph
Edge
p131
(dp132
g7
I1
sg8
I00
sg9
I5
sg10
(lp133
g92
ag109
asg24
I00
sg25
I00
sg26
I15118098
sg17
S'104678.35581'
p134
sba(igraph
Edge
p135
(dp136
g7
I1
sg8
I00
sg9
I5
sg10
(lp137
g95
ag112
asg24
I00
sg25
I00
sg26
I15118099
sg17
S'104678.356437'
p138
sba(igraph
Edge
p139
(dp140
g7
I1
sg8
I00
sg9
I5
sg10
(lp141
g102
ag119
asg24
I00
sg25
I00
sg26
I15118100
sg17
S'104678.357071'
p142
sba(igraph
Edge
p143
(dp144
g7
I1
sg8
I00
sg9
I5
sg10
(lp145
g78
ag92
asg24
I00
sg25
I00
sg26
I15118101
sg17
S'104678.357746'
p146
sba(igraph
Edge
p147
(dp148
g7
I1
sg8
I00
sg9
I5
sg10
(lp149
g95
ag109
asg24
I00
sg25
I00
sg26
I15118102
sg17
S'104678.35848'
p150
sba(igraph
Edge
p151
(dp152
g7
I1
sg8
I00
sg9
I5
sg10
(lp153
g85
ag95
asg24
I00
sg25
I00
sg26
I15118103
sg17
S'104678.359208'
p154
sba(igraph
Edge
p155
(dp156
g7
I1
sg8
I00
sg9
I5
sg10
(lp157
g102
ag112
asg24
I00
sg25
I00
sg26
I15118104
sg17
S'104678.359964'
p158
sba(igraph
Edge
p159
(dp160
g7
I1
sg8
I00
sg9
I5
sg10
(lp161
g21
ag75
asg24
I00
sg25
I00
sg26
I15118105
sg17
S'104678.360772'
p162
sba(igraph
Edge
p163
(dp164
g7
I1
sg8
I00
sg9
I5
sg10
(lp165
g34
ag75
asg24
I00
sg25
I00
sg26
I15118106
sg17
S'104678.361924'
p166
sba(igraph
Edge
p167
(dp168
g7
I1
sg8
I00
sg9
I5
sg10
(lp169
g34
ag92
asg24
I00
sg25
I00
sg26
I15118107
sg17
S'104678.362814'
p170
sba(igraph
Edge
p171
(dp172
g7
I1
sg8
I00
sg9
I5
sg10
(lp173
g44
ag92
asg24
I00
sg25
I00
sg26
I15118108
sg17
S'104678.363716'
p174
sba(igraph
Edge
p175
(dp176
g7
I1
sg8
I00
sg9
I5
sg10
(lp177
g44
ag109
asg24
I00
sg25
I00
sg26
I15118109
sg17
S'104678.364762'
p178
sba(igraph
Edge
p179
(dp180
g7
I1
sg8
I00
sg9
I5
sg10
(lp181
(igraph
Vertex
p182
(dp183
g14
F-26.757332645612536
sg15
F57.244193367060149
sg16
I15118566
sg8
I00
sg17
S'104678.01318'
p184
sg19
g20
sba(igraph
Vertex
p185
(dp186
g14
F-26.757332645612536
sg15
F100.14234828555371
sg16
I15118567
sg8
I00
sg17
S'104678.013371'
p187
sg19
g20
sbasg24
I00
sg25
I00
sg26
I15118110
sg17
S'104678.365765'
p188
sba(igraph
Edge
p189
(dp190
g7
I1
sg8
I00
sg9
I5
sg10
(lp191
g185
a(igraph
Vertex
p192
(dp193
g14
F-26.757332645612536
sg15
F143.04050320404721
sg16
I15118568
sg8
I00
sg17
S'104678.013567'
p194
sg19
g20
sbasg24
I00
sg25
I00
sg26
I15118111
sg17
S'104678.366774'
p195
sba(igraph
Edge
p196
(dp197
g7
I1
sg8
I00
sg9
I5
sg10
(lp198
(igraph
Vertex
p199
(dp200
g14
F8.4281672802350158
sg15
F57.244193367060149
sg16
I15118569
sg8
I00
sg17
S'104678.013782'
p201
sg19
g20
sba(igraph
Vertex
p202
(dp203
g14
F8.4281672802350158
sg15
F100.14234828555371
sg16
I15118570
sg8
I00
sg17
S'104678.014006'
p204
sg19
g20
sbasg24
I00
sg25
I00
sg26
I15118112
sg17
S'104678.367796'
p205
sba(igraph
Edge
p206
(dp207
g7
I1
sg8
I00
sg9
I5
sg10
(lp208
g202
a(igraph
Vertex
p209
(dp210
g14
F7.7981698962262271
sg15
F140.7148753850478
sg16
I15118571
sg8
I00
sg17
S'104678.014243'
p211
sg19
g20
sbasg24
I00
sg25
I00
sg26
I15118113
sg17
S'104678.368868'
p212
sba(igraph
Edge
p213
(dp214
g7
I1
sg8
I00
sg9
I5
sg10
(lp215
(igraph
Vertex
p216
(dp217
g14
F43.61366720608271
sg15
F57.244193367060149
sg16
I15118572
sg8
I00
sg17
S'104678.014512'
p218
sg19
g20
sba(igraph
Vertex
p219
(dp220
g14
F43.61366720608271
sg15
F100.14234828555371
sg16
I15118573
sg8
I00
sg17
S'104678.014773'
p221
sg19
g20
sbasg24
I00
sg25
I00
sg26
I15118114
sg17
S'104678.369995'
p222
sba(igraph
Edge
p223
(dp224
g7
I1
sg8
I00
sg9
I5
sg10
(lp225
g219
a(igraph
Vertex
p226
(dp227
g14
F43.61366720608271
sg15
F143.04050320404721
sg16
I15118574
sg8
I00
sg17
S'104678.015048'
p228
sg19
g20
sbasg24
I00
sg25
I00
sg26
I15118115
sg17
S'104678.371102'
p229
sba(igraph
Edge
p230
(dp231
g7
I1
sg8
I00
sg9
I5
sg10
(lp232
g182
ag199
asg24
I00
sg25
I00
sg26
I15118116
sg17
S'104678.372265'
p233
sba(igraph
Edge
p234
(dp235
g7
I1
sg8
I00
sg9
I5
sg10
(lp236
g185
ag202
asg24
I00
sg25
I00
sg26
I15118117
sg17
S'104678.373434'
p237
sba(igraph
Edge
p238
(dp239
g7
I1
sg8
I00
sg9
I5
sg10
(lp240
g192
ag209
asg24
I00
sg25
I00
sg26
I15118118
sg17
S'104678.374656'
p241
sba(igraph
Edge
p242
(dp243
g7
I1
sg8
I00
sg9
I5
sg10
(lp244
g199
ag216
asg24
I00
sg25
I00
sg26
I15118119
sg17
S'104678.375931'
p245
sba(igraph
Edge
p246
(dp247
g7
I1
sg8
I00
sg9
I5
sg10
(lp248
g202
ag219
asg24
I00
sg25
I00
sg26
I15118120
sg17
S'104678.377186'
p249
sba(igraph
Edge
p250
(dp251
g7
I1
sg8
I00
sg9
I5
sg10
(lp252
g209
ag226
asg24
I00
sg25
I00
sg26
I15118121
sg17
S'104678.378482'
p253
sba(igraph
Edge
p254
(dp255
g7
I1
sg8
I00
sg9
I5
sg10
(lp256
g185
ag199
asg24
I00
sg25
I00
sg26
I15118122
sg17
S'104678.379823'
p257
sba(igraph
Edge
p258
(dp259
g7
I1
sg8
I00
sg9
I5
sg10
(lp260
g202
ag216
asg24
I00
sg25
I00
sg26
I15118123
sg17
S'104678.381162'
p261
sba(igraph
Edge
p262
(dp263
g7
I1
sg8
I00
sg9
I5
sg10
(lp264
g192
ag202
asg24
I00
sg25
I00
sg26
I15118124
sg17
S'104678.382611'
p265
sba(igraph
Edge
p266
(dp267
g7
I1
sg8
I00
sg9
I5
sg10
(lp268
g209
ag219
asg24
I00
sg25
I00
sg26
I15118125
sg17
S'104678.384052'
p269
sba(igraph
Edge
p270
(dp271
g7
I1
sg8
I00
sg9
I5
sg10
(lp272
(igraph
Vertex
p273
(dp274
g14
F-26.796187798904896
sg15
F189.33366547498602
sg16
I15118575
sg8
I00
sg17
S'104678.015334'
p275
sg19
g20
sba(igraph
Vertex
p276
(dp277
g14
F8.3893121269426842
sg15
F189.33366547498602
sg16
I15118576
sg8
I00
sg17
S'104678.015629'
p278
sg19
g20
sbasg24
I00
sg25
I00
sg26
I15118126
sg17
S'104678.385489'
p279
sba(igraph
Edge
p280
(dp281
g7
I1
sg8
I00
sg9
I5
sg10
(lp282
g276
a(igraph
Vertex
p283
(dp284
g14
F43.574812052790321
sg15
F189.33366547498602
sg16
I15118577
sg8
I00
sg17
S'104678.015937'
p285
sg19
g20
sbasg24
I00
sg25
I00
sg26
I15118127
sg17
S'104678.386992'
p286
sba(igraph
Edge
p287
(dp288
g7
I1
sg8
I00
sg9
I5
sg10
(lp289
g192
ag273
asg24
I00
sg25
I00
sg26
I15118128
sg17
S'104678.388501'
p290
sba(igraph
Edge
p291
(dp292
g7
I1
sg8
I00
sg9
I5
sg10
(lp293
g209
ag273
asg24
I00
sg25
I00
sg26
I15118129
sg17
S'104678.390029'
p294
sba(igraph
Edge
p295
(dp296
g7
I1
sg8
I00
sg9
I5
sg10
(lp297
g209
ag276
asg24
I00
sg25
I00
sg26
I15118130
sg17
S'104678.39166'
p298
sba(igraph
Edge
p299
(dp300
g7
I1
sg8
I00
sg9
I5
sg10
(lp301
g226
ag276
asg24
I00
sg25
I00
sg26
I15118131
sg17
S'104678.393291'
p302
sba(igraph
Edge
p303
(dp304
g7
I1
sg8
I00
sg9
I5
sg10
(lp305
g226
ag283
asg24
I00
sg25
I00
sg26
I15118132
sg17
S'104678.394918'
p306
sba(igraph
Edge
p307
(dp308
g7
I1
sg8
I00
sg9
I5
sg10
(lp309
g85
ag182
asg24
I00
sg25
I00
sg26
I15118133
sg17
S'104678.396587'
p310
sba(igraph
Edge
p311
(dp312
g7
I1
sg8
I00
sg9
I5
sg10
(lp313
g102
ag182
asg24
I00
sg25
I00
sg26
I15118134
sg17
S'104678.398287'
p314
sba(igraph
Edge
p315
(dp316
g7
I1
sg8
I00
sg9
I5
sg10
(lp317
g102
ag199
asg24
I00
sg25
I00
sg26
I15118135
sg17
S'104678.400022'
p318
sba(igraph
Edge
p319
(dp320
g7
I1
sg8
I00
sg9
I5
sg10
(lp321
g119
ag199
asg24
I00
sg25
I00
sg26
I15118136
sg17
S'104678.401785'
p322
sba(igraph
Edge
p323
(dp324
g7
I1
sg8
I00
sg9
I5
sg10
(lp325
g119
ag216
asg24
I00
sg25
I00
sg26
I15118137
sg17
S'104678.403583'
p326
sba(igraph
Edge
p327
(dp328
g7
I1
sg8
I00
sg9
I5
sg10
(lp329
(igraph
Vertex
p330
(dp331
g14
F-58.133171790057844
sg15
F-162.16286648679025
sg16
I15118578
sg8
I00
sg17
S'104678.016256'
p332
sg19
g20
sba(igraph
Vertex
p333
(dp334
g14
F-58.133171790057844
sg15
F-119.26471156829675
sg16
I15118579
sg8
I00
sg17
S'104678.016591'
p335
sg19
g20
sbasg24
I00
sg25
I00
sg26
I15118138
sg17
S'104678.405405'
p336
sba(igraph
Edge
p337
(dp338
g7
I1
sg8
I00
sg9
I5
sg10
(lp339
(igraph
Vertex
p340
(dp341
g14
F-58.172026943350232
sg15
F-72.971549297357996
sg16
I15118580
sg8
I00
sg17
S'104678.016936'
p342
sg19
g20
sba(igraph
Vertex
p343
(dp344
g14
F-58.172026943350232
sg15
F-30.073394378864492
sg16
I15118581
sg8
I00
sg17
S'104678.017292'
p345
sg19
I0
sbasg24
I00
sg25
I00
sg26
I15118139
sg17
S'104678.40736'
p346
sba(igraph
Edge
p347
(dp348
g7
I1
sg8
I00
sg9
I5
sg10
(lp349
g343
a(igraph
Vertex
p350
(dp351
g14
F-58.172026943350232
sg15
F12.824760539629068
sg16
I15118583
sg8
I00
sg17
S'104678.01768'
p352
sg19
g20
sbasg24
I00
sg25
I00
sg26
I15118140
sg17
S'104678.409258'
p353
sba(igraph
Edge
p354
(dp355
g7
I1
sg8
I00
sg9
I5
sg10
(lp356
g333
ag340
asg24
I00
sg25
I00
sg26
I15118141
sg17
S'104678.411216'
p357
sba(igraph
Edge
p358
(dp359
g7
I1
sg8
I00
sg9
I5
sg10
(lp360
(igraph
Vertex
p361
(dp362
g14
F-58.275215502809289
sg15
F57.770898055087144
sg16
I15118584
sg8
I00
sg17
S'104678.01806'
p363
sg19
g20
sba(igraph
Vertex
p364
(dp365
g14
F-58.275215502809289
sg15
F100.66905297358065
sg16
I15118585
sg8
I00
sg17
S'104678.01846'
p366
sg19
g20
sbasg24
I00
sg25
I00
sg26
I15118142
sg17
S'104678.413149'
p367
sba(igraph
Edge
p368
(dp369
g7
I1
sg8
I00
sg9
I5
sg10
(lp370
g364
a(igraph
Vertex
p371
(dp372
g14
F-58.275215502809289
sg15
F143.56720789207421
sg16
I15118586
sg8
I00
sg17
S'104678.018855'
p373
sg19
g20
sbasg24
I00
sg25
I00
sg26
I15118143
sg17
S'104678.415124'
p374
sba(igraph
Edge
p375
(dp376
g7
I1
sg8
I00
sg9
I5
sg10
(lp377
g371
a(igraph
Vertex
p378
(dp379
g14
F-58.31407065610162
sg15
F189.86037016301302
sg16
I15118587
sg8
I00
sg17
S'104678.019278'
p380
sg19
g20
sbasg24
I00
sg25
I00
sg26
I15118144
sg17
S'104678.417107'
p381
sba(igraph
Edge
p382
(dp383
g7
I1
sg8
I00
sg9
I5
sg10
(lp384
g350
ag361
asg24
I00
sg25
I00
sg26
I15118145
sg17
S'104678.419172'
p385
sba(igraph
Edge
p386
(dp387
g7
I1
sg8
I00
sg9
I5
sg10
(lp388
g12
ag330
asg24
I00
sg25
I00
sg26
I15118146
sg17
S'104678.421211'
p389
sba(igraph
Edge
p390
(dp391
g7
I1
sg8
I00
sg9
I5
sg10
(lp392
g12
ag333
asg24
I00
sg25
I00
sg26
I15118147
sg17
S'104678.42327'
p393
sba(igraph
Edge
p394
(dp395
g7
I1
sg8
I00
sg9
I5
sg10
(lp396
g21
ag333
asg24
I00
sg25
I00
sg26
I15118148
sg17
S'104678.425416'
p397
sba(igraph
Edge
p398
(dp399
g7
I1
sg8
I00
sg9
I5
sg10
(lp400
g21
ag340
asg24
I00
sg25
I00
sg26
I15118149
sg17
S'104678.427714'
p401
sba(igraph
Edge
p402
(dp403
g7
I1
sg8
I00
sg9
I5
sg10
(lp404
g75
ag340
asg24
I00
sg25
I00
sg26
I15118150
sg17
S'104678.429992'
p405
sba(igraph
Edge
p406
(dp407
g7
I1
sg8
I00
sg9
I5
sg10
(lp408
g75
ag343
asg24
I00
sg25
I00
sg26
I15118151
sg17
S'104678.432227'
p409
sba(igraph
Edge
p410
(dp411
g7
I1
sg8
I00
sg9
I5
sg10
(lp412
g78
ag343
asg24
I00
sg25
I00
sg26
I15118152
sg17
S'104678.434498'
p413
sba(igraph
Edge
p414
(dp415
g7
I1
sg8
I00
sg9
I5
sg10
(lp416
g78
ag350
asg24
I00
sg25
I00
sg26
I15118153
sg17
S'104678.436799'
p417
sba(igraph
Edge
p418
(dp419
g7
I1
sg8
I00
sg9
I5
sg10
(lp420
g85
ag350
asg24
I00
sg25
I00
sg26
I15118154
sg17
S'104678.439224'
p421
sba(igraph
Edge
p422
(dp423
g7
I1
sg8
I00
sg9
I5
sg10
(lp424
g85
ag361
asg24
I00
sg25
I00
sg26
I15118155
sg17
S'104678.441646'
p425
sba(igraph
Edge
p426
(dp427
g7
I1
sg8
I00
sg9
I5
sg10
(lp428
g182
ag361
asg24
I00
sg25
I00
sg26
I15118156
sg17
S'104678.444049'
p429
sba(igraph
Edge
p430
(dp431
g7
I1
sg8
I00
sg9
I5
sg10
(lp432
g182
ag364
asg24
I00
sg25
I00
sg26
I15118157
sg17
S'104678.446475'
p433
sba(igraph
Edge
p434
(dp435
g7
I1
sg8
I00
sg9
I5
sg10
(lp436
g185
ag364
asg24
I00
sg25
I00
sg26
I15118158
sg17
S'104678.448915'
p437
sba(igraph
Edge
p438
(dp439
g7
I1
sg8
I00
sg9
I5
sg10
(lp440
g185
ag371
asg24
I00
sg25
I00
sg26
I15118159
sg17
S'104678.45139'
p441
sba(igraph
Edge
p442
(dp443
g7
I1
sg8
I00
sg9
I5
sg10
(lp444
g192
ag371
asg24
I00
sg25
I00
sg26
I15118160
sg17
S'104678.453913'
p445
sba(igraph
Edge
p446
(dp447
g7
I1
sg8
I00
sg9
I5
sg10
(lp448
g192
ag378
asg24
I00
sg25
I00
sg26
I15118161
sg17
S'104678.456599'
p449
sba(igraph
Edge
p450
(dp451
g7
I1
sg8
I00
sg9
I5
sg10
(lp452
g273
ag378
asg24
I00
sg25
I00
sg26
I15118162
sg17
S'104678.459544'
p453
sba(igraph
Edge
p454
(dp455
g7
I1
sg8
I00
sg9
I5
sg10
(lp456
(igraph
Vertex
p457
(dp458
g14
F77.346384875155536
sg15
F-162.69535255761659
sg16
I15118588
sg8
I00
sg17
S'104678.019699'
p459
sg19
g20
sba(igraph
Vertex
p460
(dp461
g14
F77.346384875155536
sg15
F-119.79719763912308
sg16
I15118589
sg8
I00
sg17
S'104678.020138'
p462
sg19
I0
sbasg24
I00
sg25
I00
sg26
I15118163
sg17
S'104678.462416'
p463
sba(igraph
Edge
p464
(dp465
g7
I1
sg8
I00
sg9
I5
sg10
(lp466
(igraph
Vertex
p467
(dp468
g14
F77.301930507633188
sg15
F-73.504035368184333
sg16
I15118591
sg8
I00
sg17
S'104678.020586'
p469
sg19
g20
sba(igraph
Vertex
p470
(dp471
g14
F77.301930507633188
sg15
F-30.605880449690773
sg16
I15118592
sg8
I00
sg17
S'104678.021052'
p472
sg19
g20
sbasg24
I00
sg25
I00
sg26
I15118164
sg17
S'104678.465083'
p473
sba(igraph
Edge
p474
(dp475
g7
I1
sg8
I00
sg9
I5
sg10
(lp476
g470
a(igraph
Vertex
p477
(dp478
g14
F77.301930507633188
sg15
F12.292274468802731
sg16
I15118593
sg8
I00
sg17
S'104678.021532'
p479
sg19
g20
sbasg24
I00
sg25
I00
sg26
I15118165
sg17
S'104678.467824'
p480
sba(igraph
Edge
p481
(dp482
g7
I1
sg8
I00
sg9
I5
sg10
(lp483
g460
ag467
asg24
I00
sg25
I00
sg26
I15118166
sg17
S'104678.470832'
p484
sba(igraph
Edge
p485
(dp486
g7
I1
sg8
I00
sg9
I5
sg10
(lp487
(igraph
Vertex
p488
(dp489
g14
F77.183871981090533
sg15
F57.238411984260807
sg16
I15118594
sg8
I00
sg17
S'104678.022014'
p490
sg19
g20
sba(igraph
Vertex
p491
(dp492
g14
F77.183871981090533
sg15
F100.13656690275437
sg16
I15118595
sg8
I00
sg17
S'104678.022563'
p493
sg19
g20
sbasg24
I00
sg25
I00
sg26
I15118167
sg17
S'104678.473764'
p494
sba(igraph
Edge
p495
(dp496
g7
I1
sg8
I00
sg9
I5
sg10
(lp497
g491
a(igraph
Vertex
p498
(dp499
g14
F77.183871981090533
sg15
F143.03472182124787
sg16
I15118596
sg8
I00
sg17
S'104678.023072'
p500
sg19
g20
sbasg24
I00
sg25
I00
sg26
I15118168
sg17
S'104678.476539'
p501
sba(igraph
Edge
p502
(dp503
g7
I1
sg8
I00
sg9
I5
sg10
(lp504
g498
a(igraph
Vertex
p505
(dp506
g14
F77.139417613568298
sg15
F189.32788409218668
sg16
I15118597
sg8
I00
sg17
S'104678.023651'
p507
sg19
g20
sbasg24
I00
sg25
I00
sg26
I15118169
sg17
S'104678.479334'
p508
sba(igraph
Edge
p509
(dp510
g7
I1
sg8
I00
sg9
I5
sg10
(lp511
g477
ag488
asg24
I00
sg25
I00
sg26
I15118170
sg17
S'104678.482299'
p512
sba(igraph
Edge
p513
(dp514
g7
I1
sg8
I00
sg9
I5
sg10
(lp515
g41
ag457
asg24
I00
sg25
I00
sg26
I15118171
sg17
S'104678.48514'
p516
sba(igraph
Edge
p517
(dp518
g7
I1
sg8
I00
sg9
I5
sg10
(lp519
g44
ag457
asg24
I00
sg25
I00
sg26
I15118172
sg17
S'104678.488075'
p520
sba(igraph
Edge
p521
(dp522
g7
I1
sg8
I00
sg9
I5
sg10
(lp523
g44
ag460
asg24
I00
sg25
I00
sg26
I15118173
sg17
S'104678.491006'
p524
sba(igraph
Edge
p525
(dp526
g7
I1
sg8
I00
sg9
I5
sg10
(lp527
g109
ag460
asg24
I00
sg25
I00
sg26
I15118174
sg17
S'104678.494121'
p528
sba(igraph
Edge
p529
(dp530
g7
I1
sg8
I00
sg9
I5
sg10
(lp531
g109
ag467
asg24
I00
sg25
I00
sg26
I15118175
sg17
S'104678.497088'
p532
sba(igraph
Edge
p533
(dp534
g7
I1
sg8
I00
sg9
I5
sg10
(lp535
g112
ag467
asg24
I00
sg25
I00
sg26
I15118176
sg17
S'104678.50016'
p536
sba(igraph
Edge
p537
(dp538
g7
I1
sg8
I00
sg9
I5
sg10
(lp539
g112
ag470
asg24
I00
sg25
I00
sg26
I15118177
sg17
S'104678.503188'
p540
sba(igraph
Edge
p541
(dp542
g7
I1
sg8
I00
sg9
I5
sg10
(lp543
g119
ag470
asg24
I00
sg25
I00
sg26
I15118178
sg17
S'104678.506425'
p544
sba(igraph
Edge
p545
(dp546
g7
I1
sg8
I00
sg9
I5
sg10
(lp547
g119
ag477
asg24
I00
sg25
I00
sg26
I15118179
sg17
S'104678.50955'
p548
sba(igraph
Edge
p549
(dp550
g7
I1
sg8
I00
sg9
I5
sg10
(lp551
g216
ag477
asg24
I00
sg25
I00
sg26
I15118180
sg17
S'104678.512743'
p552
sba(igraph
Edge
p553
(dp554
g7
I1
sg8
I00
sg9
I5
sg10
(lp555
g216
ag488
asg24
I00
sg25
I00
sg26
I15118181
sg17
S'104678.515911'
p556
sba(igraph
Edge
p557
(dp558
g7
I1
sg8
I00
sg9
I5
sg10
(lp559
g219
ag488
asg24
I00
sg25
I00
sg26
I15118182
sg17
S'104678.519078'
p560
sba(igraph
Edge
p561
(dp562
g7
I1
sg8
I00
sg9
I5
sg10
(lp563
g219
ag491
asg24
I00
sg25
I00
sg26
I15118183
sg17
S'104678.522352'
p564
sba(igraph
Edge
p565
(dp566
g7
I1
sg8
I00
sg9
I5
sg10
(lp567
g226
ag491
asg24
I00
sg25
I00
sg26
I15118184
sg17
S'104678.52569'
p568
sba(igraph
Edge
p569
(dp570
g7
I1
sg8
I00
sg9
I5
sg10
(lp571
g226
ag498
asg24
I00
sg25
I00
sg26
I15118185
sg17
S'104678.529252'
p572
sba(igraph
Edge
p573
(dp574
g7
I1
sg8
I00
sg9
I5
sg10
(lp575
g283
ag498
asg24
I00
sg25
I00
sg26
I15118186
sg17
S'104678.532625'
p576
sba(igraph
Edge
p577
(dp578
g7
I1
sg8
I00
sg9
I5
sg10
(lp579
g283
ag505
asg24
I00
sg25
I00
sg26
I15118187
sg17
S'104678.5367'
p580
sba(igraph
Edge
p581
(dp582
g7
I1
sg8
I00
sg9
I5
sg10
(lp583
(igraph
Vertex
p584
(dp585
g14
F111.08137246820769
sg15
F-160.69535255761659
sg16
I15118598
sg8
I00
sg17
S'104678.024267'
p586
sg19
g20
sba(igraph
Vertex
p587
(dp588
g14
F111.08137246820769
sg15
F-117.79719763912308
sg16
I15118599
sg8
I00
sg17
S'104678.02482'
p589
sg19
g20
sbasg24
I00
sg25
I00
sg26
I15118188
sg17
S'104678.540104'
p590
sba(igraph
Edge
p591
(dp592
g7
I1
sg8
I00
sg9
I5
sg10
(lp593
(igraph
Vertex
p594
(dp595
g14
F111.03691810068534
sg15
F-71.504035368184333
sg16
I15118600
sg8
I00
sg17
S'104678.025381'
p596
sg19
g20
sba(igraph
Vertex
p597
(dp598
g14
F111.03691810068534
sg15
F-28.605880449690773
sg16
I15118601
sg8
I00
sg17
S'104678.025951'
p599
sg19
g20
sbasg24
I00
sg25
I00
sg26
I15118189
sg17
S'104678.543513'
p600
sba(igraph
Edge
p601
(dp602
g7
I1
sg8
I00
sg9
I5
sg10
(lp603
g597
a(igraph
Vertex
p604
(dp605
g14
F111.03691810068534
sg15
F14.292274468802731
sg16
I15118602
sg8
I00
sg17
S'104678.026531'
p606
sg19
g20
sbasg24
I00
sg25
I00
sg26
I15118190
sg17
S'104678.546949'
p607
sba(igraph
Edge
p608
(dp609
g7
I1
sg8
I00
sg9
I5
sg10
(lp610
g587
ag594
asg24
I00
sg25
I00
sg26
I15118191
sg17
S'104678.550612'
p611
sba(igraph
Edge
p612
(dp613
g7
I1
sg8
I00
sg9
I5
sg10
(lp614
(igraph
Vertex
p615
(dp616
g14
F110.91885957414269
sg15
F59.238411984260807
sg16
I15118603
sg8
I00
sg17
S'104678.027127'
p617
sg19
g20
sba(igraph
Vertex
p618
(dp619
g14
F110.91885957414269
sg15
F102.13656690275437
sg16
I15118604
sg8
I00
sg17
S'104678.027741'
p620
sg19
g20
sbasg24
I00
sg25
I00
sg26
I15118192
sg17
S'104678.554157'
p621
sba(igraph
Edge
p622
(dp623
g7
I1
sg8
I00
sg9
I5
sg10
(lp624
g618
a(igraph
Vertex
p625
(dp626
g14
F110.91885957414269
sg15
F145.03472182124787
sg16
I15118605
sg8
I00
sg17
S'104678.028355'
p627
sg19
g20
sbasg24
I00
sg25
I00
sg26
I15118193
sg17
S'104678.55766'
p628
sba(igraph
Edge
p629
(dp630
g7
I1
sg8
I00
sg9
I5
sg10
(lp631
g625
a(igraph
Vertex
p632
(dp633
g14
F110.87440520662045
sg15
F191.32788409218668
sg16
I15118606
sg8
I00
sg17
S'104678.028989'
p634
sg19
g20
sbasg24
I00
sg25
I00
sg26
I15118194
sg17
S'104678.561222'
p635
sba(igraph
Edge
p636
(dp637
g7
I1
sg8
I00
sg9
I5
sg10
(lp638
g604
ag615
asg24
I00
sg25
I00
sg26
I15118195
sg17
S'104678.564878'
p639
sba(igraph
Edge
p640
(dp641
g7
I1
sg8
I00
sg9
I5
sg10
(lp642
g457
ag584
asg24
I00
sg25
I00
sg26
I15118196
sg17
S'104678.568566'
p643
sba(igraph
Edge
p644
(dp645
g7
I1
sg8
I00
sg9
I5
sg10
(lp646
g460
ag584
asg24
I00
sg25
I00
sg26
I15118197
sg17
S'104678.572392'
p647
sba(igraph
Edge
p648
(dp649
g7
I1
sg8
I00
sg9
I5
sg10
(lp650
g460
ag587
asg24
I00
sg25
I00
sg26
I15118198
sg17
S'104678.576283'
p651
sba(igraph
Edge
p652
(dp653
g7
I1
sg8
I00
sg9
I5
sg10
(lp654
g467
ag587
asg24
I00
sg25
I00
sg26
I15118199
sg17
S'104678.580013'
p655
sba(igraph
Edge
p656
(dp657
g7
I1
sg8
I00
sg9
I5
sg10
(lp658
g467
ag594
asg24
I00
sg25
I00
sg26
I15118200
sg17
S'104678.583806'
p659
sba(igraph
Edge
p660
(dp661
g7
I1
sg8
I00
sg9
I5
sg10
(lp662
g470
ag594
asg24
I00
sg25
I00
sg26
I15118201
sg17
S'104678.587589'
p663
sba(igraph
Edge
p664
(dp665
g7
I1
sg8
I00
sg9
I5
sg10
(lp666
g470
ag597
asg24
I00
sg25
I00
sg26
I15118202
sg17
S'104678.591387'
p667
sba(igraph
Edge
p668
(dp669
g7
I1
sg8
I00
sg9
I5
sg10
(lp670
g477
ag597
asg24
I00
sg25
I00
sg26
I15118203
sg17
S'104678.595331'
p671
sba(igraph
Edge
p672
(dp673
g7
I1
sg8
I00
sg9
I5
sg10
(lp674
g477
ag604
asg24
I00
sg25
I00
sg26
I15118204
sg17
S'104678.599242'
p675
sba(igraph
Edge
p676
(dp677
g7
I1
sg8
I00
sg9
I5
sg10
(lp678
g488
ag604
asg24
I00
sg25
I00
sg26
I15118205
sg17
S'104678.60315'
p679
sba(igraph
Edge
p680
(dp681
g7
I1
sg8
I00
sg9
I5
sg10
(lp682
g488
ag615
asg24
I00
sg25
I00
sg26
I15118206
sg17
S'104678.607005'
p683
sba(igraph
Edge
p684
(dp685
g7
I1
sg8
I00
sg9
I5
sg10
(lp686
g491
ag615
asg24
I00
sg25
I00
sg26
I15118207
sg17
S'104678.610951'
p687
sba(igraph
Edge
p688
(dp689
g7
I1
sg8
I00
sg9
I5
sg10
(lp690
g491
ag618
asg24
I00
sg25
I00
sg26
I15118208
sg17
S'104678.614954'
p691
sba(igraph
Edge
p692
(dp693
g7
I1
sg8
I00
sg9
I5
sg10
(lp694
g498
ag618
asg24
I00
sg25
I00
sg26
I15118209
sg17
S'104678.619013'
p695
sba(igraph
Edge
p696
(dp697
g7
I1
sg8
I00
sg9
I5
sg10
(lp698
g498
ag625
asg24
I00
sg25
I00
sg26
I15118210
sg17
S'104678.623153'
p699
sba(igraph
Edge
p700
(dp701
g7
I1
sg8
I00
sg9
I5
sg10
(lp702
g505
ag625
asg24
I00
sg25
I00
sg26
I15118211
sg17
S'104678.627247'
p703
sba(igraph
Edge
p704
(dp705
g7
I1
sg8
I00
sg9
I5
sg10
(lp706
g505
ag632
asg24
I00
sg25
I00
sg26
I15118212
sg17
S'104678.631694'
p707
sba(igraph
Edge
p708
(dp709
g7
I1
sg8
I00
sg9
I5
sg10
(lp710
(igraph
Vertex
p711
(dp712
g14
F145.91185787111283
sg15
F-161.98925029792008
sg16
I15118607
sg8
I00
sg17
S'104678.029629'
p713
sg19
I0
sba(igraph
Vertex
p714
(dp715
g14
F145.91185787111283
sg15
F-119.09109537942658
sg16
I15118609
sg8
I00
sg17
S'104678.030288'
p716
sg19
g20
sbasg24
I00
sg25
I00
sg26
I15118213
sg17
S'104678.635802'
p717
sba(igraph
Edge
p718
(dp719
g7
I1
sg8
I00
sg9
I5
sg10
(lp720
(igraph
Vertex
p721
(dp722
g14
F145.86740350359054
sg15
F-72.797933108487825
sg16
I15118610
sg8
I00
sg17
S'104678.03105'
p723
sg19
g20
sba(igraph
Vertex
p724
(dp725
g14
F145.86740350359054
sg15
F-29.899778189994322
sg16
I15118611
sg8
I00
sg17
S'104678.031738'
p726
sg19
g20
sbasg24
I00
sg25
I00
sg26
I15118214
sg17
S'104678.639943'
p727
sba(igraph
Edge
p728
(dp729
g7
I1
sg8
I00
sg9
I5
sg10
(lp730
g724
a(igraph
Vertex
p731
(dp732
g14
F145.86740350359054
sg15
F12.99837672849921
sg16
I15118612
sg8
I00
sg17
S'104678.032496'
p733
sg19
g20
sbasg24
I00
sg25
I00
sg26
I15118215
sg17
S'104678.644163'
p734
sba(igraph
Edge
p735
(dp736
g7
I1
sg8
I00
sg9
I5
sg10
(lp737
g714
ag721
asg24
I00
sg25
I00
sg26
I15118216
sg17
S'104678.649431'
p738
sba(igraph
Edge
p739
(dp740
g7
I1
sg8
I00
sg9
I5
sg10
(lp741
(igraph
Vertex
p742
(dp743
g14
F145.749344977048
sg15
F57.944514243957286
sg16
I15118613
sg8
I00
sg17
S'104678.033199'
p744
sg19
g20
sba(igraph
Vertex
p745
(dp746
g14
F145.749344977048
sg15
F100.84266916245085
sg16
I15118614
sg8
I00
sg17
S'104678.03395'
p747
sg19
g20
sbasg24
I00
sg25
I00
sg26
I15118217
sg17
S'104678.653757'
p748
sba(igraph
Edge
p749
(dp750
g7
I1
sg8
I00
sg9
I5
sg10
(lp751
g745
a(igraph
Vertex
p752
(dp753
g14
F145.749344977048
sg15
F143.74082408094435
sg16
I15118615
sg8
I00
sg17
S'104678.034682'
p754
sg19
g20
sbasg24
I00
sg25
I00
sg26
I15118218
sg17
S'104678.658217'
p755
sba(igraph
Edge
p756
(dp757
g7
I1
sg8
I00
sg9
I5
sg10
(lp758
g752
a(igraph
Vertex
p759
(dp760
g14
F145.70489060952571
sg15
F190.03398635188316
sg16
I15118616
sg8
I00
sg17
S'104678.035431'
p761
sg19
g20
sbasg24
I00
sg25
I00
sg26
I15118219
sg17
S'104678.662555'
p762
sba(igraph
Edge
p763
(dp764
g7
I1
sg8
I00
sg9
I5
sg10
(lp765
g731
ag742
asg24
I00
sg25
I00
sg26
I15118220
sg17
S'104678.666981'
p766
sba(igraph
Edge
p767
(dp768
g7
I1
sg8
I00
sg9
I5
sg10
(lp769
g584
ag711
asg24
I00
sg25
I00
sg26
I15118221
sg17
S'104678.671398'
p770
sba(igraph
Edge
p771
(dp772
g7
I1
sg8
I00
sg9
I5
sg10
(lp773
g587
ag711
asg24
I00
sg25
I00
sg26
I15118222
sg17
S'104678.677218'
p774
sba(igraph
Edge
p775
(dp776
g7
I1
sg8
I00
sg9
I5
sg10
(lp777
g587
ag714
asg24
I00
sg25
I00
sg26
I15118223
sg17
S'104678.681793'
p778
sba(igraph
Edge
p779
(dp780
g7
I1
sg8
I00
sg9
I5
sg10
(lp781
g594
ag714
asg24
I00
sg25
I00
sg26
I15118224
sg17
S'104678.686322'
p782
sba(igraph
Edge
p783
(dp784
g7
I1
sg8
I00
sg9
I5
sg10
(lp785
g594
ag721
asg24
I00
sg25
I00
sg26
I15118225
sg17
S'104678.691559'
p786
sba(igraph
Edge
p787
(dp788
g7
I1
sg8
I00
sg9
I5
sg10
(lp789
g597
ag721
asg24
I00
sg25
I00
sg26
I15118226
sg17
S'104678.697596'
p790
sba(igraph
Edge
p791
(dp792
g7
I1
sg8
I00
sg9
I5
sg10
(lp793
g597
ag724
asg24
I00
sg25
I00
sg26
I15118227
sg17
S'104678.702361'
p794
sba(igraph
Edge
p795
(dp796
g7
I1
sg8
I00
sg9
I5
sg10
(lp797
g604
ag724
asg24
I00
sg25
I00
sg26
I15118228
sg17
S'104678.707217'
p798
sba(igraph
Edge
p799
(dp800
g7
I1
sg8
I00
sg9
I5
sg10
(lp801
g604
ag731
asg24
I00
sg25
I00
sg26
I15118229
sg17
S'104678.711938'
p802
sba(igraph
Edge
p803
(dp804
g7
I1
sg8
I00
sg9
I5
sg10
(lp805
g615
ag731
asg24
I00
sg25
I00
sg26
I15118230
sg17
S'104678.716652'
p806
sba(igraph
Edge
p807
(dp808
g7
I1
sg8
I00
sg9
I5
sg10
(lp809
g615
ag742
asg24
I00
sg25
I00
sg26
I15118231
sg17
S'104678.721442'
p810
sba(igraph
Edge
p811
(dp812
g7
I1
sg8
I00
sg9
I5
sg10
(lp813
g618
ag742
asg24
I00
sg25
I00
sg26
I15118232
sg17
S'104678.72627'
p814
sba(igraph
Edge
p815
(dp816
g7
I1
sg8
I00
sg9
I5
sg10
(lp817
g618
ag745
asg24
I00
sg25
I00
sg26
I15118233
sg17
S'104678.731144'
p818
sba(igraph
Edge
p819
(dp820
g7
I1
sg8
I00
sg9
I5
sg10
(lp821
g625
ag745
asg24
I00
sg25
I00
sg26
I15118234
sg17
S'104678.735953'
p822
sba(igraph
Edge
p823
(dp824
g7
I1
sg8
I00
sg9
I5
sg10
(lp825
g625
ag752
asg24
I00
sg25
I00
sg26
I15118235
sg17
S'104678.741216'
p826
sba(igraph
Edge
p827
(dp828
g7
I1
sg8
I00
sg9
I5
sg10
(lp829
g632
ag752
asg24
I00
sg25
I00
sg26
I15118236
sg17
S'104678.746109'
p830
sba(igraph
Edge
p831
(dp832
g7
I1
sg8
I00
sg9
I5
sg10
(lp833
g632
ag759
asg24
I00
sg25
I00
sg26
I15118237
sg17
S'104678.75094'
p834
sba(igraph
Edge
p835
(dp836
g7
I1
sg8
I00
sg9
I5
sg10
(lp837
(igraph
Vertex
p838
(dp839
g14
F177.11672139468601
sg15
F-159.98925029792011
sg16
I15118617
sg8
I00
sg17
S'104678.036184'
p840
sg19
g20
sba(igraph
Vertex
p841
(dp842
g14
F177.11672139468601
sg15
F-117.09109537942658
sg16
I15118618
sg8
I00
sg17
S'104678.036949'
p843
sg19
I0
sbasg24
I00
sg25
I00
sg26
I15118238
sg17
S'104678.756111'
p844
sba(igraph
Edge
p845
(dp846
g7
I1
sg8
I00
sg9
I5
sg10
(lp847
(igraph
Vertex
p848
(dp849
g14
F177.07226702716372
sg15
F-70.797933108487825
sg16
I15118620
sg8
I00
sg17
S'104678.037718'
p850
sg19
g20
sba(igraph
Vertex
p851
(dp852
g14
F177.07226702716372
sg15
F-27.899778189994322
sg16
I15118621
sg8
I00
sg17
S'104678.038523'
p853
sg19
g20
sbasg24
I00
sg25
I00
sg26
I15118239
sg17
S'104678.761192'
p854
sba(igraph
Edge
p855
(dp856
g7
I1
sg8
I00
sg9
I5
sg10
(lp857
g851
a(igraph
Vertex
p858
(dp859
g14
F177.07226702716372
sg15
F14.998376728499238
sg16
I15118622
sg8
I00
sg17
S'104678.039347'
p860
sg19
g20
sbasg24
I00
sg25
I00
sg26
I15118240
sg17
S'104678.76629'
p861
sba(igraph
Edge
p862
(dp863
g7
I1
sg8
I00
sg9
I5
sg10
(lp864
g841
ag848
asg24
I00
sg25
I00
sg26
I15118241
sg17
S'104678.77137'
p865
sba(igraph
Edge
p866
(dp867
g7
I1
sg8
I00
sg9
I5
sg10
(lp868
(igraph
Vertex
p869
(dp870
g14
F176.95420850062112
sg15
F59.944514243957286
sg16
I15118623
sg8
I00
sg17
S'104678.040169'
p871
sg19
g20
sba(igraph
Vertex
p872
(dp873
g14
F176.95420850062112
sg15
F102.84266916245085
sg16
I15118624
sg8
I00
sg17
S'104678.040999'
p874
sg19
g20
sbasg24
I00
sg25
I00
sg26
I15118242
sg17
S'104678.776886'
p875
sba(igraph
Edge
p876
(dp877
g7
I1
sg8
I00
sg9
I5
sg10
(lp878
g872
a(igraph
Vertex
p879
(dp880
g14
F176.95420850062112
sg15
F145.74082408094435
sg16
I15118625
sg8
I00
sg17
S'104678.041861'
p881
sg19
g20
sbasg24
I00
sg25
I00
sg26
I15118243
sg17
S'104678.78297'
p882
sba(igraph
Edge
p883
(dp884
g7
I1
sg8
I00
sg9
I5
sg10
(lp885
g879
a(igraph
Vertex
p886
(dp887
g14
F176.90975413309889
sg15
F192.03398635188316
sg16
I15118626
sg8
I00
sg17
S'104678.042719'
p888
sg19
g20
sbasg24
I00
sg25
I00
sg26
I15118244
sg17
S'104678.78869'
p889
sba(igraph
Edge
p890
(dp891
g7
I1
sg8
I00
sg9
I5
sg10
(lp892
g858
ag869
asg24
I00
sg25
I00
sg26
I15118245
sg17
S'104678.793894'
p893
sba(igraph
Edge
p894
(dp895
g7
I1
sg8
I00
sg9
I5
sg10
(lp896
g711
ag838
asg24
I00
sg25
I00
sg26
I15118246
sg17
S'104678.79897'
p897
sba(igraph
Edge
p898
(dp899
g7
I1
sg8
I00
sg9
I5
sg10
(lp900
g714
ag838
asg24
I00
sg25
I00
sg26
I15118247
sg17
S'104678.804392'
p901
sba(igraph
Edge
p902
(dp903
g7
I1
sg8
I00
sg9
I5
sg10
(lp904
g714
ag841
asg24
I00
sg25
I00
sg26
I15118248
sg17
S'104678.809559'
p905
sba(igraph
Edge
p906
(dp907
g7
I1
sg8
I00
sg9
I5
sg10
(lp908
g721
ag841
asg24
I00
sg25
I00
sg26
I15118249
sg17
S'104678.814986'
p909
sba(igraph
Edge
p910
(dp911
g7
I1
sg8
I00
sg9
I5
sg10
(lp912
g721
ag848
asg24
I00
sg25
I00
sg26
I15118250
sg17
S'104678.820847'
p913
sba(igraph
Edge
p914
(dp915
g7
I1
sg8
I00
sg9
I5
sg10
(lp916
g724
ag848
asg24
I00
sg25
I00
sg26
I15118251
sg17
S'104678.827015'
p917
sba(igraph
Edge
p918
(dp919
g7
I1
sg8
I00
sg9
I5
sg10
(lp920
g724
ag851
asg24
I00
sg25
I00
sg26
I15118252
sg17
S'104678.834332'
p921
sba(igraph
Edge
p922
(dp923
g7
I1
sg8
I00
sg9
I5
sg10
(lp924
g731
ag851
asg24
I00
sg25
I00
sg26
I15118253
sg17
S'104678.840924'
p925
sba(igraph
Edge
p926
(dp927
g7
I1
sg8
I00
sg9
I5
sg10
(lp928
g731
ag858
asg24
I00
sg25
I00
sg26
I15118254
sg17
S'104678.847645'
p929
sba(igraph
Edge
p930
(dp931
g7
I1
sg8
I00
sg9
I5
sg10
(lp932
g742
ag858
asg24
I00
sg25
I00
sg26
I15118255
sg17
S'104678.853914'
p933
sba(igraph
Edge
p934
(dp935
g7
I1
sg8
I00
sg9
I5
sg10
(lp936
g742
ag869
asg24
I00
sg25
I00
sg26
I15118256
sg17
S'104678.860189'
p937
sba(igraph
Edge
p938
(dp939
g7
I1
sg8
I00
sg9
I5
sg10
(lp940
g745
ag869
asg24
I00
sg25
I00
sg26
I15118257
sg17
S'104678.865993'
p941
sba(igraph
Edge
p942
(dp943
g7
I1
sg8
I00
sg9
I5
sg10
(lp944
g745
ag872
asg24
I00
sg25
I00
sg26
I15118258
sg17
S'104678.872103'
p945
sba(igraph
Edge
p946
(dp947
g7
I1
sg8
I00
sg9
I5
sg10
(lp948
g752
ag872
asg24
I00
sg25
I00
sg26
I15118259
sg17
S'104678.885444'
p949
sba(igraph
Edge
p950
(dp951
g7
I1
sg8
I00
sg9
I5
sg10
(lp952
g752
ag879
asg24
I00
sg25
I00
sg26
I15118260
sg17
S'104678.896012'
p953
sba(igraph
Edge
p954
(dp955
g7
I1
sg8
I00
sg9
I5
sg10
(lp956
g759
ag879
asg24
I00
sg25
I00
sg26
I15118261
sg17
S'104678.904887'
p957
sba(igraph
Edge
p958
(dp959
g7
I1
sg8
I00
sg9
I5
sg10
(lp960
g759
ag886
asg24
I00
sg25
I00
sg26
I15118262
sg17
S'104678.912276'
p961
sba(igraph
Edge
p962
(dp963
g7
I1
sg8
I00
sg9
I5
sg10
(lp964
(igraph
Vertex
p965
(dp966
g14
F209.58664695299871
sg15
F-163.98925029792011
sg16
I15118627
sg8
I00
sg17
S'104678.043593'
p967
sg19
g20
sba(igraph
Vertex
p968
(dp969
g14
F209.58664695299871
sg15
F-121.0910953794266
sg16
I15118628
sg8
I00
sg17
S'104678.044477'
p970
sg19
g20
sbasg24
I00
sg25
I00
sg26
I15118263
sg17
S'104678.919682'
p971
sba(igraph
Edge
p972
(dp973
g7
I1
sg8
I00
sg9
I5
sg10
(lp974
(igraph
Vertex
p975
(dp976
g14
F209.54219258547641
sg15
F-74.797933108487854
sg16
I15118629
sg8
I00
sg17
S'104678.045362'
p977
sg19
g20
sba(igraph
Vertex
p978
(dp979
g14
F209.54219258547641
sg15
F-31.89977818999435
sg16
I15118630
sg8
I00
sg17
S'104678.046269'
p980
sg19
g20
sbasg24
I00
sg25
I00
sg26
I15118264
sg17
S'104678.934627'
p981
sba(igraph
Edge
p982
(dp983
g7
I1
sg8
I00
sg9
I5
sg10
(lp984
g978
a(igraph
Vertex
p985
(dp986
g14
F209.54219258547641
sg15
F10.99837672849921
sg16
I15118631
sg8
I00
sg17
S'104678.047187'
p987
sg19
g20
sbasg24
I00
sg25
I00
sg26
I15118265
sg17
S'104678.943247'
p988
sba(igraph
Edge
p989
(dp990
g7
I1
sg8
I00
sg9
I5
sg10
(lp991
g968
ag975
asg24
I00
sg25
I00
sg26
I15118266
sg17
S'104678.951476'
p992
sba(igraph
Edge
p993
(dp994
g7
I1
sg8
I00
sg9
I5
sg10
(lp995
(igraph
Vertex
p996
(dp997
g14
F209.42413405893376
sg15
F55.944514243957286
sg16
I15118632
sg8
I00
sg17
S'104678.048114'
p998
sg19
g20
sba(igraph
Vertex
p999
(dp1000
g14
F209.42413405893376
sg15
F98.842669162450846
sg16
I15118633
sg8
I00
sg17
S'104678.049055'
p1001
sg19
g20
sbasg24
I00
sg25
I00
sg26
I15118267
sg17
S'104678.95876'
p1002
sba(igraph
Edge
p1003
(dp1004
g7
I1
sg8
I00
sg9
I5
sg10
(lp1005
g999
a(igraph
Vertex
p1006
(dp1007
g14
F209.42413405893376
sg15
F141.74082408094435
sg16
I15118634
sg8
I00
sg17
S'104678.050043'
p1008
sg19
g20
sbasg24
I00
sg25
I00
sg26
I15118268
sg17
S'104678.966368'
p1009
sba(igraph
Edge
p1010
(dp1011
g7
I1
sg8
I00
sg9
I5
sg10
(lp1012
g1006
a(igraph
Vertex
p1013
(dp1014
g14
F209.37967969141158
sg15
F188.03398635188316
sg16
I15118635
sg8
I00
sg17
S'104678.051015'
p1015
sg19
g20
sbasg24
I00
sg25
I00
sg26
I15118269
sg17
S'104678.973564'
p1016
sba(igraph
Edge
p1017
(dp1018
g7
I1
sg8
I00
sg9
I5
sg10
(lp1019
g985
ag996
asg24
I00
sg25
I00
sg26
I15118270
sg17
S'104678.979468'
p1020
sba(igraph
Edge
p1021
(dp1022
g7
I1
sg8
I00
sg9
I5
sg10
(lp1023
g838
ag965
asg24
I00
sg25
I00
sg26
I15118271
sg17
S'104678.985919'
p1024
sba(igraph
Edge
p1025
(dp1026
g7
I1
sg8
I00
sg9
I5
sg10
(lp1027
g841
ag965
asg24
I00
sg25
I00
sg26
I15118272
sg17
S'104678.99197'
p1028
sba(igraph
Edge
p1029
(dp1030
g7
I1
sg8
I00
sg9
I5
sg10
(lp1031
g841
ag968
asg24
I00
sg25
I00
sg26
I15118273
sg17
S'104678.997944'
p1032
sba(igraph
Edge
p1033
(dp1034
g7
I1
sg8
I00
sg9
I5
sg10
(lp1035
g848
ag968
asg24
I00
sg25
I00
sg26
I15118274
sg17
S'104679.003961'
p1036
sba(igraph
Edge
p1037
(dp1038
g7
I1
sg8
I00
sg9
I5
sg10
(lp1039
g848
ag975
asg24
I00
sg25
I00
sg26
I15118275
sg17
S'104679.010142'
p1040
sba(igraph
Edge
p1041
(dp1042
g7
I1
sg8
I00
sg9
I5
sg10
(lp1043
g851
ag975
asg24
I00
sg25
I00
sg26
I15118276
sg17
S'104679.016286'
p1044
sba(igraph
Edge
p1045
(dp1046
g7
I1
sg8
I00
sg9
I5
sg10
(lp1047
g851
ag978
asg24
I00
sg25
I00
sg26
I15118277
sg17
S'104679.022594'
p1048
sba(igraph
Edge
p1049
(dp1050
g7
I1
sg8
I00
sg9
I5
sg10
(lp1051
g858
ag978
asg24
I00
sg25
I00
sg26
I15118278
sg17
S'104679.028774'
p1052
sba(igraph
Edge
p1053
(dp1054
g7
I1
sg8
I00
sg9
I5
sg10
(lp1055
g858
ag985
asg24
I00
sg25
I00
sg26
I15118279
sg17
S'104679.035169'
p1056
sba(igraph
Edge
p1057
(dp1058
g7
I1
sg8
I00
sg9
I5
sg10
(lp1059
g869
ag985
asg24
I00
sg25
I00
sg26
I15118280
sg17
S'104679.041636'
p1060
sba(igraph
Edge
p1061
(dp1062
g7
I1
sg8
I00
sg9
I5
sg10
(lp1063
g869
ag996
asg24
I00
sg25
I00
sg26
I15118281
sg17
S'104679.048104'
p1064
sba(igraph
Edge
p1065
(dp1066
g7
I1
sg8
I00
sg9
I5
sg10
(lp1067
g872
ag996
asg24
I00
sg25
I00
sg26
I15118282
sg17
S'104679.054626'
p1068
sba(igraph
Edge
p1069
(dp1070
g7
I1
sg8
I00
sg9
I5
sg10
(lp1071
g872
ag999
asg24
I00
sg25
I00
sg26
I15118283
sg17
S'104679.061115'
p1072
sba(igraph
Edge
p1073
(dp1074
g7
I1
sg8
I00
sg9
I5
sg10
(lp1075
g879
ag999
asg24
I00
sg25
I00
sg26
I15118284
sg17
S'104679.06746'
p1076
sba(igraph
Edge
p1077
(dp1078
g7
I1
sg8
I00
sg9
I5
sg10
(lp1079
g879
ag1006
asg24
I00
sg25
I00
sg26
I15118285
sg17
S'104679.073997'
p1080
sba(igraph
Edge
p1081
(dp1082
g7
I1
sg8
I00
sg9
I5
sg10
(lp1083
g886
ag1006
asg24
I00
sg25
I00
sg26
I15118286
sg17
S'104679.080441'
p1084
sba(igraph
Edge
p1085
(dp1086
g7
I1
sg8
I00
sg9
I5
sg10
(lp1087
g886
ag1013
asg24
I00
sg25
I00
sg26
I15118287
sg17
S'104679.08717'
p1088
sba(igraph
Edge
p1089
(dp1090
g7
I1
sg8
I00
sg9
I5
sg10
(lp1091
(igraph
Vertex
p1092
(dp1093
g14
F-24.130993565397404
sg15
F236.45092728499154
sg16
I15118636
sg8
I00
sg17
S'104678.051998'
p1094
sg19
g20
sba(igraph
Vertex
p1095
(dp1096
g14
F11.054506360450205
sg15
F236.45092728499154
sg16
I15118637
sg8
I00
sg17
S'104678.053042'
p1097
sg19
g20
sbasg24
I00
sg25
I00
sg26
I15118288
sg17
S'104679.093778'
p1098
sba(igraph
Edge
p1099
(dp1100
g7
I1
sg8
I00
sg9
I5
sg10
(lp1101
g1095
a(igraph
Vertex
p1102
(dp1103
g14
F46.240006286297898
sg15
F236.45092728499154
sg16
I15118638
sg8
I00
sg17
S'104678.054054'
p1104
sg19
g20
sbasg24
I00
sg25
I00
sg26
I15118289
sg17
S'104679.101328'
p1105
sba(igraph
Edge
p1106
(dp1107
g7
I1
sg8
I00
sg9
I5
sg10
(lp1108
g1092
a(igraph
Vertex
p1109
(dp1110
g14
F-55.648876422594043
sg15
F236.97763197301853
sg16
I15118639
sg8
I00
sg17
S'104678.055098'
p1111
sg19
g20
sbasg24
I00
sg25
I00
sg26
I15118290
sg17
S'104679.10795'
p1112
sba(igraph
Edge
p1113
(dp1114
g7
I1
sg8
I00
sg9
I5
sg10
(lp1115
g1102
a(igraph
Vertex
p1116
(dp1117
g14
F80.188679138367434
sg15
F236.44514590219219
sg16
I15118640
sg8
I00
sg17
S'104678.056134'
p1118
sg19
g20
sbasg24
I00
sg25
I00
sg26
I15118291
sg17
S'104679.114787'
p1119
sba(igraph
Edge
p1120
(dp1121
g7
I1
sg8
I00
sg9
I5
sg10
(lp1122
g1116
a(igraph
Vertex
p1123
(dp1124
g14
F113.92366673141947
sg15
F238.44514590219219
sg16
I15118641
sg8
I00
sg17
S'104678.057233'
p1125
sg19
g20
sbasg24
I00
sg25
I00
sg26
I15118292
sg17
S'104679.121386'
p1126
sba(igraph
Edge
p1127
(dp1128
g7
I1
sg8
I00
sg9
I5
sg10
(lp1129
g1123
a(igraph
Vertex
p1130
(dp1131
g14
F148.75415213432473
sg15
F237.15124816188867
sg16
I15118642
sg8
I00
sg17
S'104678.058308'
p1132
sg19
g20
sbasg24
I00
sg25
I00
sg26
I15118293
sg17
S'104679.128064'
p1133
sba(igraph
Edge
p1134
(dp1135
g7
I1
sg8
I00
sg9
I5
sg10
(lp1136
g1130
a(igraph
Vertex
p1137
(dp1138
g14
F179.95901565789785
sg15
F239.15124816188867
sg16
I15118643
sg8
I00
sg17
S'104678.059369'
p1139
sg19
g20
sbasg24
I00
sg25
I00
sg26
I15118294
sg17
S'104679.134863'
p1140
sba(igraph
Edge
p1141
(dp1142
g7
I1
sg8
I00
sg9
I5
sg10
(lp1143
g1137
a(igraph
Vertex
p1144
(dp1145
g14
F212.42894121621055
sg15
F235.15124816188867
sg16
I15118644
sg8
I00
sg17
S'104678.060487'
p1146
sg19
g20
sbasg24
I00
sg25
I00
sg26
I15118295
sg17
S'104679.141661'
p1147
sba(igraph
Edge
p1148
(dp1149
g7
I1
sg8
I00
sg9
I5
sg10
(lp1150
g273
ag1109
asg24
I00
sg25
I00
sg26
I15118296
sg17
S'104679.148493'
p1151
sba(igraph
Edge
p1152
(dp1153
g7
I1
sg8
I00
sg9
I5
sg10
(lp1154
g378
ag1109
asg24
I00
sg25
I00
sg26
I15118297
sg17
S'104679.155256'
p1155
sba(igraph
Edge
p1156
(dp1157
g7
I1
sg8
I00
sg9
I5
sg10
(lp1158
g273
ag1092
asg24
I00
sg25
I00
sg26
I15118298
sg17
S'104679.162134'
p1159
sba(igraph
Edge
p1160
(dp1161
g7
I1
sg8
I00
sg9
I5
sg10
(lp1162
g276
ag1092
asg24
I00
sg25
I00
sg26
I15118299
sg17
S'104679.168987'
p1163
sba(igraph
Edge
p1164
(dp1165
g7
I1
sg8
I00
sg9
I5
sg10
(lp1166
g276
ag1095
asg24
I00
sg25
I00
sg26
I15118300
sg17
S'104679.175876'
p1167
sba(igraph
Edge
p1168
(dp1169
g7
I1
sg8
I00
sg9
I5
sg10
(lp1170
g283
ag1095
asg24
I00
sg25
I00
sg26
I15118301
sg17
S'104679.182863'
p1171
sba(igraph
Edge
p1172
(dp1173
g7
I1
sg8
I00
sg9
I5
sg10
(lp1174
g283
ag1102
asg24
I00
sg25
I00
sg26
I15118302
sg17
S'104679.189814'
p1175
sba(igraph
Edge
p1176
(dp1177
g7
I1
sg8
I00
sg9
I5
sg10
(lp1178
g505
ag1102
asg24
I00
sg25
I00
sg26
I15118303
sg17
S'104679.196964'
p1179
sba(igraph
Edge
p1180
(dp1181
g7
I1
sg8
I00
sg9
I5
sg10
(lp1182
g505
ag1116
asg24
I00
sg25
I00
sg26
I15118304
sg17
S'104679.204123'
p1183
sba(igraph
Edge
p1184
(dp1185
g7
I1
sg8
I00
sg9
I5
sg10
(lp1186
g632
ag1116
asg24
I00
sg25
I00
sg26
I15118305
sg17
S'104679.21183'
p1187
sba(igraph
Edge
p1188
(dp1189
g7
I1
sg8
I00
sg9
I5
sg10
(lp1190
g632
ag1123
asg24
I00
sg25
I00
sg26
I15118306
sg17
S'104679.218922'
p1191
sba(igraph
Edge
p1192
(dp1193
g7
I1
sg8
I00
sg9
I5
sg10
(lp1194
g759
ag1123
asg24
I00
sg25
I00
sg26
I15118307
sg17
S'104679.226494'
p1195
sba(igraph
Edge
p1196
(dp1197
g7
I1
sg8
I00
sg9
I5
sg10
(lp1198
g759
ag1130
asg24
I00
sg25
I00
sg26
I15118308
sg17
S'104679.233558'
p1199
sba(igraph
Edge
p1200
(dp1201
g7
I1
sg8
I00
sg9
I5
sg10
(lp1202
g886
ag1130
asg24
I00
sg25
I00
sg26
I15118309
sg17
S'104679.240782'
p1203
sba(igraph
Edge
p1204
(dp1205
g7
I1
sg8
I00
sg9
I5
sg10
(lp1206
g886
ag1137
asg24
I00
sg25
I00
sg26
I15118310
sg17
S'104679.248133'
p1207
sba(igraph
Edge
p1208
(dp1209
g7
I1
sg8
I00
sg9
I5
sg10
(lp1210
g1013
ag1137
asg24
I00
sg25
I00
sg26
I15118311
sg17
S'104679.255562'
p1211
sba(igraph
Edge
p1212
(dp1213
g7
I1
sg8
I00
sg9
I5
sg10
(lp1214
g1013
ag1144
asg24
I00
sg25
I00
sg26
I15118312
sg17
S'104679.262647'
p1215
sba(igraph
Edge
p1216
(dp1217
g7
I1
sg8
I00
sg9
I5
sg10
(lp1218
(igraph
Vertex
p1219
(dp1220
g14
F236.47507333886927
sg15
F-160.8233424732995
sg16
I15118645
sg8
I00
sg17
S'104678.061574'
p1221
sg19
g20
sba(igraph
Vertex
p1222
(dp1223
g14
F236.47507333886927
sg15
F-117.925187554806
sg16
I15118646
sg8
I00
sg17
S'104678.062804'
p1224
sg19
g20
sbasg24
I00
sg25
I00
sg26
I15118313
sg17
S'104679.269866'
p1225
sba(igraph
Edge
p1226
(dp1227
g7
I1
sg8
I00
sg9
I5
sg10
(lp1228
(igraph
Vertex
p1229
(dp1230
g14
F236.43061897134703
sg15
F-71.63202528386725
sg16
I15118647
sg8
I00
sg17
S'104678.063976'
p1231
sg19
g20
sba(igraph
Vertex
p1232
(dp1233
g14
F236.43061897134703
sg15
F-28.733870365373747
sg16
I15118648
sg8
I00
sg17
S'104678.065397'
p1234
sg19
g20
sbasg24
I00
sg25
I00
sg26
I15118314
sg17
S'104679.277188'
p1235
sba(igraph
Edge
p1236
(dp1237
g7
I1
sg8
I00
sg9
I5
sg10
(lp1238
g1232
a(igraph
Vertex
p1239
(dp1240
g14
F236.43061897134703
sg15
F14.164284553119813
sg16
I15118649
sg8
I00
sg17
S'104678.066591'
p1241
sg19
g20
sbasg24
I00
sg25
I00
sg26
I15118315
sg17
S'104679.285104'
p1242
sba(igraph
Edge
p1243
(dp1244
g7
I1
sg8
I00
sg9
I5
sg10
(lp1245
g1222
ag1229
asg24
I00
sg25
I00
sg26
I15118316
sg17
S'104679.293359'
p1246
sba(igraph
Edge
p1247
(dp1248
g7
I1
sg8
I00
sg9
I5
sg10
(lp1249
(igraph
Vertex
p1250
(dp1251
g14
F236.31256044480443
sg15
F59.11042206857789
sg16
I15118650
sg8
I00
sg17
S'104678.067761'
p1252
sg19
g20
sba(igraph
Vertex
p1253
(dp1254
g14
F236.31256044480443
sg15
F102.00857698707145
sg16
I15118651
sg8
I00
sg17
S'104678.068967'
p1255
sg19
g20
sbasg24
I00
sg25
I00
sg26
I15118317
sg17
S'104679.302952'
p1256
sba(igraph
Edge
p1257
(dp1258
g7
I1
sg8
I00
sg9
I5
sg10
(lp1259
g1253
a(igraph
Vertex
p1260
(dp1261
g14
F236.31256044480443
sg15
F144.90673190556495
sg16
I15118652
sg8
I00
sg17
S'104678.070147'
p1262
sg19
g20
sbasg24
I00
sg25
I00
sg26
I15118318
sg17
S'104679.311752'
p1263
sba(igraph
Edge
p1264
(dp1265
g7
I1
sg8
I00
sg9
I5
sg10
(lp1266
g1260
a(igraph
Vertex
p1267
(dp1268
g14
F236.2681060772822
sg15
F191.19989417650376
sg16
I15118653
sg8
I00
sg17
S'104678.071346'
p1269
sg19
g20
sbasg24
I00
sg25
I00
sg26
I15118319
sg17
S'104679.320935'
p1270
sba(igraph
Edge
p1271
(dp1272
g7
I1
sg8
I00
sg9
I5
sg10
(lp1273
g1239
ag1250
asg24
I00
sg25
I00
sg26
I15118320
sg17
S'104679.330849'
p1274
sba(igraph
Edge
p1275
(dp1276
g7
I1
sg8
I00
sg9
I5
sg10
(lp1277
(igraph
Vertex
p1278
(dp1279
g14
F267.46484602082307
sg15
F-159.70217070264189
sg16
I15118654
sg8
I00
sg17
S'104678.072562'
p1280
sg19
g20
sba(igraph
Vertex
p1281
(dp1282
g14
F267.67993686244245
sg15
F-115.925187554806
sg16
I15118655
sg8
I00
sg17
S'104678.073779'
p1283
sg19
g20
sbasg24
I00
sg25
I00
sg26
I15118321
sg17
S'104679.33911'
p1284
sba(igraph
Edge
p1285
(dp1286
g7
I1
sg8
I00
sg9
I5
sg10
(lp1287
(igraph
Vertex
p1288
(dp1289
g14
F267.63548249492021
sg15
F-69.63202528386725
sg16
I15118656
sg8
I00
sg17
S'104678.075104'
p1290
sg19
g20
sba(igraph
Vertex
p1291
(dp1292
g14
F267.63548249492021
sg15
F-26.733870365373747
sg16
I15118657
sg8
I00
sg17
S'104678.076372'
p1293
sg19
g20
sbasg24
I00
sg25
I00
sg26
I15118322
sg17
S'104679.347992'
p1294
sba(igraph
Edge
p1295
(dp1296
g7
I1
sg8
I00
sg9
I5
sg10
(lp1297
g1291
a(igraph
Vertex
p1298
(dp1299
g14
F267.63548249492021
sg15
F16.164284553119813
sg16
I15118658
sg8
I00
sg17
S'104678.077634'
p1300
sg19
g20
sbasg24
I00
sg25
I00
sg26
I15118323
sg17
S'104679.356346'
p1301
sba(igraph
Edge
p1302
(dp1303
g7
I1
sg8
I00
sg9
I5
sg10
(lp1304
g1281
ag1288
asg24
I00
sg25
I00
sg26
I15118324
sg17
S'104679.366137'
p1305
sba(igraph
Edge
p1306
(dp1307
g7
I1
sg8
I00
sg9
I5
sg10
(lp1308
(igraph
Vertex
p1309
(dp1310
g14
F267.51742396837767
sg15
F61.11042206857789
sg16
I15118659
sg8
I00
sg17
S'104678.078901'
p1311
sg19
g20
sba(igraph
Vertex
p1312
(dp1313
g14
F267.51742396837767
sg15
F104.00857698707145
sg16
I15118660
sg8
I00
sg17
S'104678.080232'
p1314
sg19
g20
sbasg24
I00
sg25
I00
sg26
I15118325
sg17
S'104679.375147'
p1315
sba(igraph
Edge
p1316
(dp1317
g7
I1
sg8
I00
sg9
I5
sg10
(lp1318
g1312
a(igraph
Vertex
p1319
(dp1320
g14
F267.51742396837767
sg15
F146.90673190556495
sg16
I15118661
sg8
I00
sg17
S'104678.08171'
p1321
sg19
g20
sbasg24
I00
sg25
I00
sg26
I15118326
sg17
S'104679.38398'
p1322
sba(igraph
Edge
p1323
(dp1324
g7
I1
sg8
I00
sg9
I5
sg10
(lp1325
g1319
a(igraph
Vertex
p1326
(dp1327
g14
F267.47296960085544
sg15
F193.19989417650376
sg16
I15118662
sg8
I00
sg17
S'104678.083096'
p1328
sg19
g20
sbasg24
I00
sg25
I00
sg26
I15118327
sg17
S'104679.393514'
p1329
sba(igraph
Edge
p1330
(dp1331
g7
I1
sg8
I00
sg9
I5
sg10
(lp1332
g1298
ag1309
asg24
I00
sg25
I00
sg26
I15118328
sg17
S'104679.408559'
p1333
sba(igraph
Edge
p1334
(dp1335
g7
I1
sg8
I00
sg9
I5
sg10
(lp1336
g1219
ag1278
asg24
I00
sg25
I00
sg26
I15118329
sg17
S'104679.417265'
p1337
sba(igraph
Edge
p1338
(dp1339
g7
I1
sg8
I00
sg9
I5
sg10
(lp1340
g1222
ag1278
asg24
I00
sg25
I00
sg26
I15118330
sg17
S'104679.427757'
p1341
sba(igraph
Edge
p1342
(dp1343
g7
I1
sg8
I00
sg9
I5
sg10
(lp1344
g1222
ag1281
asg24
I00
sg25
I00
sg26
I15118331
sg17
S'104679.43721'
p1345
sba(igraph
Edge
p1346
(dp1347
g7
I1
sg8
I00
sg9
I5
sg10
(lp1348
g1229
ag1281
asg24
I00
sg25
I00
sg26
I15118332
sg17
S'104679.446773'
p1349
sba(igraph
Edge
p1350
(dp1351
g7
I1
sg8
I00
sg9
I5
sg10
(lp1352
g1229
ag1288
asg24
I00
sg25
I00
sg26
I15118333
sg17
S'104679.457495'
p1353
sba(igraph
Edge
p1354
(dp1355
g7
I1
sg8
I00
sg9
I5
sg10
(lp1356
g1232
ag1288
asg24
I00
sg25
I00
sg26
I15118334
sg17
S'104679.47001'
p1357
sba(igraph
Edge
p1358
(dp1359
g7
I1
sg8
I00
sg9
I5
sg10
(lp1360
g1232
ag1291
asg24
I00
sg25
I00
sg26
I15118335
sg17
S'104679.479749'
p1361
sba(igraph
Edge
p1362
(dp1363
g7
I1
sg8
I00
sg9
I5
sg10
(lp1364
g1239
ag1291
asg24
I00
sg25
I00
sg26
I15118336
sg17
S'104679.490412'
p1365
sba(igraph
Edge
p1366
(dp1367
g7
I1
sg8
I00
sg9
I5
sg10
(lp1368
g1239
ag1298
asg24
I00
sg25
I00
sg26
I15118337
sg17
S'104679.499741'
p1369
sba(igraph
Edge
p1370
(dp1371
g7
I1
sg8
I00
sg9
I5
sg10
(lp1372
g1250
ag1298
asg24
I00
sg25
I00
sg26
I15118338
sg17
S'104679.510233'
p1373
sba(igraph
Edge
p1374
(dp1375
g7
I1
sg8
I00
sg9
I5
sg10
(lp1376
g1250
ag1309
asg24
I00
sg25
I00
sg26
I15118339
sg17
S'104679.520114'
p1377
sba(igraph
Edge
p1378
(dp1379
g7
I1
sg8
I00
sg9
I5
sg10
(lp1380
g1253
ag1309
asg24
I00
sg25
I00
sg26
I15118340
sg17
S'104679.528767'
p1381
sba(igraph
Edge
p1382
(dp1383
g7
I1
sg8
I00
sg9
I5
sg10
(lp1384
g1253
ag1312
asg24
I00
sg25
I00
sg26
I15118341
sg17
S'104679.540058'
p1385
sba(igraph
Edge
p1386
(dp1387
g7
I1
sg8
I00
sg9
I5
sg10
(lp1388
g1260
ag1312
asg24
I00
sg25
I00
sg26
I15118342
sg17
S'104679.549454'
p1389
sba(igraph
Edge
p1390
(dp1391
g7
I1
sg8
I00
sg9
I5
sg10
(lp1392
g1260
ag1319
asg24
I00
sg25
I00
sg26
I15118343
sg17
S'104679.558451'
p1393
sba(igraph
Edge
p1394
(dp1395
g7
I1
sg8
I00
sg9
I5
sg10
(lp1396
g1267
ag1319
asg24
I00
sg25
I00
sg26
I15118344
sg17
S'104679.568539'
p1397
sba(igraph
Edge
p1398
(dp1399
g7
I1
sg8
I00
sg9
I5
sg10
(lp1400
g1267
ag1326
asg24
I00
sg25
I00
sg26
I15118345
sg17
S'104679.577921'
p1401
sba(igraph
Edge
p1402
(dp1403
g7
I1
sg8
I00
sg9
I5
sg10
(lp1404
(igraph
Vertex
p1405
(dp1406
g14
F239.31736760208116
sg15
F238.31715598650928
sg16
I15118663
sg8
I00
sg17
S'104678.084466'
p1407
sg19
g20
sba(igraph
Vertex
p1408
(dp1409
g14
F270.52223112565434
sg15
F240.31715598650928
sg16
I15118664
sg8
I00
sg17
S'104678.085903'
p1410
sg19
g20
sbasg24
I00
sg25
I00
sg26
I15118346
sg17
S'104679.588227'
p1411
sba(igraph
Edge
p1412
(dp1413
g7
I1
sg8
I00
sg9
I5
sg10
(lp1414
g1267
ag1405
asg24
I00
sg25
I00
sg26
I15118347
sg17
S'104679.599052'
p1415
sba(igraph
Edge
p1416
(dp1417
g7
I1
sg8
I00
sg9
I5
sg10
(lp1418
g1326
ag1405
asg24
I00
sg25
I00
sg26
I15118348
sg17
S'104679.609612'
p1419
sba(igraph
Edge
p1420
(dp1421
g7
I1
sg8
I00
sg9
I5
sg10
(lp1422
g1326
ag1408
asg24
I00
sg25
I00
sg26
I15118349
sg17
S'104679.620019'
p1423
sba(igraph
Edge
p1424
(dp1425
g7
I1
sg8
I00
sg9
I5
sg10
(lp1426
g965
ag1219
asg24
I00
sg25
I00
sg26
I15118350
sg17
S'104679.630624'
p1427
sba(igraph
Edge
p1428
(dp1429
g7
I1
sg8
I00
sg9
I5
sg10
(lp1430
g968
ag1219
asg24
I00
sg25
I00
sg26
I15118351
sg17
S'104679.641061'
p1431
sba(igraph
Edge
p1432
(dp1433
g7
I1
sg8
I00
sg9
I5
sg10
(lp1434
g968
ag1222
asg24
I00
sg25
I00
sg26
I15118352
sg17
S'104679.655346'
p1435
sba(igraph
Edge
p1436
(dp1437
g7
I1
sg8
I00
sg9
I5
sg10
(lp1438
g975
ag1222
asg24
I00
sg25
I00
sg26
I15118353
sg17
S'104679.666256'
p1439
sba(igraph
Edge
p1440
(dp1441
g7
I1
sg8
I00
sg9
I5
sg10
(lp1442
g975
ag1229
asg24
I00
sg25
I00
sg26
I15118354
sg17
S'104679.676764'
p1443
sba(igraph
Edge
p1444
(dp1445
g7
I1
sg8
I00
sg9
I5
sg10
(lp1446
g978
ag1229
asg24
I00
sg25
I00
sg26
I15118355
sg17
S'104679.686601'
p1447
sba(igraph
Edge
p1448
(dp1449
g7
I1
sg8
I00
sg9
I5
sg10
(lp1450
g978
ag1232
asg24
I00
sg25
I00
sg26
I15118356
sg17
S'104679.695922'
p1451
sba(igraph
Edge
p1452
(dp1453
g7
I1
sg8
I00
sg9
I5
sg10
(lp1454
g985
ag1232
asg24
I00
sg25
I00
sg26
I15118357
sg17
S'104679.705635'
p1455
sba(igraph
Edge
p1456
(dp1457
g7
I1
sg8
I00
sg9
I5
sg10
(lp1458
g985
ag1239
asg24
I00
sg25
I00
sg26
I15118358
sg17
S'104679.715299'
p1459
sba(igraph
Edge
p1460
(dp1461
g7
I1
sg8
I00
sg9
I5
sg10
(lp1462
g996
ag1239
asg24
I00
sg25
I00
sg26
I15118359
sg17
S'104679.724975'
p1463
sba(igraph
Edge
p1464
(dp1465
g7
I1
sg8
I00
sg9
I5
sg10
(lp1466
g996
ag1250
asg24
I00
sg25
I00
sg26
I15118360
sg17
S'104679.734529'
p1467
sba(igraph
Edge
p1468
(dp1469
g7
I1
sg8
I00
sg9
I5
sg10
(lp1470
g999
ag1250
asg24
I00
sg25
I00
sg26
I15118361
sg17
S'104679.744502'
p1471
sba(igraph
Edge
p1472
(dp1473
g7
I1
sg8
I00
sg9
I5
sg10
(lp1474
g999
ag1253
asg24
I00
sg25
I00
sg26
I15118362
sg17
S'104679.756709'
p1475
sba(igraph
Edge
p1476
(dp1477
g7
I1
sg8
I00
sg9
I5
sg10
(lp1478
g1006
ag1253
asg24
I00
sg25
I00
sg26
I15118363
sg17
S'104679.768332'
p1479
sba(igraph
Edge
p1480
(dp1481
g7
I1
sg8
I00
sg9
I5
sg10
(lp1482
g1006
ag1260
asg24
I00
sg25
I00
sg26
I15118364
sg17
S'104679.78053'
p1483
sba(igraph
Edge
p1484
(dp1485
g7
I1
sg8
I00
sg9
I5
sg10
(lp1486
g1013
ag1260
asg24
I00
sg25
I00
sg26
I15118365
sg17
S'104679.793568'
p1487
sba(igraph
Edge
p1488
(dp1489
g7
I1
sg8
I00
sg9
I5
sg10
(lp1490
g1013
ag1267
asg24
I00
sg25
I00
sg26
I15118366
sg17
S'104679.810421'
p1491
sba(igraph
Edge
p1492
(dp1493
g7
I1
sg8
I00
sg9
I5
sg10
(lp1494
g1144
ag1267
asg24
I00
sg25
I00
sg26
I15118367
sg17
S'104679.821561'
p1495
sba(igraph
Edge
p1496
(dp1497
g7
I1
sg8
I00
sg9
I5
sg10
(lp1498
g1144
ag1405
asg24
I00
sg25
I00
sg26
I15118368
sg17
S'104679.832665'
p1499
sba(igraph
Edge
p1500
(dp1501
g7
I1
sg8
I00
sg9
I5
sg10
(lp1502
(igraph
Vertex
p1503
(dp1504
g14
F-127.63479521385531
sg15
F-162.08669481731297
sg16
I15118665
sg8
I00
sg17
S'104678.087265'
p1505
sg19
g20
sba(igraph
Vertex
p1506
(dp1507
g14
F-127.63479521385531
sg15
F-119.18853989881947
sg16
I15118666
sg8
I00
sg17
S'104678.088633'
p1508
sg19
g20
sbasg24
I00
sg25
I00
sg26
I15118369
sg17
S'104679.843709'
p1509
sba(igraph
Edge
p1510
(dp1511
g7
I1
sg8
I00
sg9
I5
sg10
(lp1512
(igraph
Vertex
p1513
(dp1514
g14
F-92.449295288007647
sg15
F-162.08669481731297
sg16
I15118667
sg8
I00
sg17
S'104678.090017'
p1515
sg19
g20
sba(igraph
Vertex
p1516
(dp1517
g14
F-92.449295288007647
sg15
F-119.18853989881947
sg16
I15118668
sg8
I00
sg17
S'104678.091443'
p1518
sg19
g20
sbasg24
I00
sg25
I00
sg26
I15118370
sg17
S'104679.855008'
p1519
sba(igraph
Edge
p1520
(dp1521
g7
I1
sg8
I00
sg9
I5
sg10
(lp1522
g1503
ag1513
asg24
I00
sg25
I00
sg26
I15118371
sg17
S'104679.869157'
p1523
sba(igraph
Edge
p1524
(dp1525
g7
I1
sg8
I00
sg9
I5
sg10
(lp1526
g1506
ag1516
asg24
I00
sg25
I00
sg26
I15118372
sg17
S'104679.880291'
p1527
sba(igraph
Edge
p1528
(dp1529
g7
I1
sg8
I00
sg9
I5
sg10
(lp1530
g1506
ag1513
asg24
I00
sg25
I00
sg26
I15118373
sg17
S'104679.891293'
p1531
sba(igraph
Edge
p1532
(dp1533
g7
I1
sg8
I00
sg9
I5
sg10
(lp1534
(igraph
Vertex
p1535
(dp1536
g14
F-127.67365036714767
sg15
F-72.89537762788072
sg16
I15118669
sg8
I00
sg17
S'104678.092922'
p1537
sg19
g20
sba(igraph
Vertex
p1538
(dp1539
g14
F-127.67365036714767
sg15
F-29.997222709387216
sg16
I15118670
sg8
I00
sg17
S'104678.094346'
p1540
sg19
g20
sbasg24
I00
sg25
I00
sg26
I15118374
sg17
S'104679.902244'
p1541
sba(igraph
Edge
p1542
(dp1543
g7
I1
sg8
I00
sg9
I5
sg10
(lp1544
g1538
a(igraph
Vertex
p1545
(dp1546
g14
F-127.67365036714767
sg15
F12.900932209106344
sg16
I15118671
sg8
I00
sg17
S'104678.095774'
p1547
sg19
g20
sbasg24
I00
sg25
I00
sg26
I15118375
sg17
S'104679.912524'
p1548
sba(igraph
Edge
p1549
(dp1550
g7
I1
sg8
I00
sg9
I5
sg10
(lp1551
(igraph
Vertex
p1552
(dp1553
g14
F-92.488150441300036
sg15
F-72.89537762788072
sg16
I15118672
sg8
I00
sg17
S'104678.09739'
p1554
sg19
g20
sba(igraph
Vertex
p1555
(dp1556
g14
F-92.488150441300036
sg15
F-29.997222709387216
sg16
I15118673
sg8
I00
sg17
S'104678.098864'
p1557
sg19
g20
sbasg24
I00
sg25
I00
sg26
I15118376
sg17
S'104679.923014'
p1558
sba(igraph
Edge
p1559
(dp1560
g7
I1
sg8
I00
sg9
I5
sg10
(lp1561
g1555
a(igraph
Vertex
p1562
(dp1563
g14
F-92.488150441300036
sg15
F12.900932209106344
sg16
I15118674
sg8
I00
sg17
S'104678.100331'
p1564
sg19
g20
sbasg24
I00
sg25
I00
sg26
I15118377
sg17
S'104679.934139'
p1565
sba(igraph
Edge
p1566
(dp1567
g7
I1
sg8
I00
sg9
I5
sg10
(lp1568
g1535
ag1552
asg24
I00
sg25
I00
sg26
I15118378
sg17
S'104679.946373'
p1569
sba(igraph
Edge
p1570
(dp1571
g7
I1
sg8
I00
sg9
I5
sg10
(lp1572
g1538
ag1555
asg24
I00
sg25
I00
sg26
I15118379
sg17
S'104679.96339'
p1573
sba(igraph
Edge
p1574
(dp1575
g7
I1
sg8
I00
sg9
I5
sg10
(lp1576
g1545
ag1562
asg24
I00
sg25
I00
sg26
I15118380
sg17
S'104679.977186'
p1577
sba(igraph
Edge
p1578
(dp1579
g7
I1
sg8
I00
sg9
I5
sg10
(lp1580
g1538
ag1552
asg24
I00
sg25
I00
sg26
I15118381
sg17
S'104679.989597'
p1581
sba(igraph
Edge
p1582
(dp1583
g7
I1
sg8
I00
sg9
I5
sg10
(lp1584
g1545
ag1555
asg24
I00
sg25
I00
sg26
I15118382
sg17
S'104680.001137'
p1585
sba(igraph
Edge
p1586
(dp1587
g7
I1
sg8
I00
sg9
I5
sg10
(lp1588
g1506
ag1535
asg24
I00
sg25
I00
sg26
I15118383
sg17
S'104680.014188'
p1589
sba(igraph
Edge
p1590
(dp1591
g7
I1
sg8
I00
sg9
I5
sg10
(lp1592
g1516
ag1535
asg24
I00
sg25
I00
sg26
I15118384
sg17
S'104680.026254'
p1593
sba(igraph
Edge
p1594
(dp1595
g7
I1
sg8
I00
sg9
I5
sg10
(lp1596
g1516
ag1552
asg24
I00
sg25
I00
sg26
I15118385
sg17
S'104680.03786'
p1597
sba(igraph
Edge
p1598
(dp1599
g7
I1
sg8
I00
sg9
I5
sg10
(lp1600
(igraph
Vertex
p1601
(dp1602
g14
F-127.77683892660667
sg15
F57.84706972456442
sg16
I15118675
sg8
I00
sg17
S'104678.101815'
p1603
sg19
g20
sba(igraph
Vertex
p1604
(dp1605
g14
F-127.77683892660667
sg15
F100.74522464305798
sg16
I15118676
sg8
I00
sg17
S'104678.103354'
p1606
sg19
g20
sbasg24
I00
sg25
I00
sg26
I15118386
sg17
S'104680.04899'
p1607
sba(igraph
Edge
p1608
(dp1609
g7
I1
sg8
I00
sg9
I5
sg10
(lp1610
g1604
a(igraph
Vertex
p1611
(dp1612
g14
F-127.77683892660667
sg15
F143.64337956155148
sg16
I15118677
sg8
I00
sg17
S'104678.10487'
p1613
sg19
g20
sbasg24
I00
sg25
I00
sg26
I15118387
sg17
S'104680.060172'
p1614
sba(igraph
Edge
p1615
(dp1616
g7
I1
sg8
I00
sg9
I5
sg10
(lp1617
(igraph
Vertex
p1618
(dp1619
g14
F-92.591339000759092
sg15
F57.84706972456442
sg16
I15118678
sg8
I00
sg17
S'104678.106392'
p1620
sg19
g20
sba(igraph
Vertex
p1621
(dp1622
g14
F-92.591339000759092
sg15
F100.74522464305798
sg16
I15118679
sg8
I00
sg17
S'104678.107924'
p1623
sg19
I0
sbasg24
I00
sg25
I00
sg26
I15118388
sg17
S'104680.072132'
p1624
sba(igraph
Edge
p1625
(dp1626
g7
I1
sg8
I00
sg9
I5
sg10
(lp1627
g1621
a(igraph
Vertex
p1628
(dp1629
g14
F-92.591339000759092
sg15
F143.64337956155148
sg16
I15118681
sg8
I00
sg17
S'104678.109492'
p1630
sg19
g20
sbasg24
I00
sg25
I00
sg26
I15118389
sg17
S'104680.083482'
p1631
sba(igraph
Edge
p1632
(dp1633
g7
I1
sg8
I00
sg9
I5
sg10
(lp1634
g1601
ag1618
asg24
I00
sg25
I00
sg26
I15118390
sg17
S'104680.095263'
p1635
sba(igraph
Edge
p1636
(dp1637
g7
I1
sg8
I00
sg9
I5
sg10
(lp1638
g1604
ag1621
asg24
I00
sg25
I00
sg26
I15118391
sg17
S'104680.106148'
p1639
sba(igraph
Edge
p1640
(dp1641
g7
I1
sg8
I00
sg9
I5
sg10
(lp1642
g1611
ag1628
asg24
I00
sg25
I00
sg26
I15118392
sg17
S'104680.117475'
p1643
sba(igraph
Edge
p1644
(dp1645
g7
I1
sg8
I00
sg9
I5
sg10
(lp1646
g1604
ag1618
asg24
I00
sg25
I00
sg26
I15118393
sg17
S'104680.127833'
p1647
sba(igraph
Edge
p1648
(dp1649
g7
I1
sg8
I00
sg9
I5
sg10
(lp1650
g1611
ag1621
asg24
I00
sg25
I00
sg26
I15118394
sg17
S'104680.137606'
p1651
sba(igraph
Edge
p1652
(dp1653
g7
I1
sg8
I00
sg9
I5
sg10
(lp1654
(igraph
Vertex
p1655
(dp1656
g14
F-127.815694079899
sg15
F189.93654183249029
sg16
I15118682
sg8
I00
sg17
S'104678.111051'
p1657
sg19
I0
sba(igraph
Vertex
p1658
(dp1659
g14
F-92.630194154051424
sg15
F189.93654183249029
sg16
I15118684
sg8
I00
sg17
S'104678.112627'
p1660
sg19
g20
sbasg24
I00
sg25
I00
sg26
I15118395
sg17
S'104680.147822'
p1661
sba(igraph
Edge
p1662
(dp1663
g7
I1
sg8
I00
sg9
I5
sg10
(lp1664
g1611
ag1655
asg24
I00
sg25
I00
sg26
I15118396
sg17
S'104680.157853'
p1665
sba(igraph
Edge
p1666
(dp1667
g7
I1
sg8
I00
sg9
I5
sg10
(lp1668
g1628
ag1655
asg24
I00
sg25
I00
sg26
I15118397
sg17
S'104680.168096'
p1669
sba(igraph
Edge
p1670
(dp1671
g7
I1
sg8
I00
sg9
I5
sg10
(lp1672
g1628
ag1658
asg24
I00
sg25
I00
sg26
I15118398
sg17
S'104680.178286'
p1673
sba(igraph
Edge
p1674
(dp1675
g7
I1
sg8
I00
sg9
I5
sg10
(lp1676
g1545
ag1601
asg24
I00
sg25
I00
sg26
I15118399
sg17
S'104680.191097'
p1677
sba(igraph
Edge
p1678
(dp1679
g7
I1
sg8
I00
sg9
I5
sg10
(lp1680
g1562
ag1601
asg24
I00
sg25
I00
sg26
I15118400
sg17
S'104680.203022'
p1681
sba(igraph
Edge
p1682
(dp1683
g7
I1
sg8
I00
sg9
I5
sg10
(lp1684
g1562
ag1618
asg24
I00
sg25
I00
sg26
I15118401
sg17
S'104680.214268'
p1685
sba(igraph
Edge
p1686
(dp1687
g7
I1
sg8
I00
sg9
I5
sg10
(lp1688
(igraph
Vertex
p1689
(dp1690
g14
F-125.15049984639154
sg15
F237.05380364249575
sg16
I15118685
sg8
I00
sg17
S'104678.114209'
p1691
sg19
g20
sba(igraph
Vertex
p1692
(dp1693
g14
F-89.964999920543903
sg15
F237.05380364249575
sg16
I15118686
sg8
I00
sg17
S'104678.115815'
p1694
sg19
g20
sbasg24
I00
sg25
I00
sg26
I15118402
sg17
S'104680.224824'
p1695
sba(igraph
Edge
p1696
(dp1697
g7
I1
sg8
I00
sg9
I5
sg10
(lp1698
g1655
ag1689
asg24
I00
sg25
I00
sg26
I15118403
sg17
S'104680.235298'
p1699
sba(igraph
Edge
p1700
(dp1701
g7
I1
sg8
I00
sg9
I5
sg10
(lp1702
g1658
ag1689
asg24
I00
sg25
I00
sg26
I15118404
sg17
S'104680.246368'
p1703
sba(igraph
Edge
p1704
(dp1705
g7
I1
sg8
I00
sg9
I5
sg10
(lp1706
g1658
ag1692
asg24
I00
sg25
I00
sg26
I15118405
sg17
S'104680.256921'
p1707
sba(igraph
Edge
p1708
(dp1709
g7
I1
sg8
I00
sg9
I5
sg10
(lp1710
g330
ag1513
asg24
I00
sg25
I00
sg26
I15118406
sg17
S'104680.267355'
p1711
sba(igraph
Edge
p1712
(dp1713
g7
I1
sg8
I00
sg9
I5
sg10
(lp1714
g330
ag1516
asg24
I00
sg25
I00
sg26
I15118407
sg17
S'104680.278006'
p1715
sba(igraph
Edge
p1716
(dp1717
g7
I1
sg8
I00
sg9
I5
sg10
(lp1718
g333
ag1516
asg24
I00
sg25
I00
sg26
I15118408
sg17
S'104680.288623'
p1719
sba(igraph
Edge
p1720
(dp1721
g7
I1
sg8
I00
sg9
I5
sg10
(lp1722
g333
ag1552
asg24
I00
sg25
I00
sg26
I15118409
sg17
S'104680.29909'
p1723
sba(igraph
Edge
p1724
(dp1725
g7
I1
sg8
I00
sg9
I5
sg10
(lp1726
g340
ag1552
asg24
I00
sg25
I00
sg26
I15118410
sg17
S'104680.312313'
p1727
sba(igraph
Edge
p1728
(dp1729
g7
I1
sg8
I00
sg9
I5
sg10
(lp1730
g340
ag1555
asg24
I00
sg25
I00
sg26
I15118411
sg17
S'104680.322854'
p1731
sba(igraph
Edge
p1732
(dp1733
g7
I1
sg8
I00
sg9
I5
sg10
(lp1734
g343
ag1555
asg24
I00
sg25
I00
sg26
I15118412
sg17
S'104680.333837'
p1735
sba(igraph
Edge
p1736
(dp1737
g7
I1
sg8
I00
sg9
I5
sg10
(lp1738
g343
ag1562
asg24
I00
sg25
I00
sg26
I15118413
sg17
S'104680.344321'
p1739
sba(igraph
Edge
p1740
(dp1741
g7
I1
sg8
I00
sg9
I5
sg10
(lp1742
g350
ag1562
asg24
I00
sg25
I00
sg26
I15118414
sg17
S'104680.356777'
p1743
sba(igraph
Edge
p1744
(dp1745
g7
I1
sg8
I00
sg9
I5
sg10
(lp1746
g350
ag1618
asg24
I00
sg25
I00
sg26
I15118415
sg17
S'104680.36783'
p1747
sba(igraph
Edge
p1748
(dp1749
g7
I1
sg8
I00
sg9
I5
sg10
(lp1750
g361
ag1618
asg24
I00
sg25
I00
sg26
I15118416
sg17
S'104680.379011'
p1751
sba(igraph
Edge
p1752
(dp1753
g7
I1
sg8
I00
sg9
I5
sg10
(lp1754
g361
ag1621
asg24
I00
sg25
I00
sg26
I15118417
sg17
S'104680.389691'
p1755
sba(igraph
Edge
p1756
(dp1757
g7
I1
sg8
I00
sg9
I5
sg10
(lp1758
g364
ag1621
asg24
I00
sg25
I00
sg26
I15118418
sg17
S'104680.400582'
p1759
sba(igraph
Edge
p1760
(dp1761
g7
I1
sg8
I00
sg9
I5
sg10
(lp1762
g364
ag1628
asg24
I00
sg25
I00
sg26
I15118419
sg17
S'104680.411398'
p1763
sba(igraph
Edge
p1764
(dp1765
g7
I1
sg8
I00
sg9
I5
sg10
(lp1766
g371
ag1628
asg24
I00
sg25
I00
sg26
I15118420
sg17
S'104680.422182'
p1767
sba(igraph
Edge
p1768
(dp1769
g7
I1
sg8
I00
sg9
I5
sg10
(lp1770
g371
ag1658
asg24
I00
sg25
I00
sg26
I15118421
sg17
S'104680.434393'
p1771
sba(igraph
Edge
p1772
(dp1773
g7
I1
sg8
I00
sg9
I5
sg10
(lp1774
g378
ag1658
asg24
I00
sg25
I00
sg26
I15118422
sg17
S'104680.445213'
p1775
sba(igraph
Edge
p1776
(dp1777
g7
I1
sg8
I00
sg9
I5
sg10
(lp1778
g378
ag1692
asg24
I00
sg25
I00
sg26
I15118423
sg17
S'104680.456061'
p1779
sba(igraph
Edge
p1780
(dp1781
g7
I1
sg8
I00
sg9
I5
sg10
(lp1782
g1109
ag1692
asg24
I00
sg25
I00
sg26
I15118424
sg17
S'104680.466976'
p1783
sba(igraph
Edge
p1784
(dp1785
g7
I1
sg8
I00
sg9
I5
sg10
(lp1786
(igraph
Vertex
p1787
(dp1788
g14
F-27.408918476021199
sg15
F-239.01747686340639
sg16
I15118687
sg8
I00
sg17
S'104678.217815'
p1789
sg19
g20
sba(igraph
Vertex
p1790
(dp1791
g14
F-27.408918476021199
sg15
F-196.11932194491288
sg16
I15118688
sg8
I00
sg17
S'104678.220522'
p1792
sg19
g20
sbasg24
I00
sg25
I00
sg26
I15118425
sg17
S'104682.704695'
p1793
sba(igraph
Edge
p1794
(dp1795
g7
I1
sg8
I00
sg9
I5
sg10
(lp1796
(igraph
Vertex
p1797
(dp1798
g14
F7.7765814498263524
sg15
F-239.01747686340639
sg16
I15118689
sg8
I00
sg17
S'104678.222834'
p1799
sg19
g20
sba(igraph
Vertex
p1800
(dp1801
g14
F7.7765814498263524
sg15
F-196.11932194491288
sg16
I15118690
sg8
I00
sg17
S'104678.225202'
p1802
sg19
g20
sbasg24
I00
sg25
I00
sg26
I15118426
sg17
S'104682.730075'
p1803
sba(igraph
Edge
p1804
(dp1805
g7
I1
sg8
I00
sg9
I5
sg10
(lp1806
(igraph
Vertex
p1807
(dp1808
g14
F42.962081375673989
sg15
F-239.01747686340639
sg16
I15118691
sg8
I00
sg17
S'104678.227743'
p1809
sg19
g20
sba(igraph
Vertex
p1810
(dp1811
g14
F42.962081375673989
sg15
F-196.11932194491288
sg16
I15118692
sg8
I00
sg17
S'104678.23014'
p1812
sg19
g20
sbasg24
I00
sg25
I00
sg26
I15118427
sg17
S'104682.747536'
p1813
sba(igraph
Edge
p1814
(dp1815
g7
I1
sg8
I00
sg9
I5
sg10
(lp1816
g1787
ag1797
asg24
I00
sg25
I00
sg26
I15118428
sg17
S'104682.764753'
p1817
sba(igraph
Edge
p1818
(dp1819
g7
I1
sg8
I00
sg9
I5
sg10
(lp1820
g1790
ag1800
asg24
I00
sg25
I00
sg26
I15118429
sg17
S'104682.791382'
p1821
sba(igraph
Edge
p1822
(dp1823
g7
I1
sg8
I00
sg9
I5
sg10
(lp1824
g1797
ag1807
asg24
I00
sg25
I00
sg26
I15118430
sg17
S'104682.812617'
p1825
sba(igraph
Edge
p1826
(dp1827
g7
I1
sg8
I00
sg9
I5
sg10
(lp1828
g1800
ag1810
asg24
I00
sg25
I00
sg26
I15118431
sg17
S'104682.832573'
p1829
sba(igraph
Edge
p1830
(dp1831
g7
I1
sg8
I00
sg9
I5
sg10
(lp1832
g1790
ag1797
asg24
I00
sg25
I00
sg26
I15118432
sg17
S'104682.850998'
p1833
sba(igraph
Edge
p1834
(dp1835
g7
I1
sg8
I00
sg9
I5
sg10
(lp1836
g1800
ag1807
asg24
I00
sg25
I00
sg26
I15118433
sg17
S'104682.870613'
p1837
sba(igraph
Edge
p1838
(dp1839
g7
I1
sg8
I00
sg9
I5
sg10
(lp1840
(igraph
Vertex
p1841
(dp1842
g14
F-58.926801333217895
sg15
F-238.49077217537939
sg16
I15118693
sg8
I00
sg17
S'104678.23254'
p1843
sg19
g20
sba(igraph
Vertex
p1844
(dp1845
g14
F-58.926801333217895
sg15
F-195.59261725688589
sg16
I15118694
sg8
I00
sg17
S'104678.234947'
p1846
sg19
g20
sbasg24
I00
sg25
I00
sg26
I15118434
sg17
S'104682.888658'
p1847
sba(igraph
Edge
p1848
(dp1849
g7
I1
sg8
I00
sg9
I5
sg10
(lp1850
g1787
ag1841
asg24
I00
sg25
I00
sg26
I15118435
sg17
S'104682.90708'
p1851
sba(igraph
Edge
p1852
(dp1853
g7
I1
sg8
I00
sg9
I5
sg10
(lp1854
g1787
ag1844
asg24
I00
sg25
I00
sg26
I15118436
sg17
S'104682.925592'
p1855
sba(igraph
Edge
p1856
(dp1857
g7
I1
sg8
I00
sg9
I5
sg10
(lp1858
g1790
ag1844
asg24
I00
sg25
I00
sg26
I15118437
sg17
S'104682.947236'
p1859
sba(igraph
Edge
p1860
(dp1861
g7
I1
sg8
I00
sg9
I5
sg10
(lp1862
(igraph
Vertex
p1863
(dp1864
g14
F76.552755331995485
sg15
F-239.02325824620573
sg16
I15118695
sg8
I00
sg17
S'104678.237441'
p1865
sg19
g20
sba(igraph
Vertex
p1866
(dp1867
g14
F76.552755331995485
sg15
F-196.12510332771222
sg16
I15118696
sg8
I00
sg17
S'104678.239923'
p1868
sg19
g20
sbasg24
I00
sg25
I00
sg26
I15118438
sg17
S'104682.964807'
p1869
sba(igraph
Edge
p1870
(dp1871
g7
I1
sg8
I00
sg9
I5
sg10
(lp1872
g1807
ag1863
asg24
I00
sg25
I00
sg26
I15118439
sg17
S'104682.983925'
p1873
sba(igraph
Edge
p1874
(dp1875
g7
I1
sg8
I00
sg9
I5
sg10
(lp1876
g1810
ag1863
asg24
I00
sg25
I00
sg26
I15118440
sg17
S'104683.003556'
p1877
sba(igraph
Edge
p1878
(dp1879
g7
I1
sg8
I00
sg9
I5
sg10
(lp1880
g1810
ag1866
asg24
I00
sg25
I00
sg26
I15118441
sg17
S'104683.021417'
p1881
sba(igraph
Edge
p1882
(dp1883
g7
I1
sg8
I00
sg9
I5
sg10
(lp1884
(igraph
Vertex
p1885
(dp1886
g14
F110.28774292504764
sg15
F-237.02325824620573
sg16
I15118697
sg8
I00
sg17
S'104678.242334'
p1887
sg19
g20
sba(igraph
Vertex
p1888
(dp1889
g14
F110.28774292504764
sg15
F-194.12510332771222
sg16
I15118698
sg8
I00
sg17
S'104678.244826'
p1890
sg19
g20
sbasg24
I00
sg25
I00
sg26
I15118442
sg17
S'104683.042087'
p1891
sba(igraph
Edge
p1892
(dp1893
g7
I1
sg8
I00
sg9
I5
sg10
(lp1894
g1863
ag1885
asg24
I00
sg25
I00
sg26
I15118443
sg17
S'104683.063758'
p1895
sba(igraph
Edge
p1896
(dp1897
g7
I1
sg8
I00
sg9
I5
sg10
(lp1898
g1866
ag1885
asg24
I00
sg25
I00
sg26
I15118444
sg17
S'104683.084748'
p1899
sba(igraph
Edge
p1900
(dp1901
g7
I1
sg8
I00
sg9
I5
sg10
(lp1902
g1866
ag1888
asg24
I00
sg25
I00
sg26
I15118445
sg17
S'104683.108017'
p1903
sba(igraph
Edge
p1904
(dp1905
g7
I1
sg8
I00
sg9
I5
sg10
(lp1906
(igraph
Vertex
p1907
(dp1908
g14
F145.11822832795278
sg15
F-238.31715598650919
sg16
I15118699
sg8
I00
sg17
S'104678.247323'
p1909
sg19
g20
sba(igraph
Vertex
p1910
(dp1911
g14
F145.11822832795278
sg15
F-195.41900106801575
sg16
I15118700
sg8
I00
sg17
S'104678.249842'
p1912
sg19
g20
sbasg24
I00
sg25
I00
sg26
I15118446
sg17
S'104683.1285'
p1913
sba(igraph
Edge
p1914
(dp1915
g7
I1
sg8
I00
sg9
I5
sg10
(lp1916
g1885
ag1907
asg24
I00
sg25
I00
sg26
I15118447
sg17
S'104683.149542'
p1917
sba(igraph
Edge
p1918
(dp1919
g7
I1
sg8
I00
sg9
I5
sg10
(lp1920
g1888
ag1907
asg24
I00
sg25
I00
sg26
I15118448
sg17
S'104683.169465'
p1921
sba(igraph
Edge
p1922
(dp1923
g7
I1
sg8
I00
sg9
I5
sg10
(lp1924
g1888
ag1910
asg24
I00
sg25
I00
sg26
I15118449
sg17
S'104683.188501'
p1925
sba(igraph
Edge
p1926
(dp1927
g7
I1
sg8
I00
sg9
I5
sg10
(lp1928
(igraph
Vertex
p1929
(dp1930
g14
F176.32309185152596
sg15
F-236.31715598650925
sg16
I15118701
sg8
I00
sg17
S'104678.252369'
p1931
sg19
g20
sba(igraph
Vertex
p1932
(dp1933
g14
F176.32309185152596
sg15
F-193.41900106801575
sg16
I15118702
sg8
I00
sg17
S'104678.254915'
p1934
sg19
g20
sbasg24
I00
sg25
I00
sg26
I15118450
sg17
S'104683.207481'
p1935
sba(igraph
Edge
p1936
(dp1937
g7
I1
sg8
I00
sg9
I5
sg10
(lp1938
g1907
ag1929
asg24
I00
sg25
I00
sg26
I15118451
sg17
S'104683.226909'
p1939
sba(igraph
Edge
p1940
(dp1941
g7
I1
sg8
I00
sg9
I5
sg10
(lp1942
g1910
ag1929
asg24
I00
sg25
I00
sg26
I15118452
sg17
S'104683.245663'
p1943
sba(igraph
Edge
p1944
(dp1945
g7
I1
sg8
I00
sg9
I5
sg10
(lp1946
g1910
ag1932
asg24
I00
sg25
I00
sg26
I15118453
sg17
S'104683.267857'
p1947
sba(igraph
Edge
p1948
(dp1949
g7
I1
sg8
I00
sg9
I5
sg10
(lp1950
(igraph
Vertex
p1951
(dp1952
g14
F208.79301740983865
sg15
F-240.31715598650928
sg16
I15118703
sg8
I00
sg17
S'104678.257458'
p1953
sg19
g20
sba(igraph
Vertex
p1954
(dp1955
g14
F208.79301740983865
sg15
F-197.41900106801575
sg16
I15118704
sg8
I00
sg17
S'104678.260153'
p1956
sg19
I0
sbasg24
I00
sg25
I00
sg26
I15118454
sg17
S'104683.290747'
p1957
sba(igraph
Edge
p1958
(dp1959
g7
I1
sg8
I00
sg9
I5
sg10
(lp1960
g1929
ag1951
asg24
I00
sg25
I00
sg26
I15118455
sg17
S'104683.316495'
p1961
sba(igraph
Edge
p1962
(dp1963
g7
I1
sg8
I00
sg9
I5
sg10
(lp1964
g1932
ag1951
asg24
I00
sg25
I00
sg26
I15118456
sg17
S'104683.34007'
p1965
sba(igraph
Edge
p1966
(dp1967
g7
I1
sg8
I00
sg9
I5
sg10
(lp1968
g1932
ag1954
asg24
I00
sg25
I00
sg26
I15118457
sg17
S'104683.36628'
p1969
sba(igraph
Edge
p1970
(dp1971
g7
I1
sg8
I00
sg9
I5
sg10
(lp1972
(igraph
Vertex
p1973
(dp1974
g14
F235.68144379570921
sg15
F-237.15124816188865
sg16
I15118706
sg8
I00
sg17
S'104678.26272'
p1975
sg19
g20
sba(igraph
Vertex
p1976
(dp1977
g14
F235.68144379570921
sg15
F-194.25309324339514
sg16
I15118707
sg8
I00
sg17
S'104678.265324'
p1978
sg19
g20
sbasg24
I00
sg25
I00
sg26
I15118458
sg17
S'104683.387363'
p1979
sba(igraph
Edge
p1980
(dp1981
g7
I1
sg8
I00
sg9
I5
sg10
(lp1982
(igraph
Vertex
p1983
(dp1984
g14
F266.67121647766305
sg15
F-236.03007639123103
sg16
I15118708
sg8
I00
sg17
S'104678.303786'
p1985
sg19
I0
sba(igraph
Vertex
p1986
(dp1987
g14
F266.88630731928242
sg15
F-192.25309324339514
sg16
I15118710
sg8
I00
sg17
S'104678.306541'
p1988
sg19
g20
sbasg24
I00
sg25
I00
sg26
I15118459
sg17
S'104683.410183'
p1989
sba(igraph
Edge
p1990
(dp1991
g7
I1
sg8
I00
sg9
I5
sg10
(lp1992
g1973
ag1983
asg24
I00
sg25
I00
sg26
I15118460
sg17
S'104683.430677'
p1993
sba(igraph
Edge
p1994
(dp1995
g7
I1
sg8
I00
sg9
I5
sg10
(lp1996
g1976
ag1983
asg24
I00
sg25
I00
sg26
I15118461
sg17
S'104683.451304'
p1997
sba(igraph
Edge
p1998
(dp1999
g7
I1
sg8
I00
sg9
I5
sg10
(lp2000
g1976
ag1986
asg24
I00
sg25
I00
sg26
I15118462
sg17
S'104683.470337'
p2001
sba(igraph
Edge
p2002
(dp2003
g7
I1
sg8
I00
sg9
I5
sg10
(lp2004
g1951
ag1973
asg24
I00
sg25
I00
sg26
I15118463
sg17
S'104683.491348'
p2005
sba(igraph
Edge
p2006
(dp2007
g7
I1
sg8
I00
sg9
I5
sg10
(lp2008
g1954
ag1973
asg24
I00
sg25
I00
sg26
I15118464
sg17
S'104683.512087'
p2009
sba(igraph
Edge
p2010
(dp2011
g7
I1
sg8
I00
sg9
I5
sg10
(lp2012
g1954
ag1976
asg24
I00
sg25
I00
sg26
I15118465
sg17
S'104683.532626'
p2013
sba(igraph
Edge
p2014
(dp2015
g7
I1
sg8
I00
sg9
I5
sg10
(lp2016
(igraph
Vertex
p2017
(dp2018
g14
F-128.42842475701536
sg15
F-238.41460050590211
sg16
I15118711
sg8
I00
sg17
S'104678.309237'
p2019
sg19
g20
sba(igraph
Vertex
p2020
(dp2021
g14
F-128.42842475701536
sg15
F-195.51644558740861
sg16
I15118712
sg8
I00
sg17
S'104678.311859'
p2022
sg19
g20
sbasg24
I00
sg25
I00
sg26
I15118466
sg17
S'104683.552801'
p2023
sba(igraph
Edge
p2024
(dp2025
g7
I1
sg8
I00
sg9
I5
sg10
(lp2026
(igraph
Vertex
p2027
(dp2028
g14
F-93.242924831167699
sg15
F-238.41460050590211
sg16
I15118713
sg8
I00
sg17
S'104678.316825'
p2029
sg19
g20
sba(igraph
Vertex
p2030
(dp2031
g14
F-93.242924831167699
sg15
F-195.51644558740861
sg16
I15118714
sg8
I00
sg17
S'104678.319532'
p2032
sg19
g20
sbasg24
I00
sg25
I00
sg26
I15118467
sg17
S'104683.574526'
p2033
sba(igraph
Edge
p2034
(dp2035
g7
I1
sg8
I00
sg9
I5
sg10
(lp2036
g2017
ag2027
asg24
I00
sg25
I00
sg26
I15118468
sg17
S'104683.594938'
p2037
sba(igraph
Edge
p2038
(dp2039
g7
I1
sg8
I00
sg9
I5
sg10
(lp2040
g2020
ag2030
asg24
I00
sg25
I00
sg26
I15118469
sg17
S'104683.615828'
p2041
sba(igraph
Edge
p2042
(dp2043
g7
I1
sg8
I00
sg9
I5
sg10
(lp2044
g2020
ag2027
asg24
I00
sg25
I00
sg26
I15118470
sg17
S'104683.639628'
p2045
sba(igraph
Edge
p2046
(dp2047
g7
I1
sg8
I00
sg9
I5
sg10
(lp2048
g1841
ag2027
asg24
I00
sg25
I00
sg26
I15118471
sg17
S'104683.659739'
p2049
sba(igraph
Edge
p2050
(dp2051
g7
I1
sg8
I00
sg9
I5
sg10
(lp2052
g1841
ag2030
asg24
I00
sg25
I00
sg26
I15118472
sg17
S'104683.682349'
p2053
sba(igraph
Edge
p2054
(dp2055
g7
I1
sg8
I00
sg9
I5
sg10
(lp2056
g1844
ag2030
asg24
I00
sg25
I00
sg26
I15118473
sg17
S'104683.706915'
p2057
sba(igraph
Edge
p2058
(dp2059
g7
I1
sg8
I00
sg9
I5
sg10
(lp2060
g1278
ag1986
asg24
I00
sg25
I00
sg26
I15118474
sg17
S'104684.228739'
p2061
sba(igraph
Edge
p2062
(dp2063
g7
I1
sg8
I00
sg9
I5
sg10
(lp2064
g1986
ag1219
asg24
I00
sg25
I00
sg26
I15118475
sg17
S'104684.262657'
p2065
sba(igraph
Edge
p2066
(dp2067
g7
I1
sg8
I00
sg9
I5
sg10
(lp2068
g1219
ag1976
asg24
I00
sg25
I00
sg26
I15118476
sg17
S'104684.320353'
p2069
sba(igraph
Edge
p2070
(dp2071
g7
I1
sg8
I00
sg9
I5
sg10
(lp2072
g1976
ag965
asg24
I00
sg25
I00
sg26
I15118477
sg17
S'104684.346351'
p2073
sba(igraph
Edge
p2074
(dp2075
g7
I1
sg8
I00
sg9
I5
sg10
(lp2076
g965
ag1954
asg24
I00
sg25
I00
sg26
I15118478
sg17
S'104684.387906'
p2077
sba(igraph
Edge
p2078
(dp2079
g7
I1
sg8
I00
sg9
I5
sg10
(lp2080
g1954
ag838
asg24
I00
sg25
I00
sg26
I15118479
sg17
S'104684.420435'
p2081
sba(igraph
Edge
p2082
(dp2083
g7
I1
sg8
I00
sg9
I5
sg10
(lp2084
g838
ag1932
asg24
I00
sg25
I00
sg26
I15118480
sg17
S'104684.446658'
p2085
sba(igraph
Edge
p2086
(dp2087
g7
I1
sg8
I00
sg9
I5
sg10
(lp2088
g1932
ag711
asg24
I00
sg25
I00
sg26
I15118481
sg17
S'104684.475914'
p2089
sba(igraph
Edge
p2090
(dp2091
g7
I1
sg8
I00
sg9
I5
sg10
(lp2092
g711
ag1910
asg24
I00
sg25
I00
sg26
I15118482
sg17
S'104684.511916'
p2093
sba(igraph
Edge
p2094
(dp2095
g7
I1
sg8
I00
sg9
I5
sg10
(lp2096
g1910
ag584
asg24
I00
sg25
I00
sg26
I15118483
sg17
S'104684.551471'
p2097
sba(igraph
Edge
p2098
(dp2099
g7
I1
sg8
I00
sg9
I5
sg10
(lp2100
g584
ag1888
asg24
I00
sg25
I00
sg26
I15118484
sg17
S'104684.580783'
p2101
sba(igraph
Edge
p2102
(dp2103
g7
I1
sg8
I00
sg9
I5
sg10
(lp2104
g1888
ag457
asg24
I00
sg25
I00
sg26
I15118485
sg17
S'104684.613012'
p2105
sba(igraph
Edge
p2106
(dp2107
g7
I1
sg8
I00
sg9
I5
sg10
(lp2108
g457
ag1866
asg24
I00
sg25
I00
sg26
I15118486
sg17
S'104684.64874'
p2109
sba(igraph
Edge
p2110
(dp2111
g7
I1
sg8
I00
sg9
I5
sg10
(lp2112
g1866
ag41
asg24
I00
sg25
I00
sg26
I15118487
sg17
S'104684.673021'
p2113
sba(igraph
Edge
p2114
(dp2115
g7
I1
sg8
I00
sg9
I5
sg10
(lp2116
g41
ag1810
asg24
I00
sg25
I00
sg26
I15118488
sg17
S'104684.696013'
p2117
sba(igraph
Edge
p2118
(dp2119
g7
I1
sg8
I00
sg9
I5
sg10
(lp2120
g1810
ag31
asg24
I00
sg25
I00
sg26
I15118489
sg17
S'104684.716239'
p2121
sba(igraph
Edge
p2122
(dp2123
g7
I1
sg8
I00
sg9
I5
sg10
(lp2124
g31
ag1800
asg24
I00
sg25
I00
sg26
I15118490
sg17
S'104684.73688'
p2125
sba(igraph
Edge
p2126
(dp2127
g7
I1
sg8
I00
sg9
I5
sg10
(lp2128
g1800
ag12
asg24
I00
sg25
I00
sg26
I15118491
sg17
S'104684.758434'
p2129
sba(igraph
Edge
p2130
(dp2131
g7
I1
sg8
I00
sg9
I5
sg10
(lp2132
g12
ag1790
asg24
I00
sg25
I00
sg26
I15118492
sg17
S'104684.77987'
p2133
sba(igraph
Edge
p2134
(dp2135
g7
I1
sg8
I00
sg9
I5
sg10
(lp2136
g1790
ag330
asg24
I00
sg25
I00
sg26
I15118493
sg17
S'104684.805379'
p2137
sba(igraph
Edge
p2138
(dp2139
g7
I1
sg8
I00
sg9
I5
sg10
(lp2140
g330
ag1844
asg24
I00
sg25
I00
sg26
I15118494
sg17
S'104684.828633'
p2141
sba(igraph
Edge
p2142
(dp2143
g7
I1
sg8
I00
sg9
I5
sg10
(lp2144
g1844
ag1513
asg24
I00
sg25
I00
sg26
I15118495
sg17
S'104684.853633'
p2145
sba(igraph
Edge
p2146
(dp2147
g7
I1
sg8
I00
sg9
I5
sg10
(lp2148
g1513
ag2030
asg24
I00
sg25
I00
sg26
I15118496
sg17
S'104684.876901'
p2149
sba(igraph
Edge
p2150
(dp2151
g7
I1
sg8
I00
sg9
I5
sg10
(lp2152
g2030
ag1503
asg24
I00
sg25
I00
sg26
I15118497
sg17
S'104684.900255'
p2153
sba(igraph
Edge
p2154
(dp2155
g7
I1
sg8
I00
sg9
I5
sg10
(lp2156
g1503
ag2020
asg24
I00
sg25
I00
sg26
I15118498
sg17
S'104684.92161'
p2157
sba(igraph
Edge
p2158
(dp2159
g7
I1
sg8
I00
sg9
I5
sg10
(lp2160
g1689
ag2017
asg24
I00
sg25
I00
sg26
I15118499
sg17
S'104685.370513'
p2161
sba(igraph
Edge
p2162
(dp2163
g7
I1
sg8
I00
sg9
I5
sg10
(lp2164
g1692
ag2017
asg24
I00
sg25
I00
sg26
I15118500
sg17
S'104685.389473'
p2165
sba(igraph
Edge
p2166
(dp2167
g7
I1
sg8
I00
sg9
I5
sg10
(lp2168
g1109
ag2027
asg24
I00
sg25
I00
sg26
I15118501
sg17
S'104685.408695'
p2169
sba(igraph
Edge
p2170
(dp2171
g7
I1
sg8
I00
sg9
I5
sg10
(lp2172
g1692
ag2027
asg24
I00
sg25
I00
sg26
I15118502
sg17
S'104685.429797'
p2173
sba(igraph
Edge
p2174
(dp2175
g7
I1
sg8
I00
sg9
I5
sg10
(lp2176
g1092
ag1841
asg24
I00
sg25
I00
sg26
I15118503
sg17
S'104685.449745'
p2177
sba(igraph
Edge
p2178
(dp2179
g7
I1
sg8
I00
sg9
I5
sg10
(lp2180
g1109
ag1841
asg24
I00
sg25
I00
sg26
I15118504
sg17
S'104685.469267'
p2181
sba(igraph
Edge
p2182
(dp2183
g7
I1
sg8
I00
sg9
I5
sg10
(lp2184
g1092
ag1787
asg24
I00
sg25
I00
sg26
I15118505
sg17
S'104685.488375'
p2185
sba(igraph
Edge
p2186
(dp2187
g7
I1
sg8
I00
sg9
I5
sg10
(lp2188
g1095
ag1787
asg24
I00
sg25
I00
sg26
I15118506
sg17
S'104685.507898'
p2189
sba(igraph
Edge
p2190
(dp2191
g7
I1
sg8
I00
sg9
I5
sg10
(lp2192
g1095
ag1797
asg24
I00
sg25
I00
sg26
I15118507
sg17
S'104685.527233'
p2193
sba(igraph
Edge
p2194
(dp2195
g7
I1
sg8
I00
sg9
I5
sg10
(lp2196
g1102
ag1797
asg24
I00
sg25
I00
sg26
I15118508
sg17
S'104685.546414'
p2197
sba(igraph
Edge
p2198
(dp2199
g7
I1
sg8
I00
sg9
I5
sg10
(lp2200
g1102
ag1807
asg24
I00
sg25
I00
sg26
I15118509
sg17
S'104685.56595'
p2201
sba(igraph
Edge
p2202
(dp2203
g7
I1
sg8
I00
sg9
I5
sg10
(lp2204
g1116
ag1807
asg24
I00
sg25
I00
sg26
I15118510
sg17
S'104685.585469'
p2205
sba(igraph
Edge
p2206
(dp2207
g7
I1
sg8
I00
sg9
I5
sg10
(lp2208
g1116
ag1863
asg24
I00
sg25
I00
sg26
I15118511
sg17
S'104685.604948'
p2209
sba(igraph
Edge
p2210
(dp2211
g7
I1
sg8
I00
sg9
I5
sg10
(lp2212
g1123
ag1863
asg24
I00
sg25
I00
sg26
I15118512
sg17
S'104685.624243'
p2213
sba(igraph
Edge
p2214
(dp2215
g7
I1
sg8
I00
sg9
I5
sg10
(lp2216
g1123
ag1885
asg24
I00
sg25
I00
sg26
I15118513
sg17
S'104685.643347'
p2217
sba(igraph
Edge
p2218
(dp2219
g7
I1
sg8
I00
sg9
I5
sg10
(lp2220
g1130
ag1885
asg24
I00
sg25
I00
sg26
I15118514
sg17
S'104685.663007'
p2221
sba(igraph
Edge
p2222
(dp2223
g7
I1
sg8
I00
sg9
I5
sg10
(lp2224
g1130
ag1907
asg24
I00
sg25
I00
sg26
I15118515
sg17
S'104685.682213'
p2225
sba(igraph
Edge
p2226
(dp2227
g7
I1
sg8
I00
sg9
I5
sg10
(lp2228
g1137
ag1907
asg24
I00
sg25
I00
sg26
I15118516
sg17
S'104685.701632'
p2229
sba(igraph
Edge
p2230
(dp2231
g7
I1
sg8
I00
sg9
I5
sg10
(lp2232
g1137
ag1929
asg24
I00
sg25
I00
sg26
I15118517
sg17
S'104685.720749'
p2233
sba(igraph
Edge
p2234
(dp2235
g7
I1
sg8
I00
sg9
I5
sg10
(lp2236
g1144
ag1929
asg24
I00
sg25
I00
sg26
I15118518
sg17
S'104685.741491'
p2237
sba(igraph
Edge
p2238
(dp2239
g7
I1
sg8
I00
sg9
I5
sg10
(lp2240
g1144
ag1951
asg24
I00
sg25
I00
sg26
I15118519
sg17
S'104685.760994'
p2241
sba(igraph
Edge
p2242
(dp2243
g7
I1
sg8
I00
sg9
I5
sg10
(lp2244
g1405
ag1951
asg24
I00
sg25
I00
sg26
I15118520
sg17
S'104685.780744'
p2245
sba(igraph
Edge
p2246
(dp2247
g7
I1
sg8
I00
sg9
I5
sg10
(lp2248
g1405
ag1973
asg24
I00
sg25
I00
sg26
I15118521
sg17
S'104685.800413'
p2249
sba(igraph
Edge
p2250
(dp2251
g7
I1
sg8
I00
sg9
I5
sg10
(lp2252
g1408
ag1973
asg24
I00
sg25
I00
sg26
I15118522
sg17
S'104685.820769'
p2253
sba(igraph
Edge
p2254
(dp2255
g7
I1
sg8
I00
sg9
I5
sg10
(lp2256
g1408
ag1983
asg24
I00
sg25
I00
sg26
I15118523
sg17
S'104685.840289'
p2257
sba(igraph
Edge
p2258
(dp2259
g7
I1
sg8
I00
sg9
I5
sg10
(lp2260
g85
ag102
asg24
I00
sg25
I00
sg26
I15118524
sg17
S'104686.102505'
p2261
sba(igraph
Edge
p2262
(dp2263
g7
I1
sg8
I00
sg9
I5
sg10
(lp2264
g1986
ag2017
asg24
I00
sg25
I00
sg26
I15118525
sg17
S'105885.377561'
p2265
sba(igraph
Edge
p2266
(dp2267
g7
I1
sg8
I00
sg9
I5
sg10
(lp2268
g1986
ag2020
asg24
I00
sg25
I00
sg26
I15118526
sg17
S'105885.396529'
p2269
sba(igraph
Edge
p2270
(dp2271
g7
I1
sg8
I00
sg9
I5
sg10
(lp2272
g1278
ag1503
asg24
I00
sg25
I00
sg26
I15118527
sg17
S'105890.483378'
p2273
sba(igraph
Edge
p2274
(dp2275
g7
I1
sg8
I00
sg9
I5
sg10
(lp2276
g1278
ag2020
asg24
I00
sg25
I00
sg26
I15118528
sg17
S'105890.49029'
p2277
sba(igraph
Edge
p2278
(dp2279
g7
I1
sg8
I00
sg9
I5
sg10
(lp2280
g1281
ag1503
asg24
I00
sg25
I00
sg26
I15118529
sg17
S'105896.702636'
p2281
sba(igraph
Edge
p2282
(dp2283
g7
I1
sg8
I00
sg9
I5
sg10
(lp2284
g1281
ag1506
asg24
I00
sg25
I00
sg26
I15118530
sg17
S'105896.70951'
p2285
sba(igraph
Edge
p2286
(dp2287
g7
I1
sg8
I00
sg9
I5
sg10
(lp2288
g1288
ag1506
asg24
I00
sg25
I00
sg26
I15118531
sg17
S'105901.875845'
p2289
sba(igraph
Edge
p2290
(dp2291
g7
I1
sg8
I00
sg9
I5
sg10
(lp2292
g1288
ag1535
asg24
I00
sg25
I00
sg26
I15118532
sg17
S'105901.886032'
p2293
sba(igraph
Edge
p2294
(dp2295
g7
I1
sg8
I00
sg9
I5
sg10
(lp2296
g1291
ag1535
asg24
I00
sg25
I00
sg26
I15118533
sg17
S'105910.286642'
p2297
sba(igraph
Edge
p2298
(dp2299
g7
I1
sg8
I00
sg9
I5
sg10
(lp2300
g1291
ag1538
asg24
I00
sg25
I00
sg26
I15118534
sg17
S'105910.293783'
p2301
sba(igraph
Edge
p2302
(dp2303
g7
I1
sg8
I00
sg9
I5
sg10
(lp2304
g1298
ag1538
asg24
I00
sg25
I00
sg26
I15118535
sg17
S'105916.151196'
p2305
sba(igraph
Edge
p2306
(dp2307
g7
I1
sg8
I00
sg9
I5
sg10
(lp2308
g1298
ag1545
asg24
I00
sg25
I00
sg26
I15118536
sg17
S'105916.167178'
p2309
sba(igraph
Edge
p2310
(dp2311
g7
I1
sg8
I00
sg9
I5
sg10
(lp2312
g1309
ag1545
asg24
I00
sg25
I00
sg26
I15118537
sg17
S'105924.43624'
p2313
sba(igraph
Edge
p2314
(dp2315
g7
I1
sg8
I00
sg9
I5
sg10
(lp2316
g1309
ag1601
asg24
I00
sg25
I00
sg26
I15118538
sg17
S'105924.44329'
p2317
sba(igraph
Edge
p2318
(dp2319
g7
I1
sg8
I00
sg9
I5
sg10
(lp2320
g1312
ag1601
asg24
I00
sg25
I00
sg26
I15118539
sg17
S'105930.821495'
p2321
sba(igraph
Edge
p2322
(dp2323
g7
I1
sg8
I00
sg9
I5
sg10
(lp2324
g1312
ag1604
asg24
I00
sg25
I00
sg26
I15118540
sg17
S'105930.828564'
p2325
sba(igraph
Edge
p2326
(dp2327
g7
I1
sg8
I00
sg9
I5
sg10
(lp2328
g1319
ag1604
asg24
I00
sg25
I00
sg26
I15118541
sg17
S'105939.55257'
p2329
sba(igraph
Edge
p2330
(dp2331
g7
I1
sg8
I00
sg9
I5
sg10
(lp2332
g1319
ag1611
asg24
I00
sg25
I00
sg26
I15118542
sg17
S'105939.561963'
p2333
sba(igraph
Edge
p2334
(dp2335
g7
I1
sg8
I00
sg9
I5
sg10
(lp2336
g1326
ag1611
asg24
I00
sg25
I00
sg26
I15118543
sg17
S'105945.315891'
p2337
sba(igraph
Edge
p2338
(dp2339
g7
I1
sg8
I00
sg9
I5
sg10
(lp2340
g1326
ag1655
asg24
I00
sg25
I00
sg26
I15118544
sg17
S'105945.324152'
p2341
sba(igraph
Edge
p2342
(dp2343
g7
I1
sg8
I00
sg9
I5
sg10
(lp2344
g1408
ag1655
asg24
I00
sg25
I00
sg26
I15118545
sg17
S'105953.3786'
p2345
sba(igraph
Edge
p2346
(dp2347
g7
I1
sg8
I00
sg9
I5
sg10
(lp2348
g1408
ag1689
asg24
I00
sg25
I00
sg26
I15118546
sg17
S'105953.396139'
p2349
sba(igraph
Edge
p2350
(dp2351
g7
I1
sg8
I00
sg9
I5
sg10
(lp2352
g1689
ag1983
asg24
I00
sg25
I00
sg26
I15118547
sg17
S'105963.748966'
p2353
sba(igraph
Edge
p2354
(dp2355
g7
I1
sg8
I00
sg9
I5
sg10
(lp2356
g1983
ag2017
asg24
I00
sg25
I00
sg26
I15118548
sg17
S'105963.769566'
p2357
sbasS'vertices'
p2358
(lp2359
g12
ag21
ag31
ag34
ag41
ag44
ag75
ag78
ag85
ag92
ag95
ag102
ag109
ag112
ag119
ag182
ag185
ag192
ag199
ag202
ag209
ag216
ag219
ag226
ag273
ag276
ag283
ag330
ag333
ag340
ag343
ag350
ag361
ag364
ag371
ag378
ag457
ag460
ag467
ag470
ag477
ag488
ag491
ag498
ag505
ag584
ag587
ag594
ag597
ag604
ag615
ag618
ag625
ag632
ag711
ag714
ag721
ag724
ag731
ag742
ag745
ag752
ag759
ag838
ag841
ag848
ag851
ag858
ag869
ag872
ag879
ag886
ag965
ag968
ag975
ag978
ag985
ag996
ag999
ag1006
ag1013
ag1092
ag1095
ag1102
ag1109
ag1116
ag1123
ag1130
ag1137
ag1144
ag1219
ag1222
ag1229
ag1232
ag1239
ag1250
ag1253
ag1260
ag1267
ag1278
ag1281
ag1288
ag1291
ag1298
ag1309
ag1312
ag1319
ag1326
ag1405
ag1408
ag1503
ag1506
ag1513
ag1516
ag1535
ag1538
ag1545
ag1552
ag1555
ag1562
ag1601
ag1604
ag1611
ag1618
ag1621
ag1628
ag1655
ag1658
ag1689
ag1692
ag1787
ag1790
ag1797
ag1800
ag1807
ag1810
ag1841
ag1844
ag1863
ag1866
ag1885
ag1888
ag1907
ag1910
ag1929
ag1932
ag1951
ag1954
ag1973
ag1976
ag1983
ag1986
ag2017
ag2020
ag2027
ag2030
asS'tags'
p2360
(lp2361
sb.