(igraph
Graph
p0
(dp1
S'labelingConstraints'
p2
I-1
sS'edges'
p3
(lp4
(igraph
Edge
p5
(dp6
S'direction'
p7
I1
sS'selected'
p8
I00
sS'height'
p9
I5
sS'vs'
p10
(lp11
(igraph
Vertex
p12
(dp13
S'xnorm'
p14
F0.18741417861041446
sg8
I00
sS'label'
p15
S'NULL'
p16
sS'y'
p17
F-59.312549722457533
sS'x'
p18
F-161.68696304328077
sS'circle'
p19
I757807
sS'id'
p20
S'1904.98591022'
p21
sS'ynorm'
p22
F0.44641074241457335
sba(igraph
Vertex
p23
(dp24
g14
F0.25855539738071875
sg8
I00
sg15
g16
sg17
F-59.312549722457533
sg18
F-110.32300309112105
sg19
I757808
sg20
S'1904.98716736'
p25
sg22
F0.44641074241457335
sbasS'wrap'
p26
I00
sS'curved'
p27
I00
sS'line'
p28
I757483
sg20
S'1905.19530052'
p29
sba(igraph
Edge
p30
(dp31
g7
I1
sg8
I00
sg9
I5
sg10
(lp32
(igraph
Vertex
p33
(dp34
g14
F0.33532681076536014
sg8
I00
sg15
g16
sg17
F-59.373705178330738
sg18
F-54.894042627409988
sg19
I757809
sg20
S'1904.98830829'
p35
sg22
F0.44653354453480065
sba(igraph
Vertex
p36
(dp37
g14
F0.40646802953566447
sg8
I01
sg15
I0
sg17
F-59.373705178330738
sg18
F-3.5300826752502417
sg19
I757811
sg20
S'1904.98938608'
p38
sg22
F0.44653354453480065
sbasg26
I00
sg27
I00
sg28
I757484
sg20
S'1905.20384965'
p39
sba(igraph
Edge
p40
(dp41
g7
I1
sg8
I00
sg9
I5
sg10
(lp42
g36
a(igraph
Vertex
p43
(dp44
g14
F0.4776092483059689
sg8
I00
sg15
g16
sg17
F-59.373705178330738
sg18
F47.833877276909561
sg19
I757813
sg20
S'1904.99058204'
p45
sg22
F0.44653354453480065
sbasg26
I00
sg27
I00
sg28
I757485
sg20
S'1905.2123647'
p46
sba(igraph
Edge
p47
(dp48
g7
I1
sg8
I00
sg9
I5
sg10
(lp49
g23
ag33
asg26
I00
sg27
I00
sg28
I757486
sg20
S'1905.22414944'
p50
sba(igraph
Edge
p51
(dp52
g7
I1
sg8
I00
sg9
I5
sg10
(lp53
(igraph
Vertex
p54
(dp55
g14
F0.55214678979097398
sg8
I00
sg15
g16
sg17
F-59.536117184458305
sg18
F101.64998222908321
sg19
I757814
sg20
S'1904.99169615'
p56
sg22
F0.44685967306116126
sba(igraph
Vertex
p57
(dp58
g14
F0.62328800856127842
sg8
I00
sg15
g16
sg17
F-59.536117184458305
sg18
F153.01394218124301
sg19
I757815
sg20
S'1904.99311449'
p59
sg22
F0.44685967306116126
sbasg26
I00
sg27
I00
sg28
I757487
sg20
S'1905.23536595'
p60
sba(igraph
Edge
p61
(dp62
g7
I1
sg8
I00
sg9
I5
sg10
(lp63
g57
a(igraph
Vertex
p64
(dp65
g14
F0.69442922733158263
sg8
I00
sg15
g16
sg17
F-59.536117184458305
sg18
F204.37790213340264
sg19
I757816
sg20
S'1904.99436465'
p66
sg22
F0.44685967306116126
sbasg26
I00
sg27
I00
sg28
I757488
sg20
S'1905.24599607'
p67
sba(igraph
Edge
p68
(dp69
g7
I1
sg8
I00
sg9
I5
sg10
(lp70
g64
a(igraph
Vertex
p71
(dp72
g14
F0.77120064071622418
sg8
I00
sg15
g16
sg17
F-59.597272640331539
sg18
F259.80686259711388
sg19
I757817
sg20
S'1904.99591401'
p73
sg22
F0.44698247518138862
sbasg26
I00
sg27
I00
sg28
I757489
sg20
S'1905.2581884'
p74
sba(igraph
Edge
p75
(dp76
g7
I1
sg8
I00
sg9
I5
sg10
(lp77
g43
ag54
asg26
I00
sg27
I00
sg28
I757490
sg20
S'1905.26774157'
p78
sba(igraph
Edge
p79
(dp80
g7
I1
sg8
I00
sg9
I5
sg10
(lp81
(igraph
Vertex
p82
(dp83
g14
F0.19073092819582077
sg8
I00
sg15
g16
sg17
F-16.384312057431458
sg18
F-159.2922698426174
sg19
I757818
sg20
S'1904.99721417'
p84
sg22
F0.36020946196271375
sba(igraph
Vertex
p85
(dp86
g14
F0.2618721469661251
sg8
I01
sg15
I0
sg17
F-16.384312057431458
sg18
F-107.92830989045768
sg19
I757820
sg20
S'1904.99870933'
p87
sg22
F0.36020946196271375
sbasg26
I00
sg27
I00
sg28
I757491
sg20
S'1905.27858988'
p88
sba(igraph
Edge
p89
(dp90
g7
I1
sg8
I00
sg9
I5
sg10
(lp91
(igraph
Vertex
p92
(dp93
g14
F0.33864356035076648
sg8
I00
sg15
g16
sg17
F-16.445467513304635
sg18
F-52.499349426746591
sg19
I757822
sg20
S'1905.00016957'
p94
sg22
F0.36033226408294106
sba(igraph
Vertex
p95
(dp96
g14
F0.40978477912107075
sg8
I00
sg15
g16
sg17
F-16.445467513304635
sg18
F-1.1353894745869297
sg19
I757823
sg20
S'1905.00131218'
p97
sg22
F0.36033226408294106
sbasg26
I00
sg27
I00
sg28
I757492
sg20
S'1905.28735049'
p98
sba(igraph
Edge
p99
(dp100
g7
I1
sg8
I00
sg9
I5
sg10
(lp101
g95
a(igraph
Vertex
p102
(dp103
g14
F0.48092599789137519
sg8
I00
sg15
g16
sg17
F-16.445467513304635
sg18
F50.228570477572873
sg19
I757824
sg20
S'1905.00267297'
p104
sg22
F0.36033226408294106
sbasg26
I00
sg27
I00
sg28
I757493
sg20
S'1905.29600717'
p105
sba(igraph
Edge
p106
(dp107
g7
I1
sg8
I00
sg9
I5
sg10
(lp108
g85
ag92
asg26
I00
sg27
I00
sg28
I757494
sg20
S'1905.30465967'
p109
sba(igraph
Edge
p110
(dp111
g7
I1
sg8
I00
sg9
I5
sg10
(lp112
(igraph
Vertex
p113
(dp114
g14
F0.55546353937638027
sg8
I00
sg15
g16
sg17
F-16.607879519432316
sg18
F104.04467542974658
sg19
I757825
sg20
S'1905.00392284'
p115
sg22
F0.36065839260930183
sba(igraph
Vertex
p116
(dp117
g14
F0.6266047581466847
sg8
I00
sg15
g16
sg17
F-16.607879519432316
sg18
F155.40863538190638
sg19
I757826
sg20
S'1905.00513026'
p118
sg22
F0.36065839260930183
sbasg26
I00
sg27
I00
sg28
I757495
sg20
S'1905.31323339'
p119
sba(igraph
Edge
p120
(dp121
g7
I1
sg8
I00
sg9
I5
sg10
(lp122
g116
a(igraph
Vertex
p123
(dp124
g14
F0.69774597691698892
sg8
I00
sg15
g16
sg17
F-16.607879519432316
sg18
F206.77259533406601
sg19
I757827
sg20
S'1905.00636813'
p125
sg22
F0.36065839260930183
sbasg26
I00
sg27
I00
sg28
I757496
sg20
S'1905.3212886'
p126
sba(igraph
Edge
p127
(dp128
g7
I1
sg8
I00
sg9
I5
sg10
(lp129
g123
a(igraph
Vertex
p130
(dp131
g14
F0.77451739030163047
sg8
I00
sg15
g16
sg17
F-16.669034975305436
sg18
F262.20155579777725
sg19
I757828
sg20
S'1905.00762164'
p132
sg22
F0.36078119472952896
sbasg26
I00
sg27
I00
sg28
I757497
sg20
S'1905.32921922'
p133
sba(igraph
Edge
p134
(dp135
g7
I1
sg8
I00
sg9
I5
sg10
(lp136
g102
ag113
asg26
I00
sg27
I00
sg28
I757498
sg20
S'1905.3373236'
p137
sba(igraph
Edge
p138
(dp139
g7
I1
sg8
I00
sg9
I5
sg10
(lp140
g12
ag82
asg26
I00
sg27
I00
sg28
I757499
sg20
S'1905.34532545'
p141
sba(igraph
Edge
p142
(dp143
g7
I1
sg8
I00
sg9
I5
sg10
(lp144
g23
ag82
asg26
I00
sg27
I00
sg28
I757500
sg20
S'1905.35349269'
p145
sba(igraph
Edge
p146
(dp147
g7
I1
sg8
I00
sg9
I5
sg10
(lp148
g23
ag85
asg26
I00
sg27
I00
sg28
I757501
sg20
S'1905.3620611'
p149
sba(igraph
Edge
p150
(dp151
g7
I1
sg8
I00
sg9
I5
sg10
(lp152
g33
ag85
asg26
I00
sg27
I00
sg28
I757502
sg20
S'1905.37028477'
p153
sba(igraph
Edge
p154
(dp155
g7
I1
sg8
I00
sg9
I5
sg10
(lp156
g33
ag92
asg26
I00
sg27
I00
sg28
I757503
sg20
S'1905.3783858'
p157
sba(igraph
Edge
p158
(dp159
g7
I1
sg8
I00
sg9
I5
sg10
(lp160
g36
ag92
asg26
I00
sg27
I00
sg28
I757504
sg20
S'1905.38645694'
p161
sba(igraph
Edge
p162
(dp163
g7
I1
sg8
I00
sg9
I5
sg10
(lp164
g36
ag95
asg26
I00
sg27
I00
sg28
I757505
sg20
S'1905.39466832'
p165
sba(igraph
Edge
p166
(dp167
g7
I1
sg8
I00
sg9
I5
sg10
(lp168
g43
ag95
asg26
I00
sg27
I00
sg28
I757506
sg20
S'1905.40276208'
p169
sba(igraph
Edge
p170
(dp171
g7
I1
sg8
I00
sg9
I5
sg10
(lp172
g43
ag102
asg26
I00
sg27
I00
sg28
I757507
sg20
S'1905.41098939'
p173
sba(igraph
Edge
p174
(dp175
g7
I1
sg8
I00
sg9
I5
sg10
(lp176
g54
ag102
asg26
I00
sg27
I00
sg28
I757508
sg20
S'1905.41941839'
p177
sba(igraph
Edge
p178
(dp179
g7
I1
sg8
I00
sg9
I5
sg10
(lp180
g54
ag113
asg26
I00
sg27
I00
sg28
I757509
sg20
S'1905.42762027'
p181
sba(igraph
Edge
p182
(dp183
g7
I1
sg8
I00
sg9
I5
sg10
(lp184
g57
ag113
asg26
I00
sg27
I00
sg28
I757510
sg20
S'1905.43592915'
p185
sba(igraph
Edge
p186
(dp187
g7
I1
sg8
I00
sg9
I5
sg10
(lp188
g57
ag116
asg26
I00
sg27
I00
sg28
I757511
sg20
S'1905.44439922'
p189
sba(igraph
Edge
p190
(dp191
g7
I1
sg8
I00
sg9
I5
sg10
(lp192
g64
ag116
asg26
I00
sg27
I00
sg28
I757512
sg20
S'1905.45275391'
p193
sba(igraph
Edge
p194
(dp195
g7
I1
sg8
I00
sg9
I5
sg10
(lp196
g64
ag123
asg26
I00
sg27
I00
sg28
I757513
sg20
S'1905.46101027'
p197
sba(igraph
Edge
p198
(dp199
g7
I1
sg8
I00
sg9
I5
sg10
(lp200
g71
ag123
asg26
I00
sg27
I00
sg28
I757514
sg20
S'1905.46930099'
p201
sba(igraph
Edge
p202
(dp203
g7
I1
sg8
I00
sg9
I5
sg10
(lp204
g71
ag130
asg26
I00
sg27
I00
sg28
I757515
sg20
S'1905.47779648'
p205
sba(igraph
Edge
p206
(dp207
g7
I1
sg8
I00
sg9
I5
sg10
(lp208
(igraph
Vertex
p209
(dp210
g14
F0.18409742902500817
sg8
I00
sg15
g16
sg17
F28.284259566987686
sg18
F-164.08165624394411
sg19
I757829
sg20
S'1905.00895812'
p211
sg22
F0.2705135350060488
sba(igraph
Vertex
p212
(dp213
g14
F0.25523864779531236
sg8
I00
sg15
g16
sg17
F28.284259566987686
sg18
F-112.71769629178448
sg19
I757830
sg20
S'1905.01033791'
p214
sg22
F0.2705135350060488
sbasg26
I00
sg27
I00
sg28
I757516
sg20
S'1905.48619336'
p215
sba(igraph
Edge
p216
(dp217
g7
I1
sg8
I00
sg9
I5
sg10
(lp218
(igraph
Vertex
p219
(dp220
g14
F0.33201006117995374
sg8
I00
sg15
g16
sg17
F28.22310411111448
sg18
F-57.288735828073385
sg19
I757831
sg20
S'1905.0115646'
p221
sg22
F0.27063633712627616
sba(igraph
Vertex
p222
(dp223
g14
F0.40315127995025818
sg8
I00
sg15
g16
sg17
F28.22310411111448
sg18
F-5.9247758759136104
sg19
I757832
sg20
S'1905.01275441'
p224
sg22
F0.27063633712627616
sbasg26
I00
sg27
I00
sg28
I757517
sg20
S'1905.49458912'
p225
sba(igraph
Edge
p226
(dp227
g7
I1
sg8
I00
sg9
I5
sg10
(lp228
g222
a(igraph
Vertex
p229
(dp230
g14
F0.47429249872056256
sg8
I00
sg15
g16
sg17
F28.22310411111448
sg18
F45.439184076246192
sg19
I757833
sg20
S'1905.01395401'
p231
sg22
F0.27063633712627616
sbasg26
I00
sg27
I00
sg28
I757518
sg20
S'1905.50292593'
p232
sba(igraph
Edge
p233
(dp234
g7
I1
sg8
I00
sg9
I5
sg10
(lp235
g212
ag219
asg26
I00
sg27
I00
sg28
I757519
sg20
S'1905.51149937'
p236
sba(igraph
Edge
p237
(dp238
g7
I1
sg8
I00
sg9
I5
sg10
(lp239
(igraph
Vertex
p240
(dp241
g14
F0.54883004020556769
sg8
I00
sg15
g16
sg17
F28.060692104986742
sg18
F99.255289028419895
sg19
I757834
sg20
S'1905.0151712'
p242
sg22
F0.27096246565263704
sba(igraph
Vertex
p243
(dp244
g14
F0.61997125897587213
sg8
I00
sg15
g16
sg17
F28.060692104986742
sg18
F150.6192489805797
sg19
I757835
sg20
S'1905.01652556'
p245
sg22
F0.27096246565263704
sbasg26
I00
sg27
I00
sg28
I757520
sg20
S'1905.52034909'
p246
sba(igraph
Edge
p247
(dp248
g7
I1
sg8
I00
sg9
I5
sg10
(lp249
g243
a(igraph
Vertex
p250
(dp251
g14
F0.69111247774617635
sg8
I00
sg15
g16
sg17
F28.060692104986742
sg18
F201.98320893273933
sg19
I757836
sg20
S'1905.01789529'
p252
sg22
F0.27096246565263704
sbasg26
I00
sg27
I00
sg28
I757521
sg20
S'1905.52878061'
p253
sba(igraph
Edge
p254
(dp255
g7
I1
sg8
I00
sg9
I5
sg10
(lp256
g250
a(igraph
Vertex
p257
(dp258
g14
F0.7678838911308179
sg8
I00
sg15
g16
sg17
F27.999536649113708
sg18
F257.41216939645051
sg19
I757837
sg20
S'1905.01928625'
p259
sg22
F0.27108526777286407
sbasg26
I00
sg27
I00
sg28
I757522
sg20
S'1905.53726074'
p260
sba(igraph
Edge
p261
(dp262
g7
I1
sg8
I00
sg9
I5
sg10
(lp263
g229
ag240
asg26
I00
sg27
I00
sg28
I757523
sg20
S'1905.545823'
p264
sba(igraph
Edge
p265
(dp266
g7
I1
sg8
I00
sg9
I5
sg10
(lp267
g82
ag209
asg26
I00
sg27
I00
sg28
I757524
sg20
S'1905.55438191'
p268
sba(igraph
Edge
p269
(dp270
g7
I1
sg8
I00
sg9
I5
sg10
(lp271
g85
ag209
asg26
I00
sg27
I00
sg28
I757525
sg20
S'1905.56297518'
p272
sba(igraph
Edge
p273
(dp274
g7
I1
sg8
I00
sg9
I5
sg10
(lp275
g85
ag212
asg26
I00
sg27
I00
sg28
I757526
sg20
S'1905.57142318'
p276
sba(igraph
Edge
p277
(dp278
g7
I1
sg8
I00
sg9
I5
sg10
(lp279
g92
ag212
asg26
I00
sg27
I00
sg28
I757527
sg20
S'1905.58011842'
p280
sba(igraph
Edge
p281
(dp282
g7
I1
sg8
I00
sg9
I5
sg10
(lp283
g92
ag219
asg26
I00
sg27
I00
sg28
I757528
sg20
S'1905.58903492'
p284
sba(igraph
Edge
p285
(dp286
g7
I1
sg8
I00
sg9
I5
sg10
(lp287
g95
ag219
asg26
I00
sg27
I00
sg28
I757529
sg20
S'1905.59767708'
p288
sba(igraph
Edge
p289
(dp290
g7
I1
sg8
I00
sg9
I5
sg10
(lp291
g95
ag222
asg26
I00
sg27
I00
sg28
I757530
sg20
S'1905.60646367'
p292
sba(igraph
Edge
p293
(dp294
g7
I1
sg8
I00
sg9
I5
sg10
(lp295
g102
ag222
asg26
I00
sg27
I00
sg28
I757531
sg20
S'1905.61509326'
p296
sba(igraph
Edge
p297
(dp298
g7
I1
sg8
I00
sg9
I5
sg10
(lp299
g102
ag229
asg26
I00
sg27
I00
sg28
I757532
sg20
S'1905.62388181'
p300
sba(igraph
Edge
p301
(dp302
g7
I1
sg8
I00
sg9
I5
sg10
(lp303
g113
ag229
asg26
I00
sg27
I00
sg28
I757533
sg20
S'1905.63263152'
p304
sba(igraph
Edge
p305
(dp306
g7
I1
sg8
I00
sg9
I5
sg10
(lp307
g113
ag240
asg26
I00
sg27
I00
sg28
I757534
sg20
S'1905.64129827'
p308
sba(igraph
Edge
p309
(dp310
g7
I1
sg8
I00
sg9
I5
sg10
(lp311
g116
ag240
asg26
I00
sg27
I00
sg28
I757535
sg20
S'1905.65016839'
p312
sba(igraph
Edge
p313
(dp314
g7
I1
sg8
I00
sg9
I5
sg10
(lp315
g116
ag243
asg26
I00
sg27
I00
sg28
I757536
sg20
S'1905.65902538'
p316
sba(igraph
Edge
p317
(dp318
g7
I1
sg8
I00
sg9
I5
sg10
(lp319
g123
ag243
asg26
I00
sg27
I00
sg28
I757537
sg20
S'1905.66792986'
p320
sba(igraph
Edge
p321
(dp322
g7
I1
sg8
I00
sg9
I5
sg10
(lp323
g123
ag250
asg26
I00
sg27
I00
sg28
I757538
sg20
S'1905.67684468'
p324
sba(igraph
Edge
p325
(dp326
g7
I1
sg8
I00
sg9
I5
sg10
(lp327
g130
ag250
asg26
I00
sg27
I00
sg28
I757539
sg20
S'1905.68566033'
p328
sba(igraph
Edge
p329
(dp330
g7
I1
sg8
I00
sg9
I5
sg10
(lp331
g130
ag257
asg26
I00
sg27
I00
sg28
I757540
sg20
S'1905.69474472'
p332
sba(igraph
Edge
p333
(dp334
g7
I1
sg8
I00
sg9
I5
sg10
(lp335
(igraph
Vertex
p336
(dp337
g14
F0.84933872000313215
sg8
I00
sg15
g16
sg17
F-55.402432200138406
sg18
F316.22255584226139
sg19
I757838
sg20
S'1905.02065318'
p338
sg22
F0.43855910080349075
sba(igraph
Vertex
p339
(dp340
g14
F0.85265546958853844
sg8
I00
sg15
g16
sg17
F-12.47419453511236
sg18
F318.61724904292475
sg19
I757839
sg20
S'1905.02220757'
p341
sg22
F0.35235782035163127
sbasg26
I00
sg27
I00
sg28
I757541
sg20
S'1905.70357573'
p342
sba(igraph
Edge
p343
(dp344
g7
I1
sg8
I00
sg9
I5
sg10
(lp345
g339
a(igraph
Vertex
p346
(dp347
g14
F0.84602197041772587
sg8
I00
sg15
g16
sg17
F32.194377089306755
sg18
F313.82786264159813
sg19
I757840
sg20
S'1905.023584'
p348
sg22
F0.26266189339496637
sbasg26
I00
sg27
I00
sg28
I757542
sg20
S'1905.71270315'
p349
sba(igraph
Edge
p350
(dp351
g7
I1
sg8
I00
sg9
I5
sg10
(lp352
g71
ag336
asg26
I00
sg27
I00
sg28
I757543
sg20
S'1905.72244154'
p353
sba(igraph
Edge
p354
(dp355
g7
I1
sg8
I00
sg9
I5
sg10
(lp356
g130
ag336
asg26
I00
sg27
I00
sg28
I757544
sg20
S'1905.73226821'
p357
sba(igraph
Edge
p358
(dp359
g7
I1
sg8
I00
sg9
I5
sg10
(lp360
g130
ag339
asg26
I00
sg27
I00
sg28
I757545
sg20
S'1905.74208202'
p361
sba(igraph
Edge
p362
(dp363
g7
I1
sg8
I00
sg9
I5
sg10
(lp364
g257
ag339
asg26
I00
sg27
I00
sg28
I757546
sg20
S'1905.75266018'
p365
sba(igraph
Edge
p366
(dp367
g7
I1
sg8
I00
sg9
I5
sg10
(lp368
g257
ag346
asg26
I00
sg27
I00
sg28
I757547
sg20
S'1905.76257178'
p369
sba(igraph
Edge
p370
(dp371
g7
I1
sg8
I00
sg9
I5
sg10
(lp372
(igraph
Vertex
p373
(dp374
g14
F0.18934769075738064
sg8
I01
sg15
I0
sg17
F65.274415202798565
sg18
F-160.29096727317116
sg19
I757842
sg20
S'1905.02494395'
p375
sg22
F0.19623611405060529
sba(igraph
Vertex
p376
(dp377
g14
F0.26048890952768489
sg8
I00
sg15
g16
sg17
F65.274415202798565
sg18
F-108.9270073210115
sg19
I757844
sg20
S'1905.02644666'
p378
sg22
F0.19623611405060529
sbasg26
I00
sg27
I00
sg28
I757548
sg20
S'1905.7734916'
p379
sba(igraph
Edge
p380
(dp381
g7
I1
sg8
I00
sg9
I5
sg10
(lp382
(igraph
Vertex
p383
(dp384
g14
F0.33726032291232622
sg8
I00
sg15
g16
sg17
F65.213259746925445
sg18
F-53.498046857300466
sg19
I757845
sg20
S'1905.02819828'
p385
sg22
F0.19635891617083245
sba(igraph
Vertex
p386
(dp387
g14
F0.40840154168263065
sg8
I00
sg15
g16
sg17
F65.213259746925445
sg18
F-2.1340869051406912
sg19
I757846
sg20
S'1905.02952331'
p388
sg22
F0.19635891617083245
sbasg26
I00
sg27
I00
sg28
I757549
sg20
S'1905.79223924'
p389
sba(igraph
Edge
p390
(dp391
g7
I1
sg8
I00
sg9
I5
sg10
(lp392
g386
a(igraph
Vertex
p393
(dp394
g14
F0.47954276045293504
sg8
I00
sg15
g16
sg17
F65.213259746925445
sg18
F49.229873047019112
sg19
I757847
sg20
S'1905.03090924'
p395
sg22
F0.19635891617083245
sbasg26
I00
sg27
I00
sg28
I757550
sg20
S'1905.80400498'
p396
sba(igraph
Edge
p397
(dp398
g7
I1
sg8
I00
sg9
I5
sg10
(lp399
g376
ag383
asg26
I00
sg27
I00
sg28
I757551
sg20
S'1905.81579307'
p400
sba(igraph
Edge
p401
(dp402
g7
I1
sg8
I00
sg9
I5
sg10
(lp403
(igraph
Vertex
p404
(dp405
g14
F0.55408030193794011
sg8
I00
sg15
g16
sg17
F65.050847740797778
sg18
F103.04597799919276
sg19
I757848
sg20
S'1905.03234322'
p406
sg22
F0.19668504469719322
sba(igraph
Vertex
p407
(dp408
g14
F0.62522152070824455
sg8
I00
sg15
g16
sg17
F65.050847740797778
sg18
F154.40993795135256
sg19
I757849
sg20
S'1905.03389621'
p409
sg22
F0.19668504469719322
sbasg26
I00
sg27
I00
sg28
I757552
sg20
S'1905.82734202'
p410
sba(igraph
Edge
p411
(dp412
g7
I1
sg8
I00
sg9
I5
sg10
(lp413
g407
a(igraph
Vertex
p414
(dp415
g14
F0.69636273947854876
sg8
I00
sg15
g16
sg17
F65.050847740797778
sg18
F205.77389790351219
sg19
I757850
sg20
S'1905.03607833'
p416
sg22
F0.19668504469719322
sbasg26
I00
sg27
I00
sg28
I757553
sg20
S'1905.83819312'
p417
sba(igraph
Edge
p418
(dp419
g7
I1
sg8
I00
sg9
I5
sg10
(lp420
g414
a(igraph
Vertex
p421
(dp422
g14
F0.77313415286319032
sg8
I00
sg15
g16
sg17
F64.989692284924644
sg18
F261.20285836722337
sg19
I757851
sg20
S'1905.03746538'
p423
sg22
F0.19680784681742039
sbasg26
I00
sg27
I00
sg28
I757554
sg20
S'1905.84773931'
p424
sba(igraph
Edge
p425
(dp426
g7
I1
sg8
I00
sg9
I5
sg10
(lp427
g393
ag404
asg26
I00
sg27
I00
sg28
I757555
sg20
S'1905.85699691'
p428
sba(igraph
Edge
p429
(dp430
g7
I1
sg8
I00
sg9
I5
sg10
(lp431
(igraph
Vertex
p432
(dp433
g14
F0.19120701376012958
sg8
I00
sg15
g16
sg17
F107.90675441719907
sg18
F-158.94853606518643
sg19
I757852
sg20
S'1905.0389178'
p434
sg22
F0.11062900719437938
sba(igraph
Vertex
p435
(dp436
g14
F0.26380565911309117
sg8
I00
sg15
g16
sg17
F108.20265286782461
sg18
F-106.53231412034816
sg19
I757853
sg20
S'1905.04031043'
p437
sg22
F0.11003483359874575
sbasg26
I00
sg27
I00
sg28
I757556
sg20
S'1905.86633441'
p438
sba(igraph
Edge
p439
(dp440
g7
I1
sg8
I00
sg9
I5
sg10
(lp441
(igraph
Vertex
p442
(dp443
g14
F0.34057707249773256
sg8
I00
sg15
g16
sg17
F108.14149741195149
sg18
F-51.103353656637097
sg19
I757854
sg20
S'1905.04223498'
p444
sg22
F0.11015763571897291
sba(igraph
Vertex
p445
(dp446
g14
F0.41171829126803694
sg8
I00
sg15
g16
sg17
F108.14149741195149
sg18
F0.26060629552267756
sg19
I757855
sg20
S'1905.04369941'
p447
sg22
F0.11015763571897291
sbasg26
I00
sg27
I00
sg28
I757557
sg20
S'1905.87567498'
p448
sba(igraph
Edge
p449
(dp450
g7
I1
sg8
I00
sg9
I5
sg10
(lp451
g445
a(igraph
Vertex
p452
(dp453
g14
F0.48285951003834138
sg8
I00
sg15
g16
sg17
F108.14149741195149
sg18
F51.62456624768248
sg19
I757856
sg20
S'1905.04526804'
p454
sg22
F0.11015763571897291
sbasg26
I00
sg27
I00
sg28
I757558
sg20
S'1905.88511585'
p455
sba(igraph
Edge
p456
(dp457
g7
I1
sg8
I00
sg9
I5
sg10
(lp458
g435
ag442
asg26
I00
sg27
I00
sg28
I757559
sg20
S'1905.89453855'
p459
sba(igraph
Edge
p460
(dp461
g7
I1
sg8
I00
sg9
I5
sg10
(lp462
(igraph
Vertex
p463
(dp464
g14
F0.55739705152334651
sg8
I00
sg15
g16
sg17
F107.97908540582389
sg18
F105.44067119985618
sg19
I757857
sg20
S'1905.04675091'
p465
sg22
F0.11048376424533353
sba(igraph
Vertex
p466
(dp467
g14
F0.62853827029365084
sg8
I00
sg15
g16
sg17
F107.97908540582389
sg18
F156.80463115201593
sg19
I757858
sg20
S'1905.04823602'
p468
sg22
F0.11048376424533353
sbasg26
I00
sg27
I00
sg28
I757560
sg20
S'1905.90394478'
p469
sba(igraph
Edge
p470
(dp471
g7
I1
sg8
I00
sg9
I5
sg10
(lp472
g466
a(igraph
Vertex
p473
(dp474
g14
F0.69967948906395505
sg8
I00
sg15
g16
sg17
F107.97908540582389
sg18
F208.16859110417556
sg19
I757859
sg20
S'1905.04991249'
p475
sg22
F0.11048376424533353
sbasg26
I00
sg27
I00
sg28
I757561
sg20
S'1905.91360746'
p476
sba(igraph
Edge
p477
(dp478
g7
I1
sg8
I00
sg9
I5
sg10
(lp479
g473
a(igraph
Vertex
p480
(dp481
g14
F0.77645090244859671
sg8
I00
sg15
g16
sg17
F107.91792994995077
sg18
F263.59755156788685
sg19
I757860
sg20
S'1905.051518'
p482
sg22
F0.1106065663655607
sbasg26
I00
sg27
I00
sg28
I757562
sg20
S'1905.92301591'
p483
sba(igraph
Edge
p484
(dp485
g7
I1
sg8
I00
sg9
I5
sg10
(lp486
g452
ag463
asg26
I00
sg27
I00
sg28
I757563
sg20
S'1905.93299176'
p487
sba(igraph
Edge
p488
(dp489
g7
I1
sg8
I00
sg9
I5
sg10
(lp490
g373
ag432
asg26
I00
sg27
I00
sg28
I757564
sg20
S'1905.94250834'
p491
sba(igraph
Edge
p492
(dp493
g7
I1
sg8
I00
sg9
I5
sg10
(lp494
g376
ag432
asg26
I00
sg27
I00
sg28
I757565
sg20
S'1905.95206374'
p495
sba(igraph
Edge
p496
(dp497
g7
I1
sg8
I00
sg9
I5
sg10
(lp498
g376
ag435
asg26
I00
sg27
I00
sg28
I757566
sg20
S'1905.96170491'
p499
sba(igraph
Edge
p500
(dp501
g7
I1
sg8
I00
sg9
I5
sg10
(lp502
g383
ag435
asg26
I00
sg27
I00
sg28
I757567
sg20
S'1905.9713092'
p503
sba(igraph
Edge
p504
(dp505
g7
I1
sg8
I00
sg9
I5
sg10
(lp506
g383
ag442
asg26
I00
sg27
I00
sg28
I757568
sg20
S'1905.98100233'
p507
sba(igraph
Edge
p508
(dp509
g7
I1
sg8
I00
sg9
I5
sg10
(lp510
g386
ag442
asg26
I00
sg27
I00
sg28
I757569
sg20
S'1905.9907315'
p511
sba(igraph
Edge
p512
(dp513
g7
I1
sg8
I00
sg9
I5
sg10
(lp514
g386
ag445
asg26
I00
sg27
I00
sg28
I757570
sg20
S'1906.00056739'
p515
sba(igraph
Edge
p516
(dp517
g7
I1
sg8
I00
sg9
I5
sg10
(lp518
g393
ag445
asg26
I00
sg27
I00
sg28
I757571
sg20
S'1906.01048709'
p519
sba(igraph
Edge
p520
(dp521
g7
I1
sg8
I00
sg9
I5
sg10
(lp522
g393
ag452
asg26
I00
sg27
I00
sg28
I757572
sg20
S'1906.0204783'
p523
sba(igraph
Edge
p524
(dp525
g7
I1
sg8
I00
sg9
I5
sg10
(lp526
g404
ag452
asg26
I00
sg27
I00
sg28
I757573
sg20
S'1906.03012394'
p527
sba(igraph
Edge
p528
(dp529
g7
I1
sg8
I00
sg9
I5
sg10
(lp530
g404
ag463
asg26
I00
sg27
I00
sg28
I757574
sg20
S'1906.03964303'
p531
sba(igraph
Edge
p532
(dp533
g7
I1
sg8
I00
sg9
I5
sg10
(lp534
g407
ag463
asg26
I00
sg27
I00
sg28
I757575
sg20
S'1906.0492814'
p535
sba(igraph
Edge
p536
(dp537
g7
I1
sg8
I00
sg9
I5
sg10
(lp538
g407
ag466
asg26
I00
sg27
I00
sg28
I757576
sg20
S'1906.05891503'
p539
sba(igraph
Edge
p540
(dp541
g7
I1
sg8
I00
sg9
I5
sg10
(lp542
g414
ag466
asg26
I00
sg27
I00
sg28
I757577
sg20
S'1906.06865593'
p543
sba(igraph
Edge
p544
(dp545
g7
I1
sg8
I00
sg9
I5
sg10
(lp546
g414
ag473
asg26
I00
sg27
I00
sg28
I757578
sg20
S'1906.07843371'
p547
sba(igraph
Edge
p548
(dp549
g7
I1
sg8
I00
sg9
I5
sg10
(lp550
g421
ag473
asg26
I00
sg27
I00
sg28
I757579
sg20
S'1906.08826094'
p551
sba(igraph
Edge
p552
(dp553
g7
I1
sg8
I00
sg9
I5
sg10
(lp554
g421
ag480
asg26
I00
sg27
I00
sg28
I757580
sg20
S'1906.09810828'
p555
sba(igraph
Edge
p556
(dp557
g7
I1
sg8
I00
sg9
I5
sg10
(lp558
(igraph
Vertex
p559
(dp560
g14
F0.8512722321500984
sg8
I00
sg15
g16
sg17
F69.184532725117663
sg18
F317.61855161237099
sg19
I757861
sg20
S'1905.05303495'
p561
sg22
F0.18838447243952278
sba(igraph
Vertex
p562
(dp563
g14
F0.85458898173550468
sg8
I00
sg15
g16
sg17
F112.11277039014375
sg18
F320.01324481303436
sg19
I757862
sg20
S'1905.05454771'
p564
sg22
F0.10218319198766315
sbasg26
I00
sg27
I00
sg28
I757581
sg20
S'1906.10794193'
p565
sba(igraph
Edge
p566
(dp567
g7
I1
sg8
I00
sg9
I5
sg10
(lp568
g421
ag559
asg26
I00
sg27
I00
sg28
I757582
sg20
S'1906.1177049'
p569
sba(igraph
Edge
p570
(dp571
g7
I1
sg8
I00
sg9
I5
sg10
(lp572
g480
ag559
asg26
I00
sg27
I00
sg28
I757583
sg20
S'1906.12802577'
p573
sba(igraph
Edge
p574
(dp575
g7
I1
sg8
I00
sg9
I5
sg10
(lp576
g480
ag562
asg26
I00
sg27
I00
sg28
I757584
sg20
S'1906.13806392'
p577
sba(igraph
Edge
p578
(dp579
g7
I1
sg8
I00
sg9
I5
sg10
(lp580
g209
ag373
asg26
I00
sg27
I00
sg28
I757585
sg20
S'1906.14813084'
p581
sba(igraph
Edge
p582
(dp583
g7
I1
sg8
I00
sg9
I5
sg10
(lp584
g212
ag373
asg26
I00
sg27
I00
sg28
I757586
sg20
S'1906.1586481'
p585
sba(igraph
Edge
p586
(dp587
g7
I1
sg8
I00
sg9
I5
sg10
(lp588
g212
ag376
asg26
I00
sg27
I00
sg28
I757587
sg20
S'1906.16840353'
p589
sba(igraph
Edge
p590
(dp591
g7
I1
sg8
I00
sg9
I5
sg10
(lp592
g219
ag376
asg26
I00
sg27
I00
sg28
I757588
sg20
S'1906.17874143'
p593
sba(igraph
Edge
p594
(dp595
g7
I1
sg8
I00
sg9
I5
sg10
(lp596
g219
ag383
asg26
I00
sg27
I00
sg28
I757589
sg20
S'1906.18960734'
p597
sba(igraph
Edge
p598
(dp599
g7
I1
sg8
I00
sg9
I5
sg10
(lp600
g222
ag383
asg26
I00
sg27
I00
sg28
I757590
sg20
S'1906.20055091'
p601
sba(igraph
Edge
p602
(dp603
g7
I1
sg8
I00
sg9
I5
sg10
(lp604
g222
ag386
asg26
I00
sg27
I00
sg28
I757591
sg20
S'1906.21236247'
p605
sba(igraph
Edge
p606
(dp607
g7
I1
sg8
I00
sg9
I5
sg10
(lp608
g229
ag386
asg26
I00
sg27
I00
sg28
I757592
sg20
S'1906.22358484'
p609
sba(igraph
Edge
p610
(dp611
g7
I1
sg8
I00
sg9
I5
sg10
(lp612
g229
ag393
asg26
I00
sg27
I00
sg28
I757593
sg20
S'1906.23443734'
p613
sba(igraph
Edge
p614
(dp615
g7
I1
sg8
I00
sg9
I5
sg10
(lp616
g240
ag393
asg26
I00
sg27
I00
sg28
I757594
sg20
S'1906.24603127'
p617
sba(igraph
Edge
p618
(dp619
g7
I1
sg8
I00
sg9
I5
sg10
(lp620
g240
ag404
asg26
I00
sg27
I00
sg28
I757595
sg20
S'1906.25682426'
p621
sba(igraph
Edge
p622
(dp623
g7
I1
sg8
I00
sg9
I5
sg10
(lp624
g243
ag404
asg26
I00
sg27
I00
sg28
I757596
sg20
S'1906.27124676'
p625
sba(igraph
Edge
p626
(dp627
g7
I1
sg8
I00
sg9
I5
sg10
(lp628
g243
ag407
asg26
I00
sg27
I00
sg28
I757597
sg20
S'1906.28286249'
p629
sba(igraph
Edge
p630
(dp631
g7
I1
sg8
I00
sg9
I5
sg10
(lp632
g250
ag407
asg26
I00
sg27
I00
sg28
I757598
sg20
S'1906.29511572'
p633
sba(igraph
Edge
p634
(dp635
g7
I1
sg8
I00
sg9
I5
sg10
(lp636
g250
ag414
asg26
I00
sg27
I00
sg28
I757599
sg20
S'1906.30836014'
p637
sba(igraph
Edge
p638
(dp639
g7
I1
sg8
I00
sg9
I5
sg10
(lp640
g257
ag414
asg26
I00
sg27
I00
sg28
I757600
sg20
S'1906.32189873'
p641
sba(igraph
Edge
p642
(dp643
g7
I1
sg8
I00
sg9
I5
sg10
(lp644
g257
ag421
asg26
I00
sg27
I00
sg28
I757601
sg20
S'1906.3354471'
p645
sba(igraph
Edge
p646
(dp647
g7
I1
sg8
I00
sg9
I5
sg10
(lp648
g346
ag421
asg26
I00
sg27
I00
sg28
I757602
sg20
S'1906.34923461'
p649
sba(igraph
Edge
p650
(dp651
g7
I1
sg8
I00
sg9
I5
sg10
(lp652
g346
ag559
asg26
I00
sg27
I00
sg28
I757603
sg20
S'1906.36076513'
p653
sba(igraph
Edge
p654
(dp655
g7
I1
sg8
I00
sg9
I5
sg10
(lp656
(igraph
Vertex
p657
(dp658
g14
F0.060833903836634839
sg8
I00
sg15
g16
sg17
F-60.404338431003652
sg18
F-253.07792142994964
sg19
I757863
sg20
S'1905.05610909'
p659
sg22
F0.44860308921888281
sba(igraph
Vertex
p660
(dp661
g14
F0.13197512260693905
sg8
I00
sg15
g16
sg17
F-60.404338431003652
sg18
F-201.71396147779001
sg19
I757864
sg20
S'1905.05762799'
p662
sg22
F0.44860308921888281
sbasg26
I00
sg27
I00
sg28
I757604
sg20
S'1906.37233028'
p663
sba(igraph
Edge
p664
(dp665
g7
I1
sg8
I00
sg9
I5
sg10
(lp666
(igraph
Vertex
p667
(dp668
g14
F0.064150653422041043
sg8
I00
sg15
g16
sg17
F-17.47610076597752
sg18
F-250.68322822928636
sg19
I757865
sg20
S'1905.05916394'
p669
sg22
F0.36240180876702316
sba(igraph
Vertex
p670
(dp671
g14
F0.13529187219234537
sg8
I00
sg15
g16
sg17
F-17.47610076597752
sg18
F-199.31926827712664
sg19
I757866
sg20
S'1905.06073426'
p672
sg22
F0.36240180876702316
sbasg26
I00
sg27
I00
sg28
I757605
sg20
S'1906.38364429'
p673
sba(igraph
Edge
p674
(dp675
g7
I1
sg8
I00
sg9
I5
sg10
(lp676
g657
ag667
asg26
I00
sg27
I00
sg28
I757606
sg20
S'1906.39651743'
p677
sba(igraph
Edge
p678
(dp679
g7
I1
sg8
I00
sg9
I5
sg10
(lp680
g660
ag667
asg26
I00
sg27
I00
sg28
I757607
sg20
S'1906.41126791'
p681
sba(igraph
Edge
p682
(dp683
g7
I1
sg8
I00
sg9
I5
sg10
(lp684
g660
ag670
asg26
I00
sg27
I00
sg28
I757608
sg20
S'1906.42481433'
p685
sba(igraph
Edge
p686
(dp687
g7
I1
sg8
I00
sg9
I5
sg10
(lp688
(igraph
Vertex
p689
(dp690
g14
F0.057517154251228352
sg8
I00
sg15
g16
sg17
F27.19247085844151
sg18
F-255.47261463061312
sg19
I757867
sg20
S'1905.06239452'
p691
sg22
F0.27270588181035843
sba(igraph
Vertex
p692
(dp693
g14
F0.12865837302153277
sg8
I00
sg15
g16
sg17
F27.19247085844151
sg18
F-204.10865467845335
sg19
I757868
sg20
S'1905.06411038'
p694
sg22
F0.27270588181035843
sbasg26
I00
sg27
I00
sg28
I757609
sg20
S'1906.43912844'
p695
sba(igraph
Edge
p696
(dp697
g7
I1
sg8
I00
sg9
I5
sg10
(lp698
g667
ag689
asg26
I00
sg27
I00
sg28
I757610
sg20
S'1906.45257177'
p699
sba(igraph
Edge
p700
(dp701
g7
I1
sg8
I00
sg9
I5
sg10
(lp702
g670
ag689
asg26
I00
sg27
I00
sg28
I757611
sg20
S'1906.46611762'
p703
sba(igraph
Edge
p704
(dp705
g7
I1
sg8
I00
sg9
I5
sg10
(lp706
g670
ag692
asg26
I00
sg27
I00
sg28
I757612
sg20
S'1906.47914749'
p707
sba(igraph
Edge
p708
(dp709
g7
I1
sg8
I00
sg9
I5
sg10
(lp710
(igraph
Vertex
p711
(dp712
g14
F0.062767415983600916
sg8
I00
sg15
g16
sg17
F64.18262649425246
sg18
F-251.68192565984015
sg19
I757869
sg20
S'1905.06580445'
p713
sg22
F0.19842846085491475
sba(igraph
Vertex
p714
(dp715
g14
F0.13390863475390524
sg8
I00
sg15
g16
sg17
F64.18262649425246
sg18
F-200.3179657076804
sg19
I757870
sg20
S'1905.06742533'
p716
sg22
F0.19842846085491475
sbasg26
I00
sg27
I00
sg28
I757613
sg20
S'1906.49048441'
p717
sba(igraph
Edge
p718
(dp719
g7
I1
sg8
I00
sg9
I5
sg10
(lp720
(igraph
Vertex
p721
(dp722
g14
F0.064626738986349866
sg8
I01
sg15
I0
sg17
F106.81496570865296
sg18
F-250.33949445185539
sg19
I757872
sg20
S'1905.07474218'
p723
sg22
F0.11282135399868883
sba(igraph
Vertex
p724
(dp725
g14
F0.13722538433931153
sg8
I00
sg15
g16
sg17
F107.11086415927852
sg18
F-197.92327250701709
sg19
I757874
sg20
S'1905.07637619'
p726
sg22
F0.1122271804030552
sbasg26
I00
sg27
I00
sg28
I757614
sg20
S'1906.50219483'
p727
sba(igraph
Edge
p728
(dp729
g7
I1
sg8
I00
sg9
I5
sg10
(lp730
g711
ag721
asg26
I00
sg27
I00
sg28
I757615
sg20
S'1906.51388207'
p731
sba(igraph
Edge
p732
(dp733
g7
I1
sg8
I00
sg9
I5
sg10
(lp734
g714
ag721
asg26
I00
sg27
I00
sg28
I757616
sg20
S'1906.52581459'
p735
sba(igraph
Edge
p736
(dp737
g7
I1
sg8
I00
sg9
I5
sg10
(lp738
g714
ag724
asg26
I00
sg27
I00
sg28
I757617
sg20
S'1906.53784685'
p739
sba(igraph
Edge
p740
(dp741
g7
I1
sg8
I00
sg9
I5
sg10
(lp742
g689
ag711
asg26
I00
sg27
I00
sg28
I757618
sg20
S'1906.55231712'
p743
sba(igraph
Edge
p744
(dp745
g7
I1
sg8
I00
sg9
I5
sg10
(lp746
g692
ag711
asg26
I00
sg27
I00
sg28
I757619
sg20
S'1906.56597948'
p747
sba(igraph
Edge
p748
(dp749
g7
I1
sg8
I00
sg9
I5
sg10
(lp750
g692
ag714
asg26
I00
sg27
I00
sg28
I757620
sg20
S'1906.57945605'
p751
sba(igraph
Edge
p752
(dp753
g7
I1
sg8
I00
sg9
I5
sg10
(lp754
g432
ag724
asg26
I00
sg27
I00
sg28
I757621
sg20
S'1906.59341564'
p755
sba(igraph
Edge
p756
(dp757
g7
I1
sg8
I00
sg9
I5
sg10
(lp758
g724
ag373
asg26
I00
sg27
I00
sg28
I757622
sg20
S'1906.60602367'
p759
sba(igraph
Edge
p760
(dp761
g7
I1
sg8
I00
sg9
I5
sg10
(lp762
g373
ag714
asg26
I00
sg27
I00
sg28
I757623
sg20
S'1906.61908567'
p763
sba(igraph
Edge
p764
(dp765
g7
I1
sg8
I00
sg9
I5
sg10
(lp766
g714
ag209
asg26
I00
sg27
I00
sg28
I757624
sg20
S'1906.633126'
p767
sba(igraph
Edge
p768
(dp769
g7
I1
sg8
I00
sg9
I5
sg10
(lp770
g209
ag692
asg26
I00
sg27
I00
sg28
I757625
sg20
S'1906.64654167'
p771
sba(igraph
Edge
p772
(dp773
g7
I1
sg8
I00
sg9
I5
sg10
(lp774
g692
ag82
asg26
I00
sg27
I00
sg28
I757626
sg20
S'1906.65895554'
p775
sba(igraph
Edge
p776
(dp777
g7
I1
sg8
I00
sg9
I5
sg10
(lp778
g82
ag670
asg26
I00
sg27
I00
sg28
I757627
sg20
S'1906.67360042'
p779
sba(igraph
Edge
p780
(dp781
g7
I1
sg8
I00
sg9
I5
sg10
(lp782
g670
ag12
asg26
I00
sg27
I00
sg28
I757628
sg20
S'1906.69209215'
p783
sba(igraph
Edge
p784
(dp785
g7
I1
sg8
I00
sg9
I5
sg10
(lp786
g12
ag660
asg26
I00
sg27
I00
sg28
I757629
sg20
S'1906.70723039'
p787
sba(igraph
Edge
p788
(dp789
g7
I1
sg8
I00
sg9
I5
sg10
(lp790
g336
ag657
asg26
I00
sg27
I00
sg28
I757630
sg20
S'1906.72243232'
p791
sba(igraph
Edge
p792
(dp793
g7
I1
sg8
I00
sg9
I5
sg10
(lp794
g339
ag657
asg26
I00
sg27
I00
sg28
I757631
sg20
S'1906.73496408'
p795
sba(igraph
Edge
p796
(dp797
g7
I1
sg8
I00
sg9
I5
sg10
(lp798
g339
ag667
asg26
I00
sg27
I00
sg28
I757632
sg20
S'1906.7476453'
p799
sba(igraph
Edge
p800
(dp801
g7
I1
sg8
I00
sg9
I5
sg10
(lp802
g346
ag667
asg26
I00
sg27
I00
sg28
I757633
sg20
S'1906.75902021'
p803
sba(igraph
Edge
p804
(dp805
g7
I1
sg8
I00
sg9
I5
sg10
(lp806
g346
ag689
asg26
I00
sg27
I00
sg28
I757634
sg20
S'1906.77293427'
p807
sba(igraph
Edge
p808
(dp809
g7
I1
sg8
I00
sg9
I5
sg10
(lp810
g559
ag689
asg26
I00
sg27
I00
sg28
I757635
sg20
S'1906.78427063'
p811
sba(igraph
Edge
p812
(dp813
g7
I1
sg8
I00
sg9
I5
sg10
(lp814
g559
ag711
asg26
I00
sg27
I00
sg28
I757636
sg20
S'1906.79538154'
p815
sba(igraph
Edge
p816
(dp817
g7
I1
sg8
I00
sg9
I5
sg10
(lp818
g562
ag711
asg26
I00
sg27
I00
sg28
I757637
sg20
S'1906.80640053'
p819
sba(igraph
Edge
p820
(dp821
g7
I1
sg8
I00
sg9
I5
sg10
(lp822
g562
ag721
asg26
I00
sg27
I00
sg28
I757638
sg20
S'1906.81733796'
p823
sba(igraph
Edge
p824
(dp825
g7
I1
sg8
I00
sg9
I5
sg10
(lp826
(igraph
Vertex
p827
(dp828
g14
F0.19073092819582066
sg8
I00
sg15
g16
sg17
F-230.74473858767499
sg18
F-159.29226984261749
sg19
I757875
sg20
S'1905.07812585'
p829
sg22
F0.79065208551741961
sba(igraph
Vertex
p830
(dp831
g14
F0.2618721469661251
sg8
I00
sg15
g16
sg17
F-230.74473858767499
sg18
F-107.92830989045768
sg19
I757876
sg20
S'1905.07984059'
p832
sg22
F0.79065208551741961
sbasg26
I00
sg27
I00
sg28
I757639
sg20
S'1906.82849859'
p833
sba(igraph
Edge
p834
(dp835
g7
I1
sg8
I00
sg9
I5
sg10
(lp836
(igraph
Vertex
p837
(dp838
g14
F0.33864356035076648
sg8
I00
sg15
g16
sg17
F-230.80589404354828
sg18
F-52.499349426746591
sg19
I757877
sg20
S'1905.08149723'
p839
sg22
F0.79077488763764714
sba(igraph
Vertex
p840
(dp841
g14
F0.40978477912107075
sg8
I00
sg15
g16
sg17
F-230.80589404354828
sg18
F-1.1353894745869297
sg19
I757878
sg20
S'1905.08367041'
p842
sg22
F0.79077488763764714
sbasg26
I00
sg27
I00
sg28
I757640
sg20
S'1906.83973187'
p843
sba(igraph
Edge
p844
(dp845
g7
I1
sg8
I00
sg9
I5
sg10
(lp846
g840
a(igraph
Vertex
p847
(dp848
g14
F0.48092599789137519
sg8
I00
sg15
g16
sg17
F-230.80589404354828
sg18
F50.228570477572873
sg19
I757879
sg20
S'1905.08549019'
p849
sg22
F0.79077488763764714
sbasg26
I00
sg27
I00
sg28
I757641
sg20
S'1906.85105928'
p850
sba(igraph
Edge
p851
(dp852
g7
I1
sg8
I00
sg9
I5
sg10
(lp853
g830
ag837
asg26
I00
sg27
I00
sg28
I757642
sg20
S'1906.86233781'
p854
sba(igraph
Edge
p855
(dp856
g7
I1
sg8
I00
sg9
I5
sg10
(lp857
(igraph
Vertex
p858
(dp859
g14
F0.55546353937638027
sg8
I00
sg15
g16
sg17
F-230.96830604967585
sg18
F104.04467542974658
sg19
I757880
sg20
S'1905.08717113'
p860
sg22
F0.79110101616400774
sba(igraph
Vertex
p861
(dp862
g14
F0.6266047581466847
sg8
I00
sg15
g16
sg17
F-230.96830604967585
sg18
F155.40863538190638
sg19
I757881
sg20
S'1905.08895907'
p863
sg22
F0.79110101616400774
sbasg26
I00
sg27
I00
sg28
I757643
sg20
S'1906.87350208'
p864
sba(igraph
Edge
p865
(dp866
g7
I1
sg8
I00
sg9
I5
sg10
(lp867
g861
a(igraph
Vertex
p868
(dp869
g14
F0.69774597691698892
sg8
I00
sg15
g16
sg17
F-230.96830604967585
sg18
F206.77259533406601
sg19
I757882
sg20
S'1905.09256959'
p870
sg22
F0.79110101616400774
sbasg26
I00
sg27
I00
sg28
I757644
sg20
S'1906.88478536'
p871
sba(igraph
Edge
p872
(dp873
g7
I1
sg8
I00
sg9
I5
sg10
(lp874
g868
a(igraph
Vertex
p875
(dp876
g14
F0.77451739030163047
sg8
I01
sg15
I0
sg17
F-231.02946150554902
sg18
F262.20155579777725
sg19
I757884
sg20
S'1905.09509868'
p877
sg22
F0.79122381828423494
sbasg26
I00
sg27
I00
sg28
I757645
sg20
S'1906.89651143'
p878
sba(igraph
Edge
p879
(dp880
g7
I1
sg8
I00
sg9
I5
sg10
(lp881
g847
ag858
asg26
I00
sg27
I00
sg28
I757646
sg20
S'1906.90787069'
p882
sba(igraph
Edge
p883
(dp884
g7
I1
sg8
I00
sg9
I5
sg10
(lp885
(igraph
Vertex
p886
(dp887
g14
F0.18409742902500806
sg8
I00
sg15
g16
sg17
F-186.0761669632559
sg18
F-164.0816562439442
sg19
I757886
sg20
S'1905.09746937'
p888
sg22
F0.70095615856075477
sba(igraph
Vertex
p889
(dp890
g14
F0.25523864779531236
sg8
I00
sg15
g16
sg17
F-186.0761669632559
sg18
F-112.71769629178448
sg19
I757887
sg20
S'1905.10029906'
p891
sg22
F0.70095615856075477
sbasg26
I00
sg27
I00
sg28
I757647
sg20
S'1906.91921124'
p892
sba(igraph
Edge
p893
(dp894
g7
I1
sg8
I00
sg9
I5
sg10
(lp895
(igraph
Vertex
p896
(dp897
g14
F0.33201006117995374
sg8
I00
sg15
g16
sg17
F-186.13732241912913
sg18
F-57.288735828073385
sg19
I757888
sg20
S'1905.1026393'
p898
sg22
F0.70107896068098219
sba(igraph
Vertex
p899
(dp900
g14
F0.40315127995025818
sg8
I00
sg15
g16
sg17
F-186.13732241912913
sg18
F-5.9247758759136104
sg19
I757889
sg20
S'1905.1050762'
p901
sg22
F0.70107896068098219
sbasg26
I00
sg27
I00
sg28
I757648
sg20
S'1906.93055738'
p902
sba(igraph
Edge
p903
(dp904
g7
I1
sg8
I00
sg9
I5
sg10
(lp905
g899
a(igraph
Vertex
p906
(dp907
g14
F0.47429249872056256
sg8
I00
sg15
g16
sg17
F-186.13732241912913
sg18
F45.439184076246192
sg19
I757890
sg20
S'1905.10807519'
p908
sg22
F0.70107896068098219
sbasg26
I00
sg27
I00
sg28
I757649
sg20
S'1906.94212281'
p909
sba(igraph
Edge
p910
(dp911
g7
I1
sg8
I00
sg9
I5
sg10
(lp912
g889
ag896
asg26
I00
sg27
I00
sg28
I757650
sg20
S'1906.95355276'
p913
sba(igraph
Edge
p914
(dp915
g7
I1
sg8
I00
sg9
I5
sg10
(lp916
(igraph
Vertex
p917
(dp918
g14
F0.54883004020556769
sg8
I00
sg15
g16
sg17
F-186.29973442525687
sg18
F99.255289028419895
sg19
I757891
sg20
S'1905.11079006'
p919
sg22
F0.70140508920734312
sba(igraph
Vertex
p920
(dp921
g14
F0.61997125897587213
sg8
I01
sg15
I0
sg17
F-186.29973442525687
sg18
F150.6192489805797
sg19
I757893
sg20
S'1905.11343928'
p922
sg22
F0.70140508920734312
sbasg26
I00
sg27
I00
sg28
I757651
sg20
S'1906.96498968'
p923
sba(igraph
Edge
p924
(dp925
g7
I1
sg8
I00
sg9
I5
sg10
(lp926
g920
a(igraph
Vertex
p927
(dp928
g14
F0.69111247774617635
sg8
I00
sg15
g16
sg17
F-186.29973442525687
sg18
F201.98320893273933
sg19
I757895
sg20
S'1905.11643798'
p929
sg22
F0.70140508920734312
sbasg26
I00
sg27
I00
sg28
I757652
sg20
S'1906.97636683'
p930
sba(igraph
Edge
p931
(dp932
g7
I1
sg8
I00
sg9
I5
sg10
(lp933
g927
a(igraph
Vertex
p934
(dp935
g14
F0.7678838911308179
sg8
I00
sg15
g16
sg17
F-186.36088988112994
sg18
F257.41216939645051
sg19
I757896
sg20
S'1905.11934254'
p936
sg22
F0.7015278913275701
sbasg26
I00
sg27
I00
sg28
I757653
sg20
S'1906.98775738'
p937
sba(igraph
Edge
p938
(dp939
g7
I1
sg8
I00
sg9
I5
sg10
(lp940
g906
ag917
asg26
I00
sg27
I00
sg28
I757654
sg20
S'1906.99935718'
p941
sba(igraph
Edge
p942
(dp943
g7
I1
sg8
I00
sg9
I5
sg10
(lp944
g827
ag886
asg26
I00
sg27
I00
sg28
I757655
sg20
S'1907.01094608'
p945
sba(igraph
Edge
p946
(dp947
g7
I1
sg8
I00
sg9
I5
sg10
(lp948
g830
ag886
asg26
I00
sg27
I00
sg28
I757656
sg20
S'1907.02266098'
p949
sba(igraph
Edge
p950
(dp951
g7
I1
sg8
I00
sg9
I5
sg10
(lp952
g830
ag889
asg26
I00
sg27
I00
sg28
I757657
sg20
S'1907.03424737'
p953
sba(igraph
Edge
p954
(dp955
g7
I1
sg8
I00
sg9
I5
sg10
(lp956
g837
ag889
asg26
I00
sg27
I00
sg28
I757658
sg20
S'1907.04620671'
p957
sba(igraph
Edge
p958
(dp959
g7
I1
sg8
I00
sg9
I5
sg10
(lp960
g837
ag896
asg26
I00
sg27
I00
sg28
I757659
sg20
S'1907.05802385'
p961
sba(igraph
Edge
p962
(dp963
g7
I1
sg8
I00
sg9
I5
sg10
(lp964
g840
ag896
asg26
I00
sg27
I00
sg28
I757660
sg20
S'1907.06953035'
p965
sba(igraph
Edge
p966
(dp967
g7
I1
sg8
I00
sg9
I5
sg10
(lp968
g840
ag899
asg26
I00
sg27
I00
sg28
I757661
sg20
S'1907.08128072'
p969
sba(igraph
Edge
p970
(dp971
g7
I1
sg8
I00
sg9
I5
sg10
(lp972
g847
ag899
asg26
I00
sg27
I00
sg28
I757662
sg20
S'1907.09277771'
p973
sba(igraph
Edge
p974
(dp975
g7
I1
sg8
I00
sg9
I5
sg10
(lp976
g847
ag906
asg26
I00
sg27
I00
sg28
I757663
sg20
S'1907.10428644'
p977
sba(igraph
Edge
p978
(dp979
g7
I1
sg8
I00
sg9
I5
sg10
(lp980
g858
ag906
asg26
I00
sg27
I00
sg28
I757664
sg20
S'1907.11601502'
p981
sba(igraph
Edge
p982
(dp983
g7
I1
sg8
I00
sg9
I5
sg10
(lp984
g858
ag917
asg26
I00
sg27
I00
sg28
I757665
sg20
S'1907.12773327'
p985
sba(igraph
Edge
p986
(dp987
g7
I1
sg8
I00
sg9
I5
sg10
(lp988
g861
ag917
asg26
I00
sg27
I00
sg28
I757666
sg20
S'1907.13945041'
p989
sba(igraph
Edge
p990
(dp991
g7
I1
sg8
I00
sg9
I5
sg10
(lp992
g861
ag920
asg26
I00
sg27
I00
sg28
I757667
sg20
S'1907.15101417'
p993
sba(igraph
Edge
p994
(dp995
g7
I1
sg8
I00
sg9
I5
sg10
(lp996
g868
ag920
asg26
I00
sg27
I00
sg28
I757668
sg20
S'1907.16249384'
p997
sba(igraph
Edge
p998
(dp999
g7
I1
sg8
I00
sg9
I5
sg10
(lp1000
g868
ag927
asg26
I00
sg27
I00
sg28
I757669
sg20
S'1907.17434478'
p1001
sba(igraph
Edge
p1002
(dp1003
g7
I1
sg8
I00
sg9
I5
sg10
(lp1004
g875
ag927
asg26
I00
sg27
I00
sg28
I757670
sg20
S'1907.18617087'
p1005
sba(igraph
Edge
p1006
(dp1007
g7
I1
sg8
I00
sg9
I5
sg10
(lp1008
g875
ag934
asg26
I00
sg27
I00
sg28
I757671
sg20
S'1907.19801343'
p1009
sba(igraph
Edge
p1010
(dp1011
g7
I1
sg8
I00
sg9
I5
sg10
(lp1012
(igraph
Vertex
p1013
(dp1014
g14
F0.85265546958853844
sg8
I00
sg15
g16
sg17
F-226.83462106535603
sg18
F318.61724904292475
sg19
I757897
sg20
S'1905.1220549'
p1015
sg22
F0.78280044390633741
sba(igraph
Vertex
p1016
(dp1017
g14
F0.84602197041772587
sg8
I00
sg15
g16
sg17
F-182.16604944093683
sg18
F313.82786264159813
sg19
I757898
sg20
S'1905.12479631'
p1018
sg22
F0.69310451694967234
sbasg26
I00
sg27
I00
sg28
I757672
sg20
S'1907.2098736'
p1019
sba(igraph
Edge
p1020
(dp1021
g7
I1
sg8
I00
sg9
I5
sg10
(lp1022
g875
ag1013
asg26
I00
sg27
I00
sg28
I757673
sg20
S'1907.22169214'
p1023
sba(igraph
Edge
p1024
(dp1025
g7
I1
sg8
I00
sg9
I5
sg10
(lp1026
g934
ag1013
asg26
I00
sg27
I00
sg28
I757674
sg20
S'1907.23377329'
p1027
sba(igraph
Edge
p1028
(dp1029
g7
I1
sg8
I00
sg9
I5
sg10
(lp1030
g934
ag1016
asg26
I00
sg27
I00
sg28
I757675
sg20
S'1907.24557982'
p1031
sba(igraph
Edge
p1032
(dp1033
g7
I1
sg8
I00
sg9
I5
sg10
(lp1034
(igraph
Vertex
p1035
(dp1036
g14
F0.18934769075738053
sg8
I00
sg15
g16
sg17
F-149.08601132744502
sg18
F-160.29096727317125
sg19
I757899
sg20
S'1905.12746033'
p1037
sg22
F0.62667873760531134
sba(igraph
Vertex
p1038
(dp1039
g14
F0.26048890952768489
sg8
I00
sg15
g16
sg17
F-149.08601132744502
sg18
F-108.9270073210115
sg19
I757900
sg20
S'1905.13042915'
p1040
sg22
F0.62667873760531134
sbasg26
I00
sg27
I00
sg28
I757676
sg20
S'1907.25750144'
p1041
sba(igraph
Edge
p1042
(dp1043
g7
I1
sg8
I00
sg9
I5
sg10
(lp1044
(igraph
Vertex
p1045
(dp1046
g14
F0.33726032291232622
sg8
I00
sg15
g16
sg17
F-149.14716678331814
sg18
F-53.498046857300466
sg19
I757901
sg20
S'1905.13328314'
p1047
sg22
F0.62680153972553843
sba(igraph
Vertex
p1048
(dp1049
g14
F0.40840154168263065
sg8
I00
sg15
g16
sg17
F-149.14716678331814
sg18
F-2.1340869051406912
sg19
I757902
sg20
S'1905.1357558'
p1050
sg22
F0.62680153972553843
sbasg26
I00
sg27
I00
sg28
I757677
sg20
S'1907.269332'
p1051
sba(igraph
Edge
p1052
(dp1053
g7
I1
sg8
I00
sg9
I5
sg10
(lp1054
g1048
a(igraph
Vertex
p1055
(dp1056
g14
F0.47954276045293504
sg8
I01
sg15
I0
sg17
F-149.14716678331814
sg18
F49.229873047019112
sg19
I757904
sg20
S'1905.13806336'
p1057
sg22
F0.62680153972553843
sbasg26
I00
sg27
I00
sg28
I757678
sg20
S'1907.28293764'
p1058
sba(igraph
Edge
p1059
(dp1060
g7
I1
sg8
I00
sg9
I5
sg10
(lp1061
g1038
ag1045
asg26
I00
sg27
I00
sg28
I757679
sg20
S'1907.29495592'
p1062
sba(igraph
Edge
p1063
(dp1064
g7
I1
sg8
I00
sg9
I5
sg10
(lp1065
(igraph
Vertex
p1066
(dp1067
g14
F0.55408030193794011
sg8
I00
sg15
g16
sg17
F-149.30957878944582
sg18
F103.04597799919276
sg19
I757906
sg20
S'1905.14023095'
p1068
sg22
F0.62712766825189925
sba(igraph
Vertex
p1069
(dp1070
g14
F0.62522152070824455
sg8
I00
sg15
g16
sg17
F-149.30957878944582
sg18
F154.40993795135256
sg19
I757907
sg20
S'1905.14260863'
p1071
sg22
F0.62712766825189925
sbasg26
I00
sg27
I00
sg28
I757680
sg20
S'1907.30684431'
p1072
sba(igraph
Edge
p1073
(dp1074
g7
I1
sg8
I00
sg9
I5
sg10
(lp1075
g1069
a(igraph
Vertex
p1076
(dp1077
g14
F0.69636273947854876
sg8
I01
sg15
I0
sg17
F-149.30957878944582
sg18
F205.77389790351219
sg19
I757909
sg20
S'1905.14460637'
p1078
sg22
F0.62712766825189925
sbasg26
I00
sg27
I00
sg28
I757681
sg20
S'1907.31949396'
p1079
sba(igraph
Edge
p1080
(dp1081
g7
I1
sg8
I00
sg9
I5
sg10
(lp1082
g1076
a(igraph
Vertex
p1083
(dp1084
g14
F0.77313415286319032
sg8
I00
sg15
g16
sg17
F-149.37073424531894
sg18
F261.20285836722337
sg19
I757911
sg20
S'1905.14696142'
p1085
sg22
F0.62725047037212645
sbasg26
I00
sg27
I00
sg28
I757682
sg20
S'1907.33177569'
p1086
sba(igraph
Edge
p1087
(dp1088
g7
I1
sg8
I00
sg9
I5
sg10
(lp1089
g1055
ag1066
asg26
I00
sg27
I00
sg28
I757683
sg20
S'1907.34368027'
p1090
sba(igraph
Edge
p1091
(dp1092
g7
I1
sg8
I00
sg9
I5
sg10
(lp1093
(igraph
Vertex
p1094
(dp1095
g14
F0.1912070137601295
sg8
I00
sg15
g16
sg17
F-106.45367211304443
sg18
F-158.94853606518652
sg19
I757912
sg20
S'1905.14895916'
p1096
sg22
F0.54107163074908526
sba(igraph
Vertex
p1097
(dp1098
g14
F0.26380565911309117
sg8
I00
sg15
g16
sg17
F-106.15777366241889
sg18
F-106.53231412034816
sg19
I757913
sg20
S'1905.15106277'
p1099
sg22
F0.54047745715345163
sbasg26
I00
sg27
I00
sg28
I757684
sg20
S'1907.35564325'
p1100
sba(igraph
Edge
p1101
(dp1102
g7
I1
sg8
I00
sg9
I5
sg10
(lp1103
(igraph
Vertex
p1104
(dp1105
g14
F0.34057707249773256
sg8
I00
sg15
g16
sg17
F-106.21892911829207
sg18
F-51.103353656637097
sg19
I757914
sg20
S'1905.15344045'
p1106
sg22
F0.54060025927367883
sba(igraph
Vertex
p1107
(dp1108
g14
F0.41171829126803694
sg8
I00
sg15
g16
sg17
F-106.21892911829207
sg18
F0.26060629552267756
sg19
I757915
sg20
S'1905.15564073'
p1109
sg22
F0.54060025927367883
sbasg26
I00
sg27
I00
sg28
I757685
sg20
S'1907.36760957'
p1110
sba(igraph
Edge
p1111
(dp1112
g7
I1
sg8
I00
sg9
I5
sg10
(lp1113
g1107
a(igraph
Vertex
p1114
(dp1115
g14
F0.48285951003834138
sg8
I00
sg15
g16
sg17
F-106.21892911829207
sg18
F51.62456624768248
sg19
I757916
sg20
S'1905.15774407'
p1116
sg22
F0.54060025927367883
sbasg26
I00
sg27
I00
sg28
I757686
sg20
S'1907.37945828'
p1117
sba(igraph
Edge
p1118
(dp1119
g7
I1
sg8
I00
sg9
I5
sg10
(lp1120
g1097
ag1104
asg26
I00
sg27
I00
sg28
I757687
sg20
S'1907.39162966'
p1121
sba(igraph
Edge
p1122
(dp1123
g7
I1
sg8
I00
sg9
I5
sg10
(lp1124
(igraph
Vertex
p1125
(dp1126
g14
F0.55739705152334651
sg8
I00
sg15
g16
sg17
F-106.38134112441963
sg18
F105.44067119985618
sg19
I757917
sg20
S'1905.16038128'
p1127
sg22
F0.54092638780003943
sba(igraph
Vertex
p1128
(dp1129
g14
F0.63018242122719736
sg8
I00
sg15
g16
sg17
F-101.83770226338072
sg18
F157.99170812603649
sg19
I757918
sg20
S'1905.16257178'
p1130
sg22
F0.53180261498670822
sbasg26
I00
sg27
I00
sg28
I757688
sg20
S'1907.40384434'
p1131
sba(igraph
Edge
p1132
(dp1133
g7
I1
sg8
I00
sg9
I5
sg10
(lp1134
g1128
a(igraph
Vertex
p1135
(dp1136
g14
F0.69967948906395505
sg8
I00
sg15
g16
sg17
F-106.38134112441963
sg18
F208.16859110417556
sg19
I757919
sg20
S'1905.16466506'
p1137
sg22
F0.54092638780003943
sbasg26
I00
sg27
I00
sg28
I757689
sg20
S'1907.4163694'
p1138
sba(igraph
Edge
p1139
(dp1140
g7
I1
sg8
I00
sg9
I5
sg10
(lp1141
g1135
a(igraph
Vertex
p1142
(dp1143
g14
F0.77645090244859671
sg8
I00
sg15
g16
sg17
F-106.44249658029275
sg18
F263.59755156788685
sg19
I757920
sg20
S'1905.16670415'
p1144
sg22
F0.54104918992026663
sbasg26
I00
sg27
I00
sg28
I757690
sg20
S'1907.42853603'
p1145
sba(igraph
Edge
p1146
(dp1147
g7
I1
sg8
I00
sg9
I5
sg10
(lp1148
g1114
ag1125
asg26
I00
sg27
I00
sg28
I757691
sg20
S'1907.44095465'
p1149
sba(igraph
Edge
p1150
(dp1151
g7
I1
sg8
I00
sg9
I5
sg10
(lp1152
g1035
ag1094
asg26
I00
sg27
I00
sg28
I757692
sg20
S'1907.45328973'
p1153
sba(igraph
Edge
p1154
(dp1155
g7
I1
sg8
I00
sg9
I5
sg10
(lp1156
g1038
ag1094
asg26
I00
sg27
I00
sg28
I757693
sg20
S'1907.46588826'
p1157
sba(igraph
Edge
p1158
(dp1159
g7
I1
sg8
I00
sg9
I5
sg10
(lp1160
g1038
ag1097
asg26
I00
sg27
I00
sg28
I757694
sg20
S'1907.47821497'
p1161
sba(igraph
Edge
p1162
(dp1163
g7
I1
sg8
I00
sg9
I5
sg10
(lp1164
g1045
ag1097
asg26
I00
sg27
I00
sg28
I757695
sg20
S'1907.49045116'
p1165
sba(igraph
Edge
p1166
(dp1167
g7
I1
sg8
I00
sg9
I5
sg10
(lp1168
g1045
ag1104
asg26
I00
sg27
I00
sg28
I757696
sg20
S'1907.50821794'
p1169
sba(igraph
Edge
p1170
(dp1171
g7
I1
sg8
I00
sg9
I5
sg10
(lp1172
g1048
ag1104
asg26
I00
sg27
I00
sg28
I757697
sg20
S'1907.52091285'
p1173
sba(igraph
Edge
p1174
(dp1175
g7
I1
sg8
I00
sg9
I5
sg10
(lp1176
g1048
ag1107
asg26
I00
sg27
I00
sg28
I757698
sg20
S'1907.53334656'
p1177
sba(igraph
Edge
p1178
(dp1179
g7
I1
sg8
I00
sg9
I5
sg10
(lp1180
g1055
ag1107
asg26
I00
sg27
I00
sg28
I757699
sg20
S'1907.5457878'
p1181
sba(igraph
Edge
p1182
(dp1183
g7
I1
sg8
I00
sg9
I5
sg10
(lp1184
g1055
ag1114
asg26
I00
sg27
I00
sg28
I757700
sg20
S'1907.55823631'
p1185
sba(igraph
Edge
p1186
(dp1187
g7
I1
sg8
I00
sg9
I5
sg10
(lp1188
g1066
ag1114
asg26
I00
sg27
I00
sg28
I757701
sg20
S'1907.57052642'
p1189
sba(igraph
Edge
p1190
(dp1191
g7
I1
sg8
I00
sg9
I5
sg10
(lp1192
g1066
ag1125
asg26
I00
sg27
I00
sg28
I757702
sg20
S'1907.58302885'
p1193
sba(igraph
Edge
p1194
(dp1195
g7
I1
sg8
I00
sg9
I5
sg10
(lp1196
g1069
ag1125
asg26
I00
sg27
I00
sg28
I757703
sg20
S'1907.5952318'
p1197
sba(igraph
Edge
p1198
(dp1199
g7
I1
sg8
I00
sg9
I5
sg10
(lp1200
g1069
ag1128
asg26
I00
sg27
I00
sg28
I757704
sg20
S'1907.60780574'
p1201
sba(igraph
Edge
p1202
(dp1203
g7
I1
sg8
I00
sg9
I5
sg10
(lp1204
g1076
ag1128
asg26
I00
sg27
I00
sg28
I757705
sg20
S'1907.62037214'
p1205
sba(igraph
Edge
p1206
(dp1207
g7
I1
sg8
I00
sg9
I5
sg10
(lp1208
g1076
ag1135
asg26
I00
sg27
I00
sg28
I757706
sg20
S'1907.6329229'
p1209
sba(igraph
Edge
p1210
(dp1211
g7
I1
sg8
I00
sg9
I5
sg10
(lp1212
g1083
ag1135
asg26
I00
sg27
I00
sg28
I757707
sg20
S'1907.6455164'
p1213
sba(igraph
Edge
p1214
(dp1215
g7
I1
sg8
I00
sg9
I5
sg10
(lp1216
g1083
ag1142
asg26
I00
sg27
I00
sg28
I757708
sg20
S'1907.65801324'
p1217
sba(igraph
Edge
p1218
(dp1219
g7
I1
sg8
I00
sg9
I5
sg10
(lp1220
(igraph
Vertex
p1221
(dp1222
g14
F0.8512722321500984
sg8
I00
sg15
g16
sg17
F-145.1758938051259
sg18
F317.61855161237099
sg19
I757921
sg20
S'1905.16866054'
p1223
sg22
F0.61882709599422869
sba(igraph
Vertex
p1224
(dp1225
g14
F0.85458898173550468
sg8
I00
sg15
g16
sg17
F-102.24765614009982
sg18
F320.01324481303436
sg19
I757922
sg20
S'1905.17119075'
p1226
sg22
F0.5326258155423691
sbasg26
I00
sg27
I00
sg28
I757709
sg20
S'1907.67109395'
p1227
sba(igraph
Edge
p1228
(dp1229
g7
I1
sg8
I00
sg9
I5
sg10
(lp1230
g1083
ag1221
asg26
I00
sg27
I00
sg28
I757710
sg20
S'1907.68404141'
p1231
sba(igraph
Edge
p1232
(dp1233
g7
I1
sg8
I00
sg9
I5
sg10
(lp1234
g1142
ag1221
asg26
I00
sg27
I00
sg28
I757711
sg20
S'1907.6966215'
p1235
sba(igraph
Edge
p1236
(dp1237
g7
I1
sg8
I00
sg9
I5
sg10
(lp1238
g1142
ag1224
asg26
I00
sg27
I00
sg28
I757712
sg20
S'1907.70927255'
p1239
sba(igraph
Edge
p1240
(dp1241
g7
I1
sg8
I00
sg9
I5
sg10
(lp1242
g886
ag1035
asg26
I00
sg27
I00
sg28
I757713
sg20
S'1907.72196299'
p1243
sba(igraph
Edge
p1244
(dp1245
g7
I1
sg8
I00
sg9
I5
sg10
(lp1246
g889
ag1035
asg26
I00
sg27
I00
sg28
I757714
sg20
S'1907.73461515'
p1247
sba(igraph
Edge
p1248
(dp1249
g7
I1
sg8
I00
sg9
I5
sg10
(lp1250
g889
ag1038
asg26
I00
sg27
I00
sg28
I757715
sg20
S'1907.74714915'
p1251
sba(igraph
Edge
p1252
(dp1253
g7
I1
sg8
I00
sg9
I5
sg10
(lp1254
g896
ag1038
asg26
I00
sg27
I00
sg28
I757716
sg20
S'1907.75970633'
p1255
sba(igraph
Edge
p1256
(dp1257
g7
I1
sg8
I00
sg9
I5
sg10
(lp1258
g896
ag1045
asg26
I00
sg27
I00
sg28
I757717
sg20
S'1907.77576899'
p1259
sba(igraph
Edge
p1260
(dp1261
g7
I1
sg8
I00
sg9
I5
sg10
(lp1262
g899
ag1045
asg26
I00
sg27
I00
sg28
I757718
sg20
S'1907.78895279'
p1263
sba(igraph
Edge
p1264
(dp1265
g7
I1
sg8
I00
sg9
I5
sg10
(lp1266
g899
ag1048
asg26
I00
sg27
I00
sg28
I757719
sg20
S'1907.80182593'
p1267
sba(igraph
Edge
p1268
(dp1269
g7
I1
sg8
I00
sg9
I5
sg10
(lp1270
g906
ag1048
asg26
I00
sg27
I00
sg28
I757720
sg20
S'1907.81484043'
p1271
sba(igraph
Edge
p1272
(dp1273
g7
I1
sg8
I00
sg9
I5
sg10
(lp1274
g906
ag1055
asg26
I00
sg27
I00
sg28
I757721
sg20
S'1907.8276334'
p1275
sba(igraph
Edge
p1276
(dp1277
g7
I1
sg8
I00
sg9
I5
sg10
(lp1278
g917
ag1055
asg26
I00
sg27
I00
sg28
I757722
sg20
S'1907.84049286'
p1279
sba(igraph
Edge
p1280
(dp1281
g7
I1
sg8
I00
sg9
I5
sg10
(lp1282
g917
ag1066
asg26
I00
sg27
I00
sg28
I757723
sg20
S'1907.85327856'
p1283
sba(igraph
Edge
p1284
(dp1285
g7
I1
sg8
I00
sg9
I5
sg10
(lp1286
g920
ag1066
asg26
I00
sg27
I00
sg28
I757724
sg20
S'1907.86627798'
p1287
sba(igraph
Edge
p1288
(dp1289
g7
I1
sg8
I00
sg9
I5
sg10
(lp1290
g920
ag1069
asg26
I00
sg27
I00
sg28
I757725
sg20
S'1907.87948245'
p1291
sba(igraph
Edge
p1292
(dp1293
g7
I1
sg8
I00
sg9
I5
sg10
(lp1294
g927
ag1069
asg26
I00
sg27
I00
sg28
I757726
sg20
S'1907.89265926'
p1295
sba(igraph
Edge
p1296
(dp1297
g7
I1
sg8
I00
sg9
I5
sg10
(lp1298
g927
ag1076
asg26
I00
sg27
I00
sg28
I757727
sg20
S'1907.90558213'
p1299
sba(igraph
Edge
p1300
(dp1301
g7
I1
sg8
I00
sg9
I5
sg10
(lp1302
g934
ag1076
asg26
I00
sg27
I00
sg28
I757728
sg20
S'1907.91866843'
p1303
sba(igraph
Edge
p1304
(dp1305
g7
I1
sg8
I00
sg9
I5
sg10
(lp1306
g934
ag1083
asg26
I00
sg27
I00
sg28
I757729
sg20
S'1907.93185251'
p1307
sba(igraph
Edge
p1308
(dp1309
g7
I1
sg8
I00
sg9
I5
sg10
(lp1310
g1016
ag1083
asg26
I00
sg27
I00
sg28
I757730
sg20
S'1907.94521929'
p1311
sba(igraph
Edge
p1312
(dp1313
g7
I1
sg8
I00
sg9
I5
sg10
(lp1314
g1016
ag1221
asg26
I00
sg27
I00
sg28
I757731
sg20
S'1907.95852685'
p1315
sba(igraph
Edge
p1316
(dp1317
g7
I1
sg8
I00
sg9
I5
sg10
(lp1318
(igraph
Vertex
p1319
(dp1320
g14
F0.064150653422041043
sg8
I00
sg15
g16
sg17
F-231.83652729622111
sg18
F-250.68322822928636
sg19
I757923
sg20
S'1905.17343489'
p1321
sg22
F0.79284443232172908
sba(igraph
Vertex
p1322
(dp1323
g14
F0.13529187219234537
sg8
I00
sg15
g16
sg17
F-231.83652729622111
sg18
F-199.31926827712664
sg19
I757924
sg20
S'1905.17547174'
p1324
sg22
F0.79284443232172908
sbasg26
I00
sg27
I00
sg28
I757732
sg20
S'1907.97167601'
p1325
sba(igraph
Edge
p1326
(dp1327
g7
I1
sg8
I00
sg9
I5
sg10
(lp1328
(igraph
Vertex
p1329
(dp1330
g14
F0.057517154251228352
sg8
I00
sg15
g16
sg17
F-187.16795567180208
sg18
F-255.47261463061312
sg19
I757925
sg20
S'1905.17752815'
p1331
sg22
F0.70314850536506446
sba(igraph
Vertex
p1332
(dp1333
g14
F0.12865837302153277
sg8
I00
sg15
g16
sg17
F-187.16795567180208
sg18
F-204.10865467845335
sg19
I757926
sg20
S'1905.17963289'
p1334
sg22
F0.70314850536506446
sbasg26
I00
sg27
I00
sg28
I757733
sg20
S'1907.98508609'
p1335
sba(igraph
Edge
p1336
(dp1337
g7
I1
sg8
I00
sg9
I5
sg10
(lp1338
g1319
ag1329
asg26
I00
sg27
I00
sg28
I757734
sg20
S'1907.99847858'
p1339
sba(igraph
Edge
p1340
(dp1341
g7
I1
sg8
I00
sg9
I5
sg10
(lp1342
g1322
ag1329
asg26
I00
sg27
I00
sg28
I757735
sg20
S'1908.01156879'
p1343
sba(igraph
Edge
p1344
(dp1345
g7
I1
sg8
I00
sg9
I5
sg10
(lp1346
g1322
ag1332
asg26
I00
sg27
I00
sg28
I757736
sg20
S'1908.02487523'
p1347
sba(igraph
Edge
p1348
(dp1349
g7
I1
sg8
I00
sg9
I5
sg10
(lp1350
(igraph
Vertex
p1351
(dp1352
g14
F0.062767415983600916
sg8
I00
sg15
g16
sg17
F-150.17780003599108
sg18
F-251.68192565984015
sg19
I757927
sg20
S'1905.18178791'
p1353
sg22
F0.6288710844096207
sba(igraph
Vertex
p1354
(dp1355
g14
F0.13390863475390524
sg8
I00
sg15
g16
sg17
F-150.17780003599108
sg18
F-200.3179657076804
sg19
I757928
sg20
S'1905.18386555'
p1356
sg22
F0.6288710844096207
sbasg26
I00
sg27
I00
sg28
I757737
sg20
S'1908.0379836'
p1357
sba(igraph
Edge
p1358
(dp1359
g7
I1
sg8
I00
sg9
I5
sg10
(lp1360
(igraph
Vertex
p1361
(dp1362
g14
F0.064626738986349866
sg8
I00
sg15
g16
sg17
F-107.54546082159055
sg18
F-250.33949445185539
sg19
I757929
sg20
S'1905.1860418'
p1363
sg22
F0.54326397755339473
sba(igraph
Vertex
p1364
(dp1365
g14
F0.13722538433931153
sg8
I00
sg15
g16
sg17
F-107.24956237096501
sg18
F-197.92327250701709
sg19
I757930
sg20
S'1905.1885681'
p1366
sg22
F0.5426698039577611
sbasg26
I00
sg27
I00
sg28
I757738
sg20
S'1908.05129507'
p1367
sba(igraph
Edge
p1368
(dp1369
g7
I1
sg8
I00
sg9
I5
sg10
(lp1370
g1351
ag1361
asg26
I00
sg27
I00
sg28
I757739
sg20
S'1908.06455262'
p1371
sba(igraph
Edge
p1372
(dp1373
g7
I1
sg8
I00
sg9
I5
sg10
(lp1374
g1354
ag1361
asg26
I00
sg27
I00
sg28
I757740
sg20
S'1908.07783559'
p1375
sba(igraph
Edge
p1376
(dp1377
g7
I1
sg8
I00
sg9
I5
sg10
(lp1378
g1354
ag1364
asg26
I00
sg27
I00
sg28
I757741
sg20
S'1908.09115544'
p1379
sba(igraph
Edge
p1380
(dp1381
g7
I1
sg8
I00
sg9
I5
sg10
(lp1382
g1329
ag1351
asg26
I00
sg27
I00
sg28
I757742
sg20
S'1908.10461441'
p1383
sba(igraph
Edge
p1384
(dp1385
g7
I1
sg8
I00
sg9
I5
sg10
(lp1386
g1332
ag1351
asg26
I00
sg27
I00
sg28
I757743
sg20
S'1908.11802785'
p1387
sba(igraph
Edge
p1388
(dp1389
g7
I1
sg8
I00
sg9
I5
sg10
(lp1390
g1332
ag1354
asg26
I00
sg27
I00
sg28
I757744
sg20
S'1908.13125132'
p1391
sba(igraph
Edge
p1392
(dp1393
g7
I1
sg8
I00
sg9
I5
sg10
(lp1394
g1094
ag1364
asg26
I00
sg27
I00
sg28
I757745
sg20
S'1908.14472649'
p1395
sba(igraph
Edge
p1396
(dp1397
g7
I1
sg8
I00
sg9
I5
sg10
(lp1398
g1364
ag1035
asg26
I00
sg27
I00
sg28
I757746
sg20
S'1908.15809412'
p1399
sba(igraph
Edge
p1400
(dp1401
g7
I1
sg8
I00
sg9
I5
sg10
(lp1402
g1035
ag1354
asg26
I00
sg27
I00
sg28
I757747
sg20
S'1908.17173104'
p1403
sba(igraph
Edge
p1404
(dp1405
g7
I1
sg8
I00
sg9
I5
sg10
(lp1406
g1354
ag886
asg26
I00
sg27
I00
sg28
I757748
sg20
S'1908.18550123'
p1407
sba(igraph
Edge
p1408
(dp1409
g7
I1
sg8
I00
sg9
I5
sg10
(lp1410
g886
ag1332
asg26
I00
sg27
I00
sg28
I757749
sg20
S'1908.1990063'
p1411
sba(igraph
Edge
p1412
(dp1413
g7
I1
sg8
I00
sg9
I5
sg10
(lp1414
g1332
ag827
asg26
I00
sg27
I00
sg28
I757750
sg20
S'1908.21272732'
p1415
sba(igraph
Edge
p1416
(dp1417
g7
I1
sg8
I00
sg9
I5
sg10
(lp1418
g827
ag1322
asg26
I00
sg27
I00
sg28
I757751
sg20
S'1908.22630586'
p1419
sba(igraph
Edge
p1420
(dp1421
g7
I1
sg8
I00
sg9
I5
sg10
(lp1422
g1013
ag1319
asg26
I00
sg27
I00
sg28
I757752
sg20
S'1908.23991038'
p1423
sba(igraph
Edge
p1424
(dp1425
g7
I1
sg8
I00
sg9
I5
sg10
(lp1426
g1016
ag1319
asg26
I00
sg27
I00
sg28
I757753
sg20
S'1908.25348222'
p1427
sba(igraph
Edge
p1428
(dp1429
g7
I1
sg8
I00
sg9
I5
sg10
(lp1430
g1016
ag1329
asg26
I00
sg27
I00
sg28
I757754
sg20
S'1908.26724346'
p1431
sba(igraph
Edge
p1432
(dp1433
g7
I1
sg8
I00
sg9
I5
sg10
(lp1434
g1221
ag1329
asg26
I00
sg27
I00
sg28
I757755
sg20
S'1908.28254429'
p1435
sba(igraph
Edge
p1436
(dp1437
g7
I1
sg8
I00
sg9
I5
sg10
(lp1438
g1221
ag1351
asg26
I00
sg27
I00
sg28
I757756
sg20
S'1908.29624743'
p1439
sba(igraph
Edge
p1440
(dp1441
g7
I1
sg8
I00
sg9
I5
sg10
(lp1442
g1224
ag1351
asg26
I00
sg27
I00
sg28
I757757
sg20
S'1908.31030564'
p1443
sba(igraph
Edge
p1444
(dp1445
g7
I1
sg8
I00
sg9
I5
sg10
(lp1446
g1224
ag1361
asg26
I00
sg27
I00
sg28
I757758
sg20
S'1908.32407471'
p1447
sba(igraph
Edge
p1448
(dp1449
g7
I1
sg8
I00
sg9
I5
sg10
(lp1450
g657
ag1361
asg26
I00
sg27
I00
sg28
I757759
sg20
S'1908.33787562'
p1451
sba(igraph
Edge
p1452
(dp1453
g7
I1
sg8
I00
sg9
I5
sg10
(lp1454
g657
ag1364
asg26
I00
sg27
I00
sg28
I757760
sg20
S'1908.35163017'
p1455
sba(igraph
Edge
p1456
(dp1457
g7
I1
sg8
I00
sg9
I5
sg10
(lp1458
g1364
ag660
asg26
I00
sg27
I00
sg28
I757761
sg20
S'1908.36524391'
p1459
sba(igraph
Edge
p1460
(dp1461
g7
I1
sg8
I00
sg9
I5
sg10
(lp1462
g660
ag1094
asg26
I00
sg27
I00
sg28
I757762
sg20
S'1908.3789937'
p1463
sba(igraph
Edge
p1464
(dp1465
g7
I1
sg8
I00
sg9
I5
sg10
(lp1466
g1094
ag12
asg26
I00
sg27
I00
sg28
I757763
sg20
S'1908.39285468'
p1467
sba(igraph
Edge
p1468
(dp1469
g7
I1
sg8
I00
sg9
I5
sg10
(lp1470
g12
ag1097
asg26
I00
sg27
I00
sg28
I757764
sg20
S'1908.40667264'
p1471
sba(igraph
Edge
p1472
(dp1473
g7
I1
sg8
I00
sg9
I5
sg10
(lp1474
g1097
ag23
asg26
I00
sg27
I00
sg28
I757765
sg20
S'1908.42071436'
p1475
sba(igraph
Edge
p1476
(dp1477
g7
I1
sg8
I00
sg9
I5
sg10
(lp1478
g23
ag1104
asg26
I00
sg27
I00
sg28
I757766
sg20
S'1908.43434878'
p1479
sba(igraph
Edge
p1480
(dp1481
g7
I1
sg8
I00
sg9
I5
sg10
(lp1482
g1104
ag33
asg26
I00
sg27
I00
sg28
I757767
sg20
S'1908.44888582'
p1483
sba(igraph
Edge
p1484
(dp1485
g7
I1
sg8
I00
sg9
I5
sg10
(lp1486
g33
ag1107
asg26
I00
sg27
I00
sg28
I757768
sg20
S'1908.46269065'
p1487
sba(igraph
Edge
p1488
(dp1489
g7
I1
sg8
I00
sg9
I5
sg10
(lp1490
g1107
ag36
asg26
I00
sg27
I00
sg28
I757769
sg20
S'1908.476617'
p1491
sba(igraph
Edge
p1492
(dp1493
g7
I1
sg8
I00
sg9
I5
sg10
(lp1494
g36
ag1114
asg26
I00
sg27
I00
sg28
I757770
sg20
S'1908.49029053'
p1495
sba(igraph
Edge
p1496
(dp1497
g7
I1
sg8
I00
sg9
I5
sg10
(lp1498
g1114
ag43
asg26
I00
sg27
I00
sg28
I757771
sg20
S'1908.50412217'
p1499
sba(igraph
Edge
p1500
(dp1501
g7
I1
sg8
I00
sg9
I5
sg10
(lp1502
g43
ag1125
asg26
I00
sg27
I00
sg28
I757772
sg20
S'1908.51845081'
p1503
sba(igraph
Edge
p1504
(dp1505
g7
I1
sg8
I00
sg9
I5
sg10
(lp1506
g1125
ag54
asg26
I00
sg27
I00
sg28
I757773
sg20
S'1908.53300629'
p1507
sba(igraph
Edge
p1508
(dp1509
g7
I1
sg8
I00
sg9
I5
sg10
(lp1510
g54
ag1128
asg26
I00
sg27
I00
sg28
I757774
sg20
S'1908.54731118'
p1511
sba(igraph
Edge
p1512
(dp1513
g7
I1
sg8
I00
sg9
I5
sg10
(lp1514
g1128
ag57
asg26
I00
sg27
I00
sg28
I757775
sg20
S'1908.56142471'
p1515
sba(igraph
Edge
p1516
(dp1517
g7
I1
sg8
I00
sg9
I5
sg10
(lp1518
g57
ag1135
asg26
I00
sg27
I00
sg28
I757776
sg20
S'1908.57558572'
p1519
sba(igraph
Edge
p1520
(dp1521
g7
I1
sg8
I00
sg9
I5
sg10
(lp1522
g1135
ag64
asg26
I00
sg27
I00
sg28
I757777
sg20
S'1908.58991604'
p1523
sba(igraph
Edge
p1524
(dp1525
g7
I1
sg8
I00
sg9
I5
sg10
(lp1526
g64
ag1142
asg26
I00
sg27
I00
sg28
I757778
sg20
S'1908.6041793'
p1527
sba(igraph
Edge
p1528
(dp1529
g7
I1
sg8
I00
sg9
I5
sg10
(lp1530
g1142
ag71
asg26
I00
sg27
I00
sg28
I757779
sg20
S'1908.6199422'
p1531
sba(igraph
Edge
p1532
(dp1533
g7
I1
sg8
I00
sg9
I5
sg10
(lp1534
g71
ag1224
asg26
I00
sg27
I00
sg28
I757780
sg20
S'1908.63618588'
p1535
sba(igraph
Edge
p1536
(dp1537
g7
I1
sg8
I00
sg9
I5
sg10
(lp1538
g1224
ag336
asg26
I00
sg27
I00
sg28
I757781
sg20
S'1908.653787'
p1539
sba(igraph
Edge
p1540
(dp1541
g7
I1
sg8
I00
sg9
I5
sg10
(lp1542
g336
ag1361
asg26
I00
sg27
I00
sg28
I757782
sg20
S'1908.66905934'
p1543
sba(igraph
Edge
p1544
(dp1545
g7
I1
sg8
I00
sg9
I5
sg10
(lp1546
g721
ag1319
asg26
I00
sg27
I00
sg28
I757783
sg20
S'1908.68452694'
p1547
sba(igraph
Edge
p1548
(dp1549
g7
I1
sg8
I00
sg9
I5
sg10
(lp1550
g1319
ag724
asg26
I00
sg27
I00
sg28
I757784
sg20
S'1908.7000197'
p1551
sba(igraph
Edge
p1552
(dp1553
g7
I1
sg8
I00
sg9
I5
sg10
(lp1554
g724
ag1322
asg26
I00
sg27
I00
sg28
I757785
sg20
S'1908.71631786'
p1555
sba(igraph
Edge
p1556
(dp1557
g7
I1
sg8
I00
sg9
I5
sg10
(lp1558
g1322
ag432
asg26
I00
sg27
I00
sg28
I757786
sg20
S'1908.73187682'
p1559
sba(igraph
Edge
p1560
(dp1561
g7
I1
sg8
I00
sg9
I5
sg10
(lp1562
g432
ag827
asg26
I00
sg27
I00
sg28
I757787
sg20
S'1908.74950224'
p1563
sba(igraph
Edge
p1564
(dp1565
g7
I1
sg8
I00
sg9
I5
sg10
(lp1566
g827
ag435
asg26
I00
sg27
I00
sg28
I757788
sg20
S'1908.76551796'
p1567
sba(igraph
Edge
p1568
(dp1569
g7
I1
sg8
I00
sg9
I5
sg10
(lp1570
g435
ag830
asg26
I00
sg27
I00
sg28
I757789
sg20
S'1908.78504614'
p1571
sba(igraph
Edge
p1572
(dp1573
g7
I1
sg8
I00
sg9
I5
sg10
(lp1574
g830
ag442
asg26
I00
sg27
I00
sg28
I757790
sg20
S'1908.80102276'
p1575
sba(igraph
Edge
p1576
(dp1577
g7
I1
sg8
I00
sg9
I5
sg10
(lp1578
g442
ag837
asg26
I00
sg27
I00
sg28
I757791
sg20
S'1908.81652249'
p1579
sba(igraph
Edge
p1580
(dp1581
g7
I1
sg8
I00
sg9
I5
sg10
(lp1582
g837
ag445
asg26
I00
sg27
I00
sg28
I757792
sg20
S'1908.8323245'
p1583
sba(igraph
Edge
p1584
(dp1585
g7
I1
sg8
I00
sg9
I5
sg10
(lp1586
g445
ag840
asg26
I00
sg27
I00
sg28
I757793
sg20
S'1908.84824412'
p1587
sba(igraph
Edge
p1588
(dp1589
g7
I1
sg8
I00
sg9
I5
sg10
(lp1590
g840
ag452
asg26
I00
sg27
I00
sg28
I757794
sg20
S'1908.86536697'
p1591
sba(igraph
Edge
p1592
(dp1593
g7
I1
sg8
I00
sg9
I5
sg10
(lp1594
g452
ag847
asg26
I00
sg27
I00
sg28
I757795
sg20
S'1908.88203976'
p1595
sba(igraph
Edge
p1596
(dp1597
g7
I1
sg8
I00
sg9
I5
sg10
(lp1598
g847
ag463
asg26
I00
sg27
I00
sg28
I757796
sg20
S'1908.89810688'
p1599
sba(igraph
Edge
p1600
(dp1601
g7
I1
sg8
I00
sg9
I5
sg10
(lp1602
g463
ag858
asg26
I00
sg27
I00
sg28
I757797
sg20
S'1908.91473106'
p1603
sba(igraph
Edge
p1604
(dp1605
g7
I1
sg8
I00
sg9
I5
sg10
(lp1606
g858
ag466
asg26
I00
sg27
I00
sg28
I757798
sg20
S'1908.93056883'
p1607
sba(igraph
Edge
p1608
(dp1609
g7
I1
sg8
I00
sg9
I5
sg10
(lp1610
g466
ag861
asg26
I00
sg27
I00
sg28
I757799
sg20
S'1908.94687761'
p1611
sba(igraph
Edge
p1612
(dp1613
g7
I1
sg8
I00
sg9
I5
sg10
(lp1614
g861
ag473
asg26
I00
sg27
I00
sg28
I757800
sg20
S'1908.96300619'
p1615
sba(igraph
Edge
p1616
(dp1617
g7
I1
sg8
I00
sg9
I5
sg10
(lp1618
g473
ag868
asg26
I00
sg27
I00
sg28
I757801
sg20
S'1908.98401445'
p1619
sba(igraph
Edge
p1620
(dp1621
g7
I1
sg8
I00
sg9
I5
sg10
(lp1622
g868
ag480
asg26
I00
sg27
I00
sg28
I757802
sg20
S'1909.00934839'
p1623
sba(igraph
Edge
p1624
(dp1625
g7
I1
sg8
I00
sg9
I5
sg10
(lp1626
g480
ag875
asg26
I00
sg27
I00
sg28
I757803
sg20
S'1909.02898553'
p1627
sba(igraph
Edge
p1628
(dp1629
g7
I1
sg8
I00
sg9
I5
sg10
(lp1630
g875
ag562
asg26
I00
sg27
I00
sg28
I757804
sg20
S'1909.04666291'
p1631
sba(igraph
Edge
p1632
(dp1633
g7
I1
sg8
I00
sg9
I5
sg10
(lp1634
g562
ag1013
asg26
I00
sg27
I00
sg28
I757805
sg20
S'1909.06422744'
p1635
sba(igraph
Edge
p1636
(dp1637
g7
I1
sg8
I00
sg9
I5
sg10
(lp1638
g1013
ag721
asg26
I00
sg27
I00
sg28
I757806
sg20
S'1909.08073764'
p1639
sbasS'vertices'
p1640
(lp1641
g12
ag23
ag33
ag36
ag43
ag54
ag57
ag64
ag71
ag82
ag85
ag92
ag95
ag102
ag113
ag116
ag123
ag130
ag209
ag212
ag219
ag222
ag229
ag240
ag243
ag250
ag257
ag336
ag339
ag346
ag373
ag376
ag383
ag386
ag393
ag404
ag407
ag414
ag421
ag432
ag435
ag442
ag445
ag452
ag463
ag466
ag473
ag480
ag559
ag562
ag657
ag660
ag667
ag670
ag689
ag692
ag711
ag714
ag721
ag724
ag827
ag830
ag837
ag840
ag847
ag858
ag861
ag868
ag875
ag886
ag889
ag896
ag899
ag906
ag917
ag920
ag927
ag934
ag1013
ag1016
ag1035
ag1038
ag1045
ag1048
ag1055
ag1066
ag1069
ag1076
ag1083
ag1094
ag1097
ag1104
ag1107
ag1114
ag1125
ag1128
ag1135
ag1142
ag1221
ag1224
ag1319
ag1322
ag1329
ag1332
ag1351
ag1354
ag1361
ag1364
asS'tags'
p1642
(lp1643
sb.