(igraph
Graph
p0
(dp1
S'labelingConstraints'
p2
I-1
sS'edges'
p3
(lp4
(igraph
Edge
p5
(dp6
S'direction'
p7
I1
sS'selected'
p8
I00
sS'height'
p9
I5
sS'vs'
p10
(lp11
(igraph
Vertex
p12
(dp13
S'xnorm'
p14
F0.0
sg8
I01
sS'label'
p15
I0
sS'y'
p16
F-273.0
sS'x'
p17
F186.0
sS'circle'
p18
I323064
sS'id'
p19
S'414.366958091'
p20
sS'ynorm'
p21
F0.0
sba(igraph
Vertex
p22
(dp23
g14
F0.10000000000000006
sg8
I00
sg15
S'NULL'
p24
sg16
F-273.0
sg17
F129.49999999999997
sg18
I323066
sg19
S'414.366996364'
p25
sg21
F0.0
sbasS'wrap'
p26
I00
sS'curved'
p27
I00
sS'line'
p28
I322667
sg19
S'414.472091844'
p29
sba(igraph
Edge
p30
(dp31
g7
I1
sg8
I00
sg9
I5
sg10
(lp32
g22
a(igraph
Vertex
p33
(dp34
g14
F0.20000000000000012
sg8
I00
sg15
g24
sg16
F-273.0
sg17
F72.999999999999929
sg18
I323067
sg19
S'414.367039386'
p35
sg21
F0.0
sbasg26
I00
sg27
I00
sg28
I322668
sg19
S'414.472150511'
p36
sba(igraph
Edge
p37
(dp38
g7
I1
sg8
I00
sg9
I5
sg10
(lp39
g33
a(igraph
Vertex
p40
(dp41
g14
F0.30000000000000016
sg8
I00
sg15
g24
sg16
F-273.0
sg17
F16.499999999999915
sg18
I323068
sg19
S'414.367092466'
p42
sg21
F0.0
sbasg26
I00
sg27
I00
sg28
I322669
sg19
S'414.47222985'
p43
sba(igraph
Edge
p44
(dp45
g7
I1
sg8
I00
sg9
I5
sg10
(lp46
g40
a(igraph
Vertex
p47
(dp48
g14
F0.40000000000000013
sg8
I00
sg15
g24
sg16
F-273.0
sg17
F-40.000000000000085
sg18
I323069
sg19
S'414.367157558'
p49
sg21
F0.0
sbasg26
I00
sg27
I00
sg28
I322670
sg19
S'414.472329584'
p50
sba(igraph
Edge
p51
(dp52
g7
I1
sg8
I00
sg9
I5
sg10
(lp53
g47
a(igraph
Vertex
p54
(dp55
g14
F0.50000000000000011
sg8
I00
sg15
g24
sg16
F-273.0
sg17
F-96.500000000000057
sg18
I323070
sg19
S'414.367237456'
p56
sg21
F0.0
sbasg26
I00
sg27
I00
sg28
I322671
sg19
S'414.47245027'
p57
sba(igraph
Edge
p58
(dp59
g7
I1
sg8
I00
sg9
I5
sg10
(lp60
g54
a(igraph
Vertex
p61
(dp62
g14
F0.6000000000000002
sg8
I00
sg15
g24
sg16
F-273.0
sg17
F-153.00000000000011
sg18
I323071
sg19
S'414.367335513'
p63
sg21
F0.0
sbasg26
I00
sg27
I00
sg28
I322672
sg19
S'414.472592746'
p64
sba(igraph
Edge
p65
(dp66
g7
I1
sg8
I00
sg9
I5
sg10
(lp67
g61
a(igraph
Vertex
p68
(dp69
g14
F0.70000000000000018
sg8
I00
sg15
g24
sg16
F-273.0
sg17
F-209.50000000000011
sg18
I323072
sg19
S'414.367448097'
p70
sg21
F0.0
sbasg26
I00
sg27
I00
sg28
I322673
sg19
S'414.472755895'
p71
sba(igraph
Edge
p72
(dp73
g7
I1
sg8
I00
sg9
I5
sg10
(lp74
g68
a(igraph
Vertex
p75
(dp76
g14
F0.80000000000000016
sg8
I00
sg15
g24
sg16
F-273.0
sg17
F-266.00000000000011
sg18
I323073
sg19
S'414.367575488'
p77
sg21
F0.0
sbasg26
I00
sg27
I00
sg28
I322674
sg19
S'414.472941673'
p78
sba(igraph
Edge
p79
(dp80
g7
I1
sg8
I00
sg9
I5
sg10
(lp81
g75
a(igraph
Vertex
p82
(dp83
g14
F0.90000000000000002
sg8
I00
sg15
g24
sg16
F-273.0
sg17
F-322.5
sg18
I323074
sg19
S'414.367718802'
p84
sg21
F0.0
sbasg26
I00
sg27
I00
sg28
I322675
sg19
S'414.47318472'
p85
sba(igraph
Edge
p86
(dp87
g7
I1
sg8
I00
sg9
I5
sg10
(lp88
g82
a(igraph
Vertex
p89
(dp90
g14
F1.0
sg8
I00
sg15
g24
sg16
F-273.0
sg17
F-379.0
sg18
I323075
sg19
S'414.367875805'
p91
sg21
F0.0
sbasg26
I00
sg27
I00
sg28
I322676
sg19
S'414.473423019'
p92
sba(igraph
Edge
p93
(dp94
g7
I1
sg8
I00
sg9
I5
sg10
(lp95
g89
ag12
asg26
I00
sg27
I00
sg28
I322677
sg19
S'414.473675286'
p96
sba(igraph
Edge
p97
(dp98
g7
I1
sg8
I00
sg9
I5
sg10
(lp99
(igraph
Vertex
p100
(dp101
g14
F0.0
sg8
I00
sg15
g24
sg16
F-225.20270270270271
sg17
F186.0
sg18
I323076
sg19
S'414.368050409'
p102
sg21
F0.091216216216216187
sba(igraph
Vertex
p103
(dp104
g14
F0.10000000000000006
sg8
I00
sg15
g24
sg16
F-225.20270270270271
sg17
F129.49999999999997
sg18
I323077
sg19
S'414.368240656'
p105
sg21
F0.091216216216216187
sbasg26
I00
sg27
I00
sg28
I322678
sg19
S'414.473949622'
p106
sba(igraph
Edge
p107
(dp108
g7
I1
sg8
I00
sg9
I5
sg10
(lp109
g103
a(igraph
Vertex
p110
(dp111
g14
F0.20000000000000012
sg8
I00
sg15
g24
sg16
F-225.20270270270271
sg17
F72.999999999999929
sg18
I323078
sg19
S'414.36844571'
p112
sg21
F0.091216216216216187
sbasg26
I00
sg27
I00
sg28
I322679
sg19
S'414.474243794'
p113
sba(igraph
Edge
p114
(dp115
g7
I1
sg8
I00
sg9
I5
sg10
(lp116
g110
a(igraph
Vertex
p117
(dp118
g14
F0.30000000000000016
sg8
I00
sg15
g24
sg16
F-225.20270270270271
sg17
F16.499999999999915
sg18
I323079
sg19
S'414.368669482'
p119
sg21
F0.091216216216216187
sbasg26
I00
sg27
I00
sg28
I322680
sg19
S'414.474609482'
p120
sba(igraph
Edge
p121
(dp122
g7
I1
sg8
I00
sg9
I5
sg10
(lp123
g117
a(igraph
Vertex
p124
(dp125
g14
F0.40000000000000013
sg8
I00
sg15
g24
sg16
F-225.20270270270271
sg17
F-40.000000000000085
sg18
I323080
sg19
S'414.36890806'
p126
sg21
F0.091216216216216187
sbasg26
I00
sg27
I00
sg28
I322681
sg19
S'414.474952543'
p127
sba(igraph
Edge
p128
(dp129
g7
I1
sg8
I00
sg9
I5
sg10
(lp130
g124
a(igraph
Vertex
p131
(dp132
g14
F0.50000000000000011
sg8
I00
sg15
g24
sg16
F-225.20270270270271
sg17
F-96.500000000000057
sg18
I323081
sg19
S'414.369160326'
p133
sg21
F0.091216216216216187
sbasg26
I00
sg27
I00
sg28
I322682
sg19
S'414.475310689'
p134
sba(igraph
Edge
p135
(dp136
g7
I1
sg8
I00
sg9
I5
sg10
(lp137
g131
a(igraph
Vertex
p138
(dp139
g14
F0.6000000000000002
sg8
I00
sg15
g24
sg16
F-225.20270270270271
sg17
F-153.00000000000011
sg18
I323082
sg19
S'414.369609825'
p140
sg21
F0.091216216216216187
sbasg26
I00
sg27
I00
sg28
I322683
sg19
S'414.475695654'
p141
sba(igraph
Edge
p142
(dp143
g7
I1
sg8
I00
sg9
I5
sg10
(lp144
g138
a(igraph
Vertex
p145
(dp146
g14
F0.70000000000000018
sg8
I00
sg15
g24
sg16
F-225.20270270270271
sg17
F-209.50000000000011
sg18
I323083
sg19
S'414.369902041'
p147
sg21
F0.091216216216216187
sbasg26
I00
sg27
I00
sg28
I322684
sg19
S'414.476096264'
p148
sba(igraph
Edge
p149
(dp150
g7
I1
sg8
I00
sg9
I5
sg10
(lp151
g145
a(igraph
Vertex
p152
(dp153
g14
F0.80000000000000016
sg8
I00
sg15
g24
sg16
F-225.20270270270271
sg17
F-266.00000000000011
sg18
I323084
sg19
S'414.370205711'
p154
sg21
F0.091216216216216187
sbasg26
I00
sg27
I00
sg28
I322685
sg19
S'414.476519502'
p155
sba(igraph
Edge
p156
(dp157
g7
I1
sg8
I00
sg9
I5
sg10
(lp158
g152
a(igraph
Vertex
p159
(dp160
g14
F0.90000000000000002
sg8
I00
sg15
g24
sg16
F-225.20270270270271
sg17
F-322.5
sg18
I323085
sg19
S'414.370523907'
p161
sg21
F0.091216216216216187
sbasg26
I00
sg27
I00
sg28
I322686
sg19
S'414.476977381'
p162
sba(igraph
Edge
p163
(dp164
g7
I1
sg8
I00
sg9
I5
sg10
(lp165
g159
a(igraph
Vertex
p166
(dp167
g14
F1.0
sg8
I00
sg15
g24
sg16
F-225.20270270270271
sg17
F-379.0
sg18
I323086
sg19
S'414.370858307'
p168
sg21
F0.091216216216216187
sbasg26
I00
sg27
I00
sg28
I322687
sg19
S'414.47744448'
p169
sba(igraph
Edge
p170
(dp171
g7
I1
sg8
I00
sg9
I5
sg10
(lp172
g166
ag100
asg26
I00
sg27
I00
sg28
I322688
sg19
S'414.477930854'
p173
sba(igraph
Edge
p174
(dp175
g7
I1
sg8
I00
sg9
I5
sg10
(lp176
(igraph
Vertex
p177
(dp178
g14
F0.0
sg8
I00
sg15
g24
sg16
F-177.40540540540542
sg17
F186.0
sg18
I323087
sg19
S'414.371214498'
p179
sg21
F0.1824324324324324
sba(igraph
Vertex
p180
(dp181
g14
F0.10000000000000006
sg8
I01
sg15
I0
sg16
F-177.40540540540542
sg17
F129.49999999999997
sg18
I323089
sg19
S'414.371584098'
p182
sg21
F0.1824324324324324
sbasg26
I00
sg27
I00
sg28
I322689
sg19
S'414.478440137'
p183
sba(igraph
Edge
p184
(dp185
g7
I1
sg8
I00
sg9
I5
sg10
(lp186
g180
a(igraph
Vertex
p187
(dp188
g14
F0.20000000000000012
sg8
I00
sg15
g24
sg16
F-177.40540540540542
sg17
F72.999999999999929
sg18
I323091
sg19
S'414.371966269'
p189
sg21
F0.1824324324324324
sbasg26
I00
sg27
I00
sg28
I322690
sg19
S'414.478989927'
p190
sba(igraph
Edge
p191
(dp192
g7
I1
sg8
I00
sg9
I5
sg10
(lp193
g187
a(igraph
Vertex
p194
(dp195
g14
F0.30000000000000016
sg8
I00
sg15
g24
sg16
F-177.40540540540542
sg17
F16.499999999999915
sg18
I323092
sg19
S'414.37236632'
p196
sg21
F0.1824324324324324
sbasg26
I00
sg27
I00
sg28
I322691
sg19
S'414.479543909'
p197
sba(igraph
Edge
p198
(dp199
g7
I1
sg8
I00
sg9
I5
sg10
(lp200
g194
a(igraph
Vertex
p201
(dp202
g14
F0.40000000000000013
sg8
I00
sg15
g24
sg16
F-177.40540540540542
sg17
F-40.000000000000085
sg18
I323093
sg19
S'414.372783412'
p203
sg21
F0.1824324324324324
sbasg26
I00
sg27
I00
sg28
I322692
sg19
S'414.480116886'
p204
sba(igraph
Edge
p205
(dp206
g7
I1
sg8
I00
sg9
I5
sg10
(lp207
g201
a(igraph
Vertex
p208
(dp209
g14
F0.50000000000000011
sg8
I00
sg15
g24
sg16
F-177.40540540540542
sg17
F-96.500000000000057
sg18
I323094
sg19
S'414.373213635'
p210
sg21
F0.1824324324324324
sbasg26
I00
sg27
I00
sg28
I322693
sg19
S'414.480735959'
p211
sba(igraph
Edge
p212
(dp213
g7
I1
sg8
I00
sg9
I5
sg10
(lp214
g208
a(igraph
Vertex
p215
(dp216
g14
F0.6000000000000002
sg8
I00
sg15
g24
sg16
F-177.40540540540542
sg17
F-153.00000000000011
sg18
I323095
sg19
S'414.373792479'
p217
sg21
F0.1824324324324324
sbasg26
I00
sg27
I00
sg28
I322694
sg19
S'414.481353636'
p218
sba(igraph
Edge
p219
(dp220
g7
I1
sg8
I00
sg9
I5
sg10
(lp221
g215
a(igraph
Vertex
p222
(dp223
g14
F0.70000000000000018
sg8
I00
sg15
g24
sg16
F-177.40540540540542
sg17
F-209.50000000000011
sg18
I323096
sg19
S'414.374259857'
p224
sg21
F0.1824324324324324
sbasg26
I00
sg27
I00
sg28
I322695
sg19
S'414.481993102'
p225
sba(igraph
Edge
p226
(dp227
g7
I1
sg8
I00
sg9
I5
sg10
(lp228
g222
a(igraph
Vertex
p229
(dp230
g14
F0.80000000000000016
sg8
I00
sg15
g24
sg16
F-177.40540540540542
sg17
F-266.00000000000011
sg18
I323097
sg19
S'414.374737571'
p231
sg21
F0.1824324324324324
sbasg26
I00
sg27
I00
sg28
I322696
sg19
S'414.482704087'
p232
sba(igraph
Edge
p233
(dp234
g7
I1
sg8
I00
sg9
I5
sg10
(lp235
g229
a(igraph
Vertex
p236
(dp237
g14
F0.90000000000000002
sg8
I00
sg15
g24
sg16
F-177.40540540540542
sg17
F-322.5
sg18
I323098
sg19
S'414.375232606'
p238
sg21
F0.1824324324324324
sbasg26
I00
sg27
I00
sg28
I322697
sg19
S'414.483389649'
p239
sba(igraph
Edge
p240
(dp241
g7
I1
sg8
I00
sg9
I5
sg10
(lp242
g236
a(igraph
Vertex
p243
(dp244
g14
F1.0
sg8
I00
sg15
g24
sg16
F-177.40540540540542
sg17
F-379.0
sg18
I323099
sg19
S'414.375804746'
p245
sg21
F0.1824324324324324
sbasg26
I00
sg27
I00
sg28
I322698
sg19
S'414.48409309'
p246
sba(igraph
Edge
p247
(dp248
g7
I1
sg8
I00
sg9
I5
sg10
(lp249
g243
ag177
asg26
I00
sg27
I00
sg28
I322699
sg19
S'414.484816925'
p250
sba(igraph
Edge
p251
(dp252
g7
I1
sg8
I00
sg9
I5
sg10
(lp253
(igraph
Vertex
p254
(dp255
g14
F0.0
sg8
I00
sg15
g24
sg16
F-129.60810810810813
sg17
F186.0
sg18
I323100
sg19
S'414.376330791'
p256
sg21
F0.27364864864864863
sba(igraph
Vertex
p257
(dp258
g14
F0.10000000000000006
sg8
I00
sg15
g24
sg16
F-129.60810810810813
sg17
F129.49999999999997
sg18
I323101
sg19
S'414.376876111'
p259
sg21
F0.27364864864864863
sbasg26
I00
sg27
I00
sg28
I322700
sg19
S'414.485557243'
p260
sba(igraph
Edge
p261
(dp262
g7
I1
sg8
I00
sg9
I5
sg10
(lp263
g257
a(igraph
Vertex
p264
(dp265
g14
F0.20000000000000012
sg8
I00
sg15
g24
sg16
F-129.60810810810813
sg17
F72.999999999999929
sg18
I323102
sg19
S'414.377439591'
p266
sg21
F0.27364864864864863
sbasg26
I00
sg27
I00
sg28
I322701
sg19
S'414.486319909'
p267
sba(igraph
Edge
p268
(dp269
g7
I1
sg8
I00
sg9
I5
sg10
(lp270
g264
a(igraph
Vertex
p271
(dp272
g14
F0.30000000000000016
sg8
I01
sg15
I0
sg16
F-129.60810810810813
sg17
F16.499999999999915
sg18
I323104
sg19
S'414.378007261'
p273
sg21
F0.27364864864864863
sbasg26
I00
sg27
I00
sg28
I322702
sg19
S'414.487273103'
p274
sba(igraph
Edge
p275
(dp276
g7
I1
sg8
I00
sg9
I5
sg10
(lp277
g271
a(igraph
Vertex
p278
(dp279
g14
F0.40000000000000013
sg8
I00
sg15
g24
sg16
F-129.60810810810813
sg17
F-40.000000000000085
sg18
I323106
sg19
S'414.378597559'
p280
sg21
F0.27364864864864863
sbasg26
I00
sg27
I00
sg28
I322703
sg19
S'414.488093598'
p281
sba(igraph
Edge
p282
(dp283
g7
I1
sg8
I00
sg9
I5
sg10
(lp284
g278
a(igraph
Vertex
p285
(dp286
g14
F0.50000000000000011
sg8
I00
sg15
g24
sg16
F-129.60810810810813
sg17
F-96.500000000000057
sg18
I323107
sg19
S'414.379250715'
p287
sg21
F0.27364864864864863
sbasg26
I00
sg27
I00
sg28
I322704
sg19
S'414.488941472'
p288
sba(igraph
Edge
p289
(dp290
g7
I1
sg8
I00
sg9
I5
sg10
(lp291
g285
a(igraph
Vertex
p292
(dp293
g14
F0.6000000000000002
sg8
I00
sg15
g24
sg16
F-129.60810810810813
sg17
F-153.00000000000011
sg18
I323108
sg19
S'414.379875375'
p294
sg21
F0.27364864864864863
sbasg26
I00
sg27
I00
sg28
I322705
sg19
S'414.489809738'
p295
sba(igraph
Edge
p296
(dp297
g7
I1
sg8
I00
sg9
I5
sg10
(lp298
g292
a(igraph
Vertex
p299
(dp300
g14
F0.70000000000000018
sg8
I00
sg15
g24
sg16
F-129.60810810810813
sg17
F-209.50000000000011
sg18
I323109
sg19
S'414.380514842'
p301
sg21
F0.27364864864864863
sbasg26
I00
sg27
I00
sg28
I322706
sg19
S'414.490715999'
p302
sba(igraph
Edge
p303
(dp304
g7
I1
sg8
I00
sg9
I5
sg10
(lp305
g299
a(igraph
Vertex
p306
(dp307
g14
F0.80000000000000016
sg8
I00
sg15
g24
sg16
F-129.60810810810813
sg17
F-266.00000000000011
sg18
I323110
sg19
S'414.381223871'
p308
sg21
F0.27364864864864863
sbasg26
I00
sg27
I00
sg28
I322707
sg19
S'414.491619466'
p309
sba(igraph
Edge
p310
(dp311
g7
I1
sg8
I00
sg9
I5
sg10
(lp312
g306
a(igraph
Vertex
p313
(dp314
g14
F0.90000000000000002
sg8
I00
sg15
g24
sg16
F-129.60810810810813
sg17
F-322.5
sg18
I323111
sg19
S'414.381903287'
p315
sg21
F0.27364864864864863
sbasg26
I00
sg27
I00
sg28
I322708
sg19
S'414.492563161'
p316
sba(igraph
Edge
p317
(dp318
g7
I1
sg8
I00
sg9
I5
sg10
(lp319
g313
a(igraph
Vertex
p320
(dp321
g14
F1.0
sg8
I00
sg15
g24
sg16
F-129.60810810810813
sg17
F-379.0
sg18
I323112
sg19
S'414.382593039'
p322
sg21
F0.27364864864864863
sbasg26
I00
sg27
I00
sg28
I322709
sg19
S'414.493523618'
p323
sba(igraph
Edge
p324
(dp325
g7
I1
sg8
I00
sg9
I5
sg10
(lp326
g320
ag254
asg26
I00
sg27
I00
sg28
I322710
sg19
S'414.494603364'
p327
sba(igraph
Edge
p328
(dp329
g7
I1
sg8
I00
sg9
I5
sg10
(lp330
(igraph
Vertex
p331
(dp332
g14
F0.0
sg8
I00
sg15
g24
sg16
F-81.810810810810835
sg17
F186.0
sg18
I323113
sg19
S'414.38329648'
p333
sg21
F0.3648648648648648
sba(igraph
Vertex
p334
(dp335
g14
F0.10000000000000006
sg8
I00
sg15
g24
sg16
F-81.810810810810835
sg17
F129.49999999999997
sg18
I323114
sg19
S'414.384021154'
p336
sg21
F0.3648648648648648
sbasg26
I00
sg27
I00
sg28
I322711
sg19
S'414.495621092'
p337
sba(igraph
Edge
p338
(dp339
g7
I1
sg8
I00
sg9
I5
sg10
(lp340
g334
a(igraph
Vertex
p341
(dp342
g14
F0.20000000000000012
sg8
I00
sg15
g24
sg16
F-81.810810810810835
sg17
F72.999999999999929
sg18
I323115
sg19
S'414.38476203'
p343
sg21
F0.3648648648648648
sbasg26
I00
sg27
I00
sg28
I322712
sg19
S'414.496649155'
p344
sba(igraph
Edge
p345
(dp346
g7
I1
sg8
I00
sg9
I5
sg10
(lp347
g341
a(igraph
Vertex
p348
(dp349
g14
F0.30000000000000016
sg8
I00
sg15
g24
sg16
F-81.810810810810835
sg17
F16.499999999999915
sg18
I323116
sg19
S'414.385626385'
p350
sg21
F0.3648648648648648
sbasg26
I00
sg27
I00
sg28
I322713
sg19
S'414.497676939'
p351
sba(igraph
Edge
p352
(dp353
g7
I1
sg8
I00
sg9
I5
sg10
(lp354
g348
a(igraph
Vertex
p355
(dp356
g14
F0.40000000000000013
sg8
I00
sg15
g24
sg16
F-81.810810810810835
sg17
F-40.000000000000085
sg18
I323117
sg19
S'414.386400227'
p357
sg21
F0.3648648648648648
sbasg26
I00
sg27
I00
sg28
I322714
sg19
S'414.498757524'
p358
sba(igraph
Edge
p359
(dp360
g7
I1
sg8
I00
sg9
I5
sg10
(lp361
g355
a(igraph
Vertex
p362
(dp363
g14
F0.50000000000000011
sg8
I00
sg15
g24
sg16
F-81.810810810810835
sg17
F-96.500000000000057
sg18
I323118
sg19
S'414.387239998'
p364
sg21
F0.3648648648648648
sbasg26
I00
sg27
I00
sg28
I322715
sg19
S'414.499834756'
p365
sba(igraph
Edge
p366
(dp367
g7
I1
sg8
I00
sg9
I5
sg10
(lp368
g362
a(igraph
Vertex
p369
(dp370
g14
F0.6000000000000002
sg8
I00
sg15
g24
sg16
F-81.810810810810835
sg17
F-153.00000000000011
sg18
I323119
sg19
S'414.388057979'
p371
sg21
F0.3648648648648648
sbasg26
I00
sg27
I00
sg28
I322716
sg19
S'414.500940483'
p372
sba(igraph
Edge
p373
(dp374
g7
I1
sg8
I00
sg9
I5
sg10
(lp375
g369
a(igraph
Vertex
p376
(dp377
g14
F0.70000000000000018
sg8
I00
sg15
g24
sg16
F-81.810810810810835
sg17
F-209.50000000000011
sg18
I323120
sg19
S'414.388878754'
p378
sg21
F0.3648648648648648
sbasg26
I00
sg27
I00
sg28
I322717
sg19
S'414.502070515'
p379
sba(igraph
Edge
p380
(dp381
g7
I1
sg8
I00
sg9
I5
sg10
(lp382
g376
a(igraph
Vertex
p383
(dp384
g14
F0.80000000000000016
sg8
I00
sg15
g24
sg16
F-81.810810810810835
sg17
F-266.00000000000011
sg18
I323121
sg19
S'414.389956545'
p385
sg21
F0.3648648648648648
sbasg26
I00
sg27
I00
sg28
I322718
sg19
S'414.503204178'
p386
sba(igraph
Edge
p387
(dp388
g7
I1
sg8
I00
sg9
I5
sg10
(lp389
g383
a(igraph
Vertex
p390
(dp391
g14
F0.90000000000000002
sg8
I00
sg15
g24
sg16
F-81.810810810810835
sg17
F-322.5
sg18
I323122
sg19
S'414.390894653'
p392
sg21
F0.3648648648648648
sbasg26
I00
sg27
I00
sg28
I322719
sg19
S'414.504375556'
p393
sba(igraph
Edge
p394
(dp395
g7
I1
sg8
I00
sg9
I5
sg10
(lp396
g390
a(igraph
Vertex
p397
(dp398
g14
F1.0
sg8
I00
sg15
g24
sg16
F-81.810810810810835
sg17
F-379.0
sg18
I323123
sg19
S'414.391813764'
p399
sg21
F0.3648648648648648
sbasg26
I00
sg27
I00
sg28
I322720
sg19
S'414.505574312'
p400
sba(igraph
Edge
p401
(dp402
g7
I1
sg8
I00
sg9
I5
sg10
(lp403
g397
ag331
asg26
I00
sg27
I00
sg28
I322721
sg19
S'414.506807709'
p404
sba(igraph
Edge
p405
(dp406
g7
I1
sg8
I00
sg9
I5
sg10
(lp407
(igraph
Vertex
p408
(dp409
g14
F0.0
sg8
I00
sg15
g24
sg16
F-34.013513513513516
sg17
F186.0
sg18
I323124
sg19
S'414.392705777'
p410
sg21
F0.45608108108108109
sba(igraph
Vertex
p411
(dp412
g14
F0.10000000000000006
sg8
I00
sg15
g24
sg16
F-34.013513513513516
sg17
F129.49999999999997
sg18
I323125
sg19
S'414.393684393'
p413
sg21
F0.45608108108108109
sbasg26
I00
sg27
I00
sg28
I322722
sg19
S'414.508167099'
p414
sba(igraph
Edge
p415
(dp416
g7
I1
sg8
I00
sg9
I5
sg10
(lp417
g411
a(igraph
Vertex
p418
(dp419
g14
F0.20000000000000012
sg8
I00
sg15
g24
sg16
F-34.013513513513516
sg17
F72.999999999999929
sg18
I323126
sg19
S'414.394614958'
p420
sg21
F0.45608108108108109
sbasg26
I00
sg27
I00
sg28
I322723
sg19
S'414.509415862'
p421
sba(igraph
Edge
p422
(dp423
g7
I1
sg8
I00
sg9
I5
sg10
(lp424
g418
a(igraph
Vertex
p425
(dp426
g14
F0.30000000000000016
sg8
I00
sg15
g24
sg16
F-34.013513513513516
sg17
F16.499999999999915
sg18
I323127
sg19
S'414.395592457'
p427
sg21
F0.45608108108108109
sbasg26
I00
sg27
I00
sg28
I322724
sg19
S'414.51069703'
p428
sba(igraph
Edge
p429
(dp430
g7
I1
sg8
I00
sg9
I5
sg10
(lp431
g425
a(igraph
Vertex
p432
(dp433
g14
F0.40000000000000013
sg8
I01
sg15
I0
sg16
F-34.013513513513516
sg17
F-40.000000000000085
sg18
I323129
sg19
S'414.396547606'
p434
sg21
F0.45608108108108109
sbasg26
I00
sg27
I00
sg28
I322725
sg19
S'414.511999151'
p435
sba(igraph
Edge
p436
(dp437
g7
I1
sg8
I00
sg9
I5
sg10
(lp438
g432
a(igraph
Vertex
p439
(dp440
g14
F0.50000000000000011
sg8
I00
sg15
g24
sg16
F-34.013513513513516
sg17
F-96.500000000000057
sg18
I323131
sg19
S'414.397625955'
p441
sg21
F0.45608108108108109
sbasg26
I00
sg27
I00
sg28
I322726
sg19
S'414.513322783'
p442
sba(igraph
Edge
p443
(dp444
g7
I1
sg8
I00
sg9
I5
sg10
(lp445
g439
a(igraph
Vertex
p446
(dp447
g14
F0.6000000000000002
sg8
I00
sg15
g24
sg16
F-34.013513513513516
sg17
F-153.00000000000011
sg18
I323132
sg19
S'414.398618819'
p448
sg21
F0.45608108108108109
sbasg26
I00
sg27
I00
sg28
I322727
sg19
S'414.514665691'
p449
sba(igraph
Edge
p450
(dp451
g7
I1
sg8
I00
sg9
I5
sg10
(lp452
g446
a(igraph
Vertex
p453
(dp454
g14
F0.70000000000000018
sg8
I00
sg15
g24
sg16
F-34.013513513513516
sg17
F-209.50000000000011
sg18
I323133
sg19
S'414.399684038'
p455
sg21
F0.45608108108108109
sbasg26
I00
sg27
I00
sg28
I322728
sg19
S'414.516059723'
p456
sba(igraph
Edge
p457
(dp458
g7
I1
sg8
I00
sg9
I5
sg10
(lp459
g453
a(igraph
Vertex
p460
(dp461
g14
F0.80000000000000016
sg8
I00
sg15
g24
sg16
F-34.013513513513516
sg17
F-266.00000000000011
sg18
I323134
sg19
S'414.400716292'
p462
sg21
F0.45608108108108109
sbasg26
I00
sg27
I00
sg28
I322729
sg19
S'414.517418834'
p463
sba(igraph
Edge
p464
(dp465
g7
I1
sg8
I00
sg9
I5
sg10
(lp466
g460
a(igraph
Vertex
p467
(dp468
g14
F0.90000000000000002
sg8
I00
sg15
g24
sg16
F-34.013513513513516
sg17
F-322.5
sg18
I323135
sg19
S'414.401763073'
p469
sg21
F0.45608108108108109
sbasg26
I00
sg27
I00
sg28
I322730
sg19
S'414.518813425'
p470
sba(igraph
Edge
p471
(dp472
g7
I1
sg8
I00
sg9
I5
sg10
(lp473
g467
a(igraph
Vertex
p474
(dp475
g14
F1.0
sg8
I00
sg15
g24
sg16
F-34.013513513513516
sg17
F-379.0
sg18
I323136
sg19
S'414.402818235'
p476
sg21
F0.45608108108108109
sbasg26
I00
sg27
I00
sg28
I322731
sg19
S'414.520312498'
p477
sba(igraph
Edge
p478
(dp479
g7
I1
sg8
I00
sg9
I5
sg10
(lp480
g474
ag408
asg26
I00
sg27
I00
sg28
I322732
sg19
S'414.521787266'
p481
sba(igraph
Edge
p482
(dp483
g7
I1
sg8
I00
sg9
I5
sg10
(lp484
(igraph
Vertex
p485
(dp486
g14
F0.0
sg8
I00
sg15
g24
sg16
F13.783783783783747
sg17
F186.0
sg18
I323137
sg19
S'414.403889042'
p487
sg21
F0.54729729729729726
sba(igraph
Vertex
p488
(dp489
g14
F0.10000000000000006
sg8
I00
sg15
g24
sg16
F13.783783783783747
sg17
F129.49999999999997
sg18
I323138
sg19
S'414.405034439'
p490
sg21
F0.54729729729729726
sbasg26
I00
sg27
I00
sg28
I322733
sg19
S'414.523256168'
p491
sba(igraph
Edge
p492
(dp493
g7
I1
sg8
I00
sg9
I5
sg10
(lp494
g488
a(igraph
Vertex
p495
(dp496
g14
F0.20000000000000012
sg8
I00
sg15
g24
sg16
F13.783783783783747
sg17
F72.999999999999929
sg18
I323139
sg19
S'414.406158604'
p497
sg21
F0.54729729729729726
sbasg26
I00
sg27
I00
sg28
I322734
sg19
S'414.524750213'
p498
sba(igraph
Edge
p499
(dp500
g7
I1
sg8
I00
sg9
I5
sg10
(lp501
g495
a(igraph
Vertex
p502
(dp503
g14
F0.30000000000000016
sg8
I00
sg15
g24
sg16
F13.783783783783747
sg17
F16.499999999999915
sg18
I323140
sg19
S'414.407338363'
p504
sg21
F0.54729729729729726
sbasg26
I00
sg27
I00
sg28
I322735
sg19
S'414.526259902'
p505
sba(igraph
Edge
p506
(dp507
g7
I1
sg8
I00
sg9
I5
sg10
(lp508
g502
a(igraph
Vertex
p509
(dp510
g14
F0.40000000000000013
sg8
I00
sg15
g24
sg16
F13.783783783783747
sg17
F-40.000000000000085
sg18
I323141
sg19
S'414.408493258'
p511
sg21
F0.54729729729729726
sbasg26
I00
sg27
I00
sg28
I322736
sg19
S'414.527817642'
p512
sba(igraph
Edge
p513
(dp514
g7
I1
sg8
I00
sg9
I5
sg10
(lp515
g509
a(igraph
Vertex
p516
(dp517
g14
F0.50000000000000011
sg8
I00
sg15
g24
sg16
F13.783783783783747
sg17
F-96.500000000000057
sg18
I323142
sg19
S'414.40964983'
p518
sg21
F0.54729729729729726
sbasg26
I00
sg27
I00
sg28
I322737
sg19
S'414.529467572'
p519
sba(igraph
Edge
p520
(dp521
g7
I1
sg8
I00
sg9
I5
sg10
(lp522
g516
a(igraph
Vertex
p523
(dp524
g14
F0.6000000000000002
sg8
I01
sg15
I0
sg16
F13.783783783783747
sg17
F-153.00000000000011
sg18
I323144
sg19
S'414.41088602'
p525
sg21
F0.54729729729729726
sbasg26
I00
sg27
I00
sg28
I322738
sg19
S'414.531033972'
p526
sba(igraph
Edge
p527
(dp528
g7
I1
sg8
I00
sg9
I5
sg10
(lp529
g523
a(igraph
Vertex
p530
(dp531
g14
F0.70000000000000018
sg8
I00
sg15
g24
sg16
F13.783783783783747
sg17
F-209.50000000000011
sg18
I323146
sg19
S'414.412083659'
p532
sg21
F0.54729729729729726
sbasg26
I00
sg27
I00
sg28
I322739
sg19
S'414.532621325'
p533
sba(igraph
Edge
p534
(dp535
g7
I1
sg8
I00
sg9
I5
sg10
(lp536
g530
a(igraph
Vertex
p537
(dp538
g14
F0.80000000000000016
sg8
I00
sg15
g24
sg16
F13.783783783783747
sg17
F-266.00000000000011
sg18
I323147
sg19
S'414.413430478'
p539
sg21
F0.54729729729729726
sbasg26
I00
sg27
I00
sg28
I322740
sg19
S'414.534253376'
p540
sba(igraph
Edge
p541
(dp542
g7
I1
sg8
I00
sg9
I5
sg10
(lp543
g537
a(igraph
Vertex
p544
(dp545
g14
F0.90000000000000002
sg8
I00
sg15
g24
sg16
F13.783783783783747
sg17
F-322.5
sg18
I323148
sg19
S'414.414667507'
p546
sg21
F0.54729729729729726
sbasg26
I00
sg27
I00
sg28
I322741
sg19
S'414.535906379'
p547
sba(igraph
Edge
p548
(dp549
g7
I1
sg8
I00
sg9
I5
sg10
(lp550
g544
a(igraph
Vertex
p551
(dp552
g14
F1.0
sg8
I00
sg15
g24
sg16
F13.783783783783747
sg17
F-379.0
sg18
I323149
sg19
S'414.415922415'
p553
sg21
F0.54729729729729726
sbasg26
I00
sg27
I00
sg28
I322742
sg19
S'414.537637325'
p554
sba(igraph
Edge
p555
(dp556
g7
I1
sg8
I00
sg9
I5
sg10
(lp557
g551
ag485
asg26
I00
sg27
I00
sg28
I322743
sg19
S'414.539361567'
p558
sba(igraph
Edge
p559
(dp560
g7
I1
sg8
I00
sg9
I5
sg10
(lp561
(igraph
Vertex
p562
(dp563
g14
F0.0
sg8
I00
sg15
g24
sg16
F61.581081081081095
sg17
F186.0
sg18
I323150
sg19
S'414.41776399'
p564
sg21
F0.63851351351351349
sba(igraph
Vertex
p565
(dp566
g14
F0.10000000000000006
sg8
I00
sg15
g24
sg16
F61.581081081081095
sg17
F129.49999999999997
sg18
I323151
sg19
S'414.419065552'
p567
sg21
F0.63851351351351349
sbasg26
I00
sg27
I00
sg28
I322744
sg19
S'414.541081897'
p568
sba(igraph
Edge
p569
(dp570
g7
I1
sg8
I00
sg9
I5
sg10
(lp571
g565
a(igraph
Vertex
p572
(dp573
g14
F0.20000000000000012
sg8
I00
sg15
g24
sg16
F61.581081081081095
sg17
F72.999999999999929
sg18
I323152
sg19
S'414.420373539'
p574
sg21
F0.63851351351351349
sbasg26
I00
sg27
I00
sg28
I322745
sg19
S'414.542820386'
p575
sba(igraph
Edge
p576
(dp577
g7
I1
sg8
I00
sg9
I5
sg10
(lp578
g572
a(igraph
Vertex
p579
(dp580
g14
F0.30000000000000016
sg8
I00
sg15
g24
sg16
F61.581081081081095
sg17
F16.499999999999915
sg18
I323153
sg19
S'414.421683761'
p581
sg21
F0.63851351351351349
sbasg26
I00
sg27
I00
sg28
I322746
sg19
S'414.544577593'
p582
sba(igraph
Edge
p583
(dp584
g7
I1
sg8
I00
sg9
I5
sg10
(lp585
g579
a(igraph
Vertex
p586
(dp587
g14
F0.40000000000000013
sg8
I00
sg15
g24
sg16
F61.581081081081095
sg17
F-40.000000000000085
sg18
I323154
sg19
S'414.423068574'
p588
sg21
F0.63851351351351349
sbasg26
I00
sg27
I00
sg28
I322747
sg19
S'414.546388158'
p589
sba(igraph
Edge
p590
(dp591
g7
I1
sg8
I00
sg9
I5
sg10
(lp592
g586
a(igraph
Vertex
p593
(dp594
g14
F0.50000000000000011
sg8
I00
sg15
g24
sg16
F61.581081081081095
sg17
F-96.500000000000057
sg18
I323155
sg19
S'414.424412321'
p595
sg21
F0.63851351351351349
sbasg26
I00
sg27
I00
sg28
I322748
sg19
S'414.548193416'
p596
sba(igraph
Edge
p597
(dp598
g7
I1
sg8
I00
sg9
I5
sg10
(lp599
g593
a(igraph
Vertex
p600
(dp601
g14
F0.6000000000000002
sg8
I00
sg15
g24
sg16
F61.581081081081095
sg17
F-153.00000000000011
sg18
I323156
sg19
S'414.42576333'
p602
sg21
F0.63851351351351349
sbasg26
I00
sg27
I00
sg28
I322749
sg19
S'414.550020184'
p603
sba(igraph
Edge
p604
(dp605
g7
I1
sg8
I00
sg9
I5
sg10
(lp606
g600
a(igraph
Vertex
p607
(dp608
g14
F0.70000000000000018
sg8
I00
sg15
g24
sg16
F61.581081081081095
sg17
F-209.50000000000011
sg18
I323157
sg19
S'414.427156245'
p609
sg21
F0.63851351351351349
sbasg26
I00
sg27
I00
sg28
I322750
sg19
S'414.551867626'
p610
sba(igraph
Edge
p611
(dp612
g7
I1
sg8
I00
sg9
I5
sg10
(lp613
g607
a(igraph
Vertex
p614
(dp615
g14
F0.80000000000000016
sg8
I00
sg15
g24
sg16
F61.581081081081095
sg17
F-266.00000000000011
sg18
I323158
sg19
S'414.428651686'
p616
sg21
F0.63851351351351349
sbasg26
I00
sg27
I00
sg28
I322751
sg19
S'414.553736858'
p617
sba(igraph
Edge
p618
(dp619
g7
I1
sg8
I00
sg9
I5
sg10
(lp620
g614
a(igraph
Vertex
p621
(dp622
g14
F0.90000000000000002
sg8
I00
sg15
g24
sg16
F61.581081081081095
sg17
F-322.5
sg18
I323159
sg19
S'414.42989095'
p623
sg21
F0.63851351351351349
sbasg26
I00
sg27
I00
sg28
I322752
sg19
S'414.555640731'
p624
sba(igraph
Edge
p625
(dp626
g7
I1
sg8
I00
sg9
I5
sg10
(lp627
g621
a(igraph
Vertex
p628
(dp629
g14
F1.0
sg8
I00
sg15
g24
sg16
F61.581081081081095
sg17
F-379.0
sg18
I323160
sg19
S'414.430597464'
p630
sg21
F0.63851351351351349
sbasg26
I00
sg27
I00
sg28
I322753
sg19
S'414.557683169'
p631
sba(igraph
Edge
p632
(dp633
g7
I1
sg8
I00
sg9
I5
sg10
(lp634
g628
ag562
asg26
I00
sg27
I00
sg28
I322754
sg19
S'414.559661912'
p635
sba(igraph
Edge
p636
(dp637
g7
I1
sg8
I00
sg9
I5
sg10
(lp638
(igraph
Vertex
p639
(dp640
g14
F0.0
sg8
I00
sg15
g24
sg16
F109.37837837837833
sg17
F186.0
sg18
I323161
sg19
S'414.431313198'
p641
sg21
F0.7297297297297296
sba(igraph
Vertex
p642
(dp643
g14
F0.10000000000000006
sg8
I00
sg15
g24
sg16
F109.37837837837833
sg17
F129.49999999999997
sg18
I323162
sg19
S'414.432034239'
p644
sg21
F0.7297297297297296
sbasg26
I00
sg27
I00
sg28
I322755
sg19
S'414.561638421'
p645
sba(igraph
Edge
p646
(dp647
g7
I1
sg8
I00
sg9
I5
sg10
(lp648
g642
a(igraph
Vertex
p649
(dp650
g14
F0.20000000000000012
sg8
I00
sg15
g24
sg16
F109.37837837837833
sg17
F72.999999999999929
sg18
I323163
sg19
S'414.432765617'
p651
sg21
F0.7297297297297296
sbasg26
I00
sg27
I00
sg28
I322756
sg19
S'414.563642586'
p652
sba(igraph
Edge
p653
(dp654
g7
I1
sg8
I00
sg9
I5
sg10
(lp655
g649
a(igraph
Vertex
p656
(dp657
g14
F0.30000000000000016
sg8
I00
sg15
g24
sg16
F109.37837837837833
sg17
F16.499999999999915
sg18
I323164
sg19
S'414.433504817'
p658
sg21
F0.7297297297297296
sbasg26
I00
sg27
I00
sg28
I322757
sg19
S'414.565600097'
p659
sba(igraph
Edge
p660
(dp661
g7
I1
sg8
I00
sg9
I5
sg10
(lp662
g656
a(igraph
Vertex
p663
(dp664
g14
F0.40000000000000013
sg8
I00
sg15
g24
sg16
F109.37837837837833
sg17
F-40.000000000000085
sg18
I323165
sg19
S'414.434283687'
p665
sg21
F0.7297297297297296
sbasg26
I00
sg27
I00
sg28
I322758
sg19
S'414.567592809'
p666
sba(igraph
Edge
p667
(dp668
g7
I1
sg8
I00
sg9
I5
sg10
(lp669
g663
a(igraph
Vertex
p670
(dp671
g14
F0.50000000000000011
sg8
I00
sg15
g24
sg16
F109.37837837837833
sg17
F-96.500000000000057
sg18
I323166
sg19
S'414.4350349'
p672
sg21
F0.7297297297297296
sbasg26
I00
sg27
I00
sg28
I322759
sg19
S'414.569645863'
p673
sba(igraph
Edge
p674
(dp675
g7
I1
sg8
I00
sg9
I5
sg10
(lp676
g670
a(igraph
Vertex
p677
(dp678
g14
F0.6000000000000002
sg8
I00
sg15
g24
sg16
F109.37837837837833
sg17
F-153.00000000000011
sg18
I323167
sg19
S'414.43580036'
p679
sg21
F0.7297297297297296
sbasg26
I00
sg27
I00
sg28
I322760
sg19
S'414.571801723'
p680
sba(igraph
Edge
p681
(dp682
g7
I1
sg8
I00
sg9
I5
sg10
(lp683
g677
a(igraph
Vertex
p684
(dp685
g14
F0.70000000000000018
sg8
I01
sg15
I0
sg16
F109.37837837837833
sg17
F-209.50000000000011
sg18
I323169
sg19
S'414.436621135'
p686
sg21
F0.7297297297297296
sbasg26
I00
sg27
I00
sg28
I322761
sg19
S'414.573905901'
p687
sba(igraph
Edge
p688
(dp689
g7
I1
sg8
I00
sg9
I5
sg10
(lp690
g684
a(igraph
Vertex
p691
(dp692
g14
F0.80000000000000016
sg8
I00
sg15
g24
sg16
F109.37837837837833
sg17
F-266.00000000000011
sg18
I323171
sg19
S'414.437395256'
p693
sg21
F0.7297297297297296
sbasg26
I00
sg27
I00
sg28
I322762
sg19
S'414.576011476'
p694
sba(igraph
Edge
p695
(dp696
g7
I1
sg8
I00
sg9
I5
sg10
(lp697
g691
a(igraph
Vertex
p698
(dp699
g14
F0.90000000000000002
sg8
I00
sg15
g24
sg16
F109.37837837837833
sg17
F-322.5
sg18
I323172
sg19
S'414.438185579'
p700
sg21
F0.7297297297297296
sbasg26
I00
sg27
I00
sg28
I322763
sg19
S'414.578106435'
p701
sba(igraph
Edge
p702
(dp703
g7
I1
sg8
I00
sg9
I5
sg10
(lp704
g698
a(igraph
Vertex
p705
(dp706
g14
F1.0
sg8
I00
sg15
g24
sg16
F109.37837837837833
sg17
F-379.0
sg18
I323173
sg19
S'414.438980373'
p707
sg21
F0.7297297297297296
sbasg26
I00
sg27
I00
sg28
I322764
sg19
S'414.580262296'
p708
sba(igraph
Edge
p709
(dp710
g7
I1
sg8
I00
sg9
I5
sg10
(lp711
g705
ag639
asg26
I00
sg27
I00
sg28
I322765
sg19
S'414.58241648'
p712
sba(igraph
Edge
p713
(dp714
g7
I1
sg8
I00
sg9
I5
sg10
(lp715
(igraph
Vertex
p716
(dp717
g14
F0.0
sg8
I00
sg15
g24
sg16
F157.17567567567568
sg17
F186.0
sg18
I323174
sg19
S'414.43987043'
p718
sg21
F0.82094594594594594
sba(igraph
Vertex
p719
(dp720
g14
F0.10000000000000006
sg8
I00
sg15
g24
sg16
F157.17567567567568
sg17
F129.49999999999997
sg18
I323175
sg19
S'414.440687294'
p721
sg21
F0.82094594594594594
sbasg26
I00
sg27
I00
sg28
I322766
sg19
S'414.584668442'
p722
sba(igraph
Edge
p723
(dp724
g7
I1
sg8
I00
sg9
I5
sg10
(lp725
g719
a(igraph
Vertex
p726
(dp727
g14
F0.20000000000000012
sg8
I00
sg15
g24
sg16
F157.17567567567568
sg17
F72.999999999999929
sg18
I323176
sg19
S'414.441508907'
p728
sg21
F0.82094594594594594
sbasg26
I00
sg27
I00
sg28
I322767
sg19
S'414.587037179'
p729
sba(igraph
Edge
p730
(dp731
g7
I1
sg8
I00
sg9
I5
sg10
(lp732
g726
a(igraph
Vertex
p733
(dp734
g14
F0.30000000000000016
sg8
I00
sg15
g24
sg16
F157.17567567567568
sg17
F16.499999999999915
sg18
I323177
sg19
S'414.442426342'
p735
sg21
F0.82094594594594594
sbasg26
I00
sg27
I00
sg28
I322768
sg19
S'414.589563199'
p736
sba(igraph
Edge
p737
(dp738
g7
I1
sg8
I00
sg9
I5
sg10
(lp739
g733
a(igraph
Vertex
p740
(dp741
g14
F0.40000000000000013
sg8
I00
sg15
g24
sg16
F157.17567567567568
sg17
F-40.000000000000085
sg18
I323178
sg19
S'414.443317237'
p742
sg21
F0.82094594594594594
sbasg26
I00
sg27
I00
sg28
I322769
sg19
S'414.592456304'
p743
sba(igraph
Edge
p744
(dp745
g7
I1
sg8
I00
sg9
I5
sg10
(lp746
g740
a(igraph
Vertex
p747
(dp748
g14
F0.50000000000000011
sg8
I00
sg15
g24
sg16
F157.17567567567568
sg17
F-96.500000000000057
sg18
I323179
sg19
S'414.444238583'
p749
sg21
F0.82094594594594594
sbasg26
I00
sg27
I00
sg28
I322770
sg19
S'414.594862755'
p750
sba(igraph
Edge
p751
(dp752
g7
I1
sg8
I00
sg9
I5
sg10
(lp753
g747
a(igraph
Vertex
p754
(dp755
g14
F0.6000000000000002
sg8
I00
sg15
g24
sg16
F157.17567567567568
sg17
F-153.00000000000011
sg18
I323180
sg19
S'414.445119142'
p756
sg21
F0.82094594594594594
sbasg26
I00
sg27
I00
sg28
I322771
sg19
S'414.597406095'
p757
sba(igraph
Edge
p758
(dp759
g7
I1
sg8
I00
sg9
I5
sg10
(lp760
g754
a(igraph
Vertex
p761
(dp762
g14
F0.70000000000000018
sg8
I00
sg15
g24
sg16
F157.17567567567568
sg17
F-209.50000000000011
sg18
I323181
sg19
S'414.446044399'
p763
sg21
F0.82094594594594594
sbasg26
I00
sg27
I00
sg28
I322772
sg19
S'414.600003632'
p764
sba(igraph
Edge
p765
(dp766
g7
I1
sg8
I00
sg9
I5
sg10
(lp767
g761
a(igraph
Vertex
p768
(dp769
g14
F0.80000000000000016
sg8
I00
sg15
g24
sg16
F157.17567567567568
sg17
F-266.00000000000011
sg18
I323182
sg19
S'414.446925796'
p770
sg21
F0.82094594594594594
sbasg26
I00
sg27
I00
sg28
I322773
sg19
S'414.602476572'
p771
sba(igraph
Edge
p772
(dp773
g7
I1
sg8
I00
sg9
I5
sg10
(lp774
g768
a(igraph
Vertex
p775
(dp776
g14
F0.90000000000000002
sg8
I01
sg15
I0
sg16
F157.17567567567568
sg17
F-322.5
sg18
I323184
sg19
S'414.447850495'
p777
sg21
F0.82094594594594594
sbasg26
I00
sg27
I00
sg28
I322774
sg19
S'414.604891683'
p778
sba(igraph
Edge
p779
(dp780
g7
I1
sg8
I00
sg9
I5
sg10
(lp781
g775
a(igraph
Vertex
p782
(dp783
g14
F1.0
sg8
I00
sg15
g24
sg16
F157.17567567567568
sg17
F-379.0
sg18
I323186
sg19
S'414.448746978'
p784
sg21
F0.82094594594594594
sbasg26
I00
sg27
I00
sg28
I322775
sg19
S'414.607289195'
p785
sba(igraph
Edge
p786
(dp787
g7
I1
sg8
I00
sg9
I5
sg10
(lp788
g782
ag716
asg26
I00
sg27
I00
sg28
I322776
sg19
S'414.609809906'
p789
sba(igraph
Edge
p790
(dp791
g7
I1
sg8
I00
sg9
I5
sg10
(lp792
(igraph
Vertex
p793
(dp794
g14
F0.0
sg8
I00
sg15
g24
sg16
F204.97297297297297
sg17
F186.0
sg18
I323187
sg19
S'414.449682013'
p795
sg21
F0.91216216216216217
sba(igraph
Vertex
p796
(dp797
g14
F0.10000000000000006
sg8
I00
sg15
g24
sg16
F204.97297297297297
sg17
F129.49999999999997
sg18
I323188
sg19
S'414.450591905'
p798
sg21
F0.91216216216216217
sbasg26
I00
sg27
I00
sg28
I322777
sg19
S'414.612197919'
p799
sba(igraph
Edge
p800
(dp801
g7
I1
sg8
I00
sg9
I5
sg10
(lp802
g796
a(igraph
Vertex
p803
(dp804
g14
F0.20000000000000012
sg8
I00
sg15
g24
sg16
F204.97297297297297
sg17
F72.999999999999929
sg18
I323189
sg19
S'414.451542305'
p805
sg21
F0.91216216216216217
sbasg26
I00
sg27
I00
sg28
I322778
sg19
S'414.614655773'
p806
sba(igraph
Edge
p807
(dp808
g7
I1
sg8
I00
sg9
I5
sg10
(lp809
g803
a(igraph
Vertex
p810
(dp811
g14
F0.30000000000000016
sg8
I00
sg15
g24
sg16
F204.97297297297297
sg17
F16.499999999999915
sg18
I323190
sg19
S'414.452476781'
p812
sg21
F0.91216216216216217
sbasg26
I00
sg27
I00
sg28
I322779
sg19
S'414.617132345'
p813
sba(igraph
Edge
p814
(dp815
g7
I1
sg8
I00
sg9
I5
sg10
(lp816
g810
a(igraph
Vertex
p817
(dp818
g14
F0.40000000000000013
sg8
I00
sg15
g24
sg16
F204.97297297297297
sg17
F-40.000000000000085
sg18
I323191
sg19
S'414.453414051'
p819
sg21
F0.91216216216216217
sbasg26
I00
sg27
I00
sg28
I322780
sg19
S'414.619642161'
p820
sba(igraph
Edge
p821
(dp822
g7
I1
sg8
I00
sg9
I5
sg10
(lp823
g817
a(igraph
Vertex
p824
(dp825
g14
F0.50000000000000011
sg8
I00
sg15
g24
sg16
F204.97297297297297
sg17
F-96.500000000000057
sg18
I323192
sg19
S'414.454362216'
p826
sg21
F0.91216216216216217
sbasg26
I00
sg27
I00
sg28
I322781
sg19
S'414.622120409'
p827
sba(igraph
Edge
p828
(dp829
g7
I1
sg8
I00
sg9
I5
sg10
(lp830
g824
a(igraph
Vertex
p831
(dp832
g14
F0.6000000000000002
sg8
I00
sg15
g24
sg16
F204.97297297297297
sg17
F-153.00000000000011
sg18
I323193
sg19
S'414.455319042'
p833
sg21
F0.91216216216216217
sbasg26
I00
sg27
I00
sg28
I322782
sg19
S'414.624616536'
p834
sba(igraph
Edge
p835
(dp836
g7
I1
sg8
I00
sg9
I5
sg10
(lp837
g831
a(igraph
Vertex
p838
(dp839
g14
F0.70000000000000018
sg8
I00
sg15
g24
sg16
F204.97297297297297
sg17
F-209.50000000000011
sg18
I323194
sg19
S'414.456277823'
p840
sg21
F0.91216216216216217
sbasg26
I00
sg27
I00
sg28
I322783
sg19
S'414.627291178'
p841
sba(igraph
Edge
p842
(dp843
g7
I1
sg8
I00
sg9
I5
sg10
(lp844
g838
a(igraph
Vertex
p845
(dp846
g14
F0.80000000000000016
sg8
I01
sg15
I0
sg16
F204.97297297297297
sg17
F-266.00000000000011
sg18
I323196
sg19
S'414.457250572'
p847
sg21
F0.91216216216216217
sbasg26
I00
sg27
I00
sg28
I322784
sg19
S'414.629845134'
p848
sba(igraph
Edge
p849
(dp850
g7
I1
sg8
I00
sg9
I5
sg10
(lp851
g845
a(igraph
Vertex
p852
(dp853
g14
F0.90000000000000002
sg8
I00
sg15
g24
sg16
F204.97297297297297
sg17
F-322.5
sg18
I323198
sg19
S'414.458320541'
p854
sg21
F0.91216216216216217
sbasg26
I00
sg27
I00
sg28
I322785
sg19
S'414.632813668'
p855
sba(igraph
Edge
p856
(dp857
g7
I1
sg8
I00
sg9
I5
sg10
(lp858
g852
a(igraph
Vertex
p859
(dp860
g14
F1.0
sg8
I00
sg15
g24
sg16
F204.97297297297297
sg17
F-379.0
sg18
I323199
sg19
S'414.459506725'
p861
sg21
F0.91216216216216217
sbasg26
I00
sg27
I00
sg28
I322786
sg19
S'414.635435789'
p862
sba(igraph
Edge
p863
(dp864
g7
I1
sg8
I00
sg9
I5
sg10
(lp865
g859
ag793
asg26
I00
sg27
I00
sg28
I322787
sg19
S'414.638104843'
p866
sba(igraph
Edge
p867
(dp868
g7
I1
sg8
I00
sg9
I5
sg10
(lp869
(igraph
Vertex
p870
(dp871
g14
F0.0
sg8
I00
sg15
g24
sg16
F252.7702702702702
sg17
F186.0
sg18
I323200
sg19
S'414.460508249'
p872
sg21
F1.0033783783783783
sba(igraph
Vertex
p873
(dp874
g14
F0.10000000000000006
sg8
I00
sg15
g24
sg16
F252.7702702702702
sg17
F129.49999999999997
sg18
I323201
sg19
S'414.461517874'
p875
sg21
F1.0033783783783783
sbasg26
I00
sg27
I00
sg28
I322788
sg19
S'414.640801834'
p876
sba(igraph
Edge
p877
(dp878
g7
I1
sg8
I00
sg9
I5
sg10
(lp879
g873
a(igraph
Vertex
p880
(dp881
g14
F0.20000000000000012
sg8
I00
sg15
g24
sg16
F252.7702702702702
sg17
F72.999999999999929
sg18
I323202
sg19
S'414.462527221'
p882
sg21
F1.0033783783783783
sbasg26
I00
sg27
I00
sg28
I322789
sg19
S'414.643527879'
p883
sba(igraph
Edge
p884
(dp885
g7
I1
sg8
I00
sg9
I5
sg10
(lp886
g880
a(igraph
Vertex
p887
(dp888
g14
F0.30000000000000016
sg8
I00
sg15
g24
sg16
F252.7702702702702
sg17
F16.499999999999915
sg18
I323203
sg19
S'414.463545786'
p889
sg21
F1.0033783783783783
sbasg26
I00
sg27
I00
sg28
I322790
sg19
S'414.646217047'
p890
sba(igraph
Edge
p891
(dp892
g7
I1
sg8
I00
sg9
I5
sg10
(lp893
g887
a(igraph
Vertex
p894
(dp895
g14
F0.40000000000000013
sg8
I00
sg15
g24
sg16
F252.7702702702702
sg17
F-40.000000000000085
sg18
I323204
sg19
S'414.464578319'
p896
sg21
F1.0033783783783783
sbasg26
I00
sg27
I00
sg28
I322791
sg19
S'414.648984717'
p897
sba(igraph
Edge
p898
(dp899
g7
I1
sg8
I00
sg9
I5
sg10
(lp900
g894
a(igraph
Vertex
p901
(dp902
g14
F0.50000000000000011
sg8
I00
sg15
g24
sg16
F252.7702702702702
sg17
F-96.500000000000057
sg18
I323205
sg19
S'414.465613926'
p903
sg21
F1.0033783783783783
sbasg26
I00
sg27
I00
sg28
I322792
sg19
S'414.651730318'
p904
sba(igraph
Edge
p905
(dp906
g7
I1
sg8
I00
sg9
I5
sg10
(lp907
g901
a(igraph
Vertex
p908
(dp909
g14
F0.6000000000000002
sg8
I00
sg15
g24
sg16
F252.7702702702702
sg17
F-153.00000000000011
sg18
I323206
sg19
S'414.466657354'
p910
sg21
F1.0033783783783783
sbasg26
I00
sg27
I00
sg28
I322793
sg19
S'414.654463626'
p911
sba(igraph
Edge
p912
(dp913
g7
I1
sg8
I00
sg9
I5
sg10
(lp914
g908
a(igraph
Vertex
p915
(dp916
g14
F0.70000000000000018
sg8
I00
sg15
g24
sg16
F252.7702702702702
sg17
F-209.50000000000011
sg18
I323207
sg19
S'414.46771084'
p917
sg21
F1.0033783783783783
sbasg26
I00
sg27
I00
sg28
I322794
sg19
S'414.657249455'
p918
sba(igraph
Edge
p919
(dp920
g7
I1
sg8
I00
sg9
I5
sg10
(lp921
g915
a(igraph
Vertex
p922
(dp923
g14
F0.80000000000000016
sg8
I00
sg15
g24
sg16
F252.7702702702702
sg17
F-266.00000000000011
sg18
I323208
sg19
S'414.468774942'
p924
sg21
F1.0033783783783783
sbasg26
I00
sg27
I00
sg28
I322795
sg19
S'414.660006789'
p925
sba(igraph
Edge
p926
(dp927
g7
I1
sg8
I00
sg9
I5
sg10
(lp928
g922
a(igraph
Vertex
p929
(dp930
g14
F0.90000000000000002
sg8
I00
sg15
g24
sg16
F252.7702702702702
sg17
F-322.5
sg18
I323209
sg19
S'414.469886536'
p931
sg21
F1.0033783783783783
sbasg26
I00
sg27
I00
sg28
I322796
sg19
S'414.662832846'
p932
sba(igraph
Edge
p933
(dp934
g7
I1
sg8
I00
sg9
I5
sg10
(lp935
g929
a(igraph
Vertex
p936
(dp937
g14
F1.0
sg8
I01
sg15
I0
sg16
F252.7702702702702
sg17
F-379.0
sg18
I323211
sg19
S'414.470972149'
p938
sg21
F1.0033783783783783
sbasg26
I00
sg27
I00
sg28
I322797
sg19
S'414.665651361'
p939
sba(igraph
Edge
p940
(dp941
g7
I1
sg8
I00
sg9
I5
sg10
(lp942
g936
ag870
asg26
I00
sg27
I00
sg28
I322798
sg19
S'414.668584136'
p943
sba(igraph
Edge
p944
(dp945
g7
I1
sg8
I00
sg9
I5
sg10
(lp946
g12
ag100
asg26
I00
sg27
I00
sg28
I322799
sg19
S'414.671478917'
p947
sba(igraph
Edge
p948
(dp949
g7
I1
sg8
I00
sg9
I5
sg10
(lp950
g22
ag110
asg26
I00
sg27
I00
sg28
I322800
sg19
S'414.674361965'
p951
sba(igraph
Edge
p952
(dp953
g7
I1
sg8
I00
sg9
I5
sg10
(lp954
g33
ag110
asg26
I00
sg27
I00
sg28
I322801
sg19
S'414.677267362'
p955
sba(igraph
Edge
p956
(dp957
g7
I1
sg8
I00
sg9
I5
sg10
(lp958
g40
ag124
asg26
I00
sg27
I00
sg28
I322802
sg19
S'414.680269978'
p959
sba(igraph
Edge
p960
(dp961
g7
I1
sg8
I00
sg9
I5
sg10
(lp962
g47
ag124
asg26
I00
sg27
I00
sg28
I322803
sg19
S'414.683290753'
p963
sba(igraph
Edge
p964
(dp965
g7
I1
sg8
I00
sg9
I5
sg10
(lp966
g54
ag138
asg26
I00
sg27
I00
sg28
I322804
sg19
S'414.686286665'
p967
sba(igraph
Edge
p968
(dp969
g7
I1
sg8
I00
sg9
I5
sg10
(lp970
g61
ag138
asg26
I00
sg27
I00
sg28
I322805
sg19
S'414.689280621'
p971
sba(igraph
Edge
p972
(dp973
g7
I1
sg8
I00
sg9
I5
sg10
(lp974
g68
ag152
asg26
I00
sg27
I00
sg28
I322806
sg19
S'414.692330729'
p975
sba(igraph
Edge
p976
(dp977
g7
I1
sg8
I00
sg9
I5
sg10
(lp978
g75
ag152
asg26
I00
sg27
I00
sg28
I322807
sg19
S'414.699674959'
p979
sba(igraph
Edge
p980
(dp981
g7
I1
sg8
I00
sg9
I5
sg10
(lp982
g82
ag166
asg26
I00
sg27
I00
sg28
I322808
sg19
S'414.702853296'
p983
sba(igraph
Edge
p984
(dp985
g7
I1
sg8
I00
sg9
I5
sg10
(lp986
g89
ag166
asg26
I00
sg27
I00
sg28
I322809
sg19
S'414.706017385'
p987
sba(igraph
Edge
p988
(dp989
g7
I1
sg8
I00
sg9
I5
sg10
(lp990
g12
ag103
asg26
I00
sg27
I00
sg28
I322810
sg19
S'414.709340154'
p991
sba(igraph
Edge
p992
(dp993
g7
I1
sg8
I00
sg9
I5
sg10
(lp994
g22
ag103
asg26
I00
sg27
I00
sg28
I322811
sg19
S'414.712533297'
p995
sba(igraph
Edge
p996
(dp997
g7
I1
sg8
I00
sg9
I5
sg10
(lp998
g33
ag117
asg26
I00
sg27
I00
sg28
I322812
sg19
S'414.71579237'
p999
sba(igraph
Edge
p1000
(dp1001
g7
I1
sg8
I00
sg9
I5
sg10
(lp1002
g40
ag117
asg26
I00
sg27
I00
sg28
I322813
sg19
S'414.719043621'
p1003
sba(igraph
Edge
p1004
(dp1005
g7
I1
sg8
I00
sg9
I5
sg10
(lp1006
g47
ag131
asg26
I00
sg27
I00
sg28
I322814
sg19
S'414.722316663'
p1007
sba(igraph
Edge
p1008
(dp1009
g7
I1
sg8
I00
sg9
I5
sg10
(lp1010
g54
ag131
asg26
I00
sg27
I00
sg28
I322815
sg19
S'414.725642505'
p1011
sba(igraph
Edge
p1012
(dp1013
g7
I1
sg8
I00
sg9
I5
sg10
(lp1014
g61
ag145
asg26
I00
sg27
I00
sg28
I322816
sg19
S'414.728883699'
p1015
sba(igraph
Edge
p1016
(dp1017
g7
I1
sg8
I00
sg9
I5
sg10
(lp1018
g68
ag145
asg26
I00
sg27
I00
sg28
I322817
sg19
S'414.732163725'
p1019
sba(igraph
Edge
p1020
(dp1021
g7
I1
sg8
I00
sg9
I5
sg10
(lp1022
g75
ag159
asg26
I00
sg27
I00
sg28
I322818
sg19
S'414.735427827'
p1023
sba(igraph
Edge
p1024
(dp1025
g7
I1
sg8
I00
sg9
I5
sg10
(lp1026
g82
ag159
asg26
I00
sg27
I00
sg28
I322819
sg19
S'414.738757021'
p1027
sba(igraph
Edge
p1028
(dp1029
g7
I1
sg8
I00
sg9
I5
sg10
(lp1030
g89
ag100
asg26
I00
sg27
I00
sg28
I322820
sg19
S'414.742561974'
p1031
sba(igraph
Edge
p1032
(dp1033
g7
I1
sg8
I00
sg9
I5
sg10
(lp1034
g12
ag870
asg26
I00
sg27
I00
sg28
I322821
sg19
S'414.745935028'
p1035
sba(igraph
Edge
p1036
(dp1037
g7
I1
sg8
I00
sg9
I5
sg10
(lp1038
g22
ag870
asg26
I00
sg27
I00
sg28
I322822
sg19
S'414.749359206'
p1039
sba(igraph
Edge
p1040
(dp1041
g7
I1
sg8
I00
sg9
I5
sg10
(lp1042
g33
ag880
asg26
I00
sg27
I00
sg28
I322823
sg19
S'414.752790089'
p1043
sba(igraph
Edge
p1044
(dp1045
g7
I1
sg8
I00
sg9
I5
sg10
(lp1046
g40
ag880
asg26
I00
sg27
I00
sg28
I322824
sg19
S'414.756257848'
p1047
sba(igraph
Edge
p1048
(dp1049
g7
I1
sg8
I00
sg9
I5
sg10
(lp1050
g47
ag894
asg26
I00
sg27
I00
sg28
I322825
sg19
S'414.759721138'
p1051
sba(igraph
Edge
p1052
(dp1053
g7
I1
sg8
I00
sg9
I5
sg10
(lp1054
g54
ag894
asg26
I00
sg27
I00
sg28
I322826
sg19
S'414.763223818'
p1055
sba(igraph
Edge
p1056
(dp1057
g7
I1
sg8
I00
sg9
I5
sg10
(lp1058
g61
ag908
asg26
I00
sg27
I00
sg28
I322827
sg19
S'414.767036593'
p1059
sba(igraph
Edge
p1060
(dp1061
g7
I1
sg8
I00
sg9
I5
sg10
(lp1062
g68
ag908
asg26
I00
sg27
I00
sg28
I322828
sg19
S'414.770599057'
p1063
sba(igraph
Edge
p1064
(dp1065
g7
I1
sg8
I00
sg9
I5
sg10
(lp1066
g75
ag922
asg26
I00
sg27
I00
sg28
I322829
sg19
S'414.774288911'
p1067
sba(igraph
Edge
p1068
(dp1069
g7
I1
sg8
I00
sg9
I5
sg10
(lp1070
g82
ag922
asg26
I00
sg27
I00
sg28
I322830
sg19
S'414.777929877'
p1071
sba(igraph
Edge
p1072
(dp1073
g7
I1
sg8
I00
sg9
I5
sg10
(lp1074
g89
ag936
asg26
I00
sg27
I00
sg28
I322831
sg19
S'414.781543464'
p1075
sba(igraph
Edge
p1076
(dp1077
g7
I1
sg8
I00
sg9
I5
sg10
(lp1078
g12
ag936
asg26
I00
sg27
I00
sg28
I322832
sg19
S'414.785163198'
p1079
sba(igraph
Edge
p1080
(dp1081
g7
I1
sg8
I00
sg9
I5
sg10
(lp1082
g22
ag873
asg26
I00
sg27
I00
sg28
I322833
sg19
S'414.788925687'
p1083
sba(igraph
Edge
p1084
(dp1085
g7
I1
sg8
I00
sg9
I5
sg10
(lp1086
g33
ag873
asg26
I00
sg27
I00
sg28
I322834
sg19
S'414.792586209'
p1087
sba(igraph
Edge
p1088
(dp1089
g7
I1
sg8
I00
sg9
I5
sg10
(lp1090
g40
ag887
asg26
I00
sg27
I00
sg28
I322835
sg19
S'414.796339758'
p1091
sba(igraph
Edge
p1092
(dp1093
g7
I1
sg8
I00
sg9
I5
sg10
(lp1094
g47
ag887
asg26
I00
sg27
I00
sg28
I322836
sg19
S'414.800094146'
p1095
sba(igraph
Edge
p1096
(dp1097
g7
I1
sg8
I00
sg9
I5
sg10
(lp1098
g54
ag901
asg26
I00
sg27
I00
sg28
I322837
sg19
S'414.803765004'
p1099
sba(igraph
Edge
p1100
(dp1101
g7
I1
sg8
I00
sg9
I5
sg10
(lp1102
g61
ag901
asg26
I00
sg27
I00
sg28
I322838
sg19
S'414.807559899'
p1103
sba(igraph
Edge
p1104
(dp1105
g7
I1
sg8
I00
sg9
I5
sg10
(lp1106
g68
ag915
asg26
I00
sg27
I00
sg28
I322839
sg19
S'414.811328814'
p1107
sba(igraph
Edge
p1108
(dp1109
g7
I1
sg8
I00
sg9
I5
sg10
(lp1110
g75
ag915
asg26
I00
sg27
I00
sg28
I322840
sg19
S'414.815129297'
p1111
sba(igraph
Edge
p1112
(dp1113
g7
I1
sg8
I00
sg9
I5
sg10
(lp1114
g82
ag929
asg26
I00
sg27
I00
sg28
I322841
sg19
S'414.81902225'
p1115
sba(igraph
Edge
p1116
(dp1117
g7
I1
sg8
I00
sg9
I5
sg10
(lp1118
g89
ag929
asg26
I00
sg27
I00
sg28
I322842
sg19
S'414.82286799'
p1119
sba(igraph
Edge
p1120
(dp1121
g7
I1
sg8
I00
sg9
I5
sg10
(lp1122
g100
ag177
asg26
I00
sg27
I00
sg28
I322843
sg19
S'414.826798378'
p1123
sba(igraph
Edge
p1124
(dp1125
g7
I1
sg8
I00
sg9
I5
sg10
(lp1126
g103
ag187
asg26
I00
sg27
I00
sg28
I322844
sg19
S'414.830685744'
p1127
sba(igraph
Edge
p1128
(dp1129
g7
I1
sg8
I00
sg9
I5
sg10
(lp1130
g110
ag187
asg26
I00
sg27
I00
sg28
I322845
sg19
S'414.834769782'
p1131
sba(igraph
Edge
p1132
(dp1133
g7
I1
sg8
I00
sg9
I5
sg10
(lp1134
g117
ag201
asg26
I00
sg27
I00
sg28
I322846
sg19
S'414.838842087'
p1135
sba(igraph
Edge
p1136
(dp1137
g7
I1
sg8
I00
sg9
I5
sg10
(lp1138
g124
ag201
asg26
I00
sg27
I00
sg28
I322847
sg19
S'414.842804602'
p1139
sba(igraph
Edge
p1140
(dp1141
g7
I1
sg8
I00
sg9
I5
sg10
(lp1142
g131
ag215
asg26
I00
sg27
I00
sg28
I322848
sg19
S'414.846829415'
p1143
sba(igraph
Edge
p1144
(dp1145
g7
I1
sg8
I00
sg9
I5
sg10
(lp1146
g138
ag215
asg26
I00
sg27
I00
sg28
I322849
sg19
S'414.850896972'
p1147
sba(igraph
Edge
p1148
(dp1149
g7
I1
sg8
I00
sg9
I5
sg10
(lp1150
g145
ag229
asg26
I00
sg27
I00
sg28
I322850
sg19
S'414.854880159'
p1151
sba(igraph
Edge
p1152
(dp1153
g7
I1
sg8
I00
sg9
I5
sg10
(lp1154
g152
ag229
asg26
I00
sg27
I00
sg28
I322851
sg19
S'414.858968947'
p1155
sba(igraph
Edge
p1156
(dp1157
g7
I1
sg8
I00
sg9
I5
sg10
(lp1158
g159
ag243
asg26
I00
sg27
I00
sg28
I322852
sg19
S'414.863001303'
p1159
sba(igraph
Edge
p1160
(dp1161
g7
I1
sg8
I00
sg9
I5
sg10
(lp1162
g166
ag243
asg26
I00
sg27
I00
sg28
I322853
sg19
S'414.867043996'
p1163
sba(igraph
Edge
p1164
(dp1165
g7
I1
sg8
I00
sg9
I5
sg10
(lp1166
g100
ag180
asg26
I00
sg27
I00
sg28
I322854
sg19
S'414.871171057'
p1167
sba(igraph
Edge
p1168
(dp1169
g7
I1
sg8
I00
sg9
I5
sg10
(lp1170
g103
ag180
asg26
I00
sg27
I00
sg28
I322855
sg19
S'414.875497305'
p1171
sba(igraph
Edge
p1172
(dp1173
g7
I1
sg8
I00
sg9
I5
sg10
(lp1174
g110
ag194
asg26
I00
sg27
I00
sg28
I322856
sg19
S'414.87965342'
p1175
sba(igraph
Edge
p1176
(dp1177
g7
I1
sg8
I00
sg9
I5
sg10
(lp1178
g117
ag194
asg26
I00
sg27
I00
sg28
I322857
sg19
S'414.883855909'
p1179
sba(igraph
Edge
p1180
(dp1181
g7
I1
sg8
I00
sg9
I5
sg10
(lp1182
g124
ag208
asg26
I00
sg27
I00
sg28
I322858
sg19
S'414.88806203'
p1183
sba(igraph
Edge
p1184
(dp1185
g7
I1
sg8
I00
sg9
I5
sg10
(lp1186
g131
ag208
asg26
I00
sg27
I00
sg28
I322859
sg19
S'414.892261447'
p1187
sba(igraph
Edge
p1188
(dp1189
g7
I1
sg8
I00
sg9
I5
sg10
(lp1190
g138
ag222
asg26
I00
sg27
I00
sg28
I322860
sg19
S'414.896508634'
p1191
sba(igraph
Edge
p1192
(dp1193
g7
I1
sg8
I00
sg9
I5
sg10
(lp1194
g145
ag222
asg26
I00
sg27
I00
sg28
I322861
sg19
S'414.900797448'
p1195
sba(igraph
Edge
p1196
(dp1197
g7
I1
sg8
I00
sg9
I5
sg10
(lp1198
g152
ag236
asg26
I00
sg27
I00
sg28
I322862
sg19
S'414.905166997'
p1199
sba(igraph
Edge
p1200
(dp1201
g7
I1
sg8
I00
sg9
I5
sg10
(lp1202
g159
ag236
asg26
I00
sg27
I00
sg28
I322863
sg19
S'414.909498554'
p1203
sba(igraph
Edge
p1204
(dp1205
g7
I1
sg8
I00
sg9
I5
sg10
(lp1206
g166
ag177
asg26
I00
sg27
I00
sg28
I322864
sg19
S'414.914237424'
p1207
sba(igraph
Edge
p1208
(dp1209
g7
I1
sg8
I00
sg9
I5
sg10
(lp1210
g177
ag254
asg26
I00
sg27
I00
sg28
I322865
sg19
S'414.918933272'
p1211
sba(igraph
Edge
p1212
(dp1213
g7
I1
sg8
I00
sg9
I5
sg10
(lp1214
g180
ag264
asg26
I00
sg27
I00
sg28
I322866
sg19
S'414.923305057'
p1215
sba(igraph
Edge
p1216
(dp1217
g7
I1
sg8
I00
sg9
I5
sg10
(lp1218
g187
ag264
asg26
I00
sg27
I00
sg28
I322867
sg19
S'414.927689134'
p1219
sba(igraph
Edge
p1220
(dp1221
g7
I1
sg8
I00
sg9
I5
sg10
(lp1222
g194
ag278
asg26
I00
sg27
I00
sg28
I322868
sg19
S'414.932098633'
p1223
sba(igraph
Edge
p1224
(dp1225
g7
I1
sg8
I00
sg9
I5
sg10
(lp1226
g201
ag278
asg26
I00
sg27
I00
sg28
I322869
sg19
S'414.936521262'
p1227
sba(igraph
Edge
p1228
(dp1229
g7
I1
sg8
I00
sg9
I5
sg10
(lp1230
g208
ag292
asg26
I00
sg27
I00
sg28
I322870
sg19
S'414.9412741'
p1231
sba(igraph
Edge
p1232
(dp1233
g7
I1
sg8
I00
sg9
I5
sg10
(lp1234
g215
ag292
asg26
I00
sg27
I00
sg28
I322871
sg19
S'414.945879714'
p1235
sba(igraph
Edge
p1236
(dp1237
g7
I1
sg8
I00
sg9
I5
sg10
(lp1238
g222
ag306
asg26
I00
sg27
I00
sg28
I322872
sg19
S'414.950366876'
p1239
sba(igraph
Edge
p1240
(dp1241
g7
I1
sg8
I00
sg9
I5
sg10
(lp1242
g229
ag306
asg26
I00
sg27
I00
sg28
I322873
sg19
S'414.955027245'
p1243
sba(igraph
Edge
p1244
(dp1245
g7
I1
sg8
I00
sg9
I5
sg10
(lp1246
g236
ag320
asg26
I00
sg27
I00
sg28
I322874
sg19
S'414.959633976'
p1247
sba(igraph
Edge
p1248
(dp1249
g7
I1
sg8
I00
sg9
I5
sg10
(lp1250
g243
ag320
asg26
I00
sg27
I00
sg28
I322875
sg19
S'414.964191259'
p1251
sba(igraph
Edge
p1252
(dp1253
g7
I1
sg8
I00
sg9
I5
sg10
(lp1254
g177
ag257
asg26
I00
sg27
I00
sg28
I322876
sg19
S'414.968735971'
p1255
sba(igraph
Edge
p1256
(dp1257
g7
I1
sg8
I00
sg9
I5
sg10
(lp1258
g180
ag257
asg26
I00
sg27
I00
sg28
I322877
sg19
S'414.973372035'
p1259
sba(igraph
Edge
p1260
(dp1261
g7
I1
sg8
I00
sg9
I5
sg10
(lp1262
g187
ag271
asg26
I00
sg27
I00
sg28
I322878
sg19
S'414.978186613'
p1263
sba(igraph
Edge
p1264
(dp1265
g7
I1
sg8
I00
sg9
I5
sg10
(lp1266
g194
ag271
asg26
I00
sg27
I00
sg28
I322879
sg19
S'414.982846982'
p1267
sba(igraph
Edge
p1268
(dp1269
g7
I1
sg8
I00
sg9
I5
sg10
(lp1270
g201
ag285
asg26
I00
sg27
I00
sg28
I322880
sg19
S'414.987513497'
p1271
sba(igraph
Edge
p1272
(dp1273
g7
I1
sg8
I00
sg9
I5
sg10
(lp1274
g208
ag285
asg26
I00
sg27
I00
sg28
I322881
sg19
S'414.992177777'
p1275
sba(igraph
Edge
p1276
(dp1277
g7
I1
sg8
I00
sg9
I5
sg10
(lp1278
g215
ag299
asg26
I00
sg27
I00
sg28
I322882
sg19
S'414.996976152'
p1279
sba(igraph
Edge
p1280
(dp1281
g7
I1
sg8
I00
sg9
I5
sg10
(lp1282
g222
ag299
asg26
I00
sg27
I00
sg28
I322883
sg19
S'415.001686807'
p1283
sba(igraph
Edge
p1284
(dp1285
g7
I1
sg8
I00
sg9
I5
sg10
(lp1286
g229
ag313
asg26
I00
sg27
I00
sg28
I322884
sg19
S'415.006510045'
p1287
sba(igraph
Edge
p1288
(dp1289
g7
I1
sg8
I00
sg9
I5
sg10
(lp1290
g236
ag313
asg26
I00
sg27
I00
sg28
I322885
sg19
S'415.011284954'
p1291
sba(igraph
Edge
p1292
(dp1293
g7
I1
sg8
I00
sg9
I5
sg10
(lp1294
g243
ag254
asg26
I00
sg27
I00
sg28
I322886
sg19
S'415.016101767'
p1295
sba(igraph
Edge
p1296
(dp1297
g7
I1
sg8
I00
sg9
I5
sg10
(lp1298
g254
ag331
asg26
I00
sg27
I00
sg28
I322887
sg19
S'415.020935622'
p1299
sba(igraph
Edge
p1300
(dp1301
g7
I1
sg8
I00
sg9
I5
sg10
(lp1302
g257
ag341
asg26
I00
sg27
I00
sg28
I322888
sg19
S'415.02578093'
p1303
sba(igraph
Edge
p1304
(dp1305
g7
I1
sg8
I00
sg9
I5
sg10
(lp1306
g264
ag341
asg26
I00
sg27
I00
sg28
I322889
sg19
S'415.03070921'
p1307
sba(igraph
Edge
p1308
(dp1309
g7
I1
sg8
I00
sg9
I5
sg10
(lp1310
g271
ag355
asg26
I00
sg27
I00
sg28
I322890
sg19
S'415.035643357'
p1311
sba(igraph
Edge
p1312
(dp1313
g7
I1
sg8
I00
sg9
I5
sg10
(lp1314
g278
ag355
asg26
I00
sg27
I00
sg28
I322891
sg19
S'415.040531129'
p1315
sba(igraph
Edge
p1316
(dp1317
g7
I1
sg8
I00
sg9
I5
sg10
(lp1318
g285
ag369
asg26
I00
sg27
I00
sg28
I322892
sg19
S'415.045810571'
p1319
sba(igraph
Edge
p1320
(dp1321
g7
I1
sg8
I00
sg9
I5
sg10
(lp1322
g292
ag369
asg26
I00
sg27
I00
sg28
I322893
sg19
S'415.050747511'
p1323
sba(igraph
Edge
p1324
(dp1325
g7
I1
sg8
I00
sg9
I5
sg10
(lp1326
g299
ag383
asg26
I00
sg27
I00
sg28
I322894
sg19
S'415.055660426'
p1327
sba(igraph
Edge
p1328
(dp1329
g7
I1
sg8
I00
sg9
I5
sg10
(lp1330
g306
ag383
asg26
I00
sg27
I00
sg28
I322895
sg19
S'415.060705481'
p1331
sba(igraph
Edge
p1332
(dp1333
g7
I1
sg8
I00
sg9
I5
sg10
(lp1334
g313
ag397
asg26
I00
sg27
I00
sg28
I322896
sg19
S'415.065870104'
p1335
sba(igraph
Edge
p1336
(dp1337
g7
I1
sg8
I00
sg9
I5
sg10
(lp1338
g320
ag397
asg26
I00
sg27
I00
sg28
I322897
sg19
S'415.07228712'
p1339
sba(igraph
Edge
p1340
(dp1341
g7
I1
sg8
I00
sg9
I5
sg10
(lp1342
g254
ag334
asg26
I00
sg27
I00
sg28
I322898
sg19
S'415.077517673'
p1343
sba(igraph
Edge
p1344
(dp1345
g7
I1
sg8
I00
sg9
I5
sg10
(lp1346
g257
ag334
asg26
I00
sg27
I00
sg28
I322899
sg19
S'415.082810525'
p1347
sba(igraph
Edge
p1348
(dp1349
g7
I1
sg8
I00
sg9
I5
sg10
(lp1350
g264
ag348
asg26
I00
sg27
I00
sg28
I322900
sg19
S'415.088041078'
p1351
sba(igraph
Edge
p1352
(dp1353
g7
I1
sg8
I00
sg9
I5
sg10
(lp1354
g271
ag348
asg26
I00
sg27
I00
sg28
I322901
sg19
S'415.093131948'
p1355
sba(igraph
Edge
p1356
(dp1357
g7
I1
sg8
I00
sg9
I5
sg10
(lp1358
g278
ag362
asg26
I00
sg27
I00
sg28
I322902
sg19
S'415.098347974'
p1359
sba(igraph
Edge
p1360
(dp1361
g7
I1
sg8
I00
sg9
I5
sg10
(lp1362
g285
ag362
asg26
I00
sg27
I00
sg28
I322903
sg19
S'415.103725753'
p1363
sba(igraph
Edge
p1364
(dp1365
g7
I1
sg8
I00
sg9
I5
sg10
(lp1366
g292
ag376
asg26
I00
sg27
I00
sg28
I322904
sg19
S'415.108992065'
p1367
sba(igraph
Edge
p1368
(dp1369
g7
I1
sg8
I00
sg9
I5
sg10
(lp1370
g299
ag376
asg26
I00
sg27
I00
sg28
I322905
sg19
S'415.11415138'
p1371
sba(igraph
Edge
p1372
(dp1373
g7
I1
sg8
I00
sg9
I5
sg10
(lp1374
g306
ag390
asg26
I00
sg27
I00
sg28
I322906
sg19
S'415.119416574'
p1375
sba(igraph
Edge
p1376
(dp1377
g7
I1
sg8
I00
sg9
I5
sg10
(lp1378
g313
ag390
asg26
I00
sg27
I00
sg28
I322907
sg19
S'415.124722556'
p1379
sba(igraph
Edge
p1380
(dp1381
g7
I1
sg8
I00
sg9
I5
sg10
(lp1382
g320
ag331
asg26
I00
sg27
I00
sg28
I322908
sg19
S'415.130019597'
p1383
sba(igraph
Edge
p1384
(dp1385
g7
I1
sg8
I00
sg9
I5
sg10
(lp1386
g331
ag408
asg26
I00
sg27
I00
sg28
I322909
sg19
S'415.135541528'
p1387
sba(igraph
Edge
p1388
(dp1389
g7
I1
sg8
I00
sg9
I5
sg10
(lp1390
g334
ag418
asg26
I00
sg27
I00
sg28
I322910
sg19
S'415.140971269'
p1391
sba(igraph
Edge
p1392
(dp1393
g7
I1
sg8
I00
sg9
I5
sg10
(lp1394
g341
ag418
asg26
I00
sg27
I00
sg28
I322911
sg19
S'415.146385085'
p1395
sba(igraph
Edge
p1396
(dp1397
g7
I1
sg8
I00
sg9
I5
sg10
(lp1398
g348
ag432
asg26
I00
sg27
I00
sg28
I322912
sg19
S'415.151860362'
p1399
sba(igraph
Edge
p1400
(dp1401
g7
I1
sg8
I00
sg9
I5
sg10
(lp1402
g355
ag432
asg26
I00
sg27
I00
sg28
I322913
sg19
S'415.15722501'
p1403
sba(igraph
Edge
p1404
(dp1405
g7
I1
sg8
I00
sg9
I5
sg10
(lp1406
g362
ag446
asg26
I00
sg27
I00
sg28
I322914
sg19
S'415.162546078'
p1407
sba(igraph
Edge
p1408
(dp1409
g7
I1
sg8
I00
sg9
I5
sg10
(lp1410
g369
ag446
asg26
I00
sg27
I00
sg28
I322915
sg19
S'415.167948161'
p1411
sba(igraph
Edge
p1412
(dp1413
g7
I1
sg8
I00
sg9
I5
sg10
(lp1414
g376
ag460
asg26
I00
sg27
I00
sg28
I322916
sg19
S'415.17343992'
p1415
sba(igraph
Edge
p1416
(dp1417
g7
I1
sg8
I00
sg9
I5
sg10
(lp1418
g383
ag460
asg26
I00
sg27
I00
sg28
I322917
sg19
S'415.178927769'
p1419
sba(igraph
Edge
p1420
(dp1421
g7
I1
sg8
I00
sg9
I5
sg10
(lp1422
g390
ag474
asg26
I00
sg27
I00
sg28
I322918
sg19
S'415.1845905'
p1423
sba(igraph
Edge
p1424
(dp1425
g7
I1
sg8
I00
sg9
I5
sg10
(lp1426
g397
ag474
asg26
I00
sg27
I00
sg28
I322919
sg19
S'415.190214399'
p1427
sba(igraph
Edge
p1428
(dp1429
g7
I1
sg8
I00
sg9
I5
sg10
(lp1430
g331
ag411
asg26
I00
sg27
I00
sg28
I322920
sg19
S'415.19742146'
p1431
sba(igraph
Edge
p1432
(dp1433
g7
I1
sg8
I00
sg9
I5
sg10
(lp1434
g334
ag411
asg26
I00
sg27
I00
sg28
I322921
sg19
S'415.203141181'
p1435
sba(igraph
Edge
p1436
(dp1437
g7
I1
sg8
I00
sg9
I5
sg10
(lp1438
g341
ag425
asg26
I00
sg27
I00
sg28
I322922
sg19
S'415.208849728'
p1439
sba(igraph
Edge
p1440
(dp1441
g7
I1
sg8
I00
sg9
I5
sg10
(lp1442
g348
ag425
asg26
I00
sg27
I00
sg28
I322923
sg19
S'415.214499608'
p1443
sba(igraph
Edge
p1444
(dp1445
g7
I1
sg8
I00
sg9
I5
sg10
(lp1446
g355
ag439
asg26
I00
sg27
I00
sg28
I322924
sg19
S'415.220175749'
p1447
sba(igraph
Edge
p1448
(dp1449
g7
I1
sg8
I00
sg9
I5
sg10
(lp1450
g362
ag439
asg26
I00
sg27
I00
sg28
I322925
sg19
S'415.225849095'
p1451
sba(igraph
Edge
p1452
(dp1453
g7
I1
sg8
I00
sg9
I5
sg10
(lp1454
g369
ag453
asg26
I00
sg27
I00
sg28
I322926
sg19
S'415.231576918'
p1455
sba(igraph
Edge
p1456
(dp1457
g7
I1
sg8
I00
sg9
I5
sg10
(lp1458
g376
ag453
asg26
I00
sg27
I00
sg28
I322927
sg19
S'415.237257808'
p1459
sba(igraph
Edge
p1460
(dp1461
g7
I1
sg8
I00
sg9
I5
sg10
(lp1462
g383
ag467
asg26
I00
sg27
I00
sg28
I322928
sg19
S'415.242942888'
p1463
sba(igraph
Edge
p1464
(dp1465
g7
I1
sg8
I00
sg9
I5
sg10
(lp1466
g390
ag467
asg26
I00
sg27
I00
sg28
I322929
sg19
S'415.24870172'
p1467
sba(igraph
Edge
p1468
(dp1469
g7
I1
sg8
I00
sg9
I5
sg10
(lp1470
g397
ag408
asg26
I00
sg27
I00
sg28
I322930
sg19
S'415.254751093'
p1471
sba(igraph
Edge
p1472
(dp1473
g7
I1
sg8
I00
sg9
I5
sg10
(lp1474
g408
ag485
asg26
I00
sg27
I00
sg28
I322931
sg19
S'415.260624465'
p1475
sba(igraph
Edge
p1476
(dp1477
g7
I1
sg8
I00
sg9
I5
sg10
(lp1478
g411
ag495
asg26
I00
sg27
I00
sg28
I322932
sg19
S'415.266450904'
p1479
sba(igraph
Edge
p1480
(dp1481
g7
I1
sg8
I00
sg9
I5
sg10
(lp1482
g418
ag495
asg26
I00
sg27
I00
sg28
I322933
sg19
S'415.272332377'
p1483
sba(igraph
Edge
p1484
(dp1485
g7
I1
sg8
I00
sg9
I5
sg10
(lp1486
g425
ag509
asg26
I00
sg27
I00
sg28
I322934
sg19
S'415.278206588'
p1487
sba(igraph
Edge
p1488
(dp1489
g7
I1
sg8
I00
sg9
I5
sg10
(lp1490
g432
ag509
asg26
I00
sg27
I00
sg28
I322935
sg19
S'415.284203439'
p1491
sba(igraph
Edge
p1492
(dp1493
g7
I1
sg8
I00
sg9
I5
sg10
(lp1494
g439
ag523
asg26
I00
sg27
I00
sg28
I322936
sg19
S'415.290219288'
p1495
sba(igraph
Edge
p1496
(dp1497
g7
I1
sg8
I00
sg9
I5
sg10
(lp1498
g446
ag523
asg26
I00
sg27
I00
sg28
I322937
sg19
S'415.296197701'
p1499
sba(igraph
Edge
p1500
(dp1501
g7
I1
sg8
I00
sg9
I5
sg10
(lp1502
g453
ag537
asg26
I00
sg27
I00
sg28
I322938
sg19
S'415.302110743'
p1503
sba(igraph
Edge
p1504
(dp1505
g7
I1
sg8
I00
sg9
I5
sg10
(lp1506
g460
ag537
asg26
I00
sg27
I00
sg28
I322939
sg19
S'415.308090274'
p1507
sba(igraph
Edge
p1508
(dp1509
g7
I1
sg8
I00
sg9
I5
sg10
(lp1510
g467
ag551
asg26
I00
sg27
I00
sg28
I322940
sg19
S'415.314068408'
p1511
sba(igraph
Edge
p1512
(dp1513
g7
I1
sg8
I00
sg9
I5
sg10
(lp1514
g474
ag551
asg26
I00
sg27
I00
sg28
I322941
sg19
S'415.320085095'
p1515
sba(igraph
Edge
p1516
(dp1517
g7
I1
sg8
I00
sg9
I5
sg10
(lp1518
g408
ag488
asg26
I00
sg27
I00
sg28
I322942
sg19
S'415.326460207'
p1519
sba(igraph
Edge
p1520
(dp1521
g7
I1
sg8
I00
sg9
I5
sg10
(lp1522
g411
ag488
asg26
I00
sg27
I00
sg28
I322943
sg19
S'415.332602887'
p1523
sba(igraph
Edge
p1524
(dp1525
g7
I1
sg8
I00
sg9
I5
sg10
(lp1526
g418
ag502
asg26
I00
sg27
I00
sg28
I322944
sg19
S'415.338755624'
p1527
sba(igraph
Edge
p1528
(dp1529
g7
I1
sg8
I00
sg9
I5
sg10
(lp1530
g425
ag502
asg26
I00
sg27
I00
sg28
I322945
sg19
S'415.344902495'
p1531
sba(igraph
Edge
p1532
(dp1533
g7
I1
sg8
I00
sg9
I5
sg10
(lp1534
g432
ag516
asg26
I00
sg27
I00
sg28
I322946
sg19
S'415.351155803'
p1535
sba(igraph
Edge
p1536
(dp1537
g7
I1
sg8
I00
sg9
I5
sg10
(lp1538
g439
ag516
asg26
I00
sg27
I00
sg28
I322947
sg19
S'415.35729569'
p1539
sba(igraph
Edge
p1540
(dp1541
g7
I1
sg8
I00
sg9
I5
sg10
(lp1542
g446
ag530
asg26
I00
sg27
I00
sg28
I322948
sg19
S'415.363557379'
p1543
sba(igraph
Edge
p1544
(dp1545
g7
I1
sg8
I00
sg9
I5
sg10
(lp1546
g453
ag530
asg26
I00
sg27
I00
sg28
I322949
sg19
S'415.369767666'
p1547
sba(igraph
Edge
p1548
(dp1549
g7
I1
sg8
I00
sg9
I5
sg10
(lp1550
g460
ag544
asg26
I00
sg27
I00
sg28
I322950
sg19
S'415.376010638'
p1551
sba(igraph
Edge
p1552
(dp1553
g7
I1
sg8
I00
sg9
I5
sg10
(lp1554
g467
ag544
asg26
I00
sg27
I00
sg28
I322951
sg19
S'415.382339376'
p1555
sba(igraph
Edge
p1556
(dp1557
g7
I1
sg8
I00
sg9
I5
sg10
(lp1558
g474
ag485
asg26
I00
sg27
I00
sg28
I322952
sg19
S'415.388689624'
p1559
sba(igraph
Edge
p1560
(dp1561
g7
I1
sg8
I00
sg9
I5
sg10
(lp1562
g485
ag562
asg26
I00
sg27
I00
sg28
I322953
sg19
S'415.395106082'
p1563
sba(igraph
Edge
p1564
(dp1565
g7
I1
sg8
I00
sg9
I5
sg10
(lp1566
g488
ag572
asg26
I00
sg27
I00
sg28
I322954
sg19
S'415.401589867'
p1567
sba(igraph
Edge
p1568
(dp1569
g7
I1
sg8
I00
sg9
I5
sg10
(lp1570
g495
ag572
asg26
I00
sg27
I00
sg28
I322955
sg19
S'415.407859658'
p1571
sba(igraph
Edge
p1572
(dp1573
g7
I1
sg8
I00
sg9
I5
sg10
(lp1574
g502
ag586
asg26
I00
sg27
I00
sg28
I322956
sg19
S'415.414232815'
p1575
sba(igraph
Edge
p1576
(dp1577
g7
I1
sg8
I00
sg9
I5
sg10
(lp1578
g509
ag586
asg26
I00
sg27
I00
sg28
I322957
sg19
S'415.420656815'
p1579
sba(igraph
Edge
p1580
(dp1581
g7
I1
sg8
I00
sg9
I5
sg10
(lp1582
g516
ag600
asg26
I00
sg27
I00
sg28
I322958
sg19
S'415.427072715'
p1583
sba(igraph
Edge
p1584
(dp1585
g7
I1
sg8
I00
sg9
I5
sg10
(lp1586
g523
ag600
asg26
I00
sg27
I00
sg28
I322959
sg19
S'415.433544487'
p1587
sba(igraph
Edge
p1588
(dp1589
g7
I1
sg8
I00
sg9
I5
sg10
(lp1590
g530
ag614
asg26
I00
sg27
I00
sg28
I322960
sg19
S'415.439903954'
p1591
sba(igraph
Edge
p1592
(dp1593
g7
I1
sg8
I00
sg9
I5
sg10
(lp1594
g537
ag614
asg26
I00
sg27
I00
sg28
I322961
sg19
S'415.446318457'
p1595
sba(igraph
Edge
p1596
(dp1597
g7
I1
sg8
I00
sg9
I5
sg10
(lp1598
g544
ag628
asg26
I00
sg27
I00
sg28
I322962
sg19
S'415.452962597'
p1599
sba(igraph
Edge
p1600
(dp1601
g7
I1
sg8
I00
sg9
I5
sg10
(lp1602
g551
ag628
asg26
I00
sg27
I00
sg28
I322963
sg19
S'415.459603106'
p1603
sba(igraph
Edge
p1604
(dp1605
g7
I1
sg8
I00
sg9
I5
sg10
(lp1606
g485
ag565
asg26
I00
sg27
I00
sg28
I322964
sg19
S'415.466376313'
p1607
sba(igraph
Edge
p1608
(dp1609
g7
I1
sg8
I00
sg9
I5
sg10
(lp1610
g488
ag565
asg26
I00
sg27
I00
sg28
I322965
sg19
S'415.472894181'
p1611
sba(igraph
Edge
p1612
(dp1613
g7
I1
sg8
I00
sg9
I5
sg10
(lp1614
g495
ag579
asg26
I00
sg27
I00
sg28
I322966
sg19
S'415.479748404'
p1615
sba(igraph
Edge
p1616
(dp1617
g7
I1
sg8
I00
sg9
I5
sg10
(lp1618
g502
ag579
asg26
I00
sg27
I00
sg28
I322967
sg19
S'415.486342538'
p1619
sba(igraph
Edge
p1620
(dp1621
g7
I1
sg8
I00
sg9
I5
sg10
(lp1622
g509
ag593
asg26
I00
sg27
I00
sg28
I322968
sg19
S'415.49296824'
p1623
sba(igraph
Edge
p1624
(dp1625
g7
I1
sg8
I00
sg9
I5
sg10
(lp1626
g516
ag593
asg26
I00
sg27
I00
sg28
I322969
sg19
S'415.499672444'
p1627
sba(igraph
Edge
p1628
(dp1629
g7
I1
sg8
I00
sg9
I5
sg10
(lp1630
g523
ag607
asg26
I00
sg27
I00
sg28
I322970
sg19
S'415.50674541'
p1631
sba(igraph
Edge
p1632
(dp1633
g7
I1
sg8
I00
sg9
I5
sg10
(lp1634
g530
ag607
asg26
I00
sg27
I00
sg28
I322971
sg19
S'415.513503253'
p1635
sba(igraph
Edge
p1636
(dp1637
g7
I1
sg8
I00
sg9
I5
sg10
(lp1638
g537
ag621
asg26
I00
sg27
I00
sg28
I322972
sg19
S'415.520367253'
p1639
sba(igraph
Edge
p1640
(dp1641
g7
I1
sg8
I00
sg9
I5
sg10
(lp1642
g544
ag621
asg26
I00
sg27
I00
sg28
I322973
sg19
S'415.527086822'
p1643
sba(igraph
Edge
p1644
(dp1645
g7
I1
sg8
I00
sg9
I5
sg10
(lp1646
g551
ag562
asg26
I00
sg27
I00
sg28
I322974
sg19
S'415.533852207'
p1647
sba(igraph
Edge
p1648
(dp1649
g7
I1
sg8
I00
sg9
I5
sg10
(lp1650
g562
ag639
asg26
I00
sg27
I00
sg28
I322975
sg19
S'415.54068464'
p1651
sba(igraph
Edge
p1652
(dp1653
g7
I1
sg8
I00
sg9
I5
sg10
(lp1654
g565
ag649
asg26
I00
sg27
I00
sg28
I322976
sg19
S'415.547435219'
p1655
sba(igraph
Edge
p1656
(dp1657
g7
I1
sg8
I00
sg9
I5
sg10
(lp1658
g572
ag649
asg26
I00
sg27
I00
sg28
I322977
sg19
S'415.554157023'
p1659
sba(igraph
Edge
p1660
(dp1661
g7
I1
sg8
I00
sg9
I5
sg10
(lp1662
g579
ag663
asg26
I00
sg27
I00
sg28
I322978
sg19
S'415.560967944'
p1663
sba(igraph
Edge
p1664
(dp1665
g7
I1
sg8
I00
sg9
I5
sg10
(lp1666
g586
ag663
asg26
I00
sg27
I00
sg28
I322979
sg19
S'415.567824123'
p1667
sba(igraph
Edge
p1668
(dp1669
g7
I1
sg8
I00
sg9
I5
sg10
(lp1670
g593
ag677
asg26
I00
sg27
I00
sg28
I322980
sg19
S'415.574766067'
p1671
sba(igraph
Edge
p1672
(dp1673
g7
I1
sg8
I00
sg9
I5
sg10
(lp1674
g600
ag677
asg26
I00
sg27
I00
sg28
I322981
sg19
S'415.581606601'
p1675
sba(igraph
Edge
p1676
(dp1677
g7
I1
sg8
I00
sg9
I5
sg10
(lp1678
g607
ag691
asg26
I00
sg27
I00
sg28
I322982
sg19
S'415.588592964'
p1679
sba(igraph
Edge
p1680
(dp1681
g7
I1
sg8
I00
sg9
I5
sg10
(lp1682
g614
ag691
asg26
I00
sg27
I00
sg28
I322983
sg19
S'415.595522895'
p1683
sba(igraph
Edge
p1684
(dp1685
g7
I1
sg8
I00
sg9
I5
sg10
(lp1686
g621
ag705
asg26
I00
sg27
I00
sg28
I322984
sg19
S'415.602534121'
p1687
sba(igraph
Edge
p1688
(dp1689
g7
I1
sg8
I00
sg9
I5
sg10
(lp1690
g628
ag705
asg26
I00
sg27
I00
sg28
I322985
sg19
S'415.609569093'
p1691
sba(igraph
Edge
p1692
(dp1693
g7
I1
sg8
I00
sg9
I5
sg10
(lp1694
g562
ag642
asg26
I00
sg27
I00
sg28
I322986
sg19
S'415.616669437'
p1695
sba(igraph
Edge
p1696
(dp1697
g7
I1
sg8
I00
sg9
I5
sg10
(lp1698
g565
ag642
asg26
I00
sg27
I00
sg28
I322987
sg19
S'415.623882086'
p1699
sba(igraph
Edge
p1700
(dp1701
g7
I1
sg8
I00
sg9
I5
sg10
(lp1702
g572
ag656
asg26
I00
sg27
I00
sg28
I322988
sg19
S'415.630948067'
p1703
sba(igraph
Edge
p1704
(dp1705
g7
I1
sg8
I00
sg9
I5
sg10
(lp1706
g579
ag656
asg26
I00
sg27
I00
sg28
I322989
sg19
S'415.638041148'
p1707
sba(igraph
Edge
p1708
(dp1709
g7
I1
sg8
I00
sg9
I5
sg10
(lp1710
g586
ag670
asg26
I00
sg27
I00
sg28
I322990
sg19
S'415.64535325'
p1711
sba(igraph
Edge
p1712
(dp1713
g7
I1
sg8
I00
sg9
I5
sg10
(lp1714
g593
ag670
asg26
I00
sg27
I00
sg28
I322991
sg19
S'415.652472591'
p1715
sba(igraph
Edge
p1716
(dp1717
g7
I1
sg8
I00
sg9
I5
sg10
(lp1718
g600
ag684
asg26
I00
sg27
I00
sg28
I322992
sg19
S'415.659555055'
p1719
sba(igraph
Edge
p1720
(dp1721
g7
I1
sg8
I00
sg9
I5
sg10
(lp1722
g607
ag684
asg26
I00
sg27
I00
sg28
I322993
sg19
S'415.666806815'
p1723
sba(igraph
Edge
p1724
(dp1725
g7
I1
sg8
I00
sg9
I5
sg10
(lp1726
g614
ag698
asg26
I00
sg27
I00
sg28
I322994
sg19
S'415.67405187'
p1727
sba(igraph
Edge
p1728
(dp1729
g7
I1
sg8
I00
sg9
I5
sg10
(lp1730
g621
ag698
asg26
I00
sg27
I00
sg28
I322995
sg19
S'415.681351121'
p1731
sba(igraph
Edge
p1732
(dp1733
g7
I1
sg8
I00
sg9
I5
sg10
(lp1734
g628
ag639
asg26
I00
sg27
I00
sg28
I322996
sg19
S'415.688614894'
p1735
sba(igraph
Edge
p1736
(dp1737
g7
I1
sg8
I00
sg9
I5
sg10
(lp1738
g639
ag716
asg26
I00
sg27
I00
sg28
I322997
sg19
S'415.695872799'
p1739
sba(igraph
Edge
p1740
(dp1741
g7
I1
sg8
I00
sg9
I5
sg10
(lp1742
g642
ag726
asg26
I00
sg27
I00
sg28
I322998
sg19
S'415.70686889'
p1743
sba(igraph
Edge
p1744
(dp1745
g7
I1
sg8
I00
sg9
I5
sg10
(lp1746
g649
ag726
asg26
I00
sg27
I00
sg28
I322999
sg19
S'415.715871431'
p1747
sba(igraph
Edge
p1748
(dp1749
g7
I1
sg8
I00
sg9
I5
sg10
(lp1750
g656
ag740
asg26
I00
sg27
I00
sg28
I323000
sg19
S'415.723931114'
p1751
sba(igraph
Edge
p1752
(dp1753
g7
I1
sg8
I00
sg9
I5
sg10
(lp1754
g663
ag740
asg26
I00
sg27
I00
sg28
I323001
sg19
S'415.733284538'
p1755
sba(igraph
Edge
p1756
(dp1757
g7
I1
sg8
I00
sg9
I5
sg10
(lp1758
g670
ag754
asg26
I00
sg27
I00
sg28
I323002
sg19
S'415.742148513'
p1759
sba(igraph
Edge
p1760
(dp1761
g7
I1
sg8
I00
sg9
I5
sg10
(lp1762
g677
ag754
asg26
I00
sg27
I00
sg28
I323003
sg19
S'415.757293734'
p1763
sba(igraph
Edge
p1764
(dp1765
g7
I1
sg8
I00
sg9
I5
sg10
(lp1766
g684
ag768
asg26
I00
sg27
I00
sg28
I323004
sg19
S'415.766290967'
p1767
sba(igraph
Edge
p1768
(dp1769
g7
I1
sg8
I00
sg9
I5
sg10
(lp1770
g691
ag768
asg26
I00
sg27
I00
sg28
I323005
sg19
S'415.775477051'
p1771
sba(igraph
Edge
p1772
(dp1773
g7
I1
sg8
I00
sg9
I5
sg10
(lp1774
g698
ag782
asg26
I00
sg27
I00
sg28
I323006
sg19
S'415.784293535'
p1775
sba(igraph
Edge
p1776
(dp1777
g7
I1
sg8
I00
sg9
I5
sg10
(lp1778
g705
ag782
asg26
I00
sg27
I00
sg28
I323007
sg19
S'415.793004139'
p1779
sba(igraph
Edge
p1780
(dp1781
g7
I1
sg8
I00
sg9
I5
sg10
(lp1782
g639
ag719
asg26
I00
sg27
I00
sg28
I323008
sg19
S'415.801857499'
p1783
sba(igraph
Edge
p1784
(dp1785
g7
I1
sg8
I00
sg9
I5
sg10
(lp1786
g642
ag719
asg26
I00
sg27
I00
sg28
I323009
sg19
S'415.809645639'
p1787
sba(igraph
Edge
p1788
(dp1789
g7
I1
sg8
I00
sg9
I5
sg10
(lp1790
g649
ag733
asg26
I00
sg27
I00
sg28
I323010
sg19
S'415.817172853'
p1791
sba(igraph
Edge
p1792
(dp1793
g7
I1
sg8
I00
sg9
I5
sg10
(lp1794
g656
ag733
asg26
I00
sg27
I00
sg28
I323011
sg19
S'415.824698111'
p1795
sba(igraph
Edge
p1796
(dp1797
g7
I1
sg8
I00
sg9
I5
sg10
(lp1798
g663
ag747
asg26
I00
sg27
I00
sg28
I323012
sg19
S'415.832153807'
p1799
sba(igraph
Edge
p1800
(dp1801
g7
I1
sg8
I00
sg9
I5
sg10
(lp1802
g670
ag747
asg26
I00
sg27
I00
sg28
I323013
sg19
S'415.839809529'
p1803
sba(igraph
Edge
p1804
(dp1805
g7
I1
sg8
I00
sg9
I5
sg10
(lp1806
g677
ag761
asg26
I00
sg27
I00
sg28
I323014
sg19
S'415.847351549'
p1807
sba(igraph
Edge
p1808
(dp1809
g7
I1
sg8
I00
sg9
I5
sg10
(lp1810
g684
ag761
asg26
I00
sg27
I00
sg28
I323015
sg19
S'415.854965366'
p1811
sba(igraph
Edge
p1812
(dp1813
g7
I1
sg8
I00
sg9
I5
sg10
(lp1814
g691
ag775
asg26
I00
sg27
I00
sg28
I323016
sg19
S'415.862685621'
p1815
sba(igraph
Edge
p1816
(dp1817
g7
I1
sg8
I00
sg9
I5
sg10
(lp1818
g698
ag775
asg26
I00
sg27
I00
sg28
I323017
sg19
S'415.870377101'
p1819
sba(igraph
Edge
p1820
(dp1821
g7
I1
sg8
I00
sg9
I5
sg10
(lp1822
g705
ag716
asg26
I00
sg27
I00
sg28
I323018
sg19
S'415.878112442'
p1823
sba(igraph
Edge
p1824
(dp1825
g7
I1
sg8
I00
sg9
I5
sg10
(lp1826
g716
ag793
asg26
I00
sg27
I00
sg28
I323019
sg19
S'415.88592796'
p1827
sba(igraph
Edge
p1828
(dp1829
g7
I1
sg8
I00
sg9
I5
sg10
(lp1830
g719
ag803
asg26
I00
sg27
I00
sg28
I323020
sg19
S'415.893697104'
p1831
sba(igraph
Edge
p1832
(dp1833
g7
I1
sg8
I00
sg9
I5
sg10
(lp1834
g726
ag803
asg26
I00
sg27
I00
sg28
I323021
sg19
S'415.901496419'
p1835
sba(igraph
Edge
p1836
(dp1837
g7
I1
sg8
I00
sg9
I5
sg10
(lp1838
g733
ag817
asg26
I00
sg27
I00
sg28
I323022
sg19
S'415.909337639'
p1839
sba(igraph
Edge
p1840
(dp1841
g7
I1
sg8
I00
sg9
I5
sg10
(lp1842
g740
ag817
asg26
I00
sg27
I00
sg28
I323023
sg19
S'415.917100637'
p1843
sba(igraph
Edge
p1844
(dp1845
g7
I1
sg8
I00
sg9
I5
sg10
(lp1846
g747
ag831
asg26
I00
sg27
I00
sg28
I323024
sg19
S'415.924913641'
p1847
sba(igraph
Edge
p1848
(dp1849
g7
I1
sg8
I00
sg9
I5
sg10
(lp1850
g754
ag831
asg26
I00
sg27
I00
sg28
I323025
sg19
S'415.932732233'
p1851
sba(igraph
Edge
p1852
(dp1853
g7
I1
sg8
I00
sg9
I5
sg10
(lp1854
g761
ag845
asg26
I00
sg27
I00
sg28
I323026
sg19
S'415.940576526'
p1855
sba(igraph
Edge
p1856
(dp1857
g7
I1
sg8
I00
sg9
I5
sg10
(lp1858
g768
ag845
asg26
I00
sg27
I00
sg28
I323027
sg19
S'415.948896857'
p1859
sba(igraph
Edge
p1860
(dp1861
g7
I1
sg8
I00
sg9
I5
sg10
(lp1862
g775
ag859
asg26
I00
sg27
I00
sg28
I323028
sg19
S'415.956995652'
p1863
sba(igraph
Edge
p1864
(dp1865
g7
I1
sg8
I00
sg9
I5
sg10
(lp1866
g782
ag859
asg26
I00
sg27
I00
sg28
I323029
sg19
S'415.965182726'
p1867
sba(igraph
Edge
p1868
(dp1869
g7
I1
sg8
I00
sg9
I5
sg10
(lp1870
g716
ag796
asg26
I00
sg27
I00
sg28
I323030
sg19
S'415.973147705'
p1871
sba(igraph
Edge
p1872
(dp1873
g7
I1
sg8
I00
sg9
I5
sg10
(lp1874
g719
ag796
asg26
I00
sg27
I00
sg28
I323031
sg19
S'415.981005407'
p1875
sba(igraph
Edge
p1876
(dp1877
g7
I1
sg8
I00
sg9
I5
sg10
(lp1878
g726
ag810
asg26
I00
sg27
I00
sg28
I323032
sg19
S'415.988891046'
p1879
sba(igraph
Edge
p1880
(dp1881
g7
I1
sg8
I00
sg9
I5
sg10
(lp1882
g733
ag810
asg26
I00
sg27
I00
sg28
I323033
sg19
S'415.996958831'
p1883
sba(igraph
Edge
p1884
(dp1885
g7
I1
sg8
I00
sg9
I5
sg10
(lp1886
g740
ag824
asg26
I00
sg27
I00
sg28
I323034
sg19
S'416.005081093'
p1887
sba(igraph
Edge
p1888
(dp1889
g7
I1
sg8
I00
sg9
I5
sg10
(lp1890
g747
ag824
asg26
I00
sg27
I00
sg28
I323035
sg19
S'416.013114516'
p1891
sba(igraph
Edge
p1892
(dp1893
g7
I1
sg8
I00
sg9
I5
sg10
(lp1894
g754
ag838
asg26
I00
sg27
I00
sg28
I323036
sg19
S'416.021395736'
p1895
sba(igraph
Edge
p1896
(dp1897
g7
I1
sg8
I00
sg9
I5
sg10
(lp1898
g761
ag838
asg26
I00
sg27
I00
sg28
I323037
sg19
S'416.029637566'
p1899
sba(igraph
Edge
p1900
(dp1901
g7
I1
sg8
I00
sg9
I5
sg10
(lp1902
g768
ag852
asg26
I00
sg27
I00
sg28
I323038
sg19
S'416.0377805'
p1903
sba(igraph
Edge
p1904
(dp1905
g7
I1
sg8
I00
sg9
I5
sg10
(lp1906
g775
ag852
asg26
I00
sg27
I00
sg28
I323039
sg19
S'416.046024844'
p1907
sba(igraph
Edge
p1908
(dp1909
g7
I1
sg8
I00
sg9
I5
sg10
(lp1910
g782
ag793
asg26
I00
sg27
I00
sg28
I323040
sg19
S'416.054208007'
p1911
sba(igraph
Edge
p1912
(dp1913
g7
I1
sg8
I00
sg9
I5
sg10
(lp1914
g793
ag870
asg26
I00
sg27
I00
sg28
I323041
sg19
S'416.062481125'
p1915
sba(igraph
Edge
p1916
(dp1917
g7
I1
sg8
I00
sg9
I5
sg10
(lp1918
g796
ag880
asg26
I00
sg27
I00
sg28
I323042
sg19
S'416.070697253'
p1919
sba(igraph
Edge
p1920
(dp1921
g7
I1
sg8
I00
sg9
I5
sg10
(lp1922
g803
ag880
asg26
I00
sg27
I00
sg28
I323043
sg19
S'416.078984061'
p1923
sba(igraph
Edge
p1924
(dp1925
g7
I1
sg8
I00
sg9
I5
sg10
(lp1926
g810
ag894
asg26
I00
sg27
I00
sg28
I323044
sg19
S'416.08716024'
p1927
sba(igraph
Edge
p1928
(dp1929
g7
I1
sg8
I00
sg9
I5
sg10
(lp1930
g817
ag894
asg26
I00
sg27
I00
sg28
I323045
sg19
S'416.095561028'
p1931
sba(igraph
Edge
p1932
(dp1933
g7
I1
sg8
I00
sg9
I5
sg10
(lp1934
g824
ag908
asg26
I00
sg27
I00
sg28
I323046
sg19
S'416.103968801'
p1935
sba(igraph
Edge
p1936
(dp1937
g7
I1
sg8
I00
sg9
I5
sg10
(lp1938
g831
ag908
asg26
I00
sg27
I00
sg28
I323047
sg19
S'416.112310922'
p1939
sba(igraph
Edge
p1940
(dp1941
g7
I1
sg8
I00
sg9
I5
sg10
(lp1942
g838
ag922
asg26
I00
sg27
I00
sg28
I323048
sg19
S'416.120705285'
p1943
sba(igraph
Edge
p1944
(dp1945
g7
I1
sg8
I00
sg9
I5
sg10
(lp1946
g845
ag922
asg26
I00
sg27
I00
sg28
I323049
sg19
S'416.129029248'
p1947
sba(igraph
Edge
p1948
(dp1949
g7
I1
sg8
I00
sg9
I5
sg10
(lp1950
g852
ag936
asg26
I00
sg27
I00
sg28
I323050
sg19
S'416.137619725'
p1951
sba(igraph
Edge
p1952
(dp1953
g7
I1
sg8
I00
sg9
I5
sg10
(lp1954
g859
ag936
asg26
I00
sg27
I00
sg28
I323051
sg19
S'416.146106558'
p1955
sba(igraph
Edge
p1956
(dp1957
g7
I1
sg8
I00
sg9
I5
sg10
(lp1958
g793
ag873
asg26
I00
sg27
I00
sg28
I323052
sg19
S'416.15462887'
p1959
sba(igraph
Edge
p1960
(dp1961
g7
I1
sg8
I00
sg9
I5
sg10
(lp1962
g796
ag873
asg26
I00
sg27
I00
sg28
I323053
sg19
S'416.163368808'
p1963
sba(igraph
Edge
p1964
(dp1965
g7
I1
sg8
I00
sg9
I5
sg10
(lp1966
g803
ag887
asg26
I00
sg27
I00
sg28
I323054
sg19
S'416.171903692'
p1967
sba(igraph
Edge
p1968
(dp1969
g7
I1
sg8
I00
sg9
I5
sg10
(lp1970
g810
ag887
asg26
I00
sg27
I00
sg28
I323055
sg19
S'416.180304201'
p1971
sba(igraph
Edge
p1972
(dp1973
g7
I1
sg8
I00
sg9
I5
sg10
(lp1974
g817
ag901
asg26
I00
sg27
I00
sg28
I323056
sg19
S'416.188902221'
p1975
sba(igraph
Edge
p1976
(dp1977
g7
I1
sg8
I00
sg9
I5
sg10
(lp1978
g824
ag901
asg26
I00
sg27
I00
sg28
I323057
sg19
S'416.198837841'
p1979
sba(igraph
Edge
p1980
(dp1981
g7
I1
sg8
I00
sg9
I5
sg10
(lp1982
g831
ag915
asg26
I00
sg27
I00
sg28
I323058
sg19
S'416.207730312'
p1983
sba(igraph
Edge
p1984
(dp1985
g7
I1
sg8
I00
sg9
I5
sg10
(lp1986
g838
ag915
asg26
I00
sg27
I00
sg28
I323059
sg19
S'416.21634705'
p1987
sba(igraph
Edge
p1988
(dp1989
g7
I1
sg8
I00
sg9
I5
sg10
(lp1990
g845
ag929
asg26
I00
sg27
I00
sg28
I323060
sg19
S'416.225015749'
p1991
sba(igraph
Edge
p1992
(dp1993
g7
I1
sg8
I00
sg9
I5
sg10
(lp1994
g852
ag929
asg26
I00
sg27
I00
sg28
I323061
sg19
S'416.2340317'
p1995
sba(igraph
Edge
p1996
(dp1997
g7
I1
sg8
I00
sg9
I5
sg10
(lp1998
g859
ag870
asg26
I00
sg27
I00
sg28
I323062
sg19
S'416.242659053'
p1999
sbasS'vertices'
p2000
(lp2001
g12
ag22
ag33
ag40
ag47
ag54
ag61
ag68
ag75
ag82
ag89
ag100
ag103
ag110
ag117
ag124
ag131
ag138
ag145
ag152
ag159
ag166
ag177
ag180
ag187
ag194
ag201
ag208
ag215
ag222
ag229
ag236
ag243
ag254
ag257
ag264
ag271
ag278
ag285
ag292
ag299
ag306
ag313
ag320
ag331
ag334
ag341
ag348
ag355
ag362
ag369
ag376
ag383
ag390
ag397
ag408
ag411
ag418
ag425
ag432
ag439
ag446
ag453
ag460
ag467
ag474
ag485
ag488
ag495
ag502
ag509
ag516
ag523
ag530
ag537
ag544
ag551
ag562
ag565
ag572
ag579
ag586
ag593
ag600
ag607
ag614
ag621
ag628
ag639
ag642
ag649
ag656
ag663
ag670
ag677
ag684
ag691
ag698
ag705
ag716
ag719
ag726
ag733
ag740
ag747
ag754
ag761
ag768
ag775
ag782
ag793
ag796
ag803
ag810
ag817
ag824
ag831
ag838
ag845
ag852
ag859
ag870
ag873
ag880
ag887
ag894
ag901
ag908
ag915
ag922
ag929
ag936
asS'tags'
p2002
(lp2003
sb.