(igraph
Graph
p0
(dp1
S'labelingConstraints'
p2
I-1
sS'edges'
p3
(lp4
(igraph
Edge
p5
(dp6
S'direction'
p7
I1
sS'selected'
p8
I00
sS'height'
p9
I5
sS'vs'
p10
(lp11
(igraph
Vertex
p12
(dp13
S'xnorm'
p14
F0.35695195043653166
sg8
I00
sS'label'
p15
S'NULL'
p16
sS'y'
p17
F106.11672139468601
sS'x'
p18
F-100.98925029792011
sS'circle'
p19
I16743636
sS'id'
p20
S'104678.036184'
p21
sS'ynorm'
p22
F0.6749273392897075
sba(igraph
Vertex
p23
(dp24
g14
F0.41894350378695583
sg8
I00
sg15
g16
sg17
F106.11672139468601
sg18
F-58.091095379426577
sg19
I16743637
sg20
S'104678.036949'
p25
sg22
F0.6749273392897075
sbasS'wrap'
p26
I00
sS'curved'
p27
I00
sS'line'
p28
I16743492
sg20
S'104678.756111'
p29
sba(igraph
Edge
p30
(dp31
g7
I1
sg8
I00
sg9
I5
sg10
(lp32
(igraph
Vertex
p33
(dp34
g14
F0.48584113712646271
sg8
I00
sg15
g16
sg17
F106.07226702716372
sg18
F-11.797933108487825
sg19
I16743638
sg20
S'104678.037718'
p35
sg22
F0.67483027735188583
sba(igraph
Vertex
p36
(dp37
g14
F0.54783269047688676
sg8
I00
sg15
g16
sg17
F106.07226702716372
sg18
F31.100221810005678
sg19
I16743639
sg20
S'104678.038523'
p38
sg22
F0.67483027735188583
sbasg26
I00
sg27
I00
sg28
I16743493
sg20
S'104678.761192'
p39
sba(igraph
Edge
p40
(dp41
g7
I1
sg8
I00
sg9
I5
sg10
(lp42
g36
a(igraph
Vertex
p43
(dp44
g14
F0.60982424382731104
sg8
I00
sg15
I0
sg17
F106.07226702716372
sg18
F73.998376728499238
sg19
I16743640
sg20
S'104678.039347'
p45
sg22
F0.67483027735188583
sbasg26
I00
sg27
I00
sg28
I16743494
sg20
S'104678.76629'
p46
sba(igraph
Edge
p47
(dp48
g7
I1
sg8
I00
sg9
I5
sg10
(lp49
g23
ag33
asg26
I00
sg27
I00
sg28
I16743495
sg20
S'104678.77137'
p50
sba(igraph
Edge
p51
(dp52
g7
I1
sg8
I00
sg9
I5
sg10
(lp53
(igraph
Vertex
p54
(dp55
g14
F0.67477530960109433
sg8
I00
sg15
g16
sg17
F105.95420850062112
sg18
F118.94451424395731
sg19
I16743642
sg20
S'104678.040169'
p56
sg22
F0.67457250764327759
sba(igraph
Vertex
p57
(dp58
g14
F0.73676686295151861
sg8
I00
sg15
g16
sg17
F105.95420850062112
sg18
F161.84266916245087
sg19
I16743643
sg20
S'104678.040999'
p59
sg22
F0.67457250764327759
sbasg26
I00
sg27
I00
sg28
I16743496
sg20
S'104678.776886'
p60
sba(igraph
Edge
p61
(dp62
g7
I1
sg8
I00
sg9
I5
sg10
(lp63
g57
a(igraph
Vertex
p64
(dp65
g14
F0.79875841630194266
sg8
I00
sg15
g16
sg17
F105.95420850062112
sg18
F204.74082408094432
sg19
I16743644
sg20
S'104678.041861'
p66
sg22
F0.67457250764327759
sbasg26
I00
sg27
I00
sg28
I16743497
sg20
S'104678.78297'
p67
sba(igraph
Edge
p68
(dp69
g7
I1
sg8
I00
sg9
I5
sg10
(lp70
g64
a(igraph
Vertex
p71
(dp72
g14
F0.86565604964144971
sg8
I00
sg15
g16
sg17
F105.90975413309889
sg18
F251.03398635188319
sg19
I16743645
sg20
S'104678.042719'
p73
sg22
F0.67447544570545603
sbasg26
I00
sg27
I00
sg28
I16743498
sg20
S'104678.78869'
p74
sba(igraph
Edge
p75
(dp76
g7
I1
sg8
I00
sg9
I5
sg10
(lp77
g43
ag54
asg26
I00
sg27
I00
sg28
I16743499
sg20
S'104678.793894'
p78
sba(igraph
Edge
p79
(dp80
g7
I1
sg8
I00
sg9
I5
sg10
(lp81
(igraph
Vertex
p82
(dp83
g14
F0.35117160361572236
sg8
I00
sg15
g16
sg17
F138.58664695299871
sg18
F-104.98925029792011
sg19
I16743646
sg20
S'104678.043593'
p84
sg22
F0.74582237325982248
sba(igraph
Vertex
p85
(dp86
g14
F0.41316315696614647
sg8
I00
sg15
g16
sg17
F138.58664695299871
sg18
F-62.091095379426633
sg19
I16743647
sg20
S'104678.044477'
p87
sg22
F0.74582237325982248
sbasg26
I00
sg27
I00
sg28
I16743500
sg20
S'104678.919682'
p88
sba(igraph
Edge
p89
(dp90
g7
I1
sg8
I00
sg9
I5
sg10
(lp91
(igraph
Vertex
p92
(dp93
g14
F0.48006079030565335
sg8
I00
sg15
I0
sg17
F138.54219258547641
sg18
F-15.797933108487882
sg19
I16743648
sg20
S'104678.045362'
p94
sg22
F0.74572531132200093
sba(igraph
Vertex
p95
(dp96
g14
F0.54205234365607757
sg8
I00
sg15
g16
sg17
F138.54219258547641
sg18
F27.100221810005678
sg19
I16743650
sg20
S'104678.046269'
p97
sg22
F0.74572531132200093
sbasg26
I00
sg27
I00
sg28
I16743501
sg20
S'104678.934627'
p98
sba(igraph
Edge
p99
(dp100
g7
I1
sg8
I00
sg9
I5
sg10
(lp101
g95
a(igraph
Vertex
p102
(dp103
g14
F0.60404389700650174
sg8
I00
sg15
g16
sg17
F138.54219258547641
sg18
F69.998376728499238
sg19
I16743651
sg20
S'104678.047187'
p104
sg22
F0.74572531132200093
sbasg26
I00
sg27
I00
sg28
I16743502
sg20
S'104678.943247'
p105
sba(igraph
Edge
p106
(dp107
g7
I1
sg8
I00
sg9
I5
sg10
(lp108
g85
ag92
asg26
I00
sg27
I00
sg28
I16743503
sg20
S'104678.951476'
p109
sba(igraph
Edge
p110
(dp111
g7
I1
sg8
I00
sg9
I5
sg10
(lp112
(igraph
Vertex
p113
(dp114
g14
F0.66899496278028514
sg8
I00
sg15
g16
sg17
F138.42413405893376
sg18
F114.94451424395731
sg19
I16743652
sg20
S'104678.048114'
p115
sg22
F0.74546754161339246
sba(igraph
Vertex
p116
(dp117
g14
F0.73098651613070931
sg8
I00
sg15
g16
sg17
F138.42413405893376
sg18
F157.84266916245087
sg19
I16743653
sg20
S'104678.049055'
p118
sg22
F0.74546754161339246
sbasg26
I00
sg27
I00
sg28
I16743504
sg20
S'104678.95876'
p119
sba(igraph
Edge
p120
(dp121
g7
I1
sg8
I00
sg9
I5
sg10
(lp122
g116
a(igraph
Vertex
p123
(dp124
g14
F0.79297806948113336
sg8
I00
sg15
g16
sg17
F138.42413405893376
sg18
F200.74082408094432
sg19
I16743654
sg20
S'104678.050043'
p125
sg22
F0.74546754161339246
sbasg26
I00
sg27
I00
sg28
I16743505
sg20
S'104678.966368'
p126
sba(igraph
Edge
p127
(dp128
g7
I1
sg8
I00
sg9
I5
sg10
(lp129
g123
a(igraph
Vertex
p130
(dp131
g14
F0.85987570282064041
sg8
I00
sg15
g16
sg17
F138.37967969141158
sg18
F247.03398635188319
sg19
I16743655
sg20
S'104678.051015'
p132
sg22
F0.74537047967557113
sbasg26
I00
sg27
I00
sg28
I16743506
sg20
S'104678.973564'
p133
sba(igraph
Edge
p134
(dp135
g7
I1
sg8
I00
sg9
I5
sg10
(lp136
g102
ag113
asg26
I00
sg27
I00
sg28
I16743507
sg20
S'104678.979468'
p137
sba(igraph
Edge
p138
(dp139
g7
I1
sg8
I00
sg9
I5
sg10
(lp140
g12
ag82
asg26
I00
sg27
I00
sg28
I16743508
sg20
S'104678.985919'
p141
sba(igraph
Edge
p142
(dp143
g7
I1
sg8
I00
sg9
I5
sg10
(lp144
g23
ag82
asg26
I00
sg27
I00
sg28
I16743509
sg20
S'104678.99197'
p145
sba(igraph
Edge
p146
(dp147
g7
I1
sg8
I00
sg9
I5
sg10
(lp148
g23
ag85
asg26
I00
sg27
I00
sg28
I16743510
sg20
S'104678.997944'
p149
sba(igraph
Edge
p150
(dp151
g7
I1
sg8
I00
sg9
I5
sg10
(lp152
g33
ag85
asg26
I00
sg27
I00
sg28
I16743511
sg20
S'104679.003961'
p153
sba(igraph
Edge
p154
(dp155
g7
I1
sg8
I00
sg9
I5
sg10
(lp156
g33
ag92
asg26
I00
sg27
I00
sg28
I16743512
sg20
S'104679.010142'
p157
sba(igraph
Edge
p158
(dp159
g7
I1
sg8
I00
sg9
I5
sg10
(lp160
g36
ag92
asg26
I00
sg27
I00
sg28
I16743513
sg20
S'104679.016286'
p161
sba(igraph
Edge
p162
(dp163
g7
I1
sg8
I00
sg9
I5
sg10
(lp164
g36
ag95
asg26
I00
sg27
I00
sg28
I16743514
sg20
S'104679.022594'
p165
sba(igraph
Edge
p166
(dp167
g7
I1
sg8
I00
sg9
I5
sg10
(lp168
g43
ag95
asg26
I00
sg27
I00
sg28
I16743515
sg20
S'104679.028774'
p169
sba(igraph
Edge
p170
(dp171
g7
I1
sg8
I00
sg9
I5
sg10
(lp172
g43
ag102
asg26
I00
sg27
I00
sg28
I16743516
sg20
S'104679.035169'
p173
sba(igraph
Edge
p174
(dp175
g7
I1
sg8
I00
sg9
I5
sg10
(lp176
g54
ag102
asg26
I00
sg27
I00
sg28
I16743517
sg20
S'104679.041636'
p177
sba(igraph
Edge
p178
(dp179
g7
I1
sg8
I00
sg9
I5
sg10
(lp180
g54
ag113
asg26
I00
sg27
I00
sg28
I16743518
sg20
S'104679.048104'
p181
sba(igraph
Edge
p182
(dp183
g7
I1
sg8
I00
sg9
I5
sg10
(lp184
g57
ag113
asg26
I00
sg27
I00
sg28
I16743519
sg20
S'104679.054626'
p185
sba(igraph
Edge
p186
(dp187
g7
I1
sg8
I00
sg9
I5
sg10
(lp188
g57
ag116
asg26
I00
sg27
I00
sg28
I16743520
sg20
S'104679.061115'
p189
sba(igraph
Edge
p190
(dp191
g7
I1
sg8
I00
sg9
I5
sg10
(lp192
g64
ag116
asg26
I00
sg27
I00
sg28
I16743521
sg20
S'104679.06746'
p193
sba(igraph
Edge
p194
(dp195
g7
I1
sg8
I00
sg9
I5
sg10
(lp196
g64
ag123
asg26
I00
sg27
I00
sg28
I16743522
sg20
S'104679.073997'
p197
sba(igraph
Edge
p198
(dp199
g7
I1
sg8
I00
sg9
I5
sg10
(lp200
g71
ag123
asg26
I00
sg27
I00
sg28
I16743523
sg20
S'104679.080441'
p201
sba(igraph
Edge
p202
(dp203
g7
I1
sg8
I00
sg9
I5
sg10
(lp204
g71
ag130
asg26
I00
sg27
I00
sg28
I16743524
sg20
S'104679.08717'
p205
sba(igraph
Edge
p206
(dp207
g7
I1
sg8
I00
sg9
I5
sg10
(lp208
(igraph
Vertex
p209
(dp210
g14
F0.93374457826862534
sg8
I00
sg15
g16
sg17
F108.95901565789785
sg18
F298.1512481618887
sg19
I16743656
sg20
S'104678.059369'
p211
sg22
F0.68113322196047565
sba(igraph
Vertex
p212
(dp213
g14
F0.92796423144781603
sg8
I00
sg15
g16
sg17
F141.42894121621055
sg18
F294.1512481618887
sg19
I16743657
sg20
S'104678.060487'
p214
sg22
F0.75202825593059075
sbasg26
I00
sg27
I00
sg28
I16743525
sg20
S'104679.141661'
p215
sba(igraph
Edge
p216
(dp217
g7
I1
sg8
I00
sg9
I5
sg10
(lp218
g71
ag209
asg26
I00
sg27
I00
sg28
I16743526
sg20
S'104679.248133'
p219
sba(igraph
Edge
p220
(dp221
g7
I1
sg8
I00
sg9
I5
sg10
(lp222
g130
ag209
asg26
I00
sg27
I00
sg28
I16743527
sg20
S'104679.255562'
p223
sba(igraph
Edge
p224
(dp225
g7
I1
sg8
I00
sg9
I5
sg10
(lp226
g130
ag212
asg26
I00
sg27
I00
sg28
I16743528
sg20
S'104679.262647'
p227
sba(igraph
Edge
p228
(dp229
g7
I1
sg8
I00
sg9
I5
sg10
(lp230
(igraph
Vertex
p231
(dp232
g14
F0.3557466149229776
sg8
I00
sg15
I0
sg17
F165.47507333886927
sg18
F-101.8233424732995
sg19
I16743658
sg20
S'104678.061574'
p233
sg22
F0.80453072781412505
sba(igraph
Vertex
p234
(dp235
g14
F0.41773816827340171
sg8
I00
sg15
g16
sg17
F165.47507333886927
sg18
F-58.92518755480603
sg19
I16743660
sg20
S'104678.062804'
p236
sg22
F0.80453072781412505
sbasg26
I00
sg27
I00
sg28
I16743529
sg20
S'104679.269866'
p237
sba(igraph
Edge
p238
(dp239
g7
I1
sg8
I00
sg9
I5
sg10
(lp240
(igraph
Vertex
p241
(dp242
g14
F0.48463580161290853
sg8
I00
sg15
g16
sg17
F165.43061897134703
sg18
F-12.632025283867279
sg19
I16743661
sg20
S'104678.063976'
p243
sg22
F0.80443366587630361
sba(igraph
Vertex
p244
(dp245
g14
F0.54662735496333281
sg8
I00
sg15
g16
sg17
F165.43061897134703
sg18
F30.266129634626282
sg19
I16743662
sg20
S'104678.065397'
p246
sg22
F0.80443366587630361
sbasg26
I00
sg27
I00
sg28
I16743530
sg20
S'104679.277188'
p247
sba(igraph
Edge
p248
(dp249
g7
I1
sg8
I00
sg9
I5
sg10
(lp250
g244
a(igraph
Vertex
p251
(dp252
g14
F0.60861890831375698
sg8
I00
sg15
g16
sg17
F165.43061897134703
sg18
F73.164284553119842
sg19
I16743663
sg20
S'104678.066591'
p253
sg22
F0.80443366587630361
sbasg26
I00
sg27
I00
sg28
I16743531
sg20
S'104679.285104'
p254
sba(igraph
Edge
p255
(dp256
g7
I1
sg8
I00
sg9
I5
sg10
(lp257
g234
ag241
asg26
I00
sg27
I00
sg28
I16743532
sg20
S'104679.293359'
p258
sba(igraph
Edge
p259
(dp260
g7
I1
sg8
I00
sg9
I5
sg10
(lp261
(igraph
Vertex
p262
(dp263
g14
F0.67356997408754038
sg8
I00
sg15
g16
sg17
F165.31256044480443
sg18
F118.11042206857792
sg19
I16743664
sg20
S'104678.067761'
p264
sg22
F0.80417589616769525
sba(igraph
Vertex
p265
(dp266
g14
F0.73556152743796455
sg8
I00
sg15
g16
sg17
F165.31256044480443
sg18
F161.00857698707148
sg19
I16743665
sg20
S'104678.068967'
p267
sg22
F0.80417589616769525
sbasg26
I00
sg27
I00
sg28
I16743533
sg20
S'104679.302952'
p268
sba(igraph
Edge
p269
(dp270
g7
I1
sg8
I00
sg9
I5
sg10
(lp271
g265
a(igraph
Vertex
p272
(dp273
g14
F0.7975530807883886
sg8
I00
sg15
g16
sg17
F165.31256044480443
sg18
F203.90673190556493
sg19
I16743666
sg20
S'104678.070147'
p274
sg22
F0.80417589616769525
sbasg26
I00
sg27
I00
sg28
I16743534
sg20
S'104679.311752'
p275
sba(igraph
Edge
p276
(dp277
g7
I1
sg8
I00
sg9
I5
sg10
(lp278
g272
a(igraph
Vertex
p279
(dp280
g14
F0.86445071412789565
sg8
I00
sg15
I0
sg17
F165.2681060772822
sg18
F250.19989417650379
sg19
I16743667
sg20
S'104678.071346'
p281
sg22
F0.80407883422987381
sbasg26
I00
sg27
I00
sg28
I16743535
sg20
S'104679.320935'
p282
sba(igraph
Edge
p283
(dp284
g7
I1
sg8
I00
sg9
I5
sg10
(lp285
g251
ag262
asg26
I00
sg27
I00
sg28
I16743536
sg20
S'104679.330849'
p286
sba(igraph
Edge
p287
(dp288
g7
I1
sg8
I00
sg9
I5
sg10
(lp289
(igraph
Vertex
p290
(dp291
g14
F0.35736680534300302
sg8
I00
sg15
g16
sg17
F196.46484602082307
sg18
F-100.70217070264189
sg19
I16743669
sg20
S'104678.072562'
p292
sg22
F0.87219398694502859
sba(igraph
Vertex
p293
(dp294
g14
F0.42062834168380631
sg8
I01
sg15
I0
sg17
F196.67993686244245
sg18
F-56.92518755480603
sg19
I16743671
sg20
S'104678.073779'
p295
sg22
F0.87266361760358613
sbasg26
I00
sg27
I00
sg28
I16743537
sg20
S'104679.33911'
p296
sba(igraph
Edge
p297
(dp298
g7
I1
sg8
I00
sg9
I5
sg10
(lp299
(igraph
Vertex
p300
(dp301
g14
F0.48752597502331319
sg8
I00
sg15
g16
sg17
F196.63548249492021
sg18
F-10.632025283867279
sg19
I16743673
sg20
S'104678.075104'
p302
sg22
F0.87256655566576469
sba(igraph
Vertex
p303
(dp304
g14
F0.54951752837373735
sg8
I00
sg15
g16
sg17
F196.63548249492021
sg18
F32.266129634626282
sg19
I16743674
sg20
S'104678.076372'
p305
sg22
F0.87256655566576469
sbasg26
I00
sg27
I00
sg28
I16743538
sg20
S'104679.347992'
p306
sba(igraph
Edge
p307
(dp308
g7
I1
sg8
I00
sg9
I5
sg10
(lp309
g303
a(igraph
Vertex
p310
(dp311
g14
F0.61150908172416163
sg8
I00
sg15
g16
sg17
F196.63548249492021
sg18
F75.164284553119842
sg19
I16743675
sg20
S'104678.077634'
p312
sg22
F0.87256655566576469
sbasg26
I00
sg27
I00
sg28
I16743539
sg20
S'104679.356346'
p313
sba(igraph
Edge
p314
(dp315
g7
I1
sg8
I00
sg9
I5
sg10
(lp316
g293
ag300
asg26
I00
sg27
I00
sg28
I16743540
sg20
S'104679.366137'
p317
sba(igraph
Edge
p318
(dp319
g7
I1
sg8
I00
sg9
I5
sg10
(lp320
(igraph
Vertex
p321
(dp322
g14
F0.67646014749794492
sg8
I00
sg15
g16
sg17
F196.51742396837767
sg18
F120.11042206857792
sg19
I16743676
sg20
S'104678.078901'
p323
sg22
F0.87230878595715644
sba(igraph
Vertex
p324
(dp325
g14
F0.7384517008483692
sg8
I00
sg15
I0
sg17
F196.51742396837767
sg18
F163.00857698707148
sg19
I16743677
sg20
S'104678.080232'
p326
sg22
F0.87230878595715644
sbasg26
I00
sg27
I00
sg28
I16743541
sg20
S'104679.375147'
p327
sba(igraph
Edge
p328
(dp329
g7
I1
sg8
I00
sg9
I5
sg10
(lp330
g324
a(igraph
Vertex
p331
(dp332
g14
F0.80044325419879325
sg8
I00
sg15
g16
sg17
F196.51742396837767
sg18
F205.90673190556493
sg19
I16743679
sg20
S'104678.08171'
p333
sg22
F0.87230878595715644
sbasg26
I00
sg27
I00
sg28
I16743542
sg20
S'104679.38398'
p334
sba(igraph
Edge
p335
(dp336
g7
I1
sg8
I00
sg9
I5
sg10
(lp337
g331
a(igraph
Vertex
p338
(dp339
g14
F0.8673408875383003
sg8
I00
sg15
g16
sg17
F196.47296960085544
sg18
F252.19989417650379
sg19
I16743680
sg20
S'104678.083096'
p340
sg22
F0.872211724019335
sbasg26
I00
sg27
I00
sg28
I16743543
sg20
S'104679.393514'
p341
sba(igraph
Edge
p342
(dp343
g7
I1
sg8
I00
sg9
I5
sg10
(lp344
g310
ag321
asg26
I00
sg27
I00
sg28
I16743544
sg20
S'104679.408559'
p345
sba(igraph
Edge
p346
(dp347
g7
I1
sg8
I00
sg9
I5
sg10
(lp348
g231
ag290
asg26
I00
sg27
I00
sg28
I16743545
sg20
S'104679.417265'
p349
sba(igraph
Edge
p350
(dp351
g7
I1
sg8
I00
sg9
I5
sg10
(lp352
g234
ag290
asg26
I00
sg27
I00
sg28
I16743546
sg20
S'104679.427757'
p353
sba(igraph
Edge
p354
(dp355
g7
I1
sg8
I00
sg9
I5
sg10
(lp356
g234
ag293
asg26
I00
sg27
I00
sg28
I16743547
sg20
S'104679.43721'
p357
sba(igraph
Edge
p358
(dp359
g7
I1
sg8
I00
sg9
I5
sg10
(lp360
g241
ag293
asg26
I00
sg27
I00
sg28
I16743548
sg20
S'104679.446773'
p361
sba(igraph
Edge
p362
(dp363
g7
I1
sg8
I00
sg9
I5
sg10
(lp364
g241
ag300
asg26
I00
sg27
I00
sg28
I16743549
sg20
S'104679.457495'
p365
sba(igraph
Edge
p366
(dp367
g7
I1
sg8
I00
sg9
I5
sg10
(lp368
g244
ag300
asg26
I00
sg27
I00
sg28
I16743550
sg20
S'104679.47001'
p369
sba(igraph
Edge
p370
(dp371
g7
I1
sg8
I00
sg9
I5
sg10
(lp372
g244
ag303
asg26
I00
sg27
I00
sg28
I16743551
sg20
S'104679.479749'
p373
sba(igraph
Edge
p374
(dp375
g7
I1
sg8
I00
sg9
I5
sg10
(lp376
g251
ag303
asg26
I00
sg27
I00
sg28
I16743552
sg20
S'104679.490412'
p377
sba(igraph
Edge
p378
(dp379
g7
I1
sg8
I00
sg9
I5
sg10
(lp380
g251
ag310
asg26
I00
sg27
I00
sg28
I16743553
sg20
S'104679.499741'
p381
sba(igraph
Edge
p382
(dp383
g7
I1
sg8
I00
sg9
I5
sg10
(lp384
g262
ag310
asg26
I00
sg27
I00
sg28
I16743554
sg20
S'104679.510233'
p385
sba(igraph
Edge
p386
(dp387
g7
I1
sg8
I00
sg9
I5
sg10
(lp388
g262
ag321
asg26
I00
sg27
I00
sg28
I16743555
sg20
S'104679.520114'
p389
sba(igraph
Edge
p390
(dp391
g7
I1
sg8
I00
sg9
I5
sg10
(lp392
g265
ag321
asg26
I00
sg27
I00
sg28
I16743556
sg20
S'104679.528767'
p393
sba(igraph
Edge
p394
(dp395
g7
I1
sg8
I00
sg9
I5
sg10
(lp396
g265
ag324
asg26
I00
sg27
I00
sg28
I16743557
sg20
S'104679.540058'
p397
sba(igraph
Edge
p398
(dp399
g7
I1
sg8
I00
sg9
I5
sg10
(lp400
g272
ag324
asg26
I00
sg27
I00
sg28
I16743558
sg20
S'104679.549454'
p401
sba(igraph
Edge
p402
(dp403
g7
I1
sg8
I00
sg9
I5
sg10
(lp404
g272
ag331
asg26
I00
sg27
I00
sg28
I16743559
sg20
S'104679.558451'
p405
sba(igraph
Edge
p406
(dp407
g7
I1
sg8
I00
sg9
I5
sg10
(lp408
g279
ag331
asg26
I00
sg27
I00
sg28
I16743560
sg20
S'104679.568539'
p409
sba(igraph
Edge
p410
(dp411
g7
I1
sg8
I00
sg9
I5
sg10
(lp412
g279
ag338
asg26
I00
sg27
I00
sg28
I16743561
sg20
S'104679.577921'
p413
sba(igraph
Edge
p414
(dp415
g7
I1
sg8
I00
sg9
I5
sg10
(lp416
(igraph
Vertex
p417
(dp418
g14
F0.93253924275507127
sg8
I00
sg15
g16
sg17
F168.31736760208116
sg18
F297.31715598650931
sg19
I16743681
sg20
S'104678.084466'
p419
sg22
F0.81073661048489332
sba(igraph
Vertex
p420
(dp421
g14
F0.93542941616547592
sg8
I00
sg15
g16
sg17
F199.52223112565434
sg18
F299.31715598650931
sg19
I16743682
sg20
S'104678.085903'
p422
sg22
F0.87886950027435451
sbasg26
I00
sg27
I00
sg28
I16743562
sg20
S'104679.588227'
p423
sba(igraph
Edge
p424
(dp425
g7
I1
sg8
I00
sg9
I5
sg10
(lp426
g279
ag417
asg26
I00
sg27
I00
sg28
I16743563
sg20
S'104679.599052'
p427
sba(igraph
Edge
p428
(dp429
g7
I1
sg8
I00
sg9
I5
sg10
(lp430
g338
ag417
asg26
I00
sg27
I00
sg28
I16743564
sg20
S'104679.609612'
p431
sba(igraph
Edge
p432
(dp433
g7
I1
sg8
I00
sg9
I5
sg10
(lp434
g338
ag420
asg26
I00
sg27
I00
sg28
I16743565
sg20
S'104679.620019'
p435
sba(igraph
Edge
p436
(dp437
g7
I1
sg8
I00
sg9
I5
sg10
(lp438
g82
ag231
asg26
I00
sg27
I00
sg28
I16743566
sg20
S'104679.630624'
p439
sba(igraph
Edge
p440
(dp441
g7
I1
sg8
I00
sg9
I5
sg10
(lp442
g85
ag231
asg26
I00
sg27
I00
sg28
I16743567
sg20
S'104679.641061'
p443
sba(igraph
Edge
p444
(dp445
g7
I1
sg8
I00
sg9
I5
sg10
(lp446
g85
ag234
asg26
I00
sg27
I00
sg28
I16743568
sg20
S'104679.655346'
p447
sba(igraph
Edge
p448
(dp449
g7
I1
sg8
I00
sg9
I5
sg10
(lp450
g92
ag234
asg26
I00
sg27
I00
sg28
I16743569
sg20
S'104679.666256'
p451
sba(igraph
Edge
p452
(dp453
g7
I1
sg8
I00
sg9
I5
sg10
(lp454
g92
ag241
asg26
I00
sg27
I00
sg28
I16743570
sg20
S'104679.676764'
p455
sba(igraph
Edge
p456
(dp457
g7
I1
sg8
I00
sg9
I5
sg10
(lp458
g95
ag241
asg26
I00
sg27
I00
sg28
I16743571
sg20
S'104679.686601'
p459
sba(igraph
Edge
p460
(dp461
g7
I1
sg8
I00
sg9
I5
sg10
(lp462
g95
ag244
asg26
I00
sg27
I00
sg28
I16743572
sg20
S'104679.695922'
p463
sba(igraph
Edge
p464
(dp465
g7
I1
sg8
I00
sg9
I5
sg10
(lp466
g102
ag244
asg26
I00
sg27
I00
sg28
I16743573
sg20
S'104679.705635'
p467
sba(igraph
Edge
p468
(dp469
g7
I1
sg8
I00
sg9
I5
sg10
(lp470
g102
ag251
asg26
I00
sg27
I00
sg28
I16743574
sg20
S'104679.715299'
p471
sba(igraph
Edge
p472
(dp473
g7
I1
sg8
I00
sg9
I5
sg10
(lp474
g113
ag251
asg26
I00
sg27
I00
sg28
I16743575
sg20
S'104679.724975'
p475
sba(igraph
Edge
p476
(dp477
g7
I1
sg8
I00
sg9
I5
sg10
(lp478
g113
ag262
asg26
I00
sg27
I00
sg28
I16743576
sg20
S'104679.734529'
p479
sba(igraph
Edge
p480
(dp481
g7
I1
sg8
I00
sg9
I5
sg10
(lp482
g116
ag262
asg26
I00
sg27
I00
sg28
I16743577
sg20
S'104679.744502'
p483
sba(igraph
Edge
p484
(dp485
g7
I1
sg8
I00
sg9
I5
sg10
(lp486
g116
ag265
asg26
I00
sg27
I00
sg28
I16743578
sg20
S'104679.756709'
p487
sba(igraph
Edge
p488
(dp489
g7
I1
sg8
I00
sg9
I5
sg10
(lp490
g123
ag265
asg26
I00
sg27
I00
sg28
I16743579
sg20
S'104679.768332'
p491
sba(igraph
Edge
p492
(dp493
g7
I1
sg8
I00
sg9
I5
sg10
(lp494
g123
ag272
asg26
I00
sg27
I00
sg28
I16743580
sg20
S'104679.78053'
p495
sba(igraph
Edge
p496
(dp497
g7
I1
sg8
I00
sg9
I5
sg10
(lp498
g130
ag272
asg26
I00
sg27
I00
sg28
I16743581
sg20
S'104679.793568'
p499
sba(igraph
Edge
p500
(dp501
g7
I1
sg8
I00
sg9
I5
sg10
(lp502
g130
ag279
asg26
I00
sg27
I00
sg28
I16743582
sg20
S'104679.810421'
p503
sba(igraph
Edge
p504
(dp505
g7
I1
sg8
I00
sg9
I5
sg10
(lp506
g212
ag279
asg26
I00
sg27
I00
sg28
I16743583
sg20
S'104679.821561'
p507
sba(igraph
Edge
p508
(dp509
g7
I1
sg8
I00
sg9
I5
sg10
(lp510
g212
ag417
asg26
I00
sg27
I00
sg28
I16743584
sg20
S'104679.832665'
p511
sba(igraph
Edge
p512
(dp513
g7
I1
sg8
I00
sg9
I5
sg10
(lp514
(igraph
Vertex
p515
(dp516
g14
F0.24665150869001554
sg8
I00
sg15
g16
sg17
F105.32309185152599
sg18
F-177.31715598650925
sg19
I16743683
sg20
S'104678.252369'
p517
sg22
F0.67319452369328814
sba(igraph
Vertex
p518
(dp519
g14
F0.30864306204043968
sg8
I00
sg15
g16
sg17
F105.32309185152599
sg18
F-134.41900106801575
sg19
I16743684
sg20
S'104678.254915'
p520
sg22
F0.67319452369328814
sbasg26
I00
sg27
I00
sg28
I16743585
sg20
S'104683.207481'
p521
sba(igraph
Edge
p522
(dp523
g7
I1
sg8
I00
sg9
I5
sg10
(lp524
(igraph
Vertex
p525
(dp526
g14
F0.24087116186920624
sg8
I00
sg15
g16
sg17
F137.79301740983863
sg18
F-181.31715598650928
sg19
I16743685
sg20
S'104678.257458'
p527
sg22
F0.74408955766340312
sba(igraph
Vertex
p528
(dp529
g14
F0.30286271521963043
sg8
I00
sg15
g16
sg17
F137.79301740983863
sg18
F-138.41900106801575
sg19
I16743686
sg20
S'104678.260153'
p530
sg22
F0.74408955766340312
sbasg26
I00
sg27
I00
sg28
I16743586
sg20
S'104683.290747'
p531
sba(igraph
Edge
p532
(dp533
g7
I1
sg8
I00
sg9
I5
sg10
(lp534
g515
ag525
asg26
I00
sg27
I00
sg28
I16743587
sg20
S'104683.316495'
p535
sba(igraph
Edge
p536
(dp537
g7
I1
sg8
I00
sg9
I5
sg10
(lp538
g518
ag525
asg26
I00
sg27
I00
sg28
I16743588
sg20
S'104683.34007'
p539
sba(igraph
Edge
p540
(dp541
g7
I1
sg8
I00
sg9
I5
sg10
(lp542
g518
ag528
asg26
I00
sg27
I00
sg28
I16743589
sg20
S'104683.36628'
p543
sba(igraph
Edge
p544
(dp545
g7
I1
sg8
I00
sg9
I5
sg10
(lp546
(igraph
Vertex
p547
(dp548
g14
F0.2454461731764615
sg8
I00
sg15
g16
sg17
F164.68144379570924
sg18
F-178.15124816188865
sg19
I16743687
sg20
S'104678.26272'
p549
sg22
F0.8027979122177058
sba(igraph
Vertex
p550
(dp551
g14
F0.30743772652688561
sg8
I00
sg15
g16
sg17
F164.68144379570924
sg18
F-135.25309324339514
sg19
I16743688
sg20
S'104678.265324'
p552
sg22
F0.8027979122177058
sbasg26
I00
sg27
I00
sg28
I16743590
sg20
S'104683.387363'
p553
sba(igraph
Edge
p554
(dp555
g7
I1
sg8
I00
sg9
I5
sg10
(lp556
(igraph
Vertex
p557
(dp558
g14
F0.24706636359648695
sg8
I00
sg15
I0
sg17
F195.67121647766305
sg18
F-177.03007639123103
sg19
I16743689
sg20
S'104678.303786'
p559
sg22
F0.87046117134860923
sba(igraph
Vertex
p560
(dp561
g14
F0.31032789993729026
sg8
I00
sg15
g16
sg17
F195.88630731928242
sg18
F-133.25309324339514
sg19
I16743691
sg20
S'104678.306541'
p562
sg22
F0.87093080200716688
sbasg26
I00
sg27
I00
sg28
I16743591
sg20
S'104683.410183'
p563
sba(igraph
Edge
p564
(dp565
g7
I1
sg8
I00
sg9
I5
sg10
(lp566
g547
ag557
asg26
I00
sg27
I00
sg28
I16743592
sg20
S'104683.430677'
p567
sba(igraph
Edge
p568
(dp569
g7
I1
sg8
I00
sg9
I5
sg10
(lp570
g550
ag557
asg26
I00
sg27
I00
sg28
I16743593
sg20
S'104683.451304'
p571
sba(igraph
Edge
p572
(dp573
g7
I1
sg8
I00
sg9
I5
sg10
(lp574
g550
ag560
asg26
I00
sg27
I00
sg28
I16743594
sg20
S'104683.470337'
p575
sba(igraph
Edge
p576
(dp577
g7
I1
sg8
I00
sg9
I5
sg10
(lp578
g525
ag547
asg26
I00
sg27
I00
sg28
I16743595
sg20
S'104683.491348'
p579
sba(igraph
Edge
p580
(dp581
g7
I1
sg8
I00
sg9
I5
sg10
(lp582
g528
ag547
asg26
I00
sg27
I00
sg28
I16743596
sg20
S'104683.512087'
p583
sba(igraph
Edge
p584
(dp585
g7
I1
sg8
I00
sg9
I5
sg10
(lp586
g528
ag550
asg26
I00
sg27
I00
sg28
I16743597
sg20
S'104683.532626'
p587
sba(igraph
Edge
p588
(dp589
g7
I1
sg8
I00
sg9
I5
sg10
(lp590
g290
ag560
asg26
I00
sg27
I00
sg28
I16743598
sg20
S'104684.228739'
p591
sba(igraph
Edge
p592
(dp593
g7
I1
sg8
I00
sg9
I5
sg10
(lp594
g560
ag231
asg26
I00
sg27
I00
sg28
I16743599
sg20
S'104684.262657'
p595
sba(igraph
Edge
p596
(dp597
g7
I1
sg8
I00
sg9
I5
sg10
(lp598
g231
ag550
asg26
I00
sg27
I00
sg28
I16743600
sg20
S'104684.320353'
p599
sba(igraph
Edge
p600
(dp601
g7
I1
sg8
I00
sg9
I5
sg10
(lp602
g550
ag82
asg26
I00
sg27
I00
sg28
I16743601
sg20
S'104684.346351'
p603
sba(igraph
Edge
p604
(dp605
g7
I1
sg8
I00
sg9
I5
sg10
(lp606
g82
ag528
asg26
I00
sg27
I00
sg28
I16743602
sg20
S'104684.387906'
p607
sba(igraph
Edge
p608
(dp609
g7
I1
sg8
I00
sg9
I5
sg10
(lp610
g528
ag12
asg26
I00
sg27
I00
sg28
I16743603
sg20
S'104684.420435'
p611
sba(igraph
Edge
p612
(dp613
g7
I1
sg8
I00
sg9
I5
sg10
(lp614
g12
ag518
asg26
I00
sg27
I00
sg28
I16743604
sg20
S'104684.446658'
p615
sba(igraph
Edge
p616
(dp617
g7
I1
sg8
I00
sg9
I5
sg10
(lp618
g209
ag515
asg26
I00
sg27
I00
sg28
I16743605
sg20
S'104685.720749'
p619
sba(igraph
Edge
p620
(dp621
g7
I1
sg8
I00
sg9
I5
sg10
(lp622
g212
ag515
asg26
I00
sg27
I00
sg28
I16743606
sg20
S'104685.741491'
p623
sba(igraph
Edge
p624
(dp625
g7
I1
sg8
I00
sg9
I5
sg10
(lp626
g212
ag525
asg26
I00
sg27
I00
sg28
I16743607
sg20
S'104685.760994'
p627
sba(igraph
Edge
p628
(dp629
g7
I1
sg8
I00
sg9
I5
sg10
(lp630
g417
ag525
asg26
I00
sg27
I00
sg28
I16743608
sg20
S'104685.780744'
p631
sba(igraph
Edge
p632
(dp633
g7
I1
sg8
I00
sg9
I5
sg10
(lp634
g417
ag547
asg26
I00
sg27
I00
sg28
I16743609
sg20
S'104685.800413'
p635
sba(igraph
Edge
p636
(dp637
g7
I1
sg8
I00
sg9
I5
sg10
(lp638
g420
ag547
asg26
I00
sg27
I00
sg28
I16743610
sg20
S'104685.820769'
p639
sba(igraph
Edge
p640
(dp641
g7
I1
sg8
I00
sg9
I5
sg10
(lp642
g420
ag557
asg26
I00
sg27
I00
sg28
I16743611
sg20
S'104685.840289'
p643
sba(igraph
Edge
p644
(dp645
g7
I1
sg8
I00
sg9
I5
sg10
(lp646
g557
ag515
asg26
I00
sg27
I00
sg28
I16743612
sg20
S'111132.368535'
p647
sba(igraph
Edge
p648
(dp649
g7
I1
sg8
I00
sg9
I5
sg10
(lp650
g515
ag560
asg26
I00
sg27
I00
sg28
I16743613
sg20
S'111133.938215'
p651
sba(igraph
Edge
p652
(dp653
g7
I1
sg8
I00
sg9
I5
sg10
(lp654
g560
ag518
asg26
I00
sg27
I00
sg28
I16743614
sg20
S'111135.660873'
p655
sba(igraph
Edge
p656
(dp657
g7
I1
sg8
I00
sg9
I5
sg10
(lp658
g518
ag290
asg26
I00
sg27
I00
sg28
I16743615
sg20
S'111137.719008'
p659
sba(igraph
Edge
p660
(dp661
g7
I1
sg8
I00
sg9
I5
sg10
(lp662
g290
ag12
asg26
I00
sg27
I00
sg28
I16743616
sg20
S'111139.057739'
p663
sba(igraph
Edge
p664
(dp665
g7
I1
sg8
I00
sg9
I5
sg10
(lp666
g12
ag293
asg26
I00
sg27
I00
sg28
I16743617
sg20
S'111140.965058'
p667
sba(igraph
Edge
p668
(dp669
g7
I1
sg8
I00
sg9
I5
sg10
(lp670
g293
ag23
asg26
I00
sg27
I00
sg28
I16743618
sg20
S'111142.530262'
p671
sba(igraph
Edge
p672
(dp673
g7
I1
sg8
I00
sg9
I5
sg10
(lp674
g23
ag300
asg26
I00
sg27
I00
sg28
I16743619
sg20
S'111144.332288'
p675
sba(igraph
Edge
p676
(dp677
g7
I1
sg8
I00
sg9
I5
sg10
(lp678
g300
ag33
asg26
I00
sg27
I00
sg28
I16743620
sg20
S'111145.852276'
p679
sba(igraph
Edge
p680
(dp681
g7
I1
sg8
I00
sg9
I5
sg10
(lp682
g33
ag303
asg26
I00
sg27
I00
sg28
I16743621
sg20
S'111147.335004'
p683
sba(igraph
Edge
p684
(dp685
g7
I1
sg8
I00
sg9
I5
sg10
(lp686
g303
ag36
asg26
I00
sg27
I00
sg28
I16743622
sg20
S'111149.719462'
p687
sba(igraph
Edge
p688
(dp689
g7
I1
sg8
I00
sg9
I5
sg10
(lp690
g36
ag310
asg26
I00
sg27
I00
sg28
I16743623
sg20
S'111152.293245'
p691
sba(igraph
Edge
p692
(dp693
g7
I1
sg8
I00
sg9
I5
sg10
(lp694
g310
ag43
asg26
I00
sg27
I00
sg28
I16743624
sg20
S'111154.134781'
p695
sba(igraph
Edge
p696
(dp697
g7
I1
sg8
I00
sg9
I5
sg10
(lp698
g43
ag321
asg26
I00
sg27
I00
sg28
I16743625
sg20
S'111155.799732'
p699
sba(igraph
Edge
p700
(dp701
g7
I1
sg8
I00
sg9
I5
sg10
(lp702
g321
ag54
asg26
I00
sg27
I00
sg28
I16743626
sg20
S'111157.293835'
p703
sba(igraph
Edge
p704
(dp705
g7
I1
sg8
I00
sg9
I5
sg10
(lp706
g54
ag324
asg26
I00
sg27
I00
sg28
I16743627
sg20
S'111158.947337'
p707
sba(igraph
Edge
p708
(dp709
g7
I1
sg8
I00
sg9
I5
sg10
(lp710
g324
ag57
asg26
I00
sg27
I00
sg28
I16743628
sg20
S'111160.267202'
p711
sba(igraph
Edge
p712
(dp713
g7
I1
sg8
I00
sg9
I5
sg10
(lp714
g57
ag331
asg26
I00
sg27
I00
sg28
I16743629
sg20
S'111161.795237'
p715
sba(igraph
Edge
p716
(dp717
g7
I1
sg8
I00
sg9
I5
sg10
(lp718
g331
ag64
asg26
I00
sg27
I00
sg28
I16743630
sg20
S'111163.395179'
p719
sba(igraph
Edge
p720
(dp721
g7
I1
sg8
I00
sg9
I5
sg10
(lp722
g64
ag338
asg26
I00
sg27
I00
sg28
I16743631
sg20
S'111165.384713'
p723
sba(igraph
Edge
p724
(dp725
g7
I1
sg8
I00
sg9
I5
sg10
(lp726
g338
ag71
asg26
I00
sg27
I00
sg28
I16743632
sg20
S'111167.079306'
p727
sba(igraph
Edge
p728
(dp729
g7
I1
sg8
I00
sg9
I5
sg10
(lp730
g71
ag420
asg26
I00
sg27
I00
sg28
I16743633
sg20
S'111168.51162'
p731
sba(igraph
Edge
p732
(dp733
g7
I1
sg8
I00
sg9
I5
sg10
(lp734
g420
ag209
asg26
I00
sg27
I00
sg28
I16743634
sg20
S'111169.989922'
p735
sba(igraph
Edge
p736
(dp737
g7
I1
sg8
I00
sg9
I5
sg10
(lp738
g209
ag557
asg26
I00
sg27
I00
sg28
I16743635
sg20
S'111172.495605'
p739
sbasS'vertices'
p740
(lp741
g12
ag23
ag33
ag36
ag43
ag54
ag57
ag64
ag71
ag82
ag85
ag92
ag95
ag102
ag113
ag116
ag123
ag130
ag209
ag212
ag231
ag234
ag241
ag244
ag251
ag262
ag265
ag272
ag279
ag290
ag293
ag300
ag303
ag310
ag321
ag324
ag331
ag338
ag417
ag420
ag515
ag518
ag525
ag528
ag547
ag550
ag557
ag560
asS'tags'
p742
(lp743
sb.