(igraph
Graph
p0
(dp1
S'labelingConstraints'
p2
I-1
sS'edges'
p3
(lp4
(igraph
Edge
p5
(dp6
S'direction'
p7
I1
sS'selected'
p8
I00
sS'height'
p9
I5
sS'vs'
p10
(lp11
(igraph
Vertex
p12
(dp13
S'xnorm'
p14
F0.0
sg8
I01
sS'label'
p15
I0
sS'y'
p16
F-50.0
sS'x'
p17
F-150.0
sS'circle'
p18
I582221
sS'id'
p19
S'1344.51845165'
p20
sS'ynorm'
p21
F0.0
sba(igraph
Vertex
p22
(dp23
g14
F0.083333333333333329
sg8
I00
sg15
S'NULL'
p24
sg16
F-50.0
sg17
F-184.0
sg18
I582223
sg19
S'1344.51849048'
p25
sg21
F0.0
sbasS'wrap'
p26
I00
sS'curved'
p27
I00
sS'line'
p28
I582025
sg19
S'1344.55484426'
p29
sba(igraph
Edge
p30
(dp31
g7
I1
sg8
I00
sg9
I5
sg10
(lp32
g22
a(igraph
Vertex
p33
(dp34
g14
F0.16666666666666666
sg8
I01
sg15
I0
sg16
F-50.0
sg17
F-218.0
sg18
I582225
sg19
S'1344.5185321'
p35
sg21
F0.0
sbasg26
I00
sg27
I00
sg28
I582026
sg19
S'1344.55497361'
p36
sba(igraph
Edge
p37
(dp38
g7
I1
sg8
I00
sg9
I5
sg10
(lp39
g33
a(igraph
Vertex
p40
(dp41
g14
F0.25
sg8
I00
sg15
g24
sg16
F-50.0
sg17
F-252.0
sg18
I582227
sg19
S'1344.5185849'
p42
sg21
F0.0
sbasg26
I00
sg27
I00
sg28
I582027
sg19
S'1344.55514374'
p43
sba(igraph
Edge
p44
(dp45
g7
I1
sg8
I00
sg9
I5
sg10
(lp46
g40
a(igraph
Vertex
p47
(dp48
g14
F0.33333333333333331
sg8
I01
sg15
I0
sg16
F-50.0
sg17
F-286.0
sg18
I582229
sg19
S'1344.51865167'
p49
sg21
F0.0
sbasg26
I00
sg27
I00
sg28
I582028
sg19
S'1344.5554326'
p50
sba(igraph
Edge
p51
(dp52
g7
I1
sg8
I00
sg9
I5
sg10
(lp53
g47
a(igraph
Vertex
p54
(dp55
g14
F0.41666666666666663
sg8
I00
sg15
g24
sg16
F-50.0
sg17
F-320.0
sg18
I582231
sg19
S'1344.51873408'
p56
sg21
F0.0
sbasg26
I00
sg27
I00
sg28
I582029
sg19
S'1344.55569772'
p57
sba(igraph
Edge
p58
(dp59
g7
I1
sg8
I00
sg9
I5
sg10
(lp60
g54
a(igraph
Vertex
p61
(dp62
g14
F0.49999999999999989
sg8
I00
sg15
g24
sg16
F-50.0
sg17
F-353.99999999999994
sg18
I582232
sg19
S'1344.51883522'
p63
sg21
F0.0
sbasg26
I00
sg27
I00
sg28
I582030
sg19
S'1344.55600614'
p64
sba(igraph
Edge
p65
(dp66
g7
I1
sg8
I00
sg9
I5
sg10
(lp67
g61
a(igraph
Vertex
p68
(dp69
g14
F0.58333333333333326
sg8
I00
sg15
g24
sg16
F-50.0
sg17
F-388.0
sg18
I582233
sg19
S'1344.51895003'
p70
sg21
F0.0
sbasg26
I00
sg27
I00
sg28
I582031
sg19
S'1344.55645815'
p71
sba(igraph
Edge
p72
(dp73
g7
I1
sg8
I00
sg9
I5
sg10
(lp74
g68
a(igraph
Vertex
p75
(dp76
g14
F0.66666666666666663
sg8
I00
sg15
g24
sg16
F-50.0
sg17
F-422.0
sg18
I582234
sg19
S'1344.51908078'
p77
sg21
F0.0
sbasg26
I00
sg27
I00
sg28
I582032
sg19
S'1344.55686295'
p78
sba(igraph
Edge
p79
(dp80
g7
I1
sg8
I00
sg9
I5
sg10
(lp81
g75
a(igraph
Vertex
p82
(dp83
g14
F0.75
sg8
I00
sg15
g24
sg16
F-50.0
sg17
F-456.0
sg18
I582235
sg19
S'1344.51922549'
p84
sg21
F0.0
sbasg26
I00
sg27
I00
sg28
I582033
sg19
S'1344.55730854'
p85
sba(igraph
Edge
p86
(dp87
g7
I1
sg8
I00
sg9
I5
sg10
(lp88
g82
a(igraph
Vertex
p89
(dp90
g14
F0.83333333333333337
sg8
I00
sg15
g24
sg16
F-50.0
sg17
F-490.0
sg18
I582236
sg19
S'1344.51938668'
p91
sg21
F0.0
sbasg26
I00
sg27
I00
sg28
I582034
sg19
S'1344.55780385'
p92
sba(igraph
Edge
p93
(dp94
g7
I1
sg8
I00
sg9
I5
sg10
(lp95
g89
a(igraph
Vertex
p96
(dp97
g14
F0.91666666666666663
sg8
I00
sg15
g24
sg16
F-50.0
sg17
F-524.0
sg18
I582237
sg19
S'1344.51956464'
p98
sg21
F0.0
sbasg26
I00
sg27
I00
sg28
I582035
sg19
S'1344.55834359'
p99
sba(igraph
Edge
p100
(dp101
g7
I1
sg8
I00
sg9
I5
sg10
(lp102
g96
a(igraph
Vertex
p103
(dp104
g14
F1.0
sg8
I00
sg15
g24
sg16
F-50.0
sg17
F-558.0
sg18
I582238
sg19
S'1344.51975712'
p105
sg21
F0.0
sbasg26
I00
sg27
I00
sg28
I582036
sg19
S'1344.55893249'
p106
sba(igraph
Edge
p107
(dp108
g7
I1
sg8
I00
sg9
I5
sg10
(lp109
g103
ag12
asg26
I00
sg27
I00
sg28
I582037
sg19
S'1344.55956581'
p110
sba(igraph
Edge
p111
(dp112
g7
I1
sg8
I00
sg9
I5
sg10
(lp113
(igraph
Vertex
p114
(dp115
g14
F0.0
sg8
I00
sg15
g24
sg16
F12.5
sg17
F-150.0
sg18
I582239
sg19
S'1344.51996664'
p116
sg21
F0.25
sba(igraph
Vertex
p117
(dp118
g14
F0.083333333333333329
sg8
I00
sg15
g24
sg16
F12.5
sg17
F-184.0
sg18
I582240
sg19
S'1344.52025858'
p119
sg21
F0.25
sbasg26
I00
sg27
I00
sg28
I582038
sg19
S'1344.56024942'
p120
sba(igraph
Edge
p121
(dp122
g7
I1
sg8
I00
sg9
I5
sg10
(lp123
g117
a(igraph
Vertex
p124
(dp125
g14
F0.16666666666666666
sg8
I00
sg15
g24
sg16
F12.5
sg17
F-218.0
sg18
I582241
sg19
S'1344.52051001'
p126
sg21
F0.25
sbasg26
I00
sg27
I00
sg28
I582039
sg19
S'1344.56097856'
p127
sba(igraph
Edge
p128
(dp129
g7
I1
sg8
I00
sg9
I5
sg10
(lp130
g124
a(igraph
Vertex
p131
(dp132
g14
F0.25
sg8
I00
sg15
g24
sg16
F12.5
sg17
F-252.0
sg18
I582242
sg19
S'1344.5207673'
p133
sg21
F0.25
sbasg26
I00
sg27
I00
sg28
I582040
sg19
S'1344.5619731'
p134
sba(igraph
Edge
p135
(dp136
g7
I1
sg8
I00
sg9
I5
sg10
(lp137
g131
a(igraph
Vertex
p138
(dp139
g14
F0.33333333333333331
sg8
I00
sg15
g24
sg16
F12.5
sg17
F-286.0
sg18
I582243
sg19
S'1344.52104024'
p140
sg21
F0.25
sbasg26
I00
sg27
I00
sg28
I582041
sg19
S'1344.56279779'
p141
sba(igraph
Edge
p142
(dp143
g7
I1
sg8
I00
sg9
I5
sg10
(lp144
g138
a(igraph
Vertex
p145
(dp146
g14
F0.41666666666666663
sg8
I00
sg15
g24
sg16
F12.5
sg17
F-320.0
sg18
I582244
sg19
S'1344.5213414'
p147
sg21
F0.25
sbasg26
I00
sg27
I00
sg28
I582042
sg19
S'1344.56367192'
p148
sba(igraph
Edge
p149
(dp150
g7
I1
sg8
I00
sg9
I5
sg10
(lp151
g145
a(igraph
Vertex
p152
(dp153
g14
F0.49999999999999989
sg8
I01
sg15
I0
sg16
F12.5
sg17
F-353.99999999999994
sg18
I582246
sg19
S'1344.52166462'
p154
sg21
F0.25
sbasg26
I00
sg27
I00
sg28
I582043
sg19
S'1344.56458796'
p155
sba(igraph
Edge
p156
(dp157
g7
I1
sg8
I00
sg9
I5
sg10
(lp158
g152
a(igraph
Vertex
p159
(dp160
g14
F0.58333333333333326
sg8
I00
sg15
g24
sg16
F12.5
sg17
F-388.0
sg18
I582248
sg19
S'1344.52198869'
p161
sg21
F0.25
sbasg26
I00
sg27
I00
sg28
I582044
sg19
S'1344.56555596'
p162
sba(igraph
Edge
p163
(dp164
g7
I1
sg8
I00
sg9
I5
sg10
(lp165
g159
a(igraph
Vertex
p166
(dp167
g14
F0.66666666666666663
sg8
I00
sg15
g24
sg16
F12.5
sg17
F-422.0
sg18
I582249
sg19
S'1344.52260413'
p168
sg21
F0.25
sbasg26
I00
sg27
I00
sg28
I582045
sg19
S'1344.56656642'
p169
sba(igraph
Edge
p170
(dp171
g7
I1
sg8
I00
sg9
I5
sg10
(lp172
g166
a(igraph
Vertex
p173
(dp174
g14
F0.75
sg8
I00
sg15
g24
sg16
F12.5
sg17
F-456.0
sg18
I582250
sg19
S'1344.52296591'
p175
sg21
F0.25
sbasg26
I00
sg27
I00
sg28
I582046
sg19
S'1344.56770679'
p176
sba(igraph
Edge
p177
(dp178
g7
I1
sg8
I00
sg9
I5
sg10
(lp179
g173
a(igraph
Vertex
p180
(dp181
g14
F0.83333333333333337
sg8
I00
sg15
g24
sg16
F12.5
sg17
F-490.0
sg18
I582251
sg19
S'1344.52334976'
p182
sg21
F0.25
sbasg26
I00
sg27
I00
sg28
I582047
sg19
S'1344.56881559'
p183
sba(igraph
Edge
p184
(dp185
g7
I1
sg8
I00
sg9
I5
sg10
(lp186
g180
a(igraph
Vertex
p187
(dp188
g14
F0.91666666666666663
sg8
I00
sg15
g24
sg16
F12.5
sg17
F-524.0
sg18
I582252
sg19
S'1344.52374422'
p189
sg21
F0.25
sbasg26
I00
sg27
I00
sg28
I582048
sg19
S'1344.56996741'
p190
sba(igraph
Edge
p191
(dp192
g7
I1
sg8
I00
sg9
I5
sg10
(lp193
g187
a(igraph
Vertex
p194
(dp195
g14
F1.0
sg8
I00
sg15
g24
sg16
F12.5
sg17
F-558.0
sg18
I582253
sg19
S'1344.52430714'
p196
sg21
F0.25
sbasg26
I00
sg27
I00
sg28
I582049
sg19
S'1344.5711684'
p197
sba(igraph
Edge
p198
(dp199
g7
I1
sg8
I00
sg9
I5
sg10
(lp200
g194
ag114
asg26
I00
sg27
I00
sg28
I582050
sg19
S'1344.57241521'
p201
sba(igraph
Edge
p202
(dp203
g7
I1
sg8
I00
sg9
I5
sg10
(lp204
(igraph
Vertex
p205
(dp206
g14
F0.0
sg8
I00
sg15
g24
sg16
F75.0
sg17
F-150.0
sg18
I582254
sg19
S'1344.52472954'
p207
sg21
F0.5
sba(igraph
Vertex
p208
(dp209
g14
F0.083333333333333329
sg8
I00
sg15
g24
sg16
F75.0
sg17
F-184.0
sg18
I582255
sg19
S'1344.52517038'
p210
sg21
F0.5
sbasg26
I00
sg27
I00
sg28
I582051
sg19
S'1344.57380254'
p211
sba(igraph
Edge
p212
(dp213
g7
I1
sg8
I00
sg9
I5
sg10
(lp214
g208
a(igraph
Vertex
p215
(dp216
g14
F0.16666666666666666
sg8
I00
sg15
g24
sg16
F75.0
sg17
F-218.0
sg18
I582256
sg19
S'1344.52562239'
p217
sg21
F0.5
sbasg26
I00
sg27
I00
sg28
I582052
sg19
S'1344.57514684'
p218
sba(igraph
Edge
p219
(dp220
g7
I1
sg8
I00
sg9
I5
sg10
(lp221
g215
a(igraph
Vertex
p222
(dp223
g14
F0.25
sg8
I00
sg15
g24
sg16
F75.0
sg17
F-252.0
sg18
I582257
sg19
S'1344.52617525'
p224
sg21
F0.5
sbasg26
I00
sg27
I00
sg28
I582053
sg19
S'1344.57653277'
p225
sba(igraph
Edge
p226
(dp227
g7
I1
sg8
I00
sg9
I5
sg10
(lp228
g222
a(igraph
Vertex
p229
(dp230
g14
F0.33333333333333331
sg8
I00
sg15
g24
sg16
F75.0
sg17
F-286.0
sg18
I582258
sg19
S'1344.52666303'
p231
sg21
F0.5
sbasg26
I00
sg27
I00
sg28
I582054
sg19
S'1344.57811845'
p232
sba(igraph
Edge
p233
(dp234
g7
I1
sg8
I00
sg9
I5
sg10
(lp235
g229
a(igraph
Vertex
p236
(dp237
g14
F0.41666666666666663
sg8
I00
sg15
g24
sg16
F75.0
sg17
F-320.0
sg18
I582259
sg19
S'1344.52716365'
p238
sg21
F0.5
sbasg26
I00
sg27
I00
sg28
I582055
sg19
S'1344.57969798'
p239
sba(igraph
Edge
p240
(dp241
g7
I1
sg8
I00
sg9
I5
sg10
(lp242
g236
a(igraph
Vertex
p243
(dp244
g14
F0.49999999999999989
sg8
I00
sg15
g24
sg16
F75.0
sg17
F-353.99999999999994
sg18
I582260
sg19
S'1344.52768299'
p245
sg21
F0.5
sbasg26
I00
sg27
I00
sg28
I582056
sg19
S'1344.58123393'
p246
sba(igraph
Edge
p247
(dp248
g7
I1
sg8
I00
sg9
I5
sg10
(lp249
g243
a(igraph
Vertex
p250
(dp251
g14
F0.58333333333333326
sg8
I00
sg15
g24
sg16
F75.0
sg17
F-388.0
sg18
I582261
sg19
S'1344.52822132'
p252
sg21
F0.5
sbasg26
I00
sg27
I00
sg28
I582057
sg19
S'1344.58281821'
p253
sba(igraph
Edge
p254
(dp255
g7
I1
sg8
I00
sg9
I5
sg10
(lp256
g250
a(igraph
Vertex
p257
(dp258
g14
F0.66666666666666663
sg8
I01
sg15
I0
sg16
F75.0
sg17
F-422.0
sg18
I582263
sg19
S'1344.52877475'
p259
sg21
F0.5
sbasg26
I00
sg27
I00
sg28
I582058
sg19
S'1344.58443014'
p260
sba(igraph
Edge
p261
(dp262
g7
I1
sg8
I00
sg9
I5
sg10
(lp263
g257
a(igraph
Vertex
p264
(dp265
g14
F0.75
sg8
I00
sg15
g24
sg16
F75.0
sg17
F-456.0
sg18
I582265
sg19
S'1344.52934018'
p266
sg21
F0.5
sbasg26
I00
sg27
I00
sg28
I582059
sg19
S'1344.58647789'
p267
sba(igraph
Edge
p268
(dp269
g7
I1
sg8
I00
sg9
I5
sg10
(lp270
g264
a(igraph
Vertex
p271
(dp272
g14
F0.83333333333333337
sg8
I00
sg15
g24
sg16
F75.0
sg17
F-490.0
sg18
I582266
sg19
S'1344.52992126'
p273
sg21
F0.5
sbasg26
I00
sg27
I00
sg28
I582060
sg19
S'1344.5881999'
p274
sba(igraph
Edge
p275
(dp276
g7
I1
sg8
I00
sg9
I5
sg10
(lp277
g271
a(igraph
Vertex
p278
(dp279
g14
F0.91666666666666663
sg8
I00
sg15
g24
sg16
F75.0
sg17
F-524.0
sg18
I582267
sg19
S'1344.53051491'
p280
sg21
F0.5
sbasg26
I00
sg27
I00
sg28
I582061
sg19
S'1344.58996521'
p281
sba(igraph
Edge
p282
(dp283
g7
I1
sg8
I00
sg9
I5
sg10
(lp284
g278
a(igraph
Vertex
p285
(dp286
g14
F1.0
sg8
I00
sg15
g24
sg16
F75.0
sg17
F-558.0
sg18
I582268
sg19
S'1344.53113007'
p287
sg21
F0.5
sbasg26
I00
sg27
I00
sg28
I582062
sg19
S'1344.59187215'
p288
sba(igraph
Edge
p289
(dp290
g7
I1
sg8
I00
sg9
I5
sg10
(lp291
g285
ag205
asg26
I00
sg27
I00
sg28
I582063
sg19
S'1344.59374166'
p292
sba(igraph
Edge
p293
(dp294
g7
I1
sg8
I00
sg9
I5
sg10
(lp295
(igraph
Vertex
p296
(dp297
g14
F0.0
sg8
I00
sg15
g24
sg16
F137.5
sg17
F-150.0
sg18
I582269
sg19
S'1344.53175809'
p298
sg21
F0.75
sba(igraph
Vertex
p299
(dp300
g14
F0.083333333333333329
sg8
I00
sg15
g24
sg16
F137.5
sg17
F-184.0
sg18
I582270
sg19
S'1344.53250287'
p301
sg21
F0.75
sbasg26
I00
sg27
I00
sg28
I582064
sg19
S'1344.59565811'
p302
sba(igraph
Edge
p303
(dp304
g7
I1
sg8
I00
sg9
I5
sg10
(lp305
g299
a(igraph
Vertex
p306
(dp307
g14
F0.16666666666666666
sg8
I00
sg15
g24
sg16
F137.5
sg17
F-218.0
sg18
I582271
sg19
S'1344.53317056'
p308
sg21
F0.75
sbasg26
I00
sg27
I00
sg28
I582065
sg19
S'1344.59772345'
p309
sba(igraph
Edge
p310
(dp311
g7
I1
sg8
I00
sg9
I5
sg10
(lp312
g306
a(igraph
Vertex
p313
(dp314
g14
F0.25
sg8
I00
sg15
g24
sg16
F137.5
sg17
F-252.0
sg18
I582272
sg19
S'1344.53385472'
p315
sg21
F0.75
sbasg26
I00
sg27
I00
sg28
I582066
sg19
S'1344.59975053'
p316
sba(igraph
Edge
p317
(dp318
g7
I1
sg8
I00
sg9
I5
sg10
(lp319
g313
a(igraph
Vertex
p320
(dp321
g14
F0.33333333333333331
sg8
I00
sg15
g24
sg16
F137.5
sg17
F-286.0
sg18
I582273
sg19
S'1344.53454978'
p322
sg21
F0.75
sbasg26
I00
sg27
I00
sg28
I582067
sg19
S'1344.60182342'
p323
sba(igraph
Edge
p324
(dp325
g7
I1
sg8
I00
sg9
I5
sg10
(lp326
g320
a(igraph
Vertex
p327
(dp328
g14
F0.41666666666666663
sg8
I00
sg15
g24
sg16
F137.5
sg17
F-320.0
sg18
I582274
sg19
S'1344.53526384'
p329
sg21
F0.75
sbasg26
I00
sg27
I00
sg28
I582068
sg19
S'1344.60502215'
p330
sba(igraph
Edge
p331
(dp332
g7
I1
sg8
I00
sg9
I5
sg10
(lp333
g327
a(igraph
Vertex
p334
(dp335
g14
F0.49999999999999989
sg8
I00
sg15
g24
sg16
F137.5
sg17
F-353.99999999999994
sg18
I582275
sg19
S'1344.53598879'
p336
sg21
F0.75
sbasg26
I00
sg27
I00
sg28
I582069
sg19
S'1344.6072973'
p337
sba(igraph
Edge
p338
(dp339
g7
I1
sg8
I00
sg9
I5
sg10
(lp340
g334
a(igraph
Vertex
p341
(dp342
g14
F0.58333333333333326
sg8
I00
sg15
g24
sg16
F137.5
sg17
F-388.0
sg18
I582276
sg19
S'1344.53673023'
p343
sg21
F0.75
sbasg26
I00
sg27
I00
sg28
I582070
sg19
S'1344.60972191'
p344
sba(igraph
Edge
p345
(dp346
g7
I1
sg8
I00
sg9
I5
sg10
(lp347
g341
a(igraph
Vertex
p348
(dp349
g14
F0.66666666666666663
sg8
I00
sg15
g24
sg16
F137.5
sg17
F-422.0
sg18
I582277
sg19
S'1344.53748982'
p350
sg21
F0.75
sbasg26
I00
sg27
I00
sg28
I582071
sg19
S'1344.61238342'
p351
sba(igraph
Edge
p352
(dp353
g7
I1
sg8
I00
sg9
I5
sg10
(lp354
g348
a(igraph
Vertex
p355
(dp356
g14
F0.75
sg8
I00
sg15
g24
sg16
F137.5
sg17
F-456.0
sg18
I582278
sg19
S'1344.53848324'
p357
sg21
F0.75
sbasg26
I00
sg27
I00
sg28
I582072
sg19
S'1344.61472031'
p358
sba(igraph
Edge
p359
(dp360
g7
I1
sg8
I00
sg9
I5
sg10
(lp361
g355
a(igraph
Vertex
p362
(dp363
g14
F0.83333333333333337
sg8
I01
sg15
I0
sg16
F137.5
sg17
F-490.0
sg18
I582280
sg19
S'1344.53928893'
p364
sg21
F0.75
sbasg26
I00
sg27
I00
sg28
I582073
sg19
S'1344.61717928'
p365
sba(igraph
Edge
p366
(dp367
g7
I1
sg8
I00
sg9
I5
sg10
(lp368
g362
a(igraph
Vertex
p369
(dp370
g14
F0.91666666666666663
sg8
I00
sg15
g24
sg16
F137.5
sg17
F-524.0
sg18
I582282
sg19
S'1344.54010552'
p371
sg21
F0.75
sbasg26
I00
sg27
I00
sg28
I582074
sg19
S'1344.61958852'
p372
sba(igraph
Edge
p373
(dp374
g7
I1
sg8
I00
sg9
I5
sg10
(lp375
g369
a(igraph
Vertex
p376
(dp377
g14
F1.0
sg8
I00
sg15
g24
sg16
F137.5
sg17
F-558.0
sg18
I582283
sg19
S'1344.5409397'
p378
sg21
F0.75
sbasg26
I00
sg27
I00
sg28
I582075
sg19
S'1344.62213941'
p379
sba(igraph
Edge
p380
(dp381
g7
I1
sg8
I00
sg9
I5
sg10
(lp382
g376
ag296
asg26
I00
sg27
I00
sg28
I582076
sg19
S'1344.62464783'
p383
sba(igraph
Edge
p384
(dp385
g7
I1
sg8
I00
sg9
I5
sg10
(lp386
(igraph
Vertex
p387
(dp388
g14
F0.0
sg8
I00
sg15
g24
sg16
F200.0
sg17
F-150.0
sg18
I582284
sg19
S'1344.54178785'
p389
sg21
F1.0
sba(igraph
Vertex
p390
(dp391
g14
F0.083333333333333329
sg8
I00
sg15
g24
sg16
F200.0
sg17
F-184.0
sg18
I582285
sg19
S'1344.54265835'
p392
sg21
F1.0
sbasg26
I00
sg27
I00
sg28
I582077
sg19
S'1344.62741494'
p393
sba(igraph
Edge
p394
(dp395
g7
I1
sg8
I00
sg9
I5
sg10
(lp396
g390
a(igraph
Vertex
p397
(dp398
g14
F0.16666666666666666
sg8
I00
sg15
g24
sg16
F200.0
sg17
F-218.0
sg18
I582286
sg19
S'1344.54354478'
p399
sg21
F1.0
sbasg26
I00
sg27
I00
sg28
I582078
sg19
S'1344.63001527'
p400
sba(igraph
Edge
p401
(dp402
g7
I1
sg8
I00
sg9
I5
sg10
(lp403
g397
a(igraph
Vertex
p404
(dp405
g14
F0.25
sg8
I00
sg15
g24
sg16
F200.0
sg17
F-252.0
sg18
I582287
sg19
S'1344.5445586'
p406
sg21
F1.0
sbasg26
I00
sg27
I00
sg28
I582079
sg19
S'1344.63289664'
p407
sba(igraph
Edge
p408
(dp409
g7
I1
sg8
I00
sg9
I5
sg10
(lp410
g404
a(igraph
Vertex
p411
(dp412
g14
F0.33333333333333331
sg8
I00
sg15
g24
sg16
F200.0
sg17
F-286.0
sg18
I582288
sg19
S'1344.54548637'
p413
sg21
F1.0
sbasg26
I00
sg27
I00
sg28
I582080
sg19
S'1344.63570146'
p414
sba(igraph
Edge
p415
(dp416
g7
I1
sg8
I00
sg9
I5
sg10
(lp417
g411
a(igraph
Vertex
p418
(dp419
g14
F0.41666666666666663
sg8
I00
sg15
g24
sg16
F200.0
sg17
F-320.0
sg18
I582289
sg19
S'1344.54656472'
p420
sg21
F1.0
sbasg26
I00
sg27
I00
sg28
I582081
sg19
S'1344.63851383'
p421
sba(igraph
Edge
p422
(dp423
g7
I1
sg8
I00
sg9
I5
sg10
(lp424
g418
a(igraph
Vertex
p425
(dp426
g14
F0.49999999999999989
sg8
I00
sg15
g24
sg16
F200.0
sg17
F-353.99999999999994
sg18
I582290
sg19
S'1344.54751903'
p427
sg21
F1.0
sbasg26
I00
sg27
I00
sg28
I582082
sg19
S'1344.6412938'
p428
sba(igraph
Edge
p429
(dp430
g7
I1
sg8
I00
sg9
I5
sg10
(lp431
g425
a(igraph
Vertex
p432
(dp433
g14
F0.58333333333333326
sg8
I00
sg15
g24
sg16
F200.0
sg17
F-388.0
sg18
I582291
sg19
S'1344.54848787'
p434
sg21
F1.0
sbasg26
I00
sg27
I00
sg28
I582083
sg19
S'1344.64421428'
p435
sba(igraph
Edge
p436
(dp437
g7
I1
sg8
I00
sg9
I5
sg10
(lp438
g432
a(igraph
Vertex
p439
(dp440
g14
F0.66666666666666663
sg8
I00
sg15
g24
sg16
F200.0
sg17
F-422.0
sg18
I582292
sg19
S'1344.54957124'
p441
sg21
F1.0
sbasg26
I00
sg27
I00
sg28
I582084
sg19
S'1344.64708755'
p442
sba(igraph
Edge
p443
(dp444
g7
I1
sg8
I00
sg9
I5
sg10
(lp445
g439
a(igraph
Vertex
p446
(dp447
g14
F0.75
sg8
I01
sg15
I0
sg16
F200.0
sg17
F-456.0
sg18
I582294
sg19
S'1344.55058227'
p448
sg21
F1.0
sbasg26
I00
sg27
I00
sg28
I582085
sg19
S'1344.65021811'
p449
sba(igraph
Edge
p450
(dp451
g7
I1
sg8
I00
sg9
I5
sg10
(lp452
g446
a(igraph
Vertex
p453
(dp454
g14
F0.83333333333333337
sg8
I00
sg15
g24
sg16
F200.0
sg17
F-490.0
sg18
I582296
sg19
S'1344.55160558'
p455
sg21
F1.0
sbasg26
I00
sg27
I00
sg28
I582086
sg19
S'1344.65319279'
p456
sba(igraph
Edge
p457
(dp458
g7
I1
sg8
I00
sg9
I5
sg10
(lp459
g453
a(igraph
Vertex
p460
(dp461
g14
F0.91666666666666663
sg8
I00
sg15
g24
sg16
F200.0
sg17
F-524.0
sg18
I582297
sg19
S'1344.55264845'
p462
sg21
F1.0
sbasg26
I00
sg27
I00
sg28
I582087
sg19
S'1344.65644432'
p463
sba(igraph
Edge
p464
(dp465
g7
I1
sg8
I00
sg9
I5
sg10
(lp466
g460
a(igraph
Vertex
p467
(dp468
g14
F1.0
sg8
I01
sg15
I0
sg16
F200.0
sg17
F-558.0
sg18
I582299
sg19
S'1344.55370641'
p469
sg21
F1.0
sbasg26
I00
sg27
I00
sg28
I582088
sg19
S'1344.65958495'
p470
sba(igraph
Edge
p471
(dp472
g7
I1
sg8
I00
sg9
I5
sg10
(lp473
g467
ag387
asg26
I00
sg27
I00
sg28
I582089
sg19
S'1344.66277613'
p474
sba(igraph
Edge
p475
(dp476
g7
I1
sg8
I00
sg9
I5
sg10
(lp477
g12
ag114
asg26
I00
sg27
I00
sg28
I582090
sg19
S'1344.66604834'
p478
sba(igraph
Edge
p479
(dp480
g7
I1
sg8
I00
sg9
I5
sg10
(lp481
g22
ag124
asg26
I00
sg27
I00
sg28
I582091
sg19
S'1344.6694172'
p482
sba(igraph
Edge
p483
(dp484
g7
I1
sg8
I00
sg9
I5
sg10
(lp485
g33
ag124
asg26
I00
sg27
I00
sg28
I582092
sg19
S'1344.67281791'
p486
sba(igraph
Edge
p487
(dp488
g7
I1
sg8
I00
sg9
I5
sg10
(lp489
g40
ag138
asg26
I00
sg27
I00
sg28
I582093
sg19
S'1344.67621332'
p490
sba(igraph
Edge
p491
(dp492
g7
I1
sg8
I00
sg9
I5
sg10
(lp493
g47
ag138
asg26
I00
sg27
I00
sg28
I582094
sg19
S'1344.67987775'
p494
sba(igraph
Edge
p495
(dp496
g7
I1
sg8
I00
sg9
I5
sg10
(lp497
g54
ag152
asg26
I00
sg27
I00
sg28
I582095
sg19
S'1344.68239651'
p498
sba(igraph
Edge
p499
(dp500
g7
I1
sg8
I00
sg9
I5
sg10
(lp501
g61
ag152
asg26
I00
sg27
I00
sg28
I582096
sg19
S'1344.68407856'
p502
sba(igraph
Edge
p503
(dp504
g7
I1
sg8
I00
sg9
I5
sg10
(lp505
g68
ag166
asg26
I00
sg27
I00
sg28
I582097
sg19
S'1344.68570726'
p506
sba(igraph
Edge
p507
(dp508
g7
I1
sg8
I00
sg9
I5
sg10
(lp509
g75
ag166
asg26
I00
sg27
I00
sg28
I582098
sg19
S'1344.68735356'
p510
sba(igraph
Edge
p511
(dp512
g7
I1
sg8
I00
sg9
I5
sg10
(lp513
g82
ag180
asg26
I00
sg27
I00
sg28
I582099
sg19
S'1344.6890264'
p514
sba(igraph
Edge
p515
(dp516
g7
I1
sg8
I00
sg9
I5
sg10
(lp517
g89
ag180
asg26
I00
sg27
I00
sg28
I582100
sg19
S'1344.69084311'
p518
sba(igraph
Edge
p519
(dp520
g7
I1
sg8
I00
sg9
I5
sg10
(lp521
g96
ag194
asg26
I00
sg27
I00
sg28
I582101
sg19
S'1344.69257908'
p522
sba(igraph
Edge
p523
(dp524
g7
I1
sg8
I00
sg9
I5
sg10
(lp525
g103
ag194
asg26
I00
sg27
I00
sg28
I582102
sg19
S'1344.69432037'
p526
sba(igraph
Edge
p527
(dp528
g7
I1
sg8
I00
sg9
I5
sg10
(lp529
g12
ag117
asg26
I00
sg27
I00
sg28
I582103
sg19
S'1344.6961354'
p530
sba(igraph
Edge
p531
(dp532
g7
I1
sg8
I00
sg9
I5
sg10
(lp533
g22
ag117
asg26
I00
sg27
I00
sg28
I582104
sg19
S'1344.69790127'
p534
sba(igraph
Edge
p535
(dp536
g7
I1
sg8
I00
sg9
I5
sg10
(lp537
g33
ag131
asg26
I00
sg27
I00
sg28
I582105
sg19
S'1344.69968194'
p538
sba(igraph
Edge
p539
(dp540
g7
I1
sg8
I00
sg9
I5
sg10
(lp541
g40
ag131
asg26
I00
sg27
I00
sg28
I582106
sg19
S'1344.70250772'
p542
sba(igraph
Edge
p543
(dp544
g7
I1
sg8
I00
sg9
I5
sg10
(lp545
g47
ag145
asg26
I00
sg27
I00
sg28
I582107
sg19
S'1344.70442361'
p546
sba(igraph
Edge
p547
(dp548
g7
I1
sg8
I00
sg9
I5
sg10
(lp549
g54
ag145
asg26
I00
sg27
I00
sg28
I582108
sg19
S'1344.70729744'
p550
sba(igraph
Edge
p551
(dp552
g7
I1
sg8
I00
sg9
I5
sg10
(lp553
g61
ag159
asg26
I00
sg27
I00
sg28
I582109
sg19
S'1344.70920801'
p554
sba(igraph
Edge
p555
(dp556
g7
I1
sg8
I00
sg9
I5
sg10
(lp557
g68
ag159
asg26
I00
sg27
I00
sg28
I582110
sg19
S'1344.71107864'
p558
sba(igraph
Edge
p559
(dp560
g7
I1
sg8
I00
sg9
I5
sg10
(lp561
g75
ag173
asg26
I00
sg27
I00
sg28
I582111
sg19
S'1344.71309398'
p562
sba(igraph
Edge
p563
(dp564
g7
I1
sg8
I00
sg9
I5
sg10
(lp565
g82
ag173
asg26
I00
sg27
I00
sg28
I582112
sg19
S'1344.71506295'
p566
sba(igraph
Edge
p567
(dp568
g7
I1
sg8
I00
sg9
I5
sg10
(lp569
g89
ag187
asg26
I00
sg27
I00
sg28
I582113
sg19
S'1344.71700062'
p570
sba(igraph
Edge
p571
(dp572
g7
I1
sg8
I00
sg9
I5
sg10
(lp573
g96
ag187
asg26
I00
sg27
I00
sg28
I582114
sg19
S'1344.71902518'
p574
sba(igraph
Edge
p575
(dp576
g7
I1
sg8
I00
sg9
I5
sg10
(lp577
g103
ag114
asg26
I00
sg27
I00
sg28
I582115
sg19
S'1344.72104555'
p578
sba(igraph
Edge
p579
(dp580
g7
I1
sg8
I00
sg9
I5
sg10
(lp581
g12
ag387
asg26
I00
sg27
I00
sg28
I582116
sg19
S'1344.72311118'
p582
sba(igraph
Edge
p583
(dp584
g7
I1
sg8
I00
sg9
I5
sg10
(lp585
g22
ag387
asg26
I00
sg27
I00
sg28
I582117
sg19
S'1344.725407'
p586
sba(igraph
Edge
p587
(dp588
g7
I1
sg8
I00
sg9
I5
sg10
(lp589
g33
ag397
asg26
I00
sg27
I00
sg28
I582118
sg19
S'1344.72749609'
p590
sba(igraph
Edge
p591
(dp592
g7
I1
sg8
I00
sg9
I5
sg10
(lp593
g40
ag397
asg26
I00
sg27
I00
sg28
I582119
sg19
S'1344.72968268'
p594
sba(igraph
Edge
p595
(dp596
g7
I1
sg8
I00
sg9
I5
sg10
(lp597
g47
ag411
asg26
I00
sg27
I00
sg28
I582120
sg19
S'1344.73181619'
p598
sba(igraph
Edge
p599
(dp600
g7
I1
sg8
I00
sg9
I5
sg10
(lp601
g54
ag411
asg26
I00
sg27
I00
sg28
I582121
sg19
S'1344.73399552'
p602
sba(igraph
Edge
p603
(dp604
g7
I1
sg8
I00
sg9
I5
sg10
(lp605
g61
ag425
asg26
I00
sg27
I00
sg28
I582122
sg19
S'1344.73627514'
p606
sba(igraph
Edge
p607
(dp608
g7
I1
sg8
I00
sg9
I5
sg10
(lp609
g68
ag425
asg26
I00
sg27
I00
sg28
I582123
sg19
S'1344.73849945'
p610
sba(igraph
Edge
p611
(dp612
g7
I1
sg8
I00
sg9
I5
sg10
(lp613
g75
ag439
asg26
I00
sg27
I00
sg28
I582124
sg19
S'1344.74082991'
p614
sba(igraph
Edge
p615
(dp616
g7
I1
sg8
I00
sg9
I5
sg10
(lp617
g82
ag439
asg26
I00
sg27
I00
sg28
I582125
sg19
S'1344.74318943'
p618
sba(igraph
Edge
p619
(dp620
g7
I1
sg8
I00
sg9
I5
sg10
(lp621
g89
ag453
asg26
I00
sg27
I00
sg28
I582126
sg19
S'1344.74552017'
p622
sba(igraph
Edge
p623
(dp624
g7
I1
sg8
I00
sg9
I5
sg10
(lp625
g96
ag453
asg26
I00
sg27
I00
sg28
I582127
sg19
S'1344.74808363'
p626
sba(igraph
Edge
p627
(dp628
g7
I1
sg8
I00
sg9
I5
sg10
(lp629
g103
ag467
asg26
I00
sg27
I00
sg28
I582128
sg19
S'1344.75043895'
p630
sba(igraph
Edge
p631
(dp632
g7
I1
sg8
I00
sg9
I5
sg10
(lp633
g12
ag467
asg26
I00
sg27
I00
sg28
I582129
sg19
S'1344.75294402'
p634
sba(igraph
Edge
p635
(dp636
g7
I1
sg8
I00
sg9
I5
sg10
(lp637
g22
ag390
asg26
I00
sg27
I00
sg28
I582130
sg19
S'1344.75541528'
p638
sba(igraph
Edge
p639
(dp640
g7
I1
sg8
I00
sg9
I5
sg10
(lp641
g33
ag390
asg26
I00
sg27
I00
sg28
I582131
sg19
S'1344.76552132'
p642
sba(igraph
Edge
p643
(dp644
g7
I1
sg8
I00
sg9
I5
sg10
(lp645
g40
ag404
asg26
I00
sg27
I00
sg28
I582132
sg19
S'1344.76794313'
p646
sba(igraph
Edge
p647
(dp648
g7
I1
sg8
I00
sg9
I5
sg10
(lp649
g47
ag404
asg26
I00
sg27
I00
sg28
I582133
sg19
S'1344.77115723'
p650
sba(igraph
Edge
p651
(dp652
g7
I1
sg8
I00
sg9
I5
sg10
(lp653
g54
ag418
asg26
I00
sg27
I00
sg28
I582134
sg19
S'1344.77499543'
p654
sba(igraph
Edge
p655
(dp656
g7
I1
sg8
I00
sg9
I5
sg10
(lp657
g61
ag418
asg26
I00
sg27
I00
sg28
I582135
sg19
S'1344.77751502'
p658
sba(igraph
Edge
p659
(dp660
g7
I1
sg8
I00
sg9
I5
sg10
(lp661
g68
ag432
asg26
I00
sg27
I00
sg28
I582136
sg19
S'1344.78395355'
p662
sba(igraph
Edge
p663
(dp664
g7
I1
sg8
I00
sg9
I5
sg10
(lp665
g75
ag432
asg26
I00
sg27
I00
sg28
I582137
sg19
S'1344.78671116'
p666
sba(igraph
Edge
p667
(dp668
g7
I1
sg8
I00
sg9
I5
sg10
(lp669
g82
ag446
asg26
I00
sg27
I00
sg28
I582138
sg19
S'1344.78950956'
p670
sba(igraph
Edge
p671
(dp672
g7
I1
sg8
I00
sg9
I5
sg10
(lp673
g89
ag446
asg26
I00
sg27
I00
sg28
I582139
sg19
S'1344.79218644'
p674
sba(igraph
Edge
p675
(dp676
g7
I1
sg8
I00
sg9
I5
sg10
(lp677
g96
ag460
asg26
I00
sg27
I00
sg28
I582140
sg19
S'1344.79516307'
p678
sba(igraph
Edge
p679
(dp680
g7
I1
sg8
I00
sg9
I5
sg10
(lp681
g103
ag460
asg26
I00
sg27
I00
sg28
I582141
sg19
S'1344.79797823'
p682
sba(igraph
Edge
p683
(dp684
g7
I1
sg8
I00
sg9
I5
sg10
(lp685
g114
ag205
asg26
I00
sg27
I00
sg28
I582142
sg19
S'1344.80071573'
p686
sba(igraph
Edge
p687
(dp688
g7
I1
sg8
I00
sg9
I5
sg10
(lp689
g117
ag215
asg26
I00
sg27
I00
sg28
I582143
sg19
S'1344.80348368'
p690
sba(igraph
Edge
p691
(dp692
g7
I1
sg8
I00
sg9
I5
sg10
(lp693
g124
ag215
asg26
I00
sg27
I00
sg28
I582144
sg19
S'1344.80626281'
p694
sba(igraph
Edge
p695
(dp696
g7
I1
sg8
I00
sg9
I5
sg10
(lp697
g131
ag229
asg26
I00
sg27
I00
sg28
I582145
sg19
S'1344.80896958'
p698
sba(igraph
Edge
p699
(dp700
g7
I1
sg8
I00
sg9
I5
sg10
(lp701
g138
ag229
asg26
I00
sg27
I00
sg28
I582146
sg19
S'1344.8117121'
p702
sba(igraph
Edge
p703
(dp704
g7
I1
sg8
I00
sg9
I5
sg10
(lp705
g145
ag243
asg26
I00
sg27
I00
sg28
I582147
sg19
S'1344.81447921'
p706
sba(igraph
Edge
p707
(dp708
g7
I1
sg8
I00
sg9
I5
sg10
(lp709
g152
ag243
asg26
I00
sg27
I00
sg28
I582148
sg19
S'1344.8173089'
p710
sba(igraph
Edge
p711
(dp712
g7
I1
sg8
I00
sg9
I5
sg10
(lp713
g159
ag257
asg26
I00
sg27
I00
sg28
I582149
sg19
S'1344.82015172'
p714
sba(igraph
Edge
p715
(dp716
g7
I1
sg8
I00
sg9
I5
sg10
(lp717
g166
ag257
asg26
I00
sg27
I00
sg28
I582150
sg19
S'1344.82296577'
p718
sba(igraph
Edge
p719
(dp720
g7
I1
sg8
I00
sg9
I5
sg10
(lp721
g173
ag271
asg26
I00
sg27
I00
sg28
I582151
sg19
S'1344.82576054'
p722
sba(igraph
Edge
p723
(dp724
g7
I1
sg8
I00
sg9
I5
sg10
(lp725
g180
ag271
asg26
I00
sg27
I00
sg28
I582152
sg19
S'1344.82857095'
p726
sba(igraph
Edge
p727
(dp728
g7
I1
sg8
I00
sg9
I5
sg10
(lp729
g187
ag285
asg26
I00
sg27
I00
sg28
I582153
sg19
S'1344.83140762'
p730
sba(igraph
Edge
p731
(dp732
g7
I1
sg8
I00
sg9
I5
sg10
(lp733
g194
ag285
asg26
I00
sg27
I00
sg28
I582154
sg19
S'1344.83427056'
p734
sba(igraph
Edge
p735
(dp736
g7
I1
sg8
I00
sg9
I5
sg10
(lp737
g114
ag208
asg26
I00
sg27
I00
sg28
I582155
sg19
S'1344.83717204'
p738
sba(igraph
Edge
p739
(dp740
g7
I1
sg8
I00
sg9
I5
sg10
(lp741
g117
ag208
asg26
I00
sg27
I00
sg28
I582156
sg19
S'1344.84008107'
p742
sba(igraph
Edge
p743
(dp744
g7
I1
sg8
I00
sg9
I5
sg10
(lp745
g124
ag222
asg26
I00
sg27
I00
sg28
I582157
sg19
S'1344.84303648'
p746
sba(igraph
Edge
p747
(dp748
g7
I1
sg8
I00
sg9
I5
sg10
(lp749
g131
ag222
asg26
I00
sg27
I00
sg28
I582158
sg19
S'1344.84598406'
p750
sba(igraph
Edge
p751
(dp752
g7
I1
sg8
I00
sg9
I5
sg10
(lp753
g138
ag236
asg26
I00
sg27
I00
sg28
I582159
sg19
S'1344.84892856'
p754
sba(igraph
Edge
p755
(dp756
g7
I1
sg8
I00
sg9
I5
sg10
(lp757
g145
ag236
asg26
I00
sg27
I00
sg28
I582160
sg19
S'1344.85220524'
p758
sba(igraph
Edge
p759
(dp760
g7
I1
sg8
I00
sg9
I5
sg10
(lp761
g152
ag250
asg26
I00
sg27
I00
sg28
I582161
sg19
S'1344.85522378'
p762
sba(igraph
Edge
p763
(dp764
g7
I1
sg8
I00
sg9
I5
sg10
(lp765
g159
ag250
asg26
I00
sg27
I00
sg28
I582162
sg19
S'1344.85822975'
p766
sba(igraph
Edge
p767
(dp768
g7
I1
sg8
I00
sg9
I5
sg10
(lp769
g166
ag264
asg26
I00
sg27
I00
sg28
I582163
sg19
S'1344.86125136'
p770
sba(igraph
Edge
p771
(dp772
g7
I1
sg8
I00
sg9
I5
sg10
(lp773
g173
ag264
asg26
I00
sg27
I00
sg28
I582164
sg19
S'1344.86429895'
p774
sba(igraph
Edge
p775
(dp776
g7
I1
sg8
I00
sg9
I5
sg10
(lp777
g180
ag278
asg26
I00
sg27
I00
sg28
I582165
sg19
S'1344.86738175'
p778
sba(igraph
Edge
p779
(dp780
g7
I1
sg8
I00
sg9
I5
sg10
(lp781
g187
ag278
asg26
I00
sg27
I00
sg28
I582166
sg19
S'1344.87049471'
p782
sba(igraph
Edge
p783
(dp784
g7
I1
sg8
I00
sg9
I5
sg10
(lp785
g194
ag205
asg26
I00
sg27
I00
sg28
I582167
sg19
S'1344.87367417'
p786
sba(igraph
Edge
p787
(dp788
g7
I1
sg8
I00
sg9
I5
sg10
(lp789
g205
ag296
asg26
I00
sg27
I00
sg28
I582168
sg19
S'1344.87686815'
p790
sba(igraph
Edge
p791
(dp792
g7
I1
sg8
I00
sg9
I5
sg10
(lp793
g208
ag306
asg26
I00
sg27
I00
sg28
I582169
sg19
S'1344.88005431'
p794
sba(igraph
Edge
p795
(dp796
g7
I1
sg8
I00
sg9
I5
sg10
(lp797
g215
ag306
asg26
I00
sg27
I00
sg28
I582170
sg19
S'1344.88330724'
p798
sba(igraph
Edge
p799
(dp800
g7
I1
sg8
I00
sg9
I5
sg10
(lp801
g222
ag320
asg26
I00
sg27
I00
sg28
I582171
sg19
S'1344.88665487'
p802
sba(igraph
Edge
p803
(dp804
g7
I1
sg8
I00
sg9
I5
sg10
(lp805
g229
ag320
asg26
I00
sg27
I00
sg28
I582172
sg19
S'1344.88990388'
p806
sba(igraph
Edge
p807
(dp808
g7
I1
sg8
I00
sg9
I5
sg10
(lp809
g236
ag334
asg26
I00
sg27
I00
sg28
I582173
sg19
S'1344.89324202'
p810
sba(igraph
Edge
p811
(dp812
g7
I1
sg8
I00
sg9
I5
sg10
(lp813
g243
ag334
asg26
I00
sg27
I00
sg28
I582174
sg19
S'1344.89653964'
p814
sba(igraph
Edge
p815
(dp816
g7
I1
sg8
I00
sg9
I5
sg10
(lp817
g250
ag348
asg26
I00
sg27
I00
sg28
I582175
sg19
S'1344.8998789'
p818
sba(igraph
Edge
p819
(dp820
g7
I1
sg8
I00
sg9
I5
sg10
(lp821
g257
ag348
asg26
I00
sg27
I00
sg28
I582176
sg19
S'1344.90323742'
p822
sba(igraph
Edge
p823
(dp824
g7
I1
sg8
I00
sg9
I5
sg10
(lp825
g264
ag362
asg26
I00
sg27
I00
sg28
I582177
sg19
S'1344.90663115'
p826
sba(igraph
Edge
p827
(dp828
g7
I1
sg8
I00
sg9
I5
sg10
(lp829
g271
ag362
asg26
I00
sg27
I00
sg28
I582178
sg19
S'1344.91000812'
p830
sba(igraph
Edge
p831
(dp832
g7
I1
sg8
I00
sg9
I5
sg10
(lp833
g278
ag376
asg26
I00
sg27
I00
sg28
I582179
sg19
S'1344.91344431'
p834
sba(igraph
Edge
p835
(dp836
g7
I1
sg8
I00
sg9
I5
sg10
(lp837
g285
ag376
asg26
I00
sg27
I00
sg28
I582180
sg19
S'1344.91686904'
p838
sba(igraph
Edge
p839
(dp840
g7
I1
sg8
I00
sg9
I5
sg10
(lp841
g205
ag299
asg26
I00
sg27
I00
sg28
I582181
sg19
S'1344.92054521'
p842
sba(igraph
Edge
p843
(dp844
g7
I1
sg8
I00
sg9
I5
sg10
(lp845
g208
ag299
asg26
I00
sg27
I00
sg28
I582182
sg19
S'1344.92405236'
p846
sba(igraph
Edge
p847
(dp848
g7
I1
sg8
I00
sg9
I5
sg10
(lp849
g215
ag313
asg26
I00
sg27
I00
sg28
I582183
sg19
S'1344.92755588'
p850
sba(igraph
Edge
p851
(dp852
g7
I1
sg8
I00
sg9
I5
sg10
(lp853
g222
ag313
asg26
I00
sg27
I00
sg28
I582184
sg19
S'1344.93112784'
p854
sba(igraph
Edge
p855
(dp856
g7
I1
sg8
I00
sg9
I5
sg10
(lp857
g229
ag327
asg26
I00
sg27
I00
sg28
I582185
sg19
S'1344.93468555'
p858
sba(igraph
Edge
p859
(dp860
g7
I1
sg8
I00
sg9
I5
sg10
(lp861
g236
ag327
asg26
I00
sg27
I00
sg28
I582186
sg19
S'1344.93837094'
p862
sba(igraph
Edge
p863
(dp864
g7
I1
sg8
I00
sg9
I5
sg10
(lp865
g243
ag341
asg26
I00
sg27
I00
sg28
I582187
sg19
S'1344.94194849'
p866
sba(igraph
Edge
p867
(dp868
g7
I1
sg8
I00
sg9
I5
sg10
(lp869
g250
ag341
asg26
I00
sg27
I00
sg28
I582188
sg19
S'1344.94564058'
p870
sba(igraph
Edge
p871
(dp872
g7
I1
sg8
I00
sg9
I5
sg10
(lp873
g257
ag355
asg26
I00
sg27
I00
sg28
I582189
sg19
S'1344.94922204'
p874
sba(igraph
Edge
p875
(dp876
g7
I1
sg8
I00
sg9
I5
sg10
(lp877
g264
ag355
asg26
I00
sg27
I00
sg28
I582190
sg19
S'1344.95287306'
p878
sba(igraph
Edge
p879
(dp880
g7
I1
sg8
I00
sg9
I5
sg10
(lp881
g271
ag369
asg26
I00
sg27
I00
sg28
I582191
sg19
S'1344.95657297'
p882
sba(igraph
Edge
p883
(dp884
g7
I1
sg8
I00
sg9
I5
sg10
(lp885
g278
ag369
asg26
I00
sg27
I00
sg28
I582192
sg19
S'1344.96025249'
p886
sba(igraph
Edge
p887
(dp888
g7
I1
sg8
I00
sg9
I5
sg10
(lp889
g285
ag296
asg26
I00
sg27
I00
sg28
I582193
sg19
S'1344.9641027'
p890
sba(igraph
Edge
p891
(dp892
g7
I1
sg8
I00
sg9
I5
sg10
(lp893
g296
ag387
asg26
I00
sg27
I00
sg28
I582194
sg19
S'1344.96783614'
p894
sba(igraph
Edge
p895
(dp896
g7
I1
sg8
I00
sg9
I5
sg10
(lp897
g299
ag397
asg26
I00
sg27
I00
sg28
I582195
sg19
S'1344.97160226'
p898
sba(igraph
Edge
p899
(dp900
g7
I1
sg8
I00
sg9
I5
sg10
(lp901
g306
ag397
asg26
I00
sg27
I00
sg28
I582196
sg19
S'1344.97541615'
p902
sba(igraph
Edge
p903
(dp904
g7
I1
sg8
I00
sg9
I5
sg10
(lp905
g313
ag411
asg26
I00
sg27
I00
sg28
I582197
sg19
S'1344.97934933'
p906
sba(igraph
Edge
p907
(dp908
g7
I1
sg8
I00
sg9
I5
sg10
(lp909
g320
ag411
asg26
I00
sg27
I00
sg28
I582198
sg19
S'1344.98313054'
p910
sba(igraph
Edge
p911
(dp912
g7
I1
sg8
I00
sg9
I5
sg10
(lp913
g327
ag425
asg26
I00
sg27
I00
sg28
I582199
sg19
S'1344.98697376'
p914
sba(igraph
Edge
p915
(dp916
g7
I1
sg8
I00
sg9
I5
sg10
(lp917
g334
ag425
asg26
I00
sg27
I00
sg28
I582200
sg19
S'1344.99079241'
p918
sba(igraph
Edge
p919
(dp920
g7
I1
sg8
I00
sg9
I5
sg10
(lp921
g341
ag439
asg26
I00
sg27
I00
sg28
I582201
sg19
S'1344.99463759'
p922
sba(igraph
Edge
p923
(dp924
g7
I1
sg8
I00
sg9
I5
sg10
(lp925
g348
ag439
asg26
I00
sg27
I00
sg28
I582202
sg19
S'1344.99857915'
p926
sba(igraph
Edge
p927
(dp928
g7
I1
sg8
I00
sg9
I5
sg10
(lp929
g355
ag453
asg26
I00
sg27
I00
sg28
I582203
sg19
S'1345.00247685'
p930
sba(igraph
Edge
p931
(dp932
g7
I1
sg8
I00
sg9
I5
sg10
(lp933
g362
ag453
asg26
I00
sg27
I00
sg28
I582204
sg19
S'1345.00656815'
p934
sba(igraph
Edge
p935
(dp936
g7
I1
sg8
I00
sg9
I5
sg10
(lp937
g369
ag467
asg26
I00
sg27
I00
sg28
I582205
sg19
S'1345.01066923'
p938
sba(igraph
Edge
p939
(dp940
g7
I1
sg8
I00
sg9
I5
sg10
(lp941
g376
ag467
asg26
I00
sg27
I00
sg28
I582206
sg19
S'1345.01460968'
p942
sba(igraph
Edge
p943
(dp944
g7
I1
sg8
I00
sg9
I5
sg10
(lp945
g296
ag390
asg26
I00
sg27
I00
sg28
I582207
sg19
S'1345.01871355'
p946
sba(igraph
Edge
p947
(dp948
g7
I1
sg8
I00
sg9
I5
sg10
(lp949
g299
ag390
asg26
I00
sg27
I00
sg28
I582208
sg19
S'1345.0228015'
p950
sba(igraph
Edge
p951
(dp952
g7
I1
sg8
I00
sg9
I5
sg10
(lp953
g306
ag404
asg26
I00
sg27
I00
sg28
I582209
sg19
S'1345.02682631'
p954
sba(igraph
Edge
p955
(dp956
g7
I1
sg8
I00
sg9
I5
sg10
(lp957
g313
ag404
asg26
I00
sg27
I00
sg28
I582210
sg19
S'1345.03092097'
p958
sba(igraph
Edge
p959
(dp960
g7
I1
sg8
I00
sg9
I5
sg10
(lp961
g320
ag418
asg26
I00
sg27
I00
sg28
I582211
sg19
S'1345.03500333'
p962
sba(igraph
Edge
p963
(dp964
g7
I1
sg8
I00
sg9
I5
sg10
(lp965
g327
ag418
asg26
I00
sg27
I00
sg28
I582212
sg19
S'1345.03915945'
p966
sba(igraph
Edge
p967
(dp968
g7
I1
sg8
I00
sg9
I5
sg10
(lp969
g334
ag432
asg26
I00
sg27
I00
sg28
I582213
sg19
S'1345.04321164'
p970
sba(igraph
Edge
p971
(dp972
g7
I1
sg8
I00
sg9
I5
sg10
(lp973
g341
ag432
asg26
I00
sg27
I00
sg28
I582214
sg19
S'1345.04731104'
p974
sba(igraph
Edge
p975
(dp976
g7
I1
sg8
I00
sg9
I5
sg10
(lp977
g348
ag446
asg26
I00
sg27
I00
sg28
I582215
sg19
S'1345.0515884'
p978
sba(igraph
Edge
p979
(dp980
g7
I1
sg8
I00
sg9
I5
sg10
(lp981
g355
ag446
asg26
I00
sg27
I00
sg28
I582216
sg19
S'1345.05575792'
p982
sba(igraph
Edge
p983
(dp984
g7
I1
sg8
I00
sg9
I5
sg10
(lp985
g362
ag460
asg26
I00
sg27
I00
sg28
I582217
sg19
S'1345.05994421'
p986
sba(igraph
Edge
p987
(dp988
g7
I1
sg8
I00
sg9
I5
sg10
(lp989
g369
ag460
asg26
I00
sg27
I00
sg28
I582218
sg19
S'1345.0642266'
p990
sba(igraph
Edge
p991
(dp992
g7
I1
sg8
I00
sg9
I5
sg10
(lp993
g376
ag387
asg26
I00
sg27
I00
sg28
I582219
sg19
S'1345.06849278'
p994
sbasS'vertices'
p995
(lp996
g12
ag22
ag33
ag40
ag47
ag54
ag61
ag68
ag75
ag82
ag89
ag96
ag103
ag114
ag117
ag124
ag131
ag138
ag145
ag152
ag159
ag166
ag173
ag180
ag187
ag194
ag205
ag208
ag215
ag222
ag229
ag236
ag243
ag250
ag257
ag264
ag271
ag278
ag285
ag296
ag299
ag306
ag313
ag320
ag327
ag334
ag341
ag348
ag355
ag362
ag369
ag376
ag387
ag390
ag397
ag404
ag411
ag418
ag425
ag432
ag439
ag446
ag453
ag460
ag467
asS'tags'
p997
(lp998
sb.