(igraph
Graph
p0
(dp1
S'labelingConstraints'
p2
I-1
sS'edges'
p3
(lp4
(igraph
Edge
p5
(dp6
S'direction'
p7
I1
sS'selected'
p8
I00
sS'height'
p9
I5
sS'vs'
p10
(lp11
(igraph
Vertex
p12
(dp13
S'xnorm'
p14
F0.0
sg8
I00
sS'label'
p15
S'NULL'
p16
sS'y'
p17
F-316.0
sS'x'
p18
F156.0
sS'circle'
p19
I216408
sS'id'
p20
S'148.598373816'
p21
sS'ynorm'
p22
F0.0
sba(igraph
Vertex
p23
(dp24
g14
F0.08333333333333337
sg8
I00
sg15
I0
sg17
F-316.0
sg18
F107.66666666666664
sg19
I216409
sg20
S'148.598412927'
p25
sg22
F0.0
sbasS'wrap'
p26
I00
sS'curved'
p27
I00
sS'line'
p28
I215979
sg20
S'148.70316814'
p29
sba(igraph
Edge
p30
(dp31
g7
I1
sg8
I00
sg9
I5
sg10
(lp32
g23
a(igraph
Vertex
p33
(dp34
g14
F0.16666666666666663
sg8
I00
sg15
g16
sg17
F-316.0
sg18
F59.333333333333357
sg19
I216411
sg20
S'148.59845567'
p35
sg22
F0.0
sbasg26
I00
sg27
I00
sg28
I215980
sg20
S'148.703226807'
p36
sba(igraph
Edge
p37
(dp38
g7
I1
sg8
I00
sg9
I5
sg10
(lp39
g33
a(igraph
Vertex
p40
(dp41
g14
F0.25
sg8
I00
sg15
g16
sg17
F-316.0
sg18
F11.0
sg19
I216412
sg20
S'148.59850819'
p42
sg22
F0.0
sbasg26
I00
sg27
I00
sg28
I215981
sg20
S'148.703304191'
p43
sba(igraph
Edge
p44
(dp45
g7
I1
sg8
I00
sg9
I5
sg10
(lp46
g40
a(igraph
Vertex
p47
(dp48
g14
F0.33333333333333326
sg8
I00
sg15
g16
sg17
F-316.0
sg18
F-37.333333333333286
sg19
I216413
sg20
S'148.598573841'
p49
sg22
F0.0
sbasg26
I00
sg27
I00
sg28
I215982
sg20
S'148.70340141'
p50
sba(igraph
Edge
p51
(dp52
g7
I1
sg8
I00
sg9
I5
sg10
(lp53
g47
a(igraph
Vertex
p54
(dp55
g14
F0.41666666666666652
sg8
I00
sg15
g16
sg17
F-316.0
sg18
F-85.666666666666572
sg19
I216414
sg20
S'148.59865374'
p56
sg22
F0.0
sbasg26
I00
sg27
I00
sg28
I215983
sg20
S'148.703520699'
p57
sba(igraph
Edge
p58
(dp59
g7
I1
sg8
I00
sg9
I5
sg10
(lp60
g54
a(igraph
Vertex
p61
(dp62
g14
F0.5
sg8
I00
sg15
g16
sg17
F-316.0
sg18
F-134.0
sg19
I216415
sg20
S'148.598754032'
p63
sg22
F0.0
sbasg26
I00
sg27
I00
sg28
I215984
sg20
S'148.703662616'
p64
sba(igraph
Edge
p65
(dp66
g7
I1
sg8
I00
sg9
I5
sg10
(lp67
g61
a(igraph
Vertex
p68
(dp69
g14
F0.58333333333333326
sg8
I00
sg15
g16
sg17
F-316.0
sg18
F-182.33333333333331
sg19
I216416
sg20
S'148.598866336'
p70
sg22
F0.0
sbasg26
I00
sg27
I00
sg28
I215985
sg20
S'148.703825766'
p71
sba(igraph
Edge
p72
(dp73
g7
I1
sg8
I00
sg9
I5
sg10
(lp74
g68
a(igraph
Vertex
p75
(dp76
g14
F0.66666666666666652
sg8
I00
sg15
g16
sg17
F-316.0
sg18
F-230.66666666666657
sg19
I216417
sg20
S'148.598996241'
p77
sg22
F0.0
sbasg26
I00
sg27
I00
sg28
I215986
sg20
S'148.704009867'
p78
sba(igraph
Edge
p79
(dp80
g7
I1
sg8
I00
sg9
I5
sg10
(lp81
g75
a(igraph
Vertex
p82
(dp83
g14
F0.75
sg8
I00
sg15
g16
sg17
F-316.0
sg18
F-279.0
sg19
I216418
sg20
S'148.599140394'
p84
sg22
F0.0
sbasg26
I00
sg27
I00
sg28
I215987
sg20
S'148.704214362'
p85
sba(igraph
Edge
p86
(dp87
g7
I1
sg8
I00
sg9
I5
sg10
(lp88
g82
a(igraph
Vertex
p89
(dp90
g14
F0.83333333333333348
sg8
I00
sg15
g16
sg17
F-316.0
sg18
F-327.33333333333343
sg19
I216419
sg20
S'148.59930019'
p91
sg22
F0.0
sbasg26
I00
sg27
I00
sg28
I215988
sg20
S'148.704442324'
p92
sba(igraph
Edge
p93
(dp94
g7
I1
sg8
I00
sg9
I5
sg10
(lp95
g89
a(igraph
Vertex
p96
(dp97
g14
F0.91666666666666652
sg8
I00
sg15
I0
sg17
F-316.0
sg18
F-375.66666666666663
sg19
I216420
sg20
S'148.599475632'
p98
sg22
F0.0
sbasg26
I00
sg27
I00
sg28
I215989
sg20
S'148.704691239'
p99
sba(igraph
Edge
p100
(dp101
g7
I1
sg8
I00
sg9
I5
sg10
(lp102
g96
a(igraph
Vertex
p103
(dp104
g14
F1.0
sg8
I00
sg15
g16
sg17
F-316.0
sg18
F-424.0
sg19
I216422
sg20
S'148.599667835'
p105
sg22
F0.0
sbasg26
I00
sg27
I00
sg28
I215990
sg20
S'148.704961105'
p106
sba(igraph
Edge
p107
(dp108
g7
I1
sg8
I00
sg9
I5
sg10
(lp109
g103
ag12
asg26
I00
sg27
I00
sg28
I215991
sg20
S'148.705252763'
p110
sba(igraph
Edge
p111
(dp112
g7
I1
sg8
I00
sg9
I5
sg10
(lp113
(igraph
Vertex
p114
(dp115
g14
F0.0
sg8
I00
sg15
g16
sg17
F-253.0
sg18
F156.0
sg19
I216423
sg20
S'148.599875124'
p116
sg22
F0.10000000000000002
sba(igraph
Vertex
p117
(dp118
g14
F0.08333333333333337
sg8
I00
sg15
g16
sg17
F-253.0
sg18
F107.66666666666664
sg19
I216424
sg20
S'148.600100292'
p119
sg22
F0.10000000000000002
sbasg26
I00
sg27
I00
sg28
I215992
sg20
S'148.705565931'
p120
sba(igraph
Edge
p121
(dp122
g7
I1
sg8
I00
sg9
I5
sg10
(lp123
g117
a(igraph
Vertex
p124
(dp125
g14
F0.16666666666666663
sg8
I00
sg15
g16
sg17
F-253.0
sg18
F59.333333333333357
sg19
I216425
sg20
S'148.600340267'
p126
sg22
F0.10000000000000002
sbasg26
I00
sg27
I00
sg28
I215993
sg20
S'148.705929664'
p127
sba(igraph
Edge
p128
(dp129
g7
I1
sg8
I00
sg9
I5
sg10
(lp130
g124
a(igraph
Vertex
p131
(dp132
g14
F0.25
sg8
I00
sg15
I0
sg17
F-253.0
sg18
F11.0
sg19
I216426
sg20
S'148.600684445'
p133
sg22
F0.10000000000000002
sbasg26
I00
sg27
I00
sg28
I215994
sg20
S'148.706289487'
p134
sba(igraph
Edge
p135
(dp136
g7
I1
sg8
I00
sg9
I5
sg10
(lp137
g131
a(igraph
Vertex
p138
(dp139
g14
F0.33333333333333326
sg8
I00
sg15
g16
sg17
F-253.0
sg18
F-37.333333333333286
sg19
I216428
sg20
S'148.601013257'
p140
sg22
F0.10000000000000002
sbasg26
I00
sg27
I00
sg28
I215995
sg20
S'148.706666629'
p141
sba(igraph
Edge
p142
(dp143
g7
I1
sg8
I00
sg9
I5
sg10
(lp144
g138
a(igraph
Vertex
p145
(dp146
g14
F0.41666666666666652
sg8
I00
sg15
g16
sg17
F-253.0
sg18
F-85.666666666666572
sg19
I216429
sg20
S'148.601343187'
p147
sg22
F0.10000000000000002
sbasg26
I00
sg27
I00
sg28
I215996
sg20
S'148.707067798'
p148
sba(igraph
Edge
p149
(dp150
g7
I1
sg8
I00
sg9
I5
sg10
(lp151
g145
a(igraph
Vertex
p152
(dp153
g14
F0.5
sg8
I00
sg15
g16
sg17
F-253.0
sg18
F-134.0
sg19
I216430
sg20
S'148.601677308'
p154
sg22
F0.10000000000000002
sbasg26
I00
sg27
I00
sg28
I215997
sg20
S'148.707488522'
p155
sba(igraph
Edge
p156
(dp157
g7
I1
sg8
I00
sg9
I5
sg10
(lp158
g152
a(igraph
Vertex
p159
(dp160
g14
F0.58333333333333326
sg8
I00
sg15
g16
sg17
F-253.0
sg18
F-182.33333333333331
sg19
I216431
sg20
S'148.60200193'
p161
sg22
F0.10000000000000002
sbasg26
I00
sg27
I00
sg28
I215998
sg20
S'148.707932433'
p162
sba(igraph
Edge
p163
(dp164
g7
I1
sg8
I00
sg9
I5
sg10
(lp165
g159
a(igraph
Vertex
p166
(dp167
g14
F0.66666666666666652
sg8
I00
sg15
g16
sg17
F-253.0
sg18
F-230.66666666666657
sg19
I216432
sg20
S'148.602373765'
p168
sg22
F0.10000000000000002
sbasg26
I00
sg27
I00
sg28
I215999
sg20
S'148.708397855'
p169
sba(igraph
Edge
p170
(dp171
g7
I1
sg8
I00
sg9
I5
sg10
(lp172
g166
a(igraph
Vertex
p173
(dp174
g14
F0.75
sg8
I00
sg15
g16
sg17
F-253.0
sg18
F-279.0
sg19
I216433
sg20
S'148.602737219'
p175
sg22
F0.10000000000000002
sbasg26
I00
sg27
I00
sg28
I216000
sg20
S'148.70888395'
p176
sba(igraph
Edge
p177
(dp178
g7
I1
sg8
I00
sg9
I5
sg10
(lp179
g173
a(igraph
Vertex
p180
(dp181
g14
F0.83333333333333348
sg8
I00
sg15
g16
sg17
F-253.0
sg18
F-327.33333333333343
sg19
I216434
sg20
S'148.603164927'
p182
sg22
F0.10000000000000002
sbasg26
I00
sg27
I00
sg28
I216001
sg20
S'148.709391277'
p183
sba(igraph
Edge
p184
(dp185
g7
I1
sg8
I00
sg9
I5
sg10
(lp186
g180
a(igraph
Vertex
p187
(dp188
g14
F0.91666666666666652
sg8
I00
sg15
g16
sg17
F-253.0
sg18
F-375.66666666666663
sg19
I216435
sg20
S'148.603551289'
p189
sg22
F0.10000000000000002
sbasg26
I00
sg27
I00
sg28
I216002
sg20
S'148.709998058'
p190
sba(igraph
Edge
p191
(dp192
g7
I1
sg8
I00
sg9
I5
sg10
(lp193
g187
a(igraph
Vertex
p194
(dp195
g14
F1.0
sg8
I00
sg15
g16
sg17
F-253.0
sg18
F-424.0
sg19
I216436
sg20
S'148.603980674'
p196
sg22
F0.10000000000000002
sbasg26
I00
sg27
I00
sg28
I216003
sg20
S'148.710548966'
p197
sba(igraph
Edge
p198
(dp199
g7
I1
sg8
I00
sg9
I5
sg10
(lp200
g194
ag114
asg26
I00
sg27
I00
sg28
I216004
sg20
S'148.711124179'
p201
sba(igraph
Edge
p202
(dp203
g7
I1
sg8
I00
sg9
I5
sg10
(lp204
(igraph
Vertex
p205
(dp206
g14
F0.0
sg8
I00
sg15
g16
sg17
F-189.99999999999997
sg18
F156.0
sg19
I216437
sg20
S'148.604444978'
p207
sg22
F0.20000000000000004
sba(igraph
Vertex
p208
(dp209
g14
F0.08333333333333337
sg8
I00
sg15
g16
sg17
F-189.99999999999997
sg18
F107.66666666666664
sg19
I216438
sg20
S'148.604921855'
p210
sg22
F0.20000000000000004
sbasg26
I00
sg27
I00
sg28
I216005
sg20
S'148.711715875'
p211
sba(igraph
Edge
p212
(dp213
g7
I1
sg8
I00
sg9
I5
sg10
(lp214
g208
a(igraph
Vertex
p215
(dp216
g14
F0.16666666666666663
sg8
I00
sg15
g16
sg17
F-189.99999999999997
sg18
F59.333333333333357
sg19
I216439
sg20
S'148.605405715'
p217
sg22
F0.20000000000000004
sbasg26
I00
sg27
I00
sg28
I216006
sg20
S'148.712375176'
p218
sba(igraph
Edge
p219
(dp220
g7
I1
sg8
I00
sg9
I5
sg10
(lp221
g215
a(igraph
Vertex
p222
(dp223
g14
F0.25
sg8
I00
sg15
g16
sg17
F-189.99999999999997
sg18
F11.0
sg19
I216440
sg20
S'148.60596221'
p224
sg22
F0.20000000000000004
sbasg26
I00
sg27
I00
sg28
I216007
sg20
S'148.713010452'
p225
sba(igraph
Edge
p226
(dp227
g7
I1
sg8
I00
sg9
I5
sg10
(lp228
g222
a(igraph
Vertex
p229
(dp230
g14
F0.33333333333333326
sg8
I00
sg15
g16
sg17
F-189.99999999999997
sg18
F-37.333333333333286
sg19
I216441
sg20
S'148.606490769'
p231
sg22
F0.20000000000000004
sbasg26
I00
sg27
I00
sg28
I216008
sg20
S'148.713667519'
p232
sba(igraph
Edge
p233
(dp234
g7
I1
sg8
I00
sg9
I5
sg10
(lp235
g229
a(igraph
Vertex
p236
(dp237
g14
F0.41666666666666652
sg8
I00
sg15
g16
sg17
F-189.99999999999997
sg18
F-85.666666666666572
sg19
I216442
sg20
S'148.607021563'
p238
sg22
F0.20000000000000004
sbasg26
I00
sg27
I00
sg28
I216009
sg20
S'148.714381856'
p239
sba(igraph
Edge
p240
(dp241
g7
I1
sg8
I00
sg9
I5
sg10
(lp242
g236
a(igraph
Vertex
p243
(dp244
g14
F0.5
sg8
I00
sg15
g16
sg17
F-189.99999999999997
sg18
F-134.0
sg19
I216443
sg20
S'148.607839264'
p245
sg22
F0.20000000000000004
sbasg26
I00
sg27
I00
sg28
I216010
sg20
S'148.715093399'
p246
sba(igraph
Edge
p247
(dp248
g7
I1
sg8
I00
sg9
I5
sg10
(lp249
g243
a(igraph
Vertex
p250
(dp251
g14
F0.58333333333333326
sg8
I00
sg15
g16
sg17
F-189.99999999999997
sg18
F-182.33333333333331
sg19
I216444
sg20
S'148.60842649'
p252
sg22
F0.20000000000000004
sbasg26
I00
sg27
I00
sg28
I216011
sg20
S'148.715835392'
p253
sba(igraph
Edge
p254
(dp255
g7
I1
sg8
I00
sg9
I5
sg10
(lp256
g250
a(igraph
Vertex
p257
(dp258
g14
F0.66666666666666652
sg8
I00
sg15
g16
sg17
F-189.99999999999997
sg18
F-230.66666666666657
sg19
I216445
sg20
S'148.608986058'
p259
sg22
F0.20000000000000004
sbasg26
I00
sg27
I00
sg28
I216012
sg20
S'148.716627393'
p260
sba(igraph
Edge
p261
(dp262
g7
I1
sg8
I00
sg9
I5
sg10
(lp263
g257
a(igraph
Vertex
p264
(dp265
g14
F0.75
sg8
I00
sg15
g16
sg17
F-189.99999999999997
sg18
F-279.0
sg19
I216446
sg20
S'148.609590046'
p266
sg22
F0.20000000000000004
sbasg26
I00
sg27
I00
sg28
I216013
sg20
S'148.717388383'
p267
sba(igraph
Edge
p268
(dp269
g7
I1
sg8
I00
sg9
I5
sg10
(lp270
g264
a(igraph
Vertex
p271
(dp272
g14
F0.83333333333333348
sg8
I00
sg15
g16
sg17
F-189.99999999999997
sg18
F-327.33333333333343
sg19
I216447
sg20
S'148.610215544'
p273
sg22
F0.20000000000000004
sbasg26
I00
sg27
I00
sg28
I216014
sg20
S'148.718324815'
p274
sba(igraph
Edge
p275
(dp276
g7
I1
sg8
I00
sg9
I5
sg10
(lp277
g271
a(igraph
Vertex
p278
(dp279
g14
F0.91666666666666652
sg8
I00
sg15
g16
sg17
F-189.99999999999997
sg18
F-375.66666666666663
sg19
I216448
sg20
S'148.610819811'
p280
sg22
F0.20000000000000004
sbasg26
I00
sg27
I00
sg28
I216015
sg20
S'148.719141679'
p281
sba(igraph
Edge
p282
(dp283
g7
I1
sg8
I00
sg9
I5
sg10
(lp284
g278
a(igraph
Vertex
p285
(dp286
g14
F1.0
sg8
I00
sg15
g16
sg17
F-189.99999999999997
sg18
F-424.0
sg19
I216449
sg20
S'148.611444192'
p287
sg22
F0.20000000000000004
sbasg26
I00
sg27
I00
sg28
I216016
sg20
S'148.720004917'
p288
sba(igraph
Edge
p289
(dp290
g7
I1
sg8
I00
sg9
I5
sg10
(lp291
g285
ag205
asg26
I00
sg27
I00
sg28
I216017
sg20
S'148.720858657'
p292
sba(igraph
Edge
p293
(dp294
g7
I1
sg8
I00
sg9
I5
sg10
(lp295
(igraph
Vertex
p296
(dp297
g14
F0.0
sg8
I00
sg15
g16
sg17
F-127.0
sg18
F156.0
sg19
I216450
sg20
S'148.61208729'
p298
sg22
F0.29999999999999999
sba(igraph
Vertex
p299
(dp300
g14
F0.08333333333333337
sg8
I00
sg15
g16
sg17
F-127.0
sg18
F107.66666666666664
sg19
I216451
sg20
S'148.612909462'
p301
sg22
F0.29999999999999999
sbasg26
I00
sg27
I00
sg28
I216018
sg20
S'148.721761006'
p302
sba(igraph
Edge
p303
(dp304
g7
I1
sg8
I00
sg9
I5
sg10
(lp305
g299
a(igraph
Vertex
p306
(dp307
g14
F0.16666666666666663
sg8
I00
sg15
g16
sg17
F-127.0
sg18
F59.333333333333357
sg19
I216452
sg20
S'148.613629106'
p308
sg22
F0.29999999999999999
sbasg26
I00
sg27
I00
sg28
I216019
sg20
S'148.72265693'
p309
sba(igraph
Edge
p310
(dp311
g7
I1
sg8
I00
sg9
I5
sg10
(lp312
g306
a(igraph
Vertex
p313
(dp314
g14
F0.25
sg8
I00
sg15
g16
sg17
F-127.0
sg18
F11.0
sg19
I216453
sg20
S'148.614728967'
p315
sg22
F0.29999999999999999
sbasg26
I00
sg27
I00
sg28
I216020
sg20
S'148.723573806'
p316
sba(igraph
Edge
p317
(dp318
g7
I1
sg8
I00
sg9
I5
sg10
(lp319
g313
a(igraph
Vertex
p320
(dp321
g14
F0.33333333333333326
sg8
I00
sg15
I0
sg17
F-127.0
sg18
F-37.333333333333286
sg19
I216454
sg20
S'148.615565665'
p322
sg22
F0.29999999999999999
sbasg26
I00
sg27
I00
sg28
I216021
sg20
S'148.724507724'
p323
sba(igraph
Edge
p324
(dp325
g7
I1
sg8
I00
sg9
I5
sg10
(lp326
g320
a(igraph
Vertex
p327
(dp328
g14
F0.41666666666666652
sg8
I00
sg15
g16
sg17
F-127.0
sg18
F-85.666666666666572
sg19
I216456
sg20
S'148.616373869'
p329
sg22
F0.29999999999999999
sbasg26
I00
sg27
I00
sg28
I216022
sg20
S'148.725462035'
p330
sba(igraph
Edge
p331
(dp332
g7
I1
sg8
I00
sg9
I5
sg10
(lp333
g327
a(igraph
Vertex
p334
(dp335
g14
F0.5
sg8
I00
sg15
g16
sg17
F-127.0
sg18
F-134.0
sg19
I216457
sg20
S'148.61721364'
p336
sg22
F0.29999999999999999
sbasg26
I00
sg27
I00
sg28
I216023
sg20
S'148.726437857'
p337
sba(igraph
Edge
p338
(dp339
g7
I1
sg8
I00
sg9
I5
sg10
(lp340
g334
a(igraph
Vertex
p341
(dp342
g14
F0.58333333333333326
sg8
I00
sg15
g16
sg17
F-127.0
sg18
F-182.33333333333331
sg19
I216458
sg20
S'148.618232205'
p343
sg22
F0.29999999999999999
sbasg26
I00
sg27
I00
sg28
I216024
sg20
S'148.727449438'
p344
sba(igraph
Edge
p345
(dp346
g7
I1
sg8
I00
sg9
I5
sg10
(lp347
g341
a(igraph
Vertex
p348
(dp349
g14
F0.66666666666666652
sg8
I00
sg15
g16
sg17
F-127.0
sg18
F-230.66666666666657
sg19
I216459
sg20
S'148.619050466'
p350
sg22
F0.29999999999999999
sbasg26
I00
sg27
I00
sg28
I216025
sg20
S'148.728481693'
p351
sba(igraph
Edge
p352
(dp353
g7
I1
sg8
I00
sg9
I5
sg10
(lp354
g348
a(igraph
Vertex
p355
(dp356
g14
F0.75
sg8
I00
sg15
g16
sg17
F-127.0
sg18
F-279.0
sg19
I216460
sg20
S'148.619939685'
p357
sg22
F0.29999999999999999
sbasg26
I00
sg27
I00
sg28
I216026
sg20
S'148.729557807'
p358
sba(igraph
Edge
p359
(dp360
g7
I1
sg8
I00
sg9
I5
sg10
(lp361
g355
a(igraph
Vertex
p362
(dp363
g14
F0.83333333333333348
sg8
I00
sg15
g16
sg17
F-127.0
sg18
F-327.33333333333343
sg19
I216461
sg20
S'148.620793984'
p364
sg22
F0.29999999999999999
sbasg26
I00
sg27
I00
sg28
I216027
sg20
S'148.730620512'
p365
sba(igraph
Edge
p366
(dp367
g7
I1
sg8
I00
sg9
I5
sg10
(lp368
g362
a(igraph
Vertex
p369
(dp370
g14
F0.91666666666666652
sg8
I00
sg15
g16
sg17
F-127.0
sg18
F-375.66666666666663
sg19
I216462
sg20
S'148.621653869'
p371
sg22
F0.29999999999999999
sbasg26
I00
sg27
I00
sg28
I216028
sg20
S'148.731706404'
p372
sba(igraph
Edge
p373
(dp374
g7
I1
sg8
I00
sg9
I5
sg10
(lp375
g369
a(igraph
Vertex
p376
(dp377
g14
F1.0
sg8
I00
sg15
g16
sg17
F-127.0
sg18
F-424.0
sg19
I216463
sg20
S'148.622595889'
p378
sg22
F0.29999999999999999
sbasg26
I00
sg27
I00
sg28
I216029
sg20
S'148.732814645'
p379
sba(igraph
Edge
p380
(dp381
g7
I1
sg8
I00
sg9
I5
sg10
(lp382
g376
ag296
asg26
I00
sg27
I00
sg28
I216030
sg20
S'148.73397429'
p383
sba(igraph
Edge
p384
(dp385
g7
I1
sg8
I00
sg9
I5
sg10
(lp386
(igraph
Vertex
p387
(dp388
g14
F0.0
sg8
I00
sg15
g16
sg17
F-63.999999999999943
sg18
F156.0
sg19
I216464
sg20
S'148.62353232'
p389
sg22
F0.40000000000000008
sba(igraph
Vertex
p390
(dp391
g14
F0.08333333333333337
sg8
I00
sg15
g16
sg17
F-63.999999999999943
sg18
F107.66666666666664
sg19
I216465
sg20
S'148.6244654'
p392
sg22
F0.40000000000000008
sbasg26
I00
sg27
I00
sg28
I216031
sg20
S'148.735128347'
p393
sba(igraph
Edge
p394
(dp395
g7
I1
sg8
I00
sg9
I5
sg10
(lp396
g390
a(igraph
Vertex
p397
(dp398
g14
F0.16666666666666663
sg8
I00
sg15
g16
sg17
F-63.999999999999943
sg18
F59.333333333333357
sg19
I216466
sg20
S'148.625517768'
p399
sg22
F0.40000000000000008
sbasg26
I00
sg27
I00
sg28
I216032
sg20
S'148.7363989'
p400
sba(igraph
Edge
p401
(dp402
g7
I1
sg8
I00
sg9
I5
sg10
(lp403
g397
a(igraph
Vertex
p404
(dp405
g14
F0.25
sg8
I00
sg15
g16
sg17
F-63.999999999999943
sg18
F11.0
sg19
I216467
sg20
S'148.626816257'
p406
sg22
F0.40000000000000008
sbasg26
I00
sg27
I00
sg28
I216033
sg20
S'148.737597097'
p407
sba(igraph
Edge
p408
(dp409
g7
I1
sg8
I00
sg9
I5
sg10
(lp410
g404
a(igraph
Vertex
p411
(dp412
g14
F0.33333333333333326
sg8
I00
sg15
g16
sg17
F-63.999999999999943
sg18
F-37.333333333333286
sg19
I216468
sg20
S'148.627756042'
p413
sg22
F0.40000000000000008
sbasg26
I00
sg27
I00
sg28
I216034
sg20
S'148.738811776'
p414
sba(igraph
Edge
p415
(dp416
g7
I1
sg8
I00
sg9
I5
sg10
(lp417
g411
a(igraph
Vertex
p418
(dp419
g14
F0.41666666666666652
sg8
I00
sg15
g16
sg17
F-63.999999999999943
sg18
F-85.666666666666572
sg19
I216469
sg20
S'148.628484626'
p420
sg22
F0.40000000000000008
sbasg26
I00
sg27
I00
sg28
I216035
sg20
S'148.740083726'
p421
sba(igraph
Edge
p422
(dp423
g7
I1
sg8
I00
sg9
I5
sg10
(lp424
g418
a(igraph
Vertex
p425
(dp426
g14
F0.5
sg8
I00
sg15
I0
sg17
F-63.999999999999943
sg18
F-134.0
sg19
I216470
sg20
S'148.628951724'
p427
sg22
F0.40000000000000008
sbasg26
I00
sg27
I00
sg28
I216036
sg20
S'148.741343662'
p428
sba(igraph
Edge
p429
(dp430
g7
I1
sg8
I00
sg9
I5
sg10
(lp431
g425
a(igraph
Vertex
p432
(dp433
g14
F0.58333333333333326
sg8
I00
sg15
g16
sg17
F-63.999999999999943
sg18
F-182.33333333333331
sg19
I216472
sg20
S'148.629426366'
p434
sg22
F0.40000000000000008
sbasg26
I00
sg27
I00
sg28
I216037
sg20
S'148.742621199'
p435
sba(igraph
Edge
p436
(dp437
g7
I1
sg8
I00
sg9
I5
sg10
(lp438
g432
a(igraph
Vertex
p439
(dp440
g14
F0.66666666666666652
sg8
I00
sg15
g16
sg17
F-63.999999999999943
sg18
F-230.66666666666657
sg19
I216473
sg20
S'148.630006886'
p441
sg22
F0.40000000000000008
sbasg26
I00
sg27
I00
sg28
I216038
sg20
S'148.743925275'
p442
sba(igraph
Edge
p443
(dp444
g7
I1
sg8
I00
sg9
I5
sg10
(lp445
g439
a(igraph
Vertex
p446
(dp447
g14
F0.75
sg8
I00
sg15
g16
sg17
F-63.999999999999943
sg18
F-279.0
sg19
I216474
sg20
S'148.630501363'
p448
sg22
F0.40000000000000008
sbasg26
I00
sg27
I00
sg28
I216039
sg20
S'148.745279917'
p449
sba(igraph
Edge
p450
(dp451
g7
I1
sg8
I00
sg9
I5
sg10
(lp452
g446
a(igraph
Vertex
p453
(dp454
g14
F0.83333333333333348
sg8
I00
sg15
g16
sg17
F-63.999999999999943
sg18
F-327.33333333333343
sg19
I216475
sg20
S'148.63099975'
p455
sg22
F0.40000000000000008
sbasg26
I00
sg27
I00
sg28
I216040
sg20
S'148.746636514'
p456
sba(igraph
Edge
p457
(dp458
g7
I1
sg8
I00
sg9
I5
sg10
(lp459
g453
a(igraph
Vertex
p460
(dp461
g14
F0.91666666666666652
sg8
I00
sg15
g16
sg17
F-63.999999999999943
sg18
F-375.66666666666663
sg19
I216476
sg20
S'148.631507077'
p462
sg22
F0.40000000000000008
sbasg26
I00
sg27
I00
sg28
I216041
sg20
S'148.748035854'
p463
sba(igraph
Edge
p464
(dp465
g7
I1
sg8
I00
sg9
I5
sg10
(lp466
g460
a(igraph
Vertex
p467
(dp468
g14
F1.0
sg8
I00
sg15
g16
sg17
F-63.999999999999943
sg18
F-424.0
sg19
I216477
sg20
S'148.63204681'
p469
sg22
F0.40000000000000008
sbasg26
I00
sg27
I00
sg28
I216042
sg20
S'148.749456705'
p470
sba(igraph
Edge
p471
(dp472
g7
I1
sg8
I00
sg9
I5
sg10
(lp473
g467
ag387
asg26
I00
sg27
I00
sg28
I216043
sg20
S'148.750898787'
p474
sba(igraph
Edge
p475
(dp476
g7
I1
sg8
I00
sg9
I5
sg10
(lp477
(igraph
Vertex
p478
(dp479
g14
F0.0
sg8
I00
sg15
g16
sg17
F-1.0
sg18
F156.0
sg19
I216478
sg20
S'148.632567826'
p480
sg22
F0.5
sba(igraph
Vertex
p481
(dp482
g14
F0.08333333333333337
sg8
I00
sg15
g16
sg17
F-1.0
sg18
F107.66666666666664
sg19
I216479
sg20
S'148.633098899'
p483
sg22
F0.5
sbasg26
I00
sg27
I00
sg28
I216044
sg20
S'148.752330254'
p484
sba(igraph
Edge
p485
(dp486
g7
I1
sg8
I00
sg9
I5
sg10
(lp487
g481
a(igraph
Vertex
p488
(dp489
g14
F0.16666666666666663
sg8
I00
sg15
g16
sg17
F-1.0
sg18
F59.333333333333357
sg19
I216480
sg20
S'148.633638353'
p490
sg22
F0.5
sbasg26
I00
sg27
I00
sg28
I216045
sg20
S'148.753783512'
p491
sba(igraph
Edge
p492
(dp493
g7
I1
sg8
I00
sg9
I5
sg10
(lp494
g488
a(igraph
Vertex
p495
(dp496
g14
F0.25
sg8
I00
sg15
g16
sg17
F-1.0
sg18
F11.0
sg19
I216481
sg20
S'148.63418563'
p497
sg22
F0.5
sbasg26
I00
sg27
I00
sg28
I216046
sg20
S'148.755255766'
p498
sba(igraph
Edge
p499
(dp500
g7
I1
sg8
I00
sg9
I5
sg10
(lp501
g495
a(igraph
Vertex
p502
(dp503
g14
F0.33333333333333326
sg8
I00
sg15
g16
sg17
F-1.0
sg18
F-37.333333333333286
sg19
I216482
sg20
S'148.634737935'
p504
sg22
F0.5
sbasg26
I00
sg27
I00
sg28
I216047
sg20
S'148.756772439'
p505
sba(igraph
Edge
p506
(dp507
g7
I1
sg8
I00
sg9
I5
sg10
(lp508
g502
a(igraph
Vertex
p509
(dp510
g14
F0.41666666666666652
sg8
I00
sg15
g16
sg17
F-1.0
sg18
F-85.666666666666572
sg19
I216483
sg20
S'148.635305046'
p511
sg22
F0.5
sbasg26
I00
sg27
I00
sg28
I216048
sg20
S'148.758302801'
p512
sba(igraph
Edge
p513
(dp514
g7
I1
sg8
I00
sg9
I5
sg10
(lp515
g509
a(igraph
Vertex
p516
(dp517
g14
F0.5
sg8
I00
sg15
g16
sg17
F-1.0
sg18
F-134.0
sg19
I216484
sg20
S'148.635909312'
p518
sg22
F0.5
sbasg26
I00
sg27
I00
sg28
I216049
sg20
S'148.759920046'
p519
sba(igraph
Edge
p520
(dp521
g7
I1
sg8
I00
sg9
I5
sg10
(lp522
g516
a(igraph
Vertex
p523
(dp524
g14
F0.58333333333333326
sg8
I00
sg15
g16
sg17
F-1.0
sg18
F-182.33333333333331
sg19
I216485
sg20
S'148.636489833'
p525
sg22
F0.5
sbasg26
I00
sg27
I00
sg28
I216050
sg20
S'148.761483932'
p526
sba(igraph
Edge
p527
(dp528
g7
I1
sg8
I00
sg9
I5
sg10
(lp529
g523
a(igraph
Vertex
p530
(dp531
g14
F0.66666666666666652
sg8
I00
sg15
g16
sg17
F-1.0
sg18
F-230.66666666666657
sg19
I216486
sg20
S'148.637077338'
p532
sg22
F0.5
sbasg26
I00
sg27
I00
sg28
I216051
sg20
S'148.763096706'
p533
sba(igraph
Edge
p534
(dp535
g7
I1
sg8
I00
sg9
I5
sg10
(lp536
g530
a(igraph
Vertex
p537
(dp538
g14
F0.75
sg8
I00
sg15
g16
sg17
F-1.0
sg18
F-279.0
sg19
I216487
sg20
S'148.637712056'
p539
sg22
F0.5
sbasg26
I00
sg27
I00
sg28
I216052
sg20
S'148.764955881'
p540
sba(igraph
Edge
p541
(dp542
g7
I1
sg8
I00
sg9
I5
sg10
(lp543
g537
a(igraph
Vertex
p544
(dp545
g14
F0.83333333333333348
sg8
I00
sg15
g16
sg17
F-1.0
sg18
F-327.33333333333343
sg19
I216488
sg20
S'148.638317999'
p546
sg22
F0.5
sbasg26
I00
sg27
I00
sg28
I216053
sg20
S'148.766809748'
p547
sba(igraph
Edge
p548
(dp549
g7
I1
sg8
I00
sg9
I5
sg10
(lp550
g544
a(igraph
Vertex
p551
(dp552
g14
F0.91666666666666652
sg8
I00
sg15
g16
sg17
F-1.0
sg18
F-375.66666666666663
sg19
I216489
sg20
S'148.638932881'
p553
sg22
F0.5
sbasg26
I00
sg27
I00
sg28
I216054
sg20
S'148.768500466'
p554
sba(igraph
Edge
p555
(dp556
g7
I1
sg8
I00
sg9
I5
sg10
(lp557
g551
a(igraph
Vertex
p558
(dp559
g14
F1.0
sg8
I00
sg15
g16
sg17
F-1.0
sg18
F-424.0
sg19
I216490
sg20
S'148.639556424'
p560
sg22
F0.5
sbasg26
I00
sg27
I00
sg28
I216055
sg20
S'148.770173584'
p561
sba(igraph
Edge
p562
(dp563
g7
I1
sg8
I00
sg9
I5
sg10
(lp564
g558
ag478
asg26
I00
sg27
I00
sg28
I216056
sg20
S'148.771892796'
p565
sba(igraph
Edge
p566
(dp567
g7
I1
sg8
I00
sg9
I5
sg10
(lp568
(igraph
Vertex
p569
(dp570
g14
F0.0
sg8
I00
sg15
g16
sg17
F62.0
sg18
F156.0
sg19
I216491
sg20
S'148.640186113'
p571
sg22
F0.59999999999999998
sba(igraph
Vertex
p572
(dp573
g14
F0.08333333333333337
sg8
I00
sg15
g16
sg17
F62.0
sg18
F107.66666666666664
sg19
I216492
sg20
S'148.640820831'
p574
sg22
F0.59999999999999998
sbasg26
I00
sg27
I00
sg28
I216057
sg20
S'148.773606701'
p575
sba(igraph
Edge
p576
(dp577
g7
I1
sg8
I00
sg9
I5
sg10
(lp578
g572
a(igraph
Vertex
p579
(dp580
g14
F0.16666666666666663
sg8
I00
sg15
g16
sg17
F62.0
sg18
F59.333333333333357
sg19
I216493
sg20
S'148.64146784'
p581
sg22
F0.59999999999999998
sbasg26
I00
sg27
I00
sg28
I216058
sg20
S'148.775379832'
p582
sba(igraph
Edge
p583
(dp584
g7
I1
sg8
I00
sg9
I5
sg10
(lp585
g579
a(igraph
Vertex
p586
(dp587
g14
F0.25
sg8
I00
sg15
g16
sg17
F62.0
sg18
F11.0
sg19
I216494
sg20
S'148.642434164'
p588
sg22
F0.59999999999999998
sbasg26
I00
sg27
I00
sg28
I216059
sg20
S'148.777154918'
p589
sba(igraph
Edge
p590
(dp591
g7
I1
sg8
I00
sg9
I5
sg10
(lp592
g586
a(igraph
Vertex
p593
(dp594
g14
F0.33333333333333326
sg8
I00
sg15
g16
sg17
F62.0
sg18
F-37.333333333333286
sg19
I216495
sg20
S'148.643097656'
p595
sg22
F0.59999999999999998
sbasg26
I00
sg27
I00
sg28
I216060
sg20
S'148.778928607'
p596
sba(igraph
Edge
p597
(dp598
g7
I1
sg8
I00
sg9
I5
sg10
(lp599
g593
a(igraph
Vertex
p600
(dp601
g14
F0.41666666666666652
sg8
I00
sg15
g16
sg17
F62.0
sg18
F-85.666666666666572
sg19
I216496
sg20
S'148.643796628'
p602
sg22
F0.59999999999999998
sbasg26
I00
sg27
I00
sg28
I216061
sg20
S'148.780827731'
p603
sba(igraph
Edge
p604
(dp605
g7
I1
sg8
I00
sg9
I5
sg10
(lp606
g600
a(igraph
Vertex
p607
(dp608
g14
F0.5
sg8
I00
sg15
g16
sg17
F62.0
sg18
F-134.0
sg19
I216497
sg20
S'148.644478279'
p609
sg22
F0.59999999999999998
sbasg26
I00
sg27
I00
sg28
I216062
sg20
S'148.782691934'
p610
sba(igraph
Edge
p611
(dp612
g7
I1
sg8
I00
sg9
I5
sg10
(lp613
g607
a(igraph
Vertex
p614
(dp615
g14
F0.58333333333333326
sg8
I00
sg15
I0
sg17
F62.0
sg18
F-182.33333333333331
sg19
I216498
sg20
S'148.64517278'
p616
sg22
F0.59999999999999998
sbasg26
I00
sg27
I00
sg28
I216063
sg20
S'148.784544125'
p617
sba(igraph
Edge
p618
(dp619
g7
I1
sg8
I00
sg9
I5
sg10
(lp620
g614
a(igraph
Vertex
p621
(dp622
g14
F0.66666666666666652
sg8
I00
sg15
g16
sg17
F62.0
sg18
F-230.66666666666657
sg19
I216500
sg20
S'148.645880412'
p623
sg22
F0.59999999999999998
sbasg26
I00
sg27
I00
sg28
I216064
sg20
S'148.786432354'
p624
sba(igraph
Edge
p625
(dp626
g7
I1
sg8
I00
sg9
I5
sg10
(lp627
g621
a(igraph
Vertex
p628
(dp629
g14
F0.75
sg8
I00
sg15
g16
sg17
F62.0
sg18
F-279.0
sg19
I216501
sg20
S'148.646584412'
p630
sg22
F0.59999999999999998
sbasg26
I00
sg27
I00
sg28
I216065
sg20
S'148.788343491'
p631
sba(igraph
Edge
p632
(dp633
g7
I1
sg8
I00
sg9
I5
sg10
(lp634
g628
a(igraph
Vertex
p635
(dp636
g14
F0.83333333333333348
sg8
I00
sg15
g16
sg17
F62.0
sg18
F-327.33333333333343
sg19
I216502
sg20
S'148.64733339'
p637
sg22
F0.59999999999999998
sbasg26
I00
sg27
I00
sg28
I216066
sg20
S'148.790362742'
p638
sba(igraph
Edge
p639
(dp640
g7
I1
sg8
I00
sg9
I5
sg10
(lp641
g635
a(igraph
Vertex
p642
(dp643
g14
F0.91666666666666652
sg8
I00
sg15
g16
sg17
F62.0
sg18
F-375.66666666666663
sg19
I216503
sg20
S'148.648060578'
p644
sg22
F0.59999999999999998
sbasg26
I00
sg27
I00
sg28
I216067
sg20
S'148.792302094'
p645
sba(igraph
Edge
p646
(dp647
g7
I1
sg8
I00
sg9
I5
sg10
(lp648
g642
a(igraph
Vertex
p649
(dp650
g14
F1.0
sg8
I00
sg15
g16
sg17
F62.0
sg18
F-424.0
sg19
I216504
sg20
S'148.64879447'
p651
sg22
F0.59999999999999998
sbasg26
I00
sg27
I00
sg28
I216068
sg20
S'148.794410742'
p652
sba(igraph
Edge
p653
(dp654
g7
I1
sg8
I00
sg9
I5
sg10
(lp655
g649
ag569
asg26
I00
sg27
I00
sg28
I216069
sg20
S'148.796388088'
p656
sba(igraph
Edge
p657
(dp658
g7
I1
sg8
I00
sg9
I5
sg10
(lp659
(igraph
Vertex
p660
(dp661
g14
F0.0
sg8
I00
sg15
g16
sg17
F124.99999999999989
sg18
F156.0
sg19
I216505
sg20
S'148.649546521'
p662
sg22
F0.69999999999999984
sba(igraph
Vertex
p663
(dp664
g14
F0.08333333333333337
sg8
I00
sg15
g16
sg17
F124.99999999999989
sg18
F107.66666666666664
sg19
I216506
sg20
S'148.650304717'
p665
sg22
F0.69999999999999984
sbasg26
I00
sg27
I00
sg28
I216070
sg20
S'148.798400635'
p666
sba(igraph
Edge
p667
(dp668
g7
I1
sg8
I00
sg9
I5
sg10
(lp669
g663
a(igraph
Vertex
p670
(dp671
g14
F0.16666666666666663
sg8
I00
sg15
g16
sg17
F124.99999999999989
sg18
F59.333333333333357
sg19
I216507
sg20
S'148.65106906'
p672
sg22
F0.69999999999999984
sbasg26
I00
sg27
I00
sg28
I216071
sg20
S'148.800465981'
p673
sba(igraph
Edge
p674
(dp675
g7
I1
sg8
I00
sg9
I5
sg10
(lp676
g670
a(igraph
Vertex
p677
(dp678
g14
F0.25
sg8
I00
sg15
g16
sg17
F124.99999999999989
sg18
F11.0
sg19
I216508
sg20
S'148.651840108'
p679
sg22
F0.69999999999999984
sbasg26
I00
sg27
I00
sg28
I216072
sg20
S'148.802505067'
p680
sba(igraph
Edge
p681
(dp682
g7
I1
sg8
I00
sg9
I5
sg10
(lp683
g677
a(igraph
Vertex
p684
(dp685
g14
F0.33333333333333326
sg8
I00
sg15
g16
sg17
F124.99999999999989
sg18
F-37.333333333333286
sg19
I216509
sg20
S'148.65262261'
p686
sg22
F0.69999999999999984
sbasg26
I00
sg27
I00
sg28
I216073
sg20
S'148.804593601'
p687
sba(igraph
Edge
p688
(dp689
g7
I1
sg8
I00
sg9
I5
sg10
(lp690
g684
a(igraph
Vertex
p691
(dp692
g14
F0.41666666666666652
sg8
I00
sg15
g16
sg17
F124.99999999999989
sg18
F-85.666666666666572
sg19
I216510
sg20
S'148.65344115'
p693
sg22
F0.69999999999999984
sbasg26
I00
sg27
I00
sg28
I216074
sg20
S'148.806682414'
p694
sba(igraph
Edge
p695
(dp696
g7
I1
sg8
I00
sg9
I5
sg10
(lp697
g691
a(igraph
Vertex
p698
(dp699
g14
F0.5
sg8
I00
sg15
g16
sg17
F124.99999999999989
sg18
F-134.0
sg19
I216511
sg20
S'148.65423762'
p700
sg22
F0.69999999999999984
sbasg26
I00
sg27
I00
sg28
I216075
sg20
S'148.808771506'
p701
sba(igraph
Edge
p702
(dp703
g7
I1
sg8
I00
sg9
I5
sg10
(lp704
g698
a(igraph
Vertex
p705
(dp706
g14
F0.58333333333333326
sg8
I00
sg15
g16
sg17
F124.99999999999989
sg18
F-182.33333333333331
sg19
I216512
sg20
S'148.65504275'
p707
sg22
F0.69999999999999984
sbasg26
I00
sg27
I00
sg28
I216076
sg20
S'148.810903062'
p708
sba(igraph
Edge
p709
(dp710
g7
I1
sg8
I00
sg9
I5
sg10
(lp711
g705
a(igraph
Vertex
p712
(dp713
g14
F0.66666666666666652
sg8
I00
sg15
g16
sg17
F124.99999999999989
sg18
F-230.66666666666657
sg19
I216513
sg20
S'148.655858217'
p714
sg22
F0.69999999999999984
sbasg26
I00
sg27
I00
sg28
I216077
sg20
S'148.813058922'
p715
sba(igraph
Edge
p716
(dp717
g7
I1
sg8
I00
sg9
I5
sg10
(lp718
g712
a(igraph
Vertex
p719
(dp720
g14
F0.75
sg8
I00
sg15
I0
sg17
F124.99999999999989
sg18
F-279.0
sg19
I216514
sg20
S'148.656684579'
p721
sg22
F0.69999999999999984
sbasg26
I00
sg27
I00
sg28
I216078
sg20
S'148.815206123'
p722
sba(igraph
Edge
p723
(dp724
g7
I1
sg8
I00
sg9
I5
sg10
(lp725
g719
a(igraph
Vertex
p726
(dp727
g14
F0.83333333333333348
sg8
I00
sg15
g16
sg17
F124.99999999999989
sg18
F-327.33333333333343
sg19
I216516
sg20
S'148.657585531'
p728
sg22
F0.69999999999999984
sbasg26
I00
sg27
I00
sg28
I216079
sg20
S'148.817415063'
p729
sba(igraph
Edge
p730
(dp731
g7
I1
sg8
I00
sg9
I5
sg10
(lp732
g726
a(igraph
Vertex
p733
(dp734
g14
F0.91666666666666652
sg8
I00
sg15
g16
sg17
F124.99999999999989
sg18
F-375.66666666666663
sg19
I216517
sg20
S'148.65842642'
p735
sg22
F0.69999999999999984
sbasg26
I00
sg27
I00
sg28
I216080
sg20
S'148.819611152'
p736
sba(igraph
Edge
p737
(dp738
g7
I1
sg8
I00
sg9
I5
sg10
(lp739
g733
a(igraph
Vertex
p740
(dp741
g14
F1.0
sg8
I00
sg15
g16
sg17
F124.99999999999989
sg18
F-424.0
sg19
I216518
sg20
S'148.659305582'
p742
sg22
F0.69999999999999984
sbasg26
I00
sg27
I00
sg28
I216081
sg20
S'148.821862276'
p743
sba(igraph
Edge
p744
(dp745
g7
I1
sg8
I00
sg9
I5
sg10
(lp746
g740
ag660
asg26
I00
sg27
I00
sg28
I216082
sg20
S'148.824168155'
p747
sba(igraph
Edge
p748
(dp749
g7
I1
sg8
I00
sg9
I5
sg10
(lp750
(igraph
Vertex
p751
(dp752
g14
F0.0
sg8
I00
sg15
g16
sg17
F188.00000000000011
sg18
F156.0
sg19
I216519
sg20
S'148.660159601'
p753
sg22
F0.80000000000000016
sba(igraph
Vertex
p754
(dp755
g14
F0.08333333333333337
sg8
I00
sg15
g16
sg17
F188.00000000000011
sg18
F107.66666666666664
sg19
I216520
sg20
S'148.661017252'
p756
sg22
F0.80000000000000016
sbasg26
I00
sg27
I00
sg28
I216083
sg20
S'148.826469845'
p757
sba(igraph
Edge
p758
(dp759
g7
I1
sg8
I00
sg9
I5
sg10
(lp760
g754
a(igraph
Vertex
p761
(dp762
g14
F0.16666666666666663
sg8
I00
sg15
g16
sg17
F188.00000000000011
sg18
F59.333333333333357
sg19
I216521
sg20
S'148.661885798'
p763
sg22
F0.80000000000000016
sbasg26
I00
sg27
I00
sg28
I216084
sg20
S'148.829047826'
p764
sba(igraph
Edge
p765
(dp766
g7
I1
sg8
I00
sg9
I5
sg10
(lp767
g761
a(igraph
Vertex
p768
(dp769
g14
F0.25
sg8
I00
sg15
g16
sg17
F188.00000000000011
sg18
F11.0
sg19
I216522
sg20
S'148.662759652'
p770
sg22
F0.80000000000000016
sbasg26
I00
sg27
I00
sg28
I216085
sg20
S'148.831459864'
p771
sba(igraph
Edge
p772
(dp773
g7
I1
sg8
I00
sg9
I5
sg10
(lp774
g768
a(igraph
Vertex
p775
(dp776
g14
F0.33333333333333326
sg8
I00
sg15
g16
sg17
F188.00000000000011
sg18
F-37.333333333333286
sg19
I216523
sg20
S'148.663641887'
p777
sg22
F0.80000000000000016
sbasg26
I00
sg27
I00
sg28
I216086
sg20
S'148.833937833'
p778
sba(igraph
Edge
p779
(dp780
g7
I1
sg8
I00
sg9
I5
sg10
(lp781
g775
a(igraph
Vertex
p782
(dp783
g14
F0.41666666666666652
sg8
I00
sg15
g16
sg17
F188.00000000000011
sg18
F-85.666666666666572
sg19
I216524
sg20
S'148.664533621'
p784
sg22
F0.80000000000000016
sbasg26
I00
sg27
I00
sg28
I216087
sg20
S'148.836356017'
p785
sba(igraph
Edge
p786
(dp787
g7
I1
sg8
I00
sg9
I5
sg10
(lp788
g782
a(igraph
Vertex
p789
(dp790
g14
F0.5
sg8
I00
sg15
g16
sg17
F188.00000000000011
sg18
F-134.0
sg19
I216525
sg20
S'148.665434573'
p791
sg22
F0.80000000000000016
sbasg26
I00
sg27
I00
sg28
I216088
sg20
S'148.838850748'
p792
sba(igraph
Edge
p793
(dp794
g7
I1
sg8
I00
sg9
I5
sg10
(lp795
g789
a(igraph
Vertex
p796
(dp797
g14
F0.58333333333333326
sg8
I00
sg15
g16
sg17
F188.00000000000011
sg18
F-182.33333333333331
sg19
I216526
sg20
S'148.6663467'
p798
sg22
F0.80000000000000016
sbasg26
I00
sg27
I00
sg28
I216089
sg20
S'148.841305529'
p799
sba(igraph
Edge
p800
(dp801
g7
I1
sg8
I00
sg9
I5
sg10
(lp802
g796
a(igraph
Vertex
p803
(dp804
g14
F0.66666666666666652
sg8
I00
sg15
g16
sg17
F188.00000000000011
sg18
F-230.66666666666657
sg19
I216527
sg20
S'148.667266929'
p805
sg22
F0.80000000000000016
sbasg26
I00
sg27
I00
sg28
I216090
sg20
S'148.843743828'
p806
sba(igraph
Edge
p807
(dp808
g7
I1
sg8
I00
sg9
I5
sg10
(lp809
g803
a(igraph
Vertex
p810
(dp811
g14
F0.75
sg8
I00
sg15
g16
sg17
F188.00000000000011
sg18
F-279.0
sg19
I216528
sg20
S'148.668188834'
p812
sg22
F0.80000000000000016
sbasg26
I00
sg27
I00
sg28
I216091
sg20
S'148.846348349'
p813
sba(igraph
Edge
p814
(dp815
g7
I1
sg8
I00
sg9
I5
sg10
(lp816
g810
a(igraph
Vertex
p817
(dp818
g14
F0.83333333333333348
sg8
I00
sg15
g16
sg17
F188.00000000000011
sg18
F-327.33333333333343
sg19
I216529
sg20
S'148.66912331'
p819
sg22
F0.80000000000000016
sbasg26
I00
sg27
I00
sg28
I216092
sg20
S'148.848809555'
p820
sba(igraph
Edge
p821
(dp822
g7
I1
sg8
I00
sg9
I5
sg10
(lp823
g817
a(igraph
Vertex
p824
(dp825
g14
F0.91666666666666652
sg8
I00
sg15
g16
sg17
F188.00000000000011
sg18
F-375.66666666666663
sg19
I216530
sg20
S'148.670068123'
p826
sg22
F0.80000000000000016
sbasg26
I00
sg27
I00
sg28
I216093
sg20
S'148.851498445'
p827
sba(igraph
Edge
p828
(dp829
g7
I1
sg8
I00
sg9
I5
sg10
(lp830
g824
a(igraph
Vertex
p831
(dp832
g14
F1.0
sg8
I00
sg15
g16
sg17
F188.00000000000011
sg18
F-424.0
sg19
I216531
sg20
S'148.671076911'
p833
sg22
F0.80000000000000016
sbasg26
I00
sg27
I00
sg28
I216094
sg20
S'148.854077543'
p834
sba(igraph
Edge
p835
(dp836
g7
I1
sg8
I00
sg9
I5
sg10
(lp837
g831
ag751
asg26
I00
sg27
I00
sg28
I216095
sg20
S'148.856640718'
p838
sba(igraph
Edge
p839
(dp840
g7
I1
sg8
I00
sg9
I5
sg10
(lp841
(igraph
Vertex
p842
(dp843
g14
F0.0
sg8
I00
sg15
g16
sg17
F251.0
sg18
F156.0
sg19
I216532
sg20
S'148.672044352'
p844
sg22
F0.90000000000000002
sba(igraph
Vertex
p845
(dp846
g14
F0.08333333333333337
sg8
I00
sg15
g16
sg17
F251.0
sg18
F107.66666666666664
sg19
I216533
sg20
S'148.673021571'
p847
sg22
F0.90000000000000002
sbasg26
I00
sg27
I00
sg28
I216096
sg20
S'148.85920529'
p848
sba(igraph
Edge
p849
(dp850
g7
I1
sg8
I00
sg9
I5
sg10
(lp851
g845
a(igraph
Vertex
p852
(dp853
g14
F0.16666666666666663
sg8
I00
sg15
g16
sg17
F251.0
sg18
F59.333333333333357
sg19
I216534
sg20
S'148.674001025'
p854
sg22
F0.90000000000000002
sbasg26
I00
sg27
I00
sg28
I216097
sg20
S'148.861815398'
p855
sba(igraph
Edge
p856
(dp857
g7
I1
sg8
I00
sg9
I5
sg10
(lp858
g852
a(igraph
Vertex
p859
(dp860
g14
F0.25
sg8
I00
sg15
g16
sg17
F251.0
sg18
F11.0
sg19
I216535
sg20
S'148.674990816'
p861
sg22
F0.90000000000000002
sbasg26
I00
sg27
I00
sg28
I216098
sg20
S'148.86444143'
p862
sba(igraph
Edge
p863
(dp864
g7
I1
sg8
I00
sg9
I5
sg10
(lp865
g859
a(igraph
Vertex
p866
(dp867
g14
F0.33333333333333326
sg8
I00
sg15
g16
sg17
F251.0
sg18
F-37.333333333333286
sg19
I216536
sg20
S'148.675986194'
p868
sg22
F0.90000000000000002
sbasg26
I00
sg27
I00
sg28
I216099
sg20
S'148.867085342'
p869
sba(igraph
Edge
p870
(dp871
g7
I1
sg8
I00
sg9
I5
sg10
(lp872
g866
a(igraph
Vertex
p873
(dp874
g14
F0.41666666666666652
sg8
I00
sg15
g16
sg17
F251.0
sg18
F-85.666666666666572
sg19
I216537
sg20
S'148.67702208'
p875
sg22
F0.90000000000000002
sbasg26
I00
sg27
I00
sg28
I216100
sg20
S'148.869834015'
p876
sba(igraph
Edge
p877
(dp878
g7
I1
sg8
I00
sg9
I5
sg10
(lp879
g873
a(igraph
Vertex
p880
(dp881
g14
F0.5
sg8
I00
sg15
g16
sg17
F251.0
sg18
F-134.0
sg19
I216538
sg20
S'148.678047629'
p882
sg22
F0.90000000000000002
sbasg26
I00
sg27
I00
sg28
I216101
sg20
S'148.872539108'
p883
sba(igraph
Edge
p884
(dp885
g7
I1
sg8
I00
sg9
I5
sg10
(lp886
g880
a(igraph
Vertex
p887
(dp888
g14
F0.58333333333333326
sg8
I00
sg15
g16
sg17
F251.0
sg18
F-182.33333333333331
sg19
I216539
sg20
S'148.679101674'
p889
sg22
F0.90000000000000002
sbasg26
I00
sg27
I00
sg28
I216102
sg20
S'148.875261241'
p890
sba(igraph
Edge
p891
(dp892
g7
I1
sg8
I00
sg9
I5
sg10
(lp893
g887
a(igraph
Vertex
p894
(dp895
g14
F0.66666666666666652
sg8
I00
sg15
g16
sg17
F251.0
sg18
F-230.66666666666657
sg19
I216540
sg20
S'148.680135045'
p896
sg22
F0.90000000000000002
sbasg26
I00
sg27
I00
sg28
I216103
sg20
S'148.878005165'
p897
sba(igraph
Edge
p898
(dp899
g7
I1
sg8
I00
sg9
I5
sg10
(lp900
g894
a(igraph
Vertex
p901
(dp902
g14
F0.75
sg8
I00
sg15
g16
sg17
F251.0
sg18
F-279.0
sg19
I216541
sg20
S'148.68122429'
p903
sg22
F0.90000000000000002
sbasg26
I00
sg27
I00
sg28
I216104
sg20
S'148.880787363'
p904
sba(igraph
Edge
p905
(dp906
g7
I1
sg8
I00
sg9
I5
sg10
(lp907
g901
a(igraph
Vertex
p908
(dp909
g14
F0.83333333333333348
sg8
I00
sg15
I0
sg17
F251.0
sg18
F-327.33333333333343
sg19
I216542
sg20
S'148.682286436'
p910
sg22
F0.90000000000000002
sbasg26
I00
sg27
I00
sg28
I216105
sg20
S'148.883588277'
p911
sba(igraph
Edge
p912
(dp913
g7
I1
sg8
I00
sg9
I5
sg10
(lp914
g908
a(igraph
Vertex
p915
(dp916
g14
F0.91666666666666652
sg8
I00
sg15
g16
sg17
F251.0
sg18
F-375.66666666666663
sg19
I216544
sg20
S'148.683383223'
p917
sg22
F0.90000000000000002
sbasg26
I00
sg27
I00
sg28
I216106
sg20
S'148.886423833'
p918
sba(igraph
Edge
p919
(dp920
g7
I1
sg8
I00
sg9
I5
sg10
(lp921
g915
a(igraph
Vertex
p922
(dp923
g14
F1.0
sg8
I00
sg15
g16
sg17
F251.0
sg18
F-424.0
sg19
I216545
sg20
S'148.684459058'
p924
sg22
F0.90000000000000002
sbasg26
I00
sg27
I00
sg28
I216107
sg20
S'148.889244303'
p925
sba(igraph
Edge
p926
(dp927
g7
I1
sg8
I00
sg9
I5
sg10
(lp928
g922
ag842
asg26
I00
sg27
I00
sg28
I216108
sg20
S'148.892085447'
p929
sba(igraph
Edge
p930
(dp931
g7
I1
sg8
I00
sg9
I5
sg10
(lp932
(igraph
Vertex
p933
(dp934
g14
F0.0
sg8
I00
sg15
g16
sg17
F314.0
sg18
F156.0
sg19
I216546
sg20
S'148.68554942'
p935
sg22
F1.0
sba(igraph
Vertex
p936
(dp937
g14
F0.08333333333333337
sg8
I00
sg15
g16
sg17
F314.0
sg18
F107.66666666666664
sg19
I216547
sg20
S'148.686642017'
p938
sg22
F1.0
sbasg26
I00
sg27
I00
sg28
I216109
sg20
S'148.894898653'
p939
sba(igraph
Edge
p940
(dp941
g7
I1
sg8
I00
sg9
I5
sg10
(lp942
g936
a(igraph
Vertex
p943
(dp944
g14
F0.16666666666666663
sg8
I00
sg15
g16
sg17
F314.0
sg18
F59.333333333333357
sg19
I216548
sg20
S'148.687736291'
p945
sg22
F1.0
sbasg26
I00
sg27
I00
sg28
I216110
sg20
S'148.897980889'
p946
sba(igraph
Edge
p947
(dp948
g7
I1
sg8
I00
sg9
I5
sg10
(lp949
g943
a(igraph
Vertex
p950
(dp951
g14
F0.25
sg8
I00
sg15
g16
sg17
F314.0
sg18
F11.0
sg19
I216549
sg20
S'148.69075064'
p952
sg22
F1.0
sbasg26
I00
sg27
I00
sg28
I216111
sg20
S'148.900912826'
p953
sba(igraph
Edge
p954
(dp955
g7
I1
sg8
I00
sg9
I5
sg10
(lp956
g950
a(igraph
Vertex
p957
(dp958
g14
F0.33333333333333326
sg8
I00
sg15
g16
sg17
F314.0
sg18
F-37.333333333333286
sg19
I216550
sg20
S'148.692582717'
p959
sg22
F1.0
sbasg26
I00
sg27
I00
sg28
I216112
sg20
S'148.903862642'
p960
sba(igraph
Edge
p961
(dp962
g7
I1
sg8
I00
sg9
I5
sg10
(lp963
g957
a(igraph
Vertex
p964
(dp965
g14
F0.41666666666666652
sg8
I00
sg15
g16
sg17
F314.0
sg18
F-85.666666666666572
sg19
I216551
sg20
S'148.693732583'
p966
sg22
F1.0
sbasg26
I00
sg27
I00
sg28
I216113
sg20
S'148.906781448'
p967
sba(igraph
Edge
p968
(dp969
g7
I1
sg8
I00
sg9
I5
sg10
(lp970
g964
a(igraph
Vertex
p971
(dp972
g14
F0.5
sg8
I00
sg15
g16
sg17
F314.0
sg18
F-134.0
sg19
I216552
sg20
S'148.694899491'
p973
sg22
F1.0
sbasg26
I00
sg27
I00
sg28
I216114
sg20
S'148.90977289'
p974
sba(igraph
Edge
p975
(dp976
g7
I1
sg8
I00
sg9
I5
sg10
(lp977
g971
a(igraph
Vertex
p978
(dp979
g14
F0.58333333333333326
sg8
I00
sg15
g16
sg17
F314.0
sg18
F-182.33333333333331
sg19
I216553
sg20
S'148.696034552'
p980
sg22
F1.0
sbasg26
I00
sg27
I00
sg28
I216115
sg20
S'148.912724941'
p981
sba(igraph
Edge
p982
(dp983
g7
I1
sg8
I00
sg9
I5
sg10
(lp984
g978
a(igraph
Vertex
p985
(dp986
g14
F0.66666666666666652
sg8
I00
sg15
g16
sg17
F314.0
sg18
F-230.66666666666657
sg19
I216554
sg20
S'148.697182742'
p987
sg22
F1.0
sbasg26
I00
sg27
I00
sg28
I216116
sg20
S'148.915728954'
p988
sba(igraph
Edge
p989
(dp990
g7
I1
sg8
I00
sg9
I5
sg10
(lp991
g985
a(igraph
Vertex
p992
(dp993
g14
F0.75
sg8
I00
sg15
g16
sg17
F314.0
sg18
F-279.0
sg19
I216555
sg20
S'148.698340432'
p994
sg22
F1.0
sbasg26
I00
sg27
I00
sg28
I216117
sg20
S'148.918756155'
p995
sba(igraph
Edge
p996
(dp997
g7
I1
sg8
I00
sg9
I5
sg10
(lp998
g992
a(igraph
Vertex
p999
(dp1000
g14
F0.83333333333333348
sg8
I00
sg15
g16
sg17
F314.0
sg18
F-327.33333333333343
sg19
I216556
sg20
S'148.699503987'
p1001
sg22
F1.0
sbasg26
I00
sg27
I00
sg28
I216118
sg20
S'148.9218694'
p1002
sba(igraph
Edge
p1003
(dp1004
g7
I1
sg8
I00
sg9
I5
sg10
(lp1005
g999
a(igraph
Vertex
p1006
(dp1007
g14
F0.91666666666666652
sg8
I00
sg15
g16
sg17
F314.0
sg18
F-375.66666666666663
sg19
I216557
sg20
S'148.700724254'
p1008
sg22
F1.0
sbasg26
I00
sg27
I00
sg28
I216119
sg20
S'148.925073717'
p1009
sba(igraph
Edge
p1010
(dp1011
g7
I1
sg8
I00
sg9
I5
sg10
(lp1012
g1006
a(igraph
Vertex
p1013
(dp1014
g14
F1.0
sg8
I00
sg15
I0
sg17
F314.0
sg18
F-424.0
sg19
I216558
sg20
S'148.701917143'
p1015
sg22
F1.0
sbasg26
I00
sg27
I00
sg28
I216120
sg20
S'148.928194226'
p1016
sba(igraph
Edge
p1017
(dp1018
g7
I1
sg8
I00
sg9
I5
sg10
(lp1019
g1013
ag933
asg26
I00
sg27
I00
sg28
I216121
sg20
S'148.931341833'
p1020
sba(igraph
Edge
p1021
(dp1022
g7
I1
sg8
I00
sg9
I5
sg10
(lp1023
g12
ag114
asg26
I00
sg27
I00
sg28
I216122
sg20
S'148.934510671'
p1024
sba(igraph
Edge
p1025
(dp1026
g7
I1
sg8
I00
sg9
I5
sg10
(lp1027
g23
ag124
asg26
I00
sg27
I00
sg28
I216123
sg20
S'148.937685097'
p1028
sba(igraph
Edge
p1029
(dp1030
g7
I1
sg8
I00
sg9
I5
sg10
(lp1031
g33
ag124
asg26
I00
sg27
I00
sg28
I216124
sg20
S'148.940863713'
p1032
sba(igraph
Edge
p1033
(dp1034
g7
I1
sg8
I00
sg9
I5
sg10
(lp1035
g40
ag138
asg26
I00
sg27
I00
sg28
I216125
sg20
S'148.944056298'
p1036
sba(igraph
Edge
p1037
(dp1038
g7
I1
sg8
I00
sg9
I5
sg10
(lp1039
g47
ag138
asg26
I00
sg27
I00
sg28
I216126
sg20
S'148.947283244'
p1040
sba(igraph
Edge
p1041
(dp1042
g7
I1
sg8
I00
sg9
I5
sg10
(lp1043
g54
ag152
asg26
I00
sg27
I00
sg28
I216127
sg20
S'148.950527791'
p1044
sba(igraph
Edge
p1045
(dp1046
g7
I1
sg8
I00
sg9
I5
sg10
(lp1047
g61
ag152
asg26
I00
sg27
I00
sg28
I216128
sg20
S'148.954221277'
p1048
sba(igraph
Edge
p1049
(dp1050
g7
I1
sg8
I00
sg9
I5
sg10
(lp1051
g68
ag166
asg26
I00
sg27
I00
sg28
I216129
sg20
S'148.957502699'
p1052
sba(igraph
Edge
p1053
(dp1054
g7
I1
sg8
I00
sg9
I5
sg10
(lp1055
g75
ag166
asg26
I00
sg27
I00
sg28
I216130
sg20
S'148.960781328'
p1056
sba(igraph
Edge
p1057
(dp1058
g7
I1
sg8
I00
sg9
I5
sg10
(lp1059
g82
ag180
asg26
I00
sg27
I00
sg28
I216131
sg20
S'148.964101303'
p1060
sba(igraph
Edge
p1061
(dp1062
g7
I1
sg8
I00
sg9
I5
sg10
(lp1063
g89
ag180
asg26
I00
sg27
I00
sg28
I216132
sg20
S'148.967678853'
p1064
sba(igraph
Edge
p1065
(dp1066
g7
I1
sg8
I00
sg9
I5
sg10
(lp1067
g96
ag194
asg26
I00
sg27
I00
sg28
I216133
sg20
S'148.971007768'
p1068
sba(igraph
Edge
p1069
(dp1070
g7
I1
sg8
I00
sg9
I5
sg10
(lp1071
g103
ag194
asg26
I00
sg27
I00
sg28
I216134
sg20
S'148.974451781'
p1072
sba(igraph
Edge
p1073
(dp1074
g7
I1
sg8
I00
sg9
I5
sg10
(lp1075
g12
ag117
asg26
I00
sg27
I00
sg28
I216135
sg20
S'148.977875121'
p1076
sba(igraph
Edge
p1077
(dp1078
g7
I1
sg8
I00
sg9
I5
sg10
(lp1079
g23
ag117
asg26
I00
sg27
I00
sg28
I216136
sg20
S'148.98131662'
p1080
sba(igraph
Edge
p1081
(dp1082
g7
I1
sg8
I00
sg9
I5
sg10
(lp1083
g33
ag131
asg26
I00
sg27
I00
sg28
I216137
sg20
S'148.984798347'
p1084
sba(igraph
Edge
p1085
(dp1086
g7
I1
sg8
I00
sg9
I5
sg10
(lp1087
g40
ag131
asg26
I00
sg27
I00
sg28
I216138
sg20
S'148.988285941'
p1088
sba(igraph
Edge
p1089
(dp1090
g7
I1
sg8
I00
sg9
I5
sg10
(lp1091
g47
ag145
asg26
I00
sg27
I00
sg28
I216139
sg20
S'148.99200457'
p1092
sba(igraph
Edge
p1093
(dp1094
g7
I1
sg8
I00
sg9
I5
sg10
(lp1095
g54
ag145
asg26
I00
sg27
I00
sg28
I216140
sg20
S'148.995574018'
p1096
sba(igraph
Edge
p1097
(dp1098
g7
I1
sg8
I00
sg9
I5
sg10
(lp1099
g61
ag159
asg26
I00
sg27
I00
sg28
I216141
sg20
S'148.999130895'
p1100
sba(igraph
Edge
p1101
(dp1102
g7
I1
sg8
I00
sg9
I5
sg10
(lp1103
g68
ag159
asg26
I00
sg27
I00
sg28
I216142
sg20
S'149.002862096'
p1104
sba(igraph
Edge
p1105
(dp1106
g7
I1
sg8
I00
sg9
I5
sg10
(lp1107
g75
ag173
asg26
I00
sg27
I00
sg28
I216143
sg20
S'149.006416179'
p1108
sba(igraph
Edge
p1109
(dp1110
g7
I1
sg8
I00
sg9
I5
sg10
(lp1111
g82
ag173
asg26
I00
sg27
I00
sg28
I216144
sg20
S'149.010074185'
p1112
sba(igraph
Edge
p1113
(dp1114
g7
I1
sg8
I00
sg9
I5
sg10
(lp1115
g89
ag187
asg26
I00
sg27
I00
sg28
I216145
sg20
S'149.013745881'
p1116
sba(igraph
Edge
p1117
(dp1118
g7
I1
sg8
I00
sg9
I5
sg10
(lp1119
g96
ag187
asg26
I00
sg27
I00
sg28
I216146
sg20
S'149.017389361'
p1120
sba(igraph
Edge
p1121
(dp1122
g7
I1
sg8
I00
sg9
I5
sg10
(lp1123
g103
ag114
asg26
I00
sg27
I00
sg28
I216147
sg20
S'149.021164701'
p1124
sba(igraph
Edge
p1125
(dp1126
g7
I1
sg8
I00
sg9
I5
sg10
(lp1127
g12
ag933
asg26
I00
sg27
I00
sg28
I216148
sg20
S'149.024994517'
p1128
sba(igraph
Edge
p1129
(dp1130
g7
I1
sg8
I00
sg9
I5
sg10
(lp1131
g23
ag933
asg26
I00
sg27
I00
sg28
I216149
sg20
S'149.028729629'
p1132
sba(igraph
Edge
p1133
(dp1134
g7
I1
sg8
I00
sg9
I5
sg10
(lp1135
g33
ag943
asg26
I00
sg27
I00
sg28
I216150
sg20
S'149.03250888'
p1136
sba(igraph
Edge
p1137
(dp1138
g7
I1
sg8
I00
sg9
I5
sg10
(lp1139
g40
ag943
asg26
I00
sg27
I00
sg28
I216151
sg20
S'149.036334227'
p1140
sba(igraph
Edge
p1141
(dp1142
g7
I1
sg8
I00
sg9
I5
sg10
(lp1143
g47
ag957
asg26
I00
sg27
I00
sg28
I216152
sg20
S'149.040154545'
p1144
sba(igraph
Edge
p1145
(dp1146
g7
I1
sg8
I00
sg9
I5
sg10
(lp1147
g54
ag957
asg26
I00
sg27
I00
sg28
I216153
sg20
S'149.044003358'
p1148
sba(igraph
Edge
p1149
(dp1150
g7
I1
sg8
I00
sg9
I5
sg10
(lp1151
g61
ag971
asg26
I00
sg27
I00
sg28
I216154
sg20
S'149.047881784'
p1152
sba(igraph
Edge
p1153
(dp1154
g7
I1
sg8
I00
sg9
I5
sg10
(lp1155
g68
ag971
asg26
I00
sg27
I00
sg28
I216155
sg20
S'149.051767753'
p1156
sba(igraph
Edge
p1157
(dp1158
g7
I1
sg8
I00
sg9
I5
sg10
(lp1159
g75
ag985
asg26
I00
sg27
I00
sg28
I216156
sg20
S'149.055660705'
p1160
sba(igraph
Edge
p1161
(dp1162
g7
I1
sg8
I00
sg9
I5
sg10
(lp1163
g82
ag985
asg26
I00
sg27
I00
sg28
I216157
sg20
S'149.05964529'
p1164
sba(igraph
Edge
p1165
(dp1166
g7
I1
sg8
I00
sg9
I5
sg10
(lp1167
g89
ag999
asg26
I00
sg27
I00
sg28
I216158
sg20
S'149.063617024'
p1168
sba(igraph
Edge
p1169
(dp1170
g7
I1
sg8
I00
sg9
I5
sg10
(lp1171
g96
ag999
asg26
I00
sg27
I00
sg28
I216159
sg20
S'149.067543501'
p1172
sba(igraph
Edge
p1173
(dp1174
g7
I1
sg8
I00
sg9
I5
sg10
(lp1175
g103
ag1013
asg26
I00
sg27
I00
sg28
I216160
sg20
S'149.071577533'
p1176
sba(igraph
Edge
p1177
(dp1178
g7
I1
sg8
I00
sg9
I5
sg10
(lp1179
g12
ag1013
asg26
I00
sg27
I00
sg28
I216161
sg20
S'149.075540327'
p1180
sba(igraph
Edge
p1181
(dp1182
g7
I1
sg8
I00
sg9
I5
sg10
(lp1183
g23
ag936
asg26
I00
sg27
I00
sg28
I216162
sg20
S'149.079573801'
p1184
sba(igraph
Edge
p1185
(dp1186
g7
I1
sg8
I00
sg9
I5
sg10
(lp1187
g33
ag936
asg26
I00
sg27
I00
sg28
I216163
sg20
S'149.083713153'
p1188
sba(igraph
Edge
p1189
(dp1190
g7
I1
sg8
I00
sg9
I5
sg10
(lp1191
g40
ag950
asg26
I00
sg27
I00
sg28
I216164
sg20
S'149.0877321'
p1192
sba(igraph
Edge
p1193
(dp1194
g7
I1
sg8
I00
sg9
I5
sg10
(lp1195
g47
ag950
asg26
I00
sg27
I00
sg28
I216165
sg20
S'149.091806081'
p1196
sba(igraph
Edge
p1197
(dp1198
g7
I1
sg8
I00
sg9
I5
sg10
(lp1199
g54
ag964
asg26
I00
sg27
I00
sg28
I216166
sg20
S'149.095935377'
p1200
sba(igraph
Edge
p1201
(dp1202
g7
I1
sg8
I00
sg9
I5
sg10
(lp1203
g61
ag964
asg26
I00
sg27
I00
sg28
I216167
sg20
S'149.1000088'
p1204
sba(igraph
Edge
p1205
(dp1206
g7
I1
sg8
I00
sg9
I5
sg10
(lp1207
g68
ag978
asg26
I00
sg27
I00
sg28
I216168
sg20
S'149.104390642'
p1208
sba(igraph
Edge
p1209
(dp1210
g7
I1
sg8
I00
sg9
I5
sg10
(lp1211
g75
ag978
asg26
I00
sg27
I00
sg28
I216169
sg20
S'149.109048496'
p1212
sba(igraph
Edge
p1213
(dp1214
g7
I1
sg8
I00
sg9
I5
sg10
(lp1215
g82
ag992
asg26
I00
sg27
I00
sg28
I216170
sg20
S'149.113316357'
p1216
sba(igraph
Edge
p1217
(dp1218
g7
I1
sg8
I00
sg9
I5
sg10
(lp1219
g89
ag992
asg26
I00
sg27
I00
sg28
I216171
sg20
S'149.117493424'
p1220
sba(igraph
Edge
p1221
(dp1222
g7
I1
sg8
I00
sg9
I5
sg10
(lp1223
g96
ag1006
asg26
I00
sg27
I00
sg28
I216172
sg20
S'149.121788942'
p1224
sba(igraph
Edge
p1225
(dp1226
g7
I1
sg8
I00
sg9
I5
sg10
(lp1227
g103
ag1006
asg26
I00
sg27
I00
sg28
I216173
sg20
S'149.126002048'
p1228
sba(igraph
Edge
p1229
(dp1230
g7
I1
sg8
I00
sg9
I5
sg10
(lp1231
g114
ag205
asg26
I00
sg27
I00
sg28
I216174
sg20
S'149.130387801'
p1232
sba(igraph
Edge
p1233
(dp1234
g7
I1
sg8
I00
sg9
I5
sg10
(lp1235
g117
ag215
asg26
I00
sg27
I00
sg28
I216175
sg20
S'149.134794506'
p1236
sba(igraph
Edge
p1237
(dp1238
g7
I1
sg8
I00
sg9
I5
sg10
(lp1239
g124
ag215
asg26
I00
sg27
I00
sg28
I216176
sg20
S'149.139078849'
p1240
sba(igraph
Edge
p1241
(dp1242
g7
I1
sg8
I00
sg9
I5
sg10
(lp1243
g131
ag229
asg26
I00
sg27
I00
sg28
I216177
sg20
S'149.143387218'
p1244
sba(igraph
Edge
p1245
(dp1246
g7
I1
sg8
I00
sg9
I5
sg10
(lp1247
g138
ag229
asg26
I00
sg27
I00
sg28
I216178
sg20
S'149.147740285'
p1248
sba(igraph
Edge
p1249
(dp1250
g7
I1
sg8
I00
sg9
I5
sg10
(lp1251
g145
ag243
asg26
I00
sg27
I00
sg28
I216179
sg20
S'149.152157607'
p1252
sba(igraph
Edge
p1253
(dp1254
g7
I1
sg8
I00
sg9
I5
sg10
(lp1255
g152
ag243
asg26
I00
sg27
I00
sg28
I216180
sg20
S'149.156521569'
p1256
sba(igraph
Edge
p1257
(dp1258
g7
I1
sg8
I00
sg9
I5
sg10
(lp1259
g159
ag257
asg26
I00
sg27
I00
sg28
I216181
sg20
S'149.16099616'
p1260
sba(igraph
Edge
p1261
(dp1262
g7
I1
sg8
I00
sg9
I5
sg10
(lp1263
g166
ag257
asg26
I00
sg27
I00
sg28
I216182
sg20
S'149.165538916'
p1264
sba(igraph
Edge
p1265
(dp1266
g7
I1
sg8
I00
sg9
I5
sg10
(lp1267
g173
ag271
asg26
I00
sg27
I00
sg28
I216183
sg20
S'149.170021609'
p1268
sba(igraph
Edge
p1269
(dp1270
g7
I1
sg8
I00
sg9
I5
sg10
(lp1271
g180
ag271
asg26
I00
sg27
I00
sg28
I216184
sg20
S'149.17457079'
p1272
sba(igraph
Edge
p1273
(dp1274
g7
I1
sg8
I00
sg9
I5
sg10
(lp1275
g187
ag285
asg26
I00
sg27
I00
sg28
I216185
sg20
S'149.17916914'
p1276
sba(igraph
Edge
p1277
(dp1278
g7
I1
sg8
I00
sg9
I5
sg10
(lp1279
g194
ag285
asg26
I00
sg27
I00
sg28
I216186
sg20
S'149.183695134'
p1280
sba(igraph
Edge
p1281
(dp1282
g7
I1
sg8
I00
sg9
I5
sg10
(lp1283
g114
ag208
asg26
I00
sg27
I00
sg28
I216187
sg20
S'149.188201573'
p1284
sba(igraph
Edge
p1285
(dp1286
g7
I1
sg8
I00
sg9
I5
sg10
(lp1287
g117
ag208
asg26
I00
sg27
I00
sg28
I216188
sg20
S'149.192856634'
p1288
sba(igraph
Edge
p1289
(dp1290
g7
I1
sg8
I00
sg9
I5
sg10
(lp1291
g124
ag222
asg26
I00
sg27
I00
sg28
I216189
sg20
S'149.199254933'
p1292
sba(igraph
Edge
p1293
(dp1294
g7
I1
sg8
I00
sg9
I5
sg10
(lp1295
g131
ag222
asg26
I00
sg27
I00
sg28
I216190
sg20
S'149.204129016'
p1296
sba(igraph
Edge
p1297
(dp1298
g7
I1
sg8
I00
sg9
I5
sg10
(lp1299
g138
ag236
asg26
I00
sg27
I00
sg28
I216191
sg20
S'149.208803074'
p1300
sba(igraph
Edge
p1301
(dp1302
g7
I1
sg8
I00
sg9
I5
sg10
(lp1303
g145
ag236
asg26
I00
sg27
I00
sg28
I216192
sg20
S'149.213496687'
p1304
sba(igraph
Edge
p1305
(dp1306
g7
I1
sg8
I00
sg9
I5
sg10
(lp1307
g152
ag250
asg26
I00
sg27
I00
sg28
I216193
sg20
S'149.218343393'
p1308
sba(igraph
Edge
p1309
(dp1310
g7
I1
sg8
I00
sg9
I5
sg10
(lp1311
g159
ag250
asg26
I00
sg27
I00
sg28
I216194
sg20
S'149.223081984'
p1312
sba(igraph
Edge
p1313
(dp1314
g7
I1
sg8
I00
sg9
I5
sg10
(lp1315
g166
ag264
asg26
I00
sg27
I00
sg28
I216195
sg20
S'149.227761629'
p1316
sba(igraph
Edge
p1317
(dp1318
g7
I1
sg8
I00
sg9
I5
sg10
(lp1319
g173
ag264
asg26
I00
sg27
I00
sg28
I216196
sg20
S'149.232497426'
p1320
sba(igraph
Edge
p1321
(dp1322
g7
I1
sg8
I00
sg9
I5
sg10
(lp1323
g180
ag278
asg26
I00
sg27
I00
sg28
I216197
sg20
S'149.237482417'
p1324
sba(igraph
Edge
p1325
(dp1326
g7
I1
sg8
I00
sg9
I5
sg10
(lp1327
g187
ag278
asg26
I00
sg27
I00
sg28
I216198
sg20
S'149.242252297'
p1328
sba(igraph
Edge
p1329
(dp1330
g7
I1
sg8
I00
sg9
I5
sg10
(lp1331
g194
ag205
asg26
I00
sg27
I00
sg28
I216199
sg20
S'149.247077492'
p1332
sba(igraph
Edge
p1333
(dp1334
g7
I1
sg8
I00
sg9
I5
sg10
(lp1335
g205
ag296
asg26
I00
sg27
I00
sg28
I216200
sg20
S'149.251946546'
p1336
sba(igraph
Edge
p1337
(dp1338
g7
I1
sg8
I00
sg9
I5
sg10
(lp1339
g208
ag306
asg26
I00
sg27
I00
sg28
I216201
sg20
S'149.256790179'
p1340
sba(igraph
Edge
p1341
(dp1342
g7
I1
sg8
I00
sg9
I5
sg10
(lp1343
g215
ag306
asg26
I00
sg27
I00
sg28
I216202
sg20
S'149.261596935'
p1344
sba(igraph
Edge
p1345
(dp1346
g7
I1
sg8
I00
sg9
I5
sg10
(lp1347
g222
ag320
asg26
I00
sg27
I00
sg28
I216203
sg20
S'149.266482193'
p1348
sba(igraph
Edge
p1349
(dp1350
g7
I1
sg8
I00
sg9
I5
sg10
(lp1351
g229
ag320
asg26
I00
sg27
I00
sg28
I216204
sg20
S'149.271604631'
p1352
sba(igraph
Edge
p1353
(dp1354
g7
I1
sg8
I00
sg9
I5
sg10
(lp1355
g236
ag334
asg26
I00
sg27
I00
sg28
I216205
sg20
S'149.276631248'
p1356
sba(igraph
Edge
p1357
(dp1358
g7
I1
sg8
I00
sg9
I5
sg10
(lp1359
g243
ag334
asg26
I00
sg27
I00
sg28
I216206
sg20
S'149.28168161'
p1360
sba(igraph
Edge
p1361
(dp1362
g7
I1
sg8
I00
sg9
I5
sg10
(lp1363
g250
ag348
asg26
I00
sg27
I00
sg28
I216207
sg20
S'149.286714373'
p1364
sba(igraph
Edge
p1365
(dp1366
g7
I1
sg8
I00
sg9
I5
sg10
(lp1367
g257
ag348
asg26
I00
sg27
I00
sg28
I216208
sg20
S'149.291722551'
p1368
sba(igraph
Edge
p1369
(dp1370
g7
I1
sg8
I00
sg9
I5
sg10
(lp1371
g264
ag362
asg26
I00
sg27
I00
sg28
I216209
sg20
S'149.296850577'
p1372
sba(igraph
Edge
p1373
(dp1374
g7
I1
sg8
I00
sg9
I5
sg10
(lp1375
g271
ag362
asg26
I00
sg27
I00
sg28
I216210
sg20
S'149.302078616'
p1376
sba(igraph
Edge
p1377
(dp1378
g7
I1
sg8
I00
sg9
I5
sg10
(lp1379
g278
ag376
asg26
I00
sg27
I00
sg28
I216211
sg20
S'149.307235137'
p1380
sba(igraph
Edge
p1381
(dp1382
g7
I1
sg8
I00
sg9
I5
sg10
(lp1383
g285
ag376
asg26
I00
sg27
I00
sg28
I216212
sg20
S'149.312432725'
p1384
sba(igraph
Edge
p1385
(dp1386
g7
I1
sg8
I00
sg9
I5
sg10
(lp1387
g205
ag299
asg26
I00
sg27
I00
sg28
I216213
sg20
S'149.317540078'
p1388
sba(igraph
Edge
p1389
(dp1390
g7
I1
sg8
I00
sg9
I5
sg10
(lp1391
g208
ag299
asg26
I00
sg27
I00
sg28
I216214
sg20
S'149.322762809'
p1392
sba(igraph
Edge
p1393
(dp1394
g7
I1
sg8
I00
sg9
I5
sg10
(lp1395
g215
ag313
asg26
I00
sg27
I00
sg28
I216215
sg20
S'149.32790648'
p1396
sba(igraph
Edge
p1397
(dp1398
g7
I1
sg8
I00
sg9
I5
sg10
(lp1399
g222
ag313
asg26
I00
sg27
I00
sg28
I216216
sg20
S'149.333063839'
p1400
sba(igraph
Edge
p1401
(dp1402
g7
I1
sg8
I00
sg9
I5
sg10
(lp1403
g229
ag327
asg26
I00
sg27
I00
sg28
I216217
sg20
S'149.338327078'
p1404
sba(igraph
Edge
p1405
(dp1406
g7
I1
sg8
I00
sg9
I5
sg10
(lp1407
g236
ag327
asg26
I00
sg27
I00
sg28
I216218
sg20
S'149.343636971'
p1408
sba(igraph
Edge
p1409
(dp1410
g7
I1
sg8
I00
sg9
I5
sg10
(lp1411
g243
ag341
asg26
I00
sg27
I00
sg28
I216219
sg20
S'149.349016705'
p1412
sba(igraph
Edge
p1413
(dp1414
g7
I1
sg8
I00
sg9
I5
sg10
(lp1415
g250
ag341
asg26
I00
sg27
I00
sg28
I216220
sg20
S'149.354326039'
p1416
sba(igraph
Edge
p1417
(dp1418
g7
I1
sg8
I00
sg9
I5
sg10
(lp1419
g257
ag355
asg26
I00
sg27
I00
sg28
I216221
sg20
S'149.359686776'
p1420
sba(igraph
Edge
p1421
(dp1422
g7
I1
sg8
I00
sg9
I5
sg10
(lp1423
g264
ag355
asg26
I00
sg27
I00
sg28
I216222
sg20
S'149.364990523'
p1424
sba(igraph
Edge
p1425
(dp1426
g7
I1
sg8
I00
sg9
I5
sg10
(lp1427
g271
ag369
asg26
I00
sg27
I00
sg28
I216223
sg20
S'149.370287285'
p1428
sba(igraph
Edge
p1429
(dp1430
g7
I1
sg8
I00
sg9
I5
sg10
(lp1431
g278
ag369
asg26
I00
sg27
I00
sg28
I216224
sg20
S'149.375639083'
p1432
sba(igraph
Edge
p1433
(dp1434
g7
I1
sg8
I00
sg9
I5
sg10
(lp1435
g285
ag296
asg26
I00
sg27
I00
sg28
I216225
sg20
S'149.381050664'
p1436
sba(igraph
Edge
p1437
(dp1438
g7
I1
sg8
I00
sg9
I5
sg10
(lp1439
g296
ag387
asg26
I00
sg27
I00
sg28
I216226
sg20
S'149.386484036'
p1440
sba(igraph
Edge
p1441
(dp1442
g7
I1
sg8
I00
sg9
I5
sg10
(lp1443
g299
ag397
asg26
I00
sg27
I00
sg28
I216227
sg20
S'149.39200457'
p1444
sba(igraph
Edge
p1445
(dp1446
g7
I1
sg8
I00
sg9
I5
sg10
(lp1447
g306
ag397
asg26
I00
sg27
I00
sg28
I216228
sg20
S'149.397453308'
p1448
sba(igraph
Edge
p1449
(dp1450
g7
I1
sg8
I00
sg9
I5
sg10
(lp1451
g313
ag411
asg26
I00
sg27
I00
sg28
I216229
sg20
S'149.402917969'
p1452
sba(igraph
Edge
p1453
(dp1454
g7
I1
sg8
I00
sg9
I5
sg10
(lp1455
g320
ag411
asg26
I00
sg27
I00
sg28
I216230
sg20
S'149.408433195'
p1456
sba(igraph
Edge
p1457
(dp1458
g7
I1
sg8
I00
sg9
I5
sg10
(lp1459
g327
ag425
asg26
I00
sg27
I00
sg28
I216231
sg20
S'149.413928027'
p1460
sba(igraph
Edge
p1461
(dp1462
g7
I1
sg8
I00
sg9
I5
sg10
(lp1463
g334
ag425
asg26
I00
sg27
I00
sg28
I216232
sg20
S'149.419442415'
p1464
sba(igraph
Edge
p1465
(dp1466
g7
I1
sg8
I00
sg9
I5
sg10
(lp1467
g341
ag439
asg26
I00
sg27
I00
sg28
I216233
sg20
S'149.424952613'
p1468
sba(igraph
Edge
p1469
(dp1470
g7
I1
sg8
I00
sg9
I5
sg10
(lp1471
g348
ag439
asg26
I00
sg27
I00
sg28
I216234
sg20
S'149.430473705'
p1472
sba(igraph
Edge
p1473
(dp1474
g7
I1
sg8
I00
sg9
I5
sg10
(lp1475
g355
ag453
asg26
I00
sg27
I00
sg28
I216235
sg20
S'149.436123027'
p1476
sba(igraph
Edge
p1477
(dp1478
g7
I1
sg8
I00
sg9
I5
sg10
(lp1479
g362
ag453
asg26
I00
sg27
I00
sg28
I216236
sg20
S'149.441756145'
p1480
sba(igraph
Edge
p1481
(dp1482
g7
I1
sg8
I00
sg9
I5
sg10
(lp1483
g369
ag467
asg26
I00
sg27
I00
sg28
I216237
sg20
S'149.447409377'
p1484
sba(igraph
Edge
p1485
(dp1486
g7
I1
sg8
I00
sg9
I5
sg10
(lp1487
g376
ag467
asg26
I00
sg27
I00
sg28
I216238
sg20
S'149.453054229'
p1488
sba(igraph
Edge
p1489
(dp1490
g7
I1
sg8
I00
sg9
I5
sg10
(lp1491
g296
ag390
asg26
I00
sg27
I00
sg28
I216239
sg20
S'149.458773112'
p1492
sba(igraph
Edge
p1493
(dp1494
g7
I1
sg8
I00
sg9
I5
sg10
(lp1495
g299
ag390
asg26
I00
sg27
I00
sg28
I216240
sg20
S'149.464535018'
p1496
sba(igraph
Edge
p1497
(dp1498
g7
I1
sg8
I00
sg9
I5
sg10
(lp1499
g306
ag404
asg26
I00
sg27
I00
sg28
I216241
sg20
S'149.470722955'
p1500
sba(igraph
Edge
p1501
(dp1502
g7
I1
sg8
I00
sg9
I5
sg10
(lp1503
g313
ag404
asg26
I00
sg27
I00
sg28
I216242
sg20
S'149.476506651'
p1504
sba(igraph
Edge
p1505
(dp1506
g7
I1
sg8
I00
sg9
I5
sg10
(lp1507
g320
ag418
asg26
I00
sg27
I00
sg28
I216243
sg20
S'149.482471655'
p1508
sba(igraph
Edge
p1509
(dp1510
g7
I1
sg8
I00
sg9
I5
sg10
(lp1511
g327
ag418
asg26
I00
sg27
I00
sg28
I216244
sg20
S'149.488321002'
p1512
sba(igraph
Edge
p1513
(dp1514
g7
I1
sg8
I00
sg9
I5
sg10
(lp1515
g334
ag432
asg26
I00
sg27
I00
sg28
I216245
sg20
S'149.494198564'
p1516
sba(igraph
Edge
p1517
(dp1518
g7
I1
sg8
I00
sg9
I5
sg10
(lp1519
g341
ag432
asg26
I00
sg27
I00
sg28
I216246
sg20
S'149.500027797'
p1520
sba(igraph
Edge
p1521
(dp1522
g7
I1
sg8
I00
sg9
I5
sg10
(lp1523
g348
ag446
asg26
I00
sg27
I00
sg28
I216247
sg20
S'149.506440064'
p1524
sba(igraph
Edge
p1525
(dp1526
g7
I1
sg8
I00
sg9
I5
sg10
(lp1527
g355
ag446
asg26
I00
sg27
I00
sg28
I216248
sg20
S'149.512382719'
p1528
sba(igraph
Edge
p1529
(dp1530
g7
I1
sg8
I00
sg9
I5
sg10
(lp1531
g362
ag460
asg26
I00
sg27
I00
sg28
I216249
sg20
S'149.518304142'
p1532
sba(igraph
Edge
p1533
(dp1534
g7
I1
sg8
I00
sg9
I5
sg10
(lp1535
g369
ag460
asg26
I00
sg27
I00
sg28
I216250
sg20
S'149.524251267'
p1536
sba(igraph
Edge
p1537
(dp1538
g7
I1
sg8
I00
sg9
I5
sg10
(lp1539
g376
ag387
asg26
I00
sg27
I00
sg28
I216251
sg20
S'149.530287788'
p1540
sba(igraph
Edge
p1541
(dp1542
g7
I1
sg8
I00
sg9
I5
sg10
(lp1543
g387
ag478
asg26
I00
sg27
I00
sg28
I216252
sg20
S'149.5362229'
p1544
sba(igraph
Edge
p1545
(dp1546
g7
I1
sg8
I00
sg9
I5
sg10
(lp1547
g390
ag488
asg26
I00
sg27
I00
sg28
I216253
sg20
S'149.542149072'
p1548
sba(igraph
Edge
p1549
(dp1550
g7
I1
sg8
I00
sg9
I5
sg10
(lp1551
g397
ag488
asg26
I00
sg27
I00
sg28
I216254
sg20
S'149.54840713'
p1552
sba(igraph
Edge
p1553
(dp1554
g7
I1
sg8
I00
sg9
I5
sg10
(lp1555
g404
ag502
asg26
I00
sg27
I00
sg28
I216255
sg20
S'149.554514331'
p1556
sba(igraph
Edge
p1557
(dp1558
g7
I1
sg8
I00
sg9
I5
sg10
(lp1559
g411
ag502
asg26
I00
sg27
I00
sg28
I216256
sg20
S'149.56062656'
p1560
sba(igraph
Edge
p1561
(dp1562
g7
I1
sg8
I00
sg9
I5
sg10
(lp1563
g418
ag516
asg26
I00
sg27
I00
sg28
I216257
sg20
S'149.566695208'
p1564
sba(igraph
Edge
p1565
(dp1566
g7
I1
sg8
I00
sg9
I5
sg10
(lp1567
g425
ag516
asg26
I00
sg27
I00
sg28
I216258
sg20
S'149.57289013'
p1568
sba(igraph
Edge
p1569
(dp1570
g7
I1
sg8
I00
sg9
I5
sg10
(lp1571
g432
ag530
asg26
I00
sg27
I00
sg28
I216259
sg20
S'149.578956543'
p1572
sba(igraph
Edge
p1573
(dp1574
g7
I1
sg8
I00
sg9
I5
sg10
(lp1575
g439
ag530
asg26
I00
sg27
I00
sg28
I216260
sg20
S'149.58510062'
p1576
sba(igraph
Edge
p1577
(dp1578
g7
I1
sg8
I00
sg9
I5
sg10
(lp1579
g446
ag544
asg26
I00
sg27
I00
sg28
I216261
sg20
S'149.591317891'
p1580
sba(igraph
Edge
p1581
(dp1582
g7
I1
sg8
I00
sg9
I5
sg10
(lp1583
g453
ag544
asg26
I00
sg27
I00
sg28
I216262
sg20
S'149.597497727'
p1584
sba(igraph
Edge
p1585
(dp1586
g7
I1
sg8
I00
sg9
I5
sg10
(lp1587
g460
ag558
asg26
I00
sg27
I00
sg28
I216263
sg20
S'149.603681194'
p1588
sba(igraph
Edge
p1589
(dp1590
g7
I1
sg8
I00
sg9
I5
sg10
(lp1591
g467
ag558
asg26
I00
sg27
I00
sg28
I216264
sg20
S'149.609990935'
p1592
sba(igraph
Edge
p1593
(dp1594
g7
I1
sg8
I00
sg9
I5
sg10
(lp1595
g387
ag481
asg26
I00
sg27
I00
sg28
I216265
sg20
S'149.616473043'
p1596
sba(igraph
Edge
p1597
(dp1598
g7
I1
sg8
I00
sg9
I5
sg10
(lp1599
g390
ag481
asg26
I00
sg27
I00
sg28
I216266
sg20
S'149.622686124'
p1600
sba(igraph
Edge
p1601
(dp1602
g7
I1
sg8
I00
sg9
I5
sg10
(lp1603
g397
ag495
asg26
I00
sg27
I00
sg28
I216267
sg20
S'149.629043356'
p1604
sba(igraph
Edge
p1605
(dp1606
g7
I1
sg8
I00
sg9
I5
sg10
(lp1607
g404
ag495
asg26
I00
sg27
I00
sg28
I216268
sg20
S'149.635358125'
p1608
sba(igraph
Edge
p1609
(dp1610
g7
I1
sg8
I00
sg9
I5
sg10
(lp1611
g411
ag509
asg26
I00
sg27
I00
sg28
I216269
sg20
S'149.641820399'
p1612
sba(igraph
Edge
p1613
(dp1614
g7
I1
sg8
I00
sg9
I5
sg10
(lp1615
g418
ag509
asg26
I00
sg27
I00
sg28
I216270
sg20
S'149.64830167'
p1616
sba(igraph
Edge
p1617
(dp1618
g7
I1
sg8
I00
sg9
I5
sg10
(lp1619
g425
ag523
asg26
I00
sg27
I00
sg28
I216271
sg20
S'149.654776236'
p1620
sba(igraph
Edge
p1621
(dp1622
g7
I1
sg8
I00
sg9
I5
sg10
(lp1623
g432
ag523
asg26
I00
sg27
I00
sg28
I216272
sg20
S'149.661372884'
p1624
sba(igraph
Edge
p1625
(dp1626
g7
I1
sg8
I00
sg9
I5
sg10
(lp1627
g439
ag537
asg26
I00
sg27
I00
sg28
I216273
sg20
S'149.667836555'
p1628
sba(igraph
Edge
p1629
(dp1630
g7
I1
sg8
I00
sg9
I5
sg10
(lp1631
g446
ag537
asg26
I00
sg27
I00
sg28
I216274
sg20
S'149.674361686'
p1632
sba(igraph
Edge
p1633
(dp1634
g7
I1
sg8
I00
sg9
I5
sg10
(lp1635
g453
ag551
asg26
I00
sg27
I00
sg28
I216275
sg20
S'149.680806639'
p1636
sba(igraph
Edge
p1637
(dp1638
g7
I1
sg8
I00
sg9
I5
sg10
(lp1639
g460
ag551
asg26
I00
sg27
I00
sg28
I216276
sg20
S'149.687413624'
p1640
sba(igraph
Edge
p1641
(dp1642
g7
I1
sg8
I00
sg9
I5
sg10
(lp1643
g467
ag478
asg26
I00
sg27
I00
sg28
I216277
sg20
S'149.694050501'
p1644
sba(igraph
Edge
p1645
(dp1646
g7
I1
sg8
I00
sg9
I5
sg10
(lp1647
g478
ag569
asg26
I00
sg27
I00
sg28
I216278
sg20
S'149.703824369'
p1648
sba(igraph
Edge
p1649
(dp1650
g7
I1
sg8
I00
sg9
I5
sg10
(lp1651
g481
ag579
asg26
I00
sg27
I00
sg28
I216279
sg20
S'149.710526617'
p1652
sba(igraph
Edge
p1653
(dp1654
g7
I1
sg8
I00
sg9
I5
sg10
(lp1655
g488
ag579
asg26
I00
sg27
I00
sg28
I216280
sg20
S'149.717196739'
p1656
sba(igraph
Edge
p1657
(dp1658
g7
I1
sg8
I00
sg9
I5
sg10
(lp1659
g495
ag593
asg26
I00
sg27
I00
sg28
I216281
sg20
S'149.724387038'
p1660
sba(igraph
Edge
p1661
(dp1662
g7
I1
sg8
I00
sg9
I5
sg10
(lp1663
g502
ag593
asg26
I00
sg27
I00
sg28
I216282
sg20
S'149.731138455'
p1664
sba(igraph
Edge
p1665
(dp1666
g7
I1
sg8
I00
sg9
I5
sg10
(lp1667
g509
ag607
asg26
I00
sg27
I00
sg28
I216283
sg20
S'149.737827014'
p1668
sba(igraph
Edge
p1669
(dp1670
g7
I1
sg8
I00
sg9
I5
sg10
(lp1671
g516
ag607
asg26
I00
sg27
I00
sg28
I216284
sg20
S'149.744924285'
p1672
sba(igraph
Edge
p1673
(dp1674
g7
I1
sg8
I00
sg9
I5
sg10
(lp1675
g523
ag621
asg26
I00
sg27
I00
sg28
I216285
sg20
S'149.751661734'
p1676
sba(igraph
Edge
p1677
(dp1678
g7
I1
sg8
I00
sg9
I5
sg10
(lp1679
g530
ag621
asg26
I00
sg27
I00
sg28
I216286
sg20
S'149.758816554'
p1680
sba(igraph
Edge
p1681
(dp1682
g7
I1
sg8
I00
sg9
I5
sg10
(lp1683
g537
ag635
asg26
I00
sg27
I00
sg28
I216287
sg20
S'149.76569564'
p1684
sba(igraph
Edge
p1685
(dp1686
g7
I1
sg8
I00
sg9
I5
sg10
(lp1687
g544
ag635
asg26
I00
sg27
I00
sg28
I216288
sg20
S'149.772677254'
p1688
sba(igraph
Edge
p1689
(dp1690
g7
I1
sg8
I00
sg9
I5
sg10
(lp1691
g551
ag649
asg26
I00
sg27
I00
sg28
I216289
sg20
S'149.77955215'
p1692
sba(igraph
Edge
p1693
(dp1694
g7
I1
sg8
I00
sg9
I5
sg10
(lp1695
g558
ag649
asg26
I00
sg27
I00
sg28
I216290
sg20
S'149.786577344'
p1696
sba(igraph
Edge
p1697
(dp1698
g7
I1
sg8
I00
sg9
I5
sg10
(lp1699
g478
ag572
asg26
I00
sg27
I00
sg28
I216291
sg20
S'149.793427936'
p1700
sba(igraph
Edge
p1701
(dp1702
g7
I1
sg8
I00
sg9
I5
sg10
(lp1703
g481
ag572
asg26
I00
sg27
I00
sg28
I216292
sg20
S'149.800267911'
p1704
sba(igraph
Edge
p1705
(dp1706
g7
I1
sg8
I00
sg9
I5
sg10
(lp1707
g488
ag586
asg26
I00
sg27
I00
sg28
I216293
sg20
S'149.807203429'
p1708
sba(igraph
Edge
p1709
(dp1710
g7
I1
sg8
I00
sg9
I5
sg10
(lp1711
g495
ag586
asg26
I00
sg27
I00
sg28
I216294
sg20
S'149.814345678'
p1712
sba(igraph
Edge
p1713
(dp1714
g7
I1
sg8
I00
sg9
I5
sg10
(lp1715
g502
ag600
asg26
I00
sg27
I00
sg28
I216295
sg20
S'149.821493793'
p1716
sba(igraph
Edge
p1717
(dp1718
g7
I1
sg8
I00
sg9
I5
sg10
(lp1719
g509
ag600
asg26
I00
sg27
I00
sg28
I216296
sg20
S'149.828652524'
p1720
sba(igraph
Edge
p1721
(dp1722
g7
I1
sg8
I00
sg9
I5
sg10
(lp1723
g516
ag614
asg26
I00
sg27
I00
sg28
I216297
sg20
S'149.835948144'
p1724
sba(igraph
Edge
p1725
(dp1726
g7
I1
sg8
I00
sg9
I5
sg10
(lp1727
g523
ag614
asg26
I00
sg27
I00
sg28
I216298
sg20
S'149.842936742'
p1728
sba(igraph
Edge
p1729
(dp1730
g7
I1
sg8
I00
sg9
I5
sg10
(lp1731
g530
ag628
asg26
I00
sg27
I00
sg28
I216299
sg20
S'149.850003562'
p1732
sba(igraph
Edge
p1733
(dp1734
g7
I1
sg8
I00
sg9
I5
sg10
(lp1735
g537
ag628
asg26
I00
sg27
I00
sg28
I216300
sg20
S'149.857033226'
p1736
sba(igraph
Edge
p1737
(dp1738
g7
I1
sg8
I00
sg9
I5
sg10
(lp1739
g544
ag642
asg26
I00
sg27
I00
sg28
I216301
sg20
S'149.864235259'
p1740
sba(igraph
Edge
p1741
(dp1742
g7
I1
sg8
I00
sg9
I5
sg10
(lp1743
g551
ag642
asg26
I00
sg27
I00
sg28
I216302
sg20
S'149.871367171'
p1744
sba(igraph
Edge
p1745
(dp1746
g7
I1
sg8
I00
sg9
I5
sg10
(lp1747
g558
ag569
asg26
I00
sg27
I00
sg28
I216303
sg20
S'149.878516124'
p1748
sba(igraph
Edge
p1749
(dp1750
g7
I1
sg8
I00
sg9
I5
sg10
(lp1751
g569
ag660
asg26
I00
sg27
I00
sg28
I216304
sg20
S'149.885704189'
p1752
sba(igraph
Edge
p1753
(dp1754
g7
I1
sg8
I00
sg9
I5
sg10
(lp1755
g572
ag670
asg26
I00
sg27
I00
sg28
I216305
sg20
S'149.892804812'
p1756
sba(igraph
Edge
p1757
(dp1758
g7
I1
sg8
I00
sg9
I5
sg10
(lp1759
g579
ag670
asg26
I00
sg27
I00
sg28
I216306
sg20
S'149.89991633'
p1760
sba(igraph
Edge
p1761
(dp1762
g7
I1
sg8
I00
sg9
I5
sg10
(lp1763
g586
ag684
asg26
I00
sg27
I00
sg28
I216307
sg20
S'149.907304979'
p1764
sba(igraph
Edge
p1765
(dp1766
g7
I1
sg8
I00
sg9
I5
sg10
(lp1767
g593
ag684
asg26
I00
sg27
I00
sg28
I216308
sg20
S'149.914458681'
p1768
sba(igraph
Edge
p1769
(dp1770
g7
I1
sg8
I00
sg9
I5
sg10
(lp1771
g600
ag698
asg26
I00
sg27
I00
sg28
I216309
sg20
S'149.921529971'
p1772
sba(igraph
Edge
p1773
(dp1774
g7
I1
sg8
I00
sg9
I5
sg10
(lp1775
g607
ag698
asg26
I00
sg27
I00
sg28
I216310
sg20
S'149.928735077'
p1776
sba(igraph
Edge
p1777
(dp1778
g7
I1
sg8
I00
sg9
I5
sg10
(lp1779
g614
ag712
asg26
I00
sg27
I00
sg28
I216311
sg20
S'149.935867827'
p1780
sba(igraph
Edge
p1781
(dp1782
g7
I1
sg8
I00
sg9
I5
sg10
(lp1783
g621
ag712
asg26
I00
sg27
I00
sg28
I216312
sg20
S'149.943301174'
p1784
sba(igraph
Edge
p1785
(dp1786
g7
I1
sg8
I00
sg9
I5
sg10
(lp1787
g628
ag726
asg26
I00
sg27
I00
sg28
I216313
sg20
S'149.950573048'
p1788
sba(igraph
Edge
p1789
(dp1790
g7
I1
sg8
I00
sg9
I5
sg10
(lp1791
g635
ag726
asg26
I00
sg27
I00
sg28
I216314
sg20
S'149.957814471'
p1792
sba(igraph
Edge
p1793
(dp1794
g7
I1
sg8
I00
sg9
I5
sg10
(lp1795
g642
ag740
asg26
I00
sg27
I00
sg28
I216315
sg20
S'149.965118192'
p1796
sba(igraph
Edge
p1797
(dp1798
g7
I1
sg8
I00
sg9
I5
sg10
(lp1799
g649
ag740
asg26
I00
sg27
I00
sg28
I216316
sg20
S'149.972546511'
p1800
sba(igraph
Edge
p1801
(dp1802
g7
I1
sg8
I00
sg9
I5
sg10
(lp1803
g569
ag663
asg26
I00
sg27
I00
sg28
I216317
sg20
S'149.979765305'
p1804
sba(igraph
Edge
p1805
(dp1806
g7
I1
sg8
I00
sg9
I5
sg10
(lp1807
g572
ag663
asg26
I00
sg27
I00
sg28
I216318
sg20
S'149.987063719'
p1808
sba(igraph
Edge
p1809
(dp1810
g7
I1
sg8
I00
sg9
I5
sg10
(lp1811
g579
ag677
asg26
I00
sg27
I00
sg28
I216319
sg20
S'149.995012774'
p1812
sba(igraph
Edge
p1813
(dp1814
g7
I1
sg8
I00
sg9
I5
sg10
(lp1815
g586
ag677
asg26
I00
sg27
I00
sg28
I216320
sg20
S'150.002504508'
p1816
sba(igraph
Edge
p1817
(dp1818
g7
I1
sg8
I00
sg9
I5
sg10
(lp1819
g593
ag691
asg26
I00
sg27
I00
sg28
I216321
sg20
S'150.009974452'
p1820
sba(igraph
Edge
p1821
(dp1822
g7
I1
sg8
I00
sg9
I5
sg10
(lp1823
g600
ag691
asg26
I00
sg27
I00
sg28
I216322
sg20
S'150.017566758'
p1824
sba(igraph
Edge
p1825
(dp1826
g7
I1
sg8
I00
sg9
I5
sg10
(lp1827
g607
ag705
asg26
I00
sg27
I00
sg28
I216323
sg20
S'150.025238403'
p1828
sba(igraph
Edge
p1829
(dp1830
g7
I1
sg8
I00
sg9
I5
sg10
(lp1831
g614
ag705
asg26
I00
sg27
I00
sg28
I216324
sg20
S'150.032808639'
p1832
sba(igraph
Edge
p1833
(dp1834
g7
I1
sg8
I00
sg9
I5
sg10
(lp1835
g621
ag719
asg26
I00
sg27
I00
sg28
I216325
sg20
S'150.040482519'
p1836
sba(igraph
Edge
p1837
(dp1838
g7
I1
sg8
I00
sg9
I5
sg10
(lp1839
g628
ag719
asg26
I00
sg27
I00
sg28
I216326
sg20
S'150.048496387'
p1840
sba(igraph
Edge
p1841
(dp1842
g7
I1
sg8
I00
sg9
I5
sg10
(lp1843
g635
ag733
asg26
I00
sg27
I00
sg28
I216327
sg20
S'150.056140934'
p1844
sba(igraph
Edge
p1845
(dp1846
g7
I1
sg8
I00
sg9
I5
sg10
(lp1847
g642
ag733
asg26
I00
sg27
I00
sg28
I216328
sg20
S'150.063774307'
p1848
sba(igraph
Edge
p1849
(dp1850
g7
I1
sg8
I00
sg9
I5
sg10
(lp1851
g649
ag660
asg26
I00
sg27
I00
sg28
I216329
sg20
S'150.071521101'
p1852
sba(igraph
Edge
p1853
(dp1854
g7
I1
sg8
I00
sg9
I5
sg10
(lp1855
g660
ag751
asg26
I00
sg27
I00
sg28
I216330
sg20
S'150.079050829'
p1856
sba(igraph
Edge
p1857
(dp1858
g7
I1
sg8
I00
sg9
I5
sg10
(lp1859
g663
ag761
asg26
I00
sg27
I00
sg28
I216331
sg20
S'150.086637268'
p1860
sba(igraph
Edge
p1861
(dp1862
g7
I1
sg8
I00
sg9
I5
sg10
(lp1863
g670
ag761
asg26
I00
sg27
I00
sg28
I216332
sg20
S'150.094323999'
p1864
sba(igraph
Edge
p1865
(dp1866
g7
I1
sg8
I00
sg9
I5
sg10
(lp1867
g677
ag775
asg26
I00
sg27
I00
sg28
I216333
sg20
S'150.102255175'
p1868
sba(igraph
Edge
p1869
(dp1870
g7
I1
sg8
I00
sg9
I5
sg10
(lp1871
g684
ag775
asg26
I00
sg27
I00
sg28
I216334
sg20
S'150.1099975'
p1872
sba(igraph
Edge
p1873
(dp1874
g7
I1
sg8
I00
sg9
I5
sg10
(lp1875
g691
ag789
asg26
I00
sg27
I00
sg28
I216335
sg20
S'150.117870288'
p1876
sba(igraph
Edge
p1877
(dp1878
g7
I1
sg8
I00
sg9
I5
sg10
(lp1879
g698
ag789
asg26
I00
sg27
I00
sg28
I216336
sg20
S'150.12558747'
p1880
sba(igraph
Edge
p1881
(dp1882
g7
I1
sg8
I00
sg9
I5
sg10
(lp1883
g705
ag803
asg26
I00
sg27
I00
sg28
I216337
sg20
S'150.133417515'
p1884
sba(igraph
Edge
p1885
(dp1886
g7
I1
sg8
I00
sg9
I5
sg10
(lp1887
g712
ag803
asg26
I00
sg27
I00
sg28
I216338
sg20
S'150.141594812'
p1888
sba(igraph
Edge
p1889
(dp1890
g7
I1
sg8
I00
sg9
I5
sg10
(lp1891
g719
ag817
asg26
I00
sg27
I00
sg28
I216339
sg20
S'150.149744451'
p1892
sba(igraph
Edge
p1893
(dp1894
g7
I1
sg8
I00
sg9
I5
sg10
(lp1895
g726
ag817
asg26
I00
sg27
I00
sg28
I216340
sg20
S'150.158091601'
p1896
sba(igraph
Edge
p1897
(dp1898
g7
I1
sg8
I00
sg9
I5
sg10
(lp1899
g733
ag831
asg26
I00
sg27
I00
sg28
I216341
sg20
S'150.166028923'
p1900
sba(igraph
Edge
p1901
(dp1902
g7
I1
sg8
I00
sg9
I5
sg10
(lp1903
g740
ag831
asg26
I00
sg27
I00
sg28
I216342
sg20
S'150.174169622'
p1904
sba(igraph
Edge
p1905
(dp1906
g7
I1
sg8
I00
sg9
I5
sg10
(lp1907
g660
ag754
asg26
I00
sg27
I00
sg28
I216343
sg20
S'150.182139909'
p1908
sba(igraph
Edge
p1909
(dp1910
g7
I1
sg8
I00
sg9
I5
sg10
(lp1911
g663
ag754
asg26
I00
sg27
I00
sg28
I216344
sg20
S'150.190168024'
p1912
sba(igraph
Edge
p1913
(dp1914
g7
I1
sg8
I00
sg9
I5
sg10
(lp1915
g670
ag768
asg26
I00
sg27
I00
sg28
I216345
sg20
S'150.199669232'
p1916
sba(igraph
Edge
p1917
(dp1918
g7
I1
sg8
I00
sg9
I5
sg10
(lp1919
g677
ag768
asg26
I00
sg27
I00
sg28
I216346
sg20
S'150.207845411'
p1920
sba(igraph
Edge
p1921
(dp1922
g7
I1
sg8
I00
sg9
I5
sg10
(lp1923
g684
ag782
asg26
I00
sg27
I00
sg28
I216347
sg20
S'150.215922694'
p1924
sba(igraph
Edge
p1925
(dp1926
g7
I1
sg8
I00
sg9
I5
sg10
(lp1927
g691
ag782
asg26
I00
sg27
I00
sg28
I216348
sg20
S'150.224401425'
p1928
sba(igraph
Edge
p1929
(dp1930
g7
I1
sg8
I00
sg9
I5
sg10
(lp1931
g698
ag796
asg26
I00
sg27
I00
sg28
I216349
sg20
S'150.232512233'
p1932
sba(igraph
Edge
p1933
(dp1934
g7
I1
sg8
I00
sg9
I5
sg10
(lp1935
g705
ag796
asg26
I00
sg27
I00
sg28
I216350
sg20
S'150.241051307'
p1936
sba(igraph
Edge
p1937
(dp1938
g7
I1
sg8
I00
sg9
I5
sg10
(lp1939
g712
ag810
asg26
I00
sg27
I00
sg28
I216351
sg20
S'150.251159575'
p1940
sba(igraph
Edge
p1941
(dp1942
g7
I1
sg8
I00
sg9
I5
sg10
(lp1943
g719
ag810
asg26
I00
sg27
I00
sg28
I216352
sg20
S'150.259424592'
p1944
sba(igraph
Edge
p1945
(dp1946
g7
I1
sg8
I00
sg9
I5
sg10
(lp1947
g726
ag824
asg26
I00
sg27
I00
sg28
I216353
sg20
S'150.267771183'
p1948
sba(igraph
Edge
p1949
(dp1950
g7
I1
sg8
I00
sg9
I5
sg10
(lp1951
g733
ag824
asg26
I00
sg27
I00
sg28
I216354
sg20
S'150.276007705'
p1952
sba(igraph
Edge
p1953
(dp1954
g7
I1
sg8
I00
sg9
I5
sg10
(lp1955
g740
ag751
asg26
I00
sg27
I00
sg28
I216355
sg20
S'150.284235846'
p1956
sba(igraph
Edge
p1957
(dp1958
g7
I1
sg8
I00
sg9
I5
sg10
(lp1959
g751
ag842
asg26
I00
sg27
I00
sg28
I216356
sg20
S'150.292511199'
p1960
sba(igraph
Edge
p1961
(dp1962
g7
I1
sg8
I00
sg9
I5
sg10
(lp1963
g754
ag852
asg26
I00
sg27
I00
sg28
I216357
sg20
S'150.30091087'
p1964
sba(igraph
Edge
p1965
(dp1966
g7
I1
sg8
I00
sg9
I5
sg10
(lp1967
g761
ag852
asg26
I00
sg27
I00
sg28
I216358
sg20
S'150.309169741'
p1968
sba(igraph
Edge
p1969
(dp1970
g7
I1
sg8
I00
sg9
I5
sg10
(lp1971
g768
ag866
asg26
I00
sg27
I00
sg28
I216359
sg20
S'150.317617742'
p1972
sba(igraph
Edge
p1973
(dp1974
g7
I1
sg8
I00
sg9
I5
sg10
(lp1975
g775
ag866
asg26
I00
sg27
I00
sg28
I216360
sg20
S'150.326052613'
p1976
sba(igraph
Edge
p1977
(dp1978
g7
I1
sg8
I00
sg9
I5
sg10
(lp1979
g782
ag880
asg26
I00
sg27
I00
sg28
I216361
sg20
S'150.334690303'
p1980
sba(igraph
Edge
p1981
(dp1982
g7
I1
sg8
I00
sg9
I5
sg10
(lp1983
g789
ag880
asg26
I00
sg27
I00
sg28
I216362
sg20
S'150.343176298'
p1984
sba(igraph
Edge
p1985
(dp1986
g7
I1
sg8
I00
sg9
I5
sg10
(lp1987
g796
ag894
asg26
I00
sg27
I00
sg28
I216363
sg20
S'150.351622622'
p1988
sba(igraph
Edge
p1989
(dp1990
g7
I1
sg8
I00
sg9
I5
sg10
(lp1991
g803
ag894
asg26
I00
sg27
I00
sg28
I216364
sg20
S'150.36005889'
p1992
sba(igraph
Edge
p1993
(dp1994
g7
I1
sg8
I00
sg9
I5
sg10
(lp1995
g810
ag908
asg26
I00
sg27
I00
sg28
I216365
sg20
S'150.368627018'
p1996
sba(igraph
Edge
p1997
(dp1998
g7
I1
sg8
I00
sg9
I5
sg10
(lp1999
g817
ag908
asg26
I00
sg27
I00
sg28
I216366
sg20
S'150.3772594'
p2000
sba(igraph
Edge
p2001
(dp2002
g7
I1
sg8
I00
sg9
I5
sg10
(lp2003
g824
ag922
asg26
I00
sg27
I00
sg28
I216367
sg20
S'150.386309713'
p2004
sba(igraph
Edge
p2005
(dp2006
g7
I1
sg8
I00
sg9
I5
sg10
(lp2007
g831
ag922
asg26
I00
sg27
I00
sg28
I216368
sg20
S'150.394893485'
p2008
sba(igraph
Edge
p2009
(dp2010
g7
I1
sg8
I00
sg9
I5
sg10
(lp2011
g751
ag845
asg26
I00
sg27
I00
sg28
I216369
sg20
S'150.403653258'
p2012
sba(igraph
Edge
p2013
(dp2014
g7
I1
sg8
I00
sg9
I5
sg10
(lp2015
g754
ag845
asg26
I00
sg27
I00
sg28
I216370
sg20
S'150.41242644'
p2016
sba(igraph
Edge
p2017
(dp2018
g7
I1
sg8
I00
sg9
I5
sg10
(lp2019
g761
ag859
asg26
I00
sg27
I00
sg28
I216371
sg20
S'150.420990936'
p2020
sba(igraph
Edge
p2021
(dp2022
g7
I1
sg8
I00
sg9
I5
sg10
(lp2023
g768
ag859
asg26
I00
sg27
I00
sg28
I216372
sg20
S'150.429643991'
p2024
sba(igraph
Edge
p2025
(dp2026
g7
I1
sg8
I00
sg9
I5
sg10
(lp2027
g775
ag873
asg26
I00
sg27
I00
sg28
I216373
sg20
S'150.438249833'
p2028
sba(igraph
Edge
p2029
(dp2030
g7
I1
sg8
I00
sg9
I5
sg10
(lp2031
g782
ag873
asg26
I00
sg27
I00
sg28
I216374
sg20
S'150.446930825'
p2032
sba(igraph
Edge
p2033
(dp2034
g7
I1
sg8
I00
sg9
I5
sg10
(lp2035
g789
ag887
asg26
I00
sg27
I00
sg28
I216375
sg20
S'150.455935601'
p2036
sba(igraph
Edge
p2037
(dp2038
g7
I1
sg8
I00
sg9
I5
sg10
(lp2039
g796
ag887
asg26
I00
sg27
I00
sg28
I216376
sg20
S'150.464716046'
p2040
sba(igraph
Edge
p2041
(dp2042
g7
I1
sg8
I00
sg9
I5
sg10
(lp2043
g803
ag901
asg26
I00
sg27
I00
sg28
I216377
sg20
S'150.473413241'
p2044
sba(igraph
Edge
p2045
(dp2046
g7
I1
sg8
I00
sg9
I5
sg10
(lp2047
g810
ag901
asg26
I00
sg27
I00
sg28
I216378
sg20
S'150.482076074'
p2048
sba(igraph
Edge
p2049
(dp2050
g7
I1
sg8
I00
sg9
I5
sg10
(lp2051
g817
ag915
asg26
I00
sg27
I00
sg28
I216379
sg20
S'150.490982234'
p2052
sba(igraph
Edge
p2053
(dp2054
g7
I1
sg8
I00
sg9
I5
sg10
(lp2055
g824
ag915
asg26
I00
sg27
I00
sg28
I216380
sg20
S'150.499728317'
p2056
sba(igraph
Edge
p2057
(dp2058
g7
I1
sg8
I00
sg9
I5
sg10
(lp2059
g831
ag842
asg26
I00
sg27
I00
sg28
I216381
sg20
S'150.50847943'
p2060
sba(igraph
Edge
p2061
(dp2062
g7
I1
sg8
I00
sg9
I5
sg10
(lp2063
g842
ag933
asg26
I00
sg27
I00
sg28
I216382
sg20
S'150.517388383'
p2064
sba(igraph
Edge
p2065
(dp2066
g7
I1
sg8
I00
sg9
I5
sg10
(lp2067
g845
ag943
asg26
I00
sg27
I00
sg28
I216383
sg20
S'150.526249007'
p2068
sba(igraph
Edge
p2069
(dp2070
g7
I1
sg8
I00
sg9
I5
sg10
(lp2071
g852
ag943
asg26
I00
sg27
I00
sg28
I216384
sg20
S'150.535316081'
p2072
sba(igraph
Edge
p2073
(dp2074
g7
I1
sg8
I00
sg9
I5
sg10
(lp2075
g859
ag957
asg26
I00
sg27
I00
sg28
I216385
sg20
S'150.544062723'
p2076
sba(igraph
Edge
p2077
(dp2078
g7
I1
sg8
I00
sg9
I5
sg10
(lp2079
g866
ag957
asg26
I00
sg27
I00
sg28
I216386
sg20
S'150.552866356'
p2080
sba(igraph
Edge
p2081
(dp2082
g7
I1
sg8
I00
sg9
I5
sg10
(lp2083
g873
ag971
asg26
I00
sg27
I00
sg28
I216387
sg20
S'150.561846827'
p2084
sba(igraph
Edge
p2085
(dp2086
g7
I1
sg8
I00
sg9
I5
sg10
(lp2087
g880
ag971
asg26
I00
sg27
I00
sg28
I216388
sg20
S'150.570790701'
p2088
sba(igraph
Edge
p2089
(dp2090
g7
I1
sg8
I00
sg9
I5
sg10
(lp2091
g887
ag985
asg26
I00
sg27
I00
sg28
I216389
sg20
S'150.579708874'
p2092
sba(igraph
Edge
p2093
(dp2094
g7
I1
sg8
I00
sg9
I5
sg10
(lp2095
g894
ag985
asg26
I00
sg27
I00
sg28
I216390
sg20
S'150.589720481'
p2096
sba(igraph
Edge
p2097
(dp2098
g7
I1
sg8
I00
sg9
I5
sg10
(lp2099
g901
ag999
asg26
I00
sg27
I00
sg28
I216391
sg20
S'150.599537651'
p2100
sba(igraph
Edge
p2101
(dp2102
g7
I1
sg8
I00
sg9
I5
sg10
(lp2103
g908
ag999
asg26
I00
sg27
I00
sg28
I216392
sg20
S'150.609529703'
p2104
sba(igraph
Edge
p2105
(dp2106
g7
I1
sg8
I00
sg9
I5
sg10
(lp2107
g915
ag1013
asg26
I00
sg27
I00
sg28
I216393
sg20
S'150.619753628'
p2108
sba(igraph
Edge
p2109
(dp2110
g7
I1
sg8
I00
sg9
I5
sg10
(lp2111
g922
ag1013
asg26
I00
sg27
I00
sg28
I216394
sg20
S'150.630123382'
p2112
sba(igraph
Edge
p2113
(dp2114
g7
I1
sg8
I00
sg9
I5
sg10
(lp2115
g842
ag936
asg26
I00
sg27
I00
sg28
I216395
sg20
S'150.640642037'
p2116
sba(igraph
Edge
p2117
(dp2118
g7
I1
sg8
I00
sg9
I5
sg10
(lp2119
g845
ag936
asg26
I00
sg27
I00
sg28
I216396
sg20
S'150.650991118'
p2120
sba(igraph
Edge
p2121
(dp2122
g7
I1
sg8
I00
sg9
I5
sg10
(lp2123
g852
ag950
asg26
I00
sg27
I00
sg28
I216397
sg20
S'150.661728516'
p2124
sba(igraph
Edge
p2125
(dp2126
g7
I1
sg8
I00
sg9
I5
sg10
(lp2127
g859
ag950
asg26
I00
sg27
I00
sg28
I216398
sg20
S'150.671943501'
p2128
sba(igraph
Edge
p2129
(dp2130
g7
I1
sg8
I00
sg9
I5
sg10
(lp2131
g866
ag964
asg26
I00
sg27
I00
sg28
I216399
sg20
S'150.683424849'
p2132
sba(igraph
Edge
p2133
(dp2134
g7
I1
sg8
I00
sg9
I5
sg10
(lp2135
g873
ag964
asg26
I00
sg27
I00
sg28
I216400
sg20
S'150.701334108'
p2136
sba(igraph
Edge
p2137
(dp2138
g7
I1
sg8
I00
sg9
I5
sg10
(lp2139
g880
ag978
asg26
I00
sg27
I00
sg28
I216401
sg20
S'150.717360726'
p2140
sba(igraph
Edge
p2141
(dp2142
g7
I1
sg8
I00
sg9
I5
sg10
(lp2143
g887
ag978
asg26
I00
sg27
I00
sg28
I216402
sg20
S'150.729134289'
p2144
sba(igraph
Edge
p2145
(dp2146
g7
I1
sg8
I00
sg9
I5
sg10
(lp2147
g894
ag992
asg26
I00
sg27
I00
sg28
I216403
sg20
S'150.740815383'
p2148
sba(igraph
Edge
p2149
(dp2150
g7
I1
sg8
I00
sg9
I5
sg10
(lp2151
g901
ag992
asg26
I00
sg27
I00
sg28
I216404
sg20
S'150.751415613'
p2152
sba(igraph
Edge
p2153
(dp2154
g7
I1
sg8
I00
sg9
I5
sg10
(lp2155
g908
ag1006
asg26
I00
sg27
I00
sg28
I216405
sg20
S'150.762220897'
p2156
sba(igraph
Edge
p2157
(dp2158
g7
I1
sg8
I00
sg9
I5
sg10
(lp2159
g915
ag1006
asg26
I00
sg27
I00
sg28
I216406
sg20
S'150.772866663'
p2160
sba(igraph
Edge
p2161
(dp2162
g7
I1
sg8
I00
sg9
I5
sg10
(lp2163
g922
ag933
asg26
I00
sg27
I00
sg28
I216407
sg20
S'150.783093941'
p2164
sbasS'vertices'
p2165
(lp2166
g12
ag23
ag33
ag40
ag47
ag54
ag61
ag68
ag75
ag82
ag89
ag96
ag103
ag114
ag117
ag124
ag131
ag138
ag145
ag152
ag159
ag166
ag173
ag180
ag187
ag194
ag205
ag208
ag215
ag222
ag229
ag236
ag243
ag250
ag257
ag264
ag271
ag278
ag285
ag296
ag299
ag306
ag313
ag320
ag327
ag334
ag341
ag348
ag355
ag362
ag369
ag376
ag387
ag390
ag397
ag404
ag411
ag418
ag425
ag432
ag439
ag446
ag453
ag460
ag467
ag478
ag481
ag488
ag495
ag502
ag509
ag516
ag523
ag530
ag537
ag544
ag551
ag558
ag569
ag572
ag579
ag586
ag593
ag600
ag607
ag614
ag621
ag628
ag635
ag642
ag649
ag660
ag663
ag670
ag677
ag684
ag691
ag698
ag705
ag712
ag719
ag726
ag733
ag740
ag751
ag754
ag761
ag768
ag775
ag782
ag789
ag796
ag803
ag810
ag817
ag824
ag831
ag842
ag845
ag852
ag859
ag866
ag873
ag880
ag887
ag894
ag901
ag908
ag915
ag922
ag933
ag936
ag943
ag950
ag957
ag964
ag971
ag978
ag985
ag992
ag999
ag1006
ag1013
asS'tags'
p2167
(lp2168
sb.