(igraph
Graph
p0
(dp1
S'labelingConstraints'
p2
I-1
sS'edges'
p3
(lp4
(igraph
Edge
p5
(dp6
S'direction'
p7
I1
sS'selected'
p8
I00
sS'height'
p9
I5
sS'vs'
p10
(lp11
(igraph
Vertex
p12
(dp13
S'xnorm'
p14
F0.0
sg8
I00
sS'label'
p15
S'NULL'
p16
sS'y'
p17
F-263.0
sS'x'
p18
F146.0
sS'circle'
p19
I377453
sS'id'
p20
S'556.563473291'
p21
sS'ynorm'
p22
F0.0
sba(igraph
Vertex
p23
(dp24
g14
F0.083333333333333301
sg8
I00
sg15
g16
sg17
F-263.0
sg18
F96.916666666666686
sg19
I377454
sg20
S'556.563511284'
p25
sg22
F0.0
sbasS'wrap'
p26
I00
sS'curved'
p27
I00
sS'line'
p28
I377063
sg20
S'556.737365224'
p29
sba(igraph
Edge
p30
(dp31
g7
I1
sg8
I00
sg9
I5
sg10
(lp32
g23
a(igraph
Vertex
p33
(dp34
g14
F0.1666666666666666
sg8
I00
sg15
g16
sg17
F-263.0
sg18
F47.833333333333371
sg19
I377455
sg20
S'556.563551792'
p35
sg22
F0.0
sbasg26
I00
sg27
I00
sg28
I377064
sg20
S'556.737568602'
p36
sba(igraph
Edge
p37
(dp38
g7
I1
sg8
I00
sg9
I5
sg10
(lp39
g33
a(igraph
Vertex
p40
(dp41
g14
F0.25
sg8
I01
sg15
I0
sg17
F-263.0
sg18
F-1.25
sg19
I377457
sg20
S'556.563603475'
p42
sg22
F0.0
sbasg26
I00
sg27
I00
sg28
I377065
sg20
S'556.737756614'
p43
sba(igraph
Edge
p44
(dp45
g7
I1
sg8
I00
sg9
I5
sg10
(lp46
g40
a(igraph
Vertex
p47
(dp48
g14
F0.33333333333333331
sg8
I00
sg15
g16
sg17
F-263.0
sg18
F-50.333333333333314
sg19
I377459
sg20
S'556.563773608'
p49
sg22
F0.0
sbasg26
I00
sg27
I00
sg28
I377066
sg20
S'556.737983179'
p50
sba(igraph
Edge
p51
(dp52
g7
I1
sg8
I00
sg9
I5
sg10
(lp53
g47
a(igraph
Vertex
p54
(dp55
g14
F0.41666666666666663
sg8
I00
sg15
g16
sg17
F-263.0
sg18
F-99.416666666666657
sg19
I377460
sg20
S'556.563859653'
p56
sg22
F0.0
sbasg26
I00
sg27
I00
sg28
I377067
sg20
S'556.738257516'
p57
sba(igraph
Edge
p58
(dp59
g7
I1
sg8
I00
sg9
I5
sg10
(lp60
g54
a(igraph
Vertex
p61
(dp62
g14
F0.5
sg8
I00
sg15
g16
sg17
F-263.0
sg18
F-148.5
sg19
I377461
sg20
S'556.563959945'
p63
sg22
F0.0
sbasg26
I00
sg27
I00
sg28
I377068
sg20
S'556.738583814'
p64
sba(igraph
Edge
p65
(dp66
g7
I1
sg8
I00
sg9
I5
sg10
(lp67
g61
a(igraph
Vertex
p68
(dp69
g14
F0.58333333333333326
sg8
I00
sg15
g16
sg17
F-263.0
sg18
F-197.58333333333331
sg19
I377462
sg20
S'556.564075322'
p70
sg22
F0.0
sbasg26
I00
sg27
I00
sg28
I377069
sg20
S'556.738954253'
p71
sba(igraph
Edge
p72
(dp73
g7
I1
sg8
I00
sg9
I5
sg10
(lp74
g68
a(igraph
Vertex
p75
(dp76
g14
F0.66666666666666663
sg8
I00
sg15
g16
sg17
F-263.0
sg18
F-246.66666666666663
sg19
I377463
sg20
S'556.564205227'
p77
sg22
F0.0
sbasg26
I00
sg27
I00
sg28
I377070
sg20
S'556.739376653'
p78
sba(igraph
Edge
p79
(dp80
g7
I1
sg8
I00
sg9
I5
sg10
(lp81
g75
a(igraph
Vertex
p82
(dp83
g14
F0.75
sg8
I00
sg15
g16
sg17
F-263.0
sg18
F-295.75
sg19
I377464
sg20
S'556.564350497'
p84
sg22
F0.0
sbasg26
I00
sg27
I00
sg28
I377071
sg20
S'556.739847662'
p85
sba(igraph
Edge
p86
(dp87
g7
I1
sg8
I00
sg9
I5
sg10
(lp88
g82
a(igraph
Vertex
p89
(dp90
g14
F0.83333333333333337
sg8
I00
sg15
g16
sg17
F-263.0
sg18
F-344.83333333333337
sg19
I377465
sg20
S'556.564508059'
p91
sg22
F0.0
sbasg26
I00
sg27
I00
sg28
I377072
sg20
S'556.740367002'
p92
sba(igraph
Edge
p93
(dp94
g7
I1
sg8
I00
sg9
I5
sg10
(lp95
g89
a(igraph
Vertex
p96
(dp97
g14
F0.91666666666666663
sg8
I01
sg15
I0
sg17
F-263.0
sg18
F-393.91666666666663
sg19
I377467
sg20
S'556.56467903'
p98
sg22
F0.0
sbasg26
I00
sg27
I00
sg28
I377073
sg20
S'556.740935789'
p99
sba(igraph
Edge
p100
(dp101
g7
I1
sg8
I00
sg9
I5
sg10
(lp102
g96
a(igraph
Vertex
p103
(dp104
g14
F1.0
sg8
I00
sg15
g16
sg17
F-263.0
sg18
F-443.0
sg19
I377469
sg20
S'556.56486844'
p105
sg22
F0.0
sbasg26
I00
sg27
I00
sg28
I377074
sg20
S'556.741543129'
p106
sba(igraph
Edge
p107
(dp108
g7
I1
sg8
I00
sg9
I5
sg10
(lp109
g103
ag12
asg26
I00
sg27
I00
sg28
I377075
sg20
S'556.743211777'
p110
sba(igraph
Edge
p111
(dp112
g7
I1
sg8
I00
sg9
I5
sg10
(lp113
(igraph
Vertex
p114
(dp115
g14
F0.0
sg8
I00
sg15
g16
sg17
F-200.27678571428569
sg18
F146.0
sg19
I377470
sg20
S'556.565072656'
p116
sg22
F0.11160714285714288
sba(igraph
Vertex
p117
(dp118
g14
F0.083333333333333301
sg8
I00
sg15
g16
sg17
F-200.27678571428569
sg18
F96.916666666666686
sg19
I377471
sg20
S'556.565294472'
p119
sg22
F0.11160714285714288
sbasg26
I00
sg27
I00
sg28
I377076
sg20
S'556.744011041'
p120
sba(igraph
Edge
p121
(dp122
g7
I1
sg8
I00
sg9
I5
sg10
(lp123
g117
a(igraph
Vertex
p124
(dp125
g14
F0.1666666666666666
sg8
I00
sg15
g16
sg17
F-200.27678571428569
sg18
F47.833333333333371
sg19
I377472
sg20
S'556.565534726'
p126
sg22
F0.11160714285714288
sbasg26
I00
sg27
I00
sg28
I377077
sg20
S'556.744787117'
p127
sba(igraph
Edge
p128
(dp129
g7
I1
sg8
I00
sg9
I5
sg10
(lp130
g124
a(igraph
Vertex
p131
(dp132
g14
F0.25
sg8
I00
sg15
g16
sg17
F-200.27678571428569
sg18
F-1.25
sg19
I377473
sg20
S'556.565790065'
p133
sg22
F0.11160714285714288
sbasg26
I00
sg27
I00
sg28
I377078
sg20
S'556.745611244'
p134
sba(igraph
Edge
p135
(dp136
g7
I1
sg8
I00
sg9
I5
sg10
(lp137
g131
a(igraph
Vertex
p138
(dp139
g14
F0.33333333333333331
sg8
I00
sg15
g16
sg17
F-200.27678571428569
sg18
F-50.333333333333314
sg19
I377474
sg20
S'556.56606077'
p140
sg22
F0.11160714285714288
sbasg26
I00
sg27
I00
sg28
I377079
sg20
S'556.746482584'
p141
sba(igraph
Edge
p142
(dp143
g7
I1
sg8
I00
sg9
I5
sg10
(lp144
g138
a(igraph
Vertex
p145
(dp146
g14
F0.41666666666666663
sg8
I00
sg15
g16
sg17
F-200.27678571428569
sg18
F-99.416666666666657
sg19
I377475
sg20
S'556.566345164'
p147
sg22
F0.11160714285714288
sbasg26
I00
sg27
I00
sg28
I377080
sg20
S'556.747407282'
p148
sba(igraph
Edge
p149
(dp150
g7
I1
sg8
I00
sg9
I5
sg10
(lp151
g145
a(igraph
Vertex
p152
(dp153
g14
F0.5
sg8
I00
sg15
g16
sg17
F-200.27678571428569
sg18
F-148.5
sg19
I377476
sg20
S'556.566644923'
p154
sg22
F0.11160714285714288
sbasg26
I00
sg27
I00
sg28
I377081
sg20
S'556.748379752'
p155
sba(igraph
Edge
p156
(dp157
g7
I1
sg8
I00
sg9
I5
sg10
(lp158
g152
a(igraph
Vertex
p159
(dp160
g14
F0.58333333333333326
sg8
I00
sg15
g16
sg17
F-200.27678571428569
sg18
F-197.58333333333331
sg19
I377477
sg20
S'556.566962561'
p161
sg22
F0.11160714285714288
sbasg26
I00
sg27
I00
sg28
I377082
sg20
S'556.749454749'
p162
sba(igraph
Edge
p163
(dp164
g7
I1
sg8
I00
sg9
I5
sg10
(lp165
g159
a(igraph
Vertex
p166
(dp167
g14
F0.66666666666666663
sg8
I00
sg15
g16
sg17
F-200.27678571428569
sg18
F-246.66666666666663
sg19
I377478
sg20
S'556.567296123'
p168
sg22
F0.11160714285714288
sbasg26
I00
sg27
I00
sg28
I377083
sg20
S'556.750530584'
p169
sba(igraph
Edge
p170
(dp171
g7
I1
sg8
I00
sg9
I5
sg10
(lp172
g166
a(igraph
Vertex
p173
(dp174
g14
F0.75
sg8
I00
sg15
g16
sg17
F-200.27678571428569
sg18
F-295.75
sg19
I377479
sg20
S'556.567650917'
p175
sg22
F0.11160714285714288
sbasg26
I00
sg27
I00
sg28
I377084
sg20
S'556.751739676'
p176
sba(igraph
Edge
p177
(dp178
g7
I1
sg8
I00
sg9
I5
sg10
(lp179
g173
a(igraph
Vertex
p180
(dp181
g14
F0.83333333333333337
sg8
I00
sg15
g16
sg17
F-200.27678571428569
sg18
F-344.83333333333337
sg19
I377480
sg20
S'556.568019958'
p182
sg22
F0.11160714285714288
sbasg26
I00
sg27
I00
sg28
I377085
sg20
S'556.752922229'
p183
sba(igraph
Edge
p184
(dp185
g7
I1
sg8
I00
sg9
I5
sg10
(lp186
g180
a(igraph
Vertex
p187
(dp188
g14
F0.91666666666666663
sg8
I00
sg15
g16
sg17
F-200.27678571428569
sg18
F-393.91666666666663
sg19
I377481
sg20
S'556.568400174'
p189
sg22
F0.11160714285714288
sbasg26
I00
sg27
I00
sg28
I377086
sg20
S'556.754136629'
p190
sba(igraph
Edge
p191
(dp192
g7
I1
sg8
I00
sg9
I5
sg10
(lp193
g187
a(igraph
Vertex
p194
(dp195
g14
F1.0
sg8
I00
sg15
g16
sg17
F-200.27678571428569
sg18
F-443.0
sg19
I377482
sg20
S'556.568794079'
p196
sg22
F0.11160714285714288
sbasg26
I00
sg27
I00
sg28
I377087
sg20
S'556.756346966'
p197
sba(igraph
Edge
p198
(dp199
g7
I1
sg8
I00
sg9
I5
sg10
(lp200
g194
ag114
asg26
I00
sg27
I00
sg28
I377088
sg20
S'556.757775918'
p201
sba(igraph
Edge
p202
(dp203
g7
I1
sg8
I00
sg9
I5
sg10
(lp204
(igraph
Vertex
p205
(dp206
g14
F0.0
sg8
I00
sg15
g16
sg17
F-137.55357142857142
sg18
F146.0
sg19
I377483
sg20
S'556.569206142'
p207
sg22
F0.22321428571428573
sba(igraph
Vertex
p208
(dp209
g14
F0.083333333333333301
sg8
I00
sg15
g16
sg17
F-137.55357142857142
sg18
F96.916666666666686
sg19
I377484
sg20
S'556.569635526'
p210
sg22
F0.22321428571428573
sbasg26
I00
sg27
I00
sg28
I377089
sg20
S'556.759173023'
p211
sba(igraph
Edge
p212
(dp213
g7
I1
sg8
I00
sg9
I5
sg10
(lp214
g208
a(igraph
Vertex
p215
(dp216
g14
F0.1666666666666666
sg8
I00
sg15
g16
sg17
F-137.55357142857142
sg18
F47.833333333333371
sg19
I377485
sg20
S'556.57008698'
p217
sg22
F0.22321428571428573
sbasg26
I00
sg27
I00
sg28
I377090
sg20
S'556.76059583'
p218
sba(igraph
Edge
p219
(dp220
g7
I1
sg8
I00
sg9
I5
sg10
(lp221
g215
a(igraph
Vertex
p222
(dp223
g14
F0.25
sg8
I00
sg15
g16
sg17
F-137.55357142857142
sg18
F-1.25
sg19
I377486
sg20
S'556.570548771'
p224
sg22
F0.22321428571428573
sbasg26
I00
sg27
I00
sg28
I377091
sg20
S'556.762075348'
p225
sba(igraph
Edge
p226
(dp227
g7
I1
sg8
I00
sg9
I5
sg10
(lp228
g222
a(igraph
Vertex
p229
(dp230
g14
F0.33333333333333331
sg8
I01
sg15
I0
sg17
F-137.55357142857142
sg18
F-50.333333333333314
sg19
I377488
sg20
S'556.571025926'
p231
sg22
F0.22321428571428573
sbasg26
I00
sg27
I00
sg28
I377092
sg20
S'556.763968605'
p232
sba(igraph
Edge
p233
(dp234
g7
I1
sg8
I00
sg9
I5
sg10
(lp235
g229
a(igraph
Vertex
p236
(dp237
g14
F0.41666666666666663
sg8
I00
sg15
g16
sg17
F-137.55357142857142
sg18
F-99.416666666666657
sg19
I377490
sg20
S'556.571520123'
p238
sg22
F0.22321428571428573
sbasg26
I00
sg27
I00
sg28
I377093
sg20
S'556.765912986'
p239
sba(igraph
Edge
p240
(dp241
g7
I1
sg8
I00
sg9
I5
sg10
(lp242
g236
a(igraph
Vertex
p243
(dp244
g14
F0.5
sg8
I00
sg15
g16
sg17
F-137.55357142857142
sg18
F-148.5
sg19
I377491
sg20
S'556.572030244'
p245
sg22
F0.22321428571428573
sbasg26
I00
sg27
I00
sg28
I377094
sg20
S'556.767877761'
p246
sba(igraph
Edge
p247
(dp248
g7
I1
sg8
I00
sg9
I5
sg10
(lp249
g243
a(igraph
Vertex
p250
(dp251
g14
F0.58333333333333326
sg8
I00
sg15
g16
sg17
F-137.55357142857142
sg18
F-197.58333333333331
sg19
I377492
sg20
S'556.572560479'
p252
sg22
F0.22321428571428573
sbasg26
I00
sg27
I00
sg28
I377095
sg20
S'556.769570714'
p253
sba(igraph
Edge
p254
(dp255
g7
I1
sg8
I00
sg9
I5
sg10
(lp256
g250
a(igraph
Vertex
p257
(dp258
g14
F0.66666666666666663
sg8
I00
sg15
g16
sg17
F-137.55357142857142
sg18
F-246.66666666666663
sg19
I377493
sg20
S'556.573107197'
p259
sg22
F0.22321428571428573
sbasg26
I00
sg27
I00
sg28
I377096
sg20
S'556.7713282'
p260
sba(igraph
Edge
p261
(dp262
g7
I1
sg8
I00
sg9
I5
sg10
(lp263
g257
a(igraph
Vertex
p264
(dp265
g14
F0.75
sg8
I00
sg15
g16
sg17
F-137.55357142857142
sg18
F-295.75
sg19
I377494
sg20
S'556.574030498'
p266
sg22
F0.22321428571428573
sbasg26
I00
sg27
I00
sg28
I377097
sg20
S'556.773127032'
p267
sba(igraph
Edge
p268
(dp269
g7
I1
sg8
I00
sg9
I5
sg10
(lp270
g264
a(igraph
Vertex
p271
(dp272
g14
F0.83333333333333337
sg8
I00
sg15
g16
sg17
F-137.55357142857142
sg18
F-344.83333333333337
sg19
I377495
sg20
S'556.57465879'
p273
sg22
F0.22321428571428573
sbasg26
I00
sg27
I00
sg28
I377098
sg20
S'556.77553013'
p274
sba(igraph
Edge
p275
(dp276
g7
I1
sg8
I00
sg9
I5
sg10
(lp277
g271
a(igraph
Vertex
p278
(dp279
g14
F0.91666666666666663
sg8
I00
sg15
g16
sg17
F-137.55357142857142
sg18
F-393.91666666666663
sg19
I377496
sg20
S'556.575269203'
p280
sg22
F0.22321428571428573
sbasg26
I00
sg27
I00
sg28
I377099
sg20
S'556.777833775'
p281
sba(igraph
Edge
p282
(dp283
g7
I1
sg8
I00
sg9
I5
sg10
(lp284
g278
a(igraph
Vertex
p285
(dp286
g14
F1.0
sg8
I00
sg15
g16
sg17
F-137.55357142857142
sg18
F-443.0
sg19
I377497
sg20
S'556.575887438'
p287
sg22
F0.22321428571428573
sbasg26
I00
sg27
I00
sg28
I377100
sg20
S'556.779847159'
p288
sba(igraph
Edge
p289
(dp290
g7
I1
sg8
I00
sg9
I5
sg10
(lp291
g285
ag205
asg26
I00
sg27
I00
sg28
I377101
sg20
S'556.782014474'
p292
sba(igraph
Edge
p293
(dp294
g7
I1
sg8
I00
sg9
I5
sg10
(lp295
(igraph
Vertex
p296
(dp297
g14
F0.0
sg8
I00
sg15
g16
sg17
F-74.830357142857167
sg18
F146.0
sg19
I377498
sg20
S'556.576523832'
p298
sg22
F0.33482142857142855
sba(igraph
Vertex
p299
(dp300
g14
F0.083333333333333301
sg8
I00
sg15
g16
sg17
F-74.830357142857167
sg18
F96.916666666666686
sg19
I377499
sg20
S'556.57716274'
p301
sg22
F0.33482142857142855
sbasg26
I00
sg27
I00
sg28
I377102
sg20
S'556.784025065'
p302
sba(igraph
Edge
p303
(dp304
g7
I1
sg8
I00
sg9
I5
sg10
(lp305
g299
a(igraph
Vertex
p306
(dp307
g14
F0.1666666666666666
sg8
I00
sg15
g16
sg17
F-74.830357142857167
sg18
F47.833333333333371
sg19
I377500
sg20
S'556.577874283'
p308
sg22
F0.33482142857142855
sbasg26
I00
sg27
I00
sg28
I377103
sg20
S'556.786078119'
p309
sba(igraph
Edge
p310
(dp311
g7
I1
sg8
I00
sg9
I5
sg10
(lp312
g306
a(igraph
Vertex
p313
(dp314
g14
F0.25
sg8
I00
sg15
g16
sg17
F-74.830357142857167
sg18
F-1.25
sg19
I377501
sg20
S'556.578601191'
p315
sg22
F0.33482142857142855
sbasg26
I00
sg27
I00
sg28
I377104
sg20
S'556.789000278'
p316
sba(igraph
Edge
p317
(dp318
g7
I1
sg8
I00
sg9
I5
sg10
(lp319
g313
a(igraph
Vertex
p320
(dp321
g14
F0.33333333333333331
sg8
I00
sg15
g16
sg17
F-74.830357142857167
sg18
F-50.333333333333314
sg19
I377502
sg20
S'556.579297369'
p322
sg22
F0.33482142857142855
sbasg26
I00
sg27
I00
sg28
I377105
sg20
S'556.791218716'
p323
sba(igraph
Edge
p324
(dp325
g7
I1
sg8
I00
sg9
I5
sg10
(lp326
g320
a(igraph
Vertex
p327
(dp328
g14
F0.41666666666666663
sg8
I00
sg15
g16
sg17
F-74.830357142857167
sg18
F-99.416666666666657
sg19
I377503
sg20
S'556.580011705'
p329
sg22
F0.33482142857142855
sbasg26
I00
sg27
I00
sg28
I377106
sg20
S'556.794012367'
p330
sba(igraph
Edge
p331
(dp332
g7
I1
sg8
I00
sg9
I5
sg10
(lp333
g327
a(igraph
Vertex
p334
(dp335
g14
F0.5
sg8
I01
sg15
I0
sg17
F-74.830357142857167
sg18
F-148.5
sg19
I377505
sg20
S'556.580740569'
p336
sg22
F0.33482142857142855
sbasg26
I00
sg27
I00
sg28
I377107
sg20
S'556.797309993'
p337
sba(igraph
Edge
p338
(dp339
g7
I1
sg8
I00
sg9
I5
sg10
(lp340
g334
a(igraph
Vertex
p341
(dp342
g14
F0.58333333333333326
sg8
I00
sg15
g16
sg17
F-74.830357142857167
sg18
F-197.58333333333331
sg19
I377507
sg20
S'556.581548214'
p343
sg22
F0.33482142857142855
sbasg26
I00
sg27
I00
sg28
I377108
sg20
S'556.800010057'
p344
sba(igraph
Edge
p345
(dp346
g7
I1
sg8
I00
sg9
I5
sg10
(lp347
g341
a(igraph
Vertex
p348
(dp349
g14
F0.66666666666666663
sg8
I00
sg15
g16
sg17
F-74.830357142857167
sg18
F-246.66666666666663
sg19
I377508
sg20
S'556.582307249'
p350
sg22
F0.33482142857142855
sbasg26
I00
sg27
I00
sg28
I377109
sg20
S'556.802247492'
p351
sba(igraph
Edge
p352
(dp353
g7
I1
sg8
I00
sg9
I5
sg10
(lp354
g348
a(igraph
Vertex
p355
(dp356
g14
F0.75
sg8
I00
sg15
g16
sg17
F-74.830357142857167
sg18
F-295.75
sg19
I377509
sg20
S'556.583082207'
p357
sg22
F0.33482142857142855
sbasg26
I00
sg27
I00
sg28
I377110
sg20
S'556.803526146'
p358
sba(igraph
Edge
p359
(dp360
g7
I1
sg8
I00
sg9
I5
sg10
(lp361
g355
a(igraph
Vertex
p362
(dp363
g14
F0.83333333333333337
sg8
I00
sg15
g16
sg17
F-74.830357142857167
sg18
F-344.83333333333337
sg19
I377510
sg20
S'556.583878398'
p364
sg22
F0.33482142857142855
sbasg26
I00
sg27
I00
sg28
I377111
sg20
S'556.80497661'
p365
sba(igraph
Edge
p366
(dp367
g7
I1
sg8
I00
sg9
I5
sg10
(lp368
g362
a(igraph
Vertex
p369
(dp370
g14
F0.91666666666666663
sg8
I00
sg15
g16
sg17
F-74.830357142857167
sg18
F-393.91666666666663
sg19
I377511
sg20
S'556.584684925'
p371
sg22
F0.33482142857142855
sbasg26
I00
sg27
I00
sg28
I377112
sg20
S'556.806276496'
p372
sba(igraph
Edge
p373
(dp374
g7
I1
sg8
I00
sg9
I5
sg10
(lp375
g369
a(igraph
Vertex
p376
(dp377
g14
F1.0
sg8
I00
sg15
g16
sg17
F-74.830357142857167
sg18
F-443.0
sg19
I377512
sg20
S'556.586413916'
p378
sg22
F0.33482142857142855
sbasg26
I00
sg27
I00
sg28
I377113
sg20
S'556.807686731'
p379
sba(igraph
Edge
p380
(dp381
g7
I1
sg8
I00
sg9
I5
sg10
(lp382
g376
ag296
asg26
I00
sg27
I00
sg28
I377114
sg20
S'556.809132166'
p383
sba(igraph
Edge
p384
(dp385
g7
I1
sg8
I00
sg9
I5
sg10
(lp386
(igraph
Vertex
p387
(dp388
g14
F0.0
sg8
I00
sg15
g16
sg17
F-12.107142857142833
sg18
F146.0
sg19
I377513
sg20
S'556.587443656'
p389
sg22
F0.44642857142857145
sba(igraph
Vertex
p390
(dp391
g14
F0.083333333333333301
sg8
I00
sg15
g16
sg17
F-12.107142857142833
sg18
F96.916666666666686
sg19
I377514
sg20
S'556.588425903'
p392
sg22
F0.44642857142857145
sbasg26
I00
sg27
I00
sg28
I377115
sg20
S'556.810509995'
p393
sba(igraph
Edge
p394
(dp395
g7
I1
sg8
I00
sg9
I5
sg10
(lp396
g390
a(igraph
Vertex
p397
(dp398
g14
F0.1666666666666666
sg8
I00
sg15
g16
sg17
F-12.107142857142833
sg18
F47.833333333333371
sg19
I377515
sg20
S'556.589417929'
p399
sg22
F0.44642857142857145
sbasg26
I00
sg27
I00
sg28
I377116
sg20
S'556.811865754'
p400
sba(igraph
Edge
p401
(dp402
g7
I1
sg8
I00
sg9
I5
sg10
(lp403
g397
a(igraph
Vertex
p404
(dp405
g14
F0.25
sg8
I00
sg15
g16
sg17
F-12.107142857142833
sg18
F-1.25
sg19
I377516
sg20
S'556.590351846'
p406
sg22
F0.44642857142857145
sbasg26
I00
sg27
I00
sg28
I377117
sg20
S'556.813295824'
p407
sba(igraph
Edge
p408
(dp409
g7
I1
sg8
I00
sg9
I5
sg10
(lp410
g404
a(igraph
Vertex
p411
(dp412
g14
F0.33333333333333331
sg8
I00
sg15
g16
sg17
F-12.107142857142833
sg18
F-50.333333333333314
sg19
I377517
sg20
S'556.59135784'
p413
sg22
F0.44642857142857145
sbasg26
I00
sg27
I00
sg28
I377118
sg20
S'556.814825348'
p414
sba(igraph
Edge
p415
(dp416
g7
I1
sg8
I00
sg9
I5
sg10
(lp417
g411
a(igraph
Vertex
p418
(dp419
g14
F0.41666666666666663
sg8
I00
sg15
g16
sg17
F-12.107142857142833
sg18
F-99.416666666666657
sg19
I377518
sg20
S'556.592337853'
p420
sg22
F0.44642857142857145
sbasg26
I00
sg27
I00
sg28
I377119
sg20
S'556.816797386'
p421
sba(igraph
Edge
p422
(dp423
g7
I1
sg8
I00
sg9
I5
sg10
(lp424
g418
a(igraph
Vertex
p425
(dp426
g14
F0.5
sg8
I00
sg15
g16
sg17
F-12.107142857142833
sg18
F-148.5
sg19
I377519
sg20
S'556.59407299'
p427
sg22
F0.44642857142857145
sbasg26
I00
sg27
I00
sg28
I377120
sg20
S'556.818422453'
p428
sba(igraph
Edge
p429
(dp430
g7
I1
sg8
I00
sg9
I5
sg10
(lp431
g425
a(igraph
Vertex
p432
(dp433
g14
F0.58333333333333326
sg8
I00
sg15
g16
sg17
F-12.107142857142833
sg18
F-197.58333333333331
sg19
I377520
sg20
S'556.595161676'
p434
sg22
F0.44642857142857145
sbasg26
I00
sg27
I00
sg28
I377121
sg20
S'556.819993603'
p435
sba(igraph
Edge
p436
(dp437
g7
I1
sg8
I00
sg9
I5
sg10
(lp438
g432
a(igraph
Vertex
p439
(dp440
g14
F0.66666666666666663
sg8
I00
sg15
g16
sg17
F-12.107142857142833
sg18
F-246.66666666666663
sg19
I377521
sg20
S'556.596243377'
p441
sg22
F0.44642857142857145
sbasg26
I00
sg27
I00
sg28
I377122
sg20
S'556.821523685'
p442
sba(igraph
Edge
p443
(dp444
g7
I1
sg8
I00
sg9
I5
sg10
(lp445
g439
a(igraph
Vertex
p446
(dp447
g14
F0.75
sg8
I00
sg15
g16
sg17
F-12.107142857142833
sg18
F-295.75
sg19
I377522
sg20
S'556.59849087'
p448
sg22
F0.44642857142857145
sbasg26
I00
sg27
I00
sg28
I377123
sg20
S'556.823161603'
p449
sba(igraph
Edge
p450
(dp451
g7
I1
sg8
I00
sg9
I5
sg10
(lp452
g446
a(igraph
Vertex
p453
(dp454
g14
F0.83333333333333337
sg8
I00
sg15
g16
sg17
F-12.107142857142833
sg18
F-344.83333333333337
sg19
I377523
sg20
S'556.599587098'
p455
sg22
F0.44642857142857145
sbasg26
I00
sg27
I00
sg28
I377124
sg20
S'556.825739305'
p456
sba(igraph
Edge
p457
(dp458
g7
I1
sg8
I00
sg9
I5
sg10
(lp459
g453
a(igraph
Vertex
p460
(dp461
g14
F0.91666666666666663
sg8
I00
sg15
g16
sg17
F-12.107142857142833
sg18
F-393.91666666666663
sg19
I377524
sg20
S'556.600678019'
p462
sg22
F0.44642857142857145
sbasg26
I00
sg27
I00
sg28
I377125
sg20
S'556.827408232'
p463
sba(igraph
Edge
p464
(dp465
g7
I1
sg8
I00
sg9
I5
sg10
(lp466
g460
a(igraph
Vertex
p467
(dp468
g14
F1.0
sg8
I00
sg15
g16
sg17
F-12.107142857142833
sg18
F-443.0
sg19
I377525
sg20
S'556.601737651'
p469
sg22
F0.44642857142857145
sbasg26
I00
sg27
I00
sg28
I377126
sg20
S'556.829055927'
p470
sba(igraph
Edge
p471
(dp472
g7
I1
sg8
I00
sg9
I5
sg10
(lp473
g467
ag387
asg26
I00
sg27
I00
sg28
I377127
sg20
S'556.830743852'
p474
sba(igraph
Edge
p475
(dp476
g7
I1
sg8
I00
sg9
I5
sg10
(lp477
(igraph
Vertex
p478
(dp479
g14
F0.0
sg8
I00
sg15
g16
sg17
F50.616071428571445
sg18
F146.0
sg19
I377526
sg20
S'556.604504762'
p480
sg22
F0.5580357142857143
sba(igraph
Vertex
p481
(dp482
g14
F0.083333333333333301
sg8
I00
sg15
g16
sg17
F50.616071428571445
sg18
F96.916666666666686
sg19
I377527
sg20
S'556.605672509'
p483
sg22
F0.5580357142857143
sbasg26
I00
sg27
I00
sg28
I377128
sg20
S'556.832481782'
p484
sba(igraph
Edge
p485
(dp486
g7
I1
sg8
I00
sg9
I5
sg10
(lp487
g481
a(igraph
Vertex
p488
(dp489
g14
F0.1666666666666666
sg8
I00
sg15
g16
sg17
F50.616071428571445
sg18
F47.833333333333371
sg19
I377528
sg20
S'556.606947252'
p490
sg22
F0.5580357142857143
sbasg26
I00
sg27
I00
sg28
I377129
sg20
S'556.834414709'
p491
sba(igraph
Edge
p492
(dp493
g7
I1
sg8
I00
sg9
I5
sg10
(lp494
g488
a(igraph
Vertex
p495
(dp496
g14
F0.25
sg8
I00
sg15
g16
sg17
F50.616071428571445
sg18
F-1.25
sg19
I377529
sg20
S'556.608162211'
p497
sg22
F0.5580357142857143
sbasg26
I00
sg27
I00
sg28
I377130
sg20
S'556.836445414'
p498
sba(igraph
Edge
p499
(dp500
g7
I1
sg8
I00
sg9
I5
sg10
(lp501
g495
a(igraph
Vertex
p502
(dp503
g14
F0.33333333333333331
sg8
I00
sg15
g16
sg17
F50.616071428571445
sg18
F-50.333333333333314
sg19
I377530
sg20
S'556.609324369'
p504
sg22
F0.5580357142857143
sbasg26
I00
sg27
I00
sg28
I377131
sg20
S'556.838295649'
p505
sba(igraph
Edge
p506
(dp507
g7
I1
sg8
I00
sg9
I5
sg10
(lp508
g502
a(igraph
Vertex
p509
(dp510
g14
F0.41666666666666663
sg8
I00
sg15
g16
sg17
F50.616071428571445
sg18
F-99.416666666666657
sg19
I377531
sg20
S'556.610611125'
p511
sg22
F0.5580357142857143
sbasg26
I00
sg27
I00
sg28
I377132
sg20
S'556.84016963'
p512
sba(igraph
Edge
p513
(dp514
g7
I1
sg8
I00
sg9
I5
sg10
(lp515
g509
a(igraph
Vertex
p516
(dp517
g14
F0.5
sg8
I00
sg15
g16
sg17
F50.616071428571445
sg18
F-148.5
sg19
I377532
sg20
S'556.611905144'
p518
sg22
F0.5580357142857143
sbasg26
I00
sg27
I00
sg28
I377133
sg20
S'556.842041377'
p519
sba(igraph
Edge
p520
(dp521
g7
I1
sg8
I00
sg9
I5
sg10
(lp522
g516
a(igraph
Vertex
p523
(dp524
g14
F0.58333333333333326
sg8
I01
sg15
I0
sg17
F50.616071428571445
sg18
F-197.58333333333331
sg19
I377534
sg20
S'556.613275151'
p525
sg22
F0.5580357142857143
sbasg26
I00
sg27
I00
sg28
I377134
sg20
S'556.84381786'
p526
sba(igraph
Edge
p527
(dp528
g7
I1
sg8
I00
sg9
I5
sg10
(lp529
g523
a(igraph
Vertex
p530
(dp531
g14
F0.66666666666666663
sg8
I00
sg15
g16
sg17
F50.616071428571445
sg18
F-246.66666666666663
sg19
I377536
sg20
S'556.614667507'
p532
sg22
F0.5580357142857143
sbasg26
I00
sg27
I00
sg28
I377135
sg20
S'556.845584565'
p533
sba(igraph
Edge
p534
(dp535
g7
I1
sg8
I00
sg9
I5
sg10
(lp536
g530
a(igraph
Vertex
p537
(dp538
g14
F0.75
sg8
I00
sg15
g16
sg17
F50.616071428571445
sg18
F-295.75
sg19
I377537
sg20
S'556.615990859'
p539
sg22
F0.5580357142857143
sbasg26
I00
sg27
I00
sg28
I377136
sg20
S'556.847673098'
p540
sba(igraph
Edge
p541
(dp542
g7
I1
sg8
I00
sg9
I5
sg10
(lp543
g537
a(igraph
Vertex
p544
(dp545
g14
F0.83333333333333337
sg8
I00
sg15
g16
sg17
F50.616071428571445
sg18
F-344.83333333333337
sg19
I377538
sg20
S'556.617529882'
p546
sg22
F0.5580357142857143
sbasg26
I00
sg27
I00
sg28
I377137
sg20
S'556.849399295'
p547
sba(igraph
Edge
p548
(dp549
g7
I1
sg8
I00
sg9
I5
sg10
(lp550
g544
a(igraph
Vertex
p551
(dp552
g14
F0.91666666666666663
sg8
I00
sg15
g16
sg17
F50.616071428571445
sg18
F-393.91666666666663
sg19
I377539
sg20
S'556.618909945'
p553
sg22
F0.5580357142857143
sbasg26
I00
sg27
I00
sg28
I377138
sg20
S'556.851163765'
p554
sba(igraph
Edge
p555
(dp556
g7
I1
sg8
I00
sg9
I5
sg10
(lp557
g551
a(igraph
Vertex
p558
(dp559
g14
F1.0
sg8
I00
sg15
g16
sg17
F50.616071428571445
sg18
F-443.0
sg19
I377540
sg20
S'556.620188041'
p560
sg22
F0.5580357142857143
sbasg26
I00
sg27
I00
sg28
I377139
sg20
S'556.853051156'
p561
sba(igraph
Edge
p562
(dp563
g7
I1
sg8
I00
sg9
I5
sg10
(lp564
g558
ag478
asg26
I00
sg27
I00
sg28
I377140
sg20
S'556.854904185'
p565
sba(igraph
Edge
p566
(dp567
g7
I1
sg8
I00
sg9
I5
sg10
(lp568
(igraph
Vertex
p569
(dp570
g14
F0.0
sg8
I00
sg15
g16
sg17
F113.33928571428567
sg18
F146.0
sg19
I377541
sg20
S'556.621535977'
p571
sg22
F0.6696428571428571
sba(igraph
Vertex
p572
(dp573
g14
F0.083333333333333301
sg8
I00
sg15
g16
sg17
F113.33928571428567
sg18
F96.916666666666686
sg19
I377542
sg20
S'556.622924701'
p574
sg22
F0.6696428571428571
sbasg26
I00
sg27
I00
sg28
I377141
sg20
S'556.856802471'
p575
sba(igraph
Edge
p576
(dp577
g7
I1
sg8
I00
sg9
I5
sg10
(lp578
g572
a(igraph
Vertex
p579
(dp580
g14
F0.1666666666666666
sg8
I00
sg15
g16
sg17
F113.33928571428567
sg18
F47.833333333333371
sg19
I377543
sg20
S'556.624376282'
p581
sg22
F0.6696428571428571
sbasg26
I00
sg27
I00
sg28
I377142
sg20
S'556.858918103'
p582
sba(igraph
Edge
p583
(dp584
g7
I1
sg8
I00
sg9
I5
sg10
(lp585
g579
a(igraph
Vertex
p586
(dp587
g14
F0.25
sg8
I00
sg15
g16
sg17
F113.33928571428567
sg18
F-1.25
sg19
I377544
sg20
S'556.626006937'
p588
sg22
F0.6696428571428571
sbasg26
I00
sg27
I00
sg28
I377143
sg20
S'556.860769176'
p589
sba(igraph
Edge
p590
(dp591
g7
I1
sg8
I00
sg9
I5
sg10
(lp592
g586
a(igraph
Vertex
p593
(dp594
g14
F0.33333333333333331
sg8
I00
sg15
g16
sg17
F113.33928571428567
sg18
F-50.333333333333314
sg19
I377545
sg20
S'556.627635356'
p595
sg22
F0.6696428571428571
sbasg26
I00
sg27
I00
sg28
I377144
sg20
S'556.862688973'
p596
sba(igraph
Edge
p597
(dp598
g7
I1
sg8
I00
sg9
I5
sg10
(lp599
g593
a(igraph
Vertex
p600
(dp601
g14
F0.41666666666666663
sg8
I00
sg15
g16
sg17
F113.33928571428567
sg18
F-99.416666666666657
sg19
I377546
sg20
S'556.629092804'
p602
sg22
F0.6696428571428571
sbasg26
I00
sg27
I00
sg28
I377145
sg20
S'556.864707945'
p603
sba(igraph
Edge
p604
(dp605
g7
I1
sg8
I00
sg9
I5
sg10
(lp606
g600
a(igraph
Vertex
p607
(dp608
g14
F0.5
sg8
I00
sg15
g16
sg17
F113.33928571428567
sg18
F-148.5
sg19
I377547
sg20
S'556.63065194'
p609
sg22
F0.6696428571428571
sbasg26
I00
sg27
I00
sg28
I377146
sg20
S'556.866602599'
p610
sba(igraph
Edge
p611
(dp612
g7
I1
sg8
I00
sg9
I5
sg10
(lp613
g607
a(igraph
Vertex
p614
(dp615
g14
F0.58333333333333326
sg8
I00
sg15
g16
sg17
F113.33928571428567
sg18
F-197.58333333333331
sg19
I377548
sg20
S'556.632221972'
p616
sg22
F0.6696428571428571
sbasg26
I00
sg27
I00
sg28
I377147
sg20
S'556.868610396'
p617
sba(igraph
Edge
p618
(dp619
g7
I1
sg8
I00
sg9
I5
sg10
(lp620
g614
a(igraph
Vertex
p621
(dp622
g14
F0.66666666666666663
sg8
I00
sg15
g16
sg17
F113.33928571428567
sg18
F-246.66666666666663
sg19
I377549
sg20
S'556.633784741'
p623
sg22
F0.6696428571428571
sbasg26
I00
sg27
I00
sg28
I377148
sg20
S'556.870946168'
p624
sba(igraph
Edge
p625
(dp626
g7
I1
sg8
I00
sg9
I5
sg10
(lp627
g621
a(igraph
Vertex
p628
(dp629
g14
F0.75
sg8
I01
sg15
I0
sg17
F113.33928571428567
sg18
F-295.75
sg19
I377551
sg20
S'556.635433833'
p630
sg22
F0.6696428571428571
sbasg26
I00
sg27
I00
sg28
I377149
sg20
S'556.873267692'
p631
sba(igraph
Edge
p632
(dp633
g7
I1
sg8
I00
sg9
I5
sg10
(lp634
g628
a(igraph
Vertex
p635
(dp636
g14
F0.83333333333333337
sg8
I00
sg15
g16
sg17
F113.33928571428567
sg18
F-344.83333333333337
sg19
I377553
sg20
S'556.637034316'
p637
sg22
F0.6696428571428571
sbasg26
I00
sg27
I00
sg28
I377150
sg20
S'556.875315159'
p638
sba(igraph
Edge
p639
(dp640
g7
I1
sg8
I00
sg9
I5
sg10
(lp641
g635
a(igraph
Vertex
p642
(dp643
g14
F0.91666666666666663
sg8
I00
sg15
g16
sg17
F113.33928571428567
sg18
F-393.91666666666663
sg19
I377554
sg20
S'556.638824487'
p644
sg22
F0.6696428571428571
sbasg26
I00
sg27
I00
sg28
I377151
sg20
S'556.877427718'
p645
sba(igraph
Edge
p646
(dp647
g7
I1
sg8
I00
sg9
I5
sg10
(lp648
g642
a(igraph
Vertex
p649
(dp650
g14
F1.0
sg8
I00
sg15
g16
sg17
F113.33928571428567
sg18
F-443.0
sg19
I377555
sg20
S'556.640557389'
p651
sg22
F0.6696428571428571
sbasg26
I00
sg27
I00
sg28
I377152
sg20
S'556.879522956'
p652
sba(igraph
Edge
p653
(dp654
g7
I1
sg8
I00
sg9
I5
sg10
(lp655
g649
ag569
asg26
I00
sg27
I00
sg28
I377153
sg20
S'556.881605344'
p656
sba(igraph
Edge
p657
(dp658
g7
I1
sg8
I00
sg9
I5
sg10
(lp659
(igraph
Vertex
p660
(dp661
g14
F0.0
sg8
I00
sg15
g16
sg17
F176.0625
sg18
F146.0
sg19
I377556
sg20
S'556.642218215'
p662
sg22
F0.78125
sba(igraph
Vertex
p663
(dp664
g14
F0.083333333333333301
sg8
I00
sg15
g16
sg17
F176.0625
sg18
F96.916666666666686
sg19
I377557
sg20
S'556.644128234'
p665
sg22
F0.78125
sbasg26
I00
sg27
I00
sg28
I377154
sg20
S'556.889157141'
p666
sba(igraph
Edge
p667
(dp668
g7
I1
sg8
I00
sg9
I5
sg10
(lp669
g663
a(igraph
Vertex
p670
(dp671
g14
F0.1666666666666666
sg8
I00
sg15
g16
sg17
F176.0625
sg18
F47.833333333333371
sg19
I377558
sg20
S'556.645790736'
p672
sg22
F0.78125
sbasg26
I00
sg27
I00
sg28
I377155
sg20
S'556.891346247'
p673
sba(igraph
Edge
p674
(dp675
g7
I1
sg8
I00
sg9
I5
sg10
(lp676
g670
a(igraph
Vertex
p677
(dp678
g14
F0.25
sg8
I00
sg15
g16
sg17
F176.0625
sg18
F-1.25
sg19
I377559
sg20
S'556.64749207'
p679
sg22
F0.78125
sbasg26
I00
sg27
I00
sg28
I377156
sg20
S'556.893523059'
p680
sba(igraph
Edge
p681
(dp682
g7
I1
sg8
I00
sg9
I5
sg10
(lp683
g677
a(igraph
Vertex
p684
(dp685
g14
F0.33333333333333331
sg8
I00
sg15
g16
sg17
F176.0625
sg18
F-50.333333333333314
sg19
I377560
sg20
S'556.649434495'
p686
sg22
F0.78125
sbasg26
I00
sg27
I00
sg28
I377157
sg20
S'556.895926717'
p687
sba(igraph
Edge
p688
(dp689
g7
I1
sg8
I00
sg9
I5
sg10
(lp690
g684
a(igraph
Vertex
p691
(dp692
g14
F0.41666666666666663
sg8
I00
sg15
g16
sg17
F176.0625
sg18
F-99.416666666666657
sg19
I377561
sg20
S'556.651292832'
p693
sg22
F0.78125
sbasg26
I00
sg27
I00
sg28
I377158
sg20
S'556.898202984'
p694
sba(igraph
Edge
p695
(dp696
g7
I1
sg8
I00
sg9
I5
sg10
(lp697
g691
a(igraph
Vertex
p698
(dp699
g14
F0.5
sg8
I00
sg15
g16
sg17
F176.0625
sg18
F-148.5
sg19
I377562
sg20
S'556.653191956'
p700
sg22
F0.78125
sbasg26
I00
sg27
I00
sg28
I377159
sg20
S'556.900456902'
p701
sba(igraph
Edge
p702
(dp703
g7
I1
sg8
I00
sg9
I5
sg10
(lp704
g698
a(igraph
Vertex
p705
(dp706
g14
F0.58333333333333326
sg8
I00
sg15
g16
sg17
F176.0625
sg18
F-197.58333333333331
sg19
I377563
sg20
S'556.655036324'
p707
sg22
F0.78125
sbasg26
I00
sg27
I00
sg28
I377160
sg20
S'556.902694337'
p708
sba(igraph
Edge
p709
(dp710
g7
I1
sg8
I00
sg9
I5
sg10
(lp711
g705
a(igraph
Vertex
p712
(dp713
g14
F0.66666666666666663
sg8
I00
sg15
g16
sg17
F176.0625
sg18
F-246.66666666666663
sg19
I377564
sg20
S'556.65688181'
p714
sg22
F0.78125
sbasg26
I00
sg27
I00
sg28
I377161
sg20
S'556.906173829'
p715
sba(igraph
Edge
p716
(dp717
g7
I1
sg8
I00
sg9
I5
sg10
(lp718
g712
a(igraph
Vertex
p719
(dp720
g14
F0.75
sg8
I00
sg15
g16
sg17
F176.0625
sg18
F-295.75
sg19
I377565
sg20
S'556.658939893'
p721
sg22
F0.78125
sbasg26
I00
sg27
I00
sg28
I377162
sg20
S'556.908497309'
p722
sba(igraph
Edge
p723
(dp724
g7
I1
sg8
I00
sg9
I5
sg10
(lp725
g719
a(igraph
Vertex
p726
(dp727
g14
F0.83333333333333337
sg8
I00
sg15
g16
sg17
F176.0625
sg18
F-344.83333333333337
sg19
I377566
sg20
S'556.660812478'
p728
sg22
F0.78125
sbasg26
I00
sg27
I00
sg28
I377163
sg20
S'556.911191506'
p729
sba(igraph
Edge
p730
(dp731
g7
I1
sg8
I00
sg9
I5
sg10
(lp732
g726
a(igraph
Vertex
p733
(dp734
g14
F0.91666666666666663
sg8
I00
sg15
g16
sg17
F176.0625
sg18
F-393.91666666666663
sg19
I377567
sg20
S'556.662814129'
p735
sg22
F0.78125
sbasg26
I00
sg27
I00
sg28
I377164
sg20
S'556.915955799'
p736
sba(igraph
Edge
p737
(dp738
g7
I1
sg8
I00
sg9
I5
sg10
(lp739
g733
a(igraph
Vertex
p740
(dp741
g14
F1.0
sg8
I00
sg15
g16
sg17
F176.0625
sg18
F-443.0
sg19
I377568
sg20
S'556.664716326'
p742
sg22
F0.78125
sbasg26
I00
sg27
I00
sg28
I377165
sg20
S'556.91888131'
p743
sba(igraph
Edge
p744
(dp745
g7
I1
sg8
I00
sg9
I5
sg10
(lp746
g740
ag660
asg26
I00
sg27
I00
sg28
I377166
sg20
S'556.921448676'
p747
sba(igraph
Edge
p748
(dp749
g7
I1
sg8
I00
sg9
I5
sg10
(lp750
(igraph
Vertex
p751
(dp752
g14
F0.0
sg8
I00
sg15
g16
sg17
F238.78571428571433
sg18
F146.0
sg19
I377569
sg20
S'556.666654561'
p753
sg22
F0.8928571428571429
sba(igraph
Vertex
p754
(dp755
g14
F0.083333333333333301
sg8
I00
sg15
g16
sg17
F238.78571428571433
sg18
F96.916666666666686
sg19
I377570
sg20
S'556.669107945'
p756
sg22
F0.8928571428571429
sbasg26
I00
sg27
I00
sg28
I377167
sg20
S'556.925282403'
p757
sba(igraph
Edge
p758
(dp759
g7
I1
sg8
I00
sg9
I5
sg10
(lp760
g754
a(igraph
Vertex
p761
(dp762
g14
F0.1666666666666666
sg8
I00
sg15
g16
sg17
F238.78571428571433
sg18
F47.833333333333371
sg19
I377571
sg20
S'556.670955107'
p763
sg22
F0.8928571428571429
sbasg26
I00
sg27
I00
sg28
I377168
sg20
S'556.929300791'
p764
sba(igraph
Edge
p765
(dp766
g7
I1
sg8
I00
sg9
I5
sg10
(lp767
g761
a(igraph
Vertex
p768
(dp769
g14
F0.25
sg8
I00
sg15
g16
sg17
F238.78571428571433
sg18
F-1.25
sg19
I377572
sg20
S'556.672954524'
p770
sg22
F0.8928571428571429
sbasg26
I00
sg27
I00
sg28
I377169
sg20
S'556.931979623'
p771
sba(igraph
Edge
p772
(dp773
g7
I1
sg8
I00
sg9
I5
sg10
(lp774
g768
a(igraph
Vertex
p775
(dp776
g14
F0.33333333333333331
sg8
I00
sg15
g16
sg17
F238.78571428571433
sg18
F-50.333333333333314
sg19
I377573
sg20
S'556.675167375'
p777
sg22
F0.8928571428571429
sbasg26
I00
sg27
I00
sg28
I377170
sg20
S'556.934979166'
p778
sba(igraph
Edge
p779
(dp780
g7
I1
sg8
I00
sg9
I5
sg10
(lp781
g775
a(igraph
Vertex
p782
(dp783
g14
F0.41666666666666663
sg8
I00
sg15
g16
sg17
F238.78571428571433
sg18
F-99.416666666666657
sg19
I377574
sg20
S'556.677524937'
p784
sg22
F0.8928571428571429
sbasg26
I00
sg27
I00
sg28
I377171
sg20
S'556.938028157'
p785
sba(igraph
Edge
p786
(dp787
g7
I1
sg8
I00
sg9
I5
sg10
(lp788
g782
a(igraph
Vertex
p789
(dp790
g14
F0.5
sg8
I00
sg15
g16
sg17
F238.78571428571433
sg18
F-148.5
sg19
I377575
sg20
S'556.679655096'
p791
sg22
F0.8928571428571429
sbasg26
I00
sg27
I00
sg28
I377172
sg20
S'556.941236666'
p792
sba(igraph
Edge
p793
(dp794
g7
I1
sg8
I00
sg9
I5
sg10
(lp795
g789
a(igraph
Vertex
p796
(dp797
g14
F0.58333333333333326
sg8
I00
sg15
g16
sg17
F238.78571428571433
sg18
F-197.58333333333331
sg19
I377576
sg20
S'556.681650042'
p798
sg22
F0.8928571428571429
sbasg26
I00
sg27
I00
sg28
I377173
sg20
S'556.944287612'
p799
sba(igraph
Edge
p800
(dp801
g7
I1
sg8
I00
sg9
I5
sg10
(lp802
g796
a(igraph
Vertex
p803
(dp804
g14
F0.66666666666666663
sg8
I00
sg15
g16
sg17
F238.78571428571433
sg18
F-246.66666666666663
sg19
I377577
sg20
S'556.683693039'
p805
sg22
F0.8928571428571429
sbasg26
I00
sg27
I00
sg28
I377174
sg20
S'556.947536628'
p806
sba(igraph
Edge
p807
(dp808
g7
I1
sg8
I00
sg9
I5
sg10
(lp809
g803
a(igraph
Vertex
p810
(dp811
g14
F0.75
sg8
I00
sg15
g16
sg17
F238.78571428571433
sg18
F-295.75
sg19
I377578
sg20
S'556.685968189'
p812
sg22
F0.8928571428571429
sbasg26
I00
sg27
I00
sg28
I377175
sg20
S'556.950928679'
p813
sba(igraph
Edge
p814
(dp815
g7
I1
sg8
I00
sg9
I5
sg10
(lp816
g810
a(igraph
Vertex
p817
(dp818
g14
F0.83333333333333337
sg8
I01
sg15
I0
sg17
F238.78571428571433
sg18
F-344.83333333333337
sg19
I377580
sg20
S'556.688089129'
p819
sg22
F0.8928571428571429
sbasg26
I00
sg27
I00
sg28
I377176
sg20
S'556.954403982'
p820
sba(igraph
Edge
p821
(dp822
g7
I1
sg8
I00
sg9
I5
sg10
(lp823
g817
a(igraph
Vertex
p824
(dp825
g14
F0.91666666666666663
sg8
I00
sg15
g16
sg17
F238.78571428571433
sg18
F-393.91666666666663
sg19
I377582
sg20
S'556.690245827'
p826
sg22
F0.8928571428571429
sbasg26
I00
sg27
I00
sg28
I377177
sg20
S'556.957563601'
p827
sba(igraph
Edge
p828
(dp829
g7
I1
sg8
I00
sg9
I5
sg10
(lp830
g824
a(igraph
Vertex
p831
(dp832
g14
F1.0
sg8
I00
sg15
g16
sg17
F238.78571428571433
sg18
F-443.0
sg19
I377583
sg20
S'556.692339948'
p833
sg22
F0.8928571428571429
sbasg26
I00
sg27
I00
sg28
I377178
sg20
S'556.960880503'
p834
sba(igraph
Edge
p835
(dp836
g7
I1
sg8
I00
sg9
I5
sg10
(lp837
g831
ag751
asg26
I00
sg27
I00
sg28
I377179
sg20
S'556.964244059'
p838
sba(igraph
Edge
p839
(dp840
g7
I1
sg8
I00
sg9
I5
sg10
(lp841
(igraph
Vertex
p842
(dp843
g14
F0.0
sg8
I00
sg15
g16
sg17
F301.50892857142867
sg18
F146.0
sg19
I377584
sg20
S'556.69462739'
p844
sg22
F1.0044642857142858
sba(igraph
Vertex
p845
(dp846
g14
F0.083333333333333301
sg8
I01
sg15
I0
sg17
F301.50892857142867
sg18
F96.916666666666686
sg19
I377586
sg20
S'556.703554502'
p847
sg22
F1.0044642857142858
sbasg26
I00
sg27
I00
sg28
I377180
sg20
S'556.967507043'
p848
sba(igraph
Edge
p849
(dp850
g7
I1
sg8
I00
sg9
I5
sg10
(lp851
g845
a(igraph
Vertex
p852
(dp853
g14
F0.1666666666666666
sg8
I00
sg15
g16
sg17
F301.50892857142867
sg18
F47.833333333333371
sg19
I377588
sg20
S'556.705678515'
p854
sg22
F1.0044642857142858
sbasg26
I00
sg27
I00
sg28
I377181
sg20
S'556.970614422'
p855
sba(igraph
Edge
p856
(dp857
g7
I1
sg8
I00
sg9
I5
sg10
(lp858
g852
a(igraph
Vertex
p859
(dp860
g14
F0.25
sg8
I00
sg15
g16
sg17
F301.50892857142867
sg18
F-1.25
sg19
I377589
sg20
S'556.709049893'
p861
sg22
F1.0044642857142858
sbasg26
I00
sg27
I00
sg28
I377182
sg20
S'556.973375946'
p862
sba(igraph
Edge
p863
(dp864
g7
I1
sg8
I00
sg9
I5
sg10
(lp865
g859
a(igraph
Vertex
p866
(dp867
g14
F0.33333333333333331
sg8
I00
sg15
g16
sg17
F301.50892857142867
sg18
F-50.333333333333314
sg19
I377590
sg20
S'556.711269449'
p868
sg22
F1.0044642857142858
sbasg26
I00
sg27
I00
sg28
I377183
sg20
S'556.976583337'
p869
sba(igraph
Edge
p870
(dp871
g7
I1
sg8
I00
sg9
I5
sg10
(lp872
g866
a(igraph
Vertex
p873
(dp874
g14
F0.41666666666666663
sg8
I00
sg15
g16
sg17
F301.50892857142867
sg18
F-99.416666666666657
sg19
I377591
sg20
S'556.716572916'
p875
sg22
F1.0044642857142858
sbasg26
I00
sg27
I00
sg28
I377184
sg20
S'556.979958905'
p876
sba(igraph
Edge
p877
(dp878
g7
I1
sg8
I00
sg9
I5
sg10
(lp879
g873
a(igraph
Vertex
p880
(dp881
g14
F0.5
sg8
I00
sg15
g16
sg17
F301.50892857142867
sg18
F-148.5
sg19
I377592
sg20
S'556.719047533'
p882
sg22
F1.0044642857142858
sbasg26
I00
sg27
I00
sg28
I377185
sg20
S'556.983134728'
p883
sba(igraph
Edge
p884
(dp885
g7
I1
sg8
I00
sg9
I5
sg10
(lp886
g880
a(igraph
Vertex
p887
(dp888
g14
F0.58333333333333326
sg8
I00
sg15
g16
sg17
F301.50892857142867
sg18
F-197.58333333333331
sg19
I377593
sg20
S'556.721403139'
p889
sg22
F1.0044642857142858
sbasg26
I00
sg27
I00
sg28
I377186
sg20
S'556.986092646'
p890
sba(igraph
Edge
p891
(dp892
g7
I1
sg8
I00
sg9
I5
sg10
(lp893
g887
a(igraph
Vertex
p894
(dp895
g14
F0.66666666666666663
sg8
I00
sg15
g16
sg17
F301.50892857142867
sg18
F-246.66666666666663
sg19
I377594
sg20
S'556.723688905'
p896
sg22
F1.0044642857142858
sbasg26
I00
sg27
I00
sg28
I377187
sg20
S'556.98911817'
p897
sba(igraph
Edge
p898
(dp899
g7
I1
sg8
I00
sg9
I5
sg10
(lp900
g894
a(igraph
Vertex
p901
(dp902
g14
F0.75
sg8
I00
sg15
g16
sg17
F301.50892857142867
sg18
F-295.75
sg19
I377595
sg20
S'556.72652027'
p903
sg22
F1.0044642857142858
sbasg26
I00
sg27
I00
sg28
I377188
sg20
S'556.992311872'
p904
sba(igraph
Edge
p905
(dp906
g7
I1
sg8
I00
sg9
I5
sg10
(lp907
g901
a(igraph
Vertex
p908
(dp909
g14
F0.83333333333333337
sg8
I00
sg15
g16
sg17
F301.50892857142867
sg18
F-344.83333333333337
sg19
I377596
sg20
S'556.729394378'
p910
sg22
F1.0044642857142858
sbasg26
I00
sg27
I00
sg28
I377189
sg20
S'556.995565358'
p911
sba(igraph
Edge
p912
(dp913
g7
I1
sg8
I00
sg9
I5
sg10
(lp914
g908
a(igraph
Vertex
p915
(dp916
g14
F0.91666666666666663
sg8
I00
sg15
g16
sg17
F301.50892857142867
sg18
F-393.91666666666663
sg19
I377597
sg20
S'556.732585845'
p917
sg22
F1.0044642857142858
sbasg26
I00
sg27
I00
sg28
I377190
sg20
S'556.998572724'
p918
sba(igraph
Edge
p919
(dp920
g7
I1
sg8
I00
sg9
I5
sg10
(lp921
g915
a(igraph
Vertex
p922
(dp923
g14
F1.0
sg8
I01
sg15
I0
sg17
F301.50892857142867
sg18
F-443.0
sg19
I377599
sg20
S'556.734952627'
p924
sg22
F1.0044642857142858
sbasg26
I00
sg27
I00
sg28
I377191
sg20
S'557.001912813'
p925
sba(igraph
Edge
p926
(dp927
g7
I1
sg8
I00
sg9
I5
sg10
(lp928
g922
ag842
asg26
I00
sg27
I00
sg28
I377192
sg20
S'557.004955658'
p929
sba(igraph
Edge
p930
(dp931
g7
I1
sg8
I00
sg9
I5
sg10
(lp932
g12
ag114
asg26
I00
sg27
I00
sg28
I377193
sg20
S'557.008249093'
p933
sba(igraph
Edge
p934
(dp935
g7
I1
sg8
I00
sg9
I5
sg10
(lp936
g23
ag124
asg26
I00
sg27
I00
sg28
I377194
sg20
S'557.011744509'
p937
sba(igraph
Edge
p938
(dp939
g7
I1
sg8
I00
sg9
I5
sg10
(lp940
g33
ag124
asg26
I00
sg27
I00
sg28
I377195
sg20
S'557.015058618'
p941
sba(igraph
Edge
p942
(dp943
g7
I1
sg8
I00
sg9
I5
sg10
(lp944
g40
ag138
asg26
I00
sg27
I00
sg28
I377196
sg20
S'557.018187786'
p945
sba(igraph
Edge
p946
(dp947
g7
I1
sg8
I00
sg9
I5
sg10
(lp948
g47
ag138
asg26
I00
sg27
I00
sg28
I377197
sg20
S'557.021337907'
p949
sba(igraph
Edge
p950
(dp951
g7
I1
sg8
I00
sg9
I5
sg10
(lp952
g54
ag152
asg26
I00
sg27
I00
sg28
I377198
sg20
S'557.024954568'
p953
sba(igraph
Edge
p954
(dp955
g7
I1
sg8
I00
sg9
I5
sg10
(lp956
g61
ag152
asg26
I00
sg27
I00
sg28
I377199
sg20
S'557.028137096'
p957
sba(igraph
Edge
p958
(dp959
g7
I1
sg8
I00
sg9
I5
sg10
(lp960
g68
ag166
asg26
I00
sg27
I00
sg28
I377200
sg20
S'557.031353426'
p961
sba(igraph
Edge
p962
(dp963
g7
I1
sg8
I00
sg9
I5
sg10
(lp964
g75
ag166
asg26
I00
sg27
I00
sg28
I377201
sg20
S'557.034774531'
p965
sba(igraph
Edge
p966
(dp967
g7
I1
sg8
I00
sg9
I5
sg10
(lp968
g82
ag180
asg26
I00
sg27
I00
sg28
I377202
sg20
S'557.038521656'
p969
sba(igraph
Edge
p970
(dp971
g7
I1
sg8
I00
sg9
I5
sg10
(lp972
g89
ag180
asg26
I00
sg27
I00
sg28
I377203
sg20
S'557.043294329'
p973
sba(igraph
Edge
p974
(dp975
g7
I1
sg8
I00
sg9
I5
sg10
(lp976
g96
ag194
asg26
I00
sg27
I00
sg28
I377204
sg20
S'557.046838076'
p977
sba(igraph
Edge
p978
(dp979
g7
I1
sg8
I00
sg9
I5
sg10
(lp980
g103
ag194
asg26
I00
sg27
I00
sg28
I377205
sg20
S'557.050125644'
p981
sba(igraph
Edge
p982
(dp983
g7
I1
sg8
I00
sg9
I5
sg10
(lp984
g12
ag117
asg26
I00
sg27
I00
sg28
I377206
sg20
S'557.053480261'
p985
sba(igraph
Edge
p986
(dp987
g7
I1
sg8
I00
sg9
I5
sg10
(lp988
g23
ag117
asg26
I00
sg27
I00
sg28
I377207
sg20
S'557.057227106'
p989
sba(igraph
Edge
p990
(dp991
g7
I1
sg8
I00
sg9
I5
sg10
(lp992
g33
ag131
asg26
I00
sg27
I00
sg28
I377208
sg20
S'557.060536465'
p993
sba(igraph
Edge
p994
(dp995
g7
I1
sg8
I00
sg9
I5
sg10
(lp996
g40
ag131
asg26
I00
sg27
I00
sg28
I377209
sg20
S'557.064786167'
p997
sba(igraph
Edge
p998
(dp999
g7
I1
sg8
I00
sg9
I5
sg10
(lp1000
g47
ag145
asg26
I00
sg27
I00
sg28
I377210
sg20
S'557.068942282'
p1001
sba(igraph
Edge
p1002
(dp1003
g7
I1
sg8
I00
sg9
I5
sg10
(lp1004
g54
ag145
asg26
I00
sg27
I00
sg28
I377211
sg20
S'557.073300936'
p1005
sba(igraph
Edge
p1006
(dp1007
g7
I1
sg8
I00
sg9
I5
sg10
(lp1008
g61
ag159
asg26
I00
sg27
I00
sg28
I377212
sg20
S'557.077505661'
p1009
sba(igraph
Edge
p1010
(dp1011
g7
I1
sg8
I00
sg9
I5
sg10
(lp1012
g68
ag159
asg26
I00
sg27
I00
sg28
I377213
sg20
S'557.082098144'
p1013
sba(igraph
Edge
p1014
(dp1015
g7
I1
sg8
I00
sg9
I5
sg10
(lp1016
g75
ag173
asg26
I00
sg27
I00
sg28
I377214
sg20
S'557.08675516'
p1017
sba(igraph
Edge
p1018
(dp1019
g7
I1
sg8
I00
sg9
I5
sg10
(lp1020
g82
ag173
asg26
I00
sg27
I00
sg28
I377215
sg20
S'557.091095656'
p1021
sba(igraph
Edge
p1022
(dp1023
g7
I1
sg8
I00
sg9
I5
sg10
(lp1024
g89
ag187
asg26
I00
sg27
I00
sg28
I377216
sg20
S'557.095704622'
p1025
sba(igraph
Edge
p1026
(dp1027
g7
I1
sg8
I00
sg9
I5
sg10
(lp1028
g96
ag187
asg26
I00
sg27
I00
sg28
I377217
sg20
S'557.099884203'
p1029
sba(igraph
Edge
p1030
(dp1031
g7
I1
sg8
I00
sg9
I5
sg10
(lp1032
g103
ag114
asg26
I00
sg27
I00
sg28
I377218
sg20
S'557.104537588'
p1033
sba(igraph
Edge
p1034
(dp1035
g7
I1
sg8
I00
sg9
I5
sg10
(lp1036
g12
ag842
asg26
I00
sg27
I00
sg28
I377219
sg20
S'557.108748738'
p1037
sba(igraph
Edge
p1038
(dp1039
g7
I1
sg8
I00
sg9
I5
sg10
(lp1040
g23
ag842
asg26
I00
sg27
I00
sg28
I377220
sg20
S'557.112698681'
p1041
sba(igraph
Edge
p1042
(dp1043
g7
I1
sg8
I00
sg9
I5
sg10
(lp1044
g33
ag852
asg26
I00
sg27
I00
sg28
I377221
sg20
S'557.116615659'
p1045
sba(igraph
Edge
p1046
(dp1047
g7
I1
sg8
I00
sg9
I5
sg10
(lp1048
g40
ag852
asg26
I00
sg27
I00
sg28
I377222
sg20
S'557.120717857'
p1049
sba(igraph
Edge
p1050
(dp1051
g7
I1
sg8
I00
sg9
I5
sg10
(lp1052
g47
ag866
asg26
I00
sg27
I00
sg28
I377223
sg20
S'557.124787368'
p1053
sba(igraph
Edge
p1054
(dp1055
g7
I1
sg8
I00
sg9
I5
sg10
(lp1056
g54
ag866
asg26
I00
sg27
I00
sg28
I377224
sg20
S'557.128904372'
p1057
sba(igraph
Edge
p1058
(dp1059
g7
I1
sg8
I00
sg9
I5
sg10
(lp1060
g61
ag880
asg26
I00
sg27
I00
sg28
I377225
sg20
S'557.132704576'
p1061
sba(igraph
Edge
p1062
(dp1063
g7
I1
sg8
I00
sg9
I5
sg10
(lp1064
g68
ag880
asg26
I00
sg27
I00
sg28
I377226
sg20
S'557.13649584'
p1065
sba(igraph
Edge
p1066
(dp1067
g7
I1
sg8
I00
sg9
I5
sg10
(lp1068
g75
ag894
asg26
I00
sg27
I00
sg28
I377227
sg20
S'557.140401643'
p1069
sba(igraph
Edge
p1070
(dp1071
g7
I1
sg8
I00
sg9
I5
sg10
(lp1072
g82
ag894
asg26
I00
sg27
I00
sg28
I377228
sg20
S'557.144320577'
p1073
sba(igraph
Edge
p1074
(dp1075
g7
I1
sg8
I00
sg9
I5
sg10
(lp1076
g89
ag908
asg26
I00
sg27
I00
sg28
I377229
sg20
S'557.148229454'
p1077
sba(igraph
Edge
p1078
(dp1079
g7
I1
sg8
I00
sg9
I5
sg10
(lp1080
g96
ag908
asg26
I00
sg27
I00
sg28
I377230
sg20
S'557.152488934'
p1081
sba(igraph
Edge
p1082
(dp1083
g7
I1
sg8
I00
sg9
I5
sg10
(lp1084
g103
ag922
asg26
I00
sg27
I00
sg28
I377231
sg20
S'557.156465975'
p1085
sba(igraph
Edge
p1086
(dp1087
g7
I1
sg8
I00
sg9
I5
sg10
(lp1088
g12
ag922
asg26
I00
sg27
I00
sg28
I377232
sg20
S'557.160479055'
p1089
sba(igraph
Edge
p1090
(dp1091
g7
I1
sg8
I00
sg9
I5
sg10
(lp1092
g23
ag845
asg26
I00
sg27
I00
sg28
I377233
sg20
S'557.164588796'
p1093
sba(igraph
Edge
p1094
(dp1095
g7
I1
sg8
I00
sg9
I5
sg10
(lp1096
g33
ag845
asg26
I00
sg27
I00
sg28
I377234
sg20
S'557.168579806'
p1097
sba(igraph
Edge
p1098
(dp1099
g7
I1
sg8
I00
sg9
I5
sg10
(lp1100
g40
ag859
asg26
I00
sg27
I00
sg28
I377235
sg20
S'557.172519971'
p1101
sba(igraph
Edge
p1102
(dp1103
g7
I1
sg8
I00
sg9
I5
sg10
(lp1104
g47
ag859
asg26
I00
sg27
I00
sg28
I377236
sg20
S'557.177133407'
p1105
sba(igraph
Edge
p1106
(dp1107
g7
I1
sg8
I00
sg9
I5
sg10
(lp1108
g54
ag873
asg26
I00
sg27
I00
sg28
I377237
sg20
S'557.183303185'
p1109
sba(igraph
Edge
p1110
(dp1111
g7
I1
sg8
I00
sg9
I5
sg10
(lp1112
g61
ag873
asg26
I00
sg27
I00
sg28
I377238
sg20
S'557.187948748'
p1113
sba(igraph
Edge
p1114
(dp1115
g7
I1
sg8
I00
sg9
I5
sg10
(lp1116
g68
ag887
asg26
I00
sg27
I00
sg28
I377239
sg20
S'557.192600736'
p1117
sba(igraph
Edge
p1118
(dp1119
g7
I1
sg8
I00
sg9
I5
sg10
(lp1120
g75
ag887
asg26
I00
sg27
I00
sg28
I377240
sg20
S'557.199187606'
p1121
sba(igraph
Edge
p1122
(dp1123
g7
I1
sg8
I00
sg9
I5
sg10
(lp1124
g82
ag901
asg26
I00
sg27
I00
sg28
I377241
sg20
S'557.204206959'
p1125
sba(igraph
Edge
p1126
(dp1127
g7
I1
sg8
I00
sg9
I5
sg10
(lp1128
g89
ag901
asg26
I00
sg27
I00
sg28
I377242
sg20
S'557.209166249'
p1129
sba(igraph
Edge
p1130
(dp1131
g7
I1
sg8
I00
sg9
I5
sg10
(lp1132
g96
ag915
asg26
I00
sg27
I00
sg28
I377243
sg20
S'557.213999265'
p1133
sba(igraph
Edge
p1134
(dp1135
g7
I1
sg8
I00
sg9
I5
sg10
(lp1136
g103
ag915
asg26
I00
sg27
I00
sg28
I377244
sg20
S'557.219149361'
p1137
sba(igraph
Edge
p1138
(dp1139
g7
I1
sg8
I00
sg9
I5
sg10
(lp1140
g114
ag205
asg26
I00
sg27
I00
sg28
I377245
sg20
S'557.224339406'
p1141
sba(igraph
Edge
p1142
(dp1143
g7
I1
sg8
I00
sg9
I5
sg10
(lp1144
g117
ag215
asg26
I00
sg27
I00
sg28
I377246
sg20
S'557.229080232'
p1145
sba(igraph
Edge
p1146
(dp1147
g7
I1
sg8
I00
sg9
I5
sg10
(lp1148
g124
ag215
asg26
I00
sg27
I00
sg28
I377247
sg20
S'557.233346976'
p1149
sba(igraph
Edge
p1150
(dp1151
g7
I1
sg8
I00
sg9
I5
sg10
(lp1152
g131
ag229
asg26
I00
sg27
I00
sg28
I377248
sg20
S'557.237800894'
p1153
sba(igraph
Edge
p1154
(dp1155
g7
I1
sg8
I00
sg9
I5
sg10
(lp1156
g138
ag229
asg26
I00
sg27
I00
sg28
I377249
sg20
S'557.242426063'
p1157
sba(igraph
Edge
p1158
(dp1159
g7
I1
sg8
I00
sg9
I5
sg10
(lp1160
g145
ag243
asg26
I00
sg27
I00
sg28
I377250
sg20
S'557.247033911'
p1161
sba(igraph
Edge
p1162
(dp1163
g7
I1
sg8
I00
sg9
I5
sg10
(lp1164
g152
ag243
asg26
I00
sg27
I00
sg28
I377251
sg20
S'557.251478889'
p1165
sba(igraph
Edge
p1166
(dp1167
g7
I1
sg8
I00
sg9
I5
sg10
(lp1168
g159
ag257
asg26
I00
sg27
I00
sg28
I377252
sg20
S'557.25573362'
p1169
sba(igraph
Edge
p1170
(dp1171
g7
I1
sg8
I00
sg9
I5
sg10
(lp1172
g166
ag257
asg26
I00
sg27
I00
sg28
I377253
sg20
S'557.260468858'
p1173
sba(igraph
Edge
p1174
(dp1175
g7
I1
sg8
I00
sg9
I5
sg10
(lp1176
g173
ag271
asg26
I00
sg27
I00
sg28
I377254
sg20
S'557.265218904'
p1177
sba(igraph
Edge
p1178
(dp1179
g7
I1
sg8
I00
sg9
I5
sg10
(lp1180
g180
ag271
asg26
I00
sg27
I00
sg28
I377255
sg20
S'557.269862231'
p1181
sba(igraph
Edge
p1182
(dp1183
g7
I1
sg8
I00
sg9
I5
sg10
(lp1184
g187
ag285
asg26
I00
sg27
I00
sg28
I377256
sg20
S'557.275580835'
p1185
sba(igraph
Edge
p1186
(dp1187
g7
I1
sg8
I00
sg9
I5
sg10
(lp1188
g194
ag285
asg26
I00
sg27
I00
sg28
I377257
sg20
S'557.280205724'
p1189
sba(igraph
Edge
p1190
(dp1191
g7
I1
sg8
I00
sg9
I5
sg10
(lp1192
g114
ag208
asg26
I00
sg27
I00
sg28
I377258
sg20
S'557.284633103'
p1193
sba(igraph
Edge
p1194
(dp1195
g7
I1
sg8
I00
sg9
I5
sg10
(lp1196
g117
ag208
asg26
I00
sg27
I00
sg28
I377259
sg20
S'557.289107135'
p1197
sba(igraph
Edge
p1198
(dp1199
g7
I1
sg8
I00
sg9
I5
sg10
(lp1200
g124
ag222
asg26
I00
sg27
I00
sg28
I377260
sg20
S'557.293481993'
p1201
sba(igraph
Edge
p1202
(dp1203
g7
I1
sg8
I00
sg9
I5
sg10
(lp1204
g131
ag222
asg26
I00
sg27
I00
sg28
I377261
sg20
S'557.318784929'
p1205
sba(igraph
Edge
p1206
(dp1207
g7
I1
sg8
I00
sg9
I5
sg10
(lp1208
g138
ag236
asg26
I00
sg27
I00
sg28
I377262
sg20
S'557.323274606'
p1209
sba(igraph
Edge
p1210
(dp1211
g7
I1
sg8
I00
sg9
I5
sg10
(lp1212
g145
ag236
asg26
I00
sg27
I00
sg28
I377263
sg20
S'557.327703661'
p1213
sba(igraph
Edge
p1214
(dp1215
g7
I1
sg8
I00
sg9
I5
sg10
(lp1216
g152
ag250
asg26
I00
sg27
I00
sg28
I377264
sg20
S'557.332169033'
p1217
sba(igraph
Edge
p1218
(dp1219
g7
I1
sg8
I00
sg9
I5
sg10
(lp1220
g159
ag250
asg26
I00
sg27
I00
sg28
I377265
sg20
S'557.336654798'
p1221
sba(igraph
Edge
p1222
(dp1223
g7
I1
sg8
I00
sg9
I5
sg10
(lp1224
g166
ag264
asg26
I00
sg27
I00
sg28
I377266
sg20
S'557.341062062'
p1225
sba(igraph
Edge
p1226
(dp1227
g7
I1
sg8
I00
sg9
I5
sg10
(lp1228
g173
ag264
asg26
I00
sg27
I00
sg28
I377267
sg20
S'557.345572971'
p1229
sba(igraph
Edge
p1230
(dp1231
g7
I1
sg8
I00
sg9
I5
sg10
(lp1232
g180
ag278
asg26
I00
sg27
I00
sg28
I377268
sg20
S'557.350033873'
p1233
sba(igraph
Edge
p1234
(dp1235
g7
I1
sg8
I00
sg9
I5
sg10
(lp1236
g187
ag278
asg26
I00
sg27
I00
sg28
I377269
sg20
S'557.35470374'
p1237
sba(igraph
Edge
p1238
(dp1239
g7
I1
sg8
I00
sg9
I5
sg10
(lp1240
g194
ag205
asg26
I00
sg27
I00
sg28
I377270
sg20
S'557.359286725'
p1241
sba(igraph
Edge
p1242
(dp1243
g7
I1
sg8
I00
sg9
I5
sg10
(lp1244
g205
ag296
asg26
I00
sg27
I00
sg28
I377271
sg20
S'557.364029507'
p1245
sba(igraph
Edge
p1246
(dp1247
g7
I1
sg8
I00
sg9
I5
sg10
(lp1248
g208
ag306
asg26
I00
sg27
I00
sg28
I377272
sg20
S'557.368707755'
p1249
sba(igraph
Edge
p1250
(dp1251
g7
I1
sg8
I00
sg9
I5
sg10
(lp1252
g215
ag306
asg26
I00
sg27
I00
sg28
I377273
sg20
S'557.373339628'
p1253
sba(igraph
Edge
p1254
(dp1255
g7
I1
sg8
I00
sg9
I5
sg10
(lp1256
g222
ag320
asg26
I00
sg27
I00
sg28
I377274
sg20
S'557.378191362'
p1257
sba(igraph
Edge
p1258
(dp1259
g7
I1
sg8
I00
sg9
I5
sg10
(lp1260
g229
ag320
asg26
I00
sg27
I00
sg28
I377275
sg20
S'557.383009852'
p1261
sba(igraph
Edge
p1262
(dp1263
g7
I1
sg8
I00
sg9
I5
sg10
(lp1264
g236
ag334
asg26
I00
sg27
I00
sg28
I377276
sg20
S'557.387715757'
p1265
sba(igraph
Edge
p1266
(dp1267
g7
I1
sg8
I00
sg9
I5
sg10
(lp1268
g243
ag334
asg26
I00
sg27
I00
sg28
I377277
sg20
S'557.392485917'
p1269
sba(igraph
Edge
p1270
(dp1271
g7
I1
sg8
I00
sg9
I5
sg10
(lp1272
g250
ag348
asg26
I00
sg27
I00
sg28
I377278
sg20
S'557.397230374'
p1273
sba(igraph
Edge
p1274
(dp1275
g7
I1
sg8
I00
sg9
I5
sg10
(lp1276
g257
ag348
asg26
I00
sg27
I00
sg28
I377279
sg20
S'557.402080432'
p1277
sba(igraph
Edge
p1278
(dp1279
g7
I1
sg8
I00
sg9
I5
sg10
(lp1280
g264
ag362
asg26
I00
sg27
I00
sg28
I377280
sg20
S'557.406858693'
p1281
sba(igraph
Edge
p1282
(dp1283
g7
I1
sg8
I00
sg9
I5
sg10
(lp1284
g271
ag362
asg26
I00
sg27
I00
sg28
I377281
sg20
S'557.411696738'
p1285
sba(igraph
Edge
p1286
(dp1287
g7
I1
sg8
I00
sg9
I5
sg10
(lp1288
g278
ag376
asg26
I00
sg27
I00
sg28
I377282
sg20
S'557.416535901'
p1289
sba(igraph
Edge
p1290
(dp1291
g7
I1
sg8
I00
sg9
I5
sg10
(lp1292
g285
ag376
asg26
I00
sg27
I00
sg28
I377283
sg20
S'557.421352714'
p1293
sba(igraph
Edge
p1294
(dp1295
g7
I1
sg8
I00
sg9
I5
sg10
(lp1296
g205
ag299
asg26
I00
sg27
I00
sg28
I377284
sg20
S'557.426226238'
p1297
sba(igraph
Edge
p1298
(dp1299
g7
I1
sg8
I00
sg9
I5
sg10
(lp1300
g208
ag299
asg26
I00
sg27
I00
sg28
I377285
sg20
S'557.431347839'
p1301
sba(igraph
Edge
p1302
(dp1303
g7
I1
sg8
I00
sg9
I5
sg10
(lp1304
g215
ag313
asg26
I00
sg27
I00
sg28
I377286
sg20
S'557.436299306'
p1305
sba(igraph
Edge
p1306
(dp1307
g7
I1
sg8
I00
sg9
I5
sg10
(lp1308
g222
ag313
asg26
I00
sg27
I00
sg28
I377287
sg20
S'557.441218367'
p1309
sba(igraph
Edge
p1310
(dp1311
g7
I1
sg8
I00
sg9
I5
sg10
(lp1312
g229
ag327
asg26
I00
sg27
I00
sg28
I377288
sg20
S'557.446200844'
p1313
sba(igraph
Edge
p1314
(dp1315
g7
I1
sg8
I00
sg9
I5
sg10
(lp1316
g236
ag327
asg26
I00
sg27
I00
sg28
I377289
sg20
S'557.451509061'
p1317
sba(igraph
Edge
p1318
(dp1319
g7
I1
sg8
I00
sg9
I5
sg10
(lp1320
g243
ag341
asg26
I00
sg27
I00
sg28
I377290
sg20
S'557.456556071'
p1321
sba(igraph
Edge
p1322
(dp1323
g7
I1
sg8
I00
sg9
I5
sg10
(lp1324
g250
ag341
asg26
I00
sg27
I00
sg28
I377291
sg20
S'557.46162543'
p1325
sba(igraph
Edge
p1326
(dp1327
g7
I1
sg8
I00
sg9
I5
sg10
(lp1328
g257
ag355
asg26
I00
sg27
I00
sg28
I377292
sg20
S'557.466684453'
p1329
sba(igraph
Edge
p1330
(dp1331
g7
I1
sg8
I00
sg9
I5
sg10
(lp1332
g264
ag355
asg26
I00
sg27
I00
sg28
I377293
sg20
S'557.471795996'
p1333
sba(igraph
Edge
p1334
(dp1335
g7
I1
sg8
I00
sg9
I5
sg10
(lp1336
g271
ag369
asg26
I00
sg27
I00
sg28
I377294
sg20
S'557.476936035'
p1337
sba(igraph
Edge
p1338
(dp1339
g7
I1
sg8
I00
sg9
I5
sg10
(lp1340
g278
ag369
asg26
I00
sg27
I00
sg28
I377295
sg20
S'557.482002322'
p1341
sba(igraph
Edge
p1342
(dp1343
g7
I1
sg8
I00
sg9
I5
sg10
(lp1344
g285
ag296
asg26
I00
sg27
I00
sg28
I377296
sg20
S'557.487081738'
p1345
sba(igraph
Edge
p1346
(dp1347
g7
I1
sg8
I00
sg9
I5
sg10
(lp1348
g296
ag387
asg26
I00
sg27
I00
sg28
I377297
sg20
S'557.49238325'
p1349
sba(igraph
Edge
p1350
(dp1351
g7
I1
sg8
I00
sg9
I5
sg10
(lp1352
g299
ag397
asg26
I00
sg27
I00
sg28
I377298
sg20
S'557.497620787'
p1353
sba(igraph
Edge
p1354
(dp1355
g7
I1
sg8
I00
sg9
I5
sg10
(lp1356
g306
ag397
asg26
I00
sg27
I00
sg28
I377299
sg20
S'557.502872292'
p1357
sba(igraph
Edge
p1358
(dp1359
g7
I1
sg8
I00
sg9
I5
sg10
(lp1360
g313
ag411
asg26
I00
sg27
I00
sg28
I377300
sg20
S'557.508091112'
p1361
sba(igraph
Edge
p1362
(dp1363
g7
I1
sg8
I00
sg9
I5
sg10
(lp1364
g320
ag411
asg26
I00
sg27
I00
sg28
I377301
sg20
S'557.51340296'
p1365
sba(igraph
Edge
p1366
(dp1367
g7
I1
sg8
I00
sg9
I5
sg10
(lp1368
g327
ag425
asg26
I00
sg27
I00
sg28
I377302
sg20
S'557.518654186'
p1369
sba(igraph
Edge
p1370
(dp1371
g7
I1
sg8
I00
sg9
I5
sg10
(lp1372
g334
ag425
asg26
I00
sg27
I00
sg28
I377303
sg20
S'557.524077501'
p1373
sba(igraph
Edge
p1374
(dp1375
g7
I1
sg8
I00
sg9
I5
sg10
(lp1376
g341
ag439
asg26
I00
sg27
I00
sg28
I377304
sg20
S'557.529460029'
p1377
sba(igraph
Edge
p1378
(dp1379
g7
I1
sg8
I00
sg9
I5
sg10
(lp1380
g348
ag439
asg26
I00
sg27
I00
sg28
I377305
sg20
S'557.534809033'
p1381
sba(igraph
Edge
p1382
(dp1383
g7
I1
sg8
I00
sg9
I5
sg10
(lp1384
g355
ag453
asg26
I00
sg27
I00
sg28
I377306
sg20
S'557.5403061'
p1385
sba(igraph
Edge
p1386
(dp1387
g7
I1
sg8
I00
sg9
I5
sg10
(lp1388
g362
ag453
asg26
I00
sg27
I00
sg28
I377307
sg20
S'557.545692819'
p1389
sba(igraph
Edge
p1390
(dp1391
g7
I1
sg8
I00
sg9
I5
sg10
(lp1392
g369
ag467
asg26
I00
sg27
I00
sg28
I377308
sg20
S'557.55112228'
p1393
sba(igraph
Edge
p1394
(dp1395
g7
I1
sg8
I00
sg9
I5
sg10
(lp1396
g376
ag467
asg26
I00
sg27
I00
sg28
I377309
sg20
S'557.556523804'
p1397
sba(igraph
Edge
p1398
(dp1399
g7
I1
sg8
I00
sg9
I5
sg10
(lp1400
g296
ag390
asg26
I00
sg27
I00
sg28
I377310
sg20
S'557.562002154'
p1401
sba(igraph
Edge
p1402
(dp1403
g7
I1
sg8
I00
sg9
I5
sg10
(lp1404
g299
ag390
asg26
I00
sg27
I00
sg28
I377311
sg20
S'557.567382167'
p1405
sba(igraph
Edge
p1406
(dp1407
g7
I1
sg8
I00
sg9
I5
sg10
(lp1408
g306
ag404
asg26
I00
sg27
I00
sg28
I377312
sg20
S'557.572853254'
p1409
sba(igraph
Edge
p1410
(dp1411
g7
I1
sg8
I00
sg9
I5
sg10
(lp1412
g313
ag404
asg26
I00
sg27
I00
sg28
I377313
sg20
S'557.5783858'
p1413
sba(igraph
Edge
p1414
(dp1415
g7
I1
sg8
I00
sg9
I5
sg10
(lp1416
g320
ag418
asg26
I00
sg27
I00
sg28
I377314
sg20
S'557.584141839'
p1417
sba(igraph
Edge
p1418
(dp1419
g7
I1
sg8
I00
sg9
I5
sg10
(lp1420
g327
ag418
asg26
I00
sg27
I00
sg28
I377315
sg20
S'557.590826208'
p1421
sba(igraph
Edge
p1422
(dp1423
g7
I1
sg8
I00
sg9
I5
sg10
(lp1424
g334
ag432
asg26
I00
sg27
I00
sg28
I377316
sg20
S'557.596466031'
p1425
sba(igraph
Edge
p1426
(dp1427
g7
I1
sg8
I00
sg9
I5
sg10
(lp1428
g341
ag432
asg26
I00
sg27
I00
sg28
I377317
sg20
S'557.602117308'
p1429
sba(igraph
Edge
p1430
(dp1431
g7
I1
sg8
I00
sg9
I5
sg10
(lp1432
g348
ag446
asg26
I00
sg27
I00
sg28
I377318
sg20
S'557.607653207'
p1433
sba(igraph
Edge
p1434
(dp1435
g7
I1
sg8
I00
sg9
I5
sg10
(lp1436
g355
ag446
asg26
I00
sg27
I00
sg28
I377319
sg20
S'557.613356726'
p1437
sba(igraph
Edge
p1438
(dp1439
g7
I1
sg8
I00
sg9
I5
sg10
(lp1440
g362
ag460
asg26
I00
sg27
I00
sg28
I377320
sg20
S'557.61896526'
p1441
sba(igraph
Edge
p1442
(dp1443
g7
I1
sg8
I00
sg9
I5
sg10
(lp1444
g369
ag460
asg26
I00
sg27
I00
sg28
I377321
sg20
S'557.624852321'
p1445
sba(igraph
Edge
p1446
(dp1447
g7
I1
sg8
I00
sg9
I5
sg10
(lp1448
g376
ag387
asg26
I00
sg27
I00
sg28
I377322
sg20
S'557.630582099'
p1449
sba(igraph
Edge
p1450
(dp1451
g7
I1
sg8
I00
sg9
I5
sg10
(lp1452
g387
ag478
asg26
I00
sg27
I00
sg28
I377323
sg20
S'557.636617503'
p1453
sba(igraph
Edge
p1454
(dp1455
g7
I1
sg8
I00
sg9
I5
sg10
(lp1456
g390
ag488
asg26
I00
sg27
I00
sg28
I377324
sg20
S'557.642366837'
p1457
sba(igraph
Edge
p1458
(dp1459
g7
I1
sg8
I00
sg9
I5
sg10
(lp1460
g397
ag488
asg26
I00
sg27
I00
sg28
I377325
sg20
S'557.648134051'
p1461
sba(igraph
Edge
p1462
(dp1463
g7
I1
sg8
I00
sg9
I5
sg10
(lp1464
g404
ag502
asg26
I00
sg27
I00
sg28
I377326
sg20
S'557.654005747'
p1465
sba(igraph
Edge
p1466
(dp1467
g7
I1
sg8
I00
sg9
I5
sg10
(lp1468
g411
ag502
asg26
I00
sg27
I00
sg28
I377327
sg20
S'557.659870179'
p1469
sba(igraph
Edge
p1470
(dp1471
g7
I1
sg8
I00
sg9
I5
sg10
(lp1472
g418
ag516
asg26
I00
sg27
I00
sg28
I377328
sg20
S'557.665708072'
p1473
sba(igraph
Edge
p1474
(dp1475
g7
I1
sg8
I00
sg9
I5
sg10
(lp1476
g425
ag516
asg26
I00
sg27
I00
sg28
I377329
sg20
S'557.671533393'
p1477
sba(igraph
Edge
p1478
(dp1479
g7
I1
sg8
I00
sg9
I5
sg10
(lp1480
g432
ag530
asg26
I00
sg27
I00
sg28
I377330
sg20
S'557.677362905'
p1481
sba(igraph
Edge
p1482
(dp1483
g7
I1
sg8
I00
sg9
I5
sg10
(lp1484
g439
ag530
asg26
I00
sg27
I00
sg28
I377331
sg20
S'557.683332658'
p1485
sba(igraph
Edge
p1486
(dp1487
g7
I1
sg8
I00
sg9
I5
sg10
(lp1488
g446
ag544
asg26
I00
sg27
I00
sg28
I377332
sg20
S'557.689234805'
p1489
sba(igraph
Edge
p1490
(dp1491
g7
I1
sg8
I00
sg9
I5
sg10
(lp1492
g453
ag544
asg26
I00
sg27
I00
sg28
I377333
sg20
S'557.695237244'
p1493
sba(igraph
Edge
p1494
(dp1495
g7
I1
sg8
I00
sg9
I5
sg10
(lp1496
g460
ag558
asg26
I00
sg27
I00
sg28
I377334
sg20
S'557.705161969'
p1497
sba(igraph
Edge
p1498
(dp1499
g7
I1
sg8
I00
sg9
I5
sg10
(lp1500
g467
ag558
asg26
I00
sg27
I00
sg28
I377335
sg20
S'557.711541551'
p1501
sba(igraph
Edge
p1502
(dp1503
g7
I1
sg8
I00
sg9
I5
sg10
(lp1504
g387
ag481
asg26
I00
sg27
I00
sg28
I377336
sg20
S'557.717673894'
p1505
sba(igraph
Edge
p1506
(dp1507
g7
I1
sg8
I00
sg9
I5
sg10
(lp1508
g390
ag481
asg26
I00
sg27
I00
sg28
I377337
sg20
S'557.723755952'
p1509
sba(igraph
Edge
p1510
(dp1511
g7
I1
sg8
I00
sg9
I5
sg10
(lp1512
g397
ag495
asg26
I00
sg27
I00
sg28
I377338
sg20
S'557.730283597'
p1513
sba(igraph
Edge
p1514
(dp1515
g7
I1
sg8
I00
sg9
I5
sg10
(lp1516
g404
ag495
asg26
I00
sg27
I00
sg28
I377339
sg20
S'557.736386049'
p1517
sba(igraph
Edge
p1518
(dp1519
g7
I1
sg8
I00
sg9
I5
sg10
(lp1520
g411
ag509
asg26
I00
sg27
I00
sg28
I377340
sg20
S'557.74258097'
p1521
sba(igraph
Edge
p1522
(dp1523
g7
I1
sg8
I00
sg9
I5
sg10
(lp1524
g418
ag509
asg26
I00
sg27
I00
sg28
I377341
sg20
S'557.748689847'
p1525
sba(igraph
Edge
p1526
(dp1527
g7
I1
sg8
I00
sg9
I5
sg10
(lp1528
g425
ag523
asg26
I00
sg27
I00
sg28
I377342
sg20
S'557.754883093'
p1529
sba(igraph
Edge
p1530
(dp1531
g7
I1
sg8
I00
sg9
I5
sg10
(lp1532
g432
ag523
asg26
I00
sg27
I00
sg28
I377343
sg20
S'557.761074941'
p1533
sba(igraph
Edge
p1534
(dp1535
g7
I1
sg8
I00
sg9
I5
sg10
(lp1536
g439
ag537
asg26
I00
sg27
I00
sg28
I377344
sg20
S'557.76727992'
p1537
sba(igraph
Edge
p1538
(dp1539
g7
I1
sg8
I00
sg9
I5
sg10
(lp1540
g446
ag537
asg26
I00
sg27
I00
sg28
I377345
sg20
S'557.773555019'
p1541
sba(igraph
Edge
p1542
(dp1543
g7
I1
sg8
I00
sg9
I5
sg10
(lp1544
g453
ag551
asg26
I00
sg27
I00
sg28
I377346
sg20
S'557.779773686'
p1545
sba(igraph
Edge
p1546
(dp1547
g7
I1
sg8
I00
sg9
I5
sg10
(lp1548
g460
ag551
asg26
I00
sg27
I00
sg28
I377347
sg20
S'557.786079795'
p1549
sba(igraph
Edge
p1550
(dp1551
g7
I1
sg8
I00
sg9
I5
sg10
(lp1552
g467
ag478
asg26
I00
sg27
I00
sg28
I377348
sg20
S'557.792428088'
p1553
sba(igraph
Edge
p1554
(dp1555
g7
I1
sg8
I00
sg9
I5
sg10
(lp1556
g478
ag569
asg26
I00
sg27
I00
sg28
I377349
sg20
S'557.798702349'
p1557
sba(igraph
Edge
p1558
(dp1559
g7
I1
sg8
I00
sg9
I5
sg10
(lp1560
g481
ag579
asg26
I00
sg27
I00
sg28
I377350
sg20
S'557.804939734'
p1561
sba(igraph
Edge
p1562
(dp1563
g7
I1
sg8
I00
sg9
I5
sg10
(lp1564
g488
ag579
asg26
I00
sg27
I00
sg28
I377351
sg20
S'557.811237741'
p1565
sba(igraph
Edge
p1566
(dp1567
g7
I1
sg8
I00
sg9
I5
sg10
(lp1568
g495
ag593
asg26
I00
sg27
I00
sg28
I377352
sg20
S'557.817566758'
p1569
sba(igraph
Edge
p1570
(dp1571
g7
I1
sg8
I00
sg9
I5
sg10
(lp1572
g502
ag593
asg26
I00
sg27
I00
sg28
I377353
sg20
S'557.824212854'
p1573
sba(igraph
Edge
p1574
(dp1575
g7
I1
sg8
I00
sg9
I5
sg10
(lp1576
g509
ag607
asg26
I00
sg27
I00
sg28
I377354
sg20
S'557.830581261'
p1577
sba(igraph
Edge
p1578
(dp1579
g7
I1
sg8
I00
sg9
I5
sg10
(lp1580
g516
ag607
asg26
I00
sg27
I00
sg28
I377355
sg20
S'557.836878989'
p1581
sba(igraph
Edge
p1582
(dp1583
g7
I1
sg8
I00
sg9
I5
sg10
(lp1584
g523
ag621
asg26
I00
sg27
I00
sg28
I377356
sg20
S'557.843691028'
p1585
sba(igraph
Edge
p1586
(dp1587
g7
I1
sg8
I00
sg9
I5
sg10
(lp1588
g530
ag621
asg26
I00
sg27
I00
sg28
I377357
sg20
S'557.850507537'
p1589
sba(igraph
Edge
p1590
(dp1591
g7
I1
sg8
I00
sg9
I5
sg10
(lp1592
g537
ag635
asg26
I00
sg27
I00
sg28
I377358
sg20
S'557.857203918'
p1593
sba(igraph
Edge
p1594
(dp1595
g7
I1
sg8
I00
sg9
I5
sg10
(lp1596
g544
ag635
asg26
I00
sg27
I00
sg28
I377359
sg20
S'557.863846383'
p1597
sba(igraph
Edge
p1598
(dp1599
g7
I1
sg8
I00
sg9
I5
sg10
(lp1600
g551
ag649
asg26
I00
sg27
I00
sg28
I377360
sg20
S'557.870489685'
p1601
sba(igraph
Edge
p1602
(dp1603
g7
I1
sg8
I00
sg9
I5
sg10
(lp1604
g558
ag649
asg26
I00
sg27
I00
sg28
I377361
sg20
S'557.877031857'
p1605
sba(igraph
Edge
p1606
(dp1607
g7
I1
sg8
I00
sg9
I5
sg10
(lp1608
g478
ag572
asg26
I00
sg27
I00
sg28
I377362
sg20
S'557.883567884'
p1609
sba(igraph
Edge
p1610
(dp1611
g7
I1
sg8
I00
sg9
I5
sg10
(lp1612
g481
ag572
asg26
I00
sg27
I00
sg28
I377363
sg20
S'557.890171516'
p1613
sba(igraph
Edge
p1614
(dp1615
g7
I1
sg8
I00
sg9
I5
sg10
(lp1616
g488
ag586
asg26
I00
sg27
I00
sg28
I377364
sg20
S'557.896927682'
p1617
sba(igraph
Edge
p1618
(dp1619
g7
I1
sg8
I00
sg9
I5
sg10
(lp1620
g495
ag586
asg26
I00
sg27
I00
sg28
I377365
sg20
S'557.903574058'
p1621
sba(igraph
Edge
p1622
(dp1623
g7
I1
sg8
I00
sg9
I5
sg10
(lp1624
g502
ag600
asg26
I00
sg27
I00
sg28
I377366
sg20
S'557.910169589'
p1625
sba(igraph
Edge
p1626
(dp1627
g7
I1
sg8
I00
sg9
I5
sg10
(lp1628
g509
ag600
asg26
I00
sg27
I00
sg28
I377367
sg20
S'557.917724739'
p1629
sba(igraph
Edge
p1630
(dp1631
g7
I1
sg8
I00
sg9
I5
sg10
(lp1632
g516
ag614
asg26
I00
sg27
I00
sg28
I377368
sg20
S'557.924611368'
p1633
sba(igraph
Edge
p1634
(dp1635
g7
I1
sg8
I00
sg9
I5
sg10
(lp1636
g523
ag614
asg26
I00
sg27
I00
sg28
I377369
sg20
S'557.93129462'
p1637
sba(igraph
Edge
p1638
(dp1639
g7
I1
sg8
I00
sg9
I5
sg10
(lp1640
g530
ag628
asg26
I00
sg27
I00
sg28
I377370
sg20
S'557.938239078'
p1641
sba(igraph
Edge
p1642
(dp1643
g7
I1
sg8
I00
sg9
I5
sg10
(lp1644
g537
ag628
asg26
I00
sg27
I00
sg28
I377371
sg20
S'557.945060895'
p1645
sba(igraph
Edge
p1646
(dp1647
g7
I1
sg8
I00
sg9
I5
sg10
(lp1648
g544
ag642
asg26
I00
sg27
I00
sg28
I377372
sg20
S'557.951867626'
p1649
sba(igraph
Edge
p1650
(dp1651
g7
I1
sg8
I00
sg9
I5
sg10
(lp1652
g551
ag642
asg26
I00
sg27
I00
sg28
I377373
sg20
S'557.958674915'
p1653
sba(igraph
Edge
p1654
(dp1655
g7
I1
sg8
I00
sg9
I5
sg10
(lp1656
g558
ag569
asg26
I00
sg27
I00
sg28
I377374
sg20
S'557.965504554'
p1657
sba(igraph
Edge
p1658
(dp1659
g7
I1
sg8
I00
sg9
I5
sg10
(lp1660
g569
ag660
asg26
I00
sg27
I00
sg28
I377375
sg20
S'557.972561317'
p1661
sba(igraph
Edge
p1662
(dp1663
g7
I1
sg8
I00
sg9
I5
sg10
(lp1664
g572
ag670
asg26
I00
sg27
I00
sg28
I377376
sg20
S'557.979501026'
p1665
sba(igraph
Edge
p1666
(dp1667
g7
I1
sg8
I00
sg9
I5
sg10
(lp1668
g579
ag670
asg26
I00
sg27
I00
sg28
I377377
sg20
S'557.98644716'
p1669
sba(igraph
Edge
p1670
(dp1671
g7
I1
sg8
I00
sg9
I5
sg10
(lp1672
g586
ag684
asg26
I00
sg27
I00
sg28
I377378
sg20
S'557.993440507'
p1673
sba(igraph
Edge
p1674
(dp1675
g7
I1
sg8
I00
sg9
I5
sg10
(lp1676
g593
ag684
asg26
I00
sg27
I00
sg28
I377379
sg20
S'558.000504254'
p1677
sba(igraph
Edge
p1678
(dp1679
g7
I1
sg8
I00
sg9
I5
sg10
(lp1680
g600
ag698
asg26
I00
sg27
I00
sg28
I377380
sg20
S'558.007530007'
p1681
sba(igraph
Edge
p1682
(dp1683
g7
I1
sg8
I00
sg9
I5
sg10
(lp1684
g607
ag698
asg26
I00
sg27
I00
sg28
I377381
sg20
S'558.01456917'
p1685
sba(igraph
Edge
p1686
(dp1687
g7
I1
sg8
I00
sg9
I5
sg10
(lp1688
g614
ag712
asg26
I00
sg27
I00
sg28
I377382
sg20
S'558.02166672'
p1689
sba(igraph
Edge
p1690
(dp1691
g7
I1
sg8
I00
sg9
I5
sg10
(lp1692
g621
ag712
asg26
I00
sg27
I00
sg28
I377383
sg20
S'558.028747229'
p1693
sba(igraph
Edge
p1694
(dp1695
g7
I1
sg8
I00
sg9
I5
sg10
(lp1696
g628
ag726
asg26
I00
sg27
I00
sg28
I377384
sg20
S'558.035779128'
p1697
sba(igraph
Edge
p1698
(dp1699
g7
I1
sg8
I00
sg9
I5
sg10
(lp1700
g635
ag726
asg26
I00
sg27
I00
sg28
I377385
sg20
S'558.042876958'
p1701
sba(igraph
Edge
p1702
(dp1703
g7
I1
sg8
I00
sg9
I5
sg10
(lp1704
g642
ag740
asg26
I00
sg27
I00
sg28
I377386
sg20
S'558.050005238'
p1705
sba(igraph
Edge
p1706
(dp1707
g7
I1
sg8
I00
sg9
I5
sg10
(lp1708
g649
ag740
asg26
I00
sg27
I00
sg28
I377387
sg20
S'558.057172629'
p1709
sba(igraph
Edge
p1710
(dp1711
g7
I1
sg8
I00
sg9
I5
sg10
(lp1712
g569
ag663
asg26
I00
sg27
I00
sg28
I377388
sg20
S'558.064466853'
p1713
sba(igraph
Edge
p1714
(dp1715
g7
I1
sg8
I00
sg9
I5
sg10
(lp1716
g572
ag663
asg26
I00
sg27
I00
sg28
I377389
sg20
S'558.071671958'
p1717
sba(igraph
Edge
p1718
(dp1719
g7
I1
sg8
I00
sg9
I5
sg10
(lp1720
g579
ag677
asg26
I00
sg27
I00
sg28
I377390
sg20
S'558.078937686'
p1721
sba(igraph
Edge
p1722
(dp1723
g7
I1
sg8
I00
sg9
I5
sg10
(lp1724
g586
ag677
asg26
I00
sg27
I00
sg28
I377391
sg20
S'558.086171008'
p1725
sba(igraph
Edge
p1726
(dp1727
g7
I1
sg8
I00
sg9
I5
sg10
(lp1728
g593
ag691
asg26
I00
sg27
I00
sg28
I377392
sg20
S'558.09370325'
p1729
sba(igraph
Edge
p1730
(dp1731
g7
I1
sg8
I00
sg9
I5
sg10
(lp1732
g600
ag691
asg26
I00
sg27
I00
sg28
I377393
sg20
S'558.101542235'
p1733
sba(igraph
Edge
p1734
(dp1735
g7
I1
sg8
I00
sg9
I5
sg10
(lp1736
g607
ag705
asg26
I00
sg27
I00
sg28
I377394
sg20
S'558.10894122'
p1737
sba(igraph
Edge
p1738
(dp1739
g7
I1
sg8
I00
sg9
I5
sg10
(lp1740
g614
ag705
asg26
I00
sg27
I00
sg28
I377395
sg20
S'558.116138504'
p1741
sba(igraph
Edge
p1742
(dp1743
g7
I1
sg8
I00
sg9
I5
sg10
(lp1744
g621
ag719
asg26
I00
sg27
I00
sg28
I377396
sg20
S'558.123360371'
p1745
sba(igraph
Edge
p1746
(dp1747
g7
I1
sg8
I00
sg9
I5
sg10
(lp1748
g628
ag719
asg26
I00
sg27
I00
sg28
I377397
sg20
S'558.131026429'
p1749
sba(igraph
Edge
p1750
(dp1751
g7
I1
sg8
I00
sg9
I5
sg10
(lp1752
g635
ag733
asg26
I00
sg27
I00
sg28
I377398
sg20
S'558.138465084'
p1753
sba(igraph
Edge
p1754
(dp1755
g7
I1
sg8
I00
sg9
I5
sg10
(lp1756
g642
ag733
asg26
I00
sg27
I00
sg28
I377399
sg20
S'558.145825517'
p1757
sba(igraph
Edge
p1758
(dp1759
g7
I1
sg8
I00
sg9
I5
sg10
(lp1760
g649
ag660
asg26
I00
sg27
I00
sg28
I377400
sg20
S'558.153536553'
p1761
sba(igraph
Edge
p1762
(dp1763
g7
I1
sg8
I00
sg9
I5
sg10
(lp1764
g660
ag751
asg26
I00
sg27
I00
sg28
I377401
sg20
S'558.160995881'
p1765
sba(igraph
Edge
p1766
(dp1767
g7
I1
sg8
I00
sg9
I5
sg10
(lp1768
g663
ag761
asg26
I00
sg27
I00
sg28
I377402
sg20
S'558.168451577'
p1769
sba(igraph
Edge
p1770
(dp1771
g7
I1
sg8
I00
sg9
I5
sg10
(lp1772
g670
ag761
asg26
I00
sg27
I00
sg28
I377403
sg20
S'558.175923756'
p1773
sba(igraph
Edge
p1774
(dp1775
g7
I1
sg8
I00
sg9
I5
sg10
(lp1776
g677
ag775
asg26
I00
sg27
I00
sg28
I377404
sg20
S'558.183378614'
p1777
sba(igraph
Edge
p1778
(dp1779
g7
I1
sg8
I00
sg9
I5
sg10
(lp1780
g684
ag775
asg26
I00
sg27
I00
sg28
I377405
sg20
S'558.190882361'
p1781
sba(igraph
Edge
p1782
(dp1783
g7
I1
sg8
I00
sg9
I5
sg10
(lp1784
g691
ag789
asg26
I00
sg27
I00
sg28
I377406
sg20
S'558.200232152'
p1785
sba(igraph
Edge
p1786
(dp1787
g7
I1
sg8
I00
sg9
I5
sg10
(lp1788
g698
ag789
asg26
I00
sg27
I00
sg28
I377407
sg20
S'558.207912458'
p1789
sba(igraph
Edge
p1790
(dp1791
g7
I1
sg8
I00
sg9
I5
sg10
(lp1792
g705
ag803
asg26
I00
sg27
I00
sg28
I377408
sg20
S'558.215542758'
p1793
sba(igraph
Edge
p1794
(dp1795
g7
I1
sg8
I00
sg9
I5
sg10
(lp1796
g712
ag803
asg26
I00
sg27
I00
sg28
I377409
sg20
S'558.223178644'
p1797
sba(igraph
Edge
p1798
(dp1799
g7
I1
sg8
I00
sg9
I5
sg10
(lp1800
g719
ag817
asg26
I00
sg27
I00
sg28
I377410
sg20
S'558.231056182'
p1801
sba(igraph
Edge
p1802
(dp1803
g7
I1
sg8
I00
sg9
I5
sg10
(lp1804
g726
ag817
asg26
I00
sg27
I00
sg28
I377411
sg20
S'558.23873537'
p1805
sba(igraph
Edge
p1806
(dp1807
g7
I1
sg8
I00
sg9
I5
sg10
(lp1808
g733
ag831
asg26
I00
sg27
I00
sg28
I377412
sg20
S'558.246334101'
p1809
sba(igraph
Edge
p1810
(dp1811
g7
I1
sg8
I00
sg9
I5
sg10
(lp1812
g740
ag831
asg26
I00
sg27
I00
sg28
I377413
sg20
S'558.254319474'
p1813
sba(igraph
Edge
p1814
(dp1815
g7
I1
sg8
I00
sg9
I5
sg10
(lp1816
g660
ag754
asg26
I00
sg27
I00
sg28
I377414
sg20
S'558.262065989'
p1817
sba(igraph
Edge
p1818
(dp1819
g7
I1
sg8
I00
sg9
I5
sg10
(lp1820
g663
ag754
asg26
I00
sg27
I00
sg28
I377415
sg20
S'558.269854409'
p1821
sba(igraph
Edge
p1822
(dp1823
g7
I1
sg8
I00
sg9
I5
sg10
(lp1824
g670
ag768
asg26
I00
sg27
I00
sg28
I377416
sg20
S'558.277727477'
p1825
sba(igraph
Edge
p1826
(dp1827
g7
I1
sg8
I00
sg9
I5
sg10
(lp1828
g677
ag768
asg26
I00
sg27
I00
sg28
I377417
sg20
S'558.285528747'
p1829
sba(igraph
Edge
p1830
(dp1831
g7
I1
sg8
I00
sg9
I5
sg10
(lp1832
g684
ag782
asg26
I00
sg27
I00
sg28
I377418
sg20
S'558.293537586'
p1833
sba(igraph
Edge
p1834
(dp1835
g7
I1
sg8
I00
sg9
I5
sg10
(lp1836
g691
ag782
asg26
I00
sg27
I00
sg28
I377419
sg20
S'558.301387746'
p1837
sba(igraph
Edge
p1838
(dp1839
g7
I1
sg8
I00
sg9
I5
sg10
(lp1840
g698
ag796
asg26
I00
sg27
I00
sg28
I377420
sg20
S'558.309228408'
p1841
sba(igraph
Edge
p1842
(dp1843
g7
I1
sg8
I00
sg9
I5
sg10
(lp1844
g705
ag796
asg26
I00
sg27
I00
sg28
I377421
sg20
S'558.317274402'
p1845
sba(igraph
Edge
p1846
(dp1847
g7
I1
sg8
I00
sg9
I5
sg10
(lp1848
g712
ag810
asg26
I00
sg27
I00
sg28
I377422
sg20
S'558.325126797'
p1849
sba(igraph
Edge
p1850
(dp1851
g7
I1
sg8
I00
sg9
I5
sg10
(lp1852
g719
ag810
asg26
I00
sg27
I00
sg28
I377423
sg20
S'558.332969972'
p1853
sba(igraph
Edge
p1854
(dp1855
g7
I1
sg8
I00
sg9
I5
sg10
(lp1856
g726
ag824
asg26
I00
sg27
I00
sg28
I377424
sg20
S'558.341337516'
p1857
sba(igraph
Edge
p1858
(dp1859
g7
I1
sg8
I00
sg9
I5
sg10
(lp1860
g733
ag824
asg26
I00
sg27
I00
sg28
I377425
sg20
S'558.349256121'
p1861
sba(igraph
Edge
p1862
(dp1863
g7
I1
sg8
I00
sg9
I5
sg10
(lp1864
g740
ag751
asg26
I00
sg27
I00
sg28
I377426
sg20
S'558.357130864'
p1865
sba(igraph
Edge
p1866
(dp1867
g7
I1
sg8
I00
sg9
I5
sg10
(lp1868
g751
ag842
asg26
I00
sg27
I00
sg28
I377427
sg20
S'558.365056453'
p1869
sba(igraph
Edge
p1870
(dp1871
g7
I1
sg8
I00
sg9
I5
sg10
(lp1872
g754
ag852
asg26
I00
sg27
I00
sg28
I377428
sg20
S'558.373298841'
p1873
sba(igraph
Edge
p1874
(dp1875
g7
I1
sg8
I00
sg9
I5
sg10
(lp1876
g761
ag852
asg26
I00
sg27
I00
sg28
I377429
sg20
S'558.381291477'
p1877
sba(igraph
Edge
p1878
(dp1879
g7
I1
sg8
I00
sg9
I5
sg10
(lp1880
g768
ag866
asg26
I00
sg27
I00
sg28
I377430
sg20
S'558.390132545'
p1881
sba(igraph
Edge
p1882
(dp1883
g7
I1
sg8
I00
sg9
I5
sg10
(lp1884
g775
ag866
asg26
I00
sg27
I00
sg28
I377431
sg20
S'558.398235251'
p1885
sba(igraph
Edge
p1886
(dp1887
g7
I1
sg8
I00
sg9
I5
sg10
(lp1888
g782
ag880
asg26
I00
sg27
I00
sg28
I377432
sg20
S'558.406517309'
p1889
sba(igraph
Edge
p1890
(dp1891
g7
I1
sg8
I00
sg9
I5
sg10
(lp1892
g789
ag880
asg26
I00
sg27
I00
sg28
I377433
sg20
S'558.414762211'
p1893
sba(igraph
Edge
p1894
(dp1895
g7
I1
sg8
I00
sg9
I5
sg10
(lp1896
g796
ag894
asg26
I00
sg27
I00
sg28
I377434
sg20
S'558.423056282'
p1897
sba(igraph
Edge
p1898
(dp1899
g7
I1
sg8
I00
sg9
I5
sg10
(lp1900
g803
ag894
asg26
I00
sg27
I00
sg28
I377435
sg20
S'558.431354264'
p1901
sba(igraph
Edge
p1902
(dp1903
g7
I1
sg8
I00
sg9
I5
sg10
(lp1904
g810
ag908
asg26
I00
sg27
I00
sg28
I377436
sg20
S'558.439666215'
p1905
sba(igraph
Edge
p1906
(dp1907
g7
I1
sg8
I00
sg9
I5
sg10
(lp1908
g817
ag908
asg26
I00
sg27
I00
sg28
I377437
sg20
S'558.448013085'
p1909
sba(igraph
Edge
p1910
(dp1911
g7
I1
sg8
I00
sg9
I5
sg10
(lp1912
g824
ag922
asg26
I00
sg27
I00
sg28
I377438
sg20
S'558.456114674'
p1913
sba(igraph
Edge
p1914
(dp1915
g7
I1
sg8
I00
sg9
I5
sg10
(lp1916
g831
ag922
asg26
I00
sg27
I00
sg28
I377439
sg20
S'558.464366002'
p1917
sba(igraph
Edge
p1918
(dp1919
g7
I1
sg8
I00
sg9
I5
sg10
(lp1920
g751
ag845
asg26
I00
sg27
I00
sg28
I377440
sg20
S'558.472612301'
p1921
sba(igraph
Edge
p1922
(dp1923
g7
I1
sg8
I00
sg9
I5
sg10
(lp1924
g754
ag845
asg26
I00
sg27
I00
sg28
I377441
sg20
S'558.481379896'
p1925
sba(igraph
Edge
p1926
(dp1927
g7
I1
sg8
I00
sg9
I5
sg10
(lp1928
g761
ag859
asg26
I00
sg27
I00
sg28
I377442
sg20
S'558.489905281'
p1929
sba(igraph
Edge
p1930
(dp1931
g7
I1
sg8
I00
sg9
I5
sg10
(lp1932
g768
ag859
asg26
I00
sg27
I00
sg28
I377443
sg20
S'558.498242654'
p1933
sba(igraph
Edge
p1934
(dp1935
g7
I1
sg8
I00
sg9
I5
sg10
(lp1936
g775
ag873
asg26
I00
sg27
I00
sg28
I377444
sg20
S'558.506586452'
p1937
sba(igraph
Edge
p1938
(dp1939
g7
I1
sg8
I00
sg9
I5
sg10
(lp1940
g782
ag873
asg26
I00
sg27
I00
sg28
I377445
sg20
S'558.515015177'
p1941
sba(igraph
Edge
p1942
(dp1943
g7
I1
sg8
I00
sg9
I5
sg10
(lp1944
g789
ag887
asg26
I00
sg27
I00
sg28
I377446
sg20
S'558.52350592'
p1945
sba(igraph
Edge
p1946
(dp1947
g7
I1
sg8
I00
sg9
I5
sg10
(lp1948
g796
ag887
asg26
I00
sg27
I00
sg28
I377447
sg20
S'558.531996106'
p1949
sba(igraph
Edge
p1950
(dp1951
g7
I1
sg8
I00
sg9
I5
sg10
(lp1952
g803
ag901
asg26
I00
sg27
I00
sg28
I377448
sg20
S'558.54045137'
p1953
sba(igraph
Edge
p1954
(dp1955
g7
I1
sg8
I00
sg9
I5
sg10
(lp1956
g810
ag901
asg26
I00
sg27
I00
sg28
I377449
sg20
S'558.548964184'
p1957
sba(igraph
Edge
p1958
(dp1959
g7
I1
sg8
I00
sg9
I5
sg10
(lp1960
g817
ag915
asg26
I00
sg27
I00
sg28
I377450
sg20
S'558.557416376'
p1961
sba(igraph
Edge
p1962
(dp1963
g7
I1
sg8
I00
sg9
I5
sg10
(lp1964
g824
ag915
asg26
I00
sg27
I00
sg28
I377451
sg20
S'558.565984504'
p1965
sba(igraph
Edge
p1966
(dp1967
g7
I1
sg8
I00
sg9
I5
sg10
(lp1968
g831
ag842
asg26
I00
sg27
I00
sg28
I377452
sg20
S'558.574621914'
p1969
sbasS'vertices'
p1970
(lp1971
g12
ag23
ag33
ag40
ag47
ag54
ag61
ag68
ag75
ag82
ag89
ag96
ag103
ag114
ag117
ag124
ag131
ag138
ag145
ag152
ag159
ag166
ag173
ag180
ag187
ag194
ag205
ag208
ag215
ag222
ag229
ag236
ag243
ag250
ag257
ag264
ag271
ag278
ag285
ag296
ag299
ag306
ag313
ag320
ag327
ag334
ag341
ag348
ag355
ag362
ag369
ag376
ag387
ag390
ag397
ag404
ag411
ag418
ag425
ag432
ag439
ag446
ag453
ag460
ag467
ag478
ag481
ag488
ag495
ag502
ag509
ag516
ag523
ag530
ag537
ag544
ag551
ag558
ag569
ag572
ag579
ag586
ag593
ag600
ag607
ag614
ag621
ag628
ag635
ag642
ag649
ag660
ag663
ag670
ag677
ag684
ag691
ag698
ag705
ag712
ag719
ag726
ag733
ag740
ag751
ag754
ag761
ag768
ag775
ag782
ag789
ag796
ag803
ag810
ag817
ag824
ag831
ag842
ag845
ag852
ag859
ag866
ag873
ag880
ag887
ag894
ag901
ag908
ag915
ag922
asS'tags'
p1972
(lp1973
sb.