(igraph
Graph
p0
(dp1
S'labelingConstraints'
p2
I-1
sS'edges'
p3
(lp4
(igraph
Edge
p5
(dp6
S'direction'
p7
I1
sS'selected'
p8
I00
sS'height'
p9
I5
sS'vs'
p10
(lp11
(igraph
Vertex
p12
(dp13
S'xnorm'
p14
F0.2142857142857143
sg8
I00
sS'label'
p15
S'NULL'
p16
sS'y'
p17
F-315.0
sS'x'
p18
F110.35714285714286
sS'circle'
p19
I3711739
sS'id'
p20
S'11582.1700194'
p21
sS'ynorm'
p22
F0.0
sba(igraph
Vertex
p23
(dp24
g14
F0.28571428571428581
sg8
I00
sg15
g16
sg17
F-315.0
sg18
F66.142857142857082
sg19
I3711740
sg20
S'11582.1700537'
p25
sg22
F0.0
sbasS'wrap'
p26
I00
sS'curved'
p27
I00
sS'line'
p28
I3711234
sg20
S'11582.4302055'
p29
sba(igraph
Edge
p30
(dp31
g7
I1
sg8
I00
sg9
I5
sg10
(lp32
g23
a(igraph
Vertex
p33
(dp34
g14
F0.35714285714285721
sg8
I00
sg15
g16
sg17
F-315.0
sg18
F21.928571428571388
sg19
I3711741
sg20
S'11582.1700959'
p35
sg22
F0.0
sbasg26
I00
sg27
I00
sg28
I3711235
sg20
S'11582.4303251'
p36
sba(igraph
Edge
p37
(dp38
g7
I1
sg8
I00
sg9
I5
sg10
(lp39
g33
a(igraph
Vertex
p40
(dp41
g14
F0.4285714285714286
sg8
I00
sg15
g16
sg17
F-315.0
sg18
F-22.285714285714278
sg19
I3711742
sg20
S'11582.1701454'
p42
sg22
F0.0
sbasg26
I00
sg27
I00
sg28
I3711236
sg20
S'11582.4304673'
p43
sba(igraph
Edge
p44
(dp45
g7
I1
sg8
I00
sg9
I5
sg10
(lp46
g40
a(igraph
Vertex
p47
(dp48
g14
F0.50000000000000011
sg8
I00
sg15
g16
sg17
F-315.0
sg18
F-66.500000000000057
sg19
I3711743
sg20
S'11582.1702018'
p49
sg22
F0.0
sbasg26
I00
sg27
I00
sg28
I3711237
sg20
S'11582.4306301'
p50
sba(igraph
Edge
p51
(dp52
g7
I1
sg8
I00
sg9
I5
sg10
(lp53
g47
a(igraph
Vertex
p54
(dp55
g14
F0.5714285714285714
sg8
I00
sg15
g16
sg17
F-315.0
sg18
F-110.71428571428572
sg19
I3711744
sg20
S'11582.1702672'
p56
sg22
F0.0
sbasg26
I00
sg27
I00
sg28
I3711238
sg20
S'11582.430814'
p57
sba(igraph
Edge
p58
(dp59
g7
I1
sg8
I00
sg9
I5
sg10
(lp60
g54
a(igraph
Vertex
p61
(dp62
g14
F0.6428571428571429
sg8
I00
sg15
g16
sg17
F-315.0
sg18
F-154.92857142857144
sg19
I3711745
sg20
S'11582.1703384'
p63
sg22
F0.0
sbasg26
I00
sg27
I00
sg28
I3711239
sg20
S'11582.4310478'
p64
sba(igraph
Edge
p65
(dp66
g7
I1
sg8
I00
sg9
I5
sg10
(lp67
g61
a(igraph
Vertex
p68
(dp69
g14
F0.71428571428571441
sg8
I00
sg15
g16
sg17
F-315.0
sg18
F-199.14285714285722
sg19
I3711746
sg20
S'11582.1704172'
p70
sg22
F0.0
sbasg26
I00
sg27
I00
sg28
I3711240
sg20
S'11582.4312802'
p71
sba(igraph
Edge
p72
(dp73
g7
I1
sg8
I00
sg9
I5
sg10
(lp74
g68
a(igraph
Vertex
p75
(dp76
g14
F0.7857142857142857
sg8
I00
sg15
g16
sg17
F-315.0
sg18
F-243.35714285714283
sg19
I3711747
sg20
S'11582.1705041'
p77
sg22
F0.0
sbasg26
I00
sg27
I00
sg28
I3711241
sg20
S'11582.43153'
p78
sba(igraph
Edge
p79
(dp80
g7
I1
sg8
I00
sg9
I5
sg10
(lp81
g75
a(igraph
Vertex
p82
(dp83
g14
F0.85714285714285721
sg8
I00
sg15
g16
sg17
F-315.0
sg18
F-287.57142857142856
sg19
I3711748
sg20
S'11582.1705991'
p84
sg22
F0.0
sbasg26
I00
sg27
I00
sg28
I3711242
sg20
S'11582.4317993'
p85
sba(igraph
Edge
p86
(dp87
g7
I1
sg8
I00
sg9
I5
sg10
(lp88
g82
a(igraph
Vertex
p89
(dp90
g14
F0.92857142857142871
sg8
I00
sg15
g16
sg17
F-315.0
sg18
F-331.78571428571433
sg19
I3711749
sg20
S'11582.1707019'
p91
sg22
F0.0
sbasg26
I00
sg27
I00
sg28
I3711243
sg20
S'11582.4320963'
p92
sba(igraph
Edge
p93
(dp94
g7
I1
sg8
I00
sg9
I5
sg10
(lp95
g89
a(igraph
Vertex
p96
(dp97
g14
F1.0
sg8
I00
sg15
g16
sg17
F-315.0
sg18
F-376.0
sg19
I3711750
sg20
S'11582.1708131'
p98
sg22
F0.0
sbasg26
I00
sg27
I00
sg28
I3711244
sg20
S'11582.4324075'
p99
sba(igraph
Edge
p100
(dp101
g7
I1
sg8
I00
sg9
I5
sg10
(lp102
(igraph
Vertex
p103
(dp104
g14
F0.2142857142857143
sg8
I00
sg15
g16
sg17
F-265.43382352941177
sg18
F110.35714285714286
sg19
I3711751
sg20
S'11582.1713539'
p105
sg22
F0.07720588235294118
sba(igraph
Vertex
p106
(dp107
g14
F0.28571428571428581
sg8
I00
sg15
g16
sg17
F-265.43382352941177
sg18
F66.142857142857082
sg19
I3711752
sg20
S'11582.1715042'
p108
sg22
F0.07720588235294118
sbasg26
I00
sg27
I00
sg28
I3711245
sg20
S'11582.4343153'
p109
sba(igraph
Edge
p110
(dp111
g7
I1
sg8
I00
sg9
I5
sg10
(lp112
g106
a(igraph
Vertex
p113
(dp114
g14
F0.35714285714285721
sg8
I00
sg15
g16
sg17
F-265.43382352941177
sg18
F21.928571428571388
sg19
I3711753
sg20
S'11582.1716606'
p115
sg22
F0.07720588235294118
sbasg26
I00
sg27
I00
sg28
I3711246
sg20
S'11582.4347583'
p116
sba(igraph
Edge
p117
(dp118
g7
I1
sg8
I00
sg9
I5
sg10
(lp119
g113
a(igraph
Vertex
p120
(dp121
g14
F0.4285714285714286
sg8
I00
sg15
g16
sg17
F-265.43382352941177
sg18
F-22.285714285714278
sg19
I3711754
sg20
S'11582.1718269'
p122
sg22
F0.07720588235294118
sbasg26
I00
sg27
I00
sg28
I3711247
sg20
S'11582.4352218'
p123
sba(igraph
Edge
p124
(dp125
g7
I1
sg8
I00
sg9
I5
sg10
(lp126
g120
a(igraph
Vertex
p127
(dp128
g14
F0.50000000000000011
sg8
I00
sg15
g16
sg17
F-265.43382352941177
sg18
F-66.500000000000057
sg19
I3711755
sg20
S'11582.1720026'
p129
sg22
F0.07720588235294118
sbasg26
I00
sg27
I00
sg28
I3711248
sg20
S'11582.4357065'
p130
sba(igraph
Edge
p131
(dp132
g7
I1
sg8
I00
sg9
I5
sg10
(lp133
g127
a(igraph
Vertex
p134
(dp135
g14
F0.5714285714285714
sg8
I00
sg15
g16
sg17
F-265.43382352941177
sg18
F-110.71428571428572
sg19
I3711756
sg20
S'11582.1721853'
p136
sg22
F0.07720588235294118
sbasg26
I00
sg27
I00
sg28
I3711249
sg20
S'11582.4362124'
p137
sba(igraph
Edge
p138
(dp139
g7
I1
sg8
I00
sg9
I5
sg10
(lp140
g134
a(igraph
Vertex
p141
(dp142
g14
F0.6428571428571429
sg8
I00
sg15
g16
sg17
F-265.43382352941177
sg18
F-154.92857142857144
sg19
I3711757
sg20
S'11582.1723867'
p143
sg22
F0.07720588235294118
sbasg26
I00
sg27
I00
sg28
I3711250
sg20
S'11582.4367541'
p144
sba(igraph
Edge
p145
(dp146
g7
I1
sg8
I00
sg9
I5
sg10
(lp147
g141
a(igraph
Vertex
p148
(dp149
g14
F0.71428571428571441
sg8
I00
sg15
g16
sg17
F-265.43382352941177
sg18
F-199.14285714285722
sg19
I3711758
sg20
S'11582.1725865'
p150
sg22
F0.07720588235294118
sbasg26
I00
sg27
I00
sg28
I3711251
sg20
S'11582.4373751'
p151
sba(igraph
Edge
p152
(dp153
g7
I1
sg8
I00
sg9
I5
sg10
(lp154
g148
a(igraph
Vertex
p155
(dp156
g14
F0.7857142857142857
sg8
I00
sg15
g16
sg17
F-265.43382352941177
sg18
F-243.35714285714283
sg19
I3711759
sg20
S'11582.1727929'
p157
sg22
F0.07720588235294118
sbasg26
I00
sg27
I00
sg28
I3711252
sg20
S'11582.4379467'
p158
sba(igraph
Edge
p159
(dp160
g7
I1
sg8
I00
sg9
I5
sg10
(lp161
g155
a(igraph
Vertex
p162
(dp163
g14
F0.85714285714285721
sg8
I00
sg15
g16
sg17
F-265.43382352941177
sg18
F-287.57142857142856
sg19
I3711760
sg20
S'11582.173008'
p164
sg22
F0.07720588235294118
sbasg26
I00
sg27
I00
sg28
I3711253
sg20
S'11582.4385395'
p165
sba(igraph
Edge
p166
(dp167
g7
I1
sg8
I00
sg9
I5
sg10
(lp168
g162
a(igraph
Vertex
p169
(dp170
g14
F0.92857142857142871
sg8
I00
sg15
g16
sg17
F-265.43382352941177
sg18
F-331.78571428571433
sg19
I3711761
sg20
S'11582.1732332'
p171
sg22
F0.07720588235294118
sbasg26
I00
sg27
I00
sg28
I3711254
sg20
S'11582.4391536'
p172
sba(igraph
Edge
p173
(dp174
g7
I1
sg8
I00
sg9
I5
sg10
(lp175
g169
a(igraph
Vertex
p176
(dp177
g14
F1.0
sg8
I01
sg15
I0
sg17
F-265.43382352941177
sg18
F-376.0
sg19
I3711763
sg20
S'11582.1734625'
p178
sg22
F0.07720588235294118
sbasg26
I00
sg27
I00
sg28
I3711255
sg20
S'11582.4397886'
p179
sba(igraph
Edge
p180
(dp181
g7
I1
sg8
I00
sg9
I5
sg10
(lp182
(igraph
Vertex
p183
(dp184
g14
F0.2142857142857143
sg8
I00
sg15
g16
sg17
F-215.86764705882354
sg18
F110.35714285714286
sg19
I3711765
sg20
S'11582.1744599'
p185
sg22
F0.15441176470588236
sba(igraph
Vertex
p186
(dp187
g14
F0.28571428571428581
sg8
I01
sg15
I0
sg17
F-215.86764705882354
sg18
F66.142857142857082
sg19
I3711767
sg20
S'11582.17473'
p188
sg22
F0.15441176470588236
sbasg26
I00
sg27
I00
sg28
I3711256
sg20
S'11582.4433075'
p189
sba(igraph
Edge
p190
(dp191
g7
I1
sg8
I00
sg9
I5
sg10
(lp192
g186
a(igraph
Vertex
p193
(dp194
g14
F0.35714285714285721
sg8
I00
sg15
g16
sg17
F-215.86764705882354
sg18
F21.928571428571388
sg19
I3711769
sg20
S'11582.1750074'
p195
sg22
F0.15441176470588236
sbasg26
I00
sg27
I00
sg28
I3711257
sg20
S'11582.4440701'
p196
sba(igraph
Edge
p197
(dp198
g7
I1
sg8
I00
sg9
I5
sg10
(lp199
g193
a(igraph
Vertex
p200
(dp201
g14
F0.4285714285714286
sg8
I00
sg15
g16
sg17
F-215.86764705882354
sg18
F-22.285714285714278
sg19
I3711770
sg20
S'11582.1752932'
p202
sg22
F0.15441176470588236
sbasg26
I00
sg27
I00
sg28
I3711258
sg20
S'11582.4448521'
p203
sba(igraph
Edge
p204
(dp205
g7
I1
sg8
I00
sg9
I5
sg10
(lp206
g200
a(igraph
Vertex
p207
(dp208
g14
F0.50000000000000011
sg8
I00
sg15
g16
sg17
F-215.86764705882354
sg18
F-66.500000000000057
sg19
I3711771
sg20
S'11582.1755852'
p209
sg22
F0.15441176470588236
sbasg26
I00
sg27
I00
sg28
I3711259
sg20
S'11582.4456558'
p210
sba(igraph
Edge
p211
(dp212
g7
I1
sg8
I00
sg9
I5
sg10
(lp213
g207
a(igraph
Vertex
p214
(dp215
g14
F0.5714285714285714
sg8
I00
sg15
g16
sg17
F-215.86764705882354
sg18
F-110.71428571428572
sg19
I3711772
sg20
S'11582.1758855'
p216
sg22
F0.15441176470588236
sbasg26
I00
sg27
I00
sg28
I3711260
sg20
S'11582.4464891'
p217
sba(igraph
Edge
p218
(dp219
g7
I1
sg8
I00
sg9
I5
sg10
(lp220
g214
a(igraph
Vertex
p221
(dp222
g14
F0.6428571428571429
sg8
I00
sg15
g16
sg17
F-215.86764705882354
sg18
F-154.92857142857144
sg19
I3711773
sg20
S'11582.1761987'
p223
sg22
F0.15441176470588236
sbasg26
I00
sg27
I00
sg28
I3711261
sg20
S'11582.4473381'
p224
sba(igraph
Edge
p225
(dp226
g7
I1
sg8
I00
sg9
I5
sg10
(lp227
g221
a(igraph
Vertex
p228
(dp229
g14
F0.71428571428571441
sg8
I00
sg15
g16
sg17
F-215.86764705882354
sg18
F-199.14285714285722
sg19
I3711774
sg20
S'11582.1765177'
p230
sg22
F0.15441176470588236
sbasg26
I00
sg27
I00
sg28
I3711262
sg20
S'11582.4482159'
p231
sba(igraph
Edge
p232
(dp233
g7
I1
sg8
I00
sg9
I5
sg10
(lp234
g228
a(igraph
Vertex
p235
(dp236
g14
F0.7857142857142857
sg8
I00
sg15
g16
sg17
F-215.86764705882354
sg18
F-243.35714285714283
sg19
I3711775
sg20
S'11582.1768437'
p237
sg22
F0.15441176470588236
sbasg26
I00
sg27
I00
sg28
I3711263
sg20
S'11582.4491104'
p238
sba(igraph
Edge
p239
(dp240
g7
I1
sg8
I00
sg9
I5
sg10
(lp241
g235
a(igraph
Vertex
p242
(dp243
g14
F0.85714285714285721
sg8
I00
sg15
g16
sg17
F-215.86764705882354
sg18
F-287.57142857142856
sg19
I3711776
sg20
S'11582.1771787'
p244
sg22
F0.15441176470588236
sbasg26
I00
sg27
I00
sg28
I3711264
sg20
S'11582.4500237'
p245
sba(igraph
Edge
p246
(dp247
g7
I1
sg8
I00
sg9
I5
sg10
(lp248
g242
a(igraph
Vertex
p249
(dp250
g14
F0.92857142857142871
sg8
I00
sg15
g16
sg17
F-215.86764705882354
sg18
F-331.78571428571433
sg19
I3711777
sg20
S'11582.1775214'
p251
sg22
F0.15441176470588236
sbasg26
I00
sg27
I00
sg28
I3711265
sg20
S'11582.4509607'
p252
sba(igraph
Edge
p253
(dp254
g7
I1
sg8
I00
sg9
I5
sg10
(lp255
g249
a(igraph
Vertex
p256
(dp257
g14
F1.0
sg8
I00
sg15
g16
sg17
F-215.86764705882354
sg18
F-376.0
sg19
I3711778
sg20
S'11582.1778701'
p258
sg22
F0.15441176470588236
sbasg26
I00
sg27
I00
sg28
I3711266
sg20
S'11582.4519189'
p259
sba(igraph
Edge
p260
(dp261
g7
I1
sg8
I00
sg9
I5
sg10
(lp262
(igraph
Vertex
p263
(dp264
g14
F0.2142857142857143
sg8
I00
sg15
g16
sg17
F-166.30147058823528
sg18
F110.35714285714286
sg19
I3711779
sg20
S'11582.1793463'
p265
sg22
F0.23161764705882354
sba(igraph
Vertex
p266
(dp267
g14
F0.28571428571428581
sg8
I00
sg15
g16
sg17
F-166.30147058823528
sg18
F66.142857142857082
sg19
I3711780
sg20
S'11582.1797374'
p268
sg22
F0.23161764705882354
sbasg26
I00
sg27
I00
sg28
I3711267
sg20
S'11582.4570489'
p269
sba(igraph
Edge
p270
(dp271
g7
I1
sg8
I00
sg9
I5
sg10
(lp272
g266
a(igraph
Vertex
p273
(dp274
g14
F0.35714285714285721
sg8
I00
sg15
g16
sg17
F-166.30147058823528
sg18
F21.928571428571388
sg19
I3711781
sg20
S'11582.1801366'
p275
sg22
F0.23161764705882354
sbasg26
I00
sg27
I00
sg28
I3711268
sg20
S'11582.4581342'
p276
sba(igraph
Edge
p277
(dp278
g7
I1
sg8
I00
sg9
I5
sg10
(lp279
g273
a(igraph
Vertex
p280
(dp281
g14
F0.4285714285714286
sg8
I00
sg15
g16
sg17
F-166.30147058823528
sg18
F-22.285714285714278
sg19
I3711782
sg20
S'11582.1805414'
p282
sg22
F0.23161764705882354
sbasg26
I00
sg27
I00
sg28
I3711269
sg20
S'11582.4592827'
p283
sba(igraph
Edge
p284
(dp285
g7
I1
sg8
I00
sg9
I5
sg10
(lp286
g280
a(igraph
Vertex
p287
(dp288
g14
F0.50000000000000011
sg8
I00
sg15
g16
sg17
F-166.30147058823528
sg18
F-66.500000000000057
sg19
I3711783
sg20
S'11582.180994'
p289
sg22
F0.23161764705882354
sbasg26
I00
sg27
I00
sg28
I3711270
sg20
S'11582.4605077'
p290
sba(igraph
Edge
p291
(dp292
g7
I1
sg8
I00
sg9
I5
sg10
(lp293
g287
a(igraph
Vertex
p294
(dp295
g14
F0.5714285714285714
sg8
I00
sg15
g16
sg17
F-166.30147058823528
sg18
F-110.71428571428572
sg19
I3711784
sg20
S'11582.1814194'
p296
sg22
F0.23161764705882354
sbasg26
I00
sg27
I00
sg28
I3711271
sg20
S'11582.4616564'
p297
sba(igraph
Edge
p298
(dp299
g7
I1
sg8
I00
sg9
I5
sg10
(lp300
g294
a(igraph
Vertex
p301
(dp302
g14
F0.6428571428571429
sg8
I00
sg15
g16
sg17
F-166.30147058823528
sg18
F-154.92857142857144
sg19
I3711785
sg20
S'11582.1818552'
p303
sg22
F0.23161764705882354
sbasg26
I00
sg27
I00
sg28
I3711272
sg20
S'11582.4628278'
p304
sba(igraph
Edge
p305
(dp306
g7
I1
sg8
I00
sg9
I5
sg10
(lp307
g301
a(igraph
Vertex
p308
(dp309
g14
F0.71428571428571441
sg8
I00
sg15
g16
sg17
F-166.30147058823528
sg18
F-199.14285714285722
sg19
I3711786
sg20
S'11582.1822969'
p310
sg22
F0.23161764705882354
sbasg26
I00
sg27
I00
sg28
I3711273
sg20
S'11582.4640199'
p311
sba(igraph
Edge
p312
(dp313
g7
I1
sg8
I00
sg9
I5
sg10
(lp314
g308
a(igraph
Vertex
p315
(dp316
g14
F0.7857142857142857
sg8
I00
sg15
g16
sg17
F-166.30147058823528
sg18
F-243.35714285714283
sg19
I3711787
sg20
S'11582.1827484'
p317
sg22
F0.23161764705882354
sbasg26
I00
sg27
I00
sg28
I3711274
sg20
S'11582.4652622'
p318
sba(igraph
Edge
p319
(dp320
g7
I1
sg8
I00
sg9
I5
sg10
(lp321
g315
a(igraph
Vertex
p322
(dp323
g14
F0.85714285714285721
sg8
I00
sg15
g16
sg17
F-166.30147058823528
sg18
F-287.57142857142856
sg19
I3711788
sg20
S'11582.1832076'
p324
sg22
F0.23161764705882354
sbasg26
I00
sg27
I00
sg28
I3711275
sg20
S'11582.4664959'
p325
sba(igraph
Edge
p326
(dp327
g7
I1
sg8
I00
sg9
I5
sg10
(lp328
g322
a(igraph
Vertex
p329
(dp330
g14
F0.92857142857142871
sg8
I00
sg15
g16
sg17
F-166.30147058823528
sg18
F-331.78571428571433
sg19
I3711789
sg20
S'11582.1836731'
p331
sg22
F0.23161764705882354
sbasg26
I00
sg27
I00
sg28
I3711276
sg20
S'11582.4677536'
p332
sba(igraph
Edge
p333
(dp334
g7
I1
sg8
I00
sg9
I5
sg10
(lp335
g329
a(igraph
Vertex
p336
(dp337
g14
F1.0
sg8
I00
sg15
g16
sg17
F-166.30147058823528
sg18
F-376.0
sg19
I3711790
sg20
S'11582.184146'
p338
sg22
F0.23161764705882354
sbasg26
I00
sg27
I00
sg28
I3711277
sg20
S'11582.4690303'
p339
sba(igraph
Edge
p340
(dp341
g7
I1
sg8
I00
sg9
I5
sg10
(lp342
(igraph
Vertex
p343
(dp344
g14
F0.2142857142857143
sg8
I00
sg15
g16
sg17
F-116.73529411764704
sg18
F110.35714285714286
sg19
I3711791
sg20
S'11582.1862519'
p345
sg22
F0.30882352941176472
sba(igraph
Vertex
p346
(dp347
g14
F0.28571428571428581
sg8
I00
sg15
g16
sg17
F-116.73529411764704
sg18
F66.142857142857082
sg19
I3711792
sg20
S'11582.1867723'
p348
sg22
F0.30882352941176472
sbasg26
I00
sg27
I00
sg28
I3711278
sg20
S'11582.4759007'
p349
sba(igraph
Edge
p350
(dp351
g7
I1
sg8
I00
sg9
I5
sg10
(lp352
g346
a(igraph
Vertex
p353
(dp354
g14
F0.35714285714285721
sg8
I01
sg15
I0
sg17
F-116.73529411764704
sg18
F21.928571428571388
sg19
I3711794
sg20
S'11582.1872973'
p355
sg22
F0.30882352941176472
sbasg26
I00
sg27
I00
sg28
I3711279
sg20
S'11582.4773456'
p356
sba(igraph
Edge
p357
(dp358
g7
I1
sg8
I00
sg9
I5
sg10
(lp359
g353
a(igraph
Vertex
p360
(dp361
g14
F0.4285714285714286
sg8
I00
sg15
g16
sg17
F-116.73529411764704
sg18
F-22.285714285714278
sg19
I3711796
sg20
S'11582.1878292'
p362
sg22
F0.30882352941176472
sbasg26
I00
sg27
I00
sg28
I3711280
sg20
S'11582.4787689'
p363
sba(igraph
Edge
p364
(dp365
g7
I1
sg8
I00
sg9
I5
sg10
(lp366
g360
a(igraph
Vertex
p367
(dp368
g14
F0.50000000000000011
sg8
I00
sg15
g16
sg17
F-116.73529411764704
sg18
F-66.500000000000057
sg19
I3711797
sg20
S'11582.1883706'
p369
sg22
F0.30882352941176472
sbasg26
I00
sg27
I00
sg28
I3711281
sg20
S'11582.4802194'
p370
sba(igraph
Edge
p371
(dp372
g7
I1
sg8
I00
sg9
I5
sg10
(lp373
g367
a(igraph
Vertex
p374
(dp375
g14
F0.5714285714285714
sg8
I00
sg15
g16
sg17
F-116.73529411764704
sg18
F-110.71428571428572
sg19
I3711798
sg20
S'11582.1889262'
p376
sg22
F0.30882352941176472
sbasg26
I00
sg27
I00
sg28
I3711282
sg20
S'11582.4818104'
p377
sba(igraph
Edge
p378
(dp379
g7
I1
sg8
I00
sg9
I5
sg10
(lp380
g374
a(igraph
Vertex
p381
(dp382
g14
F0.6428571428571429
sg8
I00
sg15
g16
sg17
F-116.73529411764704
sg18
F-154.92857142857144
sg19
I3711799
sg20
S'11582.1894822'
p383
sg22
F0.30882352941176472
sbasg26
I00
sg27
I00
sg28
I3711283
sg20
S'11582.4833368'
p384
sba(igraph
Edge
p385
(dp386
g7
I1
sg8
I00
sg9
I5
sg10
(lp387
g381
a(igraph
Vertex
p388
(dp389
g14
F0.71428571428571441
sg8
I00
sg15
g16
sg17
F-116.73529411764704
sg18
F-199.14285714285722
sg19
I3711800
sg20
S'11582.1900538'
p390
sg22
F0.30882352941176472
sbasg26
I00
sg27
I00
sg28
I3711284
sg20
S'11582.4848566'
p391
sba(igraph
Edge
p392
(dp393
g7
I1
sg8
I00
sg9
I5
sg10
(lp394
g388
a(igraph
Vertex
p395
(dp396
g14
F0.7857142857142857
sg8
I00
sg15
g16
sg17
F-116.73529411764704
sg18
F-243.35714285714283
sg19
I3711801
sg20
S'11582.1906295'
p397
sg22
F0.30882352941176472
sbasg26
I00
sg27
I00
sg28
I3711285
sg20
S'11582.4863925'
p398
sba(igraph
Edge
p399
(dp400
g7
I1
sg8
I00
sg9
I5
sg10
(lp401
g395
a(igraph
Vertex
p402
(dp403
g14
F0.85714285714285721
sg8
I00
sg15
g16
sg17
F-116.73529411764704
sg18
F-287.57142857142856
sg19
I3711802
sg20
S'11582.1912349'
p404
sg22
F0.30882352941176472
sbasg26
I00
sg27
I00
sg28
I3711286
sg20
S'11582.4879718'
p405
sba(igraph
Edge
p406
(dp407
g7
I1
sg8
I00
sg9
I5
sg10
(lp408
g402
a(igraph
Vertex
p409
(dp410
g14
F0.92857142857142871
sg8
I00
sg15
g16
sg17
F-116.73529411764704
sg18
F-331.78571428571433
sg19
I3711803
sg20
S'11582.191828'
p411
sg22
F0.30882352941176472
sbasg26
I00
sg27
I00
sg28
I3711287
sg20
S'11582.4895552'
p412
sba(igraph
Edge
p413
(dp414
g7
I1
sg8
I00
sg9
I5
sg10
(lp415
g409
a(igraph
Vertex
p416
(dp417
g14
F1.0
sg8
I00
sg15
g16
sg17
F-116.73529411764704
sg18
F-376.0
sg19
I3711804
sg20
S'11582.1924292'
p418
sg22
F0.30882352941176472
sbasg26
I00
sg27
I00
sg28
I3711288
sg20
S'11582.4911591'
p419
sba(igraph
Edge
p420
(dp421
g7
I1
sg8
I00
sg9
I5
sg10
(lp422
(igraph
Vertex
p423
(dp424
g14
F0.2142857142857143
sg8
I00
sg15
g16
sg17
F-67.169117647058812
sg18
F110.35714285714286
sg19
I3711805
sg20
S'11582.1949108'
p425
sg22
F0.3860294117647059
sba(igraph
Vertex
p426
(dp427
g14
F0.28571428571428581
sg8
I00
sg15
g16
sg17
F-67.169117647058812
sg18
F66.142857142857082
sg19
I3711806
sg20
S'11582.1955522'
p428
sg22
F0.3860294117647059
sbasg26
I00
sg27
I00
sg28
I3711289
sg20
S'11582.4995051'
p429
sba(igraph
Edge
p430
(dp431
g7
I1
sg8
I00
sg9
I5
sg10
(lp432
g426
a(igraph
Vertex
p433
(dp434
g14
F0.35714285714285721
sg8
I00
sg15
g16
sg17
F-67.169117647058812
sg18
F21.928571428571388
sg19
I3711807
sg20
S'11582.1962029'
p435
sg22
F0.3860294117647059
sbasg26
I00
sg27
I00
sg28
I3711290
sg20
S'11582.5012215'
p436
sba(igraph
Edge
p437
(dp438
g7
I1
sg8
I00
sg9
I5
sg10
(lp439
g433
a(igraph
Vertex
p440
(dp441
g14
F0.4285714285714286
sg8
I00
sg15
g16
sg17
F-67.169117647058812
sg18
F-22.285714285714278
sg19
I3711808
sg20
S'11582.1969745'
p442
sg22
F0.3860294117647059
sbasg26
I00
sg27
I00
sg28
I3711291
sg20
S'11582.5029561'
p443
sba(igraph
Edge
p444
(dp445
g7
I1
sg8
I00
sg9
I5
sg10
(lp446
g440
a(igraph
Vertex
p447
(dp448
g14
F0.50000000000000011
sg8
I01
sg15
I0
sg17
F-67.169117647058812
sg18
F-66.500000000000057
sg19
I3711810
sg20
S'11582.1976545'
p449
sg22
F0.3860294117647059
sbasg26
I00
sg27
I00
sg28
I3711292
sg20
S'11582.5047379'
p450
sba(igraph
Edge
p451
(dp452
g7
I1
sg8
I00
sg9
I5
sg10
(lp453
g447
a(igraph
Vertex
p454
(dp455
g14
F0.5714285714285714
sg8
I00
sg15
g16
sg17
F-67.169117647058812
sg18
F-110.71428571428572
sg19
I3711812
sg20
S'11582.1983375'
p456
sg22
F0.3860294117647059
sbasg26
I00
sg27
I00
sg28
I3711293
sg20
S'11582.506523'
p457
sba(igraph
Edge
p458
(dp459
g7
I1
sg8
I00
sg9
I5
sg10
(lp460
g454
a(igraph
Vertex
p461
(dp462
g14
F0.6428571428571429
sg8
I00
sg15
g16
sg17
F-67.169117647058812
sg18
F-154.92857142857144
sg19
I3711813
sg20
S'11582.1990309'
p463
sg22
F0.3860294117647059
sbasg26
I00
sg27
I00
sg28
I3711294
sg20
S'11582.5083289'
p464
sba(igraph
Edge
p465
(dp466
g7
I1
sg8
I00
sg9
I5
sg10
(lp467
g461
a(igraph
Vertex
p468
(dp469
g14
F0.71428571428571441
sg8
I00
sg15
g16
sg17
F-67.169117647058812
sg18
F-199.14285714285722
sg19
I3711814
sg20
S'11582.19975'
p470
sg22
F0.3860294117647059
sbasg26
I00
sg27
I00
sg28
I3711295
sg20
S'11582.5101559'
p471
sba(igraph
Edge
p472
(dp473
g7
I1
sg8
I00
sg9
I5
sg10
(lp474
g468
a(igraph
Vertex
p475
(dp476
g14
F0.7857142857142857
sg8
I00
sg15
g16
sg17
F-67.169117647058812
sg18
F-243.35714285714283
sg19
I3711815
sg20
S'11582.2004604'
p477
sg22
F0.3860294117647059
sbasg26
I00
sg27
I00
sg28
I3711296
sg20
S'11582.5120033'
p478
sba(igraph
Edge
p479
(dp480
g7
I1
sg8
I00
sg9
I5
sg10
(lp481
g475
a(igraph
Vertex
p482
(dp483
g14
F0.85714285714285721
sg8
I00
sg15
g16
sg17
F-67.169117647058812
sg18
F-287.57142857142856
sg19
I3711816
sg20
S'11582.2011728'
p484
sg22
F0.3860294117647059
sbasg26
I00
sg27
I00
sg28
I3711297
sg20
S'11582.5138703'
p485
sba(igraph
Edge
p486
(dp487
g7
I1
sg8
I00
sg9
I5
sg10
(lp488
g482
a(igraph
Vertex
p489
(dp490
g14
F0.92857142857142871
sg8
I00
sg15
g16
sg17
F-67.169117647058812
sg18
F-331.78571428571433
sg19
I3711817
sg20
S'11582.2018941'
p491
sg22
F0.3860294117647059
sbasg26
I00
sg27
I00
sg28
I3711298
sg20
S'11582.5157563'
p492
sba(igraph
Edge
p493
(dp494
g7
I1
sg8
I00
sg9
I5
sg10
(lp495
g489
a(igraph
Vertex
p496
(dp497
g14
F1.0
sg8
I00
sg15
g16
sg17
F-67.169117647058812
sg18
F-376.0
sg19
I3711818
sg20
S'11582.2026224'
p498
sg22
F0.3860294117647059
sbasg26
I00
sg27
I00
sg28
I3711299
sg20
S'11582.5178046'
p499
sba(igraph
Edge
p500
(dp501
g7
I1
sg8
I00
sg9
I5
sg10
(lp502
(igraph
Vertex
p503
(dp504
g14
F0.2142857142857143
sg8
I00
sg15
g16
sg17
F-17.602941176470551
sg18
F110.35714285714286
sg19
I3711819
sg20
S'11582.2056205'
p505
sg22
F0.46323529411764708
sba(igraph
Vertex
p506
(dp507
g14
F0.28571428571428581
sg8
I00
sg15
g16
sg17
F-17.602941176470551
sg18
F66.142857142857082
sg19
I3711820
sg20
S'11582.2064285'
p508
sg22
F0.46323529411764708
sbasg26
I00
sg27
I00
sg28
I3711300
sg20
S'11582.5277615'
p509
sba(igraph
Edge
p510
(dp511
g7
I1
sg8
I00
sg9
I5
sg10
(lp512
g506
a(igraph
Vertex
p513
(dp514
g14
F0.35714285714285721
sg8
I00
sg15
g16
sg17
F-17.602941176470551
sg18
F21.928571428571388
sg19
I3711821
sg20
S'11582.207209'
p515
sg22
F0.46323529411764708
sbasg26
I00
sg27
I00
sg28
I3711301
sg20
S'11582.5298243'
p516
sba(igraph
Edge
p517
(dp518
g7
I1
sg8
I00
sg9
I5
sg10
(lp519
g513
a(igraph
Vertex
p520
(dp521
g14
F0.4285714285714286
sg8
I00
sg15
g16
sg17
F-17.602941176470551
sg18
F-22.285714285714278
sg19
I3711822
sg20
S'11582.2080005'
p522
sg22
F0.46323529411764708
sbasg26
I00
sg27
I00
sg28
I3711302
sg20
S'11582.5318936'
p523
sba(igraph
Edge
p524
(dp525
g7
I1
sg8
I00
sg9
I5
sg10
(lp526
g520
a(igraph
Vertex
p527
(dp528
g14
F0.50000000000000011
sg8
I00
sg15
g16
sg17
F-17.602941176470551
sg18
F-66.500000000000057
sg19
I3711823
sg20
S'11582.2087953'
p529
sg22
F0.46323529411764708
sbasg26
I00
sg27
I00
sg28
I3711303
sg20
S'11582.5339785'
p530
sba(igraph
Edge
p531
(dp532
g7
I1
sg8
I00
sg9
I5
sg10
(lp533
g527
a(igraph
Vertex
p534
(dp535
g14
F0.5714285714285714
sg8
I00
sg15
g16
sg17
F-17.602941176470551
sg18
F-110.71428571428572
sg19
I3711824
sg20
S'11582.2096018'
p536
sg22
F0.46323529411764708
sbasg26
I00
sg27
I00
sg28
I3711304
sg20
S'11582.5360796'
p537
sba(igraph
Edge
p538
(dp539
g7
I1
sg8
I00
sg9
I5
sg10
(lp540
g534
a(igraph
Vertex
p541
(dp542
g14
F0.6428571428571429
sg8
I00
sg15
g16
sg17
F-17.602941176470551
sg18
F-154.92857142857144
sg19
I3711825
sg20
S'11582.2104145'
p543
sg22
F0.46323529411764708
sbasg26
I00
sg27
I00
sg28
I3711305
sg20
S'11582.538229'
p544
sba(igraph
Edge
p545
(dp546
g7
I1
sg8
I00
sg9
I5
sg10
(lp547
g541
a(igraph
Vertex
p548
(dp549
g14
F0.71428571428571441
sg8
I00
sg15
g16
sg17
F-17.602941176470551
sg18
F-199.14285714285722
sg19
I3711826
sg20
S'11582.2112411'
p550
sg22
F0.46323529411764708
sbasg26
I00
sg27
I00
sg28
I3711306
sg20
S'11582.5403773'
p551
sba(igraph
Edge
p552
(dp553
g7
I1
sg8
I00
sg9
I5
sg10
(lp554
g548
a(igraph
Vertex
p555
(dp556
g14
F0.7857142857142857
sg8
I00
sg15
g16
sg17
F-17.602941176470551
sg18
F-243.35714285714283
sg19
I3711827
sg20
S'11582.2120683'
p557
sg22
F0.46323529411764708
sbasg26
I00
sg27
I00
sg28
I3711307
sg20
S'11582.5425553'
p558
sba(igraph
Edge
p559
(dp560
g7
I1
sg8
I00
sg9
I5
sg10
(lp561
g555
a(igraph
Vertex
p562
(dp563
g14
F0.85714285714285721
sg8
I00
sg15
g16
sg17
F-17.602941176470551
sg18
F-287.57142857142856
sg19
I3711828
sg20
S'11582.212903'
p564
sg22
F0.46323529411764708
sbasg26
I00
sg27
I00
sg28
I3711308
sg20
S'11582.5447924'
p565
sba(igraph
Edge
p566
(dp567
g7
I1
sg8
I00
sg9
I5
sg10
(lp568
g562
a(igraph
Vertex
p569
(dp570
g14
F0.92857142857142871
sg8
I00
sg15
g16
sg17
F-17.602941176470551
sg18
F-331.78571428571433
sg19
I3711829
sg20
S'11582.2137512'
p571
sg22
F0.46323529411764708
sbasg26
I00
sg27
I00
sg28
I3711309
sg20
S'11582.5470779'
p572
sba(igraph
Edge
p573
(dp574
g7
I1
sg8
I00
sg9
I5
sg10
(lp575
g569
a(igraph
Vertex
p576
(dp577
g14
F1.0
sg8
I00
sg15
g16
sg17
F-17.602941176470551
sg18
F-376.0
sg19
I3711830
sg20
S'11582.2146069'
p578
sg22
F0.46323529411764708
sbasg26
I00
sg27
I00
sg28
I3711310
sg20
S'11582.5494358'
p579
sba(igraph
Edge
p580
(dp581
g7
I1
sg8
I00
sg9
I5
sg10
(lp582
(igraph
Vertex
p583
(dp584
g14
F0.2142857142857143
sg8
I00
sg15
g16
sg17
F31.963235294117624
sg18
F110.35714285714286
sg19
I3711831
sg20
S'11582.2181713'
p585
sg22
F0.5404411764705882
sba(igraph
Vertex
p586
(dp587
g14
F0.28571428571428581
sg8
I00
sg15
g16
sg17
F31.963235294117624
sg18
F66.142857142857082
sg19
I3711832
sg20
S'11582.2190723'
p588
sg22
F0.5404411764705882
sbasg26
I00
sg27
I00
sg28
I3711311
sg20
S'11582.5611666'
p589
sba(igraph
Edge
p590
(dp591
g7
I1
sg8
I00
sg9
I5
sg10
(lp592
g586
a(igraph
Vertex
p593
(dp594
g14
F0.35714285714285721
sg8
I00
sg15
g16
sg17
F31.963235294117624
sg18
F21.928571428571388
sg19
I3711833
sg20
S'11582.2199816'
p595
sg22
F0.5404411764705882
sbasg26
I00
sg27
I00
sg28
I3711312
sg20
S'11582.5635845'
p596
sba(igraph
Edge
p597
(dp598
g7
I1
sg8
I00
sg9
I5
sg10
(lp599
g593
a(igraph
Vertex
p600
(dp601
g14
F0.4285714285714286
sg8
I00
sg15
g16
sg17
F31.963235294117624
sg18
F-22.285714285714278
sg19
I3711834
sg20
S'11582.2208993'
p602
sg22
F0.5404411764705882
sbasg26
I00
sg27
I00
sg28
I3711313
sg20
S'11582.5660046'
p603
sba(igraph
Edge
p604
(dp605
g7
I1
sg8
I00
sg9
I5
sg10
(lp606
g600
a(igraph
Vertex
p607
(dp608
g14
F0.50000000000000011
sg8
I00
sg15
g16
sg17
F31.963235294117624
sg18
F-66.500000000000057
sg19
I3711835
sg20
S'11582.2218313'
p609
sg22
F0.5404411764705882
sbasg26
I00
sg27
I00
sg28
I3711314
sg20
S'11582.5684066'
p610
sba(igraph
Edge
p611
(dp612
g7
I1
sg8
I00
sg9
I5
sg10
(lp613
g607
a(igraph
Vertex
p614
(dp615
g14
F0.5714285714285714
sg8
I01
sg15
I0
sg17
F31.963235294117624
sg18
F-110.71428571428572
sg19
I3711837
sg20
S'11582.2227621'
p616
sg22
F0.5404411764705882
sbasg26
I00
sg27
I00
sg28
I3711315
sg20
S'11582.570865'
p617
sba(igraph
Edge
p618
(dp619
g7
I1
sg8
I00
sg9
I5
sg10
(lp620
g614
a(igraph
Vertex
p621
(dp622
g14
F0.6428571428571429
sg8
I00
sg15
g16
sg17
F31.963235294117624
sg18
F-154.92857142857144
sg19
I3711839
sg20
S'11582.2237092'
p623
sg22
F0.5404411764705882
sbasg26
I00
sg27
I00
sg28
I3711316
sg20
S'11582.5733095'
p624
sba(igraph
Edge
p625
(dp626
g7
I1
sg8
I00
sg9
I5
sg10
(lp627
g621
a(igraph
Vertex
p628
(dp629
g14
F0.71428571428571441
sg8
I00
sg15
g16
sg17
F31.963235294117624
sg18
F-199.14285714285722
sg19
I3711840
sg20
S'11582.224666'
p630
sg22
F0.5404411764705882
sbasg26
I00
sg27
I00
sg28
I3711317
sg20
S'11582.5757737'
p631
sba(igraph
Edge
p632
(dp633
g7
I1
sg8
I00
sg9
I5
sg10
(lp634
g628
a(igraph
Vertex
p635
(dp636
g14
F0.7857142857142857
sg8
I00
sg15
g16
sg17
F31.963235294117624
sg18
F-243.35714285714283
sg19
I3711841
sg20
S'11582.2256309'
p637
sg22
F0.5404411764705882
sbasg26
I00
sg27
I00
sg28
I3711318
sg20
S'11582.5782581'
p638
sba(igraph
Edge
p639
(dp640
g7
I1
sg8
I00
sg9
I5
sg10
(lp641
g635
a(igraph
Vertex
p642
(dp643
g14
F0.85714285714285721
sg8
I00
sg15
g16
sg17
F31.963235294117624
sg18
F-287.57142857142856
sg19
I3711842
sg20
S'11582.2266079'
p644
sg22
F0.5404411764705882
sbasg26
I00
sg27
I00
sg28
I3711319
sg20
S'11582.5807693'
p645
sba(igraph
Edge
p646
(dp647
g7
I1
sg8
I00
sg9
I5
sg10
(lp648
g642
a(igraph
Vertex
p649
(dp650
g14
F0.92857142857142871
sg8
I00
sg15
g16
sg17
F31.963235294117624
sg18
F-331.78571428571433
sg19
I3711843
sg20
S'11582.2275867'
p651
sg22
F0.5404411764705882
sbasg26
I00
sg27
I00
sg28
I3711320
sg20
S'11582.5833311'
p652
sba(igraph
Edge
p653
(dp654
g7
I1
sg8
I00
sg9
I5
sg10
(lp655
g649
a(igraph
Vertex
p656
(dp657
g14
F1.0
sg8
I00
sg15
g16
sg17
F31.963235294117624
sg18
F-376.0
sg19
I3711844
sg20
S'11582.2285763'
p658
sg22
F0.5404411764705882
sbasg26
I00
sg27
I00
sg28
I3711321
sg20
S'11582.5859985'
p659
sba(igraph
Edge
p660
(dp661
g7
I1
sg8
I00
sg9
I5
sg10
(lp662
(igraph
Vertex
p663
(dp664
g14
F0.2142857142857143
sg8
I00
sg15
g16
sg17
F81.529411764705912
sg18
F110.35714285714286
sg19
I3711845
sg20
S'11582.2326089'
p665
sg22
F0.61764705882352944
sba(igraph
Vertex
p666
(dp667
g14
F0.28571428571428581
sg8
I00
sg15
g16
sg17
F81.529411764705912
sg18
F66.142857142857082
sg19
I3711846
sg20
S'11582.2336381'
p668
sg22
F0.61764705882352944
sbasg26
I00
sg27
I00
sg28
I3711322
sg20
S'11582.5993189'
p669
sba(igraph
Edge
p670
(dp671
g7
I1
sg8
I00
sg9
I5
sg10
(lp672
g666
a(igraph
Vertex
p673
(dp674
g14
F0.35714285714285721
sg8
I00
sg15
g16
sg17
F81.529411764705912
sg18
F21.928571428571388
sg19
I3711847
sg20
S'11582.2346703'
p675
sg22
F0.61764705882352944
sbasg26
I00
sg27
I00
sg28
I3711323
sg20
S'11582.6020315'
p676
sba(igraph
Edge
p677
(dp678
g7
I1
sg8
I00
sg9
I5
sg10
(lp679
g673
a(igraph
Vertex
p680
(dp681
g14
F0.4285714285714286
sg8
I00
sg15
g16
sg17
F81.529411764705912
sg18
F-22.285714285714278
sg19
I3711848
sg20
S'11582.2357166'
p682
sg22
F0.61764705882352944
sbasg26
I00
sg27
I00
sg28
I3711324
sg20
S'11582.604733'
p683
sba(igraph
Edge
p684
(dp685
g7
I1
sg8
I00
sg9
I5
sg10
(lp686
g680
a(igraph
Vertex
p687
(dp688
g14
F0.50000000000000011
sg8
I00
sg15
g16
sg17
F81.529411764705912
sg18
F-66.500000000000057
sg19
I3711849
sg20
S'11582.2367728'
p689
sg22
F0.61764705882352944
sbasg26
I00
sg27
I00
sg28
I3711325
sg20
S'11582.6075269'
p690
sba(igraph
Edge
p691
(dp692
g7
I1
sg8
I00
sg9
I5
sg10
(lp693
g687
a(igraph
Vertex
p694
(dp695
g14
F0.5714285714285714
sg8
I00
sg15
g16
sg17
F81.529411764705912
sg18
F-110.71428571428572
sg19
I3711850
sg20
S'11582.2378311'
p696
sg22
F0.61764705882352944
sbasg26
I00
sg27
I00
sg28
I3711326
sg20
S'11582.6103644'
p697
sba(igraph
Edge
p698
(dp699
g7
I1
sg8
I00
sg9
I5
sg10
(lp700
g694
a(igraph
Vertex
p701
(dp702
g14
F0.6428571428571429
sg8
I00
sg15
g16
sg17
F81.529411764705912
sg18
F-154.92857142857144
sg19
I3711851
sg20
S'11582.2389485'
p703
sg22
F0.61764705882352944
sbasg26
I00
sg27
I00
sg28
I3711327
sg20
S'11582.6131662'
p704
sba(igraph
Edge
p705
(dp706
g7
I1
sg8
I00
sg9
I5
sg10
(lp707
g701
a(igraph
Vertex
p708
(dp709
g14
F0.71428571428571441
sg8
I01
sg15
I0
sg17
F81.529411764705912
sg18
F-199.14285714285722
sg19
I3711853
sg20
S'11582.2400375'
p710
sg22
F0.61764705882352944
sbasg26
I00
sg27
I00
sg28
I3711328
sg20
S'11582.6160858'
p711
sba(igraph
Edge
p712
(dp713
g7
I1
sg8
I00
sg9
I5
sg10
(lp714
g708
a(igraph
Vertex
p715
(dp716
g14
F0.7857142857142857
sg8
I00
sg15
g16
sg17
F81.529411764705912
sg18
F-243.35714285714283
sg19
I3711855
sg20
S'11582.2411318'
p717
sg22
F0.61764705882352944
sbasg26
I00
sg27
I00
sg28
I3711329
sg20
S'11582.6189549'
p718
sba(igraph
Edge
p719
(dp720
g7
I1
sg8
I00
sg9
I5
sg10
(lp721
g715
a(igraph
Vertex
p722
(dp723
g14
F0.85714285714285721
sg8
I00
sg15
g16
sg17
F81.529411764705912
sg18
F-287.57142857142856
sg19
I3711856
sg20
S'11582.2422353'
p724
sg22
F0.61764705882352944
sbasg26
I00
sg27
I00
sg28
I3711330
sg20
S'11582.6234016'
p725
sba(igraph
Edge
p726
(dp727
g7
I1
sg8
I00
sg9
I5
sg10
(lp728
g722
a(igraph
Vertex
p729
(dp730
g14
F0.92857142857142871
sg8
I00
sg15
g16
sg17
F81.529411764705912
sg18
F-331.78571428571433
sg19
I3711857
sg20
S'11582.243348'
p731
sg22
F0.61764705882352944
sbasg26
I00
sg27
I00
sg28
I3711331
sg20
S'11582.6263726'
p732
sba(igraph
Edge
p733
(dp734
g7
I1
sg8
I00
sg9
I5
sg10
(lp735
g729
a(igraph
Vertex
p736
(dp737
g14
F1.0
sg8
I00
sg15
g16
sg17
F81.529411764705912
sg18
F-376.0
sg19
I3711858
sg20
S'11582.2444707'
p738
sg22
F0.61764705882352944
sbasg26
I00
sg27
I00
sg28
I3711332
sg20
S'11582.6292973'
p739
sba(igraph
Edge
p740
(dp741
g7
I1
sg8
I00
sg9
I5
sg10
(lp742
(igraph
Vertex
p743
(dp744
g14
F0.2142857142857143
sg8
I00
sg15
g16
sg17
F131.09558823529409
sg18
F110.35714285714286
sg19
I3711859
sg20
S'11582.2520005'
p745
sg22
F0.69485294117647056
sba(igraph
Vertex
p746
(dp747
g14
F0.28571428571428581
sg8
I00
sg15
g16
sg17
F131.09558823529409
sg18
F66.142857142857082
sg19
I3711860
sg20
S'11582.2543977'
p748
sg22
F0.69485294117647056
sbasg26
I00
sg27
I00
sg28
I3711333
sg20
S'11582.6441386'
p749
sba(igraph
Edge
p750
(dp751
g7
I1
sg8
I00
sg9
I5
sg10
(lp752
g746
a(igraph
Vertex
p753
(dp754
g14
F0.35714285714285721
sg8
I00
sg15
g16
sg17
F131.09558823529409
sg18
F21.928571428571388
sg19
I3711861
sg20
S'11582.2568019'
p755
sg22
F0.69485294117647056
sbasg26
I00
sg27
I00
sg28
I3711334
sg20
S'11582.6472652'
p756
sba(igraph
Edge
p757
(dp758
g7
I1
sg8
I00
sg9
I5
sg10
(lp759
g753
a(igraph
Vertex
p760
(dp761
g14
F0.4285714285714286
sg8
I00
sg15
g16
sg17
F131.09558823529409
sg18
F-22.285714285714278
sg19
I3711862
sg20
S'11582.2593617'
p762
sg22
F0.69485294117647056
sbasg26
I00
sg27
I00
sg28
I3711335
sg20
S'11582.6504162'
p763
sba(igraph
Edge
p764
(dp765
g7
I1
sg8
I00
sg9
I5
sg10
(lp766
g760
a(igraph
Vertex
p767
(dp768
g14
F0.50000000000000011
sg8
I00
sg15
g16
sg17
F131.09558823529409
sg18
F-66.500000000000057
sg19
I3711863
sg20
S'11582.2617855'
p769
sg22
F0.69485294117647056
sbasg26
I00
sg27
I00
sg28
I3711336
sg20
S'11582.6534291'
p770
sba(igraph
Edge
p771
(dp772
g7
I1
sg8
I00
sg9
I5
sg10
(lp773
g767
a(igraph
Vertex
p774
(dp775
g14
F0.5714285714285714
sg8
I00
sg15
g16
sg17
F131.09558823529409
sg18
F-110.71428571428572
sg19
I3711864
sg20
S'11582.2642168'
p776
sg22
F0.69485294117647056
sbasg26
I00
sg27
I00
sg28
I3711337
sg20
S'11582.6565407'
p777
sba(igraph
Edge
p778
(dp779
g7
I1
sg8
I00
sg9
I5
sg10
(lp780
g774
a(igraph
Vertex
p781
(dp782
g14
F0.6428571428571429
sg8
I00
sg15
g16
sg17
F131.09558823529409
sg18
F-154.92857142857144
sg19
I3711865
sg20
S'11582.2667481'
p783
sg22
F0.69485294117647056
sbasg26
I00
sg27
I00
sg28
I3711338
sg20
S'11582.6596146'
p784
sba(igraph
Edge
p785
(dp786
g7
I1
sg8
I00
sg9
I5
sg10
(lp787
g781
a(igraph
Vertex
p788
(dp789
g14
F0.71428571428571441
sg8
I00
sg15
g16
sg17
F131.09558823529409
sg18
F-199.14285714285722
sg19
I3711866
sg20
S'11582.2694301'
p790
sg22
F0.69485294117647056
sbasg26
I00
sg27
I00
sg28
I3711339
sg20
S'11582.6627365'
p791
sba(igraph
Edge
p792
(dp793
g7
I1
sg8
I00
sg9
I5
sg10
(lp794
g788
a(igraph
Vertex
p795
(dp796
g14
F0.7857142857142857
sg8
I00
sg15
g16
sg17
F131.09558823529409
sg18
F-243.35714285714283
sg19
I3711867
sg20
S'11582.2719209'
p797
sg22
F0.69485294117647056
sbasg26
I00
sg27
I00
sg28
I3711340
sg20
S'11582.6665928'
p798
sba(igraph
Edge
p799
(dp800
g7
I1
sg8
I00
sg9
I5
sg10
(lp801
g795
a(igraph
Vertex
p802
(dp803
g14
F0.85714285714285721
sg8
I00
sg15
g16
sg17
F131.09558823529409
sg18
F-287.57142857142856
sg19
I3711868
sg20
S'11582.2744441'
p804
sg22
F0.69485294117647056
sbasg26
I00
sg27
I00
sg28
I3711341
sg20
S'11582.6698284'
p805
sba(igraph
Edge
p806
(dp807
g7
I1
sg8
I00
sg9
I5
sg10
(lp808
g802
a(igraph
Vertex
p809
(dp810
g14
F0.92857142857142871
sg8
I00
sg15
g16
sg17
F131.09558823529409
sg18
F-331.78571428571433
sg19
I3711869
sg20
S'11582.2769765'
p811
sg22
F0.69485294117647056
sbasg26
I00
sg27
I00
sg28
I3711342
sg20
S'11582.6730244'
p812
sba(igraph
Edge
p813
(dp814
g7
I1
sg8
I00
sg9
I5
sg10
(lp815
g809
a(igraph
Vertex
p816
(dp817
g14
F1.0
sg8
I00
sg15
g16
sg17
F131.09558823529409
sg18
F-376.0
sg19
I3711870
sg20
S'11582.279514'
p818
sg22
F0.69485294117647056
sbasg26
I00
sg27
I00
sg28
I3711343
sg20
S'11582.6762343'
p819
sba(igraph
Edge
p820
(dp821
g7
I1
sg8
I00
sg9
I5
sg10
(lp822
(igraph
Vertex
p823
(dp824
g14
F0.2142857142857143
sg8
I00
sg15
g16
sg17
F180.66176470588238
sg18
F110.35714285714286
sg19
I3711871
sg20
S'11582.2903933'
p825
sg22
F0.7720588235294118
sba(igraph
Vertex
p826
(dp827
g14
F0.28571428571428581
sg8
I00
sg15
g16
sg17
F180.66176470588238
sg18
F66.142857142857082
sg19
I3711872
sg20
S'11582.2930361'
p828
sg22
F0.7720588235294118
sbasg26
I00
sg27
I00
sg28
I3711344
sg20
S'11582.6930607'
p829
sba(igraph
Edge
p830
(dp831
g7
I1
sg8
I00
sg9
I5
sg10
(lp832
g826
a(igraph
Vertex
p833
(dp834
g14
F0.35714285714285721
sg8
I00
sg15
g16
sg17
F180.66176470588238
sg18
F21.928571428571388
sg19
I3711873
sg20
S'11582.2959044'
p835
sg22
F0.7720588235294118
sbasg26
I00
sg27
I00
sg28
I3711345
sg20
S'11582.6963757'
p836
sba(igraph
Edge
p837
(dp838
g7
I1
sg8
I00
sg9
I5
sg10
(lp839
g833
a(igraph
Vertex
p840
(dp841
g14
F0.4285714285714286
sg8
I00
sg15
g16
sg17
F180.66176470588238
sg18
F-22.285714285714278
sg19
I3711874
sg20
S'11582.2985807'
p842
sg22
F0.7720588235294118
sbasg26
I00
sg27
I00
sg28
I3711346
sg20
S'11582.6997389'
p843
sba(igraph
Edge
p844
(dp845
g7
I1
sg8
I00
sg9
I5
sg10
(lp846
g840
a(igraph
Vertex
p847
(dp848
g14
F0.50000000000000011
sg8
I00
sg15
g16
sg17
F180.66176470588238
sg18
F-66.500000000000057
sg19
I3711875
sg20
S'11582.3012819'
p849
sg22
F0.7720588235294118
sbasg26
I00
sg27
I00
sg28
I3711347
sg20
S'11582.7031058'
p850
sba(igraph
Edge
p851
(dp852
g7
I1
sg8
I00
sg9
I5
sg10
(lp853
g847
a(igraph
Vertex
p854
(dp855
g14
F0.5714285714285714
sg8
I00
sg15
g16
sg17
F180.66176470588238
sg18
F-110.71428571428572
sg19
I3711876
sg20
S'11582.3039942'
p856
sg22
F0.7720588235294118
sbasg26
I00
sg27
I00
sg28
I3711348
sg20
S'11582.7065406'
p857
sba(igraph
Edge
p858
(dp859
g7
I1
sg8
I00
sg9
I5
sg10
(lp860
g854
a(igraph
Vertex
p861
(dp862
g14
F0.6428571428571429
sg8
I00
sg15
g16
sg17
F180.66176470588238
sg18
F-154.92857142857144
sg19
I3711877
sg20
S'11582.30673'
p863
sg22
F0.7720588235294118
sbasg26
I00
sg27
I00
sg28
I3711349
sg20
S'11582.7100204'
p864
sba(igraph
Edge
p865
(dp866
g7
I1
sg8
I00
sg9
I5
sg10
(lp867
g861
a(igraph
Vertex
p868
(dp869
g14
F0.71428571428571441
sg8
I00
sg15
g16
sg17
F180.66176470588238
sg18
F-199.14285714285722
sg19
I3711878
sg20
S'11582.3095966'
p870
sg22
F0.7720588235294118
sbasg26
I00
sg27
I00
sg28
I3711350
sg20
S'11582.7134949'
p871
sba(igraph
Edge
p872
(dp873
g7
I1
sg8
I00
sg9
I5
sg10
(lp874
g868
a(igraph
Vertex
p875
(dp876
g14
F0.7857142857142857
sg8
I01
sg15
I0
sg17
F180.66176470588238
sg18
F-243.35714285714283
sg19
I3711880
sg20
S'11582.3124481'
p877
sg22
F0.7720588235294118
sbasg26
I00
sg27
I00
sg28
I3711351
sg20
S'11582.7170344'
p878
sba(igraph
Edge
p879
(dp880
g7
I1
sg8
I00
sg9
I5
sg10
(lp881
g875
a(igraph
Vertex
p882
(dp883
g14
F0.85714285714285721
sg8
I00
sg15
g16
sg17
F180.66176470588238
sg18
F-287.57142857142856
sg19
I3711882
sg20
S'11582.3152423'
p884
sg22
F0.7720588235294118
sbasg26
I00
sg27
I00
sg28
I3711352
sg20
S'11582.7205595'
p885
sba(igraph
Edge
p886
(dp887
g7
I1
sg8
I00
sg9
I5
sg10
(lp888
g882
a(igraph
Vertex
p889
(dp890
g14
F0.92857142857142871
sg8
I00
sg15
g16
sg17
F180.66176470588238
sg18
F-331.78571428571433
sg19
I3711883
sg20
S'11582.3180454'
p891
sg22
F0.7720588235294118
sbasg26
I00
sg27
I00
sg28
I3711353
sg20
S'11582.7241018'
p892
sba(igraph
Edge
p893
(dp894
g7
I1
sg8
I00
sg9
I5
sg10
(lp895
g889
a(igraph
Vertex
p896
(dp897
g14
F1.0
sg8
I00
sg15
g16
sg17
F180.66176470588238
sg18
F-376.0
sg19
I3711884
sg20
S'11582.3208791'
p898
sg22
F0.7720588235294118
sbasg26
I00
sg27
I00
sg28
I3711354
sg20
S'11582.727664'
p899
sba(igraph
Edge
p900
(dp901
g7
I1
sg8
I00
sg9
I5
sg10
(lp902
(igraph
Vertex
p903
(dp904
g14
F0.2142857142857143
sg8
I00
sg15
g16
sg17
F230.22794117647061
sg18
F110.35714285714286
sg19
I3711885
sg20
S'11582.3324853'
p905
sg22
F0.84926470588235292
sba(igraph
Vertex
p906
(dp907
g14
F0.28571428571428581
sg8
I00
sg15
g16
sg17
F230.22794117647061
sg18
F66.142857142857082
sg19
I3711886
sg20
S'11582.3355438'
p908
sg22
F0.84926470588235292
sbasg26
I00
sg27
I00
sg28
I3711355
sg20
S'11582.7460755'
p909
sba(igraph
Edge
p910
(dp911
g7
I1
sg8
I00
sg9
I5
sg10
(lp912
g906
a(igraph
Vertex
p913
(dp914
g14
F0.35714285714285721
sg8
I00
sg15
g16
sg17
F230.22794117647061
sg18
F21.928571428571388
sg19
I3711887
sg20
S'11582.3384994'
p915
sg22
F0.84926470588235292
sbasg26
I00
sg27
I00
sg28
I3711356
sg20
S'11582.7498632'
p916
sba(igraph
Edge
p917
(dp918
g7
I1
sg8
I00
sg9
I5
sg10
(lp919
g913
a(igraph
Vertex
p920
(dp921
g14
F0.4285714285714286
sg8
I00
sg15
g16
sg17
F230.22794117647061
sg18
F-22.285714285714278
sg19
I3711888
sg20
S'11582.341511'
p922
sg22
F0.84926470588235292
sbasg26
I00
sg27
I00
sg28
I3711357
sg20
S'11582.7536589'
p923
sba(igraph
Edge
p924
(dp925
g7
I1
sg8
I00
sg9
I5
sg10
(lp926
g920
a(igraph
Vertex
p927
(dp928
g14
F0.50000000000000011
sg8
I00
sg15
g16
sg17
F230.22794117647061
sg18
F-66.500000000000057
sg19
I3711889
sg20
S'11582.3448611'
p929
sg22
F0.84926470588235292
sbasg26
I00
sg27
I00
sg28
I3711358
sg20
S'11582.7574197'
p930
sba(igraph
Edge
p931
(dp932
g7
I1
sg8
I00
sg9
I5
sg10
(lp933
g927
a(igraph
Vertex
p934
(dp935
g14
F0.5714285714285714
sg8
I00
sg15
g16
sg17
F230.22794117647061
sg18
F-110.71428571428572
sg19
I3711890
sg20
S'11582.3478783'
p936
sg22
F0.84926470588235292
sbasg26
I00
sg27
I00
sg28
I3711359
sg20
S'11582.7611655'
p937
sba(igraph
Edge
p938
(dp939
g7
I1
sg8
I00
sg9
I5
sg10
(lp940
g934
a(igraph
Vertex
p941
(dp942
g14
F0.6428571428571429
sg8
I00
sg15
g16
sg17
F230.22794117647061
sg18
F-154.92857142857144
sg19
I3711891
sg20
S'11582.3508918'
p943
sg22
F0.84926470588235292
sbasg26
I00
sg27
I00
sg28
I3711360
sg20
S'11582.7649098'
p944
sba(igraph
Edge
p945
(dp946
g7
I1
sg8
I00
sg9
I5
sg10
(lp947
g941
a(igraph
Vertex
p948
(dp949
g14
F0.71428571428571441
sg8
I00
sg15
g16
sg17
F230.22794117647061
sg18
F-199.14285714285722
sg19
I3711892
sg20
S'11582.3539282'
p950
sg22
F0.84926470588235292
sbasg26
I00
sg27
I00
sg28
I3711361
sg20
S'11582.768729'
p951
sba(igraph
Edge
p952
(dp953
g7
I1
sg8
I00
sg9
I5
sg10
(lp954
g948
a(igraph
Vertex
p955
(dp956
g14
F0.7857142857142857
sg8
I00
sg15
g16
sg17
F230.22794117647061
sg18
F-243.35714285714283
sg19
I3711893
sg20
S'11582.3569808'
p957
sg22
F0.84926470588235292
sbasg26
I00
sg27
I00
sg28
I3711362
sg20
S'11582.7726566'
p958
sba(igraph
Edge
p959
(dp960
g7
I1
sg8
I00
sg9
I5
sg10
(lp961
g955
a(igraph
Vertex
p962
(dp963
g14
F0.85714285714285721
sg8
I00
sg15
g16
sg17
F230.22794117647061
sg18
F-287.57142857142856
sg19
I3711894
sg20
S'11582.3600486'
p964
sg22
F0.84926470588235292
sbasg26
I00
sg27
I00
sg28
I3711363
sg20
S'11582.7765691'
p965
sba(igraph
Edge
p966
(dp967
g7
I1
sg8
I00
sg9
I5
sg10
(lp968
g962
a(igraph
Vertex
p969
(dp970
g14
F0.92857142857142871
sg8
I01
sg15
I0
sg17
F230.22794117647061
sg18
F-331.78571428571433
sg19
I3711896
sg20
S'11582.3632171'
p971
sg22
F0.84926470588235292
sbasg26
I00
sg27
I00
sg28
I3711364
sg20
S'11582.7804601'
p972
sba(igraph
Edge
p973
(dp974
g7
I1
sg8
I00
sg9
I5
sg10
(lp975
g969
a(igraph
Vertex
p976
(dp977
g14
F1.0
sg8
I00
sg15
g16
sg17
F230.22794117647061
sg18
F-376.0
sg19
I3711898
sg20
S'11582.3664008'
p978
sg22
F0.84926470588235292
sbasg26
I00
sg27
I00
sg28
I3711365
sg20
S'11582.7842751'
p979
sba(igraph
Edge
p980
(dp981
g7
I1
sg8
I00
sg9
I5
sg10
(lp982
(igraph
Vertex
p983
(dp984
g14
F0.2142857142857143
sg8
I00
sg15
g16
sg17
F279.7941176470589
sg18
F110.35714285714286
sg19
I3711899
sg20
S'11582.3792535'
p985
sg22
F0.92647058823529416
sba(igraph
Vertex
p986
(dp987
g14
F0.28571428571428581
sg8
I00
sg15
g16
sg17
F279.7941176470589
sg18
F66.142857142857082
sg19
I3711900
sg20
S'11582.3824603'
p988
sg22
F0.92647058823529416
sbasg26
I00
sg27
I00
sg28
I3711366
sg20
S'11582.8039416'
p989
sba(igraph
Edge
p990
(dp991
g7
I1
sg8
I00
sg9
I5
sg10
(lp992
g986
a(igraph
Vertex
p993
(dp994
g14
F0.35714285714285721
sg8
I00
sg15
g16
sg17
F279.7941176470589
sg18
F21.928571428571388
sg19
I3711901
sg20
S'11582.3858868'
p995
sg22
F0.92647058823529416
sbasg26
I00
sg27
I00
sg28
I3711367
sg20
S'11582.80787'
p996
sba(igraph
Edge
p997
(dp998
g7
I1
sg8
I00
sg9
I5
sg10
(lp999
g993
a(igraph
Vertex
p1000
(dp1001
g14
F0.4285714285714286
sg8
I00
sg15
g16
sg17
F279.7941176470589
sg18
F-22.285714285714278
sg19
I3711902
sg20
S'11582.3882178'
p1002
sg22
F0.92647058823529416
sbasg26
I00
sg27
I00
sg28
I3711368
sg20
S'11582.8118747'
p1003
sba(igraph
Edge
p1004
(dp1005
g7
I1
sg8
I00
sg9
I5
sg10
(lp1006
g1000
a(igraph
Vertex
p1007
(dp1008
g14
F0.50000000000000011
sg8
I00
sg15
g16
sg17
F279.7941176470589
sg18
F-66.500000000000057
sg19
I3711903
sg20
S'11582.3898211'
p1009
sg22
F0.92647058823529416
sbasg26
I00
sg27
I00
sg28
I3711369
sg20
S'11582.8158556'
p1010
sba(igraph
Edge
p1011
(dp1012
g7
I1
sg8
I00
sg9
I5
sg10
(lp1013
g1007
a(igraph
Vertex
p1014
(dp1015
g14
F0.5714285714285714
sg8
I00
sg15
g16
sg17
F279.7941176470589
sg18
F-110.71428571428572
sg19
I3711904
sg20
S'11582.3914841'
p1016
sg22
F0.92647058823529416
sbasg26
I00
sg27
I00
sg28
I3711370
sg20
S'11582.8198578'
p1017
sba(igraph
Edge
p1018
(dp1019
g7
I1
sg8
I00
sg9
I5
sg10
(lp1020
g1014
a(igraph
Vertex
p1021
(dp1022
g14
F0.6428571428571429
sg8
I00
sg15
g16
sg17
F279.7941176470589
sg18
F-154.92857142857144
sg19
I3711905
sg20
S'11582.3931201'
p1023
sg22
F0.92647058823529416
sbasg26
I00
sg27
I00
sg28
I3711371
sg20
S'11582.8239265'
p1024
sba(igraph
Edge
p1025
(dp1026
g7
I1
sg8
I00
sg9
I5
sg10
(lp1027
g1021
a(igraph
Vertex
p1028
(dp1029
g14
F0.71428571428571441
sg8
I00
sg15
g16
sg17
F279.7941176470589
sg18
F-199.14285714285722
sg19
I3711906
sg20
S'11582.3947474'
p1030
sg22
F0.92647058823529416
sbasg26
I00
sg27
I00
sg28
I3711372
sg20
S'11582.8281388'
p1031
sba(igraph
Edge
p1032
(dp1033
g7
I1
sg8
I00
sg9
I5
sg10
(lp1034
g1028
a(igraph
Vertex
p1035
(dp1036
g14
F0.7857142857142857
sg8
I00
sg15
g16
sg17
F279.7941176470589
sg18
F-243.35714285714283
sg19
I3711907
sg20
S'11582.3964557'
p1037
sg22
F0.92647058823529416
sbasg26
I00
sg27
I00
sg28
I3711373
sg20
S'11582.8323337'
p1038
sba(igraph
Edge
p1039
(dp1040
g7
I1
sg8
I00
sg9
I5
sg10
(lp1041
g1035
a(igraph
Vertex
p1042
(dp1043
g14
F0.85714285714285721
sg8
I01
sg15
I0
sg17
F279.7941176470589
sg18
F-287.57142857142856
sg19
I3711909
sg20
S'11582.3981134'
p1044
sg22
F0.92647058823529416
sbasg26
I00
sg27
I00
sg28
I3711374
sg20
S'11582.836537'
p1045
sba(igraph
Edge
p1046
(dp1047
g7
I1
sg8
I00
sg9
I5
sg10
(lp1048
g1042
a(igraph
Vertex
p1049
(dp1050
g14
F0.92857142857142871
sg8
I00
sg15
g16
sg17
F279.7941176470589
sg18
F-331.78571428571433
sg19
I3711911
sg20
S'11582.3997759'
p1051
sg22
F0.92647058823529416
sbasg26
I00
sg27
I00
sg28
I3711375
sg20
S'11582.840701'
p1052
sba(igraph
Edge
p1053
(dp1054
g7
I1
sg8
I00
sg9
I5
sg10
(lp1055
g1049
a(igraph
Vertex
p1056
(dp1057
g14
F1.0
sg8
I00
sg15
g16
sg17
F279.7941176470589
sg18
F-376.0
sg19
I3711912
sg20
S'11582.4014496'
p1058
sg22
F0.92647058823529416
sbasg26
I00
sg27
I00
sg28
I3711376
sg20
S'11582.8452882'
p1059
sba(igraph
Edge
p1060
(dp1061
g7
I1
sg8
I00
sg9
I5
sg10
(lp1062
(igraph
Vertex
p1063
(dp1064
g14
F0.2142857142857143
sg8
I00
sg15
g16
sg17
F329.36029411764707
sg18
F110.35714285714286
sg19
I3711913
sg20
S'11582.4086799'
p1065
sg22
F1.0036764705882353
sba(igraph
Vertex
p1066
(dp1067
g14
F0.28571428571428581
sg8
I00
sg15
g16
sg17
F329.36029411764707
sg18
F66.142857142857082
sg19
I3711914
sg20
S'11582.4103949'
p1068
sg22
F1.0036764705882353
sbasg26
I00
sg27
I00
sg28
I3711377
sg20
S'11582.8666344'
p1069
sba(igraph
Edge
p1070
(dp1071
g7
I1
sg8
I00
sg9
I5
sg10
(lp1072
g1066
a(igraph
Vertex
p1073
(dp1074
g14
F0.35714285714285721
sg8
I00
sg15
g16
sg17
F329.36029411764707
sg18
F21.928571428571388
sg19
I3711915
sg20
S'11582.412118'
p1075
sg22
F1.0036764705882353
sbasg26
I00
sg27
I00
sg28
I3711378
sg20
S'11582.8710224'
p1076
sba(igraph
Edge
p1077
(dp1078
g7
I1
sg8
I00
sg9
I5
sg10
(lp1079
g1073
a(igraph
Vertex
p1080
(dp1081
g14
F0.4285714285714286
sg8
I00
sg15
g16
sg17
F329.36029411764707
sg18
F-22.285714285714278
sg19
I3711916
sg20
S'11582.4138409'
p1082
sg22
F1.0036764705882353
sbasg26
I00
sg27
I00
sg28
I3711379
sg20
S'11582.8754046'
p1083
sba(igraph
Edge
p1084
(dp1085
g7
I1
sg8
I00
sg9
I5
sg10
(lp1086
g1080
a(igraph
Vertex
p1087
(dp1088
g14
F0.50000000000000011
sg8
I00
sg15
g16
sg17
F329.36029411764707
sg18
F-66.500000000000057
sg19
I3711917
sg20
S'11582.4155796'
p1089
sg22
F1.0036764705882353
sbasg26
I00
sg27
I00
sg28
I3711380
sg20
S'11582.8797582'
p1090
sba(igraph
Edge
p1091
(dp1092
g7
I1
sg8
I00
sg9
I5
sg10
(lp1093
g1087
a(igraph
Vertex
p1094
(dp1095
g14
F0.5714285714285714
sg8
I00
sg15
g16
sg17
F329.36029411764707
sg18
F-110.71428571428572
sg19
I3711918
sg20
S'11582.4173282'
p1096
sg22
F1.0036764705882353
sbasg26
I00
sg27
I00
sg28
I3711381
sg20
S'11582.8840719'
p1097
sba(igraph
Edge
p1098
(dp1099
g7
I1
sg8
I00
sg9
I5
sg10
(lp1100
g1094
a(igraph
Vertex
p1101
(dp1102
g14
F0.6428571428571429
sg8
I00
sg15
g16
sg17
F329.36029411764707
sg18
F-154.92857142857144
sg19
I3711919
sg20
S'11582.4190776'
p1103
sg22
F1.0036764705882353
sbasg26
I00
sg27
I00
sg28
I3711382
sg20
S'11582.8884151'
p1104
sba(igraph
Edge
p1105
(dp1106
g7
I1
sg8
I00
sg9
I5
sg10
(lp1107
g1101
a(igraph
Vertex
p1108
(dp1109
g14
F0.71428571428571441
sg8
I00
sg15
g16
sg17
F329.36029411764707
sg18
F-199.14285714285722
sg19
I3711920
sg20
S'11582.4208409'
p1110
sg22
F1.0036764705882353
sbasg26
I00
sg27
I00
sg28
I3711383
sg20
S'11582.8927772'
p1111
sba(igraph
Edge
p1112
(dp1113
g7
I1
sg8
I00
sg9
I5
sg10
(lp1114
g1108
a(igraph
Vertex
p1115
(dp1116
g14
F0.7857142857142857
sg8
I00
sg15
g16
sg17
F329.36029411764707
sg18
F-243.35714285714283
sg19
I3711921
sg20
S'11582.4226509'
p1117
sg22
F1.0036764705882353
sbasg26
I00
sg27
I00
sg28
I3711384
sg20
S'11582.8972886'
p1118
sba(igraph
Edge
p1119
(dp1120
g7
I1
sg8
I00
sg9
I5
sg10
(lp1121
g1115
a(igraph
Vertex
p1122
(dp1123
g14
F0.85714285714285721
sg8
I00
sg15
g16
sg17
F329.36029411764707
sg18
F-287.57142857142856
sg19
I3711922
sg20
S'11582.4244453'
p1124
sg22
F1.0036764705882353
sbasg26
I00
sg27
I00
sg28
I3711385
sg20
S'11582.9016869'
p1125
sba(igraph
Edge
p1126
(dp1127
g7
I1
sg8
I00
sg9
I5
sg10
(lp1128
g1122
a(igraph
Vertex
p1129
(dp1130
g14
F0.92857142857142871
sg8
I00
sg15
g16
sg17
F329.36029411764707
sg18
F-331.78571428571433
sg19
I3711923
sg20
S'11582.426317'
p1131
sg22
F1.0036764705882353
sbasg26
I00
sg27
I00
sg28
I3711386
sg20
S'11582.9061392'
p1132
sba(igraph
Edge
p1133
(dp1134
g7
I1
sg8
I00
sg9
I5
sg10
(lp1135
g1129
a(igraph
Vertex
p1136
(dp1137
g14
F1.0
sg8
I01
sg15
I0
sg17
F329.36029411764707
sg18
F-376.0
sg19
I3711925
sg20
S'11582.428129'
p1138
sg22
F1.0036764705882353
sbasg26
I00
sg27
I00
sg28
I3711387
sg20
S'11582.9105828'
p1139
sba(igraph
Edge
p1140
(dp1141
g7
I1
sg8
I00
sg9
I5
sg10
(lp1142
g12
ag106
asg26
I00
sg27
I00
sg28
I3711388
sg20
S'11582.9332792'
p1143
sba(igraph
Edge
p1144
(dp1145
g7
I1
sg8
I00
sg9
I5
sg10
(lp1146
g23
ag106
asg26
I00
sg27
I00
sg28
I3711389
sg20
S'11582.9382033'
p1147
sba(igraph
Edge
p1148
(dp1149
g7
I1
sg8
I00
sg9
I5
sg10
(lp1150
g33
ag120
asg26
I00
sg27
I00
sg28
I3711390
sg20
S'11582.9428033'
p1151
sba(igraph
Edge
p1152
(dp1153
g7
I1
sg8
I00
sg9
I5
sg10
(lp1154
g40
ag120
asg26
I00
sg27
I00
sg28
I3711391
sg20
S'11582.9474148'
p1155
sba(igraph
Edge
p1156
(dp1157
g7
I1
sg8
I00
sg9
I5
sg10
(lp1158
g47
ag134
asg26
I00
sg27
I00
sg28
I3711392
sg20
S'11582.9521297'
p1159
sba(igraph
Edge
p1160
(dp1161
g7
I1
sg8
I00
sg9
I5
sg10
(lp1162
g54
ag134
asg26
I00
sg27
I00
sg28
I3711393
sg20
S'11582.956787'
p1163
sba(igraph
Edge
p1164
(dp1165
g7
I1
sg8
I00
sg9
I5
sg10
(lp1166
g61
ag148
asg26
I00
sg27
I00
sg28
I3711394
sg20
S'11582.9615753'
p1167
sba(igraph
Edge
p1168
(dp1169
g7
I1
sg8
I00
sg9
I5
sg10
(lp1170
g68
ag148
asg26
I00
sg27
I00
sg28
I3711395
sg20
S'11582.9666181'
p1171
sba(igraph
Edge
p1172
(dp1173
g7
I1
sg8
I00
sg9
I5
sg10
(lp1174
g75
ag162
asg26
I00
sg27
I00
sg28
I3711396
sg20
S'11582.9714656'
p1175
sba(igraph
Edge
p1176
(dp1177
g7
I1
sg8
I00
sg9
I5
sg10
(lp1178
g82
ag162
asg26
I00
sg27
I00
sg28
I3711397
sg20
S'11582.9764085'
p1179
sba(igraph
Edge
p1180
(dp1181
g7
I1
sg8
I00
sg9
I5
sg10
(lp1182
g89
ag176
asg26
I00
sg27
I00
sg28
I3711398
sg20
S'11582.9812627'
p1183
sba(igraph
Edge
p1184
(dp1185
g7
I1
sg8
I00
sg9
I5
sg10
(lp1186
g96
ag176
asg26
I00
sg27
I00
sg28
I3711399
sg20
S'11582.9861021'
p1187
sba(igraph
Edge
p1188
(dp1189
g7
I1
sg8
I00
sg9
I5
sg10
(lp1190
g12
ag103
asg26
I00
sg27
I00
sg28
I3711400
sg20
S'11583.0058052'
p1191
sba(igraph
Edge
p1192
(dp1193
g7
I1
sg8
I00
sg9
I5
sg10
(lp1194
g23
ag113
asg26
I00
sg27
I00
sg28
I3711401
sg20
S'11583.010836'
p1195
sba(igraph
Edge
p1196
(dp1197
g7
I1
sg8
I00
sg9
I5
sg10
(lp1198
g33
ag113
asg26
I00
sg27
I00
sg28
I3711402
sg20
S'11583.0157889'
p1199
sba(igraph
Edge
p1200
(dp1201
g7
I1
sg8
I00
sg9
I5
sg10
(lp1202
g40
ag127
asg26
I00
sg27
I00
sg28
I3711403
sg20
S'11583.0208353'
p1203
sba(igraph
Edge
p1204
(dp1205
g7
I1
sg8
I00
sg9
I5
sg10
(lp1206
g47
ag127
asg26
I00
sg27
I00
sg28
I3711404
sg20
S'11583.0259418'
p1207
sba(igraph
Edge
p1208
(dp1209
g7
I1
sg8
I00
sg9
I5
sg10
(lp1210
g54
ag141
asg26
I00
sg27
I00
sg28
I3711405
sg20
S'11583.0310151'
p1211
sba(igraph
Edge
p1212
(dp1213
g7
I1
sg8
I00
sg9
I5
sg10
(lp1214
g61
ag141
asg26
I00
sg27
I00
sg28
I3711406
sg20
S'11583.036282'
p1215
sba(igraph
Edge
p1216
(dp1217
g7
I1
sg8
I00
sg9
I5
sg10
(lp1218
g68
ag155
asg26
I00
sg27
I00
sg28
I3711407
sg20
S'11583.0413969'
p1219
sba(igraph
Edge
p1220
(dp1221
g7
I1
sg8
I00
sg9
I5
sg10
(lp1222
g75
ag155
asg26
I00
sg27
I00
sg28
I3711408
sg20
S'11583.0465467'
p1223
sba(igraph
Edge
p1224
(dp1225
g7
I1
sg8
I00
sg9
I5
sg10
(lp1226
g82
ag169
asg26
I00
sg27
I00
sg28
I3711409
sg20
S'11583.0516912'
p1227
sba(igraph
Edge
p1228
(dp1229
g7
I1
sg8
I00
sg9
I5
sg10
(lp1230
g89
ag169
asg26
I00
sg27
I00
sg28
I3711410
sg20
S'11583.0583099'
p1231
sba(igraph
Edge
p1232
(dp1233
g7
I1
sg8
I00
sg9
I5
sg10
(lp1234
g23
ag1066
asg26
I00
sg27
I00
sg28
I3711411
sg20
S'11583.0941025'
p1235
sba(igraph
Edge
p1236
(dp1237
g7
I1
sg8
I00
sg9
I5
sg10
(lp1238
g33
ag1066
asg26
I00
sg27
I00
sg28
I3711412
sg20
S'11583.099954'
p1239
sba(igraph
Edge
p1240
(dp1241
g7
I1
sg8
I00
sg9
I5
sg10
(lp1242
g40
ag1080
asg26
I00
sg27
I00
sg28
I3711413
sg20
S'11583.1062026'
p1243
sba(igraph
Edge
p1244
(dp1245
g7
I1
sg8
I00
sg9
I5
sg10
(lp1246
g47
ag1080
asg26
I00
sg27
I00
sg28
I3711414
sg20
S'11583.1122757'
p1247
sba(igraph
Edge
p1248
(dp1249
g7
I1
sg8
I00
sg9
I5
sg10
(lp1250
g54
ag1094
asg26
I00
sg27
I00
sg28
I3711415
sg20
S'11583.1186939'
p1251
sba(igraph
Edge
p1252
(dp1253
g7
I1
sg8
I00
sg9
I5
sg10
(lp1254
g61
ag1094
asg26
I00
sg27
I00
sg28
I3711416
sg20
S'11583.126168'
p1255
sba(igraph
Edge
p1256
(dp1257
g7
I1
sg8
I00
sg9
I5
sg10
(lp1258
g68
ag1108
asg26
I00
sg27
I00
sg28
I3711417
sg20
S'11583.1319109'
p1259
sba(igraph
Edge
p1260
(dp1261
g7
I1
sg8
I00
sg9
I5
sg10
(lp1262
g75
ag1108
asg26
I00
sg27
I00
sg28
I3711418
sg20
S'11583.1375225'
p1263
sba(igraph
Edge
p1264
(dp1265
g7
I1
sg8
I00
sg9
I5
sg10
(lp1266
g82
ag1122
asg26
I00
sg27
I00
sg28
I3711419
sg20
S'11583.1499724'
p1267
sba(igraph
Edge
p1268
(dp1269
g7
I1
sg8
I00
sg9
I5
sg10
(lp1270
g89
ag1122
asg26
I00
sg27
I00
sg28
I3711420
sg20
S'11583.1556539'
p1271
sba(igraph
Edge
p1272
(dp1273
g7
I1
sg8
I00
sg9
I5
sg10
(lp1274
g96
ag1136
asg26
I00
sg27
I00
sg28
I3711421
sg20
S'11583.1619653'
p1275
sba(igraph
Edge
p1276
(dp1277
g7
I1
sg8
I00
sg9
I5
sg10
(lp1278
g12
ag1063
asg26
I00
sg27
I00
sg28
I3711422
sg20
S'11583.1898395'
p1279
sba(igraph
Edge
p1280
(dp1281
g7
I1
sg8
I00
sg9
I5
sg10
(lp1282
g23
ag1063
asg26
I00
sg27
I00
sg28
I3711423
sg20
S'11583.1971915'
p1283
sba(igraph
Edge
p1284
(dp1285
g7
I1
sg8
I00
sg9
I5
sg10
(lp1286
g33
ag1073
asg26
I00
sg27
I00
sg28
I3711424
sg20
S'11583.2042849'
p1287
sba(igraph
Edge
p1288
(dp1289
g7
I1
sg8
I00
sg9
I5
sg10
(lp1290
g40
ag1073
asg26
I00
sg27
I00
sg28
I3711425
sg20
S'11583.2114045'
p1291
sba(igraph
Edge
p1292
(dp1293
g7
I1
sg8
I00
sg9
I5
sg10
(lp1294
g47
ag1087
asg26
I00
sg27
I00
sg28
I3711426
sg20
S'11583.2182247'
p1295
sba(igraph
Edge
p1296
(dp1297
g7
I1
sg8
I00
sg9
I5
sg10
(lp1298
g54
ag1087
asg26
I00
sg27
I00
sg28
I3711427
sg20
S'11583.2250107'
p1299
sba(igraph
Edge
p1300
(dp1301
g7
I1
sg8
I00
sg9
I5
sg10
(lp1302
g61
ag1101
asg26
I00
sg27
I00
sg28
I3711428
sg20
S'11583.2316032'
p1303
sba(igraph
Edge
p1304
(dp1305
g7
I1
sg8
I00
sg9
I5
sg10
(lp1306
g68
ag1101
asg26
I00
sg27
I00
sg28
I3711429
sg20
S'11583.2379492'
p1307
sba(igraph
Edge
p1308
(dp1309
g7
I1
sg8
I00
sg9
I5
sg10
(lp1310
g75
ag1115
asg26
I00
sg27
I00
sg28
I3711430
sg20
S'11583.2441442'
p1311
sba(igraph
Edge
p1312
(dp1313
g7
I1
sg8
I00
sg9
I5
sg10
(lp1314
g82
ag1115
asg26
I00
sg27
I00
sg28
I3711431
sg20
S'11583.2504008'
p1315
sba(igraph
Edge
p1316
(dp1317
g7
I1
sg8
I00
sg9
I5
sg10
(lp1318
g89
ag1129
asg26
I00
sg27
I00
sg28
I3711432
sg20
S'11583.2571989'
p1319
sba(igraph
Edge
p1320
(dp1321
g7
I1
sg8
I00
sg9
I5
sg10
(lp1322
g96
ag1129
asg26
I00
sg27
I00
sg28
I3711433
sg20
S'11583.2634204'
p1323
sba(igraph
Edge
p1324
(dp1325
g7
I1
sg8
I00
sg9
I5
sg10
(lp1326
g103
ag186
asg26
I00
sg27
I00
sg28
I3711434
sg20
S'11583.2920352'
p1327
sba(igraph
Edge
p1328
(dp1329
g7
I1
sg8
I00
sg9
I5
sg10
(lp1330
g106
ag186
asg26
I00
sg27
I00
sg28
I3711435
sg20
S'11583.2995244'
p1331
sba(igraph
Edge
p1332
(dp1333
g7
I1
sg8
I00
sg9
I5
sg10
(lp1334
g113
ag200
asg26
I00
sg27
I00
sg28
I3711436
sg20
S'11583.3068549'
p1335
sba(igraph
Edge
p1336
(dp1337
g7
I1
sg8
I00
sg9
I5
sg10
(lp1338
g120
ag200
asg26
I00
sg27
I00
sg28
I3711437
sg20
S'11583.314407'
p1339
sba(igraph
Edge
p1340
(dp1341
g7
I1
sg8
I00
sg9
I5
sg10
(lp1342
g127
ag214
asg26
I00
sg27
I00
sg28
I3711438
sg20
S'11583.3215691'
p1343
sba(igraph
Edge
p1344
(dp1345
g7
I1
sg8
I00
sg9
I5
sg10
(lp1346
g134
ag214
asg26
I00
sg27
I00
sg28
I3711439
sg20
S'11583.3289262'
p1347
sba(igraph
Edge
p1348
(dp1349
g7
I1
sg8
I00
sg9
I5
sg10
(lp1350
g141
ag228
asg26
I00
sg27
I00
sg28
I3711440
sg20
S'11583.3360287'
p1351
sba(igraph
Edge
p1352
(dp1353
g7
I1
sg8
I00
sg9
I5
sg10
(lp1354
g148
ag228
asg26
I00
sg27
I00
sg28
I3711441
sg20
S'11583.343216'
p1355
sba(igraph
Edge
p1356
(dp1357
g7
I1
sg8
I00
sg9
I5
sg10
(lp1358
g155
ag242
asg26
I00
sg27
I00
sg28
I3711442
sg20
S'11583.350368'
p1359
sba(igraph
Edge
p1360
(dp1361
g7
I1
sg8
I00
sg9
I5
sg10
(lp1362
g162
ag242
asg26
I00
sg27
I00
sg28
I3711443
sg20
S'11583.3578248'
p1363
sba(igraph
Edge
p1364
(dp1365
g7
I1
sg8
I00
sg9
I5
sg10
(lp1366
g169
ag256
asg26
I00
sg27
I00
sg28
I3711444
sg20
S'11583.3647883'
p1367
sba(igraph
Edge
p1368
(dp1369
g7
I1
sg8
I00
sg9
I5
sg10
(lp1370
g176
ag256
asg26
I00
sg27
I00
sg28
I3711445
sg20
S'11583.3716319'
p1371
sba(igraph
Edge
p1372
(dp1373
g7
I1
sg8
I00
sg9
I5
sg10
(lp1374
g103
ag183
asg26
I00
sg27
I00
sg28
I3711446
sg20
S'11583.3987074'
p1375
sba(igraph
Edge
p1376
(dp1377
g7
I1
sg8
I00
sg9
I5
sg10
(lp1378
g106
ag193
asg26
I00
sg27
I00
sg28
I3711447
sg20
S'11583.4059482'
p1379
sba(igraph
Edge
p1380
(dp1381
g7
I1
sg8
I00
sg9
I5
sg10
(lp1382
g113
ag193
asg26
I00
sg27
I00
sg28
I3711448
sg20
S'11583.4125988'
p1383
sba(igraph
Edge
p1384
(dp1385
g7
I1
sg8
I00
sg9
I5
sg10
(lp1386
g120
ag207
asg26
I00
sg27
I00
sg28
I3711449
sg20
S'11583.419641'
p1387
sba(igraph
Edge
p1388
(dp1389
g7
I1
sg8
I00
sg9
I5
sg10
(lp1390
g127
ag207
asg26
I00
sg27
I00
sg28
I3711450
sg20
S'11583.4268962'
p1391
sba(igraph
Edge
p1392
(dp1393
g7
I1
sg8
I00
sg9
I5
sg10
(lp1394
g134
ag221
asg26
I00
sg27
I00
sg28
I3711451
sg20
S'11583.4340443'
p1395
sba(igraph
Edge
p1396
(dp1397
g7
I1
sg8
I00
sg9
I5
sg10
(lp1398
g141
ag221
asg26
I00
sg27
I00
sg28
I3711452
sg20
S'11583.4408088'
p1399
sba(igraph
Edge
p1400
(dp1401
g7
I1
sg8
I00
sg9
I5
sg10
(lp1402
g148
ag235
asg26
I00
sg27
I00
sg28
I3711453
sg20
S'11583.4474049'
p1403
sba(igraph
Edge
p1404
(dp1405
g7
I1
sg8
I00
sg9
I5
sg10
(lp1406
g155
ag235
asg26
I00
sg27
I00
sg28
I3711454
sg20
S'11583.4558853'
p1407
sba(igraph
Edge
p1408
(dp1409
g7
I1
sg8
I00
sg9
I5
sg10
(lp1410
g162
ag249
asg26
I00
sg27
I00
sg28
I3711455
sg20
S'11583.4634173'
p1411
sba(igraph
Edge
p1412
(dp1413
g7
I1
sg8
I00
sg9
I5
sg10
(lp1414
g169
ag249
asg26
I00
sg27
I00
sg28
I3711456
sg20
S'11583.4713174'
p1415
sba(igraph
Edge
p1416
(dp1417
g7
I1
sg8
I00
sg9
I5
sg10
(lp1418
g183
ag266
asg26
I00
sg27
I00
sg28
I3711457
sg20
S'11583.5093122'
p1419
sba(igraph
Edge
p1420
(dp1421
g7
I1
sg8
I00
sg9
I5
sg10
(lp1422
g186
ag266
asg26
I00
sg27
I00
sg28
I3711458
sg20
S'11583.5169531'
p1423
sba(igraph
Edge
p1424
(dp1425
g7
I1
sg8
I00
sg9
I5
sg10
(lp1426
g193
ag280
asg26
I00
sg27
I00
sg28
I3711459
sg20
S'11583.5240694'
p1427
sba(igraph
Edge
p1428
(dp1429
g7
I1
sg8
I00
sg9
I5
sg10
(lp1430
g200
ag280
asg26
I00
sg27
I00
sg28
I3711460
sg20
S'11583.5317835'
p1431
sba(igraph
Edge
p1432
(dp1433
g7
I1
sg8
I00
sg9
I5
sg10
(lp1434
g207
ag294
asg26
I00
sg27
I00
sg28
I3711461
sg20
S'11583.5393496'
p1435
sba(igraph
Edge
p1436
(dp1437
g7
I1
sg8
I00
sg9
I5
sg10
(lp1438
g214
ag294
asg26
I00
sg27
I00
sg28
I3711462
sg20
S'11583.5463558'
p1439
sba(igraph
Edge
p1440
(dp1441
g7
I1
sg8
I00
sg9
I5
sg10
(lp1442
g221
ag308
asg26
I00
sg27
I00
sg28
I3711463
sg20
S'11583.5539698'
p1443
sba(igraph
Edge
p1444
(dp1445
g7
I1
sg8
I00
sg9
I5
sg10
(lp1446
g228
ag308
asg26
I00
sg27
I00
sg28
I3711464
sg20
S'11583.5612666'
p1447
sba(igraph
Edge
p1448
(dp1449
g7
I1
sg8
I00
sg9
I5
sg10
(lp1450
g235
ag322
asg26
I00
sg27
I00
sg28
I3711465
sg20
S'11583.5692564'
p1451
sba(igraph
Edge
p1452
(dp1453
g7
I1
sg8
I00
sg9
I5
sg10
(lp1454
g242
ag322
asg26
I00
sg27
I00
sg28
I3711466
sg20
S'11583.5763193'
p1455
sba(igraph
Edge
p1456
(dp1457
g7
I1
sg8
I00
sg9
I5
sg10
(lp1458
g249
ag336
asg26
I00
sg27
I00
sg28
I3711467
sg20
S'11583.5847958'
p1459
sba(igraph
Edge
p1460
(dp1461
g7
I1
sg8
I00
sg9
I5
sg10
(lp1462
g256
ag336
asg26
I00
sg27
I00
sg28
I3711468
sg20
S'11583.5941766'
p1463
sba(igraph
Edge
p1464
(dp1465
g7
I1
sg8
I00
sg9
I5
sg10
(lp1466
g183
ag263
asg26
I00
sg27
I00
sg28
I3711469
sg20
S'11583.6314238'
p1467
sba(igraph
Edge
p1468
(dp1469
g7
I1
sg8
I00
sg9
I5
sg10
(lp1470
g186
ag273
asg26
I00
sg27
I00
sg28
I3711470
sg20
S'11583.6398397'
p1471
sba(igraph
Edge
p1472
(dp1473
g7
I1
sg8
I00
sg9
I5
sg10
(lp1474
g193
ag273
asg26
I00
sg27
I00
sg28
I3711471
sg20
S'11583.6484514'
p1475
sba(igraph
Edge
p1476
(dp1477
g7
I1
sg8
I00
sg9
I5
sg10
(lp1478
g200
ag287
asg26
I00
sg27
I00
sg28
I3711472
sg20
S'11583.6569676'
p1479
sba(igraph
Edge
p1480
(dp1481
g7
I1
sg8
I00
sg9
I5
sg10
(lp1482
g207
ag287
asg26
I00
sg27
I00
sg28
I3711473
sg20
S'11583.6653337'
p1483
sba(igraph
Edge
p1484
(dp1485
g7
I1
sg8
I00
sg9
I5
sg10
(lp1486
g214
ag301
asg26
I00
sg27
I00
sg28
I3711474
sg20
S'11583.6728774'
p1487
sba(igraph
Edge
p1488
(dp1489
g7
I1
sg8
I00
sg9
I5
sg10
(lp1490
g221
ag301
asg26
I00
sg27
I00
sg28
I3711475
sg20
S'11583.6803873'
p1491
sba(igraph
Edge
p1492
(dp1493
g7
I1
sg8
I00
sg9
I5
sg10
(lp1494
g228
ag315
asg26
I00
sg27
I00
sg28
I3711476
sg20
S'11583.6882243'
p1495
sba(igraph
Edge
p1496
(dp1497
g7
I1
sg8
I00
sg9
I5
sg10
(lp1498
g235
ag315
asg26
I00
sg27
I00
sg28
I3711477
sg20
S'11583.6955161'
p1499
sba(igraph
Edge
p1500
(dp1501
g7
I1
sg8
I00
sg9
I5
sg10
(lp1502
g242
ag329
asg26
I00
sg27
I00
sg28
I3711478
sg20
S'11583.7025764'
p1503
sba(igraph
Edge
p1504
(dp1505
g7
I1
sg8
I00
sg9
I5
sg10
(lp1506
g249
ag329
asg26
I00
sg27
I00
sg28
I3711479
sg20
S'11583.7096977'
p1507
sba(igraph
Edge
p1508
(dp1509
g7
I1
sg8
I00
sg9
I5
sg10
(lp1510
g263
ag346
asg26
I00
sg27
I00
sg28
I3711480
sg20
S'11583.7457241'
p1511
sba(igraph
Edge
p1512
(dp1513
g7
I1
sg8
I00
sg9
I5
sg10
(lp1514
g266
ag346
asg26
I00
sg27
I00
sg28
I3711481
sg20
S'11583.7529214'
p1515
sba(igraph
Edge
p1516
(dp1517
g7
I1
sg8
I00
sg9
I5
sg10
(lp1518
g273
ag360
asg26
I00
sg27
I00
sg28
I3711482
sg20
S'11583.760072'
p1519
sba(igraph
Edge
p1520
(dp1521
g7
I1
sg8
I00
sg9
I5
sg10
(lp1522
g280
ag360
asg26
I00
sg27
I00
sg28
I3711483
sg20
S'11583.7672282'
p1523
sba(igraph
Edge
p1524
(dp1525
g7
I1
sg8
I00
sg9
I5
sg10
(lp1526
g287
ag374
asg26
I00
sg27
I00
sg28
I3711484
sg20
S'11583.7747256'
p1527
sba(igraph
Edge
p1528
(dp1529
g7
I1
sg8
I00
sg9
I5
sg10
(lp1530
g294
ag374
asg26
I00
sg27
I00
sg28
I3711485
sg20
S'11583.7820787'
p1531
sba(igraph
Edge
p1532
(dp1533
g7
I1
sg8
I00
sg9
I5
sg10
(lp1534
g301
ag388
asg26
I00
sg27
I00
sg28
I3711486
sg20
S'11583.7893333'
p1535
sba(igraph
Edge
p1536
(dp1537
g7
I1
sg8
I00
sg9
I5
sg10
(lp1538
g308
ag388
asg26
I00
sg27
I00
sg28
I3711487
sg20
S'11583.7966856'
p1539
sba(igraph
Edge
p1540
(dp1541
g7
I1
sg8
I00
sg9
I5
sg10
(lp1542
g315
ag402
asg26
I00
sg27
I00
sg28
I3711488
sg20
S'11583.8042704'
p1543
sba(igraph
Edge
p1544
(dp1545
g7
I1
sg8
I00
sg9
I5
sg10
(lp1546
g322
ag402
asg26
I00
sg27
I00
sg28
I3711489
sg20
S'11583.8116302'
p1547
sba(igraph
Edge
p1548
(dp1549
g7
I1
sg8
I00
sg9
I5
sg10
(lp1550
g329
ag416
asg26
I00
sg27
I00
sg28
I3711490
sg20
S'11583.8190725'
p1551
sba(igraph
Edge
p1552
(dp1553
g7
I1
sg8
I00
sg9
I5
sg10
(lp1554
g336
ag416
asg26
I00
sg27
I00
sg28
I3711491
sg20
S'11583.8265578'
p1555
sba(igraph
Edge
p1556
(dp1557
g7
I1
sg8
I00
sg9
I5
sg10
(lp1558
g263
ag343
asg26
I00
sg27
I00
sg28
I3711492
sg20
S'11583.856353'
p1559
sba(igraph
Edge
p1560
(dp1561
g7
I1
sg8
I00
sg9
I5
sg10
(lp1562
g266
ag353
asg26
I00
sg27
I00
sg28
I3711493
sg20
S'11583.8639361'
p1563
sba(igraph
Edge
p1564
(dp1565
g7
I1
sg8
I00
sg9
I5
sg10
(lp1566
g273
ag353
asg26
I00
sg27
I00
sg28
I3711494
sg20
S'11583.8715837'
p1567
sba(igraph
Edge
p1568
(dp1569
g7
I1
sg8
I00
sg9
I5
sg10
(lp1570
g280
ag367
asg26
I00
sg27
I00
sg28
I3711495
sg20
S'11583.8792168'
p1571
sba(igraph
Edge
p1572
(dp1573
g7
I1
sg8
I00
sg9
I5
sg10
(lp1574
g287
ag367
asg26
I00
sg27
I00
sg28
I3711496
sg20
S'11583.8868306'
p1575
sba(igraph
Edge
p1576
(dp1577
g7
I1
sg8
I00
sg9
I5
sg10
(lp1578
g294
ag381
asg26
I00
sg27
I00
sg28
I3711497
sg20
S'11583.8945774'
p1579
sba(igraph
Edge
p1580
(dp1581
g7
I1
sg8
I00
sg9
I5
sg10
(lp1582
g301
ag381
asg26
I00
sg27
I00
sg28
I3711498
sg20
S'11583.9022476'
p1583
sba(igraph
Edge
p1584
(dp1585
g7
I1
sg8
I00
sg9
I5
sg10
(lp1586
g308
ag395
asg26
I00
sg27
I00
sg28
I3711499
sg20
S'11583.9098606'
p1587
sba(igraph
Edge
p1588
(dp1589
g7
I1
sg8
I00
sg9
I5
sg10
(lp1590
g315
ag395
asg26
I00
sg27
I00
sg28
I3711500
sg20
S'11583.9175239'
p1591
sba(igraph
Edge
p1592
(dp1593
g7
I1
sg8
I00
sg9
I5
sg10
(lp1594
g322
ag409
asg26
I00
sg27
I00
sg28
I3711501
sg20
S'11583.9253548'
p1595
sba(igraph
Edge
p1596
(dp1597
g7
I1
sg8
I00
sg9
I5
sg10
(lp1598
g329
ag409
asg26
I00
sg27
I00
sg28
I3711502
sg20
S'11583.9334175'
p1599
sba(igraph
Edge
p1600
(dp1601
g7
I1
sg8
I00
sg9
I5
sg10
(lp1602
g343
ag426
asg26
I00
sg27
I00
sg28
I3711503
sg20
S'11583.9725432'
p1603
sba(igraph
Edge
p1604
(dp1605
g7
I1
sg8
I00
sg9
I5
sg10
(lp1606
g346
ag426
asg26
I00
sg27
I00
sg28
I3711504
sg20
S'11583.980257'
p1607
sba(igraph
Edge
p1608
(dp1609
g7
I1
sg8
I00
sg9
I5
sg10
(lp1610
g353
ag440
asg26
I00
sg27
I00
sg28
I3711505
sg20
S'11583.9880591'
p1611
sba(igraph
Edge
p1612
(dp1613
g7
I1
sg8
I00
sg9
I5
sg10
(lp1614
g360
ag440
asg26
I00
sg27
I00
sg28
I3711506
sg20
S'11583.995954'
p1615
sba(igraph
Edge
p1616
(dp1617
g7
I1
sg8
I00
sg9
I5
sg10
(lp1618
g367
ag454
asg26
I00
sg27
I00
sg28
I3711507
sg20
S'11584.003741'
p1619
sba(igraph
Edge
p1620
(dp1621
g7
I1
sg8
I00
sg9
I5
sg10
(lp1622
g374
ag454
asg26
I00
sg27
I00
sg28
I3711508
sg20
S'11584.0116895'
p1623
sba(igraph
Edge
p1624
(dp1625
g7
I1
sg8
I00
sg9
I5
sg10
(lp1626
g381
ag468
asg26
I00
sg27
I00
sg28
I3711509
sg20
S'11584.0197707'
p1627
sba(igraph
Edge
p1628
(dp1629
g7
I1
sg8
I00
sg9
I5
sg10
(lp1630
g388
ag468
asg26
I00
sg27
I00
sg28
I3711510
sg20
S'11584.0278915'
p1631
sba(igraph
Edge
p1632
(dp1633
g7
I1
sg8
I00
sg9
I5
sg10
(lp1634
g395
ag482
asg26
I00
sg27
I00
sg28
I3711511
sg20
S'11584.035949'
p1635
sba(igraph
Edge
p1636
(dp1637
g7
I1
sg8
I00
sg9
I5
sg10
(lp1638
g402
ag482
asg26
I00
sg27
I00
sg28
I3711512
sg20
S'11584.0438704'
p1639
sba(igraph
Edge
p1640
(dp1641
g7
I1
sg8
I00
sg9
I5
sg10
(lp1642
g409
ag496
asg26
I00
sg27
I00
sg28
I3711513
sg20
S'11584.0518736'
p1643
sba(igraph
Edge
p1644
(dp1645
g7
I1
sg8
I00
sg9
I5
sg10
(lp1646
g416
ag496
asg26
I00
sg27
I00
sg28
I3711514
sg20
S'11584.0598082'
p1647
sba(igraph
Edge
p1648
(dp1649
g7
I1
sg8
I00
sg9
I5
sg10
(lp1650
g343
ag423
asg26
I00
sg27
I00
sg28
I3711515
sg20
S'11584.0942966'
p1651
sba(igraph
Edge
p1652
(dp1653
g7
I1
sg8
I00
sg9
I5
sg10
(lp1654
g346
ag433
asg26
I00
sg27
I00
sg28
I3711516
sg20
S'11584.1026136'
p1655
sba(igraph
Edge
p1656
(dp1657
g7
I1
sg8
I00
sg9
I5
sg10
(lp1658
g353
ag433
asg26
I00
sg27
I00
sg28
I3711517
sg20
S'11584.1107487'
p1659
sba(igraph
Edge
p1660
(dp1661
g7
I1
sg8
I00
sg9
I5
sg10
(lp1662
g360
ag447
asg26
I00
sg27
I00
sg28
I3711518
sg20
S'11584.1189783'
p1663
sba(igraph
Edge
p1664
(dp1665
g7
I1
sg8
I01
sg9
I5
sg10
(lp1666
g367
ag447
asg26
I00
sg27
I00
sg28
I3711520
sg20
S'11584.1285384'
p1667
sba(igraph
Edge
p1668
(dp1669
g7
I1
sg8
I00
sg9
I5
sg10
(lp1670
g374
ag461
asg26
I00
sg27
I00
sg28
I3711521
sg20
S'11584.1369347'
p1671
sba(igraph
Edge
p1672
(dp1673
g7
I1
sg8
I00
sg9
I5
sg10
(lp1674
g381
ag461
asg26
I00
sg27
I00
sg28
I3711522
sg20
S'11584.1453587'
p1675
sba(igraph
Edge
p1676
(dp1677
g7
I1
sg8
I00
sg9
I5
sg10
(lp1678
g388
ag475
asg26
I00
sg27
I00
sg28
I3711523
sg20
S'11584.1538696'
p1679
sba(igraph
Edge
p1680
(dp1681
g7
I1
sg8
I00
sg9
I5
sg10
(lp1682
g395
ag475
asg26
I00
sg27
I00
sg28
I3711524
sg20
S'11584.1621209'
p1683
sba(igraph
Edge
p1684
(dp1685
g7
I1
sg8
I00
sg9
I5
sg10
(lp1686
g402
ag489
asg26
I00
sg27
I00
sg28
I3711525
sg20
S'11584.170437'
p1687
sba(igraph
Edge
p1688
(dp1689
g7
I1
sg8
I00
sg9
I5
sg10
(lp1690
g409
ag489
asg26
I00
sg27
I00
sg28
I3711526
sg20
S'11584.178709'
p1691
sba(igraph
Edge
p1692
(dp1693
g7
I1
sg8
I00
sg9
I5
sg10
(lp1694
g423
ag506
asg26
I00
sg27
I00
sg28
I3711527
sg20
S'11584.2211778'
p1695
sba(igraph
Edge
p1696
(dp1697
g7
I1
sg8
I00
sg9
I5
sg10
(lp1698
g426
ag506
asg26
I00
sg27
I00
sg28
I3711528
sg20
S'11584.2296186'
p1699
sba(igraph
Edge
p1700
(dp1701
g7
I1
sg8
I00
sg9
I5
sg10
(lp1702
g433
ag520
asg26
I00
sg27
I00
sg28
I3711529
sg20
S'11584.238123'
p1703
sba(igraph
Edge
p1704
(dp1705
g7
I1
sg8
I00
sg9
I5
sg10
(lp1706
g440
ag520
asg26
I00
sg27
I00
sg28
I3711530
sg20
S'11584.2468107'
p1707
sba(igraph
Edge
p1708
(dp1709
g7
I1
sg8
I00
sg9
I5
sg10
(lp1710
g447
ag534
asg26
I00
sg27
I00
sg28
I3711531
sg20
S'11584.2554406'
p1711
sba(igraph
Edge
p1712
(dp1713
g7
I1
sg8
I00
sg9
I5
sg10
(lp1714
g454
ag534
asg26
I00
sg27
I00
sg28
I3711532
sg20
S'11584.2639517'
p1715
sba(igraph
Edge
p1716
(dp1717
g7
I1
sg8
I00
sg9
I5
sg10
(lp1718
g461
ag548
asg26
I00
sg27
I00
sg28
I3711533
sg20
S'11584.272978'
p1719
sba(igraph
Edge
p1720
(dp1721
g7
I1
sg8
I00
sg9
I5
sg10
(lp1722
g468
ag548
asg26
I00
sg27
I00
sg28
I3711534
sg20
S'11584.2815715'
p1723
sba(igraph
Edge
p1724
(dp1725
g7
I1
sg8
I00
sg9
I5
sg10
(lp1726
g475
ag562
asg26
I00
sg27
I00
sg28
I3711535
sg20
S'11584.290312'
p1727
sba(igraph
Edge
p1728
(dp1729
g7
I1
sg8
I00
sg9
I5
sg10
(lp1730
g482
ag562
asg26
I00
sg27
I00
sg28
I3711536
sg20
S'11584.2989955'
p1731
sba(igraph
Edge
p1732
(dp1733
g7
I1
sg8
I00
sg9
I5
sg10
(lp1734
g489
ag576
asg26
I00
sg27
I00
sg28
I3711537
sg20
S'11584.3076369'
p1735
sba(igraph
Edge
p1736
(dp1737
g7
I1
sg8
I00
sg9
I5
sg10
(lp1738
g496
ag576
asg26
I00
sg27
I00
sg28
I3711538
sg20
S'11584.3163503'
p1739
sba(igraph
Edge
p1740
(dp1741
g7
I1
sg8
I00
sg9
I5
sg10
(lp1742
g423
ag503
asg26
I00
sg27
I00
sg28
I3711539
sg20
S'11584.3513321'
p1743
sba(igraph
Edge
p1744
(dp1745
g7
I1
sg8
I00
sg9
I5
sg10
(lp1746
g426
ag513
asg26
I00
sg27
I00
sg28
I3711540
sg20
S'11584.3604067'
p1747
sba(igraph
Edge
p1748
(dp1749
g7
I1
sg8
I00
sg9
I5
sg10
(lp1750
g433
ag513
asg26
I00
sg27
I00
sg28
I3711541
sg20
S'11584.3692855'
p1751
sba(igraph
Edge
p1752
(dp1753
g7
I1
sg8
I00
sg9
I5
sg10
(lp1754
g440
ag527
asg26
I00
sg27
I00
sg28
I3711542
sg20
S'11584.3782344'
p1755
sba(igraph
Edge
p1756
(dp1757
g7
I1
sg8
I00
sg9
I5
sg10
(lp1758
g447
ag527
asg26
I00
sg27
I00
sg28
I3711543
sg20
S'11584.387097'
p1759
sba(igraph
Edge
p1760
(dp1761
g7
I1
sg8
I00
sg9
I5
sg10
(lp1762
g454
ag541
asg26
I00
sg27
I00
sg28
I3711544
sg20
S'11584.3961065'
p1763
sba(igraph
Edge
p1764
(dp1765
g7
I1
sg8
I00
sg9
I5
sg10
(lp1766
g461
ag541
asg26
I00
sg27
I00
sg28
I3711545
sg20
S'11584.4050814'
p1767
sba(igraph
Edge
p1768
(dp1769
g7
I1
sg8
I00
sg9
I5
sg10
(lp1770
g468
ag555
asg26
I00
sg27
I00
sg28
I3711546
sg20
S'11584.4140227'
p1771
sba(igraph
Edge
p1772
(dp1773
g7
I1
sg8
I00
sg9
I5
sg10
(lp1774
g475
ag555
asg26
I00
sg27
I00
sg28
I3711547
sg20
S'11584.4229549'
p1775
sba(igraph
Edge
p1776
(dp1777
g7
I1
sg8
I00
sg9
I5
sg10
(lp1778
g482
ag569
asg26
I00
sg27
I00
sg28
I3711548
sg20
S'11584.432163'
p1779
sba(igraph
Edge
p1780
(dp1781
g7
I1
sg8
I00
sg9
I5
sg10
(lp1782
g489
ag569
asg26
I00
sg27
I00
sg28
I3711549
sg20
S'11584.4412254'
p1783
sba(igraph
Edge
p1784
(dp1785
g7
I1
sg8
I00
sg9
I5
sg10
(lp1786
g503
ag586
asg26
I00
sg27
I00
sg28
I3711550
sg20
S'11584.4867923'
p1787
sba(igraph
Edge
p1788
(dp1789
g7
I1
sg8
I00
sg9
I5
sg10
(lp1790
g506
ag586
asg26
I00
sg27
I00
sg28
I3711551
sg20
S'11584.4959521'
p1791
sba(igraph
Edge
p1792
(dp1793
g7
I1
sg8
I00
sg9
I5
sg10
(lp1794
g513
ag600
asg26
I00
sg27
I00
sg28
I3711552
sg20
S'11584.5052304'
p1795
sba(igraph
Edge
p1796
(dp1797
g7
I1
sg8
I00
sg9
I5
sg10
(lp1798
g520
ag600
asg26
I00
sg27
I00
sg28
I3711553
sg20
S'11584.5144238'
p1799
sba(igraph
Edge
p1800
(dp1801
g7
I1
sg8
I00
sg9
I5
sg10
(lp1802
g527
ag614
asg26
I00
sg27
I00
sg28
I3711554
sg20
S'11584.5235936'
p1803
sba(igraph
Edge
p1804
(dp1805
g7
I1
sg8
I00
sg9
I5
sg10
(lp1806
g534
ag614
asg26
I00
sg27
I00
sg28
I3711555
sg20
S'11584.532939'
p1807
sba(igraph
Edge
p1808
(dp1809
g7
I1
sg8
I00
sg9
I5
sg10
(lp1810
g541
ag628
asg26
I00
sg27
I00
sg28
I3711556
sg20
S'11584.5423879'
p1811
sba(igraph
Edge
p1812
(dp1813
g7
I1
sg8
I00
sg9
I5
sg10
(lp1814
g548
ag628
asg26
I00
sg27
I00
sg28
I3711557
sg20
S'11584.5519218'
p1815
sba(igraph
Edge
p1816
(dp1817
g7
I1
sg8
I00
sg9
I5
sg10
(lp1818
g555
ag642
asg26
I00
sg27
I00
sg28
I3711558
sg20
S'11584.5615289'
p1819
sba(igraph
Edge
p1820
(dp1821
g7
I1
sg8
I00
sg9
I5
sg10
(lp1822
g562
ag642
asg26
I00
sg27
I00
sg28
I3711559
sg20
S'11584.5710229'
p1823
sba(igraph
Edge
p1824
(dp1825
g7
I1
sg8
I00
sg9
I5
sg10
(lp1826
g569
ag656
asg26
I00
sg27
I00
sg28
I3711560
sg20
S'11584.5804484'
p1827
sba(igraph
Edge
p1828
(dp1829
g7
I1
sg8
I00
sg9
I5
sg10
(lp1830
g576
ag656
asg26
I00
sg27
I00
sg28
I3711561
sg20
S'11584.589949'
p1831
sba(igraph
Edge
p1832
(dp1833
g7
I1
sg8
I00
sg9
I5
sg10
(lp1834
g503
ag583
asg26
I00
sg27
I00
sg28
I3711562
sg20
S'11584.62918'
p1835
sba(igraph
Edge
p1836
(dp1837
g7
I1
sg8
I00
sg9
I5
sg10
(lp1838
g506
ag593
asg26
I00
sg27
I00
sg28
I3711563
sg20
S'11584.6387809'
p1839
sba(igraph
Edge
p1840
(dp1841
g7
I1
sg8
I00
sg9
I5
sg10
(lp1842
g513
ag593
asg26
I00
sg27
I00
sg28
I3711564
sg20
S'11584.6483824'
p1843
sba(igraph
Edge
p1844
(dp1845
g7
I1
sg8
I00
sg9
I5
sg10
(lp1846
g520
ag607
asg26
I00
sg27
I00
sg28
I3711565
sg20
S'11584.6579252'
p1847
sba(igraph
Edge
p1848
(dp1849
g7
I1
sg8
I00
sg9
I5
sg10
(lp1850
g527
ag607
asg26
I00
sg27
I00
sg28
I3711566
sg20
S'11584.6676701'
p1851
sba(igraph
Edge
p1852
(dp1853
g7
I1
sg8
I00
sg9
I5
sg10
(lp1854
g534
ag621
asg26
I00
sg27
I00
sg28
I3711567
sg20
S'11584.6773713'
p1855
sba(igraph
Edge
p1856
(dp1857
g7
I1
sg8
I00
sg9
I5
sg10
(lp1858
g541
ag621
asg26
I00
sg27
I00
sg28
I3711568
sg20
S'11584.6871558'
p1859
sba(igraph
Edge
p1860
(dp1861
g7
I1
sg8
I00
sg9
I5
sg10
(lp1862
g548
ag635
asg26
I00
sg27
I00
sg28
I3711569
sg20
S'11584.6967654'
p1863
sba(igraph
Edge
p1864
(dp1865
g7
I1
sg8
I00
sg9
I5
sg10
(lp1866
g555
ag635
asg26
I00
sg27
I00
sg28
I3711570
sg20
S'11584.7072505'
p1867
sba(igraph
Edge
p1868
(dp1869
g7
I1
sg8
I00
sg9
I5
sg10
(lp1870
g562
ag649
asg26
I00
sg27
I00
sg28
I3711571
sg20
S'11584.7169702'
p1871
sba(igraph
Edge
p1872
(dp1873
g7
I1
sg8
I00
sg9
I5
sg10
(lp1874
g569
ag649
asg26
I00
sg27
I00
sg28
I3711572
sg20
S'11584.7266546'
p1875
sba(igraph
Edge
p1876
(dp1877
g7
I1
sg8
I00
sg9
I5
sg10
(lp1878
g583
ag666
asg26
I00
sg27
I00
sg28
I3711573
sg20
S'11584.7756732'
p1879
sba(igraph
Edge
p1880
(dp1881
g7
I1
sg8
I00
sg9
I5
sg10
(lp1882
g586
ag666
asg26
I00
sg27
I00
sg28
I3711574
sg20
S'11584.785654'
p1883
sba(igraph
Edge
p1884
(dp1885
g7
I1
sg8
I00
sg9
I5
sg10
(lp1886
g593
ag680
asg26
I00
sg27
I00
sg28
I3711575
sg20
S'11584.7957009'
p1887
sba(igraph
Edge
p1888
(dp1889
g7
I1
sg8
I00
sg9
I5
sg10
(lp1890
g600
ag680
asg26
I00
sg27
I00
sg28
I3711576
sg20
S'11584.805627'
p1891
sba(igraph
Edge
p1892
(dp1893
g7
I1
sg8
I00
sg9
I5
sg10
(lp1894
g607
ag694
asg26
I00
sg27
I00
sg28
I3711577
sg20
S'11584.8155145'
p1895
sba(igraph
Edge
p1896
(dp1897
g7
I1
sg8
I00
sg9
I5
sg10
(lp1898
g614
ag694
asg26
I00
sg27
I00
sg28
I3711578
sg20
S'11584.8254203'
p1899
sba(igraph
Edge
p1900
(dp1901
g7
I1
sg8
I00
sg9
I5
sg10
(lp1902
g621
ag708
asg26
I00
sg27
I00
sg28
I3711579
sg20
S'11584.8352855'
p1903
sba(igraph
Edge
p1904
(dp1905
g7
I1
sg8
I00
sg9
I5
sg10
(lp1906
g628
ag708
asg26
I00
sg27
I00
sg28
I3711580
sg20
S'11584.8453834'
p1907
sba(igraph
Edge
p1908
(dp1909
g7
I1
sg8
I00
sg9
I5
sg10
(lp1910
g635
ag722
asg26
I00
sg27
I00
sg28
I3711581
sg20
S'11584.8553037'
p1911
sba(igraph
Edge
p1912
(dp1913
g7
I1
sg8
I00
sg9
I5
sg10
(lp1914
g642
ag722
asg26
I00
sg27
I00
sg28
I3711582
sg20
S'11584.8654326'
p1915
sba(igraph
Edge
p1916
(dp1917
g7
I1
sg8
I00
sg9
I5
sg10
(lp1918
g649
ag736
asg26
I00
sg27
I00
sg28
I3711583
sg20
S'11584.8755962'
p1919
sba(igraph
Edge
p1920
(dp1921
g7
I1
sg8
I00
sg9
I5
sg10
(lp1922
g656
ag736
asg26
I00
sg27
I00
sg28
I3711584
sg20
S'11584.8857042'
p1923
sba(igraph
Edge
p1924
(dp1925
g7
I1
sg8
I00
sg9
I5
sg10
(lp1926
g583
ag663
asg26
I00
sg27
I00
sg28
I3711585
sg20
S'11584.9268477'
p1927
sba(igraph
Edge
p1928
(dp1929
g7
I1
sg8
I00
sg9
I5
sg10
(lp1930
g586
ag673
asg26
I00
sg27
I00
sg28
I3711586
sg20
S'11584.9370954'
p1931
sba(igraph
Edge
p1932
(dp1933
g7
I1
sg8
I00
sg9
I5
sg10
(lp1934
g593
ag673
asg26
I00
sg27
I00
sg28
I3711587
sg20
S'11584.9471603'
p1935
sba(igraph
Edge
p1936
(dp1937
g7
I1
sg8
I00
sg9
I5
sg10
(lp1938
g600
ag687
asg26
I00
sg27
I00
sg28
I3711588
sg20
S'11584.9572962'
p1939
sba(igraph
Edge
p1940
(dp1941
g7
I1
sg8
I00
sg9
I5
sg10
(lp1942
g607
ag687
asg26
I00
sg27
I00
sg28
I3711589
sg20
S'11584.9674978'
p1943
sba(igraph
Edge
p1944
(dp1945
g7
I1
sg8
I00
sg9
I5
sg10
(lp1946
g614
ag701
asg26
I00
sg27
I00
sg28
I3711590
sg20
S'11584.9779416'
p1947
sba(igraph
Edge
p1948
(dp1949
g7
I1
sg8
I00
sg9
I5
sg10
(lp1950
g621
ag701
asg26
I00
sg27
I00
sg28
I3711591
sg20
S'11584.9883309'
p1951
sba(igraph
Edge
p1952
(dp1953
g7
I1
sg8
I00
sg9
I5
sg10
(lp1954
g628
ag715
asg26
I00
sg27
I00
sg28
I3711592
sg20
S'11584.9989557'
p1955
sba(igraph
Edge
p1956
(dp1957
g7
I1
sg8
I00
sg9
I5
sg10
(lp1958
g635
ag715
asg26
I00
sg27
I00
sg28
I3711593
sg20
S'11585.009188'
p1959
sba(igraph
Edge
p1960
(dp1961
g7
I1
sg8
I00
sg9
I5
sg10
(lp1962
g642
ag729
asg26
I00
sg27
I00
sg28
I3711594
sg20
S'11585.0196179'
p1963
sba(igraph
Edge
p1964
(dp1965
g7
I1
sg8
I00
sg9
I5
sg10
(lp1966
g649
ag729
asg26
I00
sg27
I00
sg28
I3711595
sg20
S'11585.0300228'
p1967
sba(igraph
Edge
p1968
(dp1969
g7
I1
sg8
I00
sg9
I5
sg10
(lp1970
g663
ag746
asg26
I00
sg27
I00
sg28
I3711596
sg20
S'11585.0851485'
p1971
sba(igraph
Edge
p1972
(dp1973
g7
I1
sg8
I00
sg9
I5
sg10
(lp1974
g666
ag746
asg26
I00
sg27
I00
sg28
I3711597
sg20
S'11585.0959633'
p1975
sba(igraph
Edge
p1976
(dp1977
g7
I1
sg8
I00
sg9
I5
sg10
(lp1978
g673
ag760
asg26
I00
sg27
I00
sg28
I3711598
sg20
S'11585.1065163'
p1979
sba(igraph
Edge
p1980
(dp1981
g7
I1
sg8
I00
sg9
I5
sg10
(lp1982
g680
ag760
asg26
I00
sg27
I00
sg28
I3711599
sg20
S'11585.1173292'
p1983
sba(igraph
Edge
p1984
(dp1985
g7
I1
sg8
I00
sg9
I5
sg10
(lp1986
g687
ag774
asg26
I00
sg27
I00
sg28
I3711600
sg20
S'11585.1295394'
p1987
sba(igraph
Edge
p1988
(dp1989
g7
I1
sg8
I00
sg9
I5
sg10
(lp1990
g694
ag774
asg26
I00
sg27
I00
sg28
I3711601
sg20
S'11585.1402164'
p1991
sba(igraph
Edge
p1992
(dp1993
g7
I1
sg8
I00
sg9
I5
sg10
(lp1994
g701
ag788
asg26
I00
sg27
I00
sg28
I3711602
sg20
S'11585.1510997'
p1995
sba(igraph
Edge
p1996
(dp1997
g7
I1
sg8
I00
sg9
I5
sg10
(lp1998
g708
ag788
asg26
I00
sg27
I00
sg28
I3711603
sg20
S'11585.1620496'
p1999
sba(igraph
Edge
p2000
(dp2001
g7
I1
sg8
I00
sg9
I5
sg10
(lp2002
g715
ag802
asg26
I00
sg27
I00
sg28
I3711604
sg20
S'11585.1729443'
p2003
sba(igraph
Edge
p2004
(dp2005
g7
I1
sg8
I00
sg9
I5
sg10
(lp2006
g722
ag802
asg26
I00
sg27
I00
sg28
I3711605
sg20
S'11585.1837521'
p2007
sba(igraph
Edge
p2008
(dp2009
g7
I1
sg8
I00
sg9
I5
sg10
(lp2010
g729
ag816
asg26
I00
sg27
I00
sg28
I3711606
sg20
S'11585.1945627'
p2011
sba(igraph
Edge
p2012
(dp2013
g7
I1
sg8
I00
sg9
I5
sg10
(lp2014
g736
ag816
asg26
I00
sg27
I00
sg28
I3711607
sg20
S'11585.2052713'
p2015
sba(igraph
Edge
p2016
(dp2017
g7
I1
sg8
I00
sg9
I5
sg10
(lp2018
g663
ag743
asg26
I00
sg27
I00
sg28
I3711608
sg20
S'11585.248685'
p2019
sba(igraph
Edge
p2020
(dp2021
g7
I1
sg8
I00
sg9
I5
sg10
(lp2022
g666
ag753
asg26
I00
sg27
I00
sg28
I3711609
sg20
S'11585.2593967'
p2023
sba(igraph
Edge
p2024
(dp2025
g7
I1
sg8
I00
sg9
I5
sg10
(lp2026
g673
ag753
asg26
I00
sg27
I00
sg28
I3711610
sg20
S'11585.2705129'
p2027
sba(igraph
Edge
p2028
(dp2029
g7
I1
sg8
I00
sg9
I5
sg10
(lp2030
g680
ag767
asg26
I00
sg27
I00
sg28
I3711611
sg20
S'11585.281493'
p2031
sba(igraph
Edge
p2032
(dp2033
g7
I1
sg8
I00
sg9
I5
sg10
(lp2034
g687
ag767
asg26
I00
sg27
I00
sg28
I3711612
sg20
S'11585.2923204'
p2035
sba(igraph
Edge
p2036
(dp2037
g7
I1
sg8
I00
sg9
I5
sg10
(lp2038
g694
ag781
asg26
I00
sg27
I00
sg28
I3711613
sg20
S'11585.3033955'
p2039
sba(igraph
Edge
p2040
(dp2041
g7
I1
sg8
I00
sg9
I5
sg10
(lp2042
g701
ag781
asg26
I00
sg27
I00
sg28
I3711614
sg20
S'11585.3143332'
p2043
sba(igraph
Edge
p2044
(dp2045
g7
I1
sg8
I00
sg9
I5
sg10
(lp2046
g708
ag795
asg26
I00
sg27
I00
sg28
I3711615
sg20
S'11585.3252986'
p2047
sba(igraph
Edge
p2048
(dp2049
g7
I1
sg8
I00
sg9
I5
sg10
(lp2050
g715
ag795
asg26
I00
sg27
I00
sg28
I3711616
sg20
S'11585.3362927'
p2051
sba(igraph
Edge
p2052
(dp2053
g7
I1
sg8
I00
sg9
I5
sg10
(lp2054
g722
ag809
asg26
I00
sg27
I00
sg28
I3711617
sg20
S'11585.3475495'
p2055
sba(igraph
Edge
p2056
(dp2057
g7
I1
sg8
I00
sg9
I5
sg10
(lp2058
g729
ag809
asg26
I00
sg27
I00
sg28
I3711618
sg20
S'11585.3586174'
p2059
sba(igraph
Edge
p2060
(dp2061
g7
I1
sg8
I00
sg9
I5
sg10
(lp2062
g743
ag826
asg26
I00
sg27
I00
sg28
I3711619
sg20
S'11585.4147544'
p2063
sba(igraph
Edge
p2064
(dp2065
g7
I1
sg8
I00
sg9
I5
sg10
(lp2066
g746
ag826
asg26
I00
sg27
I00
sg28
I3711620
sg20
S'11585.4258801'
p2067
sba(igraph
Edge
p2068
(dp2069
g7
I1
sg8
I00
sg9
I5
sg10
(lp2070
g753
ag840
asg26
I00
sg27
I00
sg28
I3711621
sg20
S'11585.4370636'
p2071
sba(igraph
Edge
p2072
(dp2073
g7
I1
sg8
I00
sg9
I5
sg10
(lp2074
g760
ag840
asg26
I00
sg27
I00
sg28
I3711622
sg20
S'11585.4482092'
p2075
sba(igraph
Edge
p2076
(dp2077
g7
I1
sg8
I00
sg9
I5
sg10
(lp2078
g767
ag854
asg26
I00
sg27
I00
sg28
I3711623
sg20
S'11585.4597445'
p2079
sba(igraph
Edge
p2080
(dp2081
g7
I1
sg8
I00
sg9
I5
sg10
(lp2082
g774
ag854
asg26
I00
sg27
I00
sg28
I3711624
sg20
S'11585.4718125'
p2083
sba(igraph
Edge
p2084
(dp2085
g7
I1
sg8
I00
sg9
I5
sg10
(lp2086
g781
ag868
asg26
I00
sg27
I00
sg28
I3711625
sg20
S'11585.4831843'
p2087
sba(igraph
Edge
p2088
(dp2089
g7
I1
sg8
I00
sg9
I5
sg10
(lp2090
g788
ag868
asg26
I00
sg27
I00
sg28
I3711626
sg20
S'11585.4944229'
p2091
sba(igraph
Edge
p2092
(dp2093
g7
I1
sg8
I00
sg9
I5
sg10
(lp2094
g795
ag882
asg26
I00
sg27
I00
sg28
I3711627
sg20
S'11585.5057836'
p2095
sba(igraph
Edge
p2096
(dp2097
g7
I1
sg8
I00
sg9
I5
sg10
(lp2098
g802
ag882
asg26
I00
sg27
I00
sg28
I3711628
sg20
S'11585.5170453'
p2099
sba(igraph
Edge
p2100
(dp2101
g7
I1
sg8
I00
sg9
I5
sg10
(lp2102
g809
ag896
asg26
I00
sg27
I00
sg28
I3711629
sg20
S'11585.5284264'
p2103
sba(igraph
Edge
p2104
(dp2105
g7
I1
sg8
I00
sg9
I5
sg10
(lp2106
g816
ag896
asg26
I00
sg27
I00
sg28
I3711630
sg20
S'11585.5400751'
p2107
sba(igraph
Edge
p2108
(dp2109
g7
I1
sg8
I00
sg9
I5
sg10
(lp2110
g743
ag823
asg26
I00
sg27
I00
sg28
I3711631
sg20
S'11585.5865684'
p2111
sba(igraph
Edge
p2112
(dp2113
g7
I1
sg8
I00
sg9
I5
sg10
(lp2114
g746
ag833
asg26
I00
sg27
I00
sg28
I3711632
sg20
S'11585.5981394'
p2115
sba(igraph
Edge
p2116
(dp2117
g7
I1
sg8
I00
sg9
I5
sg10
(lp2118
g753
ag833
asg26
I00
sg27
I00
sg28
I3711633
sg20
S'11585.6104868'
p2119
sba(igraph
Edge
p2120
(dp2121
g7
I1
sg8
I00
sg9
I5
sg10
(lp2122
g760
ag847
asg26
I00
sg27
I00
sg28
I3711634
sg20
S'11585.6222579'
p2123
sba(igraph
Edge
p2124
(dp2125
g7
I1
sg8
I00
sg9
I5
sg10
(lp2126
g767
ag847
asg26
I00
sg27
I00
sg28
I3711635
sg20
S'11585.6356252'
p2127
sba(igraph
Edge
p2128
(dp2129
g7
I1
sg8
I00
sg9
I5
sg10
(lp2130
g774
ag861
asg26
I00
sg27
I00
sg28
I3711636
sg20
S'11585.6473446'
p2131
sba(igraph
Edge
p2132
(dp2133
g7
I1
sg8
I00
sg9
I5
sg10
(lp2134
g781
ag861
asg26
I00
sg27
I00
sg28
I3711637
sg20
S'11585.6591366'
p2135
sba(igraph
Edge
p2136
(dp2137
g7
I1
sg8
I00
sg9
I5
sg10
(lp2138
g788
ag875
asg26
I00
sg27
I00
sg28
I3711638
sg20
S'11585.6720726'
p2139
sba(igraph
Edge
p2140
(dp2141
g7
I1
sg8
I00
sg9
I5
sg10
(lp2142
g795
ag875
asg26
I00
sg27
I00
sg28
I3711639
sg20
S'11585.6841741'
p2143
sba(igraph
Edge
p2144
(dp2145
g7
I1
sg8
I00
sg9
I5
sg10
(lp2146
g802
ag889
asg26
I00
sg27
I00
sg28
I3711640
sg20
S'11585.6960114'
p2147
sba(igraph
Edge
p2148
(dp2149
g7
I1
sg8
I00
sg9
I5
sg10
(lp2150
g809
ag889
asg26
I00
sg27
I00
sg28
I3711641
sg20
S'11585.7077481'
p2151
sba(igraph
Edge
p2152
(dp2153
g7
I1
sg8
I00
sg9
I5
sg10
(lp2154
g823
ag906
asg26
I00
sg27
I00
sg28
I3711642
sg20
S'11585.7667357'
p2155
sba(igraph
Edge
p2156
(dp2157
g7
I1
sg8
I00
sg9
I5
sg10
(lp2158
g826
ag906
asg26
I00
sg27
I00
sg28
I3711643
sg20
S'11585.7787414'
p2159
sba(igraph
Edge
p2160
(dp2161
g7
I1
sg8
I00
sg9
I5
sg10
(lp2162
g833
ag920
asg26
I00
sg27
I00
sg28
I3711644
sg20
S'11585.7904778'
p2163
sba(igraph
Edge
p2164
(dp2165
g7
I1
sg8
I00
sg9
I5
sg10
(lp2166
g840
ag920
asg26
I00
sg27
I00
sg28
I3711645
sg20
S'11585.8031247'
p2167
sba(igraph
Edge
p2168
(dp2169
g7
I1
sg8
I00
sg9
I5
sg10
(lp2170
g847
ag934
asg26
I00
sg27
I00
sg28
I3711646
sg20
S'11585.815286'
p2171
sba(igraph
Edge
p2172
(dp2173
g7
I1
sg8
I00
sg9
I5
sg10
(lp2174
g854
ag934
asg26
I00
sg27
I00
sg28
I3711647
sg20
S'11585.8272333'
p2175
sba(igraph
Edge
p2176
(dp2177
g7
I1
sg8
I00
sg9
I5
sg10
(lp2178
g861
ag948
asg26
I00
sg27
I00
sg28
I3711648
sg20
S'11585.839234'
p2179
sba(igraph
Edge
p2180
(dp2181
g7
I1
sg8
I00
sg9
I5
sg10
(lp2182
g868
ag948
asg26
I00
sg27
I00
sg28
I3711649
sg20
S'11585.8512576'
p2183
sba(igraph
Edge
p2184
(dp2185
g7
I1
sg8
I00
sg9
I5
sg10
(lp2186
g875
ag962
asg26
I00
sg27
I00
sg28
I3711650
sg20
S'11585.8633868'
p2187
sba(igraph
Edge
p2188
(dp2189
g7
I1
sg8
I00
sg9
I5
sg10
(lp2190
g882
ag962
asg26
I00
sg27
I00
sg28
I3711651
sg20
S'11585.8754034'
p2191
sba(igraph
Edge
p2192
(dp2193
g7
I1
sg8
I00
sg9
I5
sg10
(lp2194
g889
ag976
asg26
I00
sg27
I00
sg28
I3711652
sg20
S'11585.8872703'
p2195
sba(igraph
Edge
p2196
(dp2197
g7
I1
sg8
I00
sg9
I5
sg10
(lp2198
g896
ag976
asg26
I00
sg27
I00
sg28
I3711653
sg20
S'11585.899409'
p2199
sba(igraph
Edge
p2200
(dp2201
g7
I1
sg8
I00
sg9
I5
sg10
(lp2202
g823
ag903
asg26
I00
sg27
I00
sg28
I3711654
sg20
S'11585.9498285'
p2203
sba(igraph
Edge
p2204
(dp2205
g7
I1
sg8
I00
sg9
I5
sg10
(lp2206
g826
ag913
asg26
I00
sg27
I00
sg28
I3711655
sg20
S'11585.9649293'
p2207
sba(igraph
Edge
p2208
(dp2209
g7
I1
sg8
I00
sg9
I5
sg10
(lp2210
g833
ag913
asg26
I00
sg27
I00
sg28
I3711656
sg20
S'11585.9776919'
p2211
sba(igraph
Edge
p2212
(dp2213
g7
I1
sg8
I00
sg9
I5
sg10
(lp2214
g840
ag927
asg26
I00
sg27
I00
sg28
I3711657
sg20
S'11585.9917383'
p2215
sba(igraph
Edge
p2216
(dp2217
g7
I1
sg8
I00
sg9
I5
sg10
(lp2218
g847
ag927
asg26
I00
sg27
I00
sg28
I3711658
sg20
S'11586.0096931'
p2219
sba(igraph
Edge
p2220
(dp2221
g7
I1
sg8
I00
sg9
I5
sg10
(lp2222
g854
ag941
asg26
I00
sg27
I00
sg28
I3711659
sg20
S'11586.0253683'
p2223
sba(igraph
Edge
p2224
(dp2225
g7
I1
sg8
I00
sg9
I5
sg10
(lp2226
g861
ag941
asg26
I00
sg27
I00
sg28
I3711660
sg20
S'11586.0405702'
p2227
sba(igraph
Edge
p2228
(dp2229
g7
I1
sg8
I00
sg9
I5
sg10
(lp2230
g868
ag955
asg26
I00
sg27
I00
sg28
I3711661
sg20
S'11586.0538901'
p2231
sba(igraph
Edge
p2232
(dp2233
g7
I1
sg8
I00
sg9
I5
sg10
(lp2234
g875
ag955
asg26
I00
sg27
I00
sg28
I3711662
sg20
S'11586.0671351'
p2235
sba(igraph
Edge
p2236
(dp2237
g7
I1
sg8
I00
sg9
I5
sg10
(lp2238
g882
ag969
asg26
I00
sg27
I00
sg28
I3711663
sg20
S'11586.0794808'
p2239
sba(igraph
Edge
p2240
(dp2241
g7
I1
sg8
I00
sg9
I5
sg10
(lp2242
g889
ag969
asg26
I00
sg27
I00
sg28
I3711664
sg20
S'11586.0922715'
p2243
sba(igraph
Edge
p2244
(dp2245
g7
I1
sg8
I00
sg9
I5
sg10
(lp2246
g903
ag986
asg26
I00
sg27
I00
sg28
I3711665
sg20
S'11586.1563777'
p2247
sba(igraph
Edge
p2248
(dp2249
g7
I1
sg8
I00
sg9
I5
sg10
(lp2250
g906
ag986
asg26
I00
sg27
I00
sg28
I3711666
sg20
S'11586.1688016'
p2251
sba(igraph
Edge
p2252
(dp2253
g7
I1
sg8
I00
sg9
I5
sg10
(lp2254
g913
ag1000
asg26
I00
sg27
I00
sg28
I3711667
sg20
S'11586.1812906'
p2255
sba(igraph
Edge
p2256
(dp2257
g7
I1
sg8
I00
sg9
I5
sg10
(lp2258
g920
ag1000
asg26
I00
sg27
I00
sg28
I3711668
sg20
S'11586.1942434'
p2259
sba(igraph
Edge
p2260
(dp2261
g7
I1
sg8
I00
sg9
I5
sg10
(lp2262
g927
ag1014
asg26
I00
sg27
I00
sg28
I3711669
sg20
S'11586.2066564'
p2263
sba(igraph
Edge
p2264
(dp2265
g7
I1
sg8
I00
sg9
I5
sg10
(lp2266
g934
ag1014
asg26
I00
sg27
I00
sg28
I3711670
sg20
S'11586.2191639'
p2267
sba(igraph
Edge
p2268
(dp2269
g7
I1
sg8
I00
sg9
I5
sg10
(lp2270
g941
ag1028
asg26
I00
sg27
I00
sg28
I3711671
sg20
S'11586.2315677'
p2271
sba(igraph
Edge
p2272
(dp2273
g7
I1
sg8
I00
sg9
I5
sg10
(lp2274
g948
ag1028
asg26
I00
sg27
I00
sg28
I3711672
sg20
S'11586.2446317'
p2275
sba(igraph
Edge
p2276
(dp2277
g7
I1
sg8
I00
sg9
I5
sg10
(lp2278
g955
ag1042
asg26
I00
sg27
I00
sg28
I3711673
sg20
S'11586.2571265'
p2279
sba(igraph
Edge
p2280
(dp2281
g7
I1
sg8
I00
sg9
I5
sg10
(lp2282
g962
ag1042
asg26
I00
sg27
I00
sg28
I3711674
sg20
S'11586.2696147'
p2283
sba(igraph
Edge
p2284
(dp2285
g7
I1
sg8
I00
sg9
I5
sg10
(lp2286
g969
ag1056
asg26
I00
sg27
I00
sg28
I3711675
sg20
S'11586.2821984'
p2287
sba(igraph
Edge
p2288
(dp2289
g7
I1
sg8
I00
sg9
I5
sg10
(lp2290
g976
ag1056
asg26
I00
sg27
I00
sg28
I3711676
sg20
S'11586.2949065'
p2291
sba(igraph
Edge
p2292
(dp2293
g7
I1
sg8
I00
sg9
I5
sg10
(lp2294
g903
ag983
asg26
I00
sg27
I00
sg28
I3711677
sg20
S'11586.345628'
p2295
sba(igraph
Edge
p2296
(dp2297
g7
I1
sg8
I00
sg9
I5
sg10
(lp2298
g906
ag993
asg26
I00
sg27
I00
sg28
I3711678
sg20
S'11586.3583316'
p2299
sba(igraph
Edge
p2300
(dp2301
g7
I1
sg8
I00
sg9
I5
sg10
(lp2302
g913
ag993
asg26
I00
sg27
I00
sg28
I3711679
sg20
S'11586.3711262'
p2303
sba(igraph
Edge
p2304
(dp2305
g7
I1
sg8
I00
sg9
I5
sg10
(lp2306
g920
ag1007
asg26
I00
sg27
I00
sg28
I3711680
sg20
S'11586.3840457'
p2307
sba(igraph
Edge
p2308
(dp2309
g7
I1
sg8
I00
sg9
I5
sg10
(lp2310
g927
ag1007
asg26
I00
sg27
I00
sg28
I3711681
sg20
S'11586.3969558'
p2311
sba(igraph
Edge
p2312
(dp2313
g7
I1
sg8
I00
sg9
I5
sg10
(lp2314
g934
ag1021
asg26
I00
sg27
I00
sg28
I3711682
sg20
S'11586.4098851'
p2315
sba(igraph
Edge
p2316
(dp2317
g7
I1
sg8
I00
sg9
I5
sg10
(lp2318
g941
ag1021
asg26
I00
sg27
I00
sg28
I3711683
sg20
S'11586.4227778'
p2319
sba(igraph
Edge
p2320
(dp2321
g7
I1
sg8
I00
sg9
I5
sg10
(lp2322
g948
ag1035
asg26
I00
sg27
I00
sg28
I3711684
sg20
S'11586.4355732'
p2323
sba(igraph
Edge
p2324
(dp2325
g7
I1
sg8
I00
sg9
I5
sg10
(lp2326
g955
ag1035
asg26
I00
sg27
I00
sg28
I3711685
sg20
S'11586.4484036'
p2327
sba(igraph
Edge
p2328
(dp2329
g7
I1
sg8
I00
sg9
I5
sg10
(lp2330
g962
ag1049
asg26
I00
sg27
I00
sg28
I3711686
sg20
S'11586.461322'
p2331
sba(igraph
Edge
p2332
(dp2333
g7
I1
sg8
I00
sg9
I5
sg10
(lp2334
g969
ag1049
asg26
I00
sg27
I00
sg28
I3711687
sg20
S'11586.474174'
p2335
sba(igraph
Edge
p2336
(dp2337
g7
I1
sg8
I00
sg9
I5
sg10
(lp2338
g983
ag1066
asg26
I00
sg27
I00
sg28
I3711688
sg20
S'11586.5431651'
p2339
sba(igraph
Edge
p2340
(dp2341
g7
I1
sg8
I00
sg9
I5
sg10
(lp2342
g986
ag1066
asg26
I00
sg27
I00
sg28
I3711689
sg20
S'11586.5571608'
p2343
sba(igraph
Edge
p2344
(dp2345
g7
I1
sg8
I00
sg9
I5
sg10
(lp2346
g993
ag1080
asg26
I00
sg27
I00
sg28
I3711690
sg20
S'11586.5711667'
p2347
sba(igraph
Edge
p2348
(dp2349
g7
I1
sg8
I00
sg9
I5
sg10
(lp2350
g1000
ag1080
asg26
I00
sg27
I00
sg28
I3711691
sg20
S'11586.5851252'
p2351
sba(igraph
Edge
p2352
(dp2353
g7
I1
sg8
I00
sg9
I5
sg10
(lp2354
g1007
ag1094
asg26
I00
sg27
I00
sg28
I3711692
sg20
S'11586.5999525'
p2355
sba(igraph
Edge
p2356
(dp2357
g7
I1
sg8
I00
sg9
I5
sg10
(lp2358
g1014
ag1094
asg26
I00
sg27
I00
sg28
I3711693
sg20
S'11586.6140135'
p2359
sba(igraph
Edge
p2360
(dp2361
g7
I1
sg8
I00
sg9
I5
sg10
(lp2362
g1021
ag1108
asg26
I00
sg27
I00
sg28
I3711694
sg20
S'11586.6293761'
p2363
sba(igraph
Edge
p2364
(dp2365
g7
I1
sg8
I00
sg9
I5
sg10
(lp2366
g1028
ag1108
asg26
I00
sg27
I00
sg28
I3711695
sg20
S'11586.643829'
p2367
sba(igraph
Edge
p2368
(dp2369
g7
I1
sg8
I00
sg9
I5
sg10
(lp2370
g1035
ag1122
asg26
I00
sg27
I00
sg28
I3711696
sg20
S'11586.6584451'
p2371
sba(igraph
Edge
p2372
(dp2373
g7
I1
sg8
I00
sg9
I5
sg10
(lp2374
g1042
ag1122
asg26
I00
sg27
I00
sg28
I3711697
sg20
S'11586.6728984'
p2375
sba(igraph
Edge
p2376
(dp2377
g7
I1
sg8
I00
sg9
I5
sg10
(lp2378
g1049
ag1136
asg26
I00
sg27
I00
sg28
I3711698
sg20
S'11586.6871678'
p2379
sba(igraph
Edge
p2380
(dp2381
g7
I1
sg8
I00
sg9
I5
sg10
(lp2382
g1056
ag1136
asg26
I00
sg27
I00
sg28
I3711699
sg20
S'11586.7013581'
p2383
sba(igraph
Edge
p2384
(dp2385
g7
I1
sg8
I00
sg9
I5
sg10
(lp2386
g983
ag1063
asg26
I00
sg27
I00
sg28
I3711700
sg20
S'11586.7591456'
p2387
sba(igraph
Edge
p2388
(dp2389
g7
I1
sg8
I00
sg9
I5
sg10
(lp2390
g986
ag1073
asg26
I00
sg27
I00
sg28
I3711701
sg20
S'11586.7740364'
p2391
sba(igraph
Edge
p2392
(dp2393
g7
I1
sg8
I00
sg9
I5
sg10
(lp2394
g993
ag1073
asg26
I00
sg27
I00
sg28
I3711702
sg20
S'11586.7921931'
p2395
sba(igraph
Edge
p2396
(dp2397
g7
I1
sg8
I00
sg9
I5
sg10
(lp2398
g1000
ag1087
asg26
I00
sg27
I00
sg28
I3711703
sg20
S'11586.8060069'
p2399
sba(igraph
Edge
p2400
(dp2401
g7
I1
sg8
I00
sg9
I5
sg10
(lp2402
g1007
ag1087
asg26
I00
sg27
I00
sg28
I3711704
sg20
S'11586.8194743'
p2403
sba(igraph
Edge
p2404
(dp2405
g7
I1
sg8
I00
sg9
I5
sg10
(lp2406
g1014
ag1101
asg26
I00
sg27
I00
sg28
I3711705
sg20
S'11586.8328031'
p2407
sba(igraph
Edge
p2408
(dp2409
g7
I1
sg8
I00
sg9
I5
sg10
(lp2410
g1021
ag1101
asg26
I00
sg27
I00
sg28
I3711706
sg20
S'11586.8461022'
p2411
sba(igraph
Edge
p2412
(dp2413
g7
I1
sg8
I00
sg9
I5
sg10
(lp2414
g1028
ag1115
asg26
I00
sg27
I00
sg28
I3711707
sg20
S'11586.8593872'
p2415
sba(igraph
Edge
p2416
(dp2417
g7
I1
sg8
I00
sg9
I5
sg10
(lp2418
g1035
ag1115
asg26
I00
sg27
I00
sg28
I3711708
sg20
S'11586.872983'
p2419
sba(igraph
Edge
p2420
(dp2421
g7
I1
sg8
I00
sg9
I5
sg10
(lp2422
g1042
ag1129
asg26
I00
sg27
I00
sg28
I3711709
sg20
S'11586.8864146'
p2423
sba(igraph
Edge
p2424
(dp2425
g7
I1
sg8
I00
sg9
I5
sg10
(lp2426
g1049
ag1129
asg26
I00
sg27
I00
sg28
I3711710
sg20
S'11586.9000105'
p2427
sba(igraph
Edge
p2428
(dp2429
g7
I1
sg8
I00
sg9
I5
sg10
(lp2430
g1136
ag1063
asg26
I00
sg27
I00
sg28
I3711711
sg20
S'11750.2291545'
p2431
sba(igraph
Edge
p2432
(dp2433
g7
I1
sg8
I00
sg9
I5
sg10
(lp2434
g1063
ag1056
asg26
I00
sg27
I00
sg28
I3711712
sg20
S'11752.4375305'
p2435
sba(igraph
Edge
p2436
(dp2437
g7
I1
sg8
I00
sg9
I5
sg10
(lp2438
g1056
ag983
asg26
I00
sg27
I00
sg28
I3711713
sg20
S'11755.0138185'
p2439
sba(igraph
Edge
p2440
(dp2441
g7
I1
sg8
I00
sg9
I5
sg10
(lp2442
g983
ag976
asg26
I00
sg27
I00
sg28
I3711714
sg20
S'11757.2988986'
p2443
sba(igraph
Edge
p2444
(dp2445
g7
I1
sg8
I00
sg9
I5
sg10
(lp2446
g976
ag903
asg26
I00
sg27
I00
sg28
I3711715
sg20
S'11759.2559007'
p2447
sba(igraph
Edge
p2448
(dp2449
g7
I1
sg8
I00
sg9
I5
sg10
(lp2450
g903
ag896
asg26
I00
sg27
I00
sg28
I3711716
sg20
S'11761.2457391'
p2451
sba(igraph
Edge
p2452
(dp2453
g7
I1
sg8
I00
sg9
I5
sg10
(lp2454
g896
ag823
asg26
I00
sg27
I00
sg28
I3711717
sg20
S'11763.4679461'
p2455
sba(igraph
Edge
p2456
(dp2457
g7
I1
sg8
I00
sg9
I5
sg10
(lp2458
g823
ag816
asg26
I00
sg27
I00
sg28
I3711718
sg20
S'11765.6984108'
p2459
sba(igraph
Edge
p2460
(dp2461
g7
I1
sg8
I00
sg9
I5
sg10
(lp2462
g816
ag743
asg26
I00
sg27
I00
sg28
I3711719
sg20
S'11767.7672176'
p2463
sba(igraph
Edge
p2464
(dp2465
g7
I1
sg8
I00
sg9
I5
sg10
(lp2466
g743
ag736
asg26
I00
sg27
I00
sg28
I3711720
sg20
S'11770.2831748'
p2467
sba(igraph
Edge
p2468
(dp2469
g7
I1
sg8
I00
sg9
I5
sg10
(lp2470
g736
ag663
asg26
I00
sg27
I00
sg28
I3711721
sg20
S'11772.7490117'
p2471
sba(igraph
Edge
p2472
(dp2473
g7
I1
sg8
I00
sg9
I5
sg10
(lp2474
g663
ag656
asg26
I00
sg27
I00
sg28
I3711722
sg20
S'11774.7967454'
p2475
sba(igraph
Edge
p2476
(dp2477
g7
I1
sg8
I00
sg9
I5
sg10
(lp2478
g656
ag583
asg26
I00
sg27
I00
sg28
I3711723
sg20
S'11777.2727849'
p2479
sba(igraph
Edge
p2480
(dp2481
g7
I1
sg8
I00
sg9
I5
sg10
(lp2482
g583
ag576
asg26
I00
sg27
I00
sg28
I3711724
sg20
S'11779.5933846'
p2483
sba(igraph
Edge
p2484
(dp2485
g7
I1
sg8
I00
sg9
I5
sg10
(lp2486
g576
ag503
asg26
I00
sg27
I00
sg28
I3711725
sg20
S'11781.430103'
p2487
sba(igraph
Edge
p2488
(dp2489
g7
I1
sg8
I00
sg9
I5
sg10
(lp2490
g503
ag496
asg26
I00
sg27
I00
sg28
I3711726
sg20
S'11783.7510826'
p2491
sba(igraph
Edge
p2492
(dp2493
g7
I1
sg8
I00
sg9
I5
sg10
(lp2494
g496
ag423
asg26
I00
sg27
I00
sg28
I3711727
sg20
S'11786.044143'
p2495
sba(igraph
Edge
p2496
(dp2497
g7
I1
sg8
I00
sg9
I5
sg10
(lp2498
g423
ag416
asg26
I00
sg27
I00
sg28
I3711728
sg20
S'11787.7775773'
p2499
sba(igraph
Edge
p2500
(dp2501
g7
I1
sg8
I00
sg9
I5
sg10
(lp2502
g416
ag343
asg26
I00
sg27
I00
sg28
I3711729
sg20
S'11789.8500142'
p2503
sba(igraph
Edge
p2504
(dp2505
g7
I1
sg8
I00
sg9
I5
sg10
(lp2506
g343
ag336
asg26
I00
sg27
I00
sg28
I3711730
sg20
S'11791.7074273'
p2507
sba(igraph
Edge
p2508
(dp2509
g7
I1
sg8
I00
sg9
I5
sg10
(lp2510
g336
ag263
asg26
I00
sg27
I00
sg28
I3711731
sg20
S'11793.8943229'
p2511
sba(igraph
Edge
p2512
(dp2513
g7
I1
sg8
I00
sg9
I5
sg10
(lp2514
g263
ag256
asg26
I00
sg27
I00
sg28
I3711732
sg20
S'11795.7500707'
p2515
sba(igraph
Edge
p2516
(dp2517
g7
I1
sg8
I00
sg9
I5
sg10
(lp2518
g256
ag183
asg26
I00
sg27
I00
sg28
I3711733
sg20
S'11798.0525944'
p2519
sba(igraph
Edge
p2520
(dp2521
g7
I1
sg8
I00
sg9
I5
sg10
(lp2522
g183
ag176
asg26
I00
sg27
I00
sg28
I3711734
sg20
S'11800.0977513'
p2523
sba(igraph
Edge
p2524
(dp2525
g7
I1
sg8
I00
sg9
I5
sg10
(lp2526
g176
ag103
asg26
I00
sg27
I00
sg28
I3711735
sg20
S'11801.9401304'
p2527
sba(igraph
Edge
p2528
(dp2529
g7
I1
sg8
I00
sg9
I5
sg10
(lp2530
g103
ag96
asg26
I00
sg27
I00
sg28
I3711736
sg20
S'11803.8720877'
p2531
sba(igraph
Edge
p2532
(dp2533
g7
I1
sg8
I00
sg9
I5
sg10
(lp2534
g96
ag12
asg26
I00
sg27
I00
sg28
I3711737
sg20
S'11805.9842815'
p2535
sba(igraph
Edge
p2536
(dp2537
g7
I1
sg8
I00
sg9
I5
sg10
(lp2538
g12
ag1136
asg26
I00
sg27
I00
sg28
I3711738
sg20
S'11808.29044'
p2539
sbasS'vertices'
p2540
(lp2541
g12
ag23
ag33
ag40
ag47
ag54
ag61
ag68
ag75
ag82
ag89
ag96
ag103
ag106
ag113
ag120
ag127
ag134
ag141
ag148
ag155
ag162
ag169
ag176
ag183
ag186
ag193
ag200
ag207
ag214
ag221
ag228
ag235
ag242
ag249
ag256
ag263
ag266
ag273
ag280
ag287
ag294
ag301
ag308
ag315
ag322
ag329
ag336
ag343
ag346
ag353
ag360
ag367
ag374
ag381
ag388
ag395
ag402
ag409
ag416
ag423
ag426
ag433
ag440
ag447
ag454
ag461
ag468
ag475
ag482
ag489
ag496
ag503
ag506
ag513
ag520
ag527
ag534
ag541
ag548
ag555
ag562
ag569
ag576
ag583
ag586
ag593
ag600
ag607
ag614
ag621
ag628
ag635
ag642
ag649
ag656
ag663
ag666
ag673
ag680
ag687
ag694
ag701
ag708
ag715
ag722
ag729
ag736
ag743
ag746
ag753
ag760
ag767
ag774
ag781
ag788
ag795
ag802
ag809
ag816
ag823
ag826
ag833
ag840
ag847
ag854
ag861
ag868
ag875
ag882
ag889
ag896
ag903
ag906
ag913
ag920
ag927
ag934
ag941
ag948
ag955
ag962
ag969
ag976
ag983
ag986
ag993
ag1000
ag1007
ag1014
ag1021
ag1028
ag1035
ag1042
ag1049
ag1056
ag1063
ag1066
ag1073
ag1080
ag1087
ag1094
ag1101
ag1108
ag1115
ag1122
ag1129
ag1136
asS'tags'
p2542
(lp2543
sb.