(igraph
Graph
p0
(dp1
S'labelingConstraints'
p2
I-1
sS'edges'
p3
(lp4
(igraph
Edge
p5
(dp6
S'direction'
p7
I1
sS'selected'
p8
I00
sS'height'
p9
I5
sS'vs'
p10
(lp11
(igraph
Vertex
p12
(dp13
S'y'
p14
F-83.681362760058519
sS'x'
p15
F-162.68957117481725
sS'circle'
p16
I6838402
sg8
I00
sS'id'
p17
S'16157.6047542'
p18
sS'label'
p19
S'NULL'
p20
sba(igraph
Vertex
p21
(dp22
g14
F-83.681362760058519
sg15
F-119.79141625632374
sg16
I6838403
sg8
I00
sg17
S'16157.6047855'
p23
sg19
g20
sbasS'wrap'
p24
I00
sS'curved'
p25
I00
sS'line'
p26
I6837897
sg17
S'16157.7570789'
p27
sba(igraph
Edge
p28
(dp29
g7
I1
sg8
I00
sg9
I5
sg10
(lp30
(igraph
Vertex
p31
(dp32
g14
F-48.495862834210968
sg15
F-162.68957117481725
sg16
I6838404
sg8
I00
sg17
S'16157.6048073'
p33
sg19
g20
sba(igraph
Vertex
p34
(dp35
g14
F-48.495862834210968
sg15
F-119.79141625632374
sg16
I6838405
sg8
I00
sg17
S'16157.6048353'
p36
sg19
g20
sbasg24
I00
sg25
I00
sg26
I6837898
sg17
S'16157.7571429'
p37
sba(igraph
Edge
p38
(dp39
g7
I1
sg8
I00
sg9
I5
sg10
(lp40
(igraph
Vertex
p41
(dp42
g14
F-13.310362908363331
sg15
F-162.68957117481725
sg16
I6838406
sg8
I00
sg17
S'16157.6048721'
p43
sg19
g20
sba(igraph
Vertex
p44
(dp45
g14
F-13.310362908363331
sg15
F-119.79141625632374
sg16
I6838407
sg8
I00
sg17
S'16157.6049146'
p46
sg19
g20
sbasg24
I00
sg25
I00
sg26
I6837899
sg17
S'16157.7572272'
p47
sba(igraph
Edge
p48
(dp49
g7
I1
sg8
I00
sg9
I5
sg10
(lp50
g12
ag31
asg24
I00
sg25
I00
sg26
I6837900
sg17
S'16157.7573309'
p51
sba(igraph
Edge
p52
(dp53
g7
I1
sg8
I00
sg9
I5
sg10
(lp54
g21
ag34
asg24
I00
sg25
I00
sg26
I6837901
sg17
S'16157.7574569'
p55
sba(igraph
Edge
p56
(dp57
g7
I1
sg8
I00
sg9
I5
sg10
(lp58
g31
ag41
asg24
I00
sg25
I00
sg26
I6837902
sg17
S'16157.7576077'
p59
sba(igraph
Edge
p60
(dp61
g7
I1
sg8
I00
sg9
I5
sg10
(lp62
g34
ag44
asg24
I00
sg25
I00
sg26
I6837903
sg17
S'16157.7577846'
p63
sba(igraph
Edge
p64
(dp65
g7
I1
sg8
I00
sg9
I5
sg10
(lp66
g21
ag31
asg24
I00
sg25
I00
sg26
I6837904
sg17
S'16157.7579796'
p67
sba(igraph
Edge
p68
(dp69
g7
I1
sg8
I00
sg9
I5
sg10
(lp70
g34
ag41
asg24
I00
sg25
I00
sg26
I6837905
sg17
S'16157.7581958'
p71
sba(igraph
Edge
p72
(dp73
g7
I1
sg8
I00
sg9
I5
sg10
(lp74
(igraph
Vertex
p75
(dp76
g14
F-83.720217913350936
sg15
F-73.498253985384991
sg16
I6838408
sg8
I00
sg17
S'16157.6049677'
p77
sg19
g20
sba(igraph
Vertex
p78
(dp79
g14
F-83.720217913350936
sg15
F-30.600099066891488
sg16
I6838409
sg8
I00
sg17
S'16157.6050283'
p80
sg19
g20
sbasg24
I00
sg25
I00
sg26
I6837906
sg17
S'16157.7584366'
p81
sba(igraph
Edge
p82
(dp83
g7
I1
sg8
I00
sg9
I5
sg10
(lp84
g78
a(igraph
Vertex
p85
(dp86
g14
F-83.720217913350936
sg15
F12.298055851602072
sg16
I6838410
sg8
I00
sg17
S'16157.6050967'
p87
sg19
g20
sbasg24
I00
sg25
I00
sg26
I6837907
sg17
S'16157.7587045'
p88
sba(igraph
Edge
p89
(dp90
g7
I1
sg8
I00
sg9
I5
sg10
(lp91
(igraph
Vertex
p92
(dp93
g14
F-48.534717987503356
sg15
F-73.498253985384991
sg16
I6838411
sg8
I00
sg17
S'16157.6051727'
p94
sg19
g20
sba(igraph
Vertex
p95
(dp96
g14
F-48.534717987503356
sg15
F-30.600099066891488
sg16
I6838412
sg8
I00
sg17
S'16157.6052571'
p97
sg19
g20
sbasg24
I00
sg25
I00
sg26
I6837908
sg17
S'16157.7589951'
p98
sba(igraph
Edge
p99
(dp100
g7
I1
sg8
I00
sg9
I5
sg10
(lp101
g95
a(igraph
Vertex
p102
(dp103
g14
F-48.534717987503356
sg15
F12.298055851602072
sg16
I6838413
sg8
I00
sg17
S'16157.6054133'
p104
sg19
g20
sbasg24
I00
sg25
I00
sg26
I6837909
sg17
S'16157.759304'
p105
sba(igraph
Edge
p106
(dp107
g7
I1
sg8
I00
sg9
I5
sg10
(lp108
(igraph
Vertex
p109
(dp110
g14
F-13.349218061655719
sg15
F-73.498253985384991
sg16
I6838414
sg8
I00
sg17
S'16157.6055163'
p111
sg19
g20
sba(igraph
Vertex
p112
(dp113
g14
F-13.349218061655719
sg15
F-30.600099066891488
sg16
I6838415
sg8
I00
sg17
S'16157.6056273'
p114
sg19
g20
sbasg24
I00
sg25
I00
sg26
I6837910
sg17
S'16157.759751'
p115
sba(igraph
Edge
p116
(dp117
g7
I1
sg8
I00
sg9
I5
sg10
(lp118
g112
a(igraph
Vertex
p119
(dp120
g14
F-13.349218061655719
sg15
F12.298055851602072
sg16
I6838416
sg8
I00
sg17
S'16157.6057451'
p121
sg19
g20
sbasg24
I00
sg25
I00
sg26
I6837911
sg17
S'16157.7601058'
p122
sba(igraph
Edge
p123
(dp124
g7
I1
sg8
I00
sg9
I5
sg10
(lp125
g75
ag92
asg24
I00
sg25
I00
sg26
I6837912
sg17
S'16157.7604827'
p126
sba(igraph
Edge
p127
(dp128
g7
I1
sg8
I00
sg9
I5
sg10
(lp129
g78
ag95
asg24
I00
sg25
I00
sg26
I6837913
sg17
S'16157.7608853'
p130
sba(igraph
Edge
p131
(dp132
g7
I1
sg8
I00
sg9
I5
sg10
(lp133
g92
ag109
asg24
I00
sg25
I00
sg26
I6837914
sg17
S'16157.7613035'
p134
sba(igraph
Edge
p135
(dp136
g7
I1
sg8
I00
sg9
I5
sg10
(lp137
g95
ag112
asg24
I00
sg25
I00
sg26
I6837915
sg17
S'16157.7617507'
p138
sba(igraph
Edge
p139
(dp140
g7
I1
sg8
I00
sg9
I5
sg10
(lp141
g102
ag119
asg24
I00
sg25
I00
sg26
I6837916
sg17
S'16157.7622173'
p142
sba(igraph
Edge
p143
(dp144
g7
I1
sg8
I00
sg9
I5
sg10
(lp145
g78
ag92
asg24
I00
sg25
I00
sg26
I6837917
sg17
S'16157.7630473'
p146
sba(igraph
Edge
p147
(dp148
g7
I1
sg8
I00
sg9
I5
sg10
(lp149
g95
ag109
asg24
I00
sg25
I00
sg26
I6837918
sg17
S'16157.763563'
p150
sba(igraph
Edge
p151
(dp152
g7
I1
sg8
I00
sg9
I5
sg10
(lp153
g85
ag95
asg24
I00
sg25
I00
sg26
I6837919
sg17
S'16157.7640963'
p154
sba(igraph
Edge
p155
(dp156
g7
I1
sg8
I00
sg9
I5
sg10
(lp157
g102
ag112
asg24
I00
sg25
I00
sg26
I6837920
sg17
S'16157.7646553'
p158
sba(igraph
Edge
p159
(dp160
g7
I1
sg8
I00
sg9
I5
sg10
(lp161
g21
ag75
asg24
I00
sg25
I00
sg26
I6837921
sg17
S'16157.765228'
p162
sba(igraph
Edge
p163
(dp164
g7
I1
sg8
I00
sg9
I5
sg10
(lp165
g34
ag75
asg24
I00
sg25
I00
sg26
I6837922
sg17
S'16157.7658278'
p166
sba(igraph
Edge
p167
(dp168
g7
I1
sg8
I00
sg9
I5
sg10
(lp169
g34
ag92
asg24
I00
sg25
I00
sg26
I6837923
sg17
S'16157.766455'
p170
sba(igraph
Edge
p171
(dp172
g7
I1
sg8
I00
sg9
I5
sg10
(lp173
g44
ag92
asg24
I00
sg25
I00
sg26
I6837924
sg17
S'16157.7670925'
p174
sba(igraph
Edge
p175
(dp176
g7
I1
sg8
I00
sg9
I5
sg10
(lp177
g44
ag109
asg24
I00
sg25
I00
sg26
I6837925
sg17
S'16157.7680398'
p178
sba(igraph
Edge
p179
(dp180
g7
I1
sg8
I00
sg9
I5
sg10
(lp181
(igraph
Vertex
p182
(dp183
g14
F-83.823406472809907
sg15
F57.244193367060149
sg16
I6838417
sg8
I00
sg17
S'16157.6058731'
p184
sg19
g20
sba(igraph
Vertex
p185
(dp186
g14
F-83.823406472809907
sg15
F100.14234828555371
sg16
I6838418
sg8
I00
sg17
S'16157.606008'
p187
sg19
g20
sbasg24
I00
sg25
I00
sg26
I6837926
sg17
S'16157.768905'
p188
sba(igraph
Edge
p189
(dp190
g7
I1
sg8
I00
sg9
I5
sg10
(lp191
g185
a(igraph
Vertex
p192
(dp193
g14
F-83.823406472809907
sg15
F143.04050320404721
sg16
I6838420
sg8
I01
sg17
S'16157.6061511'
p194
sg19
I0
sbasg24
I00
sg25
I00
sg26
I6837927
sg17
S'16157.7697009'
p195
sba(igraph
Edge
p196
(dp197
g7
I1
sg8
I00
sg9
I5
sg10
(lp198
(igraph
Vertex
p199
(dp200
g14
F-48.637906546962355
sg15
F57.244193367060149
sg16
I6838423
sg8
I01
sg17
S'16157.6064584'
p201
sg19
I0
sba(igraph
Vertex
p202
(dp203
g14
F-48.637906546962355
sg15
F100.14234828555371
sg16
I6838425
sg8
I00
sg17
S'16157.6066235'
p204
sg19
g20
sbasg24
I00
sg25
I00
sg26
I6837928
sg17
S'16157.7705133'
p205
sba(igraph
Edge
p206
(dp207
g7
I1
sg8
I00
sg9
I5
sg10
(lp208
g202
a(igraph
Vertex
p209
(dp210
g14
F-49.267903930971144
sg15
F140.7148753850478
sg16
I6838426
sg8
I00
sg17
S'16157.6067942'
p211
sg19
g20
sbasg24
I00
sg25
I00
sg26
I6837929
sg17
S'16157.7713475'
p212
sba(igraph
Edge
p213
(dp214
g7
I1
sg8
I00
sg9
I5
sg10
(lp215
(igraph
Vertex
p216
(dp217
g14
F-13.452406621114662
sg15
F57.244193367060149
sg16
I6838427
sg8
I00
sg17
S'16157.606973'
p218
sg19
g20
sba(igraph
Vertex
p219
(dp220
g14
F-13.452406621114662
sg15
F100.14234828555371
sg16
I6838428
sg8
I00
sg17
S'16157.6071646'
p221
sg19
g20
sbasg24
I00
sg25
I00
sg26
I6837930
sg17
S'16157.772218'
p222
sba(igraph
Edge
p223
(dp224
g7
I1
sg8
I00
sg9
I5
sg10
(lp225
g219
a(igraph
Vertex
p226
(dp227
g14
F-13.452406621114662
sg15
F143.04050320404721
sg16
I6838429
sg8
I00
sg17
S'16157.6073663'
p228
sg19
g20
sbasg24
I00
sg25
I00
sg26
I6837931
sg17
S'16157.7736807'
p229
sba(igraph
Edge
p230
(dp231
g7
I1
sg8
I00
sg9
I5
sg10
(lp232
g182
ag199
asg24
I00
sg25
I00
sg26
I6837932
sg17
S'16157.7746077'
p233
sba(igraph
Edge
p234
(dp235
g7
I1
sg8
I00
sg9
I5
sg10
(lp236
g185
ag202
asg24
I00
sg25
I00
sg26
I6837933
sg17
S'16157.7755642'
p237
sba(igraph
Edge
p238
(dp239
g7
I1
sg8
I00
sg9
I5
sg10
(lp240
g192
ag209
asg24
I00
sg25
I00
sg26
I6837934
sg17
S'16157.7765445'
p241
sba(igraph
Edge
p242
(dp243
g7
I1
sg8
I00
sg9
I5
sg10
(lp244
g199
ag216
asg24
I00
sg25
I00
sg26
I6837935
sg17
S'16157.7776008'
p245
sba(igraph
Edge
p246
(dp247
g7
I1
sg8
I00
sg9
I5
sg10
(lp248
g202
ag219
asg24
I00
sg25
I00
sg26
I6837936
sg17
S'16157.7787632'
p249
sba(igraph
Edge
p250
(dp251
g7
I1
sg8
I00
sg9
I5
sg10
(lp252
g209
ag226
asg24
I00
sg25
I00
sg26
I6837937
sg17
S'16157.7798016'
p253
sba(igraph
Edge
p254
(dp255
g7
I1
sg8
I00
sg9
I5
sg10
(lp256
g185
ag199
asg24
I00
sg25
I00
sg26
I6837938
sg17
S'16157.7808495'
p257
sba(igraph
Edge
p258
(dp259
g7
I1
sg8
I00
sg9
I5
sg10
(lp260
g202
ag216
asg24
I00
sg25
I00
sg26
I6837939
sg17
S'16157.7819256'
p261
sba(igraph
Edge
p262
(dp263
g7
I1
sg8
I00
sg9
I5
sg10
(lp264
g192
ag202
asg24
I00
sg25
I00
sg26
I6837940
sg17
S'16157.7830794'
p265
sba(igraph
Edge
p266
(dp267
g7
I1
sg8
I00
sg9
I5
sg10
(lp268
g209
ag219
asg24
I00
sg25
I00
sg26
I6837941
sg17
S'16157.7843067'
p269
sba(igraph
Edge
p270
(dp271
g7
I1
sg8
I00
sg9
I5
sg10
(lp272
(igraph
Vertex
p273
(dp274
g14
F-83.862261626102267
sg15
F189.33366547498602
sg16
I6838430
sg8
I00
sg17
S'16157.6075753'
p275
sg19
g20
sba(igraph
Vertex
p276
(dp277
g14
F-48.676761700254687
sg15
F189.33366547498602
sg16
I6838431
sg8
I00
sg17
S'16157.6077901'
p278
sg19
g20
sbasg24
I00
sg25
I00
sg26
I6837942
sg17
S'16157.7855183'
p279
sba(igraph
Edge
p280
(dp281
g7
I1
sg8
I00
sg9
I5
sg10
(lp282
g276
a(igraph
Vertex
p283
(dp284
g14
F-13.49126177440705
sg15
F189.33366547498602
sg16
I6838432
sg8
I00
sg17
S'16157.6080097'
p285
sg19
g20
sbasg24
I00
sg25
I00
sg26
I6837943
sg17
S'16157.7867103'
p286
sba(igraph
Edge
p287
(dp288
g7
I1
sg8
I00
sg9
I5
sg10
(lp289
g192
ag273
asg24
I00
sg25
I00
sg26
I6837944
sg17
S'16157.7879851'
p290
sba(igraph
Edge
p291
(dp292
g7
I1
sg8
I00
sg9
I5
sg10
(lp293
g209
ag273
asg24
I00
sg25
I00
sg26
I6837945
sg17
S'16157.7900035'
p294
sba(igraph
Edge
p295
(dp296
g7
I1
sg8
I00
sg9
I5
sg10
(lp297
g209
ag276
asg24
I00
sg25
I00
sg26
I6837946
sg17
S'16157.7912774'
p298
sba(igraph
Edge
p299
(dp300
g7
I1
sg8
I00
sg9
I5
sg10
(lp301
g226
ag276
asg24
I00
sg25
I00
sg26
I6837947
sg17
S'16157.7928695'
p302
sba(igraph
Edge
p303
(dp304
g7
I1
sg8
I00
sg9
I5
sg10
(lp305
g226
ag283
asg24
I00
sg25
I00
sg26
I6837948
sg17
S'16157.7941836'
p306
sba(igraph
Edge
p307
(dp308
g7
I1
sg8
I00
sg9
I5
sg10
(lp309
g85
ag182
asg24
I00
sg25
I00
sg26
I6837949
sg17
S'16157.7955422'
p310
sba(igraph
Edge
p311
(dp312
g7
I1
sg8
I00
sg9
I5
sg10
(lp313
g102
ag182
asg24
I00
sg25
I00
sg26
I6837950
sg17
S'16157.7969759'
p314
sba(igraph
Edge
p315
(dp316
g7
I1
sg8
I00
sg9
I5
sg10
(lp317
g102
ag199
asg24
I00
sg25
I00
sg26
I6837951
sg17
S'16157.7983822'
p318
sba(igraph
Edge
p319
(dp320
g7
I1
sg8
I00
sg9
I5
sg10
(lp321
g119
ag199
asg24
I00
sg25
I00
sg26
I6837952
sg17
S'16157.7999964'
p322
sba(igraph
Edge
p323
(dp324
g7
I1
sg8
I00
sg9
I5
sg10
(lp325
g119
ag216
asg24
I00
sg25
I00
sg26
I6837953
sg17
S'16157.8014264'
p326
sba(igraph
Edge
p327
(dp328
g7
I1
sg8
I00
sg9
I5
sg10
(lp329
(igraph
Vertex
p330
(dp331
g14
F-115.19924561725522
sg15
F-162.16286648679025
sg16
I6838433
sg8
I00
sg17
S'16157.6084581'
p332
sg19
g20
sba(igraph
Vertex
p333
(dp334
g14
F-115.19924561725522
sg15
F-119.26471156829675
sg16
I6838434
sg8
I00
sg17
S'16157.6087106'
p335
sg19
g20
sbasg24
I00
sg25
I00
sg26
I6837954
sg17
S'16157.8030001'
p336
sba(igraph
Edge
p337
(dp338
g7
I1
sg8
I00
sg9
I5
sg10
(lp339
(igraph
Vertex
p340
(dp341
g14
F-115.2381007705476
sg15
F-72.971549297357996
sg16
I6838435
sg8
I00
sg17
S'16157.6089598'
p342
sg19
g20
sba(igraph
Vertex
p343
(dp344
g14
F-115.2381007705476
sg15
F-30.073394378864492
sg16
I6838436
sg8
I00
sg17
S'16157.6094037'
p345
sg19
g20
sbasg24
I00
sg25
I00
sg26
I6837955
sg17
S'16157.8045341'
p346
sba(igraph
Edge
p347
(dp348
g7
I1
sg8
I00
sg9
I5
sg10
(lp349
g343
a(igraph
Vertex
p350
(dp351
g14
F-115.2381007705476
sg15
F12.824760539629068
sg16
I6838437
sg8
I00
sg17
S'16157.6096769'
p352
sg19
g20
sbasg24
I00
sg25
I00
sg26
I6837956
sg17
S'16157.8061268'
p353
sba(igraph
Edge
p354
(dp355
g7
I1
sg8
I00
sg9
I5
sg10
(lp356
g333
ag340
asg24
I00
sg25
I00
sg26
I6837957
sg17
S'16157.8077488'
p357
sba(igraph
Edge
p358
(dp359
g7
I1
sg8
I00
sg9
I5
sg10
(lp360
(igraph
Vertex
p361
(dp362
g14
F-115.34128933000666
sg15
F57.770898055087144
sg16
I6838438
sg8
I00
sg17
S'16157.6099493'
p363
sg19
g20
sba(igraph
Vertex
p364
(dp365
g14
F-115.34128933000666
sg15
F100.66905297358065
sg16
I6838439
sg8
I00
sg17
S'16157.6102304'
p366
sg19
g20
sbasg24
I00
sg25
I00
sg26
I6837958
sg17
S'16157.8093297'
p367
sba(igraph
Edge
p368
(dp369
g7
I1
sg8
I00
sg9
I5
sg10
(lp370
g364
a(igraph
Vertex
p371
(dp372
g14
F-115.34128933000666
sg15
F143.56720789207421
sg16
I6838440
sg8
I00
sg17
S'16157.6105175'
p373
sg19
g20
sbasg24
I00
sg25
I00
sg26
I6837959
sg17
S'16157.8111076'
p374
sba(igraph
Edge
p375
(dp376
g7
I1
sg8
I00
sg9
I5
sg10
(lp377
g371
a(igraph
Vertex
p378
(dp379
g14
F-115.38014448329899
sg15
F189.86037016301302
sg16
I6838441
sg8
I00
sg17
S'16157.6108151'
p380
sg19
g20
sbasg24
I00
sg25
I00
sg26
I6837960
sg17
S'16157.8127301'
p381
sba(igraph
Edge
p382
(dp383
g7
I1
sg8
I00
sg9
I5
sg10
(lp384
g350
ag361
asg24
I00
sg25
I00
sg26
I6837961
sg17
S'16157.8144423'
p385
sba(igraph
Edge
p386
(dp387
g7
I1
sg8
I00
sg9
I5
sg10
(lp388
g12
ag330
asg24
I00
sg25
I00
sg26
I6837962
sg17
S'16157.8160568'
p389
sba(igraph
Edge
p390
(dp391
g7
I1
sg8
I00
sg9
I5
sg10
(lp392
g12
ag333
asg24
I00
sg25
I00
sg26
I6837963
sg17
S'16157.8177944'
p393
sba(igraph
Edge
p394
(dp395
g7
I1
sg8
I00
sg9
I5
sg10
(lp396
g21
ag333
asg24
I00
sg25
I00
sg26
I6837964
sg17
S'16157.8195257'
p397
sba(igraph
Edge
p398
(dp399
g7
I1
sg8
I00
sg9
I5
sg10
(lp400
g21
ag340
asg24
I00
sg25
I00
sg26
I6837965
sg17
S'16157.8210703'
p401
sba(igraph
Edge
p402
(dp403
g7
I1
sg8
I00
sg9
I5
sg10
(lp404
g75
ag340
asg24
I00
sg25
I00
sg26
I6837966
sg17
S'16157.8227275'
p405
sba(igraph
Edge
p406
(dp407
g7
I1
sg8
I00
sg9
I5
sg10
(lp408
g75
ag343
asg24
I00
sg25
I00
sg26
I6837967
sg17
S'16157.8246327'
p409
sba(igraph
Edge
p410
(dp411
g7
I1
sg8
I00
sg9
I5
sg10
(lp412
g78
ag343
asg24
I00
sg25
I00
sg26
I6837968
sg17
S'16157.8264137'
p413
sba(igraph
Edge
p414
(dp415
g7
I1
sg8
I00
sg9
I5
sg10
(lp416
g78
ag350
asg24
I00
sg25
I00
sg26
I6837969
sg17
S'16157.8282086'
p417
sba(igraph
Edge
p418
(dp419
g7
I1
sg8
I00
sg9
I5
sg10
(lp420
g85
ag350
asg24
I00
sg25
I00
sg26
I6837970
sg17
S'16157.8301052'
p421
sba(igraph
Edge
p422
(dp423
g7
I1
sg8
I00
sg9
I5
sg10
(lp424
g85
ag361
asg24
I00
sg25
I00
sg26
I6837971
sg17
S'16157.8317742'
p425
sba(igraph
Edge
p426
(dp427
g7
I1
sg8
I00
sg9
I5
sg10
(lp428
g182
ag361
asg24
I00
sg25
I00
sg26
I6837972
sg17
S'16157.8335389'
p429
sba(igraph
Edge
p430
(dp431
g7
I1
sg8
I00
sg9
I5
sg10
(lp432
g182
ag364
asg24
I00
sg25
I00
sg26
I6837973
sg17
S'16157.8354601'
p433
sba(igraph
Edge
p434
(dp435
g7
I1
sg8
I00
sg9
I5
sg10
(lp436
g185
ag364
asg24
I00
sg25
I00
sg26
I6837974
sg17
S'16157.8372112'
p437
sba(igraph
Edge
p438
(dp439
g7
I1
sg8
I00
sg9
I5
sg10
(lp440
g185
ag371
asg24
I00
sg25
I00
sg26
I6837975
sg17
S'16157.8391089'
p441
sba(igraph
Edge
p442
(dp443
g7
I1
sg8
I00
sg9
I5
sg10
(lp444
g192
ag371
asg24
I00
sg25
I00
sg26
I6837976
sg17
S'16157.8408806'
p445
sba(igraph
Edge
p446
(dp447
g7
I1
sg8
I00
sg9
I5
sg10
(lp448
g192
ag378
asg24
I00
sg25
I00
sg26
I6837977
sg17
S'16157.8436106'
p449
sba(igraph
Edge
p450
(dp451
g7
I1
sg8
I00
sg9
I5
sg10
(lp452
g273
ag378
asg24
I00
sg25
I00
sg26
I6837978
sg17
S'16157.8460799'
p453
sba(igraph
Edge
p454
(dp455
g7
I1
sg8
I00
sg9
I5
sg10
(lp456
(igraph
Vertex
p457
(dp458
g14
F20.280311047958165
sg15
F-162.69535255761659
sg16
I6838442
sg8
I00
sg17
S'16157.6111204'
p459
sg19
g20
sba(igraph
Vertex
p460
(dp461
g14
F20.280311047958165
sg15
F-119.79719763912308
sg16
I6838443
sg8
I00
sg17
S'16157.6114325'
p462
sg19
g20
sbasg24
I00
sg25
I00
sg26
I6837979
sg17
S'16157.8480103'
p463
sba(igraph
Edge
p464
(dp465
g7
I1
sg8
I00
sg9
I5
sg10
(lp466
(igraph
Vertex
p467
(dp468
g14
F20.235856680435816
sg15
F-73.504035368184333
sg16
I6838444
sg8
I00
sg17
S'16157.611754'
p469
sg19
g20
sba(igraph
Vertex
p470
(dp471
g14
F20.235856680435816
sg15
F-30.605880449690773
sg16
I6838445
sg8
I00
sg17
S'16157.6120873'
p472
sg19
g20
sbasg24
I00
sg25
I00
sg26
I6837980
sg17
S'16157.8499787'
p473
sba(igraph
Edge
p474
(dp475
g7
I1
sg8
I00
sg9
I5
sg10
(lp476
g470
a(igraph
Vertex
p477
(dp478
g14
F20.235856680435816
sg15
F12.292274468802731
sg16
I6838447
sg8
I01
sg17
S'16157.6124493'
p479
sg19
I0
sbasg24
I00
sg25
I00
sg26
I6837981
sg17
S'16157.851915'
p480
sba(igraph
Edge
p481
(dp482
g7
I1
sg8
I00
sg9
I5
sg10
(lp483
g460
ag467
asg24
I00
sg25
I00
sg26
I6837982
sg17
S'16157.8543826'
p484
sba(igraph
Edge
p485
(dp486
g7
I1
sg8
I00
sg9
I5
sg10
(lp487
(igraph
Vertex
p488
(dp489
g14
F20.117798153893162
sg15
F57.238411984260807
sg16
I6838449
sg8
I00
sg17
S'16157.6127986'
p490
sg19
g20
sba(igraph
Vertex
p491
(dp492
g14
F20.117798153893162
sg15
F100.13656690275437
sg16
I6838450
sg8
I00
sg17
S'16157.6131648'
p493
sg19
g20
sbasg24
I00
sg25
I00
sg26
I6837983
sg17
S'16157.8565167'
p494
sba(igraph
Edge
p495
(dp496
g7
I1
sg8
I00
sg9
I5
sg10
(lp497
g491
a(igraph
Vertex
p498
(dp499
g14
F20.117798153893162
sg15
F143.03472182124787
sg16
I6838451
sg8
I00
sg17
S'16157.6135319'
p500
sg19
g20
sbasg24
I00
sg25
I00
sg26
I6837984
sg17
S'16157.8585183'
p501
sba(igraph
Edge
p502
(dp503
g7
I1
sg8
I00
sg9
I5
sg10
(lp504
g498
a(igraph
Vertex
p505
(dp506
g14
F20.073343786370927
sg15
F189.32788409218668
sg16
I6838452
sg8
I00
sg17
S'16157.6139062'
p507
sg19
g20
sbasg24
I00
sg25
I00
sg26
I6837985
sg17
S'16157.8605267'
p508
sba(igraph
Edge
p509
(dp510
g7
I1
sg8
I00
sg9
I5
sg10
(lp511
g477
ag488
asg24
I00
sg25
I00
sg26
I6837986
sg17
S'16157.8625596'
p512
sba(igraph
Edge
p513
(dp514
g7
I1
sg8
I00
sg9
I5
sg10
(lp515
g41
ag457
asg24
I00
sg25
I00
sg26
I6837987
sg17
S'16157.8647504'
p516
sba(igraph
Edge
p517
(dp518
g7
I1
sg8
I00
sg9
I5
sg10
(lp519
g44
ag457
asg24
I00
sg25
I00
sg26
I6837988
sg17
S'16157.8671189'
p520
sba(igraph
Edge
p521
(dp522
g7
I1
sg8
I00
sg9
I5
sg10
(lp523
g44
ag460
asg24
I00
sg25
I00
sg26
I6837989
sg17
S'16157.8692487'
p524
sba(igraph
Edge
p525
(dp526
g7
I1
sg8
I00
sg9
I5
sg10
(lp527
g109
ag460
asg24
I00
sg25
I00
sg26
I6837990
sg17
S'16157.8724232'
p528
sba(igraph
Edge
p529
(dp530
g7
I1
sg8
I00
sg9
I5
sg10
(lp531
g109
ag467
asg24
I00
sg25
I00
sg26
I6837991
sg17
S'16157.8746145'
p532
sba(igraph
Edge
p533
(dp534
g7
I1
sg8
I00
sg9
I5
sg10
(lp535
g112
ag467
asg24
I00
sg25
I00
sg26
I6837992
sg17
S'16157.8769274'
p536
sba(igraph
Edge
p537
(dp538
g7
I1
sg8
I00
sg9
I5
sg10
(lp539
g112
ag470
asg24
I00
sg25
I00
sg26
I6837993
sg17
S'16157.8791522'
p540
sba(igraph
Edge
p541
(dp542
g7
I1
sg8
I00
sg9
I5
sg10
(lp543
g119
ag470
asg24
I00
sg25
I00
sg26
I6837994
sg17
S'16157.8813589'
p544
sba(igraph
Edge
p545
(dp546
g7
I1
sg8
I00
sg9
I5
sg10
(lp547
g119
ag477
asg24
I00
sg25
I00
sg26
I6837995
sg17
S'16157.8836274'
p548
sba(igraph
Edge
p549
(dp550
g7
I1
sg8
I00
sg9
I5
sg10
(lp551
g216
ag477
asg24
I00
sg25
I00
sg26
I6837996
sg17
S'16157.885921'
p552
sba(igraph
Edge
p553
(dp554
g7
I1
sg8
I00
sg9
I5
sg10
(lp555
g216
ag488
asg24
I00
sg25
I00
sg26
I6837997
sg17
S'16157.8881911'
p556
sba(igraph
Edge
p557
(dp558
g7
I1
sg8
I00
sg9
I5
sg10
(lp559
g219
ag488
asg24
I00
sg25
I00
sg26
I6837998
sg17
S'16157.8906783'
p560
sba(igraph
Edge
p561
(dp562
g7
I1
sg8
I00
sg9
I5
sg10
(lp563
g219
ag491
asg24
I00
sg25
I00
sg26
I6837999
sg17
S'16157.8934138'
p564
sba(igraph
Edge
p565
(dp566
g7
I1
sg8
I00
sg9
I5
sg10
(lp567
g226
ag491
asg24
I00
sg25
I00
sg26
I6838000
sg17
S'16157.896255'
p568
sba(igraph
Edge
p569
(dp570
g7
I1
sg8
I00
sg9
I5
sg10
(lp571
g226
ag498
asg24
I00
sg25
I00
sg26
I6838001
sg17
S'16157.8992917'
p572
sba(igraph
Edge
p573
(dp574
g7
I1
sg8
I00
sg9
I5
sg10
(lp575
g283
ag498
asg24
I00
sg25
I00
sg26
I6838002
sg17
S'16157.90227'
p576
sba(igraph
Edge
p577
(dp578
g7
I1
sg8
I00
sg9
I5
sg10
(lp579
g283
ag505
asg24
I00
sg25
I00
sg26
I6838003
sg17
S'16157.9050779'
p580
sba(igraph
Edge
p581
(dp582
g7
I1
sg8
I00
sg9
I5
sg10
(lp583
(igraph
Vertex
p584
(dp585
g14
F54.015298641010318
sg15
F-160.69535255761659
sg16
I6838453
sg8
I00
sg17
S'16157.6144625'
p586
sg19
g20
sba(igraph
Vertex
p587
(dp588
g14
F54.015298641010318
sg15
F-117.79719763912308
sg16
I6838454
sg8
I00
sg17
S'16157.6148561'
p589
sg19
g20
sbasg24
I00
sg25
I00
sg26
I6838004
sg17
S'16157.9078713'
p590
sba(igraph
Edge
p591
(dp592
g7
I1
sg8
I00
sg9
I5
sg10
(lp593
(igraph
Vertex
p594
(dp595
g14
F53.97084427348797
sg15
F-71.504035368184333
sg16
I6838456
sg8
I01
sg17
S'16157.6152897'
p596
sg19
I0
sba(igraph
Vertex
p597
(dp598
g14
F53.97084427348797
sg15
F-28.605880449690773
sg16
I6838458
sg8
I00
sg17
S'16157.6156953'
p599
sg19
g20
sbasg24
I00
sg25
I00
sg26
I6838005
sg17
S'16157.9112248'
p600
sba(igraph
Edge
p601
(dp602
g7
I1
sg8
I00
sg9
I5
sg10
(lp603
g597
a(igraph
Vertex
p604
(dp605
g14
F53.97084427348797
sg15
F14.292274468802731
sg16
I6838459
sg8
I00
sg17
S'16157.6161562'
p606
sg19
g20
sbasg24
I00
sg25
I00
sg26
I6838006
sg17
S'16157.9143587'
p607
sba(igraph
Edge
p608
(dp609
g7
I1
sg8
I00
sg9
I5
sg10
(lp610
g587
ag594
asg24
I00
sg25
I00
sg26
I6838007
sg17
S'16157.9174862'
p611
sba(igraph
Edge
p612
(dp613
g7
I1
sg8
I00
sg9
I5
sg10
(lp614
(igraph
Vertex
p615
(dp616
g14
F53.852785746945315
sg15
F59.238411984260807
sg16
I6838460
sg8
I00
sg17
S'16157.6165831'
p617
sg19
g20
sba(igraph
Vertex
p618
(dp619
g14
F53.852785746945315
sg15
F102.13656690275437
sg16
I6838461
sg8
I00
sg17
S'16157.6170228'
p620
sg19
g20
sbasg24
I00
sg25
I00
sg26
I6838008
sg17
S'16157.9203097'
p621
sba(igraph
Edge
p622
(dp623
g7
I1
sg8
I00
sg9
I5
sg10
(lp624
g618
a(igraph
Vertex
p625
(dp626
g14
F53.852785746945315
sg15
F145.03472182124787
sg16
I6838462
sg8
I00
sg17
S'16157.6174665'
p627
sg19
g20
sbasg24
I00
sg25
I00
sg26
I6838009
sg17
S'16157.9234844'
p628
sba(igraph
Edge
p629
(dp630
g7
I1
sg8
I00
sg9
I5
sg10
(lp631
g625
a(igraph
Vertex
p632
(dp633
g14
F53.80833137942308
sg15
F191.32788409218668
sg16
I6838463
sg8
I00
sg17
S'16157.6179165'
p634
sg19
g20
sbasg24
I00
sg25
I00
sg26
I6838010
sg17
S'16157.9265577'
p635
sba(igraph
Edge
p636
(dp637
g7
I1
sg8
I00
sg9
I5
sg10
(lp638
g604
ag615
asg24
I00
sg25
I00
sg26
I6838011
sg17
S'16157.9297855'
p639
sba(igraph
Edge
p640
(dp641
g7
I1
sg8
I00
sg9
I5
sg10
(lp642
g457
ag584
asg24
I00
sg25
I00
sg26
I6838012
sg17
S'16157.9328797'
p643
sba(igraph
Edge
p644
(dp645
g7
I1
sg8
I00
sg9
I5
sg10
(lp646
g460
ag584
asg24
I00
sg25
I00
sg26
I6838013
sg17
S'16157.9365065'
p647
sba(igraph
Edge
p648
(dp649
g7
I1
sg8
I00
sg9
I5
sg10
(lp650
g460
ag587
asg24
I00
sg25
I00
sg26
I6838014
sg17
S'16157.9396557'
p651
sba(igraph
Edge
p652
(dp653
g7
I1
sg8
I00
sg9
I5
sg10
(lp654
g467
ag587
asg24
I00
sg25
I00
sg26
I6838015
sg17
S'16157.942819'
p655
sba(igraph
Edge
p656
(dp657
g7
I1
sg8
I00
sg9
I5
sg10
(lp658
g467
ag594
asg24
I00
sg25
I00
sg26
I6838016
sg17
S'16157.9468675'
p659
sba(igraph
Edge
p660
(dp661
g7
I1
sg8
I00
sg9
I5
sg10
(lp662
g470
ag594
asg24
I00
sg25
I00
sg26
I6838017
sg17
S'16157.9500747'
p663
sba(igraph
Edge
p664
(dp665
g7
I1
sg8
I00
sg9
I5
sg10
(lp666
g470
ag597
asg24
I00
sg25
I00
sg26
I6838018
sg17
S'16157.9531569'
p667
sba(igraph
Edge
p668
(dp669
g7
I1
sg8
I00
sg9
I5
sg10
(lp670
g477
ag597
asg24
I00
sg25
I00
sg26
I6838019
sg17
S'16157.9558715'
p671
sba(igraph
Edge
p672
(dp673
g7
I1
sg8
I00
sg9
I5
sg10
(lp674
g477
ag604
asg24
I00
sg25
I00
sg26
I6838020
sg17
S'16157.9588596'
p675
sba(igraph
Edge
p676
(dp677
g7
I1
sg8
I00
sg9
I5
sg10
(lp678
g488
ag604
asg24
I00
sg25
I00
sg26
I6838021
sg17
S'16157.9622751'
p679
sba(igraph
Edge
p680
(dp681
g7
I1
sg8
I00
sg9
I5
sg10
(lp682
g488
ag615
asg24
I00
sg25
I00
sg26
I6838022
sg17
S'16157.9652674'
p683
sba(igraph
Edge
p684
(dp685
g7
I1
sg8
I00
sg9
I5
sg10
(lp686
g491
ag615
asg24
I00
sg25
I00
sg26
I6838023
sg17
S'16157.9681742'
p687
sba(igraph
Edge
p688
(dp689
g7
I1
sg8
I00
sg9
I5
sg10
(lp690
g491
ag618
asg24
I00
sg25
I00
sg26
I6838024
sg17
S'16157.9710893'
p691
sba(igraph
Edge
p692
(dp693
g7
I1
sg8
I00
sg9
I5
sg10
(lp694
g498
ag618
asg24
I00
sg25
I00
sg26
I6838025
sg17
S'16157.9740361'
p695
sba(igraph
Edge
p696
(dp697
g7
I1
sg8
I00
sg9
I5
sg10
(lp698
g498
ag625
asg24
I00
sg25
I00
sg26
I6838026
sg17
S'16157.9769216'
p699
sba(igraph
Edge
p700
(dp701
g7
I1
sg8
I00
sg9
I5
sg10
(lp702
g505
ag625
asg24
I00
sg25
I00
sg26
I6838027
sg17
S'16157.9797863'
p703
sba(igraph
Edge
p704
(dp705
g7
I1
sg8
I00
sg9
I5
sg10
(lp706
g505
ag632
asg24
I00
sg25
I00
sg26
I6838028
sg17
S'16157.9827431'
p707
sba(igraph
Edge
p708
(dp709
g7
I1
sg8
I00
sg9
I5
sg10
(lp710
(igraph
Vertex
p711
(dp712
g14
F88.845784043915458
sg15
F-161.98925029792008
sg16
I6838464
sg8
I00
sg17
S'16157.6183828'
p713
sg19
g20
sba(igraph
Vertex
p714
(dp715
g14
F88.845784043915458
sg15
F-119.09109537942658
sg16
I6838465
sg8
I00
sg17
S'16157.6188524'
p716
sg19
g20
sbasg24
I00
sg25
I00
sg26
I6838029
sg17
S'16157.9857513'
p717
sba(igraph
Edge
p718
(dp719
g7
I1
sg8
I00
sg9
I5
sg10
(lp720
(igraph
Vertex
p721
(dp722
g14
F88.801329676393166
sg15
F-72.797933108487825
sg16
I6838466
sg8
I00
sg17
S'16157.6193357'
p723
sg19
g20
sba(igraph
Vertex
p724
(dp725
g14
F88.801329676393166
sg15
F-29.899778189994322
sg16
I6838467
sg8
I00
sg17
S'16157.6198293'
p726
sg19
g20
sbasg24
I00
sg25
I00
sg26
I6838030
sg17
S'16157.988679'
p727
sba(igraph
Edge
p728
(dp729
g7
I1
sg8
I00
sg9
I5
sg10
(lp730
g724
a(igraph
Vertex
p731
(dp732
g14
F88.801329676393166
sg15
F12.99837672849921
sg16
I6838468
sg8
I00
sg17
S'16157.6204643'
p733
sg19
g20
sbasg24
I00
sg25
I00
sg26
I6838031
sg17
S'16157.9916076'
p734
sba(igraph
Edge
p735
(dp736
g7
I1
sg8
I00
sg9
I5
sg10
(lp737
g714
ag721
asg24
I00
sg25
I00
sg26
I6838032
sg17
S'16157.9946055'
p738
sba(igraph
Edge
p739
(dp740
g7
I1
sg8
I00
sg9
I5
sg10
(lp741
(igraph
Vertex
p742
(dp743
g14
F88.683271149850626
sg15
F57.944514243957286
sg16
I6838469
sg8
I00
sg17
S'16157.62102'
p744
sg19
g20
sba(igraph
Vertex
p745
(dp746
g14
F88.683271149850626
sg15
F100.84266916245085
sg16
I6838470
sg8
I00
sg17
S'16157.6215393'
p747
sg19
g20
sbasg24
I00
sg25
I00
sg26
I6838033
sg17
S'16157.9976246'
p748
sba(igraph
Edge
p749
(dp750
g7
I1
sg8
I00
sg9
I5
sg10
(lp751
g745
a(igraph
Vertex
p752
(dp753
g14
F88.683271149850626
sg15
F143.74082408094435
sg16
I6838471
sg8
I00
sg17
S'16157.6220603'
p754
sg19
g20
sbasg24
I00
sg25
I00
sg26
I6838034
sg17
S'16158.0006118'
p755
sba(igraph
Edge
p756
(dp757
g7
I1
sg8
I00
sg9
I5
sg10
(lp758
g752
a(igraph
Vertex
p759
(dp760
g14
F88.638816782328334
sg15
F190.03398635188316
sg16
I6838472
sg8
I00
sg17
S'16157.6225897'
p761
sg19
g20
sbasg24
I00
sg25
I00
sg26
I6838035
sg17
S'16158.0037077'
p762
sba(igraph
Edge
p763
(dp764
g7
I1
sg8
I00
sg9
I5
sg10
(lp765
g731
ag742
asg24
I00
sg25
I00
sg26
I6838036
sg17
S'16158.0067268'
p766
sba(igraph
Edge
p767
(dp768
g7
I1
sg8
I00
sg9
I5
sg10
(lp769
g584
ag711
asg24
I00
sg25
I00
sg26
I6838037
sg17
S'16158.0097702'
p770
sba(igraph
Edge
p771
(dp772
g7
I1
sg8
I00
sg9
I5
sg10
(lp773
g587
ag711
asg24
I00
sg25
I00
sg26
I6838038
sg17
S'16158.0130042'
p774
sba(igraph
Edge
p775
(dp776
g7
I1
sg8
I00
sg9
I5
sg10
(lp777
g587
ag714
asg24
I00
sg25
I00
sg26
I6838039
sg17
S'16158.0161194'
p778
sba(igraph
Edge
p779
(dp780
g7
I1
sg8
I00
sg9
I5
sg10
(lp781
g594
ag714
asg24
I00
sg25
I00
sg26
I6838040
sg17
S'16158.0192678'
p782
sba(igraph
Edge
p783
(dp784
g7
I1
sg8
I00
sg9
I5
sg10
(lp785
g594
ag721
asg24
I00
sg25
I00
sg26
I6838041
sg17
S'16158.0224003'
p786
sba(igraph
Edge
p787
(dp788
g7
I1
sg8
I00
sg9
I5
sg10
(lp789
g597
ag721
asg24
I00
sg25
I00
sg26
I6838042
sg17
S'16158.0255532'
p790
sba(igraph
Edge
p791
(dp792
g7
I1
sg8
I00
sg9
I5
sg10
(lp793
g597
ag724
asg24
I00
sg25
I00
sg26
I6838043
sg17
S'16158.0288098'
p794
sba(igraph
Edge
p795
(dp796
g7
I1
sg8
I00
sg9
I5
sg10
(lp797
g604
ag724
asg24
I00
sg25
I00
sg26
I6838044
sg17
S'16158.0320451'
p798
sba(igraph
Edge
p799
(dp800
g7
I1
sg8
I00
sg9
I5
sg10
(lp801
g604
ag731
asg24
I00
sg25
I00
sg26
I6838045
sg17
S'16158.0353006'
p802
sba(igraph
Edge
p803
(dp804
g7
I1
sg8
I00
sg9
I5
sg10
(lp805
g615
ag731
asg24
I00
sg25
I00
sg26
I6838046
sg17
S'16158.0385476'
p806
sba(igraph
Edge
p807
(dp808
g7
I1
sg8
I00
sg9
I5
sg10
(lp809
g615
ag742
asg24
I00
sg25
I00
sg26
I6838047
sg17
S'16158.0419014'
p810
sba(igraph
Edge
p811
(dp812
g7
I1
sg8
I00
sg9
I5
sg10
(lp813
g618
ag742
asg24
I00
sg25
I00
sg26
I6838048
sg17
S'16158.0452395'
p814
sba(igraph
Edge
p815
(dp816
g7
I1
sg8
I00
sg9
I5
sg10
(lp817
g618
ag745
asg24
I00
sg25
I00
sg26
I6838049
sg17
S'16158.0485447'
p818
sba(igraph
Edge
p819
(dp820
g7
I1
sg8
I00
sg9
I5
sg10
(lp821
g625
ag745
asg24
I00
sg25
I00
sg26
I6838050
sg17
S'16158.0519058'
p822
sba(igraph
Edge
p823
(dp824
g7
I1
sg8
I00
sg9
I5
sg10
(lp825
g625
ag752
asg24
I00
sg25
I00
sg26
I6838051
sg17
S'16158.0553126'
p826
sba(igraph
Edge
p827
(dp828
g7
I1
sg8
I00
sg9
I5
sg10
(lp829
g632
ag752
asg24
I00
sg25
I00
sg26
I6838052
sg17
S'16158.0587427'
p830
sba(igraph
Edge
p831
(dp832
g7
I1
sg8
I00
sg9
I5
sg10
(lp833
g632
ag759
asg24
I00
sg25
I00
sg26
I6838053
sg17
S'16158.062154'
p834
sba(igraph
Edge
p835
(dp836
g7
I1
sg8
I00
sg9
I5
sg10
(lp837
(igraph
Vertex
p838
(dp839
g14
F120.05064756748864
sg15
F-159.98925029792011
sg16
I6838473
sg8
I00
sg17
S'16157.6231312'
p840
sg19
g20
sba(igraph
Vertex
p841
(dp842
g14
F120.05064756748864
sg15
F-117.09109537942658
sg16
I6838475
sg8
I01
sg17
S'16157.6236829'
p843
sg19
I0
sbasg24
I00
sg25
I00
sg26
I6838054
sg17
S'16158.065567'
p844
sba(igraph
Edge
p845
(dp846
g7
I1
sg8
I00
sg9
I5
sg10
(lp847
(igraph
Vertex
p848
(dp849
g14
F120.00619319996635
sg15
F-70.797933108487825
sg16
I6838477
sg8
I00
sg17
S'16157.6242422'
p850
sg19
g20
sba(igraph
Vertex
p851
(dp852
g14
F120.00619319996635
sg15
F-27.899778189994322
sg16
I6838478
sg8
I00
sg17
S'16157.6248099'
p853
sg19
g20
sbasg24
I00
sg25
I00
sg26
I6838055
sg17
S'16158.0689889'
p854
sba(igraph
Edge
p855
(dp856
g7
I1
sg8
I00
sg9
I5
sg10
(lp857
g851
a(igraph
Vertex
p858
(dp859
g14
F120.00619319996635
sg15
F14.998376728499238
sg16
I6838479
sg8
I00
sg17
S'16157.6253845'
p860
sg19
g20
sbasg24
I00
sg25
I00
sg26
I6838056
sg17
S'16158.072424'
p861
sba(igraph
Edge
p862
(dp863
g7
I1
sg8
I00
sg9
I5
sg10
(lp864
g841
ag848
asg24
I00
sg25
I00
sg26
I6838057
sg17
S'16158.0759353'
p865
sba(igraph
Edge
p866
(dp867
g7
I1
sg8
I00
sg9
I5
sg10
(lp868
(igraph
Vertex
p869
(dp870
g14
F119.88813467342375
sg15
F59.944514243957286
sg16
I6838480
sg8
I00
sg17
S'16157.6259656'
p871
sg19
g20
sba(igraph
Vertex
p872
(dp873
g14
F119.88813467342375
sg15
F102.84266916245085
sg16
I6838481
sg8
I00
sg17
S'16157.6265609'
p874
sg19
g20
sbasg24
I00
sg25
I00
sg26
I6838058
sg17
S'16158.0795266'
p875
sba(igraph
Edge
p876
(dp877
g7
I1
sg8
I00
sg9
I5
sg10
(lp878
g872
a(igraph
Vertex
p879
(dp880
g14
F119.88813467342375
sg15
F145.74082408094435
sg16
I6838482
sg8
I00
sg17
S'16157.6271962'
p881
sg19
g20
sbasg24
I00
sg25
I00
sg26
I6838059
sg17
S'16158.083362'
p882
sba(igraph
Edge
p883
(dp884
g7
I1
sg8
I00
sg9
I5
sg10
(lp885
g879
a(igraph
Vertex
p886
(dp887
g14
F119.84368030590151
sg15
F192.03398635188316
sg16
I6838483
sg8
I00
sg17
S'16157.6278072'
p888
sg19
g20
sbasg24
I00
sg25
I00
sg26
I6838060
sg17
S'16158.0872826'
p889
sba(igraph
Edge
p890
(dp891
g7
I1
sg8
I00
sg9
I5
sg10
(lp892
g858
ag869
asg24
I00
sg25
I00
sg26
I6838061
sg17
S'16158.0908914'
p893
sba(igraph
Edge
p894
(dp895
g7
I1
sg8
I00
sg9
I5
sg10
(lp896
g711
ag838
asg24
I00
sg25
I00
sg26
I6838062
sg17
S'16158.0945562'
p897
sba(igraph
Edge
p898
(dp899
g7
I1
sg8
I00
sg9
I5
sg10
(lp900
g714
ag838
asg24
I00
sg25
I00
sg26
I6838063
sg17
S'16158.0982203'
p901
sba(igraph
Edge
p902
(dp903
g7
I1
sg8
I00
sg9
I5
sg10
(lp904
g714
ag841
asg24
I00
sg25
I00
sg26
I6838064
sg17
S'16158.1018817'
p905
sba(igraph
Edge
p906
(dp907
g7
I1
sg8
I00
sg9
I5
sg10
(lp908
g721
ag841
asg24
I00
sg25
I00
sg26
I6838065
sg17
S'16158.1055589'
p909
sba(igraph
Edge
p910
(dp911
g7
I1
sg8
I00
sg9
I5
sg10
(lp912
g721
ag848
asg24
I00
sg25
I00
sg26
I6838066
sg17
S'16158.1092742'
p913
sba(igraph
Edge
p914
(dp915
g7
I1
sg8
I00
sg9
I5
sg10
(lp916
g724
ag848
asg24
I00
sg25
I00
sg26
I6838067
sg17
S'16158.1129641'
p917
sba(igraph
Edge
p918
(dp919
g7
I1
sg8
I00
sg9
I5
sg10
(lp920
g724
ag851
asg24
I00
sg25
I00
sg26
I6838068
sg17
S'16158.1166386'
p921
sba(igraph
Edge
p922
(dp923
g7
I1
sg8
I00
sg9
I5
sg10
(lp924
g731
ag851
asg24
I00
sg25
I00
sg26
I6838069
sg17
S'16158.1204441'
p925
sba(igraph
Edge
p926
(dp927
g7
I1
sg8
I00
sg9
I5
sg10
(lp928
g731
ag858
asg24
I00
sg25
I00
sg26
I6838070
sg17
S'16158.1250483'
p929
sba(igraph
Edge
p930
(dp931
g7
I1
sg8
I00
sg9
I5
sg10
(lp932
g742
ag858
asg24
I00
sg25
I00
sg26
I6838071
sg17
S'16158.1289189'
p933
sba(igraph
Edge
p934
(dp935
g7
I1
sg8
I00
sg9
I5
sg10
(lp936
g742
ag869
asg24
I00
sg25
I00
sg26
I6838072
sg17
S'16158.132773'
p937
sba(igraph
Edge
p938
(dp939
g7
I1
sg8
I00
sg9
I5
sg10
(lp940
g745
ag869
asg24
I00
sg25
I00
sg26
I6838073
sg17
S'16158.1366612'
p941
sba(igraph
Edge
p942
(dp943
g7
I1
sg8
I00
sg9
I5
sg10
(lp944
g745
ag872
asg24
I00
sg25
I00
sg26
I6838074
sg17
S'16158.1405436'
p945
sba(igraph
Edge
p946
(dp947
g7
I1
sg8
I00
sg9
I5
sg10
(lp948
g752
ag872
asg24
I00
sg25
I00
sg26
I6838075
sg17
S'16158.1444326'
p949
sba(igraph
Edge
p950
(dp951
g7
I1
sg8
I00
sg9
I5
sg10
(lp952
g752
ag879
asg24
I00
sg25
I00
sg26
I6838076
sg17
S'16158.1483479'
p953
sba(igraph
Edge
p954
(dp955
g7
I1
sg8
I00
sg9
I5
sg10
(lp956
g759
ag879
asg24
I00
sg25
I00
sg26
I6838077
sg17
S'16158.1522875'
p957
sba(igraph
Edge
p958
(dp959
g7
I1
sg8
I00
sg9
I5
sg10
(lp960
g759
ag886
asg24
I00
sg25
I00
sg26
I6838078
sg17
S'16158.1562551'
p961
sba(igraph
Edge
p962
(dp963
g7
I1
sg8
I00
sg9
I5
sg10
(lp964
(igraph
Vertex
p965
(dp966
g14
F152.52057312580132
sg15
F-163.98925029792011
sg16
I6838484
sg8
I00
sg17
S'16157.6284293'
p967
sg19
g20
sba(igraph
Vertex
p968
(dp969
g14
F152.52057312580132
sg15
F-121.0910953794266
sg16
I6838485
sg8
I00
sg17
S'16157.6290565'
p970
sg19
g20
sbasg24
I00
sg25
I00
sg26
I6838079
sg17
S'16158.1604458'
p971
sba(igraph
Edge
p972
(dp973
g7
I1
sg8
I00
sg9
I5
sg10
(lp974
(igraph
Vertex
p975
(dp976
g14
F152.47611875827903
sg15
F-74.797933108487854
sg16
I6838486
sg8
I00
sg17
S'16157.6296884'
p977
sg19
g20
sba(igraph
Vertex
p978
(dp979
g14
F152.47611875827903
sg15
F-31.89977818999435
sg16
I6838487
sg8
I00
sg17
S'16157.6303312'
p980
sg19
g20
sbasg24
I00
sg25
I00
sg26
I6838080
sg17
S'16158.1644469'
p981
sba(igraph
Edge
p982
(dp983
g7
I1
sg8
I00
sg9
I5
sg10
(lp984
g978
a(igraph
Vertex
p985
(dp986
g14
F152.47611875827903
sg15
F10.99837672849921
sg16
I6838488
sg8
I00
sg17
S'16157.6309796'
p987
sg19
g20
sbasg24
I00
sg25
I00
sg26
I6838081
sg17
S'16158.1685158'
p988
sba(igraph
Edge
p989
(dp990
g7
I1
sg8
I00
sg9
I5
sg10
(lp991
g968
ag975
asg24
I00
sg25
I00
sg26
I6838082
sg17
S'16158.1724574'
p992
sba(igraph
Edge
p993
(dp994
g7
I1
sg8
I00
sg9
I5
sg10
(lp995
(igraph
Vertex
p996
(dp997
g14
F152.35806023173637
sg15
F55.944514243957286
sg16
I6838489
sg8
I00
sg17
S'16157.631644'
p998
sg19
g20
sba(igraph
Vertex
p999
(dp1000
g14
F152.35806023173637
sg15
F98.842669162450846
sg16
I6838490
sg8
I00
sg17
S'16157.6324036'
p1001
sg19
g20
sbasg24
I00
sg25
I00
sg26
I6838083
sg17
S'16158.1765202'
p1002
sba(igraph
Edge
p1003
(dp1004
g7
I1
sg8
I00
sg9
I5
sg10
(lp1005
g999
a(igraph
Vertex
p1006
(dp1007
g14
F152.35806023173637
sg15
F141.74082408094435
sg16
I6838491
sg8
I00
sg17
S'16157.6338487'
p1008
sg19
g20
sbasg24
I00
sg25
I00
sg26
I6838084
sg17
S'16158.1806922'
p1009
sba(igraph
Edge
p1010
(dp1011
g7
I1
sg8
I00
sg9
I5
sg10
(lp1012
g1006
a(igraph
Vertex
p1013
(dp1014
g14
F152.3136058642142
sg15
F188.03398635188316
sg16
I6838492
sg8
I00
sg17
S'16157.6345427'
p1015
sg19
g20
sbasg24
I00
sg25
I00
sg26
I6838085
sg17
S'16158.1848894'
p1016
sba(igraph
Edge
p1017
(dp1018
g7
I1
sg8
I00
sg9
I5
sg10
(lp1019
g985
ag996
asg24
I00
sg25
I00
sg26
I6838086
sg17
S'16158.1890008'
p1020
sba(igraph
Edge
p1021
(dp1022
g7
I1
sg8
I00
sg9
I5
sg10
(lp1023
g838
ag965
asg24
I00
sg25
I00
sg26
I6838087
sg17
S'16158.193207'
p1024
sba(igraph
Edge
p1025
(dp1026
g7
I1
sg8
I00
sg9
I5
sg10
(lp1027
g841
ag965
asg24
I00
sg25
I00
sg26
I6838088
sg17
S'16158.1974209'
p1028
sba(igraph
Edge
p1029
(dp1030
g7
I1
sg8
I00
sg9
I5
sg10
(lp1031
g841
ag968
asg24
I00
sg25
I00
sg26
I6838089
sg17
S'16158.2016393'
p1032
sba(igraph
Edge
p1033
(dp1034
g7
I1
sg8
I00
sg9
I5
sg10
(lp1035
g848
ag968
asg24
I00
sg25
I00
sg26
I6838090
sg17
S'16158.2059144'
p1036
sba(igraph
Edge
p1037
(dp1038
g7
I1
sg8
I00
sg9
I5
sg10
(lp1039
g848
ag975
asg24
I00
sg25
I00
sg26
I6838091
sg17
S'16158.2101281'
p1040
sba(igraph
Edge
p1041
(dp1042
g7
I1
sg8
I00
sg9
I5
sg10
(lp1043
g851
ag975
asg24
I00
sg25
I00
sg26
I6838092
sg17
S'16158.2144175'
p1044
sba(igraph
Edge
p1045
(dp1046
g7
I1
sg8
I00
sg9
I5
sg10
(lp1047
g851
ag978
asg24
I00
sg25
I00
sg26
I6838093
sg17
S'16158.2186205'
p1048
sba(igraph
Edge
p1049
(dp1050
g7
I1
sg8
I00
sg9
I5
sg10
(lp1051
g858
ag978
asg24
I00
sg25
I00
sg26
I6838094
sg17
S'16158.2228387'
p1052
sba(igraph
Edge
p1053
(dp1054
g7
I1
sg8
I00
sg9
I5
sg10
(lp1055
g858
ag985
asg24
I00
sg25
I00
sg26
I6838095
sg17
S'16158.2271367'
p1056
sba(igraph
Edge
p1057
(dp1058
g7
I1
sg8
I00
sg9
I5
sg10
(lp1059
g869
ag985
asg24
I00
sg25
I00
sg26
I6838096
sg17
S'16158.2315141'
p1060
sba(igraph
Edge
p1061
(dp1062
g7
I1
sg8
I00
sg9
I5
sg10
(lp1063
g869
ag996
asg24
I00
sg25
I00
sg26
I6838097
sg17
S'16158.2359448'
p1064
sba(igraph
Edge
p1065
(dp1066
g7
I1
sg8
I00
sg9
I5
sg10
(lp1067
g872
ag996
asg24
I00
sg25
I00
sg26
I6838098
sg17
S'16158.2402479'
p1068
sba(igraph
Edge
p1069
(dp1070
g7
I1
sg8
I00
sg9
I5
sg10
(lp1071
g872
ag999
asg24
I00
sg25
I00
sg26
I6838099
sg17
S'16158.2447121'
p1072
sba(igraph
Edge
p1073
(dp1074
g7
I1
sg8
I00
sg9
I5
sg10
(lp1075
g879
ag999
asg24
I00
sg25
I00
sg26
I6838100
sg17
S'16158.2491554'
p1076
sba(igraph
Edge
p1077
(dp1078
g7
I1
sg8
I00
sg9
I5
sg10
(lp1079
g879
ag1006
asg24
I00
sg25
I00
sg26
I6838101
sg17
S'16158.2535711'
p1080
sba(igraph
Edge
p1081
(dp1082
g7
I1
sg8
I00
sg9
I5
sg10
(lp1083
g886
ag1006
asg24
I00
sg25
I00
sg26
I6838102
sg17
S'16158.2581183'
p1084
sba(igraph
Edge
p1085
(dp1086
g7
I1
sg8
I00
sg9
I5
sg10
(lp1087
g886
ag1013
asg24
I00
sg25
I00
sg26
I6838103
sg17
S'16158.2626694'
p1088
sba(igraph
Edge
p1089
(dp1090
g7
I1
sg8
I00
sg9
I5
sg10
(lp1091
(igraph
Vertex
p1092
(dp1093
g14
F-81.197067392594775
sg15
F236.45092728499154
sg16
I6838493
sg8
I00
sg17
S'16157.6352338'
p1094
sg19
g20
sba(igraph
Vertex
p1095
(dp1096
g14
F-46.011567466747167
sg15
F236.45092728499154
sg16
I6838494
sg8
I00
sg17
S'16157.6394483'
p1097
sg19
g20
sbasg24
I00
sg25
I00
sg26
I6838104
sg17
S'16158.2672119'
p1098
sba(igraph
Edge
p1099
(dp1100
g7
I1
sg8
I00
sg9
I5
sg10
(lp1101
g1095
a(igraph
Vertex
p1102
(dp1103
g14
F-10.826067540899473
sg15
F236.45092728499154
sg16
I6838495
sg8
I00
sg17
S'16157.6418006'
p1104
sg19
g20
sbasg24
I00
sg25
I00
sg26
I6838105
sg17
S'16158.2717527'
p1105
sba(igraph
Edge
p1106
(dp1107
g7
I1
sg8
I00
sg9
I5
sg10
(lp1108
g1092
a(igraph
Vertex
p1109
(dp1110
g14
F-112.71495024979141
sg15
F236.97763197301853
sg16
I6838496
sg8
I00
sg17
S'16157.6427593'
p1111
sg19
g20
sbasg24
I00
sg25
I00
sg26
I6838106
sg17
S'16158.2763619'
p1112
sba(igraph
Edge
p1113
(dp1114
g7
I1
sg8
I00
sg9
I5
sg10
(lp1115
g1102
a(igraph
Vertex
p1116
(dp1117
g14
F23.122605311170062
sg15
F236.44514590219219
sg16
I6838497
sg8
I00
sg17
S'16157.6438964'
p1118
sg19
g20
sbasg24
I00
sg25
I00
sg26
I6838107
sg17
S'16158.2809731'
p1119
sba(igraph
Edge
p1120
(dp1121
g7
I1
sg8
I00
sg9
I5
sg10
(lp1122
g1116
a(igraph
Vertex
p1123
(dp1124
g14
F56.857592904222102
sg15
F238.44514590219219
sg16
I6838498
sg8
I00
sg17
S'16157.645068'
p1125
sg19
g20
sbasg24
I00
sg25
I00
sg26
I6838108
sg17
S'16158.2855673'
p1126
sba(igraph
Edge
p1127
(dp1128
g7
I1
sg8
I00
sg9
I5
sg10
(lp1129
g1123
a(igraph
Vertex
p1130
(dp1131
g14
F91.688078307127356
sg15
F237.15124816188867
sg16
I6838499
sg8
I00
sg17
S'16157.6461573'
p1132
sg19
g20
sbasg24
I00
sg25
I00
sg26
I6838109
sg17
S'16158.2902316'
p1133
sba(igraph
Edge
p1134
(dp1135
g7
I1
sg8
I00
sg9
I5
sg10
(lp1136
g1130
a(igraph
Vertex
p1137
(dp1138
g14
F122.89294183070048
sg15
F239.15124816188867
sg16
I6838500
sg8
I00
sg17
S'16157.6469378'
p1139
sg19
g20
sbasg24
I00
sg25
I00
sg26
I6838110
sg17
S'16158.2948559'
p1140
sba(igraph
Edge
p1141
(dp1142
g7
I1
sg8
I00
sg9
I5
sg10
(lp1143
g1137
a(igraph
Vertex
p1144
(dp1145
g14
F155.36286738901316
sg15
F235.15124816188867
sg16
I6838501
sg8
I00
sg17
S'16157.6480156'
p1146
sg19
g20
sbasg24
I00
sg25
I00
sg26
I6838111
sg17
S'16158.2995305'
p1147
sba(igraph
Edge
p1148
(dp1149
g7
I1
sg8
I00
sg9
I5
sg10
(lp1150
g273
ag1109
asg24
I00
sg25
I00
sg26
I6838112
sg17
S'16158.3042113'
p1151
sba(igraph
Edge
p1152
(dp1153
g7
I1
sg8
I00
sg9
I5
sg10
(lp1154
g378
ag1109
asg24
I00
sg25
I00
sg26
I6838113
sg17
S'16158.3090837'
p1155
sba(igraph
Edge
p1156
(dp1157
g7
I1
sg8
I00
sg9
I5
sg10
(lp1158
g273
ag1092
asg24
I00
sg25
I00
sg26
I6838114
sg17
S'16158.3138259'
p1159
sba(igraph
Edge
p1160
(dp1161
g7
I1
sg8
I00
sg9
I5
sg10
(lp1162
g276
ag1092
asg24
I00
sg25
I00
sg26
I6838115
sg17
S'16158.3185871'
p1163
sba(igraph
Edge
p1164
(dp1165
g7
I1
sg8
I00
sg9
I5
sg10
(lp1166
g276
ag1095
asg24
I00
sg25
I00
sg26
I6838116
sg17
S'16158.3235825'
p1167
sba(igraph
Edge
p1168
(dp1169
g7
I1
sg8
I00
sg9
I5
sg10
(lp1170
g283
ag1095
asg24
I00
sg25
I00
sg26
I6838117
sg17
S'16158.3283596'
p1171
sba(igraph
Edge
p1172
(dp1173
g7
I1
sg8
I00
sg9
I5
sg10
(lp1174
g283
ag1102
asg24
I00
sg25
I00
sg26
I6838118
sg17
S'16158.3334184'
p1175
sba(igraph
Edge
p1176
(dp1177
g7
I1
sg8
I00
sg9
I5
sg10
(lp1178
g505
ag1102
asg24
I00
sg25
I00
sg26
I6838119
sg17
S'16158.338191'
p1179
sba(igraph
Edge
p1180
(dp1181
g7
I1
sg8
I00
sg9
I5
sg10
(lp1182
g505
ag1116
asg24
I00
sg25
I00
sg26
I6838120
sg17
S'16158.3430891'
p1183
sba(igraph
Edge
p1184
(dp1185
g7
I1
sg8
I00
sg9
I5
sg10
(lp1186
g632
ag1116
asg24
I00
sg25
I00
sg26
I6838121
sg17
S'16158.3479487'
p1187
sba(igraph
Edge
p1188
(dp1189
g7
I1
sg8
I00
sg9
I5
sg10
(lp1190
g632
ag1123
asg24
I00
sg25
I00
sg26
I6838122
sg17
S'16158.3529317'
p1191
sba(igraph
Edge
p1192
(dp1193
g7
I1
sg8
I00
sg9
I5
sg10
(lp1194
g759
ag1123
asg24
I00
sg25
I00
sg26
I6838123
sg17
S'16158.3578891'
p1195
sba(igraph
Edge
p1196
(dp1197
g7
I1
sg8
I00
sg9
I5
sg10
(lp1198
g759
ag1130
asg24
I00
sg25
I00
sg26
I6838124
sg17
S'16158.3628995'
p1199
sba(igraph
Edge
p1200
(dp1201
g7
I1
sg8
I00
sg9
I5
sg10
(lp1202
g886
ag1130
asg24
I00
sg25
I00
sg26
I6838125
sg17
S'16158.367918'
p1203
sba(igraph
Edge
p1204
(dp1205
g7
I1
sg8
I00
sg9
I5
sg10
(lp1206
g886
ag1137
asg24
I00
sg25
I00
sg26
I6838126
sg17
S'16158.3730393'
p1207
sba(igraph
Edge
p1208
(dp1209
g7
I1
sg8
I00
sg9
I5
sg10
(lp1210
g1013
ag1137
asg24
I00
sg25
I00
sg26
I6838127
sg17
S'16158.3780913'
p1211
sba(igraph
Edge
p1212
(dp1213
g7
I1
sg8
I00
sg9
I5
sg10
(lp1214
g1013
ag1144
asg24
I00
sg25
I00
sg26
I6838128
sg17
S'16158.3832772'
p1215
sba(igraph
Edge
p1216
(dp1217
g7
I1
sg8
I00
sg9
I5
sg10
(lp1218
(igraph
Vertex
p1219
(dp1220
g14
F179.40899951167188
sg15
F-160.8233424732995
sg16
I6838503
sg8
I01
sg17
S'16157.6491987'
p1221
sg19
I0
sba(igraph
Vertex
p1222
(dp1223
g14
F179.40899951167188
sg15
F-117.925187554806
sg16
I6838505
sg8
I00
sg17
S'16157.650493'
p1224
sg19
g20
sbasg24
I00
sg25
I00
sg26
I6838129
sg17
S'16158.3883457'
p1225
sba(igraph
Edge
p1226
(dp1227
g7
I1
sg8
I00
sg9
I5
sg10
(lp1228
(igraph
Vertex
p1229
(dp1230
g14
F179.36454514414964
sg15
F-71.63202528386725
sg16
I6838506
sg8
I00
sg17
S'16157.6516647'
p1231
sg19
g20
sba(igraph
Vertex
p1232
(dp1233
g14
F179.36454514414964
sg15
F-28.733870365373747
sg16
I6838507
sg8
I00
sg17
S'16157.6529975'
p1234
sg19
g20
sbasg24
I00
sg25
I00
sg26
I6838130
sg17
S'16158.3934084'
p1235
sba(igraph
Edge
p1236
(dp1237
g7
I1
sg8
I00
sg9
I5
sg10
(lp1238
g1232
a(igraph
Vertex
p1239
(dp1240
g14
F179.36454514414964
sg15
F14.164284553119813
sg16
I6838508
sg8
I00
sg17
S'16157.6546164'
p1241
sg19
g20
sbasg24
I00
sg25
I00
sg26
I6838131
sg17
S'16158.3984554'
p1242
sba(igraph
Edge
p1243
(dp1244
g7
I1
sg8
I00
sg9
I5
sg10
(lp1245
g1222
ag1229
asg24
I00
sg25
I00
sg26
I6838132
sg17
S'16158.4036446'
p1246
sba(igraph
Edge
p1247
(dp1248
g7
I1
sg8
I00
sg9
I5
sg10
(lp1249
(igraph
Vertex
p1250
(dp1251
g14
F179.24648661760705
sg15
F59.11042206857789
sg16
I6838509
sg8
I00
sg17
S'16157.6558881'
p1252
sg19
g20
sba(igraph
Vertex
p1253
(dp1254
g14
F179.24648661760705
sg15
F102.00857698707145
sg16
I6838510
sg8
I00
sg17
S'16157.6570958'
p1255
sg19
g20
sbasg24
I00
sg25
I00
sg26
I6838133
sg17
S'16158.4088372'
p1256
sba(igraph
Edge
p1257
(dp1258
g7
I1
sg8
I00
sg9
I5
sg10
(lp1259
g1253
a(igraph
Vertex
p1260
(dp1261
g14
F179.24648661760705
sg15
F144.90673190556495
sg16
I6838511
sg8
I00
sg17
S'16157.658377'
p1262
sg19
g20
sbasg24
I00
sg25
I00
sg26
I6838134
sg17
S'16158.4140546'
p1263
sba(igraph
Edge
p1264
(dp1265
g7
I1
sg8
I00
sg9
I5
sg10
(lp1266
g1260
a(igraph
Vertex
p1267
(dp1268
g14
F179.20203225008481
sg15
F191.19989417650376
sg16
I6838512
sg8
I00
sg17
S'16157.6596305'
p1269
sg19
g20
sbasg24
I00
sg25
I00
sg26
I6838135
sg17
S'16158.4198802'
p1270
sba(igraph
Edge
p1271
(dp1272
g7
I1
sg8
I00
sg9
I5
sg10
(lp1273
g1239
ag1250
asg24
I00
sg25
I00
sg26
I6838136
sg17
S'16158.4252121'
p1274
sba(igraph
Edge
p1275
(dp1276
g7
I1
sg8
I00
sg9
I5
sg10
(lp1277
(igraph
Vertex
p1278
(dp1279
g14
F210.39877219362569
sg15
F-159.70217070264189
sg16
I6838513
sg8
I00
sg17
S'16157.6609164'
p1280
sg19
g20
sba(igraph
Vertex
p1281
(dp1282
g14
F210.61386303524506
sg15
F-115.925187554806
sg16
I6838514
sg8
I00
sg17
S'16157.6621596'
p1283
sg19
g20
sbasg24
I00
sg25
I00
sg26
I6838137
sg17
S'16158.4304801'
p1284
sba(igraph
Edge
p1285
(dp1286
g7
I1
sg8
I00
sg9
I5
sg10
(lp1287
(igraph
Vertex
p1288
(dp1289
g14
F210.56940866772283
sg15
F-69.63202528386725
sg16
I6838515
sg8
I00
sg17
S'16157.6631639'
p1290
sg19
g20
sba(igraph
Vertex
p1291
(dp1292
g14
F210.56940866772283
sg15
F-26.733870365373747
sg16
I6838516
sg8
I00
sg17
S'16157.664459'
p1293
sg19
g20
sbasg24
I00
sg25
I00
sg26
I6838138
sg17
S'16158.4357626'
p1294
sba(igraph
Edge
p1295
(dp1296
g7
I1
sg8
I00
sg9
I5
sg10
(lp1297
g1291
a(igraph
Vertex
p1298
(dp1299
g14
F210.56940866772283
sg15
F16.164284553119813
sg16
I6838517
sg8
I00
sg17
S'16157.6658958'
p1300
sg19
g20
sbasg24
I00
sg25
I00
sg26
I6838139
sg17
S'16158.4410653'
p1301
sba(igraph
Edge
p1302
(dp1303
g7
I1
sg8
I00
sg9
I5
sg10
(lp1304
g1281
ag1288
asg24
I00
sg25
I00
sg26
I6838140
sg17
S'16158.44629'
p1305
sba(igraph
Edge
p1306
(dp1307
g7
I1
sg8
I00
sg9
I5
sg10
(lp1308
(igraph
Vertex
p1309
(dp1310
g14
F210.45135014118028
sg15
F61.11042206857789
sg16
I6838518
sg8
I00
sg17
S'16157.6673005'
p1311
sg19
g20
sba(igraph
Vertex
p1312
(dp1313
g14
F210.45135014118028
sg15
F104.00857698707145
sg16
I6838519
sg8
I00
sg17
S'16157.669161'
p1314
sg19
g20
sbasg24
I00
sg25
I00
sg26
I6838141
sg17
S'16158.4515937'
p1315
sba(igraph
Edge
p1316
(dp1317
g7
I1
sg8
I00
sg9
I5
sg10
(lp1318
g1312
a(igraph
Vertex
p1319
(dp1320
g14
F210.45135014118028
sg15
F146.90673190556495
sg16
I6838520
sg8
I00
sg17
S'16157.6705565'
p1321
sg19
g20
sbasg24
I00
sg25
I00
sg26
I6838142
sg17
S'16158.456986'
p1322
sba(igraph
Edge
p1323
(dp1324
g7
I1
sg8
I00
sg9
I5
sg10
(lp1325
g1319
a(igraph
Vertex
p1326
(dp1327
g14
F210.40689577365805
sg15
F193.19989417650376
sg16
I6838521
sg8
I00
sg17
S'16157.6720882'
p1328
sg19
g20
sbasg24
I00
sg25
I00
sg26
I6838143
sg17
S'16158.4624286'
p1329
sba(igraph
Edge
p1330
(dp1331
g7
I1
sg8
I00
sg9
I5
sg10
(lp1332
g1298
ag1309
asg24
I00
sg25
I00
sg26
I6838144
sg17
S'16158.4679028'
p1333
sba(igraph
Edge
p1334
(dp1335
g7
I1
sg8
I00
sg9
I5
sg10
(lp1336
g1219
ag1278
asg24
I00
sg25
I00
sg26
I6838145
sg17
S'16158.4735395'
p1337
sba(igraph
Edge
p1338
(dp1339
g7
I1
sg8
I00
sg9
I5
sg10
(lp1340
g1222
ag1278
asg24
I00
sg25
I00
sg26
I6838146
sg17
S'16158.4789181'
p1341
sba(igraph
Edge
p1342
(dp1343
g7
I1
sg8
I00
sg9
I5
sg10
(lp1344
g1222
ag1281
asg24
I00
sg25
I00
sg26
I6838147
sg17
S'16158.4843222'
p1345
sba(igraph
Edge
p1346
(dp1347
g7
I1
sg8
I00
sg9
I5
sg10
(lp1348
g1229
ag1281
asg24
I00
sg25
I00
sg26
I6838148
sg17
S'16158.489779'
p1349
sba(igraph
Edge
p1350
(dp1351
g7
I1
sg8
I00
sg9
I5
sg10
(lp1352
g1229
ag1288
asg24
I00
sg25
I00
sg26
I6838149
sg17
S'16158.4952068'
p1353
sba(igraph
Edge
p1354
(dp1355
g7
I1
sg8
I00
sg9
I5
sg10
(lp1356
g1232
ag1288
asg24
I00
sg25
I00
sg26
I6838150
sg17
S'16158.5007287'
p1357
sba(igraph
Edge
p1358
(dp1359
g7
I1
sg8
I00
sg9
I5
sg10
(lp1360
g1232
ag1291
asg24
I00
sg25
I00
sg26
I6838151
sg17
S'16158.5062509'
p1361
sba(igraph
Edge
p1362
(dp1363
g7
I1
sg8
I00
sg9
I5
sg10
(lp1364
g1239
ag1291
asg24
I00
sg25
I00
sg26
I6838152
sg17
S'16158.5122232'
p1365
sba(igraph
Edge
p1366
(dp1367
g7
I1
sg8
I00
sg9
I5
sg10
(lp1368
g1239
ag1298
asg24
I00
sg25
I00
sg26
I6838153
sg17
S'16158.5177502'
p1369
sba(igraph
Edge
p1370
(dp1371
g7
I1
sg8
I00
sg9
I5
sg10
(lp1372
g1250
ag1298
asg24
I00
sg25
I00
sg26
I6838154
sg17
S'16158.5233341'
p1373
sba(igraph
Edge
p1374
(dp1375
g7
I1
sg8
I00
sg9
I5
sg10
(lp1376
g1250
ag1309
asg24
I00
sg25
I00
sg26
I6838155
sg17
S'16158.5289443'
p1377
sba(igraph
Edge
p1378
(dp1379
g7
I1
sg8
I00
sg9
I5
sg10
(lp1380
g1253
ag1309
asg24
I00
sg25
I00
sg26
I6838156
sg17
S'16158.5345805'
p1381
sba(igraph
Edge
p1382
(dp1383
g7
I1
sg8
I00
sg9
I5
sg10
(lp1384
g1253
ag1312
asg24
I00
sg25
I00
sg26
I6838157
sg17
S'16158.540303'
p1385
sba(igraph
Edge
p1386
(dp1387
g7
I1
sg8
I00
sg9
I5
sg10
(lp1388
g1260
ag1312
asg24
I00
sg25
I00
sg26
I6838158
sg17
S'16158.5459722'
p1389
sba(igraph
Edge
p1390
(dp1391
g7
I1
sg8
I00
sg9
I5
sg10
(lp1392
g1260
ag1319
asg24
I00
sg25
I00
sg26
I6838159
sg17
S'16158.5517173'
p1393
sba(igraph
Edge
p1394
(dp1395
g7
I1
sg8
I00
sg9
I5
sg10
(lp1396
g1267
ag1319
asg24
I00
sg25
I00
sg26
I6838160
sg17
S'16158.5573865'
p1397
sba(igraph
Edge
p1398
(dp1399
g7
I1
sg8
I00
sg9
I5
sg10
(lp1400
g1267
ag1326
asg24
I00
sg25
I00
sg26
I6838161
sg17
S'16158.5632126'
p1401
sba(igraph
Edge
p1402
(dp1403
g7
I1
sg8
I00
sg9
I5
sg10
(lp1404
(igraph
Vertex
p1405
(dp1406
g14
F182.25129377488378
sg15
F238.31715598650928
sg16
I6838522
sg8
I00
sg17
S'16157.6735568'
p1407
sg19
g20
sba(igraph
Vertex
p1408
(dp1409
g14
F213.45615729845696
sg15
F240.31715598650928
sg16
I6838523
sg8
I00
sg17
S'16157.6752568'
p1410
sg19
g20
sbasg24
I00
sg25
I00
sg26
I6838162
sg17
S'16158.5689759'
p1411
sba(igraph
Edge
p1412
(dp1413
g7
I1
sg8
I00
sg9
I5
sg10
(lp1414
g1267
ag1405
asg24
I00
sg25
I00
sg26
I6838163
sg17
S'16158.5748683'
p1415
sba(igraph
Edge
p1416
(dp1417
g7
I1
sg8
I00
sg9
I5
sg10
(lp1418
g1326
ag1405
asg24
I00
sg25
I00
sg26
I6838164
sg17
S'16158.5806861'
p1419
sba(igraph
Edge
p1420
(dp1421
g7
I1
sg8
I00
sg9
I5
sg10
(lp1422
g1326
ag1408
asg24
I00
sg25
I00
sg26
I6838165
sg17
S'16158.586538'
p1423
sba(igraph
Edge
p1424
(dp1425
g7
I1
sg8
I00
sg9
I5
sg10
(lp1426
g965
ag1219
asg24
I00
sg25
I00
sg26
I6838166
sg17
S'16158.5926365'
p1427
sba(igraph
Edge
p1428
(dp1429
g7
I1
sg8
I00
sg9
I5
sg10
(lp1430
g968
ag1219
asg24
I00
sg25
I00
sg26
I6838167
sg17
S'16158.5986015'
p1431
sba(igraph
Edge
p1432
(dp1433
g7
I1
sg8
I00
sg9
I5
sg10
(lp1434
g968
ag1222
asg24
I00
sg25
I00
sg26
I6838168
sg17
S'16158.6044763'
p1435
sba(igraph
Edge
p1436
(dp1437
g7
I1
sg8
I00
sg9
I5
sg10
(lp1438
g975
ag1222
asg24
I00
sg25
I00
sg26
I6838169
sg17
S'16158.6105147'
p1439
sba(igraph
Edge
p1440
(dp1441
g7
I1
sg8
I00
sg9
I5
sg10
(lp1442
g975
ag1229
asg24
I00
sg25
I00
sg26
I6838170
sg17
S'16158.6165158'
p1443
sba(igraph
Edge
p1444
(dp1445
g7
I1
sg8
I00
sg9
I5
sg10
(lp1446
g978
ag1229
asg24
I00
sg25
I00
sg26
I6838171
sg17
S'16158.6223263'
p1447
sba(igraph
Edge
p1448
(dp1449
g7
I1
sg8
I00
sg9
I5
sg10
(lp1450
g978
ag1232
asg24
I00
sg25
I00
sg26
I6838172
sg17
S'16158.6294509'
p1451
sba(igraph
Edge
p1452
(dp1453
g7
I1
sg8
I00
sg9
I5
sg10
(lp1454
g985
ag1232
asg24
I00
sg25
I00
sg26
I6838173
sg17
S'16158.6364692'
p1455
sba(igraph
Edge
p1456
(dp1457
g7
I1
sg8
I00
sg9
I5
sg10
(lp1458
g985
ag1239
asg24
I00
sg25
I00
sg26
I6838174
sg17
S'16158.6430918'
p1459
sba(igraph
Edge
p1460
(dp1461
g7
I1
sg8
I00
sg9
I5
sg10
(lp1462
g996
ag1239
asg24
I00
sg25
I00
sg26
I6838175
sg17
S'16158.6495982'
p1463
sba(igraph
Edge
p1464
(dp1465
g7
I1
sg8
I00
sg9
I5
sg10
(lp1466
g996
ag1250
asg24
I00
sg25
I00
sg26
I6838176
sg17
S'16158.6561569'
p1467
sba(igraph
Edge
p1468
(dp1469
g7
I1
sg8
I00
sg9
I5
sg10
(lp1470
g999
ag1250
asg24
I00
sg25
I00
sg26
I6838177
sg17
S'16158.6626725'
p1471
sba(igraph
Edge
p1472
(dp1473
g7
I1
sg8
I00
sg9
I5
sg10
(lp1474
g999
ag1253
asg24
I00
sg25
I00
sg26
I6838178
sg17
S'16158.6692043'
p1475
sba(igraph
Edge
p1476
(dp1477
g7
I1
sg8
I00
sg9
I5
sg10
(lp1478
g1006
ag1253
asg24
I00
sg25
I00
sg26
I6838179
sg17
S'16158.6758504'
p1479
sba(igraph
Edge
p1480
(dp1481
g7
I1
sg8
I00
sg9
I5
sg10
(lp1482
g1006
ag1260
asg24
I00
sg25
I00
sg26
I6838180
sg17
S'16158.6847546'
p1483
sba(igraph
Edge
p1484
(dp1485
g7
I1
sg8
I00
sg9
I5
sg10
(lp1486
g1013
ag1260
asg24
I00
sg25
I00
sg26
I6838181
sg17
S'16158.6912644'
p1487
sba(igraph
Edge
p1488
(dp1489
g7
I1
sg8
I00
sg9
I5
sg10
(lp1490
g1013
ag1267
asg24
I00
sg25
I00
sg26
I6838182
sg17
S'16158.6981323'
p1491
sba(igraph
Edge
p1492
(dp1493
g7
I1
sg8
I00
sg9
I5
sg10
(lp1494
g1144
ag1267
asg24
I00
sg25
I00
sg26
I6838183
sg17
S'16158.7052433'
p1495
sba(igraph
Edge
p1496
(dp1497
g7
I1
sg8
I00
sg9
I5
sg10
(lp1498
g1144
ag1405
asg24
I00
sg25
I00
sg26
I6838184
sg17
S'16158.7117754'
p1499
sba(igraph
Edge
p1500
(dp1501
g7
I1
sg8
I00
sg9
I5
sg10
(lp1502
(igraph
Vertex
p1503
(dp1504
g14
F-184.70086904105267
sg15
F-162.08669481731297
sg16
I6838524
sg8
I00
sg17
S'16157.6766863'
p1505
sg19
g20
sba(igraph
Vertex
p1506
(dp1507
g14
F-184.70086904105267
sg15
F-119.18853989881947
sg16
I6838525
sg8
I00
sg17
S'16157.6780337'
p1508
sg19
g20
sbasg24
I00
sg25
I00
sg26
I6838185
sg17
S'16158.7184385'
p1509
sba(igraph
Edge
p1510
(dp1511
g7
I1
sg8
I00
sg9
I5
sg10
(lp1512
(igraph
Vertex
p1513
(dp1514
g14
F-149.51536911520503
sg15
F-162.08669481731297
sg16
I6838526
sg8
I00
sg17
S'16157.6794456'
p1515
sg19
g20
sba(igraph
Vertex
p1516
(dp1517
g14
F-149.51536911520503
sg15
F-119.18853989881947
sg16
I6838527
sg8
I00
sg17
S'16157.6808879'
p1518
sg19
g20
sbasg24
I00
sg25
I00
sg26
I6838186
sg17
S'16158.7249933'
p1519
sba(igraph
Edge
p1520
(dp1521
g7
I1
sg8
I00
sg9
I5
sg10
(lp1522
g1503
ag1513
asg24
I00
sg25
I00
sg26
I6838187
sg17
S'16158.7342662'
p1523
sba(igraph
Edge
p1524
(dp1525
g7
I1
sg8
I00
sg9
I5
sg10
(lp1526
g1506
ag1516
asg24
I00
sg25
I00
sg26
I6838188
sg17
S'16158.7419896'
p1527
sba(igraph
Edge
p1528
(dp1529
g7
I1
sg8
I00
sg9
I5
sg10
(lp1530
g1506
ag1513
asg24
I00
sg25
I00
sg26
I6838189
sg17
S'16158.7503289'
p1531
sba(igraph
Edge
p1532
(dp1533
g7
I1
sg8
I00
sg9
I5
sg10
(lp1534
(igraph
Vertex
p1535
(dp1536
g14
F-184.73972419434506
sg15
F-72.89537762788072
sg16
I6838528
sg8
I00
sg17
S'16157.6825191'
p1537
sg19
g20
sba(igraph
Vertex
p1538
(dp1539
g14
F-184.73972419434506
sg15
F-29.997222709387216
sg16
I6838529
sg8
I00
sg17
S'16157.6841096'
p1540
sg19
g20
sbasg24
I00
sg25
I00
sg26
I6838190
sg17
S'16158.7580092'
p1541
sba(igraph
Edge
p1542
(dp1543
g7
I1
sg8
I00
sg9
I5
sg10
(lp1544
g1538
a(igraph
Vertex
p1545
(dp1546
g14
F-184.73972419434506
sg15
F12.900932209106344
sg16
I6838530
sg8
I00
sg17
S'16157.6854849'
p1547
sg19
g20
sbasg24
I00
sg25
I00
sg26
I6838191
sg17
S'16158.7656655'
p1548
sba(igraph
Edge
p1549
(dp1550
g7
I1
sg8
I00
sg9
I5
sg10
(lp1551
(igraph
Vertex
p1552
(dp1553
g14
F-149.55422426849742
sg15
F-72.89537762788072
sg16
I6838531
sg8
I00
sg17
S'16157.6868124'
p1554
sg19
g20
sba(igraph
Vertex
p1555
(dp1556
g14
F-149.55422426849742
sg15
F-29.997222709387216
sg16
I6838532
sg8
I00
sg17
S'16157.6881905'
p1557
sg19
g20
sbasg24
I00
sg25
I00
sg26
I6838192
sg17
S'16158.7730027'
p1558
sba(igraph
Edge
p1559
(dp1560
g7
I1
sg8
I00
sg9
I5
sg10
(lp1561
g1555
a(igraph
Vertex
p1562
(dp1563
g14
F-149.55422426849742
sg15
F12.900932209106344
sg16
I6838533
sg8
I00
sg17
S'16157.689477'
p1564
sg19
g20
sbasg24
I00
sg25
I00
sg26
I6838193
sg17
S'16158.7799296'
p1565
sba(igraph
Edge
p1566
(dp1567
g7
I1
sg8
I00
sg9
I5
sg10
(lp1568
g1535
ag1552
asg24
I00
sg25
I00
sg26
I6838194
sg17
S'16158.7871411'
p1569
sba(igraph
Edge
p1570
(dp1571
g7
I1
sg8
I00
sg9
I5
sg10
(lp1572
g1538
ag1555
asg24
I00
sg25
I00
sg26
I6838195
sg17
S'16158.7943138'
p1573
sba(igraph
Edge
p1574
(dp1575
g7
I1
sg8
I00
sg9
I5
sg10
(lp1576
g1545
ag1562
asg24
I00
sg25
I00
sg26
I6838196
sg17
S'16158.8011323'
p1577
sba(igraph
Edge
p1578
(dp1579
g7
I1
sg8
I00
sg9
I5
sg10
(lp1580
g1538
ag1552
asg24
I00
sg25
I00
sg26
I6838197
sg17
S'16158.808291'
p1581
sba(igraph
Edge
p1582
(dp1583
g7
I1
sg8
I00
sg9
I5
sg10
(lp1584
g1545
ag1555
asg24
I00
sg25
I00
sg26
I6838198
sg17
S'16158.8158967'
p1585
sba(igraph
Edge
p1586
(dp1587
g7
I1
sg8
I00
sg9
I5
sg10
(lp1588
g1506
ag1535
asg24
I00
sg25
I00
sg26
I6838199
sg17
S'16158.8237561'
p1589
sba(igraph
Edge
p1590
(dp1591
g7
I1
sg8
I00
sg9
I5
sg10
(lp1592
g1516
ag1535
asg24
I00
sg25
I00
sg26
I6838200
sg17
S'16158.830736'
p1593
sba(igraph
Edge
p1594
(dp1595
g7
I1
sg8
I00
sg9
I5
sg10
(lp1596
g1516
ag1552
asg24
I00
sg25
I00
sg26
I6838201
sg17
S'16158.8376886'
p1597
sba(igraph
Edge
p1598
(dp1599
g7
I1
sg8
I00
sg9
I5
sg10
(lp1600
(igraph
Vertex
p1601
(dp1602
g14
F-184.84291275380406
sg15
F57.84706972456442
sg16
I6838534
sg8
I00
sg17
S'16157.6905059'
p1603
sg19
g20
sba(igraph
Vertex
p1604
(dp1605
g14
F-184.84291275380406
sg15
F100.74522464305798
sg16
I6838535
sg8
I00
sg17
S'16157.691539'
p1606
sg19
g20
sbasg24
I00
sg25
I00
sg26
I6838202
sg17
S'16158.8445618'
p1607
sba(igraph
Edge
p1608
(dp1609
g7
I1
sg8
I00
sg9
I5
sg10
(lp1610
g1604
a(igraph
Vertex
p1611
(dp1612
g14
F-184.84291275380406
sg15
F143.64337956155148
sg16
I6838536
sg8
I00
sg17
S'16157.6926836'
p1613
sg19
g20
sbasg24
I00
sg25
I00
sg26
I6838203
sg17
S'16158.8516728'
p1614
sba(igraph
Edge
p1615
(dp1616
g7
I1
sg8
I00
sg9
I5
sg10
(lp1617
(igraph
Vertex
p1618
(dp1619
g14
F-149.65741282795648
sg15
F57.84706972456442
sg16
I6838537
sg8
I00
sg17
S'16157.6938656'
p1620
sg19
g20
sba(igraph
Vertex
p1621
(dp1622
g14
F-149.65741282795648
sg15
F100.74522464305798
sg16
I6838538
sg8
I00
sg17
S'16157.6951314'
p1623
sg19
g20
sbasg24
I00
sg25
I00
sg26
I6838204
sg17
S'16158.8607382'
p1624
sba(igraph
Edge
p1625
(dp1626
g7
I1
sg8
I00
sg9
I5
sg10
(lp1627
g1621
a(igraph
Vertex
p1628
(dp1629
g14
F-149.65741282795648
sg15
F143.64337956155148
sg16
I6838539
sg8
I00
sg17
S'16157.6961924'
p1630
sg19
g20
sbasg24
I00
sg25
I00
sg26
I6838205
sg17
S'16158.8692191'
p1631
sba(igraph
Edge
p1632
(dp1633
g7
I1
sg8
I00
sg9
I5
sg10
(lp1634
g1601
ag1618
asg24
I00
sg25
I00
sg26
I6838206
sg17
S'16158.8779619'
p1635
sba(igraph
Edge
p1636
(dp1637
g7
I1
sg8
I00
sg9
I5
sg10
(lp1638
g1604
ag1621
asg24
I00
sg25
I00
sg26
I6838207
sg17
S'16158.8863822'
p1639
sba(igraph
Edge
p1640
(dp1641
g7
I1
sg8
I00
sg9
I5
sg10
(lp1642
g1611
ag1628
asg24
I00
sg25
I00
sg26
I6838208
sg17
S'16158.894498'
p1643
sba(igraph
Edge
p1644
(dp1645
g7
I1
sg8
I00
sg9
I5
sg10
(lp1646
g1604
ag1618
asg24
I00
sg25
I00
sg26
I6838209
sg17
S'16158.9030581'
p1647
sba(igraph
Edge
p1648
(dp1649
g7
I1
sg8
I00
sg9
I5
sg10
(lp1650
g1611
ag1621
asg24
I00
sg25
I00
sg26
I6838210
sg17
S'16158.9111356'
p1651
sba(igraph
Edge
p1652
(dp1653
g7
I1
sg8
I00
sg9
I5
sg10
(lp1654
(igraph
Vertex
p1655
(dp1656
g14
F-184.88176790709639
sg15
F189.93654183249029
sg16
I6838540
sg8
I00
sg17
S'16157.697409'
p1657
sg19
g20
sba(igraph
Vertex
p1658
(dp1659
g14
F-149.69626798124881
sg15
F189.93654183249029
sg16
I6838542
sg8
I01
sg17
S'16157.6985287'
p1660
sg19
I0
sbasg24
I00
sg25
I00
sg26
I6838211
sg17
S'16158.9186841'
p1661
sba(igraph
Edge
p1662
(dp1663
g7
I1
sg8
I00
sg9
I5
sg10
(lp1664
g1611
ag1655
asg24
I00
sg25
I00
sg26
I6838212
sg17
S'16158.9265806'
p1665
sba(igraph
Edge
p1666
(dp1667
g7
I1
sg8
I00
sg9
I5
sg10
(lp1668
g1628
ag1655
asg24
I00
sg25
I00
sg26
I6838213
sg17
S'16158.934067'
p1669
sba(igraph
Edge
p1670
(dp1671
g7
I1
sg8
I00
sg9
I5
sg10
(lp1672
g1628
ag1658
asg24
I00
sg25
I00
sg26
I6838214
sg17
S'16158.9415325'
p1673
sba(igraph
Edge
p1674
(dp1675
g7
I1
sg8
I00
sg9
I5
sg10
(lp1676
g1545
ag1601
asg24
I00
sg25
I00
sg26
I6838215
sg17
S'16158.9489044'
p1677
sba(igraph
Edge
p1678
(dp1679
g7
I1
sg8
I00
sg9
I5
sg10
(lp1680
g1562
ag1601
asg24
I00
sg25
I00
sg26
I6838216
sg17
S'16158.956825'
p1681
sba(igraph
Edge
p1682
(dp1683
g7
I1
sg8
I00
sg9
I5
sg10
(lp1684
g1562
ag1618
asg24
I00
sg25
I00
sg26
I6838217
sg17
S'16158.9643798'
p1685
sba(igraph
Edge
p1686
(dp1687
g7
I1
sg8
I00
sg9
I5
sg10
(lp1688
(igraph
Vertex
p1689
(dp1690
g14
F-182.21657367358893
sg15
F237.05380364249575
sg16
I6838544
sg8
I00
sg17
S'16157.6997272'
p1691
sg19
g20
sba(igraph
Vertex
p1692
(dp1693
g14
F-147.03107374774129
sg15
F237.05380364249575
sg16
I6838545
sg8
I00
sg17
S'16157.7010059'
p1694
sg19
g20
sbasg24
I00
sg25
I00
sg26
I6838218
sg17
S'16158.9716989'
p1695
sba(igraph
Edge
p1696
(dp1697
g7
I1
sg8
I00
sg9
I5
sg10
(lp1698
g1655
ag1689
asg24
I00
sg25
I00
sg26
I6838219
sg17
S'16158.9797941'
p1699
sba(igraph
Edge
p1700
(dp1701
g7
I1
sg8
I00
sg9
I5
sg10
(lp1702
g1658
ag1689
asg24
I00
sg25
I00
sg26
I6838220
sg17
S'16158.9873115'
p1703
sba(igraph
Edge
p1704
(dp1705
g7
I1
sg8
I00
sg9
I5
sg10
(lp1706
g1658
ag1692
asg24
I00
sg25
I00
sg26
I6838221
sg17
S'16158.9952463'
p1707
sba(igraph
Edge
p1708
(dp1709
g7
I1
sg8
I00
sg9
I5
sg10
(lp1710
g330
ag1513
asg24
I00
sg25
I00
sg26
I6838222
sg17
S'16159.0027774'
p1711
sba(igraph
Edge
p1712
(dp1713
g7
I1
sg8
I00
sg9
I5
sg10
(lp1714
g330
ag1516
asg24
I00
sg25
I00
sg26
I6838223
sg17
S'16159.0103946'
p1715
sba(igraph
Edge
p1716
(dp1717
g7
I1
sg8
I00
sg9
I5
sg10
(lp1718
g333
ag1516
asg24
I00
sg25
I00
sg26
I6838224
sg17
S'16159.0189153'
p1719
sba(igraph
Edge
p1720
(dp1721
g7
I1
sg8
I00
sg9
I5
sg10
(lp1722
g333
ag1552
asg24
I00
sg25
I00
sg26
I6838225
sg17
S'16159.0279932'
p1723
sba(igraph
Edge
p1724
(dp1725
g7
I1
sg8
I00
sg9
I5
sg10
(lp1726
g340
ag1552
asg24
I00
sg25
I00
sg26
I6838226
sg17
S'16159.0365256'
p1727
sba(igraph
Edge
p1728
(dp1729
g7
I1
sg8
I00
sg9
I5
sg10
(lp1730
g340
ag1555
asg24
I00
sg25
I00
sg26
I6838227
sg17
S'16159.0449074'
p1731
sba(igraph
Edge
p1732
(dp1733
g7
I1
sg8
I00
sg9
I5
sg10
(lp1734
g343
ag1555
asg24
I00
sg25
I00
sg26
I6838228
sg17
S'16159.053504'
p1735
sba(igraph
Edge
p1736
(dp1737
g7
I1
sg8
I00
sg9
I5
sg10
(lp1738
g343
ag1562
asg24
I00
sg25
I00
sg26
I6838229
sg17
S'16159.0621453'
p1739
sba(igraph
Edge
p1740
(dp1741
g7
I1
sg8
I00
sg9
I5
sg10
(lp1742
g350
ag1562
asg24
I00
sg25
I00
sg26
I6838230
sg17
S'16159.0699206'
p1743
sba(igraph
Edge
p1744
(dp1745
g7
I1
sg8
I00
sg9
I5
sg10
(lp1746
g350
ag1618
asg24
I00
sg25
I00
sg26
I6838231
sg17
S'16159.0780367'
p1747
sba(igraph
Edge
p1748
(dp1749
g7
I1
sg8
I00
sg9
I5
sg10
(lp1750
g361
ag1618
asg24
I00
sg25
I00
sg26
I6838232
sg17
S'16159.0860464'
p1751
sba(igraph
Edge
p1752
(dp1753
g7
I1
sg8
I00
sg9
I5
sg10
(lp1754
g361
ag1621
asg24
I00
sg25
I00
sg26
I6838233
sg17
S'16159.0942678'
p1755
sba(igraph
Edge
p1756
(dp1757
g7
I1
sg8
I00
sg9
I5
sg10
(lp1758
g364
ag1621
asg24
I00
sg25
I00
sg26
I6838234
sg17
S'16159.102917'
p1759
sba(igraph
Edge
p1760
(dp1761
g7
I1
sg8
I00
sg9
I5
sg10
(lp1762
g364
ag1628
asg24
I00
sg25
I00
sg26
I6838235
sg17
S'16159.110825'
p1763
sba(igraph
Edge
p1764
(dp1765
g7
I1
sg8
I00
sg9
I5
sg10
(lp1766
g371
ag1628
asg24
I00
sg25
I00
sg26
I6838236
sg17
S'16159.1191548'
p1767
sba(igraph
Edge
p1768
(dp1769
g7
I1
sg8
I00
sg9
I5
sg10
(lp1770
g371
ag1658
asg24
I00
sg25
I00
sg26
I6838237
sg17
S'16159.1286055'
p1771
sba(igraph
Edge
p1772
(dp1773
g7
I1
sg8
I00
sg9
I5
sg10
(lp1774
g378
ag1658
asg24
I00
sg25
I00
sg26
I6838238
sg17
S'16159.1363684'
p1775
sba(igraph
Edge
p1776
(dp1777
g7
I1
sg8
I00
sg9
I5
sg10
(lp1778
g378
ag1692
asg24
I00
sg25
I00
sg26
I6838239
sg17
S'16159.1456685'
p1779
sba(igraph
Edge
p1780
(dp1781
g7
I1
sg8
I00
sg9
I5
sg10
(lp1782
g1109
ag1692
asg24
I00
sg25
I00
sg26
I6838240
sg17
S'16159.1549982'
p1783
sba(igraph
Edge
p1784
(dp1785
g7
I1
sg8
I00
sg9
I5
sg10
(lp1786
(igraph
Vertex
p1787
(dp1788
g14
F-212.66252775529694
sg15
F-161.12478065205161
sg16
I6838546
sg8
I00
sg17
S'16157.7034447'
p1789
sg19
g20
sba(igraph
Vertex
p1790
(dp1791
g14
F-212.66252775529694
sg15
F-118.22662573355811
sg16
I6838547
sg8
I00
sg17
S'16157.7046208'
p1792
sg19
g20
sbasg24
I00
sg25
I00
sg26
I6838241
sg17
S'16159.1647276'
p1793
sba(igraph
Edge
p1794
(dp1795
g7
I1
sg8
I00
sg9
I5
sg10
(lp1796
(igraph
Vertex
p1797
(dp1798
g14
F-212.70138290858927
sg15
F-71.933463462619358
sg16
I6838548
sg8
I00
sg17
S'16157.705888'
p1799
sg19
g20
sba(igraph
Vertex
p1800
(dp1801
g14
F-212.70138290858927
sg15
F-29.035308544125854
sg16
I6838549
sg8
I00
sg17
S'16157.7071038'
p1802
sg19
g20
sbasg24
I00
sg25
I00
sg26
I6838242
sg17
S'16159.1748767'
p1803
sba(igraph
Edge
p1804
(dp1805
g7
I1
sg8
I00
sg9
I5
sg10
(lp1806
g1800
a(igraph
Vertex
p1807
(dp1808
g14
F-212.70138290858927
sg15
F13.862846374367706
sg16
I6838550
sg8
I00
sg17
S'16157.7083188'
p1809
sg19
g20
sbasg24
I00
sg25
I00
sg26
I6838243
sg17
S'16159.1845863'
p1810
sba(igraph
Edge
p1811
(dp1812
g7
I1
sg8
I00
sg9
I5
sg10
(lp1813
g1790
ag1797
asg24
I00
sg25
I00
sg26
I6838244
sg17
S'16159.1932589'
p1814
sba(igraph
Edge
p1815
(dp1816
g7
I1
sg8
I00
sg9
I5
sg10
(lp1817
(igraph
Vertex
p1818
(dp1819
g14
F-212.80457146804832
sg15
F58.808983889825782
sg16
I6838551
sg8
I00
sg17
S'16157.7094673'
p1820
sg19
g20
sba(igraph
Vertex
p1821
(dp1822
g14
F-212.80457146804832
sg15
F101.70713880831934
sg16
I6838552
sg8
I00
sg17
S'16157.7107613'
p1823
sg19
g20
sbasg24
I00
sg25
I00
sg26
I6838245
sg17
S'16159.2016835'
p1824
sba(igraph
Edge
p1825
(dp1826
g7
I1
sg8
I00
sg9
I5
sg10
(lp1827
g1821
a(igraph
Vertex
p1828
(dp1829
g14
F-212.80457146804832
sg15
F144.60529372681285
sg16
I6838553
sg8
I00
sg17
S'16157.7120179'
p1830
sg19
g20
sbasg24
I00
sg25
I00
sg26
I6838246
sg17
S'16159.209949'
p1831
sba(igraph
Edge
p1832
(dp1833
g7
I1
sg8
I00
sg9
I5
sg10
(lp1834
g1828
a(igraph
Vertex
p1835
(dp1836
g14
F-212.84342662134065
sg15
F190.89845599775165
sg16
I6838554
sg8
I00
sg17
S'16157.7133647'
p1837
sg19
g20
sbasg24
I00
sg25
I00
sg26
I6838247
sg17
S'16159.2186281'
p1838
sba(igraph
Edge
p1839
(dp1840
g7
I1
sg8
I00
sg9
I5
sg10
(lp1841
g1807
ag1818
asg24
I00
sg25
I00
sg26
I6838248
sg17
S'16159.2267791'
p1842
sba(igraph
Edge
p1843
(dp1844
g7
I1
sg8
I00
sg9
I5
sg10
(lp1845
g1835
a(igraph
Vertex
p1846
(dp1847
g14
F-210.17823238783313
sg15
F238.01571780775717
sg16
I6838555
sg8
I00
sg17
S'16157.7145679'
p1848
sg19
g20
sbasg24
I00
sg25
I00
sg26
I6838249
sg17
S'16159.2361691'
p1849
sba(igraph
Edge
p1850
(dp1851
g7
I1
sg8
I00
sg9
I5
sg10
(lp1852
g1503
ag1787
asg24
I00
sg25
I00
sg26
I6838250
sg17
S'16159.2438807'
p1853
sba(igraph
Edge
p1854
(dp1855
g7
I1
sg8
I00
sg9
I5
sg10
(lp1856
g1503
ag1790
asg24
I00
sg25
I00
sg26
I6838251
sg17
S'16159.2515214'
p1857
sba(igraph
Edge
p1858
(dp1859
g7
I1
sg8
I00
sg9
I5
sg10
(lp1860
g1506
ag1790
asg24
I00
sg25
I00
sg26
I6838252
sg17
S'16159.2592614'
p1861
sba(igraph
Edge
p1862
(dp1863
g7
I1
sg8
I00
sg9
I5
sg10
(lp1864
g1506
ag1797
asg24
I00
sg25
I00
sg26
I6838253
sg17
S'16159.2670834'
p1865
sba(igraph
Edge
p1866
(dp1867
g7
I1
sg8
I00
sg9
I5
sg10
(lp1868
g1535
ag1797
asg24
I00
sg25
I00
sg26
I6838254
sg17
S'16159.2748347'
p1869
sba(igraph
Edge
p1870
(dp1871
g7
I1
sg8
I00
sg9
I5
sg10
(lp1872
g1535
ag1800
asg24
I00
sg25
I00
sg26
I6838255
sg17
S'16159.2827119'
p1873
sba(igraph
Edge
p1874
(dp1875
g7
I1
sg8
I00
sg9
I5
sg10
(lp1876
g1538
ag1800
asg24
I00
sg25
I00
sg26
I6838256
sg17
S'16159.2904947'
p1877
sba(igraph
Edge
p1878
(dp1879
g7
I1
sg8
I00
sg9
I5
sg10
(lp1880
g1538
ag1807
asg24
I00
sg25
I00
sg26
I6838257
sg17
S'16159.2984692'
p1881
sba(igraph
Edge
p1882
(dp1883
g7
I1
sg8
I00
sg9
I5
sg10
(lp1884
g1545
ag1807
asg24
I00
sg25
I00
sg26
I6838258
sg17
S'16159.3063965'
p1885
sba(igraph
Edge
p1886
(dp1887
g7
I1
sg8
I00
sg9
I5
sg10
(lp1888
g1545
ag1818
asg24
I00
sg25
I00
sg26
I6838259
sg17
S'16159.3144531'
p1889
sba(igraph
Edge
p1890
(dp1891
g7
I1
sg8
I00
sg9
I5
sg10
(lp1892
g1601
ag1818
asg24
I00
sg25
I00
sg26
I6838260
sg17
S'16159.3223569'
p1893
sba(igraph
Edge
p1894
(dp1895
g7
I1
sg8
I00
sg9
I5
sg10
(lp1896
g1601
ag1821
asg24
I00
sg25
I00
sg26
I6838261
sg17
S'16159.330245'
p1897
sba(igraph
Edge
p1898
(dp1899
g7
I1
sg8
I00
sg9
I5
sg10
(lp1900
g1604
ag1821
asg24
I00
sg25
I00
sg26
I6838262
sg17
S'16159.3383296'
p1901
sba(igraph
Edge
p1902
(dp1903
g7
I1
sg8
I00
sg9
I5
sg10
(lp1904
g1604
ag1828
asg24
I00
sg25
I00
sg26
I6838263
sg17
S'16159.3462353'
p1905
sba(igraph
Edge
p1906
(dp1907
g7
I1
sg8
I00
sg9
I5
sg10
(lp1908
g1611
ag1828
asg24
I00
sg25
I00
sg26
I6838264
sg17
S'16159.3542104'
p1909
sba(igraph
Edge
p1910
(dp1911
g7
I1
sg8
I00
sg9
I5
sg10
(lp1912
g1611
ag1835
asg24
I00
sg25
I00
sg26
I6838265
sg17
S'16159.3623072'
p1913
sba(igraph
Edge
p1914
(dp1915
g7
I1
sg8
I00
sg9
I5
sg10
(lp1916
g1655
ag1835
asg24
I00
sg25
I00
sg26
I6838266
sg17
S'16159.3702795'
p1917
sba(igraph
Edge
p1918
(dp1919
g7
I1
sg8
I00
sg9
I5
sg10
(lp1920
g1655
ag1846
asg24
I00
sg25
I00
sg26
I6838267
sg17
S'16159.3782975'
p1921
sba(igraph
Edge
p1922
(dp1923
g7
I1
sg8
I00
sg9
I5
sg10
(lp1924
g1689
ag1846
asg24
I00
sg25
I00
sg26
I6838268
sg17
S'16159.3863446'
p1925
sba(igraph
Edge
p1926
(dp1927
g7
I1
sg8
I00
sg9
I5
sg10
(lp1928
(igraph
Vertex
p1929
(dp1930
g14
F-84.474992303218571
sg15
F-239.01747686340639
sg16
I6838556
sg8
I00
sg17
S'16157.715801'
p1931
sg19
g20
sba(igraph
Vertex
p1932
(dp1933
g14
F-84.474992303218571
sg15
F-196.11932194491288
sg16
I6838557
sg8
I00
sg17
S'16157.7172772'
p1934
sg19
g20
sbasg24
I00
sg25
I00
sg26
I6838269
sg17
S'16159.3943574'
p1935
sba(igraph
Edge
p1936
(dp1937
g7
I1
sg8
I00
sg9
I5
sg10
(lp1938
(igraph
Vertex
p1939
(dp1940
g14
F-49.289492377371019
sg15
F-239.01747686340639
sg16
I6838558
sg8
I00
sg17
S'16157.7185955'
p1941
sg19
g20
sba(igraph
Vertex
p1942
(dp1943
g14
F-49.289492377371019
sg15
F-196.11932194491288
sg16
I6838559
sg8
I00
sg17
S'16157.7200002'
p1944
sg19
g20
sbasg24
I00
sg25
I00
sg26
I6838270
sg17
S'16159.4023634'
p1945
sba(igraph
Edge
p1946
(dp1947
g7
I1
sg8
I00
sg9
I5
sg10
(lp1948
(igraph
Vertex
p1949
(dp1950
g14
F-14.103992451523382
sg15
F-239.01747686340639
sg16
I6838560
sg8
I00
sg17
S'16157.72129'
p1951
sg19
g20
sba(igraph
Vertex
p1952
(dp1953
g14
F-14.103992451523382
sg15
F-196.11932194491288
sg16
I6838561
sg8
I00
sg17
S'16157.722591'
p1954
sg19
g20
sbasg24
I00
sg25
I00
sg26
I6838271
sg17
S'16159.4106396'
p1955
sba(igraph
Edge
p1956
(dp1957
g7
I1
sg8
I00
sg9
I5
sg10
(lp1958
g1929
ag1939
asg24
I00
sg25
I00
sg26
I6838272
sg17
S'16159.4186739'
p1959
sba(igraph
Edge
p1960
(dp1961
g7
I1
sg8
I00
sg9
I5
sg10
(lp1962
g1932
ag1942
asg24
I00
sg25
I00
sg26
I6838273
sg17
S'16159.4267456'
p1963
sba(igraph
Edge
p1964
(dp1965
g7
I1
sg8
I00
sg9
I5
sg10
(lp1966
g1939
ag1949
asg24
I00
sg25
I00
sg26
I6838274
sg17
S'16159.4352684'
p1967
sba(igraph
Edge
p1968
(dp1969
g7
I1
sg8
I00
sg9
I5
sg10
(lp1970
g1942
ag1952
asg24
I00
sg25
I00
sg26
I6838275
sg17
S'16159.4436477'
p1971
sba(igraph
Edge
p1972
(dp1973
g7
I1
sg8
I00
sg9
I5
sg10
(lp1974
g1932
ag1939
asg24
I00
sg25
I00
sg26
I6838276
sg17
S'16159.4522843'
p1975
sba(igraph
Edge
p1976
(dp1977
g7
I1
sg8
I00
sg9
I5
sg10
(lp1978
g1942
ag1949
asg24
I00
sg25
I00
sg26
I6838277
sg17
S'16159.4606155'
p1979
sba(igraph
Edge
p1980
(dp1981
g7
I1
sg8
I00
sg9
I5
sg10
(lp1982
(igraph
Vertex
p1983
(dp1984
g14
F-115.99287516041527
sg15
F-238.49077217537939
sg16
I6838562
sg8
I00
sg17
S'16157.7238965'
p1985
sg19
g20
sba(igraph
Vertex
p1986
(dp1987
g14
F-115.99287516041527
sg15
F-195.59261725688589
sg16
I6838563
sg8
I00
sg17
S'16157.72521'
p1988
sg19
g20
sbasg24
I00
sg25
I00
sg26
I6838278
sg17
S'16159.4691174'
p1989
sba(igraph
Edge
p1990
(dp1991
g7
I1
sg8
I00
sg9
I5
sg10
(lp1992
g1929
ag1983
asg24
I00
sg25
I00
sg26
I6838279
sg17
S'16159.4774163'
p1993
sba(igraph
Edge
p1994
(dp1995
g7
I1
sg8
I00
sg9
I5
sg10
(lp1996
g1929
ag1986
asg24
I00
sg25
I00
sg26
I6838280
sg17
S'16159.4857031'
p1997
sba(igraph
Edge
p1998
(dp1999
g7
I1
sg8
I00
sg9
I5
sg10
(lp2000
g1932
ag1986
asg24
I00
sg25
I00
sg26
I6838281
sg17
S'16159.4940469'
p2001
sba(igraph
Edge
p2002
(dp2003
g7
I1
sg8
I00
sg9
I5
sg10
(lp2004
(igraph
Vertex
p2005
(dp2006
g14
F19.486681504798113
sg15
F-239.02325824620573
sg16
I6838564
sg8
I00
sg17
S'16157.7268846'
p2007
sg19
g20
sba(igraph
Vertex
p2008
(dp2009
g14
F19.486681504798113
sg15
F-196.12510332771222
sg16
I6838565
sg8
I00
sg17
S'16157.7283652'
p2010
sg19
g20
sbasg24
I00
sg25
I00
sg26
I6838282
sg17
S'16159.5024217'
p2011
sba(igraph
Edge
p2012
(dp2013
g7
I1
sg8
I00
sg9
I5
sg10
(lp2014
g1949
ag2005
asg24
I00
sg25
I00
sg26
I6838283
sg17
S'16159.5107523'
p2015
sba(igraph
Edge
p2016
(dp2017
g7
I1
sg8
I00
sg9
I5
sg10
(lp2018
g1952
ag2005
asg24
I00
sg25
I00
sg26
I6838284
sg17
S'16159.5194551'
p2019
sba(igraph
Edge
p2020
(dp2021
g7
I1
sg8
I00
sg9
I5
sg10
(lp2022
g1952
ag2008
asg24
I00
sg25
I00
sg26
I6838285
sg17
S'16159.5279425'
p2023
sba(igraph
Edge
p2024
(dp2025
g7
I1
sg8
I00
sg9
I5
sg10
(lp2026
(igraph
Vertex
p2027
(dp2028
g14
F53.221669097850267
sg15
F-237.02325824620573
sg16
I6838566
sg8
I00
sg17
S'16157.7297201'
p2029
sg19
g20
sba(igraph
Vertex
p2030
(dp2031
g14
F53.221669097850267
sg15
F-194.12510332771222
sg16
I6838567
sg8
I00
sg17
S'16157.7310806'
p2032
sg19
g20
sbasg24
I00
sg25
I00
sg26
I6838286
sg17
S'16159.5365249'
p2033
sba(igraph
Edge
p2034
(dp2035
g7
I1
sg8
I00
sg9
I5
sg10
(lp2036
g2005
ag2027
asg24
I00
sg25
I00
sg26
I6838287
sg17
S'16159.5452'
p2037
sba(igraph
Edge
p2038
(dp2039
g7
I1
sg8
I00
sg9
I5
sg10
(lp2040
g2008
ag2027
asg24
I00
sg25
I00
sg26
I6838288
sg17
S'16159.5537084'
p2041
sba(igraph
Edge
p2042
(dp2043
g7
I1
sg8
I00
sg9
I5
sg10
(lp2044
g2008
ag2030
asg24
I00
sg25
I00
sg26
I6838289
sg17
S'16159.5623259'
p2045
sba(igraph
Edge
p2046
(dp2047
g7
I1
sg8
I00
sg9
I5
sg10
(lp2048
(igraph
Vertex
p2049
(dp2050
g14
F88.052154500755407
sg15
F-238.31715598650919
sg16
I6838568
sg8
I00
sg17
S'16157.7325046'
p2051
sg19
g20
sba(igraph
Vertex
p2052
(dp2053
g14
F88.052154500755407
sg15
F-195.41900106801575
sg16
I6838569
sg8
I00
sg17
S'16157.7338774'
p2054
sg19
g20
sbasg24
I00
sg25
I00
sg26
I6838290
sg17
S'16159.5707692'
p2055
sba(igraph
Edge
p2056
(dp2057
g7
I1
sg8
I00
sg9
I5
sg10
(lp2058
g2027
ag2049
asg24
I00
sg25
I00
sg26
I6838291
sg17
S'16159.5792314'
p2059
sba(igraph
Edge
p2060
(dp2061
g7
I1
sg8
I00
sg9
I5
sg10
(lp2062
g2030
ag2049
asg24
I00
sg25
I00
sg26
I6838292
sg17
S'16159.5877758'
p2063
sba(igraph
Edge
p2064
(dp2065
g7
I1
sg8
I00
sg9
I5
sg10
(lp2066
g2030
ag2052
asg24
I00
sg25
I00
sg26
I6838293
sg17
S'16159.5962526'
p2067
sba(igraph
Edge
p2068
(dp2069
g7
I1
sg8
I00
sg9
I5
sg10
(lp2070
(igraph
Vertex
p2071
(dp2072
g14
F119.25701802432859
sg15
F-236.31715598650925
sg16
I6838570
sg8
I00
sg17
S'16157.7356404'
p2073
sg19
g20
sba(igraph
Vertex
p2074
(dp2075
g14
F119.25701802432859
sg15
F-193.41900106801575
sg16
I6838571
sg8
I00
sg17
S'16157.7370643'
p2076
sg19
g20
sbasg24
I00
sg25
I00
sg26
I6838294
sg17
S'16159.6047643'
p2077
sba(igraph
Edge
p2078
(dp2079
g7
I1
sg8
I00
sg9
I5
sg10
(lp2080
g2049
ag2071
asg24
I00
sg25
I00
sg26
I6838295
sg17
S'16159.6133363'
p2081
sba(igraph
Edge
p2082
(dp2083
g7
I1
sg8
I00
sg9
I5
sg10
(lp2084
g2052
ag2071
asg24
I00
sg25
I00
sg26
I6838296
sg17
S'16159.6224068'
p2085
sba(igraph
Edge
p2086
(dp2087
g7
I1
sg8
I00
sg9
I5
sg10
(lp2088
g2052
ag2074
asg24
I00
sg25
I00
sg26
I6838297
sg17
S'16159.6311514'
p2089
sba(igraph
Edge
p2090
(dp2091
g7
I1
sg8
I00
sg9
I5
sg10
(lp2092
(igraph
Vertex
p2093
(dp2094
g14
F151.7269435826413
sg15
F-240.31715598650928
sg16
I6838572
sg8
I00
sg17
S'16157.7385045'
p2095
sg19
g20
sba(igraph
Vertex
p2096
(dp2097
g14
F151.7269435826413
sg15
F-197.41900106801575
sg16
I6838574
sg8
I01
sg17
S'16157.7399278'
p2098
sg19
I0
sbasg24
I00
sg25
I00
sg26
I6838298
sg17
S'16159.6399562'
p2099
sba(igraph
Edge
p2100
(dp2101
g7
I1
sg8
I00
sg9
I5
sg10
(lp2102
g2071
ag2093
asg24
I00
sg25
I00
sg26
I6838299
sg17
S'16159.6487869'
p2103
sba(igraph
Edge
p2104
(dp2105
g7
I1
sg8
I00
sg9
I5
sg10
(lp2106
g2074
ag2093
asg24
I00
sg25
I00
sg26
I6838300
sg17
S'16159.6579889'
p2107
sba(igraph
Edge
p2108
(dp2109
g7
I1
sg8
I00
sg9
I5
sg10
(lp2110
g2074
ag2096
asg24
I00
sg25
I00
sg26
I6838301
sg17
S'16159.6669007'
p2111
sba(igraph
Edge
p2112
(dp2113
g7
I1
sg8
I00
sg9
I5
sg10
(lp2114
(igraph
Vertex
p2115
(dp2116
g14
F178.61536996851186
sg15
F-237.15124816188865
sg16
I6838576
sg8
I00
sg17
S'16157.7416311'
p2117
sg19
g20
sba(igraph
Vertex
p2118
(dp2119
g14
F178.61536996851186
sg15
F-194.25309324339514
sg16
I6838577
sg8
I00
sg17
S'16157.7431076'
p2120
sg19
g20
sbasg24
I00
sg25
I00
sg26
I6838302
sg17
S'16159.6757015'
p2121
sba(igraph
Edge
p2122
(dp2123
g7
I1
sg8
I00
sg9
I5
sg10
(lp2124
(igraph
Vertex
p2125
(dp2126
g14
F209.60514265046567
sg15
F-236.03007639123103
sg16
I6838579
sg8
I01
sg17
S'16157.744567'
p2127
sg19
I0
sba(igraph
Vertex
p2128
(dp2129
g14
F209.82023349208504
sg15
F-192.25309324339514
sg16
I6838581
sg8
I00
sg17
S'16157.7462312'
p2130
sg19
g20
sbasg24
I00
sg25
I00
sg26
I6838303
sg17
S'16159.6845884'
p2131
sba(igraph
Edge
p2132
(dp2133
g7
I1
sg8
I00
sg9
I5
sg10
(lp2134
g2115
ag2125
asg24
I00
sg25
I00
sg26
I6838304
sg17
S'16159.6936706'
p2135
sba(igraph
Edge
p2136
(dp2137
g7
I1
sg8
I00
sg9
I5
sg10
(lp2138
g2118
ag2125
asg24
I00
sg25
I00
sg26
I6838305
sg17
S'16159.7026971'
p2139
sba(igraph
Edge
p2140
(dp2141
g7
I1
sg8
I00
sg9
I5
sg10
(lp2142
g2118
ag2128
asg24
I00
sg25
I00
sg26
I6838306
sg17
S'16159.7116924'
p2143
sba(igraph
Edge
p2144
(dp2145
g7
I1
sg8
I00
sg9
I5
sg10
(lp2146
g2093
ag2115
asg24
I00
sg25
I00
sg26
I6838307
sg17
S'16159.7207072'
p2147
sba(igraph
Edge
p2148
(dp2149
g7
I1
sg8
I00
sg9
I5
sg10
(lp2150
g2096
ag2115
asg24
I00
sg25
I00
sg26
I6838308
sg17
S'16159.7297212'
p2151
sba(igraph
Edge
p2152
(dp2153
g7
I1
sg8
I00
sg9
I5
sg10
(lp2154
g2096
ag2118
asg24
I00
sg25
I00
sg26
I6838309
sg17
S'16159.7387383'
p2155
sba(igraph
Edge
p2156
(dp2157
g7
I1
sg8
I00
sg9
I5
sg10
(lp2158
(igraph
Vertex
p2159
(dp2160
g14
F-185.49449858421275
sg15
F-238.41460050590211
sg16
I6838583
sg8
I01
sg17
S'16157.7476998'
p2161
sg19
I0
sba(igraph
Vertex
p2162
(dp2163
g14
F-185.49449858421275
sg15
F-195.51644558740861
sg16
I6838585
sg8
I00
sg17
S'16157.7493545'
p2164
sg19
g20
sbasg24
I00
sg25
I00
sg26
I6838310
sg17
S'16159.7478138'
p2165
sba(igraph
Edge
p2166
(dp2167
g7
I1
sg8
I00
sg9
I5
sg10
(lp2168
(igraph
Vertex
p2169
(dp2170
g14
F-150.30899865836506
sg15
F-238.41460050590211
sg16
I6838586
sg8
I00
sg17
S'16157.7508533'
p2171
sg19
g20
sba(igraph
Vertex
p2172
(dp2173
g14
F-150.30899865836506
sg15
F-195.51644558740861
sg16
I6838587
sg8
I00
sg17
S'16157.7523722'
p2174
sg19
g20
sbasg24
I00
sg25
I00
sg26
I6838311
sg17
S'16159.7567713'
p2175
sba(igraph
Edge
p2176
(dp2177
g7
I1
sg8
I00
sg9
I5
sg10
(lp2178
g2159
ag2169
asg24
I00
sg25
I00
sg26
I6838312
sg17
S'16159.7658133'
p2179
sba(igraph
Edge
p2180
(dp2181
g7
I1
sg8
I00
sg9
I5
sg10
(lp2182
g2162
ag2172
asg24
I00
sg25
I00
sg26
I6838313
sg17
S'16159.7748965'
p2183
sba(igraph
Edge
p2184
(dp2185
g7
I1
sg8
I00
sg9
I5
sg10
(lp2186
g2162
ag2169
asg24
I00
sg25
I00
sg26
I6838314
sg17
S'16159.7839382'
p2187
sba(igraph
Edge
p2188
(dp2189
g7
I1
sg8
I00
sg9
I5
sg10
(lp2190
g1983
ag2169
asg24
I00
sg25
I00
sg26
I6838315
sg17
S'16159.7929659'
p2191
sba(igraph
Edge
p2192
(dp2193
g7
I1
sg8
I00
sg9
I5
sg10
(lp2194
g1983
ag2172
asg24
I00
sg25
I00
sg26
I6838316
sg17
S'16159.8020969'
p2195
sba(igraph
Edge
p2196
(dp2197
g7
I1
sg8
I00
sg9
I5
sg10
(lp2198
g1986
ag2172
asg24
I00
sg25
I00
sg26
I6838317
sg17
S'16159.8112383'
p2199
sba(igraph
Edge
p2200
(dp2201
g7
I1
sg8
I00
sg9
I5
sg10
(lp2202
(igraph
Vertex
p2203
(dp2204
g14
F-213.45615729845696
sg15
F-237.45268634064075
sg16
I6838588
sg8
I00
sg17
S'16157.7538891'
p2205
sg19
g20
sba(igraph
Vertex
p2206
(dp2207
g14
F-213.45615729845696
sg15
F-194.55453142214725
sg16
I6838589
sg8
I00
sg17
S'16157.755413'
p2208
sg19
g20
sbasg24
I00
sg25
I00
sg26
I6838318
sg17
S'16159.8203978'
p2209
sba(igraph
Edge
p2210
(dp2211
g7
I1
sg8
I00
sg9
I5
sg10
(lp2212
g2159
ag2203
asg24
I00
sg25
I00
sg26
I6838319
sg17
S'16159.8295758'
p2213
sba(igraph
Edge
p2214
(dp2215
g7
I1
sg8
I00
sg9
I5
sg10
(lp2216
g2159
ag2206
asg24
I00
sg25
I00
sg26
I6838320
sg17
S'16159.8387639'
p2217
sba(igraph
Edge
p2218
(dp2219
g7
I1
sg8
I00
sg9
I5
sg10
(lp2220
g2162
ag2206
asg24
I00
sg25
I00
sg26
I6838321
sg17
S'16159.8479793'
p2221
sba(igraph
Edge
p2222
(dp2223
g7
I1
sg8
I00
sg9
I5
sg10
(lp2224
g1278
ag2128
asg24
I00
sg25
I00
sg26
I6838322
sg17
S'16159.8572313'
p2225
sba(igraph
Edge
p2226
(dp2227
g7
I1
sg8
I00
sg9
I5
sg10
(lp2228
g2128
ag1219
asg24
I00
sg25
I00
sg26
I6838323
sg17
S'16159.8666758'
p2229
sba(igraph
Edge
p2230
(dp2231
g7
I1
sg8
I00
sg9
I5
sg10
(lp2232
g1219
ag2118
asg24
I00
sg25
I00
sg26
I6838324
sg17
S'16159.8760071'
p2233
sba(igraph
Edge
p2234
(dp2235
g7
I1
sg8
I00
sg9
I5
sg10
(lp2236
g2118
ag965
asg24
I00
sg25
I00
sg26
I6838325
sg17
S'16159.8852382'
p2237
sba(igraph
Edge
p2238
(dp2239
g7
I1
sg8
I00
sg9
I5
sg10
(lp2240
g965
ag2096
asg24
I00
sg25
I00
sg26
I6838326
sg17
S'16159.8946254'
p2241
sba(igraph
Edge
p2242
(dp2243
g7
I1
sg8
I00
sg9
I5
sg10
(lp2244
g2096
ag838
asg24
I00
sg25
I00
sg26
I6838327
sg17
S'16159.904021'
p2245
sba(igraph
Edge
p2246
(dp2247
g7
I1
sg8
I00
sg9
I5
sg10
(lp2248
g838
ag2074
asg24
I00
sg25
I00
sg26
I6838328
sg17
S'16159.9133993'
p2249
sba(igraph
Edge
p2250
(dp2251
g7
I1
sg8
I00
sg9
I5
sg10
(lp2252
g2074
ag711
asg24
I00
sg25
I00
sg26
I6838329
sg17
S'16159.9230126'
p2253
sba(igraph
Edge
p2254
(dp2255
g7
I1
sg8
I00
sg9
I5
sg10
(lp2256
g711
ag2052
asg24
I00
sg25
I00
sg26
I6838330
sg17
S'16159.9324543'
p2257
sba(igraph
Edge
p2258
(dp2259
g7
I1
sg8
I00
sg9
I5
sg10
(lp2260
g2052
ag584
asg24
I00
sg25
I00
sg26
I6838331
sg17
S'16159.9417786'
p2261
sba(igraph
Edge
p2262
(dp2263
g7
I1
sg8
I00
sg9
I5
sg10
(lp2264
g584
ag2030
asg24
I00
sg25
I00
sg26
I6838332
sg17
S'16159.9510974'
p2265
sba(igraph
Edge
p2266
(dp2267
g7
I1
sg8
I00
sg9
I5
sg10
(lp2268
g2030
ag457
asg24
I00
sg25
I00
sg26
I6838333
sg17
S'16159.9607425'
p2269
sba(igraph
Edge
p2270
(dp2271
g7
I1
sg8
I00
sg9
I5
sg10
(lp2272
g457
ag2008
asg24
I00
sg25
I00
sg26
I6838334
sg17
S'16159.9703524'
p2273
sba(igraph
Edge
p2274
(dp2275
g7
I1
sg8
I00
sg9
I5
sg10
(lp2276
g2008
ag41
asg24
I00
sg25
I00
sg26
I6838335
sg17
S'16159.9799396'
p2277
sba(igraph
Edge
p2278
(dp2279
g7
I1
sg8
I00
sg9
I5
sg10
(lp2280
g41
ag1952
asg24
I00
sg25
I00
sg26
I6838336
sg17
S'16159.9894864'
p2281
sba(igraph
Edge
p2282
(dp2283
g7
I1
sg8
I00
sg9
I5
sg10
(lp2284
g1952
ag31
asg24
I00
sg25
I00
sg26
I6838337
sg17
S'16159.9991837'
p2285
sba(igraph
Edge
p2286
(dp2287
g7
I1
sg8
I00
sg9
I5
sg10
(lp2288
g31
ag1942
asg24
I00
sg25
I00
sg26
I6838338
sg17
S'16160.0086695'
p2289
sba(igraph
Edge
p2290
(dp2291
g7
I1
sg8
I00
sg9
I5
sg10
(lp2292
g1942
ag12
asg24
I00
sg25
I00
sg26
I6838339
sg17
S'16160.0187298'
p2293
sba(igraph
Edge
p2294
(dp2295
g7
I1
sg8
I00
sg9
I5
sg10
(lp2296
g12
ag1932
asg24
I00
sg25
I00
sg26
I6838340
sg17
S'16160.0284885'
p2297
sba(igraph
Edge
p2298
(dp2299
g7
I1
sg8
I00
sg9
I5
sg10
(lp2300
g1932
ag330
asg24
I00
sg25
I00
sg26
I6838341
sg17
S'16160.03804'
p2301
sba(igraph
Edge
p2302
(dp2303
g7
I1
sg8
I00
sg9
I5
sg10
(lp2304
g330
ag1986
asg24
I00
sg25
I00
sg26
I6838342
sg17
S'16160.0477759'
p2305
sba(igraph
Edge
p2306
(dp2307
g7
I1
sg8
I00
sg9
I5
sg10
(lp2308
g1986
ag1513
asg24
I00
sg25
I00
sg26
I6838343
sg17
S'16160.0575783'
p2309
sba(igraph
Edge
p2310
(dp2311
g7
I1
sg8
I00
sg9
I5
sg10
(lp2312
g1513
ag2172
asg24
I00
sg25
I00
sg26
I6838344
sg17
S'16160.0673465'
p2313
sba(igraph
Edge
p2314
(dp2315
g7
I1
sg8
I00
sg9
I5
sg10
(lp2316
g2172
ag1503
asg24
I00
sg25
I00
sg26
I6838345
sg17
S'16160.0770469'
p2317
sba(igraph
Edge
p2318
(dp2319
g7
I1
sg8
I00
sg9
I5
sg10
(lp2320
g1503
ag2162
asg24
I00
sg25
I00
sg26
I6838346
sg17
S'16160.0870317'
p2321
sba(igraph
Edge
p2322
(dp2323
g7
I1
sg8
I00
sg9
I5
sg10
(lp2324
g2162
ag1787
asg24
I00
sg25
I00
sg26
I6838347
sg17
S'16160.0968746'
p2325
sba(igraph
Edge
p2326
(dp2327
g7
I1
sg8
I00
sg9
I5
sg10
(lp2328
g1787
ag2206
asg24
I00
sg25
I00
sg26
I6838348
sg17
S'16160.1068348'
p2329
sba(igraph
Edge
p2330
(dp2331
g7
I1
sg8
I00
sg9
I5
sg10
(lp2332
g1689
ag2203
asg24
I00
sg25
I00
sg26
I6838349
sg17
S'16160.1167565'
p2333
sba(igraph
Edge
p2334
(dp2335
g7
I1
sg8
I00
sg9
I5
sg10
(lp2336
g1846
ag2203
asg24
I00
sg25
I00
sg26
I6838350
sg17
S'16160.1267035'
p2337
sba(igraph
Edge
p2338
(dp2339
g7
I1
sg8
I00
sg9
I5
sg10
(lp2340
g1689
ag2159
asg24
I00
sg25
I00
sg26
I6838351
sg17
S'16160.1365352'
p2341
sba(igraph
Edge
p2342
(dp2343
g7
I1
sg8
I00
sg9
I5
sg10
(lp2344
g1692
ag2159
asg24
I00
sg25
I00
sg26
I6838352
sg17
S'16160.1465147'
p2345
sba(igraph
Edge
p2346
(dp2347
g7
I1
sg8
I00
sg9
I5
sg10
(lp2348
g1109
ag2169
asg24
I00
sg25
I00
sg26
I6838353
sg17
S'16160.1563816'
p2349
sba(igraph
Edge
p2350
(dp2351
g7
I1
sg8
I00
sg9
I5
sg10
(lp2352
g1692
ag2169
asg24
I00
sg25
I00
sg26
I6838354
sg17
S'16160.1664985'
p2353
sba(igraph
Edge
p2354
(dp2355
g7
I1
sg8
I00
sg9
I5
sg10
(lp2356
g1092
ag1983
asg24
I00
sg25
I00
sg26
I6838355
sg17
S'16160.1764917'
p2357
sba(igraph
Edge
p2358
(dp2359
g7
I1
sg8
I00
sg9
I5
sg10
(lp2360
g1109
ag1983
asg24
I00
sg25
I00
sg26
I6838356
sg17
S'16160.1864717'
p2361
sba(igraph
Edge
p2362
(dp2363
g7
I1
sg8
I00
sg9
I5
sg10
(lp2364
g1092
ag1929
asg24
I00
sg25
I00
sg26
I6838357
sg17
S'16160.1964132'
p2365
sba(igraph
Edge
p2366
(dp2367
g7
I1
sg8
I00
sg9
I5
sg10
(lp2368
g1095
ag1929
asg24
I00
sg25
I00
sg26
I6838358
sg17
S'16160.2063349'
p2369
sba(igraph
Edge
p2370
(dp2371
g7
I1
sg8
I00
sg9
I5
sg10
(lp2372
g1095
ag1939
asg24
I00
sg25
I00
sg26
I6838359
sg17
S'16160.2163588'
p2373
sba(igraph
Edge
p2374
(dp2375
g7
I1
sg8
I00
sg9
I5
sg10
(lp2376
g1102
ag1939
asg24
I00
sg25
I00
sg26
I6838360
sg17
S'16160.2262723'
p2377
sba(igraph
Edge
p2378
(dp2379
g7
I1
sg8
I00
sg9
I5
sg10
(lp2380
g1102
ag1949
asg24
I00
sg25
I00
sg26
I6838361
sg17
S'16160.2365273'
p2381
sba(igraph
Edge
p2382
(dp2383
g7
I1
sg8
I00
sg9
I5
sg10
(lp2384
g1116
ag1949
asg24
I00
sg25
I00
sg26
I6838362
sg17
S'16160.2467389'
p2385
sba(igraph
Edge
p2386
(dp2387
g7
I1
sg8
I00
sg9
I5
sg10
(lp2388
g1116
ag2005
asg24
I00
sg25
I00
sg26
I6838363
sg17
S'16160.2569293'
p2389
sba(igraph
Edge
p2390
(dp2391
g7
I1
sg8
I00
sg9
I5
sg10
(lp2392
g1123
ag2005
asg24
I00
sg25
I00
sg26
I6838364
sg17
S'16160.267013'
p2393
sba(igraph
Edge
p2394
(dp2395
g7
I1
sg8
I00
sg9
I5
sg10
(lp2396
g1123
ag2027
asg24
I00
sg25
I00
sg26
I6838365
sg17
S'16160.2774325'
p2397
sba(igraph
Edge
p2398
(dp2399
g7
I1
sg8
I00
sg9
I5
sg10
(lp2400
g1130
ag2027
asg24
I00
sg25
I00
sg26
I6838366
sg17
S'16160.2875122'
p2401
sba(igraph
Edge
p2402
(dp2403
g7
I1
sg8
I00
sg9
I5
sg10
(lp2404
g1130
ag2049
asg24
I00
sg25
I00
sg26
I6838367
sg17
S'16160.2976856'
p2405
sba(igraph
Edge
p2406
(dp2407
g7
I1
sg8
I00
sg9
I5
sg10
(lp2408
g1137
ag2049
asg24
I00
sg25
I00
sg26
I6838368
sg17
S'16160.3080031'
p2409
sba(igraph
Edge
p2410
(dp2411
g7
I1
sg8
I00
sg9
I5
sg10
(lp2412
g1137
ag2071
asg24
I00
sg25
I00
sg26
I6838369
sg17
S'16160.3183578'
p2413
sba(igraph
Edge
p2414
(dp2415
g7
I1
sg8
I00
sg9
I5
sg10
(lp2416
g1144
ag2071
asg24
I00
sg25
I00
sg26
I6838370
sg17
S'16160.3338243'
p2417
sba(igraph
Edge
p2418
(dp2419
g7
I1
sg8
I00
sg9
I5
sg10
(lp2420
g1144
ag2093
asg24
I00
sg25
I00
sg26
I6838371
sg17
S'16160.3464217'
p2421
sba(igraph
Edge
p2422
(dp2423
g7
I1
sg8
I00
sg9
I5
sg10
(lp2424
g1405
ag2093
asg24
I00
sg25
I00
sg26
I6838372
sg17
S'16160.3614448'
p2425
sba(igraph
Edge
p2426
(dp2427
g7
I1
sg8
I00
sg9
I5
sg10
(lp2428
g1405
ag2115
asg24
I00
sg25
I00
sg26
I6838373
sg17
S'16160.3724378'
p2429
sba(igraph
Edge
p2430
(dp2431
g7
I1
sg8
I00
sg9
I5
sg10
(lp2432
g1408
ag2115
asg24
I00
sg25
I00
sg26
I6838374
sg17
S'16160.3908614'
p2433
sba(igraph
Edge
p2434
(dp2435
g7
I1
sg8
I00
sg9
I5
sg10
(lp2436
g1408
ag2125
asg24
I00
sg25
I00
sg26
I6838375
sg17
S'16160.4034893'
p2437
sba(igraph
Edge
p2438
(dp2439
g7
I1
sg8
I00
sg9
I5
sg10
(lp2440
g85
ag102
asg24
I00
sg25
I00
sg26
I6838376
sg17
S'16160.4155511'
p2441
sba(igraph
Edge
p2442
(dp2443
g7
I1
sg8
I01
sg9
I5
sg10
(lp2444
g2128
ag2203
asg24
I00
sg25
I00
sg26
I6838378
sg17
S'16160.4282863'
p2445
sba(igraph
Edge
p2446
(dp2447
g7
I1
sg8
I00
sg9
I5
sg10
(lp2448
g2128
ag2206
asg24
I00
sg25
I00
sg26
I6838379
sg17
S'16160.4401596'
p2449
sba(igraph
Edge
p2450
(dp2451
g7
I1
sg8
I00
sg9
I5
sg10
(lp2452
g1278
ag1787
asg24
I00
sg25
I00
sg26
I6838380
sg17
S'16160.4507939'
p2453
sba(igraph
Edge
p2454
(dp2455
g7
I1
sg8
I00
sg9
I5
sg10
(lp2456
g1278
ag2206
asg24
I00
sg25
I00
sg26
I6838381
sg17
S'16160.4612826'
p2457
sba(igraph
Edge
p2458
(dp2459
g7
I1
sg8
I00
sg9
I5
sg10
(lp2460
g1281
ag1787
asg24
I00
sg25
I00
sg26
I6838382
sg17
S'16160.4718982'
p2461
sba(igraph
Edge
p2462
(dp2463
g7
I1
sg8
I00
sg9
I5
sg10
(lp2464
g1281
ag1790
asg24
I00
sg25
I00
sg26
I6838383
sg17
S'16160.482891'
p2465
sba(igraph
Edge
p2466
(dp2467
g7
I1
sg8
I00
sg9
I5
sg10
(lp2468
g1288
ag1790
asg24
I00
sg25
I00
sg26
I6838384
sg17
S'16160.4935275'
p2469
sba(igraph
Edge
p2470
(dp2471
g7
I1
sg8
I00
sg9
I5
sg10
(lp2472
g1288
ag1797
asg24
I00
sg25
I00
sg26
I6838385
sg17
S'16160.5041143'
p2473
sba(igraph
Edge
p2474
(dp2475
g7
I1
sg8
I00
sg9
I5
sg10
(lp2476
g1291
ag1797
asg24
I00
sg25
I00
sg26
I6838386
sg17
S'16160.5149138'
p2477
sba(igraph
Edge
p2478
(dp2479
g7
I1
sg8
I00
sg9
I5
sg10
(lp2480
g1291
ag1800
asg24
I00
sg25
I00
sg26
I6838387
sg17
S'16160.5256389'
p2481
sba(igraph
Edge
p2482
(dp2483
g7
I1
sg8
I00
sg9
I5
sg10
(lp2484
g1298
ag1800
asg24
I00
sg25
I00
sg26
I6838388
sg17
S'16160.5363595'
p2485
sba(igraph
Edge
p2486
(dp2487
g7
I1
sg8
I00
sg9
I5
sg10
(lp2488
g1298
ag1807
asg24
I00
sg25
I00
sg26
I6838389
sg17
S'16160.5471447'
p2489
sba(igraph
Edge
p2490
(dp2491
g7
I1
sg8
I00
sg9
I5
sg10
(lp2492
g1309
ag1807
asg24
I00
sg25
I00
sg26
I6838390
sg17
S'16160.5578463'
p2493
sba(igraph
Edge
p2494
(dp2495
g7
I1
sg8
I00
sg9
I5
sg10
(lp2496
g1309
ag1818
asg24
I00
sg25
I00
sg26
I6838391
sg17
S'16160.5687999'
p2497
sba(igraph
Edge
p2498
(dp2499
g7
I1
sg8
I00
sg9
I5
sg10
(lp2500
g1312
ag1818
asg24
I00
sg25
I00
sg26
I6838392
sg17
S'16160.579477'
p2501
sba(igraph
Edge
p2502
(dp2503
g7
I1
sg8
I00
sg9
I5
sg10
(lp2504
g1312
ag1821
asg24
I00
sg25
I00
sg26
I6838393
sg17
S'16160.5902278'
p2505
sba(igraph
Edge
p2506
(dp2507
g7
I1
sg8
I00
sg9
I5
sg10
(lp2508
g1319
ag1821
asg24
I00
sg25
I00
sg26
I6838394
sg17
S'16160.6009646'
p2509
sba(igraph
Edge
p2510
(dp2511
g7
I1
sg8
I00
sg9
I5
sg10
(lp2512
g1319
ag1828
asg24
I00
sg25
I00
sg26
I6838395
sg17
S'16160.6116339'
p2513
sba(igraph
Edge
p2514
(dp2515
g7
I1
sg8
I00
sg9
I5
sg10
(lp2516
g1326
ag1828
asg24
I00
sg25
I00
sg26
I6838396
sg17
S'16160.6238388'
p2517
sba(igraph
Edge
p2518
(dp2519
g7
I1
sg8
I00
sg9
I5
sg10
(lp2520
g1326
ag1835
asg24
I00
sg25
I00
sg26
I6838397
sg17
S'16160.6363515'
p2521
sba(igraph
Edge
p2522
(dp2523
g7
I1
sg8
I00
sg9
I5
sg10
(lp2524
g1408
ag1835
asg24
I00
sg25
I00
sg26
I6838398
sg17
S'16160.6476859'
p2525
sba(igraph
Edge
p2526
(dp2527
g7
I1
sg8
I00
sg9
I5
sg10
(lp2528
g1408
ag1846
asg24
I00
sg25
I00
sg26
I6838399
sg17
S'16160.6589139'
p2529
sba(igraph
Edge
p2530
(dp2531
g7
I1
sg8
I00
sg9
I5
sg10
(lp2532
g1846
ag2125
asg24
I00
sg25
I00
sg26
I6838400
sg17
S'16160.6699483'
p2533
sba(igraph
Edge
p2534
(dp2535
g7
I1
sg8
I00
sg9
I5
sg10
(lp2536
g2125
ag2203
asg24
I00
sg25
I00
sg26
I6838401
sg17
S'16160.6808885'
p2537
sbasS'vertices'
p2538
(lp2539
g12
ag21
ag31
ag34
ag41
ag44
ag75
ag78
ag85
ag92
ag95
ag102
ag109
ag112
ag119
ag182
ag185
ag192
ag199
ag202
ag209
ag216
ag219
ag226
ag273
ag276
ag283
ag330
ag333
ag340
ag343
ag350
ag361
ag364
ag371
ag378
ag457
ag460
ag467
ag470
ag477
ag488
ag491
ag498
ag505
ag584
ag587
ag594
ag597
ag604
ag615
ag618
ag625
ag632
ag711
ag714
ag721
ag724
ag731
ag742
ag745
ag752
ag759
ag838
ag841
ag848
ag851
ag858
ag869
ag872
ag879
ag886
ag965
ag968
ag975
ag978
ag985
ag996
ag999
ag1006
ag1013
ag1092
ag1095
ag1102
ag1109
ag1116
ag1123
ag1130
ag1137
ag1144
ag1219
ag1222
ag1229
ag1232
ag1239
ag1250
ag1253
ag1260
ag1267
ag1278
ag1281
ag1288
ag1291
ag1298
ag1309
ag1312
ag1319
ag1326
ag1405
ag1408
ag1503
ag1506
ag1513
ag1516
ag1535
ag1538
ag1545
ag1552
ag1555
ag1562
ag1601
ag1604
ag1611
ag1618
ag1621
ag1628
ag1655
ag1658
ag1689
ag1692
ag1787
ag1790
ag1797
ag1800
ag1807
ag1818
ag1821
ag1828
ag1835
ag1846
ag1929
ag1932
ag1939
ag1942
ag1949
ag1952
ag1983
ag1986
ag2005
ag2008
ag2027
ag2030
ag2049
ag2052
ag2071
ag2074
ag2093
ag2096
ag2115
ag2118
ag2125
ag2128
ag2159
ag2162
ag2169
ag2172
ag2203
ag2206
asS'tags'
p2540
(lp2541
sb.