(igraph
Graph
p0
(dp1
S'labelingConstraints'
p2
I-1
sS'edges'
p3
(lp4
(igraph
Edge
p5
(dp6
S'direction'
p7
I1
sS'selected'
p8
I00
sS'height'
p9
I5
sS'vs'
p10
(lp11
(igraph
Vertex
p12
(dp13
S'xnorm'
p14
F0.0
sg8
I01
sS'label'
p15
I0
sS'y'
p16
F-281.0
sS'x'
p17
F458.0
sS'circle'
p18
I6103349
sS'id'
p19
S'14715.3653839'
p20
sS'ynorm'
p21
F0.0
sba(igraph
Vertex
p22
(dp23
g14
F0.071428571428571425
sg8
I00
sg15
S'NULL'
p24
sg16
F-281.0
sg17
F406.21428571428572
sg18
I6103351
sg19
S'14715.3654079'
p25
sg21
F0.0
sbasS'wrap'
p26
I00
sS'curved'
p27
I00
sS'line'
p28
I6102988
sg19
S'14715.4271384'
p29
sba(igraph
Edge
p30
(dp31
g7
I1
sg8
I00
sg9
I5
sg10
(lp32
g22
a(igraph
Vertex
p33
(dp34
g14
F0.14285714285714285
sg8
I00
sg15
g24
sg16
F-281.0
sg17
F354.42857142857144
sg18
I6103352
sg19
S'14715.3654316'
p35
sg21
F0.0
sbasg26
I00
sg27
I00
sg28
I6102989
sg19
S'14715.4271981'
p36
sba(igraph
Edge
p37
(dp38
g7
I1
sg8
I00
sg9
I5
sg10
(lp39
g33
a(igraph
Vertex
p40
(dp41
g14
F0.21428571428571436
sg8
I00
sg15
g24
sg16
F-281.0
sg17
F302.64285714285711
sg18
I6103353
sg19
S'14715.3654593'
p42
sg21
F0.0
sbasg26
I00
sg27
I00
sg28
I6102990
sg19
S'14715.4272783'
p43
sba(igraph
Edge
p44
(dp45
g7
I1
sg8
I00
sg9
I5
sg10
(lp46
g40
a(igraph
Vertex
p47
(dp48
g14
F0.2857142857142857
sg8
I00
sg15
g24
sg16
F-281.0
sg17
F250.85714285714286
sg18
I6103354
sg19
S'14715.3654951'
p49
sg21
F0.0
sbasg26
I00
sg27
I00
sg28
I6102991
sg19
S'14715.4273783'
p50
sba(igraph
Edge
p51
(dp52
g7
I1
sg8
I00
sg9
I5
sg10
(lp53
g47
a(igraph
Vertex
p54
(dp55
g14
F0.35714285714285721
sg8
I00
sg15
g24
sg16
F-281.0
sg17
F199.0714285714285
sg18
I6103355
sg19
S'14715.3655696'
p56
sg21
F0.0
sbasg26
I00
sg27
I00
sg28
I6102992
sg19
S'14715.427499'
p57
sba(igraph
Edge
p58
(dp59
g7
I1
sg8
I00
sg9
I5
sg10
(lp60
g54
a(igraph
Vertex
p61
(dp62
g14
F0.42857142857142855
sg8
I00
sg15
g24
sg16
F-281.0
sg17
F147.28571428571428
sg18
I6103356
sg19
S'14715.3656227'
p63
sg21
F0.0
sbasg26
I00
sg27
I00
sg28
I6102993
sg19
S'14715.4276432'
p64
sba(igraph
Edge
p65
(dp66
g7
I1
sg8
I00
sg9
I5
sg10
(lp67
g61
a(igraph
Vertex
p68
(dp69
g14
F0.50000000000000011
sg8
I00
sg15
g24
sg16
F-281.0
sg17
F95.499999999999943
sg18
I6103357
sg19
S'14715.3656811'
p70
sg21
F0.0
sbasg26
I00
sg27
I00
sg28
I6102994
sg19
S'14715.427808'
p71
sba(igraph
Edge
p72
(dp73
g7
I1
sg8
I00
sg9
I5
sg10
(lp74
g68
a(igraph
Vertex
p75
(dp76
g14
F0.57142857142857162
sg8
I00
sg15
g24
sg16
F-281.0
sg17
F43.714285714285552
sg18
I6103358
sg19
S'14715.3657468'
p77
sg21
F0.0
sbasg26
I00
sg27
I00
sg28
I6102995
sg19
S'14715.4279941'
p78
sba(igraph
Edge
p79
(dp80
g7
I1
sg8
I00
sg9
I5
sg10
(lp81
g75
a(igraph
Vertex
p82
(dp83
g14
F0.64285714285714279
sg8
I00
sg15
g24
sg16
F-281.0
sg17
F-8.0714285714284983
sg18
I6103359
sg19
S'14715.3658211'
p84
sg21
F0.0
sbasg26
I00
sg27
I00
sg28
I6102996
sg19
S'14715.4282022'
p85
sba(igraph
Edge
p86
(dp87
g7
I1
sg8
I00
sg9
I5
sg10
(lp88
g82
a(igraph
Vertex
p89
(dp90
g14
F0.7142857142857143
sg8
I00
sg15
g24
sg16
F-281.0
sg17
F-59.85714285714289
sg18
I6103360
sg19
S'14715.3659024'
p91
sg21
F0.0
sbasg26
I00
sg27
I00
sg28
I6102997
sg19
S'14715.4284318'
p92
sba(igraph
Edge
p93
(dp94
g7
I1
sg8
I00
sg9
I5
sg10
(lp95
g89
a(igraph
Vertex
p96
(dp97
g14
F0.78571428571428559
sg8
I00
sg15
g24
sg16
F-281.0
sg17
F-111.642857142857
sg18
I6103361
sg19
S'14715.365992'
p98
sg21
F0.0
sbasg26
I00
sg27
I00
sg28
I6102998
sg19
S'14715.4286819'
p99
sba(igraph
Edge
p100
(dp101
g7
I1
sg8
I00
sg9
I5
sg10
(lp102
g96
a(igraph
Vertex
p103
(dp104
g14
F0.8571428571428571
sg8
I00
sg15
g24
sg16
F-281.0
sg17
F-163.42857142857144
sg18
I6103362
sg19
S'14715.3660904'
p105
sg21
F0.0
sbasg26
I00
sg27
I00
sg28
I6102999
sg19
S'14715.4289537'
p106
sba(igraph
Edge
p107
(dp108
g7
I1
sg8
I00
sg9
I5
sg10
(lp109
g103
a(igraph
Vertex
p110
(dp111
g14
F0.9285714285714286
sg8
I00
sg15
g24
sg16
F-281.0
sg17
F-215.21428571428578
sg18
I6103363
sg19
S'14715.3661979'
p112
sg21
F0.0
sbasg26
I00
sg27
I00
sg28
I6103000
sg19
S'14715.4292465'
p113
sba(igraph
Edge
p114
(dp115
g7
I1
sg8
I00
sg9
I5
sg10
(lp116
g110
a(igraph
Vertex
p117
(dp118
g14
F1.0
sg8
I00
sg15
g24
sg16
F-281.0
sg17
F-267.0
sg18
I6103364
sg19
S'14715.3663125'
p119
sg21
F0.0
sbasg26
I00
sg27
I00
sg28
I6103001
sg19
S'14715.4295605'
p120
sba(igraph
Edge
p121
(dp122
g7
I1
sg8
I00
sg9
I5
sg10
(lp123
g117
ag12
asg26
I00
sg27
I00
sg28
I6103002
sg19
S'14715.4298965'
p124
sba(igraph
Edge
p125
(dp126
g7
I1
sg8
I00
sg9
I5
sg10
(lp127
(igraph
Vertex
p128
(dp129
g14
F0.0
sg8
I00
sg15
g24
sg16
F-205.71428571428572
sg17
F458.0
sg18
I6103365
sg19
S'14715.3665131'
p130
sg21
F0.14285714285714285
sba(igraph
Vertex
p131
(dp132
g14
F0.071428571428571425
sg8
I00
sg15
g24
sg16
F-205.71428571428572
sg17
F406.21428571428572
sg18
I6103366
sg19
S'14715.3666466'
p133
sg21
F0.14285714285714285
sbasg26
I00
sg27
I00
sg28
I6103003
sg19
S'14715.4302773'
p134
sba(igraph
Edge
p135
(dp136
g7
I1
sg8
I00
sg9
I5
sg10
(lp137
g131
a(igraph
Vertex
p138
(dp139
g14
F0.14285714285714285
sg8
I01
sg15
I0
sg16
F-205.71428571428572
sg17
F354.42857142857144
sg18
I6103368
sg19
S'14715.366788'
p140
sg21
F0.14285714285714285
sbasg26
I00
sg27
I00
sg28
I6103004
sg19
S'14715.4306651'
p141
sba(igraph
Edge
p142
(dp143
g7
I1
sg8
I00
sg9
I5
sg10
(lp144
g138
a(igraph
Vertex
p145
(dp146
g14
F0.21428571428571436
sg8
I00
sg15
g24
sg16
F-205.71428571428572
sg17
F302.64285714285711
sg18
I6103370
sg19
S'14715.3669341'
p147
sg21
F0.14285714285714285
sbasg26
I00
sg27
I00
sg28
I6103005
sg19
S'14715.4310796'
p148
sba(igraph
Edge
p149
(dp150
g7
I1
sg8
I00
sg9
I5
sg10
(lp151
g145
a(igraph
Vertex
p152
(dp153
g14
F0.2857142857142857
sg8
I00
sg15
g24
sg16
F-205.71428571428572
sg17
F250.85714285714286
sg18
I6103371
sg19
S'14715.3670902'
p154
sg21
F0.14285714285714285
sbasg26
I00
sg27
I00
sg28
I6103006
sg19
S'14715.4315096'
p155
sba(igraph
Edge
p156
(dp157
g7
I1
sg8
I00
sg9
I5
sg10
(lp158
g152
a(igraph
Vertex
p159
(dp160
g14
F0.35714285714285721
sg8
I00
sg15
g24
sg16
F-205.71428571428572
sg17
F199.0714285714285
sg18
I6103372
sg19
S'14715.3672534'
p161
sg21
F0.14285714285714285
sbasg26
I00
sg27
I00
sg28
I6103007
sg19
S'14715.4319742'
p162
sba(igraph
Edge
p163
(dp164
g7
I1
sg8
I00
sg9
I5
sg10
(lp165
g159
a(igraph
Vertex
p166
(dp167
g14
F0.42857142857142855
sg8
I00
sg15
g24
sg16
F-205.71428571428572
sg17
F147.28571428571428
sg18
I6103373
sg19
S'14715.367423'
p168
sg21
F0.14285714285714285
sbasg26
I00
sg27
I00
sg28
I6103008
sg19
S'14715.4324932'
p169
sba(igraph
Edge
p170
(dp171
g7
I1
sg8
I00
sg9
I5
sg10
(lp172
g166
a(igraph
Vertex
p173
(dp174
g14
F0.50000000000000011
sg8
I00
sg15
g24
sg16
F-205.71428571428572
sg17
F95.499999999999943
sg18
I6103374
sg19
S'14715.3676073'
p175
sg21
F0.14285714285714285
sbasg26
I00
sg27
I00
sg28
I6103009
sg19
S'14715.4329997'
p176
sba(igraph
Edge
p177
(dp178
g7
I1
sg8
I00
sg9
I5
sg10
(lp179
g173
a(igraph
Vertex
p180
(dp181
g14
F0.57142857142857162
sg8
I00
sg15
g24
sg16
F-205.71428571428572
sg17
F43.714285714285552
sg18
I6103375
sg19
S'14715.3677948'
p182
sg21
F0.14285714285714285
sbasg26
I00
sg27
I00
sg28
I6103010
sg19
S'14715.4335174'
p183
sba(igraph
Edge
p184
(dp185
g7
I1
sg8
I00
sg9
I5
sg10
(lp186
g180
a(igraph
Vertex
p187
(dp188
g14
F0.64285714285714279
sg8
I00
sg15
g24
sg16
F-205.71428571428572
sg17
F-8.0714285714284983
sg18
I6103376
sg19
S'14715.3679906'
p189
sg21
F0.14285714285714285
sbasg26
I00
sg27
I00
sg28
I6103011
sg19
S'14715.43407'
p190
sba(igraph
Edge
p191
(dp192
g7
I1
sg8
I00
sg9
I5
sg10
(lp193
g187
a(igraph
Vertex
p194
(dp195
g14
F0.7142857142857143
sg8
I00
sg15
g24
sg16
F-205.71428571428572
sg17
F-59.85714285714289
sg18
I6103377
sg19
S'14715.3681934'
p196
sg21
F0.14285714285714285
sbasg26
I00
sg27
I00
sg28
I6103012
sg19
S'14715.4346326'
p197
sba(igraph
Edge
p198
(dp199
g7
I1
sg8
I00
sg9
I5
sg10
(lp200
g194
a(igraph
Vertex
p201
(dp202
g14
F0.78571428571428559
sg8
I00
sg15
g24
sg16
F-205.71428571428572
sg17
F-111.642857142857
sg18
I6103378
sg19
S'14715.3684044'
p203
sg21
F0.14285714285714285
sbasg26
I00
sg27
I00
sg28
I6103013
sg19
S'14715.4352274'
p204
sba(igraph
Edge
p205
(dp206
g7
I1
sg8
I00
sg9
I5
sg10
(lp207
g201
a(igraph
Vertex
p208
(dp209
g14
F0.8571428571428571
sg8
I00
sg15
g24
sg16
F-205.71428571428572
sg17
F-163.42857142857144
sg18
I6103379
sg19
S'14715.3686209'
p210
sg21
F0.14285714285714285
sbasg26
I00
sg27
I00
sg28
I6103014
sg19
S'14715.4358431'
p211
sba(igraph
Edge
p212
(dp213
g7
I1
sg8
I00
sg9
I5
sg10
(lp214
g208
a(igraph
Vertex
p215
(dp216
g14
F0.9285714285714286
sg8
I00
sg15
g24
sg16
F-205.71428571428572
sg17
F-215.21428571428578
sg18
I6103380
sg19
S'14715.3688469'
p217
sg21
F0.14285714285714285
sbasg26
I00
sg27
I00
sg28
I6103015
sg19
S'14715.4364801'
p218
sba(igraph
Edge
p219
(dp220
g7
I1
sg8
I00
sg9
I5
sg10
(lp221
g215
a(igraph
Vertex
p222
(dp223
g14
F1.0
sg8
I00
sg15
g24
sg16
F-205.71428571428572
sg17
F-267.0
sg18
I6103381
sg19
S'14715.3690821'
p224
sg21
F0.14285714285714285
sbasg26
I00
sg27
I00
sg28
I6103016
sg19
S'14715.4374492'
p225
sba(igraph
Edge
p226
(dp227
g7
I1
sg8
I00
sg9
I5
sg10
(lp228
g222
ag128
asg26
I00
sg27
I00
sg28
I6103017
sg19
S'14715.4381403'
p229
sba(igraph
Edge
p230
(dp231
g7
I1
sg8
I00
sg9
I5
sg10
(lp232
(igraph
Vertex
p233
(dp234
g14
F0.0
sg8
I00
sg15
g24
sg16
F-130.42857142857144
sg17
F458.0
sg18
I6103382
sg19
S'14715.3693254'
p235
sg21
F0.2857142857142857
sba(igraph
Vertex
p236
(dp237
g14
F0.071428571428571425
sg8
I00
sg15
g24
sg16
F-130.42857142857144
sg17
F406.21428571428572
sg18
I6103383
sg19
S'14715.3695766'
p238
sg21
F0.2857142857142857
sbasg26
I00
sg27
I00
sg28
I6103018
sg19
S'14715.4388505'
p239
sba(igraph
Edge
p240
(dp241
g7
I1
sg8
I00
sg9
I5
sg10
(lp242
g236
a(igraph
Vertex
p243
(dp244
g14
F0.14285714285714285
sg8
I00
sg15
g24
sg16
F-130.42857142857144
sg17
F354.42857142857144
sg18
I6103384
sg19
S'14715.3698308'
p245
sg21
F0.2857142857142857
sbasg26
I00
sg27
I00
sg28
I6103019
sg19
S'14715.4395623'
p246
sba(igraph
Edge
p247
(dp248
g7
I1
sg8
I00
sg9
I5
sg10
(lp249
g243
a(igraph
Vertex
p250
(dp251
g14
F0.21428571428571436
sg8
I00
sg15
g24
sg16
F-130.42857142857144
sg17
F302.64285714285711
sg18
I6103385
sg19
S'14715.3701007'
p252
sg21
F0.2857142857142857
sbasg26
I00
sg27
I00
sg28
I6103020
sg19
S'14715.4402828'
p253
sba(igraph
Edge
p254
(dp255
g7
I1
sg8
I00
sg9
I5
sg10
(lp256
g250
a(igraph
Vertex
p257
(dp258
g14
F0.2857142857142857
sg8
I01
sg15
I0
sg16
F-130.42857142857144
sg17
F250.85714285714286
sg18
I6103387
sg19
S'14715.3703778'
p259
sg21
F0.2857142857142857
sbasg26
I00
sg27
I00
sg28
I6103021
sg19
S'14715.4410259'
p260
sba(igraph
Edge
p261
(dp262
g7
I1
sg8
I00
sg9
I5
sg10
(lp263
g257
a(igraph
Vertex
p264
(dp265
g14
F0.35714285714285721
sg8
I00
sg15
g24
sg16
F-130.42857142857144
sg17
F199.0714285714285
sg18
I6103389
sg19
S'14715.3706602'
p266
sg21
F0.2857142857142857
sbasg26
I00
sg27
I00
sg28
I6103022
sg19
S'14715.4417891'
p267
sba(igraph
Edge
p268
(dp269
g7
I1
sg8
I00
sg9
I5
sg10
(lp270
g264
a(igraph
Vertex
p271
(dp272
g14
F0.42857142857142855
sg8
I00
sg15
g24
sg16
F-130.42857142857144
sg17
F147.28571428571428
sg18
I6103390
sg19
S'14715.3709505'
p273
sg21
F0.2857142857142857
sbasg26
I00
sg27
I00
sg28
I6103023
sg19
S'14715.4425772'
p274
sba(igraph
Edge
p275
(dp276
g7
I1
sg8
I00
sg9
I5
sg10
(lp277
g271
a(igraph
Vertex
p278
(dp279
g14
F0.50000000000000011
sg8
I00
sg15
g24
sg16
F-130.42857142857144
sg17
F95.499999999999943
sg18
I6103391
sg19
S'14715.3712508'
p280
sg21
F0.2857142857142857
sbasg26
I00
sg27
I00
sg28
I6103024
sg19
S'14715.4433893'
p281
sba(igraph
Edge
p282
(dp283
g7
I1
sg8
I00
sg9
I5
sg10
(lp284
g278
a(igraph
Vertex
p285
(dp286
g14
F0.57142857142857162
sg8
I00
sg15
g24
sg16
F-130.42857142857144
sg17
F43.714285714285552
sg18
I6103392
sg19
S'14715.3716031'
p287
sg21
F0.2857142857142857
sbasg26
I00
sg27
I00
sg28
I6103025
sg19
S'14715.4442204'
p288
sba(igraph
Edge
p289
(dp290
g7
I1
sg8
I00
sg9
I5
sg10
(lp291
g285
a(igraph
Vertex
p292
(dp293
g14
F0.64285714285714279
sg8
I00
sg15
g24
sg16
F-130.42857142857144
sg17
F-8.0714285714284983
sg18
I6103393
sg19
S'14715.3719266'
p294
sg21
F0.2857142857142857
sbasg26
I00
sg27
I00
sg28
I6103026
sg19
S'14715.4450722'
p295
sba(igraph
Edge
p296
(dp297
g7
I1
sg8
I00
sg9
I5
sg10
(lp298
g292
a(igraph
Vertex
p299
(dp300
g14
F0.7142857142857143
sg8
I00
sg15
g24
sg16
F-130.42857142857144
sg17
F-59.85714285714289
sg18
I6103394
sg19
S'14715.3723172'
p301
sg21
F0.2857142857142857
sbasg26
I00
sg27
I00
sg28
I6103027
sg19
S'14715.4459463'
p302
sba(igraph
Edge
p303
(dp304
g7
I1
sg8
I00
sg9
I5
sg10
(lp305
g299
a(igraph
Vertex
p306
(dp307
g14
F0.78571428571428559
sg8
I00
sg15
g24
sg16
F-130.42857142857144
sg17
F-111.642857142857
sg18
I6103395
sg19
S'14715.3727122'
p308
sg21
F0.2857142857142857
sbasg26
I00
sg27
I00
sg28
I6103028
sg19
S'14715.4468437'
p309
sba(igraph
Edge
p310
(dp311
g7
I1
sg8
I00
sg9
I5
sg10
(lp312
g306
a(igraph
Vertex
p313
(dp314
g14
F0.8571428571428571
sg8
I00
sg15
g24
sg16
F-130.42857142857144
sg17
F-163.42857142857144
sg18
I6103396
sg19
S'14715.3730594'
p315
sg21
F0.2857142857142857
sbasg26
I00
sg27
I00
sg28
I6103029
sg19
S'14715.4483095'
p316
sba(igraph
Edge
p317
(dp318
g7
I1
sg8
I00
sg9
I5
sg10
(lp319
g313
a(igraph
Vertex
p320
(dp321
g14
F0.9285714285714286
sg8
I00
sg15
g24
sg16
F-130.42857142857144
sg17
F-215.21428571428578
sg18
I6103397
sg19
S'14715.3734128'
p322
sg21
F0.2857142857142857
sbasg26
I00
sg27
I00
sg28
I6103030
sg19
S'14715.4493987'
p323
sba(igraph
Edge
p324
(dp325
g7
I1
sg8
I00
sg9
I5
sg10
(lp326
g320
a(igraph
Vertex
p327
(dp328
g14
F1.0
sg8
I00
sg15
g24
sg16
F-130.42857142857144
sg17
F-267.0
sg18
I6103398
sg19
S'14715.3737757'
p329
sg21
F0.2857142857142857
sbasg26
I00
sg27
I00
sg28
I6103031
sg19
S'14715.4505268'
p330
sba(igraph
Edge
p331
(dp332
g7
I1
sg8
I00
sg9
I5
sg10
(lp333
g327
ag233
asg26
I00
sg27
I00
sg28
I6103032
sg19
S'14715.4516091'
p334
sba(igraph
Edge
p335
(dp336
g7
I1
sg8
I00
sg9
I5
sg10
(lp337
(igraph
Vertex
p338
(dp339
g14
F0.0
sg8
I00
sg15
g24
sg16
F-55.142857142857167
sg17
F458.0
sg18
I6103399
sg19
S'14715.3741476'
p340
sg21
F0.42857142857142855
sba(igraph
Vertex
p341
(dp342
g14
F0.071428571428571425
sg8
I00
sg15
g24
sg16
F-55.142857142857167
sg17
F406.21428571428572
sg18
I6103400
sg19
S'14715.3745197'
p343
sg21
F0.42857142857142855
sbasg26
I00
sg27
I00
sg28
I6103033
sg19
S'14715.4527494'
p344
sba(igraph
Edge
p345
(dp346
g7
I1
sg8
I00
sg9
I5
sg10
(lp347
g341
a(igraph
Vertex
p348
(dp349
g14
F0.14285714285714285
sg8
I00
sg15
g24
sg16
F-55.142857142857167
sg17
F354.42857142857144
sg18
I6103401
sg19
S'14715.3749035'
p350
sg21
F0.42857142857142855
sbasg26
I00
sg27
I00
sg28
I6103034
sg19
S'14715.4538462'
p351
sba(igraph
Edge
p352
(dp353
g7
I1
sg8
I00
sg9
I5
sg10
(lp354
g348
a(igraph
Vertex
p355
(dp356
g14
F0.21428571428571436
sg8
I00
sg15
g24
sg16
F-55.142857142857167
sg17
F302.64285714285711
sg18
I6103402
sg19
S'14715.3752949'
p357
sg21
F0.42857142857142855
sbasg26
I00
sg27
I00
sg28
I6103035
sg19
S'14715.4550036'
p358
sba(igraph
Edge
p359
(dp360
g7
I1
sg8
I00
sg9
I5
sg10
(lp361
g355
a(igraph
Vertex
p362
(dp363
g14
F0.2857142857142857
sg8
I00
sg15
g24
sg16
F-55.142857142857167
sg17
F250.85714285714286
sg18
I6103403
sg19
S'14715.3756958'
p364
sg21
F0.42857142857142855
sbasg26
I00
sg27
I00
sg28
I6103036
sg19
S'14715.4561691'
p365
sba(igraph
Edge
p366
(dp367
g7
I1
sg8
I00
sg9
I5
sg10
(lp368
g362
a(igraph
Vertex
p369
(dp370
g14
F0.35714285714285721
sg8
I00
sg15
g24
sg16
F-55.142857142857167
sg17
F199.0714285714285
sg18
I6103404
sg19
S'14715.3761056'
p371
sg21
F0.42857142857142855
sbasg26
I00
sg27
I00
sg28
I6103037
sg19
S'14715.4573573'
p372
sba(igraph
Edge
p373
(dp374
g7
I1
sg8
I00
sg9
I5
sg10
(lp375
g369
a(igraph
Vertex
p376
(dp377
g14
F0.42857142857142855
sg8
I01
sg15
I0
sg16
F-55.142857142857167
sg17
F147.28571428571428
sg18
I6103406
sg19
S'14715.3765247'
p378
sg21
F0.42857142857142855
sbasg26
I00
sg27
I00
sg28
I6103038
sg19
S'14715.4586223'
p379
sba(igraph
Edge
p380
(dp381
g7
I1
sg8
I00
sg9
I5
sg10
(lp382
g376
a(igraph
Vertex
p383
(dp384
g14
F0.50000000000000011
sg8
I00
sg15
g24
sg16
F-55.142857142857167
sg17
F95.499999999999943
sg18
I6103408
sg19
S'14715.376951'
p385
sg21
F0.42857142857142855
sbasg26
I00
sg27
I00
sg28
I6103039
sg19
S'14715.4598545'
p386
sba(igraph
Edge
p387
(dp388
g7
I1
sg8
I00
sg9
I5
sg10
(lp389
g383
a(igraph
Vertex
p390
(dp391
g14
F0.57142857142857162
sg8
I00
sg15
g24
sg16
F-55.142857142857167
sg17
F43.714285714285552
sg18
I6103409
sg19
S'14715.3774108'
p392
sg21
F0.42857142857142855
sbasg26
I00
sg27
I00
sg28
I6103040
sg19
S'14715.461105'
p393
sba(igraph
Edge
p394
(dp395
g7
I1
sg8
I00
sg9
I5
sg10
(lp396
g390
a(igraph
Vertex
p397
(dp398
g14
F0.64285714285714279
sg8
I00
sg15
g24
sg16
F-55.142857142857167
sg17
F-8.0714285714284983
sg18
I6103410
sg19
S'14715.3778603'
p399
sg21
F0.42857142857142855
sbasg26
I00
sg27
I00
sg28
I6103041
sg19
S'14715.462397'
p400
sba(igraph
Edge
p401
(dp402
g7
I1
sg8
I00
sg9
I5
sg10
(lp403
g397
a(igraph
Vertex
p404
(dp405
g14
F0.7142857142857143
sg8
I00
sg15
g24
sg16
F-55.142857142857167
sg17
F-59.85714285714289
sg18
I6103411
sg19
S'14715.3783201'
p406
sg21
F0.42857142857142855
sbasg26
I00
sg27
I00
sg28
I6103042
sg19
S'14715.4637008'
p407
sba(igraph
Edge
p408
(dp409
g7
I1
sg8
I00
sg9
I5
sg10
(lp410
g404
a(igraph
Vertex
p411
(dp412
g14
F0.78571428571428559
sg8
I00
sg15
g24
sg16
F-55.142857142857167
sg17
F-111.642857142857
sg18
I6103412
sg19
S'14715.3787814'
p413
sg21
F0.42857142857142855
sbasg26
I00
sg27
I00
sg28
I6103043
sg19
S'14715.4650678'
p414
sba(igraph
Edge
p415
(dp416
g7
I1
sg8
I00
sg9
I5
sg10
(lp417
g411
a(igraph
Vertex
p418
(dp419
g14
F0.8571428571428571
sg8
I00
sg15
g24
sg16
F-55.142857142857167
sg17
F-163.42857142857144
sg18
I6103413
sg19
S'14715.3792583'
p420
sg21
F0.42857142857142855
sbasg26
I00
sg27
I00
sg28
I6103044
sg19
S'14715.4664615'
p421
sba(igraph
Edge
p422
(dp423
g7
I1
sg8
I00
sg9
I5
sg10
(lp424
g418
a(igraph
Vertex
p425
(dp426
g14
F0.9285714285714286
sg8
I00
sg15
g24
sg16
F-55.142857142857167
sg17
F-215.21428571428578
sg18
I6103414
sg19
S'14715.3797321'
p427
sg21
F0.42857142857142855
sbasg26
I00
sg27
I00
sg28
I6103045
sg19
S'14715.4678153'
p428
sba(igraph
Edge
p429
(dp430
g7
I1
sg8
I00
sg9
I5
sg10
(lp431
g425
a(igraph
Vertex
p432
(dp433
g14
F1.0
sg8
I00
sg15
g24
sg16
F-55.142857142857167
sg17
F-267.0
sg18
I6103415
sg19
S'14715.3802277'
p434
sg21
F0.42857142857142855
sbasg26
I00
sg27
I00
sg28
I6103046
sg19
S'14715.4693759'
p435
sba(igraph
Edge
p436
(dp437
g7
I1
sg8
I00
sg9
I5
sg10
(lp438
g432
ag338
asg26
I00
sg27
I00
sg28
I6103047
sg19
S'14715.4708582'
p439
sba(igraph
Edge
p440
(dp441
g7
I1
sg8
I00
sg9
I5
sg10
(lp442
(igraph
Vertex
p443
(dp444
g14
F0.0
sg8
I00
sg15
g24
sg16
F20.14285714285711
sg17
F458.0
sg18
I6103416
sg19
S'14715.3807177'
p445
sg21
F0.5714285714285714
sba(igraph
Vertex
p446
(dp447
g14
F0.071428571428571425
sg8
I00
sg15
g24
sg16
F20.14285714285711
sg17
F406.21428571428572
sg18
I6103417
sg19
S'14715.3812253'
p448
sg21
F0.5714285714285714
sbasg26
I00
sg27
I00
sg28
I6103048
sg19
S'14715.4722771'
p449
sba(igraph
Edge
p450
(dp451
g7
I1
sg8
I00
sg9
I5
sg10
(lp452
g446
a(igraph
Vertex
p453
(dp454
g14
F0.14285714285714285
sg8
I00
sg15
g24
sg16
F20.14285714285711
sg17
F354.42857142857144
sg18
I6103418
sg19
S'14715.3817399'
p455
sg21
F0.5714285714285714
sbasg26
I00
sg27
I00
sg28
I6103049
sg19
S'14715.4737946'
p456
sba(igraph
Edge
p457
(dp458
g7
I1
sg8
I00
sg9
I5
sg10
(lp459
g453
a(igraph
Vertex
p460
(dp461
g14
F0.21428571428571436
sg8
I00
sg15
g24
sg16
F20.14285714285711
sg17
F302.64285714285711
sg18
I6103419
sg19
S'14715.382317'
p462
sg21
F0.5714285714285714
sbasg26
I00
sg27
I00
sg28
I6103050
sg19
S'14715.4755666'
p463
sba(igraph
Edge
p464
(dp465
g7
I1
sg8
I00
sg9
I5
sg10
(lp466
g460
a(igraph
Vertex
p467
(dp468
g14
F0.2857142857142857
sg8
I00
sg15
g24
sg16
F20.14285714285711
sg17
F250.85714285714286
sg18
I6103420
sg19
S'14715.3828492'
p469
sg21
F0.5714285714285714
sbasg26
I00
sg27
I00
sg28
I6103051
sg19
S'14715.4771084'
p470
sba(igraph
Edge
p471
(dp472
g7
I1
sg8
I00
sg9
I5
sg10
(lp473
g467
a(igraph
Vertex
p474
(dp475
g14
F0.35714285714285721
sg8
I01
sg15
I0
sg16
F20.14285714285711
sg17
F199.0714285714285
sg18
I6103422
sg19
S'14715.3834194'
p476
sg21
F0.5714285714285714
sbasg26
I00
sg27
I00
sg28
I6103052
sg19
S'14715.4786142'
p477
sba(igraph
Edge
p478
(dp479
g7
I1
sg8
I00
sg9
I5
sg10
(lp480
g474
a(igraph
Vertex
p481
(dp482
g14
F0.42857142857142855
sg8
I00
sg15
g24
sg16
F20.14285714285711
sg17
F147.28571428571428
sg18
I6103424
sg19
S'14715.3839644'
p483
sg21
F0.5714285714285714
sbasg26
I00
sg27
I00
sg28
I6103053
sg19
S'14715.4803275'
p484
sba(igraph
Edge
p485
(dp486
g7
I1
sg8
I00
sg9
I5
sg10
(lp487
g481
a(igraph
Vertex
p488
(dp489
g14
F0.50000000000000011
sg8
I00
sg15
g24
sg16
F20.14285714285711
sg17
F95.499999999999943
sg18
I6103425
sg19
S'14715.3845296'
p490
sg21
F0.5714285714285714
sbasg26
I00
sg27
I00
sg28
I6103054
sg19
S'14715.4827753'
p491
sba(igraph
Edge
p492
(dp493
g7
I1
sg8
I00
sg9
I5
sg10
(lp494
g488
a(igraph
Vertex
p495
(dp496
g14
F0.57142857142857162
sg8
I01
sg15
I0
sg16
F20.14285714285711
sg17
F43.714285714285552
sg18
I6103427
sg19
S'14715.3851221'
p497
sg21
F0.5714285714285714
sbasg26
I00
sg27
I00
sg28
I6103055
sg19
S'14715.484392'
p498
sba(igraph
Edge
p499
(dp500
g7
I1
sg8
I00
sg9
I5
sg10
(lp501
g495
a(igraph
Vertex
p502
(dp503
g14
F0.64285714285714279
sg8
I00
sg15
g24
sg16
F20.14285714285711
sg17
F-8.0714285714284983
sg18
I6103429
sg19
S'14715.3857018'
p504
sg21
F0.5714285714285714
sbasg26
I00
sg27
I00
sg28
I6103056
sg19
S'14715.486059'
p505
sba(igraph
Edge
p506
(dp507
g7
I1
sg8
I00
sg9
I5
sg10
(lp508
g502
a(igraph
Vertex
p509
(dp510
g14
F0.7142857142857143
sg8
I00
sg15
g24
sg16
F20.14285714285711
sg17
F-59.85714285714289
sg18
I6103430
sg19
S'14715.3862835'
p511
sg21
F0.5714285714285714
sbasg26
I00
sg27
I00
sg28
I6103057
sg19
S'14715.4879115'
p512
sba(igraph
Edge
p513
(dp514
g7
I1
sg8
I00
sg9
I5
sg10
(lp515
g509
a(igraph
Vertex
p516
(dp517
g14
F0.78571428571428559
sg8
I00
sg15
g24
sg16
F20.14285714285711
sg17
F-111.642857142857
sg18
I6103431
sg19
S'14715.3868751'
p518
sg21
F0.5714285714285714
sbasg26
I00
sg27
I00
sg28
I6103058
sg19
S'14715.4896999'
p519
sba(igraph
Edge
p520
(dp521
g7
I1
sg8
I00
sg9
I5
sg10
(lp522
g516
a(igraph
Vertex
p523
(dp524
g14
F0.8571428571428571
sg8
I00
sg15
g24
sg16
F20.14285714285711
sg17
F-163.42857142857144
sg18
I6103432
sg19
S'14715.387478'
p525
sg21
F0.5714285714285714
sbasg26
I00
sg27
I00
sg28
I6103059
sg19
S'14715.4914158'
p526
sba(igraph
Edge
p527
(dp528
g7
I1
sg8
I00
sg9
I5
sg10
(lp529
g523
a(igraph
Vertex
p530
(dp531
g14
F0.9285714285714286
sg8
I00
sg15
g24
sg16
F20.14285714285711
sg17
F-215.21428571428578
sg18
I6103433
sg19
S'14715.3880806'
p532
sg21
F0.5714285714285714
sbasg26
I00
sg27
I00
sg28
I6103060
sg19
S'14715.4933116'
p533
sba(igraph
Edge
p534
(dp535
g7
I1
sg8
I00
sg9
I5
sg10
(lp536
g530
a(igraph
Vertex
p537
(dp538
g14
F1.0
sg8
I00
sg15
g24
sg16
F20.14285714285711
sg17
F-267.0
sg18
I6103434
sg19
S'14715.3887231'
p539
sg21
F0.5714285714285714
sbasg26
I00
sg27
I00
sg28
I6103061
sg19
S'14715.4950855'
p540
sba(igraph
Edge
p541
(dp542
g7
I1
sg8
I00
sg9
I5
sg10
(lp543
g537
ag443
asg26
I00
sg27
I00
sg28
I6103062
sg19
S'14715.4969171'
p544
sba(igraph
Edge
p545
(dp546
g7
I1
sg8
I00
sg9
I5
sg10
(lp547
(igraph
Vertex
p548
(dp549
g14
F0.0
sg8
I00
sg15
g24
sg16
F95.428571428571445
sg17
F458.0
sg18
I6103435
sg19
S'14715.3893822'
p550
sg21
F0.7142857142857143
sba(igraph
Vertex
p551
(dp552
g14
F0.071428571428571425
sg8
I00
sg15
g24
sg16
F95.428571428571445
sg17
F406.21428571428572
sg18
I6103436
sg19
S'14715.3900152'
p553
sg21
F0.7142857142857143
sbasg26
I00
sg27
I00
sg28
I6103063
sg19
S'14715.4987134'
p554
sba(igraph
Edge
p555
(dp556
g7
I1
sg8
I00
sg9
I5
sg10
(lp557
g551
a(igraph
Vertex
p558
(dp559
g14
F0.14285714285714285
sg8
I00
sg15
g24
sg16
F95.428571428571445
sg17
F354.42857142857144
sg18
I6103437
sg19
S'14715.3906555'
p560
sg21
F0.7142857142857143
sbasg26
I00
sg27
I00
sg28
I6103064
sg19
S'14715.5005809'
p561
sba(igraph
Edge
p562
(dp563
g7
I1
sg8
I00
sg9
I5
sg10
(lp564
g558
a(igraph
Vertex
p565
(dp566
g14
F0.21428571428571436
sg8
I00
sg15
g24
sg16
F95.428571428571445
sg17
F302.64285714285711
sg18
I6103438
sg19
S'14715.3912953'
p567
sg21
F0.7142857142857143
sbasg26
I00
sg27
I00
sg28
I6103065
sg19
S'14715.502484'
p568
sba(igraph
Edge
p569
(dp570
g7
I1
sg8
I00
sg9
I5
sg10
(lp571
g565
a(igraph
Vertex
p572
(dp573
g14
F0.2857142857142857
sg8
I00
sg15
g24
sg16
F95.428571428571445
sg17
F250.85714285714286
sg18
I6103439
sg19
S'14715.391954'
p574
sg21
F0.7142857142857143
sbasg26
I00
sg27
I00
sg28
I6103066
sg19
S'14715.504394'
p575
sba(igraph
Edge
p576
(dp577
g7
I1
sg8
I00
sg9
I5
sg10
(lp578
g572
a(igraph
Vertex
p579
(dp580
g14
F0.35714285714285721
sg8
I00
sg15
g24
sg16
F95.428571428571445
sg17
F199.0714285714285
sg18
I6103440
sg19
S'14715.39262'
p581
sg21
F0.7142857142857143
sbasg26
I00
sg27
I00
sg28
I6103067
sg19
S'14715.5063071'
p582
sba(igraph
Edge
p583
(dp584
g7
I1
sg8
I00
sg9
I5
sg10
(lp585
g579
a(igraph
Vertex
p586
(dp587
g14
F0.42857142857142855
sg8
I00
sg15
g24
sg16
F95.428571428571445
sg17
F147.28571428571428
sg18
I6103441
sg19
S'14715.3932941'
p588
sg21
F0.7142857142857143
sbasg26
I00
sg27
I00
sg28
I6103068
sg19
S'14715.508216'
p589
sba(igraph
Edge
p590
(dp591
g7
I1
sg8
I00
sg9
I5
sg10
(lp592
g586
a(igraph
Vertex
p593
(dp594
g14
F0.50000000000000011
sg8
I00
sg15
g24
sg16
F95.428571428571445
sg17
F95.499999999999943
sg18
I6103442
sg19
S'14715.3940316'
p595
sg21
F0.7142857142857143
sbasg26
I00
sg27
I00
sg28
I6103069
sg19
S'14715.5101534'
p596
sba(igraph
Edge
p597
(dp598
g7
I1
sg8
I00
sg9
I5
sg10
(lp599
g593
a(igraph
Vertex
p600
(dp601
g14
F0.57142857142857162
sg8
I00
sg15
g24
sg16
F95.428571428571445
sg17
F43.714285714285552
sg18
I6103443
sg19
S'14715.3947228'
p602
sg21
F0.7142857142857143
sbasg26
I00
sg27
I00
sg28
I6103070
sg19
S'14715.5122229'
p603
sba(igraph
Edge
p604
(dp605
g7
I1
sg8
I00
sg9
I5
sg10
(lp606
g600
a(igraph
Vertex
p607
(dp608
g14
F0.64285714285714279
sg8
I00
sg15
g24
sg16
F95.428571428571445
sg17
F-8.0714285714284983
sg18
I6103444
sg19
S'14715.3955061'
p609
sg21
F0.7142857142857143
sbasg26
I00
sg27
I00
sg28
I6103071
sg19
S'14715.5142693'
p610
sba(igraph
Edge
p611
(dp612
g7
I1
sg8
I00
sg9
I5
sg10
(lp613
g607
a(igraph
Vertex
p614
(dp615
g14
F0.7142857142857143
sg8
I01
sg15
I0
sg16
F95.428571428571445
sg17
F-59.85714285714289
sg18
I6103446
sg19
S'14715.3962523'
p616
sg21
F0.7142857142857143
sbasg26
I00
sg27
I00
sg28
I6103072
sg19
S'14715.5163961'
p617
sba(igraph
Edge
p618
(dp619
g7
I1
sg8
I00
sg9
I5
sg10
(lp620
g614
a(igraph
Vertex
p621
(dp622
g14
F0.78571428571428559
sg8
I00
sg15
g24
sg16
F95.428571428571445
sg17
F-111.642857142857
sg18
I6103448
sg19
S'14715.3969859'
p623
sg21
F0.7142857142857143
sbasg26
I00
sg27
I00
sg28
I6103073
sg19
S'14715.5185123'
p624
sba(igraph
Edge
p625
(dp626
g7
I1
sg8
I00
sg9
I5
sg10
(lp627
g621
a(igraph
Vertex
p628
(dp629
g14
F0.8571428571428571
sg8
I00
sg15
g24
sg16
F95.428571428571445
sg17
F-163.42857142857144
sg18
I6103449
sg19
S'14715.3977145'
p630
sg21
F0.7142857142857143
sbasg26
I00
sg27
I00
sg28
I6103074
sg19
S'14715.5205969'
p631
sba(igraph
Edge
p632
(dp633
g7
I1
sg8
I00
sg9
I5
sg10
(lp634
g628
a(igraph
Vertex
p635
(dp636
g14
F0.9285714285714286
sg8
I00
sg15
g24
sg16
F95.428571428571445
sg17
F-215.21428571428578
sg18
I6103450
sg19
S'14715.3984967'
p637
sg21
F0.7142857142857143
sbasg26
I00
sg27
I00
sg28
I6103075
sg19
S'14715.5226586'
p638
sba(igraph
Edge
p639
(dp640
g7
I1
sg8
I00
sg9
I5
sg10
(lp641
g635
a(igraph
Vertex
p642
(dp643
g14
F1.0
sg8
I00
sg15
g24
sg16
F95.428571428571445
sg17
F-267.0
sg18
I6103451
sg19
S'14715.3993144'
p644
sg21
F0.7142857142857143
sbasg26
I00
sg27
I00
sg28
I6103076
sg19
S'14715.5247357'
p645
sba(igraph
Edge
p646
(dp647
g7
I1
sg8
I00
sg9
I5
sg10
(lp648
g642
ag548
asg26
I00
sg27
I00
sg28
I6103077
sg19
S'14715.5268019'
p649
sba(igraph
Edge
p650
(dp651
g7
I1
sg8
I00
sg9
I5
sg10
(lp652
(igraph
Vertex
p653
(dp654
g14
F0.0
sg8
I00
sg15
g24
sg16
F170.71428571428567
sg17
F458.0
sg18
I6103452
sg19
S'14715.4000799'
p655
sg21
F0.8571428571428571
sba(igraph
Vertex
p656
(dp657
g14
F0.071428571428571425
sg8
I00
sg15
g24
sg16
F170.71428571428567
sg17
F406.21428571428572
sg18
I6103453
sg19
S'14715.4009917'
p658
sg21
F0.8571428571428571
sbasg26
I00
sg27
I00
sg28
I6103078
sg19
S'14715.5289264'
p659
sba(igraph
Edge
p660
(dp661
g7
I1
sg8
I00
sg9
I5
sg10
(lp662
g656
a(igraph
Vertex
p663
(dp664
g14
F0.14285714285714285
sg8
I00
sg15
g24
sg16
F170.71428571428567
sg17
F354.42857142857144
sg18
I6103454
sg19
S'14715.4021165'
p665
sg21
F0.8571428571428571
sbasg26
I00
sg27
I00
sg28
I6103079
sg19
S'14715.5310298'
p666
sba(igraph
Edge
p667
(dp668
g7
I1
sg8
I00
sg9
I5
sg10
(lp669
g663
a(igraph
Vertex
p670
(dp671
g14
F0.21428571428571436
sg8
I00
sg15
g24
sg16
F170.71428571428567
sg17
F302.64285714285711
sg18
I6103455
sg19
S'14715.4028861'
p672
sg21
F0.8571428571428571
sbasg26
I00
sg27
I00
sg28
I6103080
sg19
S'14715.5331423'
p673
sba(igraph
Edge
p674
(dp675
g7
I1
sg8
I00
sg9
I5
sg10
(lp676
g670
a(igraph
Vertex
p677
(dp678
g14
F0.2857142857142857
sg8
I00
sg15
g24
sg16
F170.71428571428567
sg17
F250.85714285714286
sg18
I6103456
sg19
S'14715.4036558'
p679
sg21
F0.8571428571428571
sbasg26
I00
sg27
I00
sg28
I6103081
sg19
S'14715.5357446'
p680
sba(igraph
Edge
p681
(dp682
g7
I1
sg8
I00
sg9
I5
sg10
(lp683
g677
a(igraph
Vertex
p684
(dp685
g14
F0.35714285714285721
sg8
I00
sg15
g24
sg16
F170.71428571428567
sg17
F199.0714285714285
sg18
I6103457
sg19
S'14715.4044263'
p686
sg21
F0.8571428571428571
sbasg26
I00
sg27
I00
sg28
I6103082
sg19
S'14715.5379809'
p687
sba(igraph
Edge
p688
(dp689
g7
I1
sg8
I00
sg9
I5
sg10
(lp690
g684
a(igraph
Vertex
p691
(dp692
g14
F0.42857142857142855
sg8
I00
sg15
g24
sg16
F170.71428571428567
sg17
F147.28571428571428
sg18
I6103458
sg19
S'14715.4052797'
p693
sg21
F0.8571428571428571
sbasg26
I00
sg27
I00
sg28
I6103083
sg19
S'14715.5402413'
p694
sba(igraph
Edge
p695
(dp696
g7
I1
sg8
I00
sg9
I5
sg10
(lp697
g691
a(igraph
Vertex
p698
(dp699
g14
F0.50000000000000011
sg8
I00
sg15
g24
sg16
F170.71428571428567
sg17
F95.499999999999943
sg18
I6103459
sg19
S'14715.406074'
p700
sg21
F0.8571428571428571
sbasg26
I00
sg27
I00
sg28
I6103084
sg19
S'14715.5450081'
p701
sba(igraph
Edge
p702
(dp703
g7
I1
sg8
I00
sg9
I5
sg10
(lp704
g698
a(igraph
Vertex
p705
(dp706
g14
F0.57142857142857162
sg8
I00
sg15
g24
sg16
F170.71428571428567
sg17
F43.714285714285552
sg18
I6103460
sg19
S'14715.4069218'
p707
sg21
F0.8571428571428571
sbasg26
I00
sg27
I00
sg28
I6103085
sg19
S'14715.5477827'
p708
sba(igraph
Edge
p709
(dp710
g7
I1
sg8
I00
sg9
I5
sg10
(lp711
g705
a(igraph
Vertex
p712
(dp713
g14
F0.64285714285714279
sg8
I00
sg15
g24
sg16
F170.71428571428567
sg17
F-8.0714285714284983
sg18
I6103461
sg19
S'14715.4077418'
p714
sg21
F0.8571428571428571
sbasg26
I00
sg27
I00
sg28
I6103086
sg19
S'14715.5506943'
p715
sba(igraph
Edge
p716
(dp717
g7
I1
sg8
I00
sg9
I5
sg10
(lp718
g712
a(igraph
Vertex
p719
(dp720
g14
F0.7142857142857143
sg8
I00
sg15
g24
sg16
F170.71428571428567
sg17
F-59.85714285714289
sg18
I6103462
sg19
S'14715.4085829'
p721
sg21
F0.8571428571428571
sbasg26
I00
sg27
I00
sg28
I6103087
sg19
S'14715.5544322'
p722
sba(igraph
Edge
p723
(dp724
g7
I1
sg8
I00
sg9
I5
sg10
(lp725
g719
a(igraph
Vertex
p726
(dp727
g14
F0.78571428571428559
sg8
I00
sg15
g24
sg16
F170.71428571428567
sg17
F-111.642857142857
sg18
I6103463
sg19
S'14715.4094051'
p728
sg21
F0.8571428571428571
sbasg26
I00
sg27
I00
sg28
I6103088
sg19
S'14715.5567713'
p729
sba(igraph
Edge
p730
(dp731
g7
I1
sg8
I00
sg9
I5
sg10
(lp732
g726
a(igraph
Vertex
p733
(dp734
g14
F0.8571428571428571
sg8
I01
sg15
I0
sg16
F170.71428571428567
sg17
F-163.42857142857144
sg18
I6103465
sg19
S'14715.410232'
p735
sg21
F0.8571428571428571
sbasg26
I00
sg27
I00
sg28
I6103089
sg19
S'14715.559696'
p736
sba(igraph
Edge
p737
(dp738
g7
I1
sg8
I00
sg9
I5
sg10
(lp739
g733
a(igraph
Vertex
p740
(dp741
g14
F0.9285714285714286
sg8
I00
sg15
g24
sg16
F170.71428571428567
sg17
F-215.21428571428578
sg18
I6103467
sg19
S'14715.411071'
p742
sg21
F0.8571428571428571
sbasg26
I00
sg27
I00
sg28
I6103090
sg19
S'14715.5624838'
p743
sba(igraph
Edge
p744
(dp745
g7
I1
sg8
I00
sg9
I5
sg10
(lp746
g740
a(igraph
Vertex
p747
(dp748
g14
F1.0
sg8
I00
sg15
g24
sg16
F170.71428571428567
sg17
F-267.0
sg18
I6103468
sg19
S'14715.4119144'
p749
sg21
F0.8571428571428571
sbasg26
I00
sg27
I00
sg28
I6103091
sg19
S'14715.5648975'
p750
sba(igraph
Edge
p751
(dp752
g7
I1
sg8
I00
sg9
I5
sg10
(lp753
g747
ag653
asg26
I00
sg27
I00
sg28
I6103092
sg19
S'14715.5676758'
p754
sba(igraph
Edge
p755
(dp756
g7
I1
sg8
I00
sg9
I5
sg10
(lp757
(igraph
Vertex
p758
(dp759
g14
F0.0
sg8
I00
sg15
g24
sg16
F246.0
sg17
F458.0
sg18
I6103469
sg19
S'14715.4127921'
p760
sg21
F1.0
sba(igraph
Vertex
p761
(dp762
g14
F0.071428571428571425
sg8
I00
sg15
g24
sg16
F246.0
sg17
F406.21428571428572
sg18
I6103470
sg19
S'14715.4136671'
p763
sg21
F1.0
sbasg26
I00
sg27
I00
sg28
I6103093
sg19
S'14715.5709254'
p764
sba(igraph
Edge
p765
(dp766
g7
I1
sg8
I00
sg9
I5
sg10
(lp767
g761
a(igraph
Vertex
p768
(dp769
g14
F0.14285714285714285
sg8
I00
sg15
g24
sg16
F246.0
sg17
F354.42857142857144
sg18
I6103471
sg19
S'14715.4145493'
p770
sg21
F1.0
sbasg26
I00
sg27
I00
sg28
I6103094
sg19
S'14715.5739824'
p771
sba(igraph
Edge
p772
(dp773
g7
I1
sg8
I00
sg9
I5
sg10
(lp774
g768
a(igraph
Vertex
p775
(dp776
g14
F0.21428571428571436
sg8
I00
sg15
g24
sg16
F246.0
sg17
F302.64285714285711
sg18
I6103472
sg19
S'14715.4154623'
p777
sg21
F1.0
sbasg26
I00
sg27
I00
sg28
I6103095
sg19
S'14715.5769884'
p778
sba(igraph
Edge
p779
(dp780
g7
I1
sg8
I00
sg9
I5
sg10
(lp781
g775
a(igraph
Vertex
p782
(dp783
g14
F0.2857142857142857
sg8
I00
sg15
g24
sg16
F246.0
sg17
F250.85714285714286
sg18
I6103473
sg19
S'14715.416437'
p784
sg21
F1.0
sbasg26
I00
sg27
I00
sg28
I6103096
sg19
S'14715.5798921'
p785
sba(igraph
Edge
p786
(dp787
g7
I1
sg8
I00
sg9
I5
sg10
(lp788
g782
a(igraph
Vertex
p789
(dp790
g14
F0.35714285714285721
sg8
I00
sg15
g24
sg16
F246.0
sg17
F199.0714285714285
sg18
I6103474
sg19
S'14715.4173458'
p791
sg21
F1.0
sbasg26
I00
sg27
I00
sg28
I6103097
sg19
S'14715.5830272'
p792
sba(igraph
Edge
p793
(dp794
g7
I1
sg8
I00
sg9
I5
sg10
(lp795
g789
a(igraph
Vertex
p796
(dp797
g14
F0.42857142857142855
sg8
I00
sg15
g24
sg16
F246.0
sg17
F147.28571428571428
sg18
I6103475
sg19
S'14715.4183775'
p798
sg21
F1.0
sbasg26
I00
sg27
I00
sg28
I6103098
sg19
S'14715.5863966'
p799
sba(igraph
Edge
p800
(dp801
g7
I1
sg8
I00
sg9
I5
sg10
(lp802
g796
a(igraph
Vertex
p803
(dp804
g14
F0.50000000000000011
sg8
I00
sg15
g24
sg16
F246.0
sg17
F95.499999999999943
sg18
I6103476
sg19
S'14715.4193114'
p805
sg21
F1.0
sbasg26
I00
sg27
I00
sg28
I6103099
sg19
S'14715.5895632'
p806
sba(igraph
Edge
p807
(dp808
g7
I1
sg8
I00
sg9
I5
sg10
(lp809
g803
a(igraph
Vertex
p810
(dp811
g14
F0.57142857142857162
sg8
I00
sg15
g24
sg16
F246.0
sg17
F43.714285714285552
sg18
I6103477
sg19
S'14715.4202674'
p812
sg21
F1.0
sbasg26
I00
sg27
I00
sg28
I6103100
sg19
S'14715.5932561'
p813
sba(igraph
Edge
p814
(dp815
g7
I1
sg8
I00
sg9
I5
sg10
(lp816
g810
a(igraph
Vertex
p817
(dp818
g14
F0.64285714285714279
sg8
I00
sg15
g24
sg16
F246.0
sg17
F-8.0714285714284983
sg18
I6103478
sg19
S'14715.4212376'
p819
sg21
F1.0
sbasg26
I00
sg27
I00
sg28
I6103101
sg19
S'14715.5970267'
p820
sba(igraph
Edge
p821
(dp822
g7
I1
sg8
I00
sg9
I5
sg10
(lp823
g817
a(igraph
Vertex
p824
(dp825
g14
F0.7142857142857143
sg8
I00
sg15
g24
sg16
F246.0
sg17
F-59.85714285714289
sg18
I6103479
sg19
S'14715.4221872'
p826
sg21
F1.0
sbasg26
I00
sg27
I00
sg28
I6103102
sg19
S'14715.6003822'
p827
sba(igraph
Edge
p828
(dp829
g7
I1
sg8
I00
sg9
I5
sg10
(lp830
g824
a(igraph
Vertex
p831
(dp832
g14
F0.78571428571428559
sg8
I01
sg15
I0
sg16
F246.0
sg17
F-111.642857142857
sg18
I6103481
sg19
S'14715.423142'
p833
sg21
F1.0
sbasg26
I00
sg27
I00
sg28
I6103103
sg19
S'14715.6040019'
p834
sba(igraph
Edge
p835
(dp836
g7
I1
sg8
I00
sg9
I5
sg10
(lp837
g831
a(igraph
Vertex
p838
(dp839
g14
F0.8571428571428571
sg8
I00
sg15
g24
sg16
F246.0
sg17
F-163.42857142857144
sg18
I6103483
sg19
S'14715.4241221'
p840
sg21
F1.0
sbasg26
I00
sg27
I00
sg28
I6103104
sg19
S'14715.6072333'
p841
sba(igraph
Edge
p842
(dp843
g7
I1
sg8
I00
sg9
I5
sg10
(lp844
g838
a(igraph
Vertex
p845
(dp846
g14
F0.9285714285714286
sg8
I00
sg15
g24
sg16
F246.0
sg17
F-215.21428571428578
sg18
I6103484
sg19
S'14715.4251292'
p847
sg21
F1.0
sbasg26
I00
sg27
I00
sg28
I6103105
sg19
S'14715.61056'
p848
sba(igraph
Edge
p849
(dp850
g7
I1
sg8
I00
sg9
I5
sg10
(lp851
g845
a(igraph
Vertex
p852
(dp853
g14
F1.0
sg8
I01
sg15
I0
sg16
F246.0
sg17
F-267.0
sg18
I6103486
sg19
S'14715.4261164'
p854
sg21
F1.0
sbasg26
I00
sg27
I00
sg28
I6103106
sg19
S'14715.6140294'
p855
sba(igraph
Edge
p856
(dp857
g7
I1
sg8
I00
sg9
I5
sg10
(lp858
g852
ag758
asg26
I00
sg27
I00
sg28
I6103107
sg19
S'14715.6171117'
p859
sba(igraph
Edge
p860
(dp861
g7
I1
sg8
I00
sg9
I5
sg10
(lp862
g12
ag128
asg26
I00
sg27
I00
sg28
I6103108
sg19
S'14715.6200587'
p863
sba(igraph
Edge
p864
(dp865
g7
I1
sg8
I00
sg9
I5
sg10
(lp866
g22
ag138
asg26
I00
sg27
I00
sg28
I6103109
sg19
S'14715.6232812'
p867
sba(igraph
Edge
p868
(dp869
g7
I1
sg8
I00
sg9
I5
sg10
(lp870
g33
ag138
asg26
I00
sg27
I00
sg28
I6103110
sg19
S'14715.626338'
p871
sba(igraph
Edge
p872
(dp873
g7
I1
sg8
I00
sg9
I5
sg10
(lp874
g40
ag152
asg26
I00
sg27
I00
sg28
I6103111
sg19
S'14715.6295535'
p875
sba(igraph
Edge
p876
(dp877
g7
I1
sg8
I00
sg9
I5
sg10
(lp878
g47
ag152
asg26
I00
sg27
I00
sg28
I6103112
sg19
S'14715.6326097'
p879
sba(igraph
Edge
p880
(dp881
g7
I1
sg8
I00
sg9
I5
sg10
(lp882
g54
ag166
asg26
I00
sg27
I00
sg28
I6103113
sg19
S'14715.6357805'
p883
sba(igraph
Edge
p884
(dp885
g7
I1
sg8
I00
sg9
I5
sg10
(lp886
g61
ag166
asg26
I00
sg27
I00
sg28
I6103114
sg19
S'14715.6388938'
p887
sba(igraph
Edge
p888
(dp889
g7
I1
sg8
I00
sg9
I5
sg10
(lp890
g68
ag180
asg26
I00
sg27
I00
sg28
I6103115
sg19
S'14715.6419939'
p891
sba(igraph
Edge
p892
(dp893
g7
I1
sg8
I00
sg9
I5
sg10
(lp894
g75
ag180
asg26
I00
sg27
I00
sg28
I6103116
sg19
S'14715.6452049'
p895
sba(igraph
Edge
p896
(dp897
g7
I1
sg8
I00
sg9
I5
sg10
(lp898
g82
ag194
asg26
I00
sg27
I00
sg28
I6103117
sg19
S'14715.648552'
p899
sba(igraph
Edge
p900
(dp901
g7
I1
sg8
I00
sg9
I5
sg10
(lp902
g89
ag194
asg26
I00
sg27
I00
sg28
I6103118
sg19
S'14715.6516708'
p903
sba(igraph
Edge
p904
(dp905
g7
I1
sg8
I00
sg9
I5
sg10
(lp906
g96
ag208
asg26
I00
sg27
I00
sg28
I6103119
sg19
S'14715.6567335'
p907
sba(igraph
Edge
p908
(dp909
g7
I1
sg8
I00
sg9
I5
sg10
(lp910
g103
ag208
asg26
I00
sg27
I00
sg28
I6103120
sg19
S'14715.6598716'
p911
sba(igraph
Edge
p912
(dp913
g7
I1
sg8
I00
sg9
I5
sg10
(lp914
g110
ag222
asg26
I00
sg27
I00
sg28
I6103121
sg19
S'14715.663174'
p915
sba(igraph
Edge
p916
(dp917
g7
I1
sg8
I00
sg9
I5
sg10
(lp918
g117
ag222
asg26
I00
sg27
I00
sg28
I6103122
sg19
S'14715.6668334'
p919
sba(igraph
Edge
p920
(dp921
g7
I1
sg8
I00
sg9
I5
sg10
(lp922
g12
ag131
asg26
I00
sg27
I00
sg28
I6103123
sg19
S'14715.6700463'
p923
sba(igraph
Edge
p924
(dp925
g7
I1
sg8
I00
sg9
I5
sg10
(lp926
g22
ag131
asg26
I00
sg27
I00
sg28
I6103124
sg19
S'14715.6736675'
p927
sba(igraph
Edge
p928
(dp929
g7
I1
sg8
I00
sg9
I5
sg10
(lp930
g33
ag145
asg26
I00
sg27
I00
sg28
I6103125
sg19
S'14715.6769936'
p931
sba(igraph
Edge
p932
(dp933
g7
I1
sg8
I00
sg9
I5
sg10
(lp934
g40
ag145
asg26
I00
sg27
I00
sg28
I6103126
sg19
S'14715.6804032'
p935
sba(igraph
Edge
p936
(dp937
g7
I1
sg8
I00
sg9
I5
sg10
(lp938
g47
ag159
asg26
I00
sg27
I00
sg28
I6103127
sg19
S'14715.6836386'
p939
sba(igraph
Edge
p940
(dp941
g7
I1
sg8
I00
sg9
I5
sg10
(lp942
g54
ag159
asg26
I00
sg27
I00
sg28
I6103128
sg19
S'14715.686999'
p943
sba(igraph
Edge
p944
(dp945
g7
I1
sg8
I00
sg9
I5
sg10
(lp946
g61
ag173
asg26
I00
sg27
I00
sg28
I6103129
sg19
S'14715.6904383'
p947
sba(igraph
Edge
p948
(dp949
g7
I1
sg8
I00
sg9
I5
sg10
(lp950
g68
ag173
asg26
I00
sg27
I00
sg28
I6103130
sg19
S'14715.6964944'
p951
sba(igraph
Edge
p952
(dp953
g7
I1
sg8
I00
sg9
I5
sg10
(lp954
g75
ag187
asg26
I00
sg27
I00
sg28
I6103131
sg19
S'14715.7015333'
p955
sba(igraph
Edge
p956
(dp957
g7
I1
sg8
I00
sg9
I5
sg10
(lp958
g82
ag187
asg26
I00
sg27
I00
sg28
I6103132
sg19
S'14715.7056455'
p959
sba(igraph
Edge
p960
(dp961
g7
I1
sg8
I00
sg9
I5
sg10
(lp962
g89
ag201
asg26
I00
sg27
I00
sg28
I6103133
sg19
S'14715.7099095'
p963
sba(igraph
Edge
p964
(dp965
g7
I1
sg8
I00
sg9
I5
sg10
(lp966
g96
ag201
asg26
I00
sg27
I00
sg28
I6103134
sg19
S'14715.7140067'
p967
sba(igraph
Edge
p968
(dp969
g7
I1
sg8
I00
sg9
I5
sg10
(lp970
g103
ag215
asg26
I00
sg27
I00
sg28
I6103135
sg19
S'14715.7182703'
p971
sba(igraph
Edge
p972
(dp973
g7
I1
sg8
I00
sg9
I5
sg10
(lp974
g110
ag215
asg26
I00
sg27
I00
sg28
I6103136
sg19
S'14715.7224885'
p975
sba(igraph
Edge
p976
(dp977
g7
I1
sg8
I00
sg9
I5
sg10
(lp978
g117
ag128
asg26
I00
sg27
I00
sg28
I6103137
sg19
S'14715.7265443'
p979
sba(igraph
Edge
p980
(dp981
g7
I1
sg8
I00
sg9
I5
sg10
(lp982
g12
ag758
asg26
I00
sg27
I00
sg28
I6103138
sg19
S'14715.7306647'
p983
sba(igraph
Edge
p984
(dp985
g7
I1
sg8
I00
sg9
I5
sg10
(lp986
g22
ag758
asg26
I00
sg27
I00
sg28
I6103139
sg19
S'14715.7348722'
p987
sba(igraph
Edge
p988
(dp989
g7
I1
sg8
I00
sg9
I5
sg10
(lp990
g33
ag768
asg26
I00
sg27
I00
sg28
I6103140
sg19
S'14715.7389956'
p991
sba(igraph
Edge
p992
(dp993
g7
I1
sg8
I00
sg9
I5
sg10
(lp994
g40
ag768
asg26
I00
sg27
I00
sg28
I6103141
sg19
S'14715.7430321'
p995
sba(igraph
Edge
p996
(dp997
g7
I1
sg8
I00
sg9
I5
sg10
(lp998
g47
ag782
asg26
I00
sg27
I00
sg28
I6103142
sg19
S'14715.7468399'
p999
sba(igraph
Edge
p1000
(dp1001
g7
I1
sg8
I00
sg9
I5
sg10
(lp1002
g54
ag782
asg26
I00
sg27
I00
sg28
I6103143
sg19
S'14715.7517305'
p1003
sba(igraph
Edge
p1004
(dp1005
g7
I1
sg8
I00
sg9
I5
sg10
(lp1006
g61
ag796
asg26
I00
sg27
I00
sg28
I6103144
sg19
S'14715.7558354'
p1007
sba(igraph
Edge
p1008
(dp1009
g7
I1
sg8
I00
sg9
I5
sg10
(lp1010
g68
ag796
asg26
I00
sg27
I00
sg28
I6103145
sg19
S'14715.7594954'
p1011
sba(igraph
Edge
p1012
(dp1013
g7
I1
sg8
I00
sg9
I5
sg10
(lp1014
g75
ag810
asg26
I00
sg27
I00
sg28
I6103146
sg19
S'14715.7632956'
p1015
sba(igraph
Edge
p1016
(dp1017
g7
I1
sg8
I00
sg9
I5
sg10
(lp1018
g82
ag810
asg26
I00
sg27
I00
sg28
I6103147
sg19
S'14715.7674866'
p1019
sba(igraph
Edge
p1020
(dp1021
g7
I1
sg8
I00
sg9
I5
sg10
(lp1022
g89
ag824
asg26
I00
sg27
I00
sg28
I6103148
sg19
S'14715.7710815'
p1023
sba(igraph
Edge
p1024
(dp1025
g7
I1
sg8
I00
sg9
I5
sg10
(lp1026
g96
ag824
asg26
I00
sg27
I00
sg28
I6103149
sg19
S'14715.7750351'
p1027
sba(igraph
Edge
p1028
(dp1029
g7
I1
sg8
I00
sg9
I5
sg10
(lp1030
g103
ag838
asg26
I00
sg27
I00
sg28
I6103150
sg19
S'14715.7786518'
p1031
sba(igraph
Edge
p1032
(dp1033
g7
I1
sg8
I00
sg9
I5
sg10
(lp1034
g110
ag838
asg26
I00
sg27
I00
sg28
I6103151
sg19
S'14715.7822793'
p1035
sba(igraph
Edge
p1036
(dp1037
g7
I1
sg8
I00
sg9
I5
sg10
(lp1038
g117
ag852
asg26
I00
sg27
I00
sg28
I6103152
sg19
S'14715.7859742'
p1039
sba(igraph
Edge
p1040
(dp1041
g7
I1
sg8
I00
sg9
I5
sg10
(lp1042
g12
ag852
asg26
I00
sg27
I00
sg28
I6103153
sg19
S'14715.7897096'
p1043
sba(igraph
Edge
p1044
(dp1045
g7
I1
sg8
I00
sg9
I5
sg10
(lp1046
g22
ag761
asg26
I00
sg27
I00
sg28
I6103154
sg19
S'14715.7934768'
p1047
sba(igraph
Edge
p1048
(dp1049
g7
I1
sg8
I00
sg9
I5
sg10
(lp1050
g33
ag761
asg26
I00
sg27
I00
sg28
I6103155
sg19
S'14715.7971737'
p1051
sba(igraph
Edge
p1052
(dp1053
g7
I1
sg8
I00
sg9
I5
sg10
(lp1054
g40
ag775
asg26
I00
sg27
I00
sg28
I6103156
sg19
S'14715.8009023'
p1055
sba(igraph
Edge
p1056
(dp1057
g7
I1
sg8
I00
sg9
I5
sg10
(lp1058
g47
ag775
asg26
I00
sg27
I00
sg28
I6103157
sg19
S'14715.8046634'
p1059
sba(igraph
Edge
p1060
(dp1061
g7
I1
sg8
I00
sg9
I5
sg10
(lp1062
g54
ag789
asg26
I00
sg27
I00
sg28
I6103158
sg19
S'14715.8084201'
p1063
sba(igraph
Edge
p1064
(dp1065
g7
I1
sg8
I00
sg9
I5
sg10
(lp1066
g61
ag789
asg26
I00
sg27
I00
sg28
I6103159
sg19
S'14715.8122189'
p1067
sba(igraph
Edge
p1068
(dp1069
g7
I1
sg8
I00
sg9
I5
sg10
(lp1070
g68
ag803
asg26
I00
sg27
I00
sg28
I6103160
sg19
S'14715.8160263'
p1071
sba(igraph
Edge
p1072
(dp1073
g7
I1
sg8
I00
sg9
I5
sg10
(lp1074
g75
ag803
asg26
I00
sg27
I00
sg28
I6103161
sg19
S'14715.8198576'
p1075
sba(igraph
Edge
p1076
(dp1077
g7
I1
sg8
I00
sg9
I5
sg10
(lp1078
g82
ag817
asg26
I00
sg27
I00
sg28
I6103162
sg19
S'14715.8237273'
p1079
sba(igraph
Edge
p1080
(dp1081
g7
I1
sg8
I00
sg9
I5
sg10
(lp1082
g89
ag817
asg26
I00
sg27
I00
sg28
I6103163
sg19
S'14715.8276471'
p1083
sba(igraph
Edge
p1084
(dp1085
g7
I1
sg8
I00
sg9
I5
sg10
(lp1086
g96
ag831
asg26
I00
sg27
I00
sg28
I6103164
sg19
S'14715.8315792'
p1087
sba(igraph
Edge
p1088
(dp1089
g7
I1
sg8
I00
sg9
I5
sg10
(lp1090
g103
ag831
asg26
I00
sg27
I00
sg28
I6103165
sg19
S'14715.8355098'
p1091
sba(igraph
Edge
p1092
(dp1093
g7
I1
sg8
I00
sg9
I5
sg10
(lp1094
g110
ag845
asg26
I00
sg27
I00
sg28
I6103166
sg19
S'14715.8395665'
p1095
sba(igraph
Edge
p1096
(dp1097
g7
I1
sg8
I00
sg9
I5
sg10
(lp1098
g117
ag845
asg26
I00
sg27
I00
sg28
I6103167
sg19
S'14715.8436382'
p1099
sba(igraph
Edge
p1100
(dp1101
g7
I1
sg8
I00
sg9
I5
sg10
(lp1102
g128
ag233
asg26
I00
sg27
I00
sg28
I6103168
sg19
S'14715.8476396'
p1103
sba(igraph
Edge
p1104
(dp1105
g7
I1
sg8
I00
sg9
I5
sg10
(lp1106
g131
ag243
asg26
I00
sg27
I00
sg28
I6103169
sg19
S'14715.8516717'
p1107
sba(igraph
Edge
p1108
(dp1109
g7
I1
sg8
I00
sg9
I5
sg10
(lp1110
g138
ag243
asg26
I00
sg27
I00
sg28
I6103170
sg19
S'14715.8557135'
p1111
sba(igraph
Edge
p1112
(dp1113
g7
I1
sg8
I00
sg9
I5
sg10
(lp1114
g145
ag257
asg26
I00
sg27
I00
sg28
I6103171
sg19
S'14715.8597221'
p1115
sba(igraph
Edge
p1116
(dp1117
g7
I1
sg8
I00
sg9
I5
sg10
(lp1118
g152
ag257
asg26
I00
sg27
I00
sg28
I6103172
sg19
S'14715.8637659'
p1119
sba(igraph
Edge
p1120
(dp1121
g7
I1
sg8
I00
sg9
I5
sg10
(lp1122
g159
ag271
asg26
I00
sg27
I00
sg28
I6103173
sg19
S'14715.8678483'
p1123
sba(igraph
Edge
p1124
(dp1125
g7
I1
sg8
I00
sg9
I5
sg10
(lp1126
g166
ag271
asg26
I00
sg27
I00
sg28
I6103174
sg19
S'14715.8720435'
p1127
sba(igraph
Edge
p1128
(dp1129
g7
I1
sg8
I00
sg9
I5
sg10
(lp1130
g173
ag285
asg26
I00
sg27
I00
sg28
I6103175
sg19
S'14715.8761443'
p1131
sba(igraph
Edge
p1132
(dp1133
g7
I1
sg8
I00
sg9
I5
sg10
(lp1134
g180
ag285
asg26
I00
sg27
I00
sg28
I6103176
sg19
S'14715.8805834'
p1135
sba(igraph
Edge
p1136
(dp1137
g7
I1
sg8
I00
sg9
I5
sg10
(lp1138
g187
ag299
asg26
I00
sg27
I00
sg28
I6103177
sg19
S'14715.8847965'
p1139
sba(igraph
Edge
p1140
(dp1141
g7
I1
sg8
I00
sg9
I5
sg10
(lp1142
g194
ag299
asg26
I00
sg27
I00
sg28
I6103178
sg19
S'14715.8889538'
p1143
sba(igraph
Edge
p1144
(dp1145
g7
I1
sg8
I00
sg9
I5
sg10
(lp1146
g201
ag313
asg26
I00
sg27
I00
sg28
I6103179
sg19
S'14715.8932096'
p1147
sba(igraph
Edge
p1148
(dp1149
g7
I1
sg8
I00
sg9
I5
sg10
(lp1150
g208
ag313
asg26
I00
sg27
I00
sg28
I6103180
sg19
S'14715.8974238'
p1151
sba(igraph
Edge
p1152
(dp1153
g7
I1
sg8
I00
sg9
I5
sg10
(lp1154
g215
ag327
asg26
I00
sg27
I00
sg28
I6103181
sg19
S'14715.9017481'
p1155
sba(igraph
Edge
p1156
(dp1157
g7
I1
sg8
I00
sg9
I5
sg10
(lp1158
g222
ag327
asg26
I00
sg27
I00
sg28
I6103182
sg19
S'14715.9061833'
p1159
sba(igraph
Edge
p1160
(dp1161
g7
I1
sg8
I00
sg9
I5
sg10
(lp1162
g128
ag236
asg26
I00
sg27
I00
sg28
I6103183
sg19
S'14715.9105437'
p1163
sba(igraph
Edge
p1164
(dp1165
g7
I1
sg8
I00
sg9
I5
sg10
(lp1166
g131
ag236
asg26
I00
sg27
I00
sg28
I6103184
sg19
S'14715.9149023'
p1167
sba(igraph
Edge
p1168
(dp1169
g7
I1
sg8
I00
sg9
I5
sg10
(lp1170
g138
ag250
asg26
I00
sg27
I00
sg28
I6103185
sg19
S'14715.9192953'
p1171
sba(igraph
Edge
p1172
(dp1173
g7
I1
sg8
I00
sg9
I5
sg10
(lp1174
g145
ag250
asg26
I00
sg27
I00
sg28
I6103186
sg19
S'14715.9236294'
p1175
sba(igraph
Edge
p1176
(dp1177
g7
I1
sg8
I00
sg9
I5
sg10
(lp1178
g152
ag264
asg26
I00
sg27
I00
sg28
I6103187
sg19
S'14715.9280138'
p1179
sba(igraph
Edge
p1180
(dp1181
g7
I1
sg8
I00
sg9
I5
sg10
(lp1182
g159
ag264
asg26
I00
sg27
I00
sg28
I6103188
sg19
S'14715.9324763'
p1183
sba(igraph
Edge
p1184
(dp1185
g7
I1
sg8
I00
sg9
I5
sg10
(lp1186
g166
ag278
asg26
I00
sg27
I00
sg28
I6103189
sg19
S'14715.9369959'
p1187
sba(igraph
Edge
p1188
(dp1189
g7
I1
sg8
I00
sg9
I5
sg10
(lp1190
g173
ag278
asg26
I00
sg27
I00
sg28
I6103190
sg19
S'14715.9414381'
p1191
sba(igraph
Edge
p1192
(dp1193
g7
I1
sg8
I00
sg9
I5
sg10
(lp1194
g180
ag292
asg26
I00
sg27
I00
sg28
I6103191
sg19
S'14715.9459322'
p1195
sba(igraph
Edge
p1196
(dp1197
g7
I1
sg8
I00
sg9
I5
sg10
(lp1198
g187
ag292
asg26
I00
sg27
I00
sg28
I6103192
sg19
S'14715.9504624'
p1199
sba(igraph
Edge
p1200
(dp1201
g7
I1
sg8
I00
sg9
I5
sg10
(lp1202
g194
ag306
asg26
I00
sg27
I00
sg28
I6103193
sg19
S'14715.9555793'
p1203
sba(igraph
Edge
p1204
(dp1205
g7
I1
sg8
I00
sg9
I5
sg10
(lp1206
g201
ag306
asg26
I00
sg27
I00
sg28
I6103194
sg19
S'14715.9601494'
p1207
sba(igraph
Edge
p1208
(dp1209
g7
I1
sg8
I00
sg9
I5
sg10
(lp1210
g208
ag320
asg26
I00
sg27
I00
sg28
I6103195
sg19
S'14715.9646536'
p1211
sba(igraph
Edge
p1212
(dp1213
g7
I1
sg8
I00
sg9
I5
sg10
(lp1214
g215
ag320
asg26
I00
sg27
I00
sg28
I6103196
sg19
S'14715.9693299'
p1215
sba(igraph
Edge
p1216
(dp1217
g7
I1
sg8
I00
sg9
I5
sg10
(lp1218
g222
ag233
asg26
I00
sg27
I00
sg28
I6103197
sg19
S'14715.9739905'
p1219
sba(igraph
Edge
p1220
(dp1221
g7
I1
sg8
I00
sg9
I5
sg10
(lp1222
g233
ag338
asg26
I00
sg27
I00
sg28
I6103198
sg19
S'14715.9787942'
p1223
sba(igraph
Edge
p1224
(dp1225
g7
I1
sg8
I00
sg9
I5
sg10
(lp1226
g236
ag348
asg26
I00
sg27
I00
sg28
I6103199
sg19
S'14715.9836272'
p1227
sba(igraph
Edge
p1228
(dp1229
g7
I1
sg8
I00
sg9
I5
sg10
(lp1230
g243
ag348
asg26
I00
sg27
I00
sg28
I6103200
sg19
S'14715.9883114'
p1231
sba(igraph
Edge
p1232
(dp1233
g7
I1
sg8
I00
sg9
I5
sg10
(lp1234
g250
ag362
asg26
I00
sg27
I00
sg28
I6103201
sg19
S'14715.9929952'
p1235
sba(igraph
Edge
p1236
(dp1237
g7
I1
sg8
I00
sg9
I5
sg10
(lp1238
g257
ag362
asg26
I00
sg27
I00
sg28
I6103202
sg19
S'14715.9976634'
p1239
sba(igraph
Edge
p1240
(dp1241
g7
I1
sg8
I00
sg9
I5
sg10
(lp1242
g264
ag376
asg26
I00
sg27
I00
sg28
I6103203
sg19
S'14716.0024587'
p1243
sba(igraph
Edge
p1244
(dp1245
g7
I1
sg8
I00
sg9
I5
sg10
(lp1246
g271
ag376
asg26
I00
sg27
I00
sg28
I6103204
sg19
S'14716.0072358'
p1247
sba(igraph
Edge
p1248
(dp1249
g7
I1
sg8
I00
sg9
I5
sg10
(lp1250
g278
ag390
asg26
I00
sg27
I00
sg28
I6103205
sg19
S'14716.0120462'
p1251
sba(igraph
Edge
p1252
(dp1253
g7
I1
sg8
I00
sg9
I5
sg10
(lp1254
g285
ag390
asg26
I00
sg27
I00
sg28
I6103206
sg19
S'14716.016853'
p1255
sba(igraph
Edge
p1256
(dp1257
g7
I1
sg8
I00
sg9
I5
sg10
(lp1258
g292
ag404
asg26
I00
sg27
I00
sg28
I6103207
sg19
S'14716.021646'
p1259
sba(igraph
Edge
p1260
(dp1261
g7
I1
sg8
I00
sg9
I5
sg10
(lp1262
g299
ag404
asg26
I00
sg27
I00
sg28
I6103208
sg19
S'14716.0264182'
p1263
sba(igraph
Edge
p1264
(dp1265
g7
I1
sg8
I00
sg9
I5
sg10
(lp1266
g306
ag418
asg26
I00
sg27
I00
sg28
I6103209
sg19
S'14716.0313406'
p1267
sba(igraph
Edge
p1268
(dp1269
g7
I1
sg8
I00
sg9
I5
sg10
(lp1270
g313
ag418
asg26
I00
sg27
I00
sg28
I6103210
sg19
S'14716.0362256'
p1271
sba(igraph
Edge
p1272
(dp1273
g7
I1
sg8
I00
sg9
I5
sg10
(lp1274
g320
ag432
asg26
I00
sg27
I00
sg28
I6103211
sg19
S'14716.0411603'
p1275
sba(igraph
Edge
p1276
(dp1277
g7
I1
sg8
I00
sg9
I5
sg10
(lp1278
g327
ag432
asg26
I00
sg27
I00
sg28
I6103212
sg19
S'14716.0461517'
p1279
sba(igraph
Edge
p1280
(dp1281
g7
I1
sg8
I00
sg9
I5
sg10
(lp1282
g233
ag341
asg26
I00
sg27
I00
sg28
I6103213
sg19
S'14716.0511783'
p1283
sba(igraph
Edge
p1284
(dp1285
g7
I1
sg8
I00
sg9
I5
sg10
(lp1286
g236
ag341
asg26
I00
sg27
I00
sg28
I6103214
sg19
S'14716.056239'
p1287
sba(igraph
Edge
p1288
(dp1289
g7
I1
sg8
I00
sg9
I5
sg10
(lp1290
g243
ag355
asg26
I00
sg27
I00
sg28
I6103215
sg19
S'14716.0611896'
p1291
sba(igraph
Edge
p1292
(dp1293
g7
I1
sg8
I00
sg9
I5
sg10
(lp1294
g250
ag355
asg26
I00
sg27
I00
sg28
I6103216
sg19
S'14716.0662143'
p1295
sba(igraph
Edge
p1296
(dp1297
g7
I1
sg8
I00
sg9
I5
sg10
(lp1298
g257
ag369
asg26
I00
sg27
I00
sg28
I6103217
sg19
S'14716.0714535'
p1299
sba(igraph
Edge
p1300
(dp1301
g7
I1
sg8
I00
sg9
I5
sg10
(lp1302
g264
ag369
asg26
I00
sg27
I00
sg28
I6103218
sg19
S'14716.0777596'
p1303
sba(igraph
Edge
p1304
(dp1305
g7
I1
sg8
I00
sg9
I5
sg10
(lp1306
g271
ag383
asg26
I00
sg27
I00
sg28
I6103219
sg19
S'14716.0835179'
p1307
sba(igraph
Edge
p1308
(dp1309
g7
I1
sg8
I00
sg9
I5
sg10
(lp1310
g278
ag383
asg26
I00
sg27
I00
sg28
I6103220
sg19
S'14716.0890239'
p1311
sba(igraph
Edge
p1312
(dp1313
g7
I1
sg8
I00
sg9
I5
sg10
(lp1314
g285
ag397
asg26
I00
sg27
I00
sg28
I6103221
sg19
S'14716.0965614'
p1315
sba(igraph
Edge
p1316
(dp1317
g7
I1
sg8
I00
sg9
I5
sg10
(lp1318
g292
ag397
asg26
I00
sg27
I00
sg28
I6103222
sg19
S'14716.1021367'
p1319
sba(igraph
Edge
p1320
(dp1321
g7
I1
sg8
I00
sg9
I5
sg10
(lp1322
g299
ag411
asg26
I00
sg27
I00
sg28
I6103223
sg19
S'14716.1077056'
p1323
sba(igraph
Edge
p1324
(dp1325
g7
I1
sg8
I00
sg9
I5
sg10
(lp1326
g306
ag411
asg26
I00
sg27
I00
sg28
I6103224
sg19
S'14716.1131554'
p1327
sba(igraph
Edge
p1328
(dp1329
g7
I1
sg8
I00
sg9
I5
sg10
(lp1330
g313
ag425
asg26
I00
sg27
I00
sg28
I6103225
sg19
S'14716.1189182'
p1331
sba(igraph
Edge
p1332
(dp1333
g7
I1
sg8
I00
sg9
I5
sg10
(lp1334
g320
ag425
asg26
I00
sg27
I00
sg28
I6103226
sg19
S'14716.1251301'
p1335
sba(igraph
Edge
p1336
(dp1337
g7
I1
sg8
I00
sg9
I5
sg10
(lp1338
g327
ag338
asg26
I00
sg27
I00
sg28
I6103227
sg19
S'14716.132026'
p1339
sba(igraph
Edge
p1340
(dp1341
g7
I1
sg8
I00
sg9
I5
sg10
(lp1342
g338
ag443
asg26
I00
sg27
I00
sg28
I6103228
sg19
S'14716.1387648'
p1343
sba(igraph
Edge
p1344
(dp1345
g7
I1
sg8
I00
sg9
I5
sg10
(lp1346
g341
ag453
asg26
I00
sg27
I00
sg28
I6103229
sg19
S'14716.1457579'
p1347
sba(igraph
Edge
p1348
(dp1349
g7
I1
sg8
I00
sg9
I5
sg10
(lp1350
g348
ag453
asg26
I00
sg27
I00
sg28
I6103230
sg19
S'14716.1534782'
p1351
sba(igraph
Edge
p1352
(dp1353
g7
I1
sg8
I00
sg9
I5
sg10
(lp1354
g355
ag467
asg26
I00
sg27
I00
sg28
I6103231
sg19
S'14716.1603916'
p1355
sba(igraph
Edge
p1356
(dp1357
g7
I1
sg8
I00
sg9
I5
sg10
(lp1358
g362
ag467
asg26
I00
sg27
I00
sg28
I6103232
sg19
S'14716.1674506'
p1359
sba(igraph
Edge
p1360
(dp1361
g7
I1
sg8
I00
sg9
I5
sg10
(lp1362
g369
ag481
asg26
I00
sg27
I00
sg28
I6103233
sg19
S'14716.1742911'
p1363
sba(igraph
Edge
p1364
(dp1365
g7
I1
sg8
I00
sg9
I5
sg10
(lp1366
g376
ag481
asg26
I00
sg27
I00
sg28
I6103234
sg19
S'14716.1805087'
p1367
sba(igraph
Edge
p1368
(dp1369
g7
I1
sg8
I00
sg9
I5
sg10
(lp1370
g383
ag495
asg26
I00
sg27
I00
sg28
I6103235
sg19
S'14716.1875786'
p1371
sba(igraph
Edge
p1372
(dp1373
g7
I1
sg8
I00
sg9
I5
sg10
(lp1374
g390
ag495
asg26
I00
sg27
I00
sg28
I6103236
sg19
S'14716.1936917'
p1375
sba(igraph
Edge
p1376
(dp1377
g7
I1
sg8
I00
sg9
I5
sg10
(lp1378
g397
ag509
asg26
I00
sg27
I00
sg28
I6103237
sg19
S'14716.1997595'
p1379
sba(igraph
Edge
p1380
(dp1381
g7
I1
sg8
I00
sg9
I5
sg10
(lp1382
g404
ag509
asg26
I00
sg27
I00
sg28
I6103238
sg19
S'14716.206931'
p1383
sba(igraph
Edge
p1384
(dp1385
g7
I1
sg8
I00
sg9
I5
sg10
(lp1386
g411
ag523
asg26
I00
sg27
I00
sg28
I6103239
sg19
S'14716.2128223'
p1387
sba(igraph
Edge
p1388
(dp1389
g7
I1
sg8
I00
sg9
I5
sg10
(lp1390
g418
ag523
asg26
I00
sg27
I00
sg28
I6103240
sg19
S'14716.2237784'
p1391
sba(igraph
Edge
p1392
(dp1393
g7
I1
sg8
I00
sg9
I5
sg10
(lp1394
g425
ag537
asg26
I00
sg27
I00
sg28
I6103241
sg19
S'14716.2297786'
p1395
sba(igraph
Edge
p1396
(dp1397
g7
I1
sg8
I00
sg9
I5
sg10
(lp1398
g432
ag537
asg26
I00
sg27
I00
sg28
I6103242
sg19
S'14716.2359515'
p1399
sba(igraph
Edge
p1400
(dp1401
g7
I1
sg8
I00
sg9
I5
sg10
(lp1402
g338
ag446
asg26
I00
sg27
I00
sg28
I6103243
sg19
S'14716.2421252'
p1403
sba(igraph
Edge
p1404
(dp1405
g7
I1
sg8
I00
sg9
I5
sg10
(lp1406
g341
ag446
asg26
I00
sg27
I00
sg28
I6103244
sg19
S'14716.2482843'
p1407
sba(igraph
Edge
p1408
(dp1409
g7
I1
sg8
I00
sg9
I5
sg10
(lp1410
g348
ag460
asg26
I00
sg27
I00
sg28
I6103245
sg19
S'14716.255573'
p1411
sba(igraph
Edge
p1412
(dp1413
g7
I1
sg8
I00
sg9
I5
sg10
(lp1414
g355
ag460
asg26
I00
sg27
I00
sg28
I6103246
sg19
S'14716.262927'
p1415
sba(igraph
Edge
p1416
(dp1417
g7
I1
sg8
I00
sg9
I5
sg10
(lp1418
g362
ag474
asg26
I00
sg27
I00
sg28
I6103247
sg19
S'14716.2699762'
p1419
sba(igraph
Edge
p1420
(dp1421
g7
I1
sg8
I00
sg9
I5
sg10
(lp1422
g369
ag474
asg26
I00
sg27
I00
sg28
I6103248
sg19
S'14716.2775261'
p1423
sba(igraph
Edge
p1424
(dp1425
g7
I1
sg8
I00
sg9
I5
sg10
(lp1426
g376
ag488
asg26
I00
sg27
I00
sg28
I6103249
sg19
S'14716.2848407'
p1427
sba(igraph
Edge
p1428
(dp1429
g7
I1
sg8
I00
sg9
I5
sg10
(lp1430
g383
ag488
asg26
I00
sg27
I00
sg28
I6103250
sg19
S'14716.2921774'
p1431
sba(igraph
Edge
p1432
(dp1433
g7
I1
sg8
I00
sg9
I5
sg10
(lp1434
g390
ag502
asg26
I00
sg27
I00
sg28
I6103251
sg19
S'14716.2994649'
p1435
sba(igraph
Edge
p1436
(dp1437
g7
I1
sg8
I00
sg9
I5
sg10
(lp1438
g397
ag502
asg26
I00
sg27
I00
sg28
I6103252
sg19
S'14716.306026'
p1439
sba(igraph
Edge
p1440
(dp1441
g7
I1
sg8
I00
sg9
I5
sg10
(lp1442
g404
ag516
asg26
I00
sg27
I00
sg28
I6103253
sg19
S'14716.3127649'
p1443
sba(igraph
Edge
p1444
(dp1445
g7
I1
sg8
I00
sg9
I5
sg10
(lp1446
g411
ag516
asg26
I00
sg27
I00
sg28
I6103254
sg19
S'14716.3190813'
p1447
sba(igraph
Edge
p1448
(dp1449
g7
I1
sg8
I00
sg9
I5
sg10
(lp1450
g418
ag530
asg26
I00
sg27
I00
sg28
I6103255
sg19
S'14716.3260054'
p1451
sba(igraph
Edge
p1452
(dp1453
g7
I1
sg8
I00
sg9
I5
sg10
(lp1454
g425
ag530
asg26
I00
sg27
I00
sg28
I6103256
sg19
S'14716.3321389'
p1455
sba(igraph
Edge
p1456
(dp1457
g7
I1
sg8
I00
sg9
I5
sg10
(lp1458
g432
ag443
asg26
I00
sg27
I00
sg28
I6103257
sg19
S'14716.3381896'
p1459
sba(igraph
Edge
p1460
(dp1461
g7
I1
sg8
I00
sg9
I5
sg10
(lp1462
g443
ag548
asg26
I00
sg27
I00
sg28
I6103258
sg19
S'14716.344241'
p1463
sba(igraph
Edge
p1464
(dp1465
g7
I1
sg8
I00
sg9
I5
sg10
(lp1466
g446
ag558
asg26
I00
sg27
I00
sg28
I6103259
sg19
S'14716.350263'
p1467
sba(igraph
Edge
p1468
(dp1469
g7
I1
sg8
I00
sg9
I5
sg10
(lp1470
g453
ag558
asg26
I00
sg27
I00
sg28
I6103260
sg19
S'14716.3564738'
p1471
sba(igraph
Edge
p1472
(dp1473
g7
I1
sg8
I00
sg9
I5
sg10
(lp1474
g460
ag572
asg26
I00
sg27
I00
sg28
I6103261
sg19
S'14716.3624941'
p1475
sba(igraph
Edge
p1476
(dp1477
g7
I1
sg8
I00
sg9
I5
sg10
(lp1478
g467
ag572
asg26
I00
sg27
I00
sg28
I6103262
sg19
S'14716.3684801'
p1479
sba(igraph
Edge
p1480
(dp1481
g7
I1
sg8
I00
sg9
I5
sg10
(lp1482
g474
ag586
asg26
I00
sg27
I00
sg28
I6103263
sg19
S'14716.3745367'
p1483
sba(igraph
Edge
p1484
(dp1485
g7
I1
sg8
I00
sg9
I5
sg10
(lp1486
g481
ag586
asg26
I00
sg27
I00
sg28
I6103264
sg19
S'14716.3806322'
p1487
sba(igraph
Edge
p1488
(dp1489
g7
I1
sg8
I00
sg9
I5
sg10
(lp1490
g488
ag600
asg26
I00
sg27
I00
sg28
I6103265
sg19
S'14716.3866888'
p1491
sba(igraph
Edge
p1492
(dp1493
g7
I1
sg8
I00
sg9
I5
sg10
(lp1494
g495
ag600
asg26
I00
sg27
I00
sg28
I6103266
sg19
S'14716.3930497'
p1495
sba(igraph
Edge
p1496
(dp1497
g7
I1
sg8
I00
sg9
I5
sg10
(lp1498
g502
ag614
asg26
I00
sg27
I00
sg28
I6103267
sg19
S'14716.3991759'
p1499
sba(igraph
Edge
p1500
(dp1501
g7
I1
sg8
I00
sg9
I5
sg10
(lp1502
g509
ag614
asg26
I00
sg27
I00
sg28
I6103268
sg19
S'14716.4053166'
p1503
sba(igraph
Edge
p1504
(dp1505
g7
I1
sg8
I00
sg9
I5
sg10
(lp1506
g516
ag628
asg26
I00
sg27
I00
sg28
I6103269
sg19
S'14716.4116138'
p1507
sba(igraph
Edge
p1508
(dp1509
g7
I1
sg8
I00
sg9
I5
sg10
(lp1510
g523
ag628
asg26
I00
sg27
I00
sg28
I6103270
sg19
S'14716.4179366'
p1511
sba(igraph
Edge
p1512
(dp1513
g7
I1
sg8
I00
sg9
I5
sg10
(lp1514
g530
ag642
asg26
I00
sg27
I00
sg28
I6103271
sg19
S'14716.4242011'
p1515
sba(igraph
Edge
p1516
(dp1517
g7
I1
sg8
I00
sg9
I5
sg10
(lp1518
g537
ag642
asg26
I00
sg27
I00
sg28
I6103272
sg19
S'14716.4305201'
p1519
sba(igraph
Edge
p1520
(dp1521
g7
I1
sg8
I00
sg9
I5
sg10
(lp1522
g443
ag551
asg26
I00
sg27
I00
sg28
I6103273
sg19
S'14716.4368309'
p1523
sba(igraph
Edge
p1524
(dp1525
g7
I1
sg8
I00
sg9
I5
sg10
(lp1526
g446
ag551
asg26
I00
sg27
I00
sg28
I6103274
sg19
S'14716.4432505'
p1527
sba(igraph
Edge
p1528
(dp1529
g7
I1
sg8
I00
sg9
I5
sg10
(lp1530
g453
ag565
asg26
I00
sg27
I00
sg28
I6103275
sg19
S'14716.4496328'
p1531
sba(igraph
Edge
p1532
(dp1533
g7
I1
sg8
I00
sg9
I5
sg10
(lp1534
g460
ag565
asg26
I00
sg27
I00
sg28
I6103276
sg19
S'14716.456013'
p1535
sba(igraph
Edge
p1536
(dp1537
g7
I1
sg8
I00
sg9
I5
sg10
(lp1538
g467
ag579
asg26
I00
sg27
I00
sg28
I6103277
sg19
S'14716.4623892'
p1539
sba(igraph
Edge
p1540
(dp1541
g7
I1
sg8
I00
sg9
I5
sg10
(lp1542
g474
ag579
asg26
I00
sg27
I00
sg28
I6103278
sg19
S'14716.4688481'
p1543
sba(igraph
Edge
p1544
(dp1545
g7
I1
sg8
I00
sg9
I5
sg10
(lp1546
g481
ag593
asg26
I00
sg27
I00
sg28
I6103279
sg19
S'14716.4754004'
p1547
sba(igraph
Edge
p1548
(dp1549
g7
I1
sg8
I00
sg9
I5
sg10
(lp1550
g488
ag593
asg26
I00
sg27
I00
sg28
I6103280
sg19
S'14716.4823677'
p1551
sba(igraph
Edge
p1552
(dp1553
g7
I1
sg8
I00
sg9
I5
sg10
(lp1554
g495
ag607
asg26
I00
sg27
I00
sg28
I6103281
sg19
S'14716.4889624'
p1555
sba(igraph
Edge
p1556
(dp1557
g7
I1
sg8
I00
sg9
I5
sg10
(lp1558
g502
ag607
asg26
I00
sg27
I00
sg28
I6103282
sg19
S'14716.4956893'
p1559
sba(igraph
Edge
p1560
(dp1561
g7
I1
sg8
I00
sg9
I5
sg10
(lp1562
g509
ag621
asg26
I00
sg27
I00
sg28
I6103283
sg19
S'14716.5023384'
p1563
sba(igraph
Edge
p1564
(dp1565
g7
I1
sg8
I00
sg9
I5
sg10
(lp1566
g516
ag621
asg26
I00
sg27
I00
sg28
I6103284
sg19
S'14716.5088664'
p1567
sba(igraph
Edge
p1568
(dp1569
g7
I1
sg8
I00
sg9
I5
sg10
(lp1570
g523
ag635
asg26
I00
sg27
I00
sg28
I6103285
sg19
S'14716.5154323'
p1571
sba(igraph
Edge
p1572
(dp1573
g7
I1
sg8
I00
sg9
I5
sg10
(lp1574
g530
ag635
asg26
I00
sg27
I00
sg28
I6103286
sg19
S'14716.5219552'
p1575
sba(igraph
Edge
p1576
(dp1577
g7
I1
sg8
I00
sg9
I5
sg10
(lp1578
g537
ag548
asg26
I00
sg27
I00
sg28
I6103287
sg19
S'14716.5285881'
p1579
sba(igraph
Edge
p1580
(dp1581
g7
I1
sg8
I00
sg9
I5
sg10
(lp1582
g548
ag653
asg26
I00
sg27
I00
sg28
I6103288
sg19
S'14716.5354532'
p1583
sba(igraph
Edge
p1584
(dp1585
g7
I1
sg8
I00
sg9
I5
sg10
(lp1586
g551
ag663
asg26
I00
sg27
I00
sg28
I6103289
sg19
S'14716.542072'
p1587
sba(igraph
Edge
p1588
(dp1589
g7
I1
sg8
I00
sg9
I5
sg10
(lp1590
g558
ag663
asg26
I00
sg27
I00
sg28
I6103290
sg19
S'14716.5488298'
p1591
sba(igraph
Edge
p1592
(dp1593
g7
I1
sg8
I00
sg9
I5
sg10
(lp1594
g565
ag677
asg26
I00
sg27
I00
sg28
I6103291
sg19
S'14716.5555566'
p1595
sba(igraph
Edge
p1596
(dp1597
g7
I1
sg8
I00
sg9
I5
sg10
(lp1598
g572
ag677
asg26
I00
sg27
I00
sg28
I6103292
sg19
S'14716.5622583'
p1599
sba(igraph
Edge
p1600
(dp1601
g7
I1
sg8
I00
sg9
I5
sg10
(lp1602
g579
ag691
asg26
I00
sg27
I00
sg28
I6103293
sg19
S'14716.5691983'
p1603
sba(igraph
Edge
p1604
(dp1605
g7
I1
sg8
I00
sg9
I5
sg10
(lp1606
g586
ag691
asg26
I00
sg27
I00
sg28
I6103294
sg19
S'14716.5760134'
p1607
sba(igraph
Edge
p1608
(dp1609
g7
I1
sg8
I00
sg9
I5
sg10
(lp1610
g593
ag705
asg26
I00
sg27
I00
sg28
I6103295
sg19
S'14716.5827383'
p1611
sba(igraph
Edge
p1612
(dp1613
g7
I1
sg8
I00
sg9
I5
sg10
(lp1614
g600
ag705
asg26
I00
sg27
I00
sg28
I6103296
sg19
S'14716.5894436'
p1615
sba(igraph
Edge
p1616
(dp1617
g7
I1
sg8
I00
sg9
I5
sg10
(lp1618
g607
ag719
asg26
I00
sg27
I00
sg28
I6103297
sg19
S'14716.5985805'
p1619
sba(igraph
Edge
p1620
(dp1621
g7
I1
sg8
I00
sg9
I5
sg10
(lp1622
g614
ag719
asg26
I00
sg27
I00
sg28
I6103298
sg19
S'14716.6066137'
p1623
sba(igraph
Edge
p1624
(dp1625
g7
I1
sg8
I00
sg9
I5
sg10
(lp1626
g621
ag733
asg26
I00
sg27
I00
sg28
I6103299
sg19
S'14716.6140269'
p1627
sba(igraph
Edge
p1628
(dp1629
g7
I1
sg8
I00
sg9
I5
sg10
(lp1630
g628
ag733
asg26
I00
sg27
I00
sg28
I6103300
sg19
S'14716.621051'
p1631
sba(igraph
Edge
p1632
(dp1633
g7
I1
sg8
I00
sg9
I5
sg10
(lp1634
g635
ag747
asg26
I00
sg27
I00
sg28
I6103301
sg19
S'14716.6280259'
p1635
sba(igraph
Edge
p1636
(dp1637
g7
I1
sg8
I00
sg9
I5
sg10
(lp1638
g642
ag747
asg26
I00
sg27
I00
sg28
I6103302
sg19
S'14716.6351128'
p1639
sba(igraph
Edge
p1640
(dp1641
g7
I1
sg8
I00
sg9
I5
sg10
(lp1642
g548
ag656
asg26
I00
sg27
I00
sg28
I6103303
sg19
S'14716.6421646'
p1643
sba(igraph
Edge
p1644
(dp1645
g7
I1
sg8
I00
sg9
I5
sg10
(lp1646
g551
ag656
asg26
I00
sg27
I00
sg28
I6103304
sg19
S'14716.6491007'
p1647
sba(igraph
Edge
p1648
(dp1649
g7
I1
sg8
I00
sg9
I5
sg10
(lp1650
g558
ag670
asg26
I00
sg27
I00
sg28
I6103305
sg19
S'14716.6561658'
p1651
sba(igraph
Edge
p1652
(dp1653
g7
I1
sg8
I00
sg9
I5
sg10
(lp1654
g565
ag670
asg26
I00
sg27
I00
sg28
I6103306
sg19
S'14716.6631142'
p1655
sba(igraph
Edge
p1656
(dp1657
g7
I1
sg8
I00
sg9
I5
sg10
(lp1658
g572
ag684
asg26
I00
sg27
I00
sg28
I6103307
sg19
S'14716.6700609'
p1659
sba(igraph
Edge
p1660
(dp1661
g7
I1
sg8
I00
sg9
I5
sg10
(lp1662
g579
ag684
asg26
I00
sg27
I00
sg28
I6103308
sg19
S'14716.6771403'
p1663
sba(igraph
Edge
p1664
(dp1665
g7
I1
sg8
I00
sg9
I5
sg10
(lp1666
g586
ag698
asg26
I00
sg27
I00
sg28
I6103309
sg19
S'14716.6842057'
p1667
sba(igraph
Edge
p1668
(dp1669
g7
I1
sg8
I00
sg9
I5
sg10
(lp1670
g593
ag698
asg26
I00
sg27
I00
sg28
I6103310
sg19
S'14716.6912747'
p1671
sba(igraph
Edge
p1672
(dp1673
g7
I1
sg8
I00
sg9
I5
sg10
(lp1674
g600
ag712
asg26
I00
sg27
I00
sg28
I6103311
sg19
S'14716.6982865'
p1675
sba(igraph
Edge
p1676
(dp1677
g7
I1
sg8
I00
sg9
I5
sg10
(lp1678
g607
ag712
asg26
I00
sg27
I00
sg28
I6103312
sg19
S'14716.7053612'
p1679
sba(igraph
Edge
p1680
(dp1681
g7
I1
sg8
I00
sg9
I5
sg10
(lp1682
g614
ag726
asg26
I00
sg27
I00
sg28
I6103313
sg19
S'14716.7124878'
p1683
sba(igraph
Edge
p1684
(dp1685
g7
I1
sg8
I00
sg9
I5
sg10
(lp1686
g621
ag726
asg26
I00
sg27
I00
sg28
I6103314
sg19
S'14716.7195118'
p1687
sba(igraph
Edge
p1688
(dp1689
g7
I1
sg8
I00
sg9
I5
sg10
(lp1690
g628
ag740
asg26
I00
sg27
I00
sg28
I6103315
sg19
S'14716.7267175'
p1691
sba(igraph
Edge
p1692
(dp1693
g7
I1
sg8
I00
sg9
I5
sg10
(lp1694
g635
ag740
asg26
I00
sg27
I00
sg28
I6103316
sg19
S'14716.734069'
p1695
sba(igraph
Edge
p1696
(dp1697
g7
I1
sg8
I00
sg9
I5
sg10
(lp1698
g642
ag653
asg26
I00
sg27
I00
sg28
I6103317
sg19
S'14716.7413696'
p1699
sba(igraph
Edge
p1700
(dp1701
g7
I1
sg8
I00
sg9
I5
sg10
(lp1702
g653
ag758
asg26
I00
sg27
I00
sg28
I6103318
sg19
S'14716.7487125'
p1703
sba(igraph
Edge
p1704
(dp1705
g7
I1
sg8
I00
sg9
I5
sg10
(lp1706
g656
ag768
asg26
I00
sg27
I00
sg28
I6103319
sg19
S'14716.7559684'
p1707
sba(igraph
Edge
p1708
(dp1709
g7
I1
sg8
I00
sg9
I5
sg10
(lp1710
g663
ag768
asg26
I00
sg27
I00
sg28
I6103320
sg19
S'14716.7631719'
p1711
sba(igraph
Edge
p1712
(dp1713
g7
I1
sg8
I00
sg9
I5
sg10
(lp1714
g670
ag782
asg26
I00
sg27
I00
sg28
I6103321
sg19
S'14716.7704708'
p1715
sba(igraph
Edge
p1716
(dp1717
g7
I1
sg8
I00
sg9
I5
sg10
(lp1718
g677
ag782
asg26
I00
sg27
I00
sg28
I6103322
sg19
S'14716.7777217'
p1719
sba(igraph
Edge
p1720
(dp1721
g7
I1
sg8
I00
sg9
I5
sg10
(lp1722
g684
ag796
asg26
I00
sg27
I00
sg28
I6103323
sg19
S'14716.7853543'
p1723
sba(igraph
Edge
p1724
(dp1725
g7
I1
sg8
I00
sg9
I5
sg10
(lp1726
g691
ag796
asg26
I00
sg27
I00
sg28
I6103324
sg19
S'14716.7926664'
p1727
sba(igraph
Edge
p1728
(dp1729
g7
I1
sg8
I00
sg9
I5
sg10
(lp1730
g698
ag810
asg26
I00
sg27
I00
sg28
I6103325
sg19
S'14716.8000402'
p1731
sba(igraph
Edge
p1732
(dp1733
g7
I1
sg8
I00
sg9
I5
sg10
(lp1734
g705
ag810
asg26
I00
sg27
I00
sg28
I6103326
sg19
S'14716.8073811'
p1735
sba(igraph
Edge
p1736
(dp1737
g7
I1
sg8
I00
sg9
I5
sg10
(lp1738
g712
ag824
asg26
I00
sg27
I00
sg28
I6103327
sg19
S'14716.8147438'
p1739
sba(igraph
Edge
p1740
(dp1741
g7
I1
sg8
I00
sg9
I5
sg10
(lp1742
g719
ag824
asg26
I00
sg27
I00
sg28
I6103328
sg19
S'14716.8221612'
p1743
sba(igraph
Edge
p1744
(dp1745
g7
I1
sg8
I00
sg9
I5
sg10
(lp1746
g726
ag838
asg26
I00
sg27
I00
sg28
I6103329
sg19
S'14716.8296831'
p1747
sba(igraph
Edge
p1748
(dp1749
g7
I1
sg8
I00
sg9
I5
sg10
(lp1750
g733
ag838
asg26
I00
sg27
I00
sg28
I6103330
sg19
S'14716.8371924'
p1751
sba(igraph
Edge
p1752
(dp1753
g7
I1
sg8
I00
sg9
I5
sg10
(lp1754
g740
ag852
asg26
I00
sg27
I00
sg28
I6103331
sg19
S'14716.8447297'
p1755
sba(igraph
Edge
p1756
(dp1757
g7
I1
sg8
I00
sg9
I5
sg10
(lp1758
g747
ag852
asg26
I00
sg27
I00
sg28
I6103332
sg19
S'14716.8524354'
p1759
sba(igraph
Edge
p1760
(dp1761
g7
I1
sg8
I00
sg9
I5
sg10
(lp1762
g653
ag761
asg26
I00
sg27
I00
sg28
I6103333
sg19
S'14716.8600677'
p1763
sba(igraph
Edge
p1764
(dp1765
g7
I1
sg8
I00
sg9
I5
sg10
(lp1766
g656
ag761
asg26
I00
sg27
I00
sg28
I6103334
sg19
S'14716.8676072'
p1767
sba(igraph
Edge
p1768
(dp1769
g7
I1
sg8
I00
sg9
I5
sg10
(lp1770
g663
ag775
asg26
I00
sg27
I00
sg28
I6103335
sg19
S'14716.8752023'
p1771
sba(igraph
Edge
p1772
(dp1773
g7
I1
sg8
I00
sg9
I5
sg10
(lp1774
g670
ag775
asg26
I00
sg27
I00
sg28
I6103336
sg19
S'14716.8828963'
p1775
sba(igraph
Edge
p1776
(dp1777
g7
I1
sg8
I00
sg9
I5
sg10
(lp1778
g677
ag789
asg26
I00
sg27
I00
sg28
I6103337
sg19
S'14716.8906766'
p1779
sba(igraph
Edge
p1780
(dp1781
g7
I1
sg8
I00
sg9
I5
sg10
(lp1782
g684
ag789
asg26
I00
sg27
I00
sg28
I6103338
sg19
S'14716.8983502'
p1783
sba(igraph
Edge
p1784
(dp1785
g7
I1
sg8
I00
sg9
I5
sg10
(lp1786
g691
ag803
asg26
I00
sg27
I00
sg28
I6103339
sg19
S'14716.9061803'
p1787
sba(igraph
Edge
p1788
(dp1789
g7
I1
sg8
I00
sg9
I5
sg10
(lp1790
g698
ag803
asg26
I00
sg27
I00
sg28
I6103340
sg19
S'14716.913931'
p1791
sba(igraph
Edge
p1792
(dp1793
g7
I1
sg8
I00
sg9
I5
sg10
(lp1794
g705
ag817
asg26
I00
sg27
I00
sg28
I6103341
sg19
S'14716.9216705'
p1795
sba(igraph
Edge
p1796
(dp1797
g7
I1
sg8
I00
sg9
I5
sg10
(lp1798
g712
ag817
asg26
I00
sg27
I00
sg28
I6103342
sg19
S'14716.9294743'
p1799
sba(igraph
Edge
p1800
(dp1801
g7
I1
sg8
I00
sg9
I5
sg10
(lp1802
g719
ag831
asg26
I00
sg27
I00
sg28
I6103343
sg19
S'14716.9372311'
p1803
sba(igraph
Edge
p1804
(dp1805
g7
I1
sg8
I00
sg9
I5
sg10
(lp1806
g726
ag831
asg26
I00
sg27
I00
sg28
I6103344
sg19
S'14716.9450578'
p1807
sba(igraph
Edge
p1808
(dp1809
g7
I1
sg8
I00
sg9
I5
sg10
(lp1810
g733
ag845
asg26
I00
sg27
I00
sg28
I6103345
sg19
S'14716.9529328'
p1811
sba(igraph
Edge
p1812
(dp1813
g7
I1
sg8
I00
sg9
I5
sg10
(lp1814
g740
ag845
asg26
I00
sg27
I00
sg28
I6103346
sg19
S'14716.9608512'
p1815
sba(igraph
Edge
p1816
(dp1817
g7
I1
sg8
I00
sg9
I5
sg10
(lp1818
g747
ag758
asg26
I00
sg27
I00
sg28
I6103347
sg19
S'14716.9697867'
p1819
sbasS'vertices'
p1820
(lp1821
g12
ag22
ag33
ag40
ag47
ag54
ag61
ag68
ag75
ag82
ag89
ag96
ag103
ag110
ag117
ag128
ag131
ag138
ag145
ag152
ag159
ag166
ag173
ag180
ag187
ag194
ag201
ag208
ag215
ag222
ag233
ag236
ag243
ag250
ag257
ag264
ag271
ag278
ag285
ag292
ag299
ag306
ag313
ag320
ag327
ag338
ag341
ag348
ag355
ag362
ag369
ag376
ag383
ag390
ag397
ag404
ag411
ag418
ag425
ag432
ag443
ag446
ag453
ag460
ag467
ag474
ag481
ag488
ag495
ag502
ag509
ag516
ag523
ag530
ag537
ag548
ag551
ag558
ag565
ag572
ag579
ag586
ag593
ag600
ag607
ag614
ag621
ag628
ag635
ag642
ag653
ag656
ag663
ag670
ag677
ag684
ag691
ag698
ag705
ag712
ag719
ag726
ag733
ag740
ag747
ag758
ag761
ag768
ag775
ag782
ag789
ag796
ag803
ag810
ag817
ag824
ag831
ag838
ag845
ag852
asS'tags'
p1822
(lp1823
sb.