(igraph
Graph
p0
(dp1
S'labelingConstraints'
p2
I-1
sS'edges'
p3
(lp4
(igraph
Edge
p5
(dp6
S'direction'
p7
I1
sS'selected'
p8
I00
sS'height'
p9
I5
sS'vs'
p10
(lp11
(igraph
Vertex
p12
(dp13
S'xnorm'
p14
F0.0
sg8
I00
sS'label'
p15
S'NULL'
p16
sS'y'
p17
F-266.0
sS'x'
p18
F223.0
sS'circle'
p19
I5938930
sS'id'
p20
S'14405.266737'
p21
sS'ynorm'
p22
F0.0
sba(igraph
Vertex
p23
(dp24
g14
F0.071428571428571425
sg8
I00
sg15
g16
sg17
F-266.0
sg18
F185.0
sg19
I5938931
sg20
S'14405.266775'
p25
sg22
F0.0
sbasS'wrap'
p26
I00
sS'curved'
p27
I00
sS'line'
p28
I5938480
sg20
S'14405.4846814'
p29
sba(igraph
Edge
p30
(dp31
g7
I1
sg8
I00
sg9
I5
sg10
(lp32
g23
a(igraph
Vertex
p33
(dp34
g14
F0.14285714285714285
sg8
I00
sg15
I0
sg17
F-266.0
sg18
F147.0
sg19
I5938932
sg20
S'14405.2668183'
p35
sg22
F0.0
sbasg26
I00
sg27
I00
sg28
I5938481
sg20
S'14405.4847407'
p36
sba(igraph
Edge
p37
(dp38
g7
I1
sg8
I00
sg9
I5
sg10
(lp39
g33
a(igraph
Vertex
p40
(dp41
g14
F0.21428571428571436
sg8
I00
sg15
g16
sg17
F-266.0
sg18
F108.99999999999996
sg19
I5938934
sg20
S'14405.2668722'
p42
sg22
F0.0
sbasg26
I00
sg27
I00
sg28
I5938482
sg20
S'14405.4848194'
p43
sba(igraph
Edge
p44
(dp45
g7
I1
sg8
I00
sg9
I5
sg10
(lp46
g40
a(igraph
Vertex
p47
(dp48
g14
F0.2857142857142857
sg8
I00
sg15
g16
sg17
F-266.0
sg18
F71.0
sg19
I5938935
sg20
S'14405.2669392'
p49
sg22
F0.0
sbasg26
I00
sg27
I00
sg28
I5938483
sg20
S'14405.4849195'
p50
sba(igraph
Edge
p51
(dp52
g7
I1
sg8
I00
sg9
I5
sg10
(lp53
g47
a(igraph
Vertex
p54
(dp55
g14
F0.35714285714285721
sg8
I00
sg15
g16
sg17
F-266.0
sg18
F32.999999999999972
sg19
I5938936
sg20
S'14405.26702'
p56
sg22
F0.0
sbasg26
I00
sg27
I00
sg28
I5938484
sg20
S'14405.4850404'
p57
sba(igraph
Edge
p58
(dp59
g7
I1
sg8
I00
sg9
I5
sg10
(lp60
g54
a(igraph
Vertex
p61
(dp62
g14
F0.42857142857142855
sg8
I00
sg15
g16
sg17
F-266.0
sg18
F-5.0
sg19
I5938937
sg20
S'14405.2671194'
p63
sg22
F0.0
sbasg26
I00
sg27
I00
sg28
I5938485
sg20
S'14405.4851843'
p64
sba(igraph
Edge
p65
(dp66
g7
I1
sg8
I00
sg9
I5
sg10
(lp67
g61
a(igraph
Vertex
p68
(dp69
g14
F0.50000000000000011
sg8
I00
sg15
g16
sg17
F-266.0
sg18
F-43.000000000000057
sg19
I5938938
sg20
S'14405.2672312'
p70
sg22
F0.0
sbasg26
I00
sg27
I00
sg28
I5938486
sg20
S'14405.4853483'
p71
sba(igraph
Edge
p72
(dp73
g7
I1
sg8
I00
sg9
I5
sg10
(lp74
g68
a(igraph
Vertex
p75
(dp76
g14
F0.57142857142857162
sg8
I00
sg15
g16
sg17
F-266.0
sg18
F-81.000000000000114
sg19
I5938939
sg20
S'14405.2673586'
p77
sg22
F0.0
sbasg26
I00
sg27
I00
sg28
I5938487
sg20
S'14405.4855346'
p78
sba(igraph
Edge
p79
(dp80
g7
I1
sg8
I00
sg9
I5
sg10
(lp81
g75
a(igraph
Vertex
p82
(dp83
g14
F0.64285714285714279
sg8
I00
sg15
g16
sg17
F-266.0
sg18
F-118.99999999999994
sg19
I5938940
sg20
S'14405.2674996'
p84
sg22
F0.0
sbasg26
I00
sg27
I00
sg28
I5938488
sg20
S'14405.485743'
p85
sba(igraph
Edge
p86
(dp87
g7
I1
sg8
I00
sg9
I5
sg10
(lp88
g82
a(igraph
Vertex
p89
(dp90
g14
F0.71428571428571419
sg8
I00
sg15
g16
sg17
F-266.0
sg18
F-156.99999999999994
sg19
I5938941
sg20
S'14405.2676603'
p91
sg22
F0.0
sbasg26
I00
sg27
I00
sg28
I5938489
sg20
S'14405.4859749'
p92
sba(igraph
Edge
p93
(dp94
g7
I1
sg8
I00
sg9
I5
sg10
(lp95
g89
a(igraph
Vertex
p96
(dp97
g14
F0.78571428571428548
sg8
I00
sg15
g16
sg17
F-266.0
sg18
F-194.99999999999989
sg19
I5938942
sg20
S'14405.2678352'
p98
sg22
F0.0
sbasg26
I00
sg27
I00
sg28
I5938490
sg20
S'14405.4862274'
p99
sba(igraph
Edge
p100
(dp101
g7
I1
sg8
I00
sg9
I5
sg10
(lp102
g96
a(igraph
Vertex
p103
(dp104
g14
F0.85714285714285698
sg8
I00
sg15
g16
sg17
F-266.0
sg18
F-232.99999999999994
sg19
I5938943
sg20
S'14405.2680243'
p105
sg22
F0.0
sbasg26
I00
sg27
I00
sg28
I5938491
sg20
S'14405.4865007'
p106
sba(igraph
Edge
p107
(dp108
g7
I1
sg8
I00
sg9
I5
sg10
(lp109
g103
a(igraph
Vertex
p110
(dp111
g14
F0.92857142857142849
sg8
I00
sg15
g16
sg17
F-266.0
sg18
F-270.99999999999994
sg19
I5938944
sg20
S'14405.2682307'
p112
sg22
F0.0
sbasg26
I00
sg27
I00
sg28
I5938492
sg20
S'14405.4867957'
p113
sba(igraph
Edge
p114
(dp115
g7
I1
sg8
I00
sg9
I5
sg10
(lp116
g110
a(igraph
Vertex
p117
(dp118
g14
F1.0
sg8
I00
sg15
g16
sg17
F-266.0
sg18
F-309.0
sg19
I5938945
sg20
S'14405.2684517'
p119
sg22
F0.0
sbasg26
I00
sg27
I00
sg28
I5938493
sg20
S'14405.4871114'
p120
sba(igraph
Edge
p121
(dp122
g7
I1
sg8
I00
sg9
I5
sg10
(lp123
g117
ag12
asg26
I00
sg27
I00
sg28
I5938494
sg20
S'14405.4874499'
p124
sba(igraph
Edge
p125
(dp126
g7
I1
sg8
I00
sg9
I5
sg10
(lp127
(igraph
Vertex
p128
(dp129
g14
F0.0
sg8
I00
sg15
g16
sg17
F-216.0
sg18
F223.0
sg19
I5938946
sg20
S'14405.2688403'
p130
sg22
F0.1111111111111111
sba(igraph
Vertex
p131
(dp132
g14
F0.071428571428571425
sg8
I00
sg15
g16
sg17
F-216.0
sg18
F185.0
sg19
I5938947
sg20
S'14405.2691001'
p133
sg22
F0.1111111111111111
sbasg26
I00
sg27
I00
sg28
I5938495
sg20
S'14405.4878092'
p134
sba(igraph
Edge
p135
(dp136
g7
I1
sg8
I00
sg9
I5
sg10
(lp137
g131
a(igraph
Vertex
p138
(dp139
g14
F0.14285714285714285
sg8
I00
sg15
g16
sg17
F-216.0
sg18
F147.0
sg19
I5938948
sg20
S'14405.2693736'
p140
sg22
F0.1111111111111111
sbasg26
I00
sg27
I00
sg28
I5938496
sg20
S'14405.48819'
p141
sba(igraph
Edge
p142
(dp143
g7
I1
sg8
I00
sg9
I5
sg10
(lp144
g138
a(igraph
Vertex
p145
(dp146
g14
F0.21428571428571436
sg8
I00
sg15
g16
sg17
F-216.0
sg18
F108.99999999999996
sg19
I5938949
sg20
S'14405.2696642'
p147
sg22
F0.1111111111111111
sbasg26
I00
sg27
I00
sg28
I5938497
sg20
S'14405.4885937'
p148
sba(igraph
Edge
p149
(dp150
g7
I1
sg8
I00
sg9
I5
sg10
(lp151
g145
a(igraph
Vertex
p152
(dp153
g14
F0.2857142857142857
sg8
I00
sg15
I0
sg17
F-216.0
sg18
F71.0
sg19
I5938950
sg20
S'14405.2699731'
p154
sg22
F0.1111111111111111
sbasg26
I00
sg27
I00
sg28
I5938498
sg20
S'14405.4890177'
p155
sba(igraph
Edge
p156
(dp157
g7
I1
sg8
I00
sg9
I5
sg10
(lp158
g152
a(igraph
Vertex
p159
(dp160
g14
F0.35714285714285721
sg8
I00
sg15
g16
sg17
F-216.0
sg18
F32.999999999999972
sg19
I5938952
sg20
S'14405.2702969'
p161
sg22
F0.1111111111111111
sbasg26
I00
sg27
I00
sg28
I5938499
sg20
S'14405.4894628'
p162
sba(igraph
Edge
p163
(dp164
g7
I1
sg8
I00
sg9
I5
sg10
(lp165
g159
a(igraph
Vertex
p166
(dp167
g14
F0.42857142857142855
sg8
I00
sg15
g16
sg17
F-216.0
sg18
F-5.0
sg19
I5938953
sg20
S'14405.2706313'
p168
sg22
F0.1111111111111111
sbasg26
I00
sg27
I00
sg28
I5938500
sg20
S'14405.4899293'
p169
sba(igraph
Edge
p170
(dp171
g7
I1
sg8
I00
sg9
I5
sg10
(lp172
g166
a(igraph
Vertex
p173
(dp174
g14
F0.50000000000000011
sg8
I00
sg15
g16
sg17
F-216.0
sg18
F-43.000000000000057
sg19
I5938954
sg20
S'14405.270987'
p175
sg22
F0.1111111111111111
sbasg26
I00
sg27
I00
sg28
I5938501
sg20
S'14405.4904162'
p176
sba(igraph
Edge
p177
(dp178
g7
I1
sg8
I00
sg9
I5
sg10
(lp179
g173
a(igraph
Vertex
p180
(dp181
g14
F0.57142857142857162
sg8
I00
sg15
g16
sg17
F-216.0
sg18
F-81.000000000000114
sg19
I5938955
sg20
S'14405.2713546'
p182
sg22
F0.1111111111111111
sbasg26
I00
sg27
I00
sg28
I5938502
sg20
S'14405.490925'
p183
sba(igraph
Edge
p184
(dp185
g7
I1
sg8
I00
sg9
I5
sg10
(lp186
g180
a(igraph
Vertex
p187
(dp188
g14
F0.64285714285714279
sg8
I00
sg15
g16
sg17
F-216.0
sg18
F-118.99999999999994
sg19
I5938956
sg20
S'14405.2717398'
p189
sg22
F0.1111111111111111
sbasg26
I00
sg27
I00
sg28
I5938503
sg20
S'14405.4914558'
p190
sba(igraph
Edge
p191
(dp192
g7
I1
sg8
I00
sg9
I5
sg10
(lp193
g187
a(igraph
Vertex
p194
(dp195
g14
F0.71428571428571419
sg8
I00
sg15
g16
sg17
F-216.0
sg18
F-156.99999999999994
sg19
I5938957
sg20
S'14405.2721432'
p196
sg22
F0.1111111111111111
sbasg26
I00
sg27
I00
sg28
I5938504
sg20
S'14405.4920086'
p197
sba(igraph
Edge
p198
(dp199
g7
I1
sg8
I00
sg9
I5
sg10
(lp200
g194
a(igraph
Vertex
p201
(dp202
g14
F0.78571428571428548
sg8
I00
sg15
g16
sg17
F-216.0
sg18
F-194.99999999999989
sg19
I5938958
sg20
S'14405.2725595'
p203
sg22
F0.1111111111111111
sbasg26
I00
sg27
I00
sg28
I5938505
sg20
S'14405.4925836'
p204
sba(igraph
Edge
p205
(dp206
g7
I1
sg8
I00
sg9
I5
sg10
(lp207
g201
a(igraph
Vertex
p208
(dp209
g14
F0.85714285714285698
sg8
I00
sg15
g16
sg17
F-216.0
sg18
F-232.99999999999994
sg19
I5938959
sg20
S'14405.2729917'
p210
sg22
F0.1111111111111111
sbasg26
I00
sg27
I00
sg28
I5938506
sg20
S'14405.4931806'
p211
sba(igraph
Edge
p212
(dp213
g7
I1
sg8
I00
sg9
I5
sg10
(lp214
g208
a(igraph
Vertex
p215
(dp216
g14
F0.92857142857142849
sg8
I00
sg15
g16
sg17
F-216.0
sg18
F-270.99999999999994
sg19
I5938960
sg20
S'14405.2734378'
p217
sg22
F0.1111111111111111
sbasg26
I00
sg27
I00
sg28
I5938507
sg20
S'14405.4938002'
p218
sba(igraph
Edge
p219
(dp220
g7
I1
sg8
I00
sg9
I5
sg10
(lp221
g215
a(igraph
Vertex
p222
(dp223
g14
F1.0
sg8
I00
sg15
g16
sg17
F-216.0
sg18
F-309.0
sg19
I5938961
sg20
S'14405.2748564'
p224
sg22
F0.1111111111111111
sbasg26
I00
sg27
I00
sg28
I5938508
sg20
S'14405.4944397'
p225
sba(igraph
Edge
p226
(dp227
g7
I1
sg8
I00
sg9
I5
sg10
(lp228
g222
ag128
asg26
I00
sg27
I00
sg28
I5938509
sg20
S'14405.4950998'
p229
sba(igraph
Edge
p230
(dp231
g7
I1
sg8
I00
sg9
I5
sg10
(lp232
(igraph
Vertex
p233
(dp234
g14
F0.0
sg8
I00
sg15
g16
sg17
F-166.0
sg18
F223.0
sg19
I5938962
sg20
S'14405.2753579'
p235
sg22
F0.22222222222222221
sba(igraph
Vertex
p236
(dp237
g14
F0.071428571428571425
sg8
I00
sg15
g16
sg17
F-166.0
sg18
F185.0
sg19
I5938963
sg20
S'14405.275868'
p238
sg22
F0.22222222222222221
sbasg26
I00
sg27
I00
sg28
I5938510
sg20
S'14405.4958326'
p239
sba(igraph
Edge
p240
(dp241
g7
I1
sg8
I00
sg9
I5
sg10
(lp242
g236
a(igraph
Vertex
p243
(dp244
g14
F0.14285714285714285
sg8
I00
sg15
g16
sg17
F-166.0
sg18
F147.0
sg19
I5938964
sg20
S'14405.2763874'
p245
sg22
F0.22222222222222221
sbasg26
I00
sg27
I00
sg28
I5938511
sg20
S'14405.4965645'
p246
sba(igraph
Edge
p247
(dp248
g7
I1
sg8
I00
sg9
I5
sg10
(lp249
g243
a(igraph
Vertex
p250
(dp251
g14
F0.21428571428571436
sg8
I00
sg15
I0
sg17
F-166.0
sg18
F108.99999999999996
sg19
I5938965
sg20
S'14405.2769304'
p252
sg22
F0.22222222222222221
sbasg26
I00
sg27
I00
sg28
I5938512
sg20
S'14405.4973031'
p253
sba(igraph
Edge
p254
(dp255
g7
I1
sg8
I00
sg9
I5
sg10
(lp256
g250
a(igraph
Vertex
p257
(dp258
g14
F0.2857142857142857
sg8
I00
sg15
g16
sg17
F-166.0
sg18
F71.0
sg19
I5938967
sg20
S'14405.2774869'
p259
sg22
F0.22222222222222221
sbasg26
I00
sg27
I00
sg28
I5938513
sg20
S'14405.4981153'
p260
sba(igraph
Edge
p261
(dp262
g7
I1
sg8
I00
sg9
I5
sg10
(lp263
g257
a(igraph
Vertex
p264
(dp265
g14
F0.35714285714285721
sg8
I00
sg15
g16
sg17
F-166.0
sg18
F32.999999999999972
sg19
I5938968
sg20
S'14405.2780493'
p266
sg22
F0.22222222222222221
sbasg26
I00
sg27
I00
sg28
I5938514
sg20
S'14405.4989101'
p267
sba(igraph
Edge
p268
(dp269
g7
I1
sg8
I00
sg9
I5
sg10
(lp270
g264
a(igraph
Vertex
p271
(dp272
g14
F0.42857142857142855
sg8
I00
sg15
g16
sg17
F-166.0
sg18
F-5.0
sg19
I5938969
sg20
S'14405.278648'
p273
sg22
F0.22222222222222221
sbasg26
I00
sg27
I00
sg28
I5938515
sg20
S'14405.499799'
p274
sba(igraph
Edge
p275
(dp276
g7
I1
sg8
I00
sg9
I5
sg10
(lp277
g271
a(igraph
Vertex
p278
(dp279
g14
F0.50000000000000011
sg8
I00
sg15
g16
sg17
F-166.0
sg18
F-43.000000000000057
sg19
I5938970
sg20
S'14405.2792631'
p280
sg22
F0.22222222222222221
sbasg26
I00
sg27
I00
sg28
I5938516
sg20
S'14405.5006337'
p281
sba(igraph
Edge
p282
(dp283
g7
I1
sg8
I00
sg9
I5
sg10
(lp284
g278
a(igraph
Vertex
p285
(dp286
g14
F0.57142857142857162
sg8
I00
sg15
g16
sg17
F-166.0
sg18
F-81.000000000000114
sg19
I5938971
sg20
S'14405.2798769'
p287
sg22
F0.22222222222222221
sbasg26
I00
sg27
I00
sg28
I5938517
sg20
S'14405.5014741'
p288
sba(igraph
Edge
p289
(dp290
g7
I1
sg8
I00
sg9
I5
sg10
(lp291
g285
a(igraph
Vertex
p292
(dp293
g14
F0.64285714285714279
sg8
I00
sg15
g16
sg17
F-166.0
sg18
F-118.99999999999994
sg19
I5938972
sg20
S'14405.2805871'
p294
sg22
F0.22222222222222221
sbasg26
I00
sg27
I00
sg28
I5938518
sg20
S'14405.5023362'
p295
sba(igraph
Edge
p296
(dp297
g7
I1
sg8
I00
sg9
I5
sg10
(lp298
g292
a(igraph
Vertex
p299
(dp300
g14
F0.71428571428571419
sg8
I00
sg15
g16
sg17
F-166.0
sg18
F-156.99999999999994
sg19
I5938973
sg20
S'14405.2812399'
p301
sg22
F0.22222222222222221
sbasg26
I00
sg27
I00
sg28
I5938519
sg20
S'14405.5032215'
p302
sba(igraph
Edge
p303
(dp304
g7
I1
sg8
I00
sg9
I5
sg10
(lp305
g299
a(igraph
Vertex
p306
(dp307
g14
F0.78571428571428548
sg8
I00
sg15
g16
sg17
F-166.0
sg18
F-194.99999999999989
sg19
I5938974
sg20
S'14405.2818992'
p308
sg22
F0.22222222222222221
sbasg26
I00
sg27
I00
sg28
I5938520
sg20
S'14405.5041238'
p309
sba(igraph
Edge
p310
(dp311
g7
I1
sg8
I00
sg9
I5
sg10
(lp312
g306
a(igraph
Vertex
p313
(dp314
g14
F0.85714285714285698
sg8
I00
sg15
g16
sg17
F-166.0
sg18
F-232.99999999999994
sg19
I5938975
sg20
S'14405.2825761'
p315
sg22
F0.22222222222222221
sbasg26
I00
sg27
I00
sg28
I5938521
sg20
S'14405.5050508'
p316
sba(igraph
Edge
p317
(dp318
g7
I1
sg8
I00
sg9
I5
sg10
(lp319
g313
a(igraph
Vertex
p320
(dp321
g14
F0.92857142857142849
sg8
I00
sg15
g16
sg17
F-166.0
sg18
F-270.99999999999994
sg19
I5938976
sg20
S'14405.2832695'
p322
sg22
F0.22222222222222221
sbasg26
I00
sg27
I00
sg28
I5938522
sg20
S'14405.5059987'
p323
sba(igraph
Edge
p324
(dp325
g7
I1
sg8
I00
sg9
I5
sg10
(lp326
g320
a(igraph
Vertex
p327
(dp328
g14
F1.0
sg8
I00
sg15
g16
sg17
F-166.0
sg18
F-309.0
sg19
I5938977
sg20
S'14405.2839839'
p329
sg22
F0.22222222222222221
sbasg26
I00
sg27
I00
sg28
I5938523
sg20
S'14405.5070572'
p330
sba(igraph
Edge
p331
(dp332
g7
I1
sg8
I00
sg9
I5
sg10
(lp333
g327
ag233
asg26
I00
sg27
I00
sg28
I5938524
sg20
S'14405.5080517'
p334
sba(igraph
Edge
p335
(dp336
g7
I1
sg8
I00
sg9
I5
sg10
(lp337
(igraph
Vertex
p338
(dp339
g14
F0.0
sg8
I00
sg15
g16
sg17
F-116.0
sg18
F223.0
sg19
I5938978
sg20
S'14405.2847432'
p340
sg22
F0.33333333333333331
sba(igraph
Vertex
p341
(dp342
g14
F0.071428571428571425
sg8
I00
sg15
g16
sg17
F-116.0
sg18
F185.0
sg19
I5938979
sg20
S'14405.2854871'
p343
sg22
F0.33333333333333331
sbasg26
I00
sg27
I00
sg28
I5938525
sg20
S'14405.5090641'
p344
sba(igraph
Edge
p345
(dp346
g7
I1
sg8
I00
sg9
I5
sg10
(lp347
g341
a(igraph
Vertex
p348
(dp349
g14
F0.14285714285714285
sg8
I00
sg15
g16
sg17
F-116.0
sg18
F147.0
sg19
I5938980
sg20
S'14405.2863068'
p350
sg22
F0.33333333333333331
sbasg26
I00
sg27
I00
sg28
I5938526
sg20
S'14405.5100978'
p351
sba(igraph
Edge
p352
(dp353
g7
I1
sg8
I00
sg9
I5
sg10
(lp354
g348
a(igraph
Vertex
p355
(dp356
g14
F0.21428571428571436
sg8
I00
sg15
g16
sg17
F-116.0
sg18
F108.99999999999996
sg19
I5938981
sg20
S'14405.2870753'
p357
sg22
F0.33333333333333331
sbasg26
I00
sg27
I00
sg28
I5938527
sg20
S'14405.5111532'
p358
sba(igraph
Edge
p359
(dp360
g7
I1
sg8
I00
sg9
I5
sg10
(lp361
g355
a(igraph
Vertex
p362
(dp363
g14
F0.2857142857142857
sg8
I00
sg15
g16
sg17
F-116.0
sg18
F71.0
sg19
I5938982
sg20
S'14405.2878698'
p364
sg22
F0.33333333333333331
sbasg26
I00
sg27
I00
sg28
I5938528
sg20
S'14405.5122302'
p365
sba(igraph
Edge
p366
(dp367
g7
I1
sg8
I00
sg9
I5
sg10
(lp368
g362
a(igraph
Vertex
p369
(dp370
g14
F0.35714285714285721
sg8
I00
sg15
I0
sg17
F-116.0
sg18
F32.999999999999972
sg19
I5938983
sg20
S'14405.2886764'
p371
sg22
F0.33333333333333331
sbasg26
I00
sg27
I00
sg28
I5938529
sg20
S'14405.5133703'
p372
sba(igraph
Edge
p373
(dp374
g7
I1
sg8
I00
sg9
I5
sg10
(lp375
g369
a(igraph
Vertex
p376
(dp377
g14
F0.42857142857142855
sg8
I00
sg15
g16
sg17
F-116.0
sg18
F-5.0
sg19
I5938985
sg20
S'14405.2897497'
p378
sg22
F0.33333333333333331
sbasg26
I00
sg27
I00
sg28
I5938530
sg20
S'14405.514488'
p379
sba(igraph
Edge
p380
(dp381
g7
I1
sg8
I00
sg9
I5
sg10
(lp382
g376
a(igraph
Vertex
p383
(dp384
g14
F0.50000000000000011
sg8
I00
sg15
g16
sg17
F-116.0
sg18
F-43.000000000000057
sg19
I5938986
sg20
S'14405.2906576'
p385
sg22
F0.33333333333333331
sbasg26
I00
sg27
I00
sg28
I5938531
sg20
S'14405.515625'
p386
sba(igraph
Edge
p387
(dp388
g7
I1
sg8
I00
sg9
I5
sg10
(lp389
g383
a(igraph
Vertex
p390
(dp391
g14
F0.57142857142857162
sg8
I00
sg15
g16
sg17
F-116.0
sg18
F-81.000000000000114
sg19
I5938987
sg20
S'14405.2915798'
p392
sg22
F0.33333333333333331
sbasg26
I00
sg27
I00
sg28
I5938532
sg20
S'14405.5167841'
p393
sba(igraph
Edge
p394
(dp395
g7
I1
sg8
I00
sg9
I5
sg10
(lp396
g390
a(igraph
Vertex
p397
(dp398
g14
F0.64285714285714279
sg8
I00
sg15
g16
sg17
F-116.0
sg18
F-118.99999999999994
sg19
I5938988
sg20
S'14405.2926995'
p399
sg22
F0.33333333333333331
sbasg26
I00
sg27
I00
sg28
I5938533
sg20
S'14405.5179661'
p400
sba(igraph
Edge
p401
(dp402
g7
I1
sg8
I00
sg9
I5
sg10
(lp403
g397
a(igraph
Vertex
p404
(dp405
g14
F0.71428571428571419
sg8
I00
sg15
g16
sg17
F-116.0
sg18
F-156.99999999999994
sg19
I5938989
sg20
S'14405.2936549'
p406
sg22
F0.33333333333333331
sbasg26
I00
sg27
I00
sg28
I5938534
sg20
S'14405.5192146'
p407
sba(igraph
Edge
p408
(dp409
g7
I1
sg8
I00
sg9
I5
sg10
(lp410
g404
a(igraph
Vertex
p411
(dp412
g14
F0.78571428571428548
sg8
I00
sg15
g16
sg17
F-116.0
sg18
F-194.99999999999989
sg19
I5938990
sg20
S'14405.2946212'
p413
sg22
F0.33333333333333331
sbasg26
I00
sg27
I00
sg28
I5938535
sg20
S'14405.5204759'
p414
sba(igraph
Edge
p415
(dp416
g7
I1
sg8
I00
sg9
I5
sg10
(lp417
g411
a(igraph
Vertex
p418
(dp419
g14
F0.85714285714285698
sg8
I00
sg15
g16
sg17
F-116.0
sg18
F-232.99999999999994
sg19
I5938991
sg20
S'14405.2967559'
p420
sg22
F0.33333333333333331
sbasg26
I00
sg27
I00
sg28
I5938536
sg20
S'14405.5217613'
p421
sba(igraph
Edge
p422
(dp423
g7
I1
sg8
I00
sg9
I5
sg10
(lp424
g418
a(igraph
Vertex
p425
(dp426
g14
F0.92857142857142849
sg8
I00
sg15
g16
sg17
F-116.0
sg18
F-270.99999999999994
sg19
I5938992
sg20
S'14405.2977605'
p427
sg22
F0.33333333333333331
sbasg26
I00
sg27
I00
sg28
I5938537
sg20
S'14405.523052'
p428
sba(igraph
Edge
p429
(dp430
g7
I1
sg8
I00
sg9
I5
sg10
(lp431
g425
a(igraph
Vertex
p432
(dp433
g14
F1.0
sg8
I00
sg15
g16
sg17
F-116.0
sg18
F-309.0
sg19
I5938993
sg20
S'14405.2988863'
p434
sg22
F0.33333333333333331
sbasg26
I00
sg27
I00
sg28
I5938538
sg20
S'14405.524346'
p435
sba(igraph
Edge
p436
(dp437
g7
I1
sg8
I00
sg9
I5
sg10
(lp438
g432
ag338
asg26
I00
sg27
I00
sg28
I5938539
sg20
S'14405.5256601'
p439
sba(igraph
Edge
p440
(dp441
g7
I1
sg8
I00
sg9
I5
sg10
(lp442
(igraph
Vertex
p443
(dp444
g14
F0.0
sg8
I00
sg15
g16
sg17
F-66.0
sg18
F223.0
sg19
I5938994
sg20
S'14405.2999191'
p445
sg22
F0.44444444444444442
sba(igraph
Vertex
p446
(dp447
g14
F0.071428571428571425
sg8
I00
sg15
g16
sg17
F-66.0
sg18
F185.0
sg19
I5938995
sg20
S'14405.3009712'
p448
sg22
F0.44444444444444442
sbasg26
I00
sg27
I00
sg28
I5938540
sg20
S'14405.5269969'
p449
sba(igraph
Edge
p450
(dp451
g7
I1
sg8
I00
sg9
I5
sg10
(lp452
g446
a(igraph
Vertex
p453
(dp454
g14
F0.14285714285714285
sg8
I00
sg15
g16
sg17
F-66.0
sg18
F147.0
sg19
I5938996
sg20
S'14405.3020417'
p455
sg22
F0.44444444444444442
sbasg26
I00
sg27
I00
sg28
I5938541
sg20
S'14405.5283739'
p456
sba(igraph
Edge
p457
(dp458
g7
I1
sg8
I00
sg9
I5
sg10
(lp459
g453
a(igraph
Vertex
p460
(dp461
g14
F0.21428571428571436
sg8
I00
sg15
g16
sg17
F-66.0
sg18
F108.99999999999996
sg19
I5938997
sg20
S'14405.3031223'
p462
sg22
F0.44444444444444442
sbasg26
I00
sg27
I00
sg28
I5938542
sg20
S'14405.5297967'
p463
sba(igraph
Edge
p464
(dp465
g7
I1
sg8
I00
sg9
I5
sg10
(lp466
g460
a(igraph
Vertex
p467
(dp468
g14
F0.2857142857142857
sg8
I00
sg15
g16
sg17
F-66.0
sg18
F71.0
sg19
I5938998
sg20
S'14405.3042903'
p469
sg22
F0.44444444444444442
sbasg26
I00
sg27
I00
sg28
I5938543
sg20
S'14405.5312284'
p470
sba(igraph
Edge
p471
(dp472
g7
I1
sg8
I00
sg9
I5
sg10
(lp473
g467
a(igraph
Vertex
p474
(dp475
g14
F0.35714285714285721
sg8
I00
sg15
g16
sg17
F-66.0
sg18
F32.999999999999972
sg19
I5938999
sg20
S'14405.3054134'
p476
sg22
F0.44444444444444442
sbasg26
I00
sg27
I00
sg28
I5938544
sg20
S'14405.5326551'
p477
sba(igraph
Edge
p478
(dp479
g7
I1
sg8
I00
sg9
I5
sg10
(lp480
g474
a(igraph
Vertex
p481
(dp482
g14
F0.42857142857142855
sg8
I00
sg15
g16
sg17
F-66.0
sg18
F-5.0
sg19
I5939000
sg20
S'14405.3065434'
p483
sg22
F0.44444444444444442
sbasg26
I00
sg27
I00
sg28
I5938545
sg20
S'14405.5341017'
p484
sba(igraph
Edge
p485
(dp486
g7
I1
sg8
I00
sg9
I5
sg10
(lp487
g481
a(igraph
Vertex
p488
(dp489
g14
F0.50000000000000011
sg8
I00
sg15
I0
sg17
F-66.0
sg18
F-43.000000000000057
sg19
I5939001
sg20
S'14405.3077031'
p490
sg22
F0.44444444444444442
sbasg26
I00
sg27
I00
sg28
I5938546
sg20
S'14405.5355709'
p491
sba(igraph
Edge
p492
(dp493
g7
I1
sg8
I00
sg9
I5
sg10
(lp494
g488
a(igraph
Vertex
p495
(dp496
g14
F0.57142857142857162
sg8
I00
sg15
g16
sg17
F-66.0
sg18
F-81.000000000000114
sg19
I5939003
sg20
S'14405.3088826'
p497
sg22
F0.44444444444444442
sbasg26
I00
sg27
I00
sg28
I5938547
sg20
S'14405.5371004'
p498
sba(igraph
Edge
p499
(dp500
g7
I1
sg8
I00
sg9
I5
sg10
(lp501
g495
a(igraph
Vertex
p502
(dp503
g14
F0.64285714285714279
sg8
I00
sg15
g16
sg17
F-66.0
sg18
F-118.99999999999994
sg19
I5939004
sg20
S'14405.3101405'
p504
sg22
F0.44444444444444442
sbasg26
I00
sg27
I00
sg28
I5938548
sg20
S'14405.5386162'
p505
sba(igraph
Edge
p506
(dp507
g7
I1
sg8
I00
sg9
I5
sg10
(lp508
g502
a(igraph
Vertex
p509
(dp510
g14
F0.71428571428571419
sg8
I00
sg15
g16
sg17
F-66.0
sg18
F-156.99999999999994
sg19
I5939005
sg20
S'14405.3114826'
p511
sg22
F0.44444444444444442
sbasg26
I00
sg27
I00
sg28
I5938549
sg20
S'14405.5401597'
p512
sba(igraph
Edge
p513
(dp514
g7
I1
sg8
I00
sg9
I5
sg10
(lp515
g509
a(igraph
Vertex
p516
(dp517
g14
F0.78571428571428548
sg8
I00
sg15
g16
sg17
F-66.0
sg18
F-194.99999999999989
sg19
I5939006
sg20
S'14405.3127174'
p518
sg22
F0.44444444444444442
sbasg26
I00
sg27
I00
sg28
I5938550
sg20
S'14405.5417303'
p519
sba(igraph
Edge
p520
(dp521
g7
I1
sg8
I00
sg9
I5
sg10
(lp522
g516
a(igraph
Vertex
p523
(dp524
g14
F0.85714285714285698
sg8
I00
sg15
g16
sg17
F-66.0
sg18
F-232.99999999999994
sg19
I5939007
sg20
S'14405.313972'
p525
sg22
F0.44444444444444442
sbasg26
I00
sg27
I00
sg28
I5938551
sg20
S'14405.5433428'
p526
sba(igraph
Edge
p527
(dp528
g7
I1
sg8
I00
sg9
I5
sg10
(lp529
g523
a(igraph
Vertex
p530
(dp531
g14
F0.92857142857142849
sg8
I00
sg15
g16
sg17
F-66.0
sg18
F-270.99999999999994
sg19
I5939008
sg20
S'14405.3152443'
p532
sg22
F0.44444444444444442
sbasg26
I00
sg27
I00
sg28
I5938552
sg20
S'14405.5449472'
p533
sba(igraph
Edge
p534
(dp535
g7
I1
sg8
I00
sg9
I5
sg10
(lp536
g530
a(igraph
Vertex
p537
(dp538
g14
F1.0
sg8
I00
sg15
g16
sg17
F-66.0
sg18
F-309.0
sg19
I5939009
sg20
S'14405.3166872'
p539
sg22
F0.44444444444444442
sbasg26
I00
sg27
I00
sg28
I5938553
sg20
S'14405.5465753'
p540
sba(igraph
Edge
p541
(dp542
g7
I1
sg8
I00
sg9
I5
sg10
(lp543
g537
ag443
asg26
I00
sg27
I00
sg28
I5938554
sg20
S'14405.5482253'
p544
sba(igraph
Edge
p545
(dp546
g7
I1
sg8
I00
sg9
I5
sg10
(lp547
(igraph
Vertex
p548
(dp549
g14
F0.0
sg8
I00
sg15
g16
sg17
F-16.0
sg18
F223.0
sg19
I5939010
sg20
S'14405.3179932'
p550
sg22
F0.55555555555555558
sba(igraph
Vertex
p551
(dp552
g14
F0.071428571428571425
sg8
I00
sg15
g16
sg17
F-16.0
sg18
F185.0
sg19
I5939011
sg20
S'14405.3193132'
p553
sg22
F0.55555555555555558
sbasg26
I00
sg27
I00
sg28
I5938555
sg20
S'14405.5498956'
p554
sba(igraph
Edge
p555
(dp556
g7
I1
sg8
I00
sg9
I5
sg10
(lp557
g551
a(igraph
Vertex
p558
(dp559
g14
F0.14285714285714285
sg8
I00
sg15
g16
sg17
F-16.0
sg18
F147.0
sg19
I5939012
sg20
S'14405.3278378'
p560
sg22
F0.55555555555555558
sbasg26
I00
sg27
I00
sg28
I5938556
sg20
S'14405.5515832'
p561
sba(igraph
Edge
p562
(dp563
g7
I1
sg8
I00
sg9
I5
sg10
(lp564
g558
a(igraph
Vertex
p565
(dp566
g14
F0.21428571428571436
sg8
I00
sg15
g16
sg17
F-16.0
sg18
F108.99999999999996
sg19
I5939013
sg20
S'14405.3292237'
p567
sg22
F0.55555555555555558
sbasg26
I00
sg27
I00
sg28
I5938557
sg20
S'14405.553296'
p568
sba(igraph
Edge
p569
(dp570
g7
I1
sg8
I00
sg9
I5
sg10
(lp571
g565
a(igraph
Vertex
p572
(dp573
g14
F0.2857142857142857
sg8
I00
sg15
g16
sg17
F-16.0
sg18
F71.0
sg19
I5939014
sg20
S'14405.3306026'
p574
sg22
F0.55555555555555558
sbasg26
I00
sg27
I00
sg28
I5938558
sg20
S'14405.5550264'
p575
sba(igraph
Edge
p576
(dp577
g7
I1
sg8
I00
sg9
I5
sg10
(lp578
g572
a(igraph
Vertex
p579
(dp580
g14
F0.35714285714285721
sg8
I00
sg15
g16
sg17
F-16.0
sg18
F32.999999999999972
sg19
I5939015
sg20
S'14405.3320076'
p581
sg22
F0.55555555555555558
sbasg26
I00
sg27
I00
sg28
I5938559
sg20
S'14405.5567811'
p582
sba(igraph
Edge
p583
(dp584
g7
I1
sg8
I00
sg9
I5
sg10
(lp585
g579
a(igraph
Vertex
p586
(dp587
g14
F0.42857142857142855
sg8
I00
sg15
g16
sg17
F-16.0
sg18
F-5.0
sg19
I5939016
sg20
S'14405.3345713'
p588
sg22
F0.55555555555555558
sbasg26
I00
sg27
I00
sg28
I5938560
sg20
S'14405.558619'
p589
sba(igraph
Edge
p590
(dp591
g7
I1
sg8
I00
sg9
I5
sg10
(lp592
g586
a(igraph
Vertex
p593
(dp594
g14
F0.50000000000000011
sg8
I00
sg15
g16
sg17
F-16.0
sg18
F-43.000000000000057
sg19
I5939017
sg20
S'14405.3360609'
p595
sg22
F0.55555555555555558
sbasg26
I00
sg27
I00
sg28
I5938561
sg20
S'14405.5604061'
p596
sba(igraph
Edge
p597
(dp598
g7
I1
sg8
I00
sg9
I5
sg10
(lp599
g593
a(igraph
Vertex
p600
(dp601
g14
F0.57142857142857162
sg8
I00
sg15
g16
sg17
F-16.0
sg18
F-81.000000000000114
sg19
I5939018
sg20
S'14405.3430481'
p602
sg22
F0.55555555555555558
sbasg26
I00
sg27
I00
sg28
I5938562
sg20
S'14405.5622108'
p603
sba(igraph
Edge
p604
(dp605
g7
I1
sg8
I00
sg9
I5
sg10
(lp606
g600
a(igraph
Vertex
p607
(dp608
g14
F0.64285714285714279
sg8
I00
sg15
I0
sg17
F-16.0
sg18
F-118.99999999999994
sg19
I5939019
sg20
S'14405.3445555'
p609
sg22
F0.55555555555555558
sbasg26
I00
sg27
I00
sg28
I5938563
sg20
S'14405.5640384'
p610
sba(igraph
Edge
p611
(dp612
g7
I1
sg8
I00
sg9
I5
sg10
(lp613
g607
a(igraph
Vertex
p614
(dp615
g14
F0.71428571428571419
sg8
I00
sg15
g16
sg17
F-16.0
sg18
F-156.99999999999994
sg19
I5939021
sg20
S'14405.3461499'
p616
sg22
F0.55555555555555558
sbasg26
I00
sg27
I00
sg28
I5938564
sg20
S'14405.5659258'
p617
sba(igraph
Edge
p618
(dp619
g7
I1
sg8
I00
sg9
I5
sg10
(lp620
g614
a(igraph
Vertex
p621
(dp622
g14
F0.78571428571428548
sg8
I00
sg15
g16
sg17
F-16.0
sg18
F-194.99999999999989
sg19
I5939022
sg20
S'14405.3477015'
p623
sg22
F0.55555555555555558
sbasg26
I00
sg27
I00
sg28
I5938565
sg20
S'14405.5678694'
p624
sba(igraph
Edge
p625
(dp626
g7
I1
sg8
I00
sg9
I5
sg10
(lp627
g621
a(igraph
Vertex
p628
(dp629
g14
F0.85714285714285698
sg8
I00
sg15
g16
sg17
F-16.0
sg18
F-232.99999999999994
sg19
I5939023
sg20
S'14405.355465'
p630
sg22
F0.55555555555555558
sbasg26
I00
sg27
I00
sg28
I5938566
sg20
S'14405.5698076'
p631
sba(igraph
Edge
p632
(dp633
g7
I1
sg8
I00
sg9
I5
sg10
(lp634
g628
a(igraph
Vertex
p635
(dp636
g14
F0.92857142857142849
sg8
I00
sg15
g16
sg17
F-16.0
sg18
F-270.99999999999994
sg19
I5939024
sg20
S'14405.3571554'
p637
sg22
F0.55555555555555558
sbasg26
I00
sg27
I00
sg28
I5938567
sg20
S'14405.5719492'
p638
sba(igraph
Edge
p639
(dp640
g7
I1
sg8
I00
sg9
I5
sg10
(lp641
g635
a(igraph
Vertex
p642
(dp643
g14
F1.0
sg8
I00
sg15
g16
sg17
F-16.0
sg18
F-309.0
sg19
I5939025
sg20
S'14405.3587327'
p644
sg22
F0.55555555555555558
sbasg26
I00
sg27
I00
sg28
I5938568
sg20
S'14405.5738936'
p645
sba(igraph
Edge
p646
(dp647
g7
I1
sg8
I00
sg9
I5
sg10
(lp648
g642
ag548
asg26
I00
sg27
I00
sg28
I5938569
sg20
S'14405.5759419'
p649
sba(igraph
Edge
p650
(dp651
g7
I1
sg8
I00
sg9
I5
sg10
(lp652
(igraph
Vertex
p653
(dp654
g14
F0.0
sg8
I00
sg15
g16
sg17
F34.0
sg18
F223.0
sg19
I5939026
sg20
S'14405.3608319'
p655
sg22
F0.66666666666666663
sba(igraph
Vertex
p656
(dp657
g14
F0.071428571428571425
sg8
I00
sg15
g16
sg17
F34.0
sg18
F185.0
sg19
I5939027
sg20
S'14405.3624539'
p658
sg22
F0.66666666666666663
sbasg26
I00
sg27
I00
sg28
I5938570
sg20
S'14405.5779871'
p659
sba(igraph
Edge
p660
(dp661
g7
I1
sg8
I00
sg9
I5
sg10
(lp662
g656
a(igraph
Vertex
p663
(dp664
g14
F0.14285714285714285
sg8
I00
sg15
g16
sg17
F34.0
sg18
F147.0
sg19
I5939028
sg20
S'14405.3640887'
p665
sg22
F0.66666666666666663
sbasg26
I00
sg27
I00
sg28
I5938571
sg20
S'14405.579986'
p666
sba(igraph
Edge
p667
(dp668
g7
I1
sg8
I00
sg9
I5
sg10
(lp669
g663
a(igraph
Vertex
p670
(dp671
g14
F0.21428571428571436
sg8
I00
sg15
g16
sg17
F34.0
sg18
F108.99999999999996
sg19
I5939029
sg20
S'14405.3657571'
p672
sg22
F0.66666666666666663
sbasg26
I00
sg27
I00
sg28
I5938572
sg20
S'14405.5820229'
p673
sba(igraph
Edge
p674
(dp675
g7
I1
sg8
I00
sg9
I5
sg10
(lp676
g670
a(igraph
Vertex
p677
(dp678
g14
F0.2857142857142857
sg8
I00
sg15
g16
sg17
F34.0
sg18
F71.0
sg19
I5939030
sg20
S'14405.369057'
p679
sg22
F0.66666666666666663
sbasg26
I00
sg27
I00
sg28
I5938573
sg20
S'14405.584124'
p680
sba(igraph
Edge
p681
(dp682
g7
I1
sg8
I00
sg9
I5
sg10
(lp683
g677
a(igraph
Vertex
p684
(dp685
g14
F0.35714285714285721
sg8
I00
sg15
g16
sg17
F34.0
sg18
F32.999999999999972
sg19
I5939031
sg20
S'14405.3710491'
p686
sg22
F0.66666666666666663
sbasg26
I00
sg27
I00
sg28
I5938574
sg20
S'14405.5862061'
p687
sba(igraph
Edge
p688
(dp689
g7
I1
sg8
I00
sg9
I5
sg10
(lp690
g684
a(igraph
Vertex
p691
(dp692
g14
F0.42857142857142855
sg8
I00
sg15
g16
sg17
F34.0
sg18
F-5.0
sg19
I5939032
sg20
S'14405.3728502'
p693
sg22
F0.66666666666666663
sbasg26
I00
sg27
I00
sg28
I5938575
sg20
S'14405.5883234'
p694
sba(igraph
Edge
p695
(dp696
g7
I1
sg8
I00
sg9
I5
sg10
(lp697
g691
a(igraph
Vertex
p698
(dp699
g14
F0.50000000000000011
sg8
I00
sg15
g16
sg17
F34.0
sg18
F-43.000000000000057
sg19
I5939033
sg20
S'14405.3746049'
p700
sg22
F0.66666666666666663
sbasg26
I00
sg27
I00
sg28
I5938576
sg20
S'14405.5904655'
p701
sba(igraph
Edge
p702
(dp703
g7
I1
sg8
I00
sg9
I5
sg10
(lp704
g698
a(igraph
Vertex
p705
(dp706
g14
F0.57142857142857162
sg8
I00
sg15
g16
sg17
F34.0
sg18
F-81.000000000000114
sg19
I5939034
sg20
S'14405.3763699'
p707
sg22
F0.66666666666666663
sbasg26
I00
sg27
I00
sg28
I5938577
sg20
S'14405.5926097'
p708
sba(igraph
Edge
p709
(dp710
g7
I1
sg8
I00
sg9
I5
sg10
(lp711
g705
a(igraph
Vertex
p712
(dp713
g14
F0.64285714285714279
sg8
I00
sg15
g16
sg17
F34.0
sg18
F-118.99999999999994
sg19
I5939035
sg20
S'14405.3781444'
p714
sg22
F0.66666666666666663
sbasg26
I00
sg27
I00
sg28
I5938578
sg20
S'14405.5955271'
p715
sba(igraph
Edge
p716
(dp717
g7
I1
sg8
I00
sg9
I5
sg10
(lp718
g712
a(igraph
Vertex
p719
(dp720
g14
F0.71428571428571419
sg8
I00
sg15
g16
sg17
F34.0
sg18
F-156.99999999999994
sg19
I5939036
sg20
S'14405.3818952'
p721
sg22
F0.66666666666666663
sbasg26
I00
sg27
I00
sg28
I5938579
sg20
S'14405.5979869'
p722
sba(igraph
Edge
p723
(dp724
g7
I1
sg8
I00
sg9
I5
sg10
(lp725
g719
a(igraph
Vertex
p726
(dp727
g14
F0.78571428571428548
sg8
I00
sg15
g16
sg17
F34.0
sg18
F-194.99999999999989
sg19
I5939037
sg20
S'14405.3856512'
p728
sg22
F0.66666666666666663
sbasg26
I00
sg27
I00
sg28
I5938580
sg20
S'14405.6002389'
p729
sba(igraph
Edge
p730
(dp731
g7
I1
sg8
I00
sg9
I5
sg10
(lp732
g726
a(igraph
Vertex
p733
(dp734
g14
F0.85714285714285698
sg8
I00
sg15
g16
sg17
F34.0
sg18
F-232.99999999999994
sg19
I5939038
sg20
S'14405.3874987'
p735
sg22
F0.66666666666666663
sbasg26
I00
sg27
I00
sg28
I5938581
sg20
S'14405.6025811'
p736
sba(igraph
Edge
p737
(dp738
g7
I1
sg8
I00
sg9
I5
sg10
(lp739
g733
a(igraph
Vertex
p740
(dp741
g14
F0.92857142857142849
sg8
I00
sg15
g16
sg17
F34.0
sg18
F-270.99999999999994
sg19
I5939039
sg20
S'14405.389357'
p742
sg22
F0.66666666666666663
sbasg26
I00
sg27
I00
sg28
I5938582
sg20
S'14405.6048556'
p743
sba(igraph
Edge
p744
(dp745
g7
I1
sg8
I00
sg9
I5
sg10
(lp746
g740
a(igraph
Vertex
p747
(dp748
g14
F1.0
sg8
I00
sg15
g16
sg17
F34.0
sg18
F-309.0
sg19
I5939040
sg20
S'14405.3915875'
p749
sg22
F0.66666666666666663
sbasg26
I00
sg27
I00
sg28
I5938583
sg20
S'14405.6071733'
p750
sba(igraph
Edge
p751
(dp752
g7
I1
sg8
I00
sg9
I5
sg10
(lp753
g747
ag653
asg26
I00
sg27
I00
sg28
I5938584
sg20
S'14405.6094892'
p754
sba(igraph
Edge
p755
(dp756
g7
I1
sg8
I00
sg9
I5
sg10
(lp757
(igraph
Vertex
p758
(dp759
g14
F0.0
sg8
I00
sg15
g16
sg17
F84.0
sg18
F223.0
sg19
I5939041
sg20
S'14405.3939079'
p760
sg22
F0.77777777777777779
sba(igraph
Vertex
p761
(dp762
g14
F0.071428571428571425
sg8
I00
sg15
g16
sg17
F84.0
sg18
F185.0
sg19
I5939042
sg20
S'14405.3958442'
p763
sg22
F0.77777777777777779
sbasg26
I00
sg27
I00
sg28
I5938585
sg20
S'14405.6118373'
p764
sba(igraph
Edge
p765
(dp766
g7
I1
sg8
I00
sg9
I5
sg10
(lp767
g761
a(igraph
Vertex
p768
(dp769
g14
F0.14285714285714285
sg8
I00
sg15
g16
sg17
F84.0
sg18
F147.0
sg19
I5939043
sg20
S'14405.3987792'
p770
sg22
F0.77777777777777779
sbasg26
I00
sg27
I00
sg28
I5938586
sg20
S'14405.6142026'
p771
sba(igraph
Edge
p772
(dp773
g7
I1
sg8
I00
sg9
I5
sg10
(lp774
g768
a(igraph
Vertex
p775
(dp776
g14
F0.21428571428571436
sg8
I00
sg15
g16
sg17
F84.0
sg18
F108.99999999999996
sg19
I5939044
sg20
S'14405.4016619'
p777
sg22
F0.77777777777777779
sbasg26
I00
sg27
I00
sg28
I5938587
sg20
S'14405.6166147'
p778
sba(igraph
Edge
p779
(dp780
g7
I1
sg8
I00
sg9
I5
sg10
(lp781
g775
a(igraph
Vertex
p782
(dp783
g14
F0.2857142857142857
sg8
I00
sg15
g16
sg17
F84.0
sg18
F71.0
sg19
I5939045
sg20
S'14405.4047604'
p784
sg22
F0.77777777777777779
sbasg26
I00
sg27
I00
sg28
I5938588
sg20
S'14405.619101'
p785
sba(igraph
Edge
p786
(dp787
g7
I1
sg8
I00
sg9
I5
sg10
(lp788
g782
a(igraph
Vertex
p789
(dp790
g14
F0.35714285714285721
sg8
I00
sg15
g16
sg17
F84.0
sg18
F32.999999999999972
sg19
I5939046
sg20
S'14405.4193354'
p791
sg22
F0.77777777777777779
sbasg26
I00
sg27
I00
sg28
I5938589
sg20
S'14405.621534'
p792
sba(igraph
Edge
p793
(dp794
g7
I1
sg8
I00
sg9
I5
sg10
(lp795
g789
a(igraph
Vertex
p796
(dp797
g14
F0.42857142857142855
sg8
I00
sg15
g16
sg17
F84.0
sg18
F-5.0
sg19
I5939047
sg20
S'14405.4204864'
p798
sg22
F0.77777777777777779
sbasg26
I00
sg27
I00
sg28
I5938590
sg20
S'14405.6240614'
p799
sba(igraph
Edge
p800
(dp801
g7
I1
sg8
I00
sg9
I5
sg10
(lp802
g796
a(igraph
Vertex
p803
(dp804
g14
F0.50000000000000011
sg8
I00
sg15
g16
sg17
F84.0
sg18
F-43.000000000000057
sg19
I5939048
sg20
S'14405.4221886'
p805
sg22
F0.77777777777777779
sbasg26
I00
sg27
I00
sg28
I5938591
sg20
S'14405.6265408'
p806
sba(igraph
Edge
p807
(dp808
g7
I1
sg8
I00
sg9
I5
sg10
(lp809
g803
a(igraph
Vertex
p810
(dp811
g14
F0.57142857142857162
sg8
I00
sg15
g16
sg17
F84.0
sg18
F-81.000000000000114
sg19
I5939049
sg20
S'14405.4237413'
p812
sg22
F0.77777777777777779
sbasg26
I00
sg27
I00
sg28
I5938592
sg20
S'14405.6290719'
p813
sba(igraph
Edge
p814
(dp815
g7
I1
sg8
I00
sg9
I5
sg10
(lp816
g810
a(igraph
Vertex
p817
(dp818
g14
F0.64285714285714279
sg8
I00
sg15
g16
sg17
F84.0
sg18
F-118.99999999999994
sg19
I5939050
sg20
S'14405.4255876'
p819
sg22
F0.77777777777777779
sbasg26
I00
sg27
I00
sg28
I5938593
sg20
S'14405.6315998'
p820
sba(igraph
Edge
p821
(dp822
g7
I1
sg8
I00
sg9
I5
sg10
(lp823
g817
a(igraph
Vertex
p824
(dp825
g14
F0.71428571428571419
sg8
I00
sg15
I0
sg17
F84.0
sg18
F-156.99999999999994
sg19
I5939051
sg20
S'14405.4275102'
p826
sg22
F0.77777777777777779
sbasg26
I00
sg27
I00
sg28
I5938594
sg20
S'14405.6341786'
p827
sba(igraph
Edge
p828
(dp829
g7
I1
sg8
I00
sg9
I5
sg10
(lp830
g824
a(igraph
Vertex
p831
(dp832
g14
F0.78571428571428548
sg8
I00
sg15
g16
sg17
F84.0
sg18
F-194.99999999999989
sg19
I5939053
sg20
S'14405.4289487'
p833
sg22
F0.77777777777777779
sbasg26
I00
sg27
I00
sg28
I5938595
sg20
S'14405.6368279'
p834
sba(igraph
Edge
p835
(dp836
g7
I1
sg8
I00
sg9
I5
sg10
(lp837
g831
a(igraph
Vertex
p838
(dp839
g14
F0.85714285714285698
sg8
I00
sg15
g16
sg17
F84.0
sg18
F-232.99999999999994
sg19
I5939054
sg20
S'14405.4305706'
p840
sg22
F0.77777777777777779
sbasg26
I00
sg27
I00
sg28
I5938596
sg20
S'14405.6394128'
p841
sba(igraph
Edge
p842
(dp843
g7
I1
sg8
I00
sg9
I5
sg10
(lp844
g838
a(igraph
Vertex
p845
(dp846
g14
F0.92857142857142849
sg8
I00
sg15
I0
sg17
F84.0
sg18
F-270.99999999999994
sg19
I5939055
sg20
S'14405.4322412'
p847
sg22
F0.77777777777777779
sbasg26
I00
sg27
I00
sg28
I5938597
sg20
S'14405.6420324'
p848
sba(igraph
Edge
p849
(dp850
g7
I1
sg8
I00
sg9
I5
sg10
(lp851
g845
a(igraph
Vertex
p852
(dp853
g14
F1.0
sg8
I00
sg15
g16
sg17
F84.0
sg18
F-309.0
sg19
I5939057
sg20
S'14405.4339881'
p854
sg22
F0.77777777777777779
sbasg26
I00
sg27
I00
sg28
I5938598
sg20
S'14405.6446931'
p855
sba(igraph
Edge
p856
(dp857
g7
I1
sg8
I00
sg9
I5
sg10
(lp858
g852
ag758
asg26
I00
sg27
I00
sg28
I5938599
sg20
S'14405.6474027'
p859
sba(igraph
Edge
p860
(dp861
g7
I1
sg8
I00
sg9
I5
sg10
(lp862
(igraph
Vertex
p863
(dp864
g14
F0.0
sg8
I00
sg15
g16
sg17
F134.0
sg18
F223.0
sg19
I5939058
sg20
S'14405.4356277'
p865
sg22
F0.88888888888888884
sba(igraph
Vertex
p866
(dp867
g14
F0.071428571428571425
sg8
I00
sg15
g16
sg17
F134.0
sg18
F185.0
sg19
I5939059
sg20
S'14405.437483'
p868
sg22
F0.88888888888888884
sbasg26
I00
sg27
I00
sg28
I5938600
sg20
S'14405.6500812'
p869
sba(igraph
Edge
p870
(dp871
g7
I1
sg8
I00
sg9
I5
sg10
(lp872
g866
a(igraph
Vertex
p873
(dp874
g14
F0.14285714285714285
sg8
I00
sg15
g16
sg17
F134.0
sg18
F147.0
sg19
I5939060
sg20
S'14405.4392203'
p875
sg22
F0.88888888888888884
sbasg26
I00
sg27
I00
sg28
I5938601
sg20
S'14405.6527673'
p876
sba(igraph
Edge
p877
(dp878
g7
I1
sg8
I00
sg9
I5
sg10
(lp879
g873
a(igraph
Vertex
p880
(dp881
g14
F0.21428571428571436
sg8
I00
sg15
g16
sg17
F134.0
sg18
F108.99999999999996
sg19
I5939061
sg20
S'14405.4410284'
p882
sg22
F0.88888888888888884
sbasg26
I00
sg27
I00
sg28
I5938602
sg20
S'14405.6555031'
p883
sba(igraph
Edge
p884
(dp885
g7
I1
sg8
I00
sg9
I5
sg10
(lp886
g880
a(igraph
Vertex
p887
(dp888
g14
F0.2857142857142857
sg8
I00
sg15
g16
sg17
F134.0
sg18
F71.0
sg19
I5939062
sg20
S'14405.4428202'
p889
sg22
F0.88888888888888884
sbasg26
I00
sg27
I00
sg28
I5938603
sg20
S'14405.6582297'
p890
sba(igraph
Edge
p891
(dp892
g7
I1
sg8
I00
sg9
I5
sg10
(lp893
g887
a(igraph
Vertex
p894
(dp895
g14
F0.35714285714285721
sg8
I00
sg15
g16
sg17
F134.0
sg18
F32.999999999999972
sg19
I5939063
sg20
S'14405.4445381'
p896
sg22
F0.88888888888888884
sbasg26
I00
sg27
I00
sg28
I5938604
sg20
S'14405.6609882'
p897
sba(igraph
Edge
p898
(dp899
g7
I1
sg8
I00
sg9
I5
sg10
(lp900
g894
a(igraph
Vertex
p901
(dp902
g14
F0.42857142857142855
sg8
I00
sg15
g16
sg17
F134.0
sg18
F-5.0
sg19
I5939064
sg20
S'14405.4461053'
p903
sg22
F0.88888888888888884
sbasg26
I00
sg27
I00
sg28
I5938605
sg20
S'14405.6637751'
p904
sba(igraph
Edge
p905
(dp906
g7
I1
sg8
I00
sg9
I5
sg10
(lp907
g901
a(igraph
Vertex
p908
(dp909
g14
F0.50000000000000011
sg8
I00
sg15
g16
sg17
F134.0
sg18
F-43.000000000000057
sg19
I5939065
sg20
S'14405.4478569'
p910
sg22
F0.88888888888888884
sbasg26
I00
sg27
I00
sg28
I5938606
sg20
S'14405.6665294'
p911
sba(igraph
Edge
p912
(dp913
g7
I1
sg8
I00
sg9
I5
sg10
(lp914
g908
a(igraph
Vertex
p915
(dp916
g14
F0.57142857142857162
sg8
I00
sg15
g16
sg17
F134.0
sg18
F-81.000000000000114
sg19
I5939066
sg20
S'14405.4496479'
p917
sg22
F0.88888888888888884
sbasg26
I00
sg27
I00
sg28
I5938607
sg20
S'14405.6693119'
p918
sba(igraph
Edge
p919
(dp920
g7
I1
sg8
I00
sg9
I5
sg10
(lp921
g915
a(igraph
Vertex
p922
(dp923
g14
F0.64285714285714279
sg8
I00
sg15
g16
sg17
F134.0
sg18
F-118.99999999999994
sg19
I5939067
sg20
S'14405.4515471'
p924
sg22
F0.88888888888888884
sbasg26
I00
sg27
I00
sg28
I5938608
sg20
S'14405.6721611'
p925
sba(igraph
Edge
p926
(dp927
g7
I1
sg8
I00
sg9
I5
sg10
(lp928
g922
a(igraph
Vertex
p929
(dp930
g14
F0.71428571428571419
sg8
I00
sg15
g16
sg17
F134.0
sg18
F-156.99999999999994
sg19
I5939068
sg20
S'14405.4535576'
p931
sg22
F0.88888888888888884
sbasg26
I00
sg27
I00
sg28
I5938609
sg20
S'14405.6750456'
p932
sba(igraph
Edge
p933
(dp934
g7
I1
sg8
I00
sg9
I5
sg10
(lp935
g929
a(igraph
Vertex
p936
(dp937
g14
F0.78571428571428548
sg8
I00
sg15
g16
sg17
F134.0
sg18
F-194.99999999999989
sg19
I5939069
sg20
S'14405.4555794'
p938
sg22
F0.88888888888888884
sbasg26
I00
sg27
I00
sg28
I5938610
sg20
S'14405.6779225'
p939
sba(igraph
Edge
p940
(dp941
g7
I1
sg8
I00
sg9
I5
sg10
(lp942
g936
a(igraph
Vertex
p943
(dp944
g14
F0.85714285714285698
sg8
I00
sg15
I0
sg17
F134.0
sg18
F-232.99999999999994
sg19
I5939070
sg20
S'14405.4576464'
p945
sg22
F0.88888888888888884
sbasg26
I00
sg27
I00
sg28
I5938611
sg20
S'14405.6807955'
p946
sba(igraph
Edge
p947
(dp948
g7
I1
sg8
I00
sg9
I5
sg10
(lp949
g943
a(igraph
Vertex
p950
(dp951
g14
F0.92857142857142849
sg8
I00
sg15
g16
sg17
F134.0
sg18
F-270.99999999999994
sg19
I5939072
sg20
S'14405.4595263'
p952
sg22
F0.88888888888888884
sbasg26
I00
sg27
I00
sg28
I5938612
sg20
S'14405.6841523'
p953
sba(igraph
Edge
p954
(dp955
g7
I1
sg8
I00
sg9
I5
sg10
(lp956
g950
a(igraph
Vertex
p957
(dp958
g14
F1.0
sg8
I00
sg15
g16
sg17
F134.0
sg18
F-309.0
sg19
I5939073
sg20
S'14405.4609161'
p959
sg22
F0.88888888888888884
sbasg26
I00
sg27
I00
sg28
I5938613
sg20
S'14405.6870971'
p960
sba(igraph
Edge
p961
(dp962
g7
I1
sg8
I00
sg9
I5
sg10
(lp963
g957
ag863
asg26
I00
sg27
I00
sg28
I5938614
sg20
S'14405.6900452'
p964
sba(igraph
Edge
p965
(dp966
g7
I1
sg8
I00
sg9
I5
sg10
(lp967
(igraph
Vertex
p968
(dp969
g14
F0.0
sg8
I00
sg15
I0
sg17
F184.0
sg18
F223.0
sg19
I5939074
sg20
S'14405.4636958'
p970
sg22
F1.0
sba(igraph
Vertex
p971
(dp972
g14
F0.071428571428571425
sg8
I00
sg15
g16
sg17
F184.0
sg18
F185.0
sg19
I5939076
sg20
S'14405.4652985'
p973
sg22
F1.0
sbasg26
I00
sg27
I00
sg28
I5938615
sg20
S'14405.6931487'
p974
sba(igraph
Edge
p975
(dp976
g7
I1
sg8
I00
sg9
I5
sg10
(lp977
g971
a(igraph
Vertex
p978
(dp979
g14
F0.14285714285714285
sg8
I00
sg15
g16
sg17
F184.0
sg18
F147.0
sg19
I5939077
sg20
S'14405.4669644'
p980
sg22
F1.0
sbasg26
I00
sg27
I00
sg28
I5938616
sg20
S'14405.6961818'
p981
sba(igraph
Edge
p982
(dp983
g7
I1
sg8
I00
sg9
I5
sg10
(lp984
g978
a(igraph
Vertex
p985
(dp986
g14
F0.21428571428571436
sg8
I00
sg15
g16
sg17
F184.0
sg18
F108.99999999999996
sg19
I5939078
sg20
S'14405.4685791'
p987
sg22
F1.0
sbasg26
I00
sg27
I00
sg28
I5938617
sg20
S'14405.699195'
p988
sba(igraph
Edge
p989
(dp990
g7
I1
sg8
I00
sg9
I5
sg10
(lp991
g985
a(igraph
Vertex
p992
(dp993
g14
F0.2857142857142857
sg8
I00
sg15
g16
sg17
F184.0
sg18
F71.0
sg19
I5939079
sg20
S'14405.4701793'
p994
sg22
F1.0
sbasg26
I00
sg27
I00
sg28
I5938618
sg20
S'14405.7022236'
p995
sba(igraph
Edge
p996
(dp997
g7
I1
sg8
I00
sg9
I5
sg10
(lp998
g992
a(igraph
Vertex
p999
(dp1000
g14
F0.35714285714285721
sg8
I00
sg15
g16
sg17
F184.0
sg18
F32.999999999999972
sg19
I5939080
sg20
S'14405.4719483'
p1001
sg22
F1.0
sbasg26
I00
sg27
I00
sg28
I5938619
sg20
S'14405.7052737'
p1002
sba(igraph
Edge
p1003
(dp1004
g7
I1
sg8
I00
sg9
I5
sg10
(lp1005
g999
a(igraph
Vertex
p1006
(dp1007
g14
F0.42857142857142855
sg8
I00
sg15
g16
sg17
F184.0
sg18
F-5.0
sg19
I5939081
sg20
S'14405.473261'
p1008
sg22
F1.0
sbasg26
I00
sg27
I00
sg28
I5938620
sg20
S'14405.7083467'
p1009
sba(igraph
Edge
p1010
(dp1011
g7
I1
sg8
I00
sg9
I5
sg10
(lp1012
g1006
a(igraph
Vertex
p1013
(dp1014
g14
F0.50000000000000011
sg8
I00
sg15
g16
sg17
F184.0
sg18
F-43.000000000000057
sg19
I5939082
sg20
S'14405.4746547'
p1015
sg22
F1.0
sbasg26
I00
sg27
I00
sg28
I5938621
sg20
S'14405.7114343'
p1016
sba(igraph
Edge
p1017
(dp1018
g7
I1
sg8
I00
sg9
I5
sg10
(lp1019
g1013
a(igraph
Vertex
p1020
(dp1021
g14
F0.57142857142857162
sg8
I00
sg15
g16
sg17
F184.0
sg18
F-81.000000000000114
sg19
I5939083
sg20
S'14405.4758529'
p1022
sg22
F1.0
sbasg26
I00
sg27
I00
sg28
I5938622
sg20
S'14405.7145989'
p1023
sba(igraph
Edge
p1024
(dp1025
g7
I1
sg8
I00
sg9
I5
sg10
(lp1026
g1020
a(igraph
Vertex
p1027
(dp1028
g14
F0.64285714285714279
sg8
I00
sg15
g16
sg17
F184.0
sg18
F-118.99999999999994
sg19
I5939084
sg20
S'14405.4770601'
p1029
sg22
F1.0
sbasg26
I00
sg27
I00
sg28
I5938623
sg20
S'14405.7178016'
p1030
sba(igraph
Edge
p1031
(dp1032
g7
I1
sg8
I00
sg9
I5
sg10
(lp1033
g1027
a(igraph
Vertex
p1034
(dp1035
g14
F0.71428571428571419
sg8
I00
sg15
g16
sg17
F184.0
sg18
F-156.99999999999994
sg19
I5939085
sg20
S'14405.4784164'
p1036
sg22
F1.0
sbasg26
I00
sg27
I00
sg28
I5938624
sg20
S'14405.7209749'
p1037
sba(igraph
Edge
p1038
(dp1039
g7
I1
sg8
I00
sg9
I5
sg10
(lp1040
g1034
a(igraph
Vertex
p1041
(dp1042
g14
F0.78571428571428548
sg8
I00
sg15
g16
sg17
F184.0
sg18
F-194.99999999999989
sg19
I5939086
sg20
S'14405.4796839'
p1043
sg22
F1.0
sbasg26
I00
sg27
I00
sg28
I5938625
sg20
S'14405.7242312'
p1044
sba(igraph
Edge
p1045
(dp1046
g7
I1
sg8
I00
sg9
I5
sg10
(lp1047
g1041
a(igraph
Vertex
p1048
(dp1049
g14
F0.85714285714285698
sg8
I00
sg15
g16
sg17
F184.0
sg18
F-232.99999999999994
sg19
I5939087
sg20
S'14405.4809164'
p1050
sg22
F1.0
sbasg26
I00
sg27
I00
sg28
I5938626
sg20
S'14405.7275274'
p1051
sba(igraph
Edge
p1052
(dp1053
g7
I1
sg8
I00
sg9
I5
sg10
(lp1054
g1048
a(igraph
Vertex
p1055
(dp1056
g14
F0.92857142857142849
sg8
I00
sg15
g16
sg17
F184.0
sg18
F-270.99999999999994
sg19
I5939088
sg20
S'14405.482161'
p1057
sg22
F1.0
sbasg26
I00
sg27
I00
sg28
I5938627
sg20
S'14405.730749'
p1058
sba(igraph
Edge
p1059
(dp1060
g7
I1
sg8
I00
sg9
I5
sg10
(lp1061
g1055
a(igraph
Vertex
p1062
(dp1063
g14
F1.0
sg8
I00
sg15
I0
sg17
F184.0
sg18
F-309.0
sg19
I5939089
sg20
S'14405.4834033'
p1064
sg22
F1.0
sbasg26
I00
sg27
I00
sg28
I5938628
sg20
S'14405.7340293'
p1065
sba(igraph
Edge
p1066
(dp1067
g7
I1
sg8
I00
sg9
I5
sg10
(lp1068
g1062
ag968
asg26
I00
sg27
I00
sg28
I5938629
sg20
S'14405.7373158'
p1069
sba(igraph
Edge
p1070
(dp1071
g7
I1
sg8
I00
sg9
I5
sg10
(lp1072
g12
ag128
asg26
I00
sg27
I00
sg28
I5938630
sg20
S'14405.7405966'
p1073
sba(igraph
Edge
p1074
(dp1075
g7
I1
sg8
I00
sg9
I5
sg10
(lp1076
g23
ag138
asg26
I00
sg27
I00
sg28
I5938631
sg20
S'14405.7439026'
p1077
sba(igraph
Edge
p1078
(dp1079
g7
I1
sg8
I00
sg9
I5
sg10
(lp1080
g33
ag138
asg26
I00
sg27
I00
sg28
I5938632
sg20
S'14405.7472592'
p1081
sba(igraph
Edge
p1082
(dp1083
g7
I1
sg8
I00
sg9
I5
sg10
(lp1084
g40
ag152
asg26
I00
sg27
I00
sg28
I5938633
sg20
S'14405.7506099'
p1085
sba(igraph
Edge
p1086
(dp1087
g7
I1
sg8
I00
sg9
I5
sg10
(lp1088
g47
ag152
asg26
I00
sg27
I00
sg28
I5938634
sg20
S'14405.7540062'
p1089
sba(igraph
Edge
p1090
(dp1091
g7
I1
sg8
I00
sg9
I5
sg10
(lp1092
g54
ag166
asg26
I00
sg27
I00
sg28
I5938635
sg20
S'14405.7574658'
p1093
sba(igraph
Edge
p1094
(dp1095
g7
I1
sg8
I00
sg9
I5
sg10
(lp1096
g61
ag166
asg26
I00
sg27
I00
sg28
I5938636
sg20
S'14405.7609051'
p1097
sba(igraph
Edge
p1098
(dp1099
g7
I1
sg8
I00
sg9
I5
sg10
(lp1100
g68
ag180
asg26
I00
sg27
I00
sg28
I5938637
sg20
S'14405.7643326'
p1101
sba(igraph
Edge
p1102
(dp1103
g7
I1
sg8
I00
sg9
I5
sg10
(lp1104
g75
ag180
asg26
I00
sg27
I00
sg28
I5938638
sg20
S'14405.767837'
p1105
sba(igraph
Edge
p1106
(dp1107
g7
I1
sg8
I00
sg9
I5
sg10
(lp1108
g82
ag194
asg26
I00
sg27
I00
sg28
I5938639
sg20
S'14405.7713497'
p1109
sba(igraph
Edge
p1110
(dp1111
g7
I1
sg8
I00
sg9
I5
sg10
(lp1112
g89
ag194
asg26
I00
sg27
I00
sg28
I5938640
sg20
S'14405.7748963'
p1113
sba(igraph
Edge
p1114
(dp1115
g7
I1
sg8
I00
sg9
I5
sg10
(lp1116
g96
ag208
asg26
I00
sg27
I00
sg28
I5938641
sg20
S'14405.7784632'
p1117
sba(igraph
Edge
p1118
(dp1119
g7
I1
sg8
I00
sg9
I5
sg10
(lp1120
g103
ag208
asg26
I00
sg27
I00
sg28
I5938642
sg20
S'14405.7820754'
p1121
sba(igraph
Edge
p1122
(dp1123
g7
I1
sg8
I00
sg9
I5
sg10
(lp1124
g110
ag222
asg26
I00
sg27
I00
sg28
I5938643
sg20
S'14405.7856739'
p1125
sba(igraph
Edge
p1126
(dp1127
g7
I1
sg8
I00
sg9
I5
sg10
(lp1128
g117
ag222
asg26
I00
sg27
I00
sg28
I5938644
sg20
S'14405.7894679'
p1129
sba(igraph
Edge
p1130
(dp1131
g7
I1
sg8
I00
sg9
I5
sg10
(lp1132
g12
ag131
asg26
I00
sg27
I00
sg28
I5938645
sg20
S'14405.7932148'
p1133
sba(igraph
Edge
p1134
(dp1135
g7
I1
sg8
I00
sg9
I5
sg10
(lp1136
g23
ag131
asg26
I00
sg27
I00
sg28
I5938646
sg20
S'14405.7968147'
p1137
sba(igraph
Edge
p1138
(dp1139
g7
I1
sg8
I00
sg9
I5
sg10
(lp1140
g33
ag145
asg26
I00
sg27
I00
sg28
I5938647
sg20
S'14405.8004313'
p1141
sba(igraph
Edge
p1142
(dp1143
g7
I1
sg8
I00
sg9
I5
sg10
(lp1144
g40
ag145
asg26
I00
sg27
I00
sg28
I5938648
sg20
S'14405.8042137'
p1145
sba(igraph
Edge
p1146
(dp1147
g7
I1
sg8
I00
sg9
I5
sg10
(lp1148
g47
ag159
asg26
I00
sg27
I00
sg28
I5938649
sg20
S'14405.8078792'
p1149
sba(igraph
Edge
p1150
(dp1151
g7
I1
sg8
I00
sg9
I5
sg10
(lp1152
g54
ag159
asg26
I00
sg27
I00
sg28
I5938650
sg20
S'14405.811637'
p1153
sba(igraph
Edge
p1154
(dp1155
g7
I1
sg8
I00
sg9
I5
sg10
(lp1156
g61
ag173
asg26
I00
sg27
I00
sg28
I5938651
sg20
S'14405.8153852'
p1157
sba(igraph
Edge
p1158
(dp1159
g7
I1
sg8
I00
sg9
I5
sg10
(lp1160
g68
ag173
asg26
I00
sg27
I00
sg28
I5938652
sg20
S'14405.8191516'
p1161
sba(igraph
Edge
p1162
(dp1163
g7
I1
sg8
I00
sg9
I5
sg10
(lp1164
g75
ag187
asg26
I00
sg27
I00
sg28
I5938653
sg20
S'14405.8229387'
p1165
sba(igraph
Edge
p1166
(dp1167
g7
I1
sg8
I00
sg9
I5
sg10
(lp1168
g82
ag187
asg26
I00
sg27
I00
sg28
I5938654
sg20
S'14405.8268867'
p1169
sba(igraph
Edge
p1170
(dp1171
g7
I1
sg8
I00
sg9
I5
sg10
(lp1172
g89
ag201
asg26
I00
sg27
I00
sg28
I5938655
sg20
S'14405.8307919'
p1173
sba(igraph
Edge
p1174
(dp1175
g7
I1
sg8
I00
sg9
I5
sg10
(lp1176
g96
ag201
asg26
I00
sg27
I00
sg28
I5938656
sg20
S'14405.8348888'
p1177
sba(igraph
Edge
p1178
(dp1179
g7
I1
sg8
I00
sg9
I5
sg10
(lp1180
g103
ag215
asg26
I00
sg27
I00
sg28
I5938657
sg20
S'14405.8388494'
p1181
sba(igraph
Edge
p1182
(dp1183
g7
I1
sg8
I00
sg9
I5
sg10
(lp1184
g110
ag215
asg26
I00
sg27
I00
sg28
I5938658
sg20
S'14405.8427588'
p1185
sba(igraph
Edge
p1186
(dp1187
g7
I1
sg8
I00
sg9
I5
sg10
(lp1188
g117
ag128
asg26
I00
sg27
I00
sg28
I5938659
sg20
S'14405.8467224'
p1189
sba(igraph
Edge
p1190
(dp1191
g7
I1
sg8
I00
sg9
I5
sg10
(lp1192
g12
ag968
asg26
I00
sg27
I00
sg28
I5938660
sg20
S'14405.8507254'
p1193
sba(igraph
Edge
p1194
(dp1195
g7
I1
sg8
I00
sg9
I5
sg10
(lp1196
g23
ag968
asg26
I00
sg27
I00
sg28
I5938661
sg20
S'14405.8546701'
p1197
sba(igraph
Edge
p1198
(dp1199
g7
I1
sg8
I00
sg9
I5
sg10
(lp1200
g33
ag978
asg26
I00
sg27
I00
sg28
I5938662
sg20
S'14405.8586298'
p1201
sba(igraph
Edge
p1202
(dp1203
g7
I1
sg8
I00
sg9
I5
sg10
(lp1204
g40
ag978
asg26
I00
sg27
I00
sg28
I5938663
sg20
S'14405.8626415'
p1205
sba(igraph
Edge
p1206
(dp1207
g7
I1
sg8
I00
sg9
I5
sg10
(lp1208
g47
ag992
asg26
I00
sg27
I00
sg28
I5938664
sg20
S'14405.8666451'
p1209
sba(igraph
Edge
p1210
(dp1211
g7
I1
sg8
I00
sg9
I5
sg10
(lp1212
g54
ag992
asg26
I00
sg27
I00
sg28
I5938665
sg20
S'14405.8712032'
p1213
sba(igraph
Edge
p1214
(dp1215
g7
I1
sg8
I00
sg9
I5
sg10
(lp1216
g61
ag1006
asg26
I00
sg27
I00
sg28
I5938666
sg20
S'14405.8753356'
p1217
sba(igraph
Edge
p1218
(dp1219
g7
I1
sg8
I00
sg9
I5
sg10
(lp1220
g68
ag1006
asg26
I00
sg27
I00
sg28
I5938667
sg20
S'14405.8794886'
p1221
sba(igraph
Edge
p1222
(dp1223
g7
I1
sg8
I00
sg9
I5
sg10
(lp1224
g75
ag1020
asg26
I00
sg27
I00
sg28
I5938668
sg20
S'14405.8838023'
p1225
sba(igraph
Edge
p1226
(dp1227
g7
I1
sg8
I00
sg9
I5
sg10
(lp1228
g82
ag1020
asg26
I00
sg27
I00
sg28
I5938669
sg20
S'14405.88819'
p1229
sba(igraph
Edge
p1230
(dp1231
g7
I1
sg8
I00
sg9
I5
sg10
(lp1232
g89
ag1034
asg26
I00
sg27
I00
sg28
I5938670
sg20
S'14405.892395'
p1233
sba(igraph
Edge
p1234
(dp1235
g7
I1
sg8
I00
sg9
I5
sg10
(lp1236
g96
ag1034
asg26
I00
sg27
I00
sg28
I5938671
sg20
S'14405.8967374'
p1237
sba(igraph
Edge
p1238
(dp1239
g7
I1
sg8
I00
sg9
I5
sg10
(lp1240
g103
ag1048
asg26
I00
sg27
I00
sg28
I5938672
sg20
S'14405.9010433'
p1241
sba(igraph
Edge
p1242
(dp1243
g7
I1
sg8
I00
sg9
I5
sg10
(lp1244
g110
ag1048
asg26
I00
sg27
I00
sg28
I5938673
sg20
S'14405.9054919'
p1245
sba(igraph
Edge
p1246
(dp1247
g7
I1
sg8
I00
sg9
I5
sg10
(lp1248
g117
ag1062
asg26
I00
sg27
I00
sg28
I5938674
sg20
S'14405.9097519'
p1249
sba(igraph
Edge
p1250
(dp1251
g7
I1
sg8
I00
sg9
I5
sg10
(lp1252
g12
ag1062
asg26
I00
sg27
I00
sg28
I5938675
sg20
S'14405.9141863'
p1253
sba(igraph
Edge
p1254
(dp1255
g7
I1
sg8
I00
sg9
I5
sg10
(lp1256
g23
ag971
asg26
I00
sg27
I00
sg28
I5938676
sg20
S'14405.9184528'
p1257
sba(igraph
Edge
p1258
(dp1259
g7
I1
sg8
I00
sg9
I5
sg10
(lp1260
g33
ag971
asg26
I00
sg27
I00
sg28
I5938677
sg20
S'14405.9227625'
p1261
sba(igraph
Edge
p1262
(dp1263
g7
I1
sg8
I00
sg9
I5
sg10
(lp1264
g40
ag985
asg26
I00
sg27
I00
sg28
I5938678
sg20
S'14405.9270921'
p1265
sba(igraph
Edge
p1266
(dp1267
g7
I1
sg8
I00
sg9
I5
sg10
(lp1268
g47
ag985
asg26
I00
sg27
I00
sg28
I5938679
sg20
S'14405.9316388'
p1269
sba(igraph
Edge
p1270
(dp1271
g7
I1
sg8
I00
sg9
I5
sg10
(lp1272
g54
ag999
asg26
I00
sg27
I00
sg28
I5938680
sg20
S'14405.9363925'
p1273
sba(igraph
Edge
p1274
(dp1275
g7
I1
sg8
I00
sg9
I5
sg10
(lp1276
g61
ag999
asg26
I00
sg27
I00
sg28
I5938681
sg20
S'14405.941233'
p1277
sba(igraph
Edge
p1278
(dp1279
g7
I1
sg8
I00
sg9
I5
sg10
(lp1280
g68
ag1013
asg26
I00
sg27
I00
sg28
I5938682
sg20
S'14405.9470357'
p1281
sba(igraph
Edge
p1282
(dp1283
g7
I1
sg8
I00
sg9
I5
sg10
(lp1284
g75
ag1013
asg26
I00
sg27
I00
sg28
I5938683
sg20
S'14405.9519383'
p1285
sba(igraph
Edge
p1286
(dp1287
g7
I1
sg8
I00
sg9
I5
sg10
(lp1288
g82
ag1027
asg26
I00
sg27
I00
sg28
I5938684
sg20
S'14405.9566959'
p1289
sba(igraph
Edge
p1290
(dp1291
g7
I1
sg8
I00
sg9
I5
sg10
(lp1292
g89
ag1027
asg26
I00
sg27
I00
sg28
I5938685
sg20
S'14405.9616024'
p1293
sba(igraph
Edge
p1294
(dp1295
g7
I1
sg8
I00
sg9
I5
sg10
(lp1296
g96
ag1041
asg26
I00
sg27
I00
sg28
I5938686
sg20
S'14405.9666078'
p1297
sba(igraph
Edge
p1298
(dp1299
g7
I1
sg8
I00
sg9
I5
sg10
(lp1300
g103
ag1041
asg26
I00
sg27
I00
sg28
I5938687
sg20
S'14405.9715886'
p1301
sba(igraph
Edge
p1302
(dp1303
g7
I1
sg8
I00
sg9
I5
sg10
(lp1304
g110
ag1055
asg26
I00
sg27
I00
sg28
I5938688
sg20
S'14405.9774541'
p1305
sba(igraph
Edge
p1306
(dp1307
g7
I1
sg8
I00
sg9
I5
sg10
(lp1308
g117
ag1055
asg26
I00
sg27
I00
sg28
I5938689
sg20
S'14405.9823902'
p1309
sba(igraph
Edge
p1310
(dp1311
g7
I1
sg8
I00
sg9
I5
sg10
(lp1312
g128
ag233
asg26
I00
sg27
I00
sg28
I5938690
sg20
S'14405.9874775'
p1313
sba(igraph
Edge
p1314
(dp1315
g7
I1
sg8
I00
sg9
I5
sg10
(lp1316
g131
ag243
asg26
I00
sg27
I00
sg28
I5938691
sg20
S'14405.9926178'
p1317
sba(igraph
Edge
p1318
(dp1319
g7
I1
sg8
I00
sg9
I5
sg10
(lp1320
g138
ag243
asg26
I00
sg27
I00
sg28
I5938692
sg20
S'14405.9977154'
p1321
sba(igraph
Edge
p1322
(dp1323
g7
I1
sg8
I00
sg9
I5
sg10
(lp1324
g145
ag257
asg26
I00
sg27
I00
sg28
I5938693
sg20
S'14406.003037'
p1325
sba(igraph
Edge
p1326
(dp1327
g7
I1
sg8
I00
sg9
I5
sg10
(lp1328
g152
ag257
asg26
I00
sg27
I00
sg28
I5938694
sg20
S'14406.0084016'
p1329
sba(igraph
Edge
p1330
(dp1331
g7
I1
sg8
I00
sg9
I5
sg10
(lp1332
g159
ag271
asg26
I00
sg27
I00
sg28
I5938695
sg20
S'14406.0151528'
p1333
sba(igraph
Edge
p1334
(dp1335
g7
I1
sg8
I00
sg9
I5
sg10
(lp1336
g166
ag271
asg26
I00
sg27
I00
sg28
I5938696
sg20
S'14406.0203395'
p1337
sba(igraph
Edge
p1338
(dp1339
g7
I1
sg8
I00
sg9
I5
sg10
(lp1340
g173
ag285
asg26
I00
sg27
I00
sg28
I5938697
sg20
S'14406.0256675'
p1341
sba(igraph
Edge
p1342
(dp1343
g7
I1
sg8
I00
sg9
I5
sg10
(lp1344
g180
ag285
asg26
I00
sg27
I00
sg28
I5938698
sg20
S'14406.0309199'
p1345
sba(igraph
Edge
p1346
(dp1347
g7
I1
sg8
I00
sg9
I5
sg10
(lp1348
g187
ag299
asg26
I00
sg27
I00
sg28
I5938699
sg20
S'14406.0367949'
p1349
sba(igraph
Edge
p1350
(dp1351
g7
I1
sg8
I00
sg9
I5
sg10
(lp1352
g194
ag299
asg26
I00
sg27
I00
sg28
I5938700
sg20
S'14406.042211'
p1353
sba(igraph
Edge
p1354
(dp1355
g7
I1
sg8
I00
sg9
I5
sg10
(lp1356
g201
ag313
asg26
I00
sg27
I00
sg28
I5938701
sg20
S'14406.04762'
p1357
sba(igraph
Edge
p1358
(dp1359
g7
I1
sg8
I00
sg9
I5
sg10
(lp1360
g208
ag313
asg26
I00
sg27
I00
sg28
I5938702
sg20
S'14406.0539521'
p1361
sba(igraph
Edge
p1362
(dp1363
g7
I1
sg8
I00
sg9
I5
sg10
(lp1364
g215
ag327
asg26
I00
sg27
I00
sg28
I5938703
sg20
S'14406.0606868'
p1365
sba(igraph
Edge
p1366
(dp1367
g7
I1
sg8
I00
sg9
I5
sg10
(lp1368
g222
ag327
asg26
I00
sg27
I00
sg28
I5938704
sg20
S'14406.0673211'
p1369
sba(igraph
Edge
p1370
(dp1371
g7
I1
sg8
I00
sg9
I5
sg10
(lp1372
g128
ag236
asg26
I00
sg27
I00
sg28
I5938705
sg20
S'14406.073592'
p1373
sba(igraph
Edge
p1374
(dp1375
g7
I1
sg8
I00
sg9
I5
sg10
(lp1376
g131
ag236
asg26
I00
sg27
I00
sg28
I5938706
sg20
S'14406.0804052'
p1377
sba(igraph
Edge
p1378
(dp1379
g7
I1
sg8
I00
sg9
I5
sg10
(lp1380
g138
ag250
asg26
I00
sg27
I00
sg28
I5938707
sg20
S'14406.0868937'
p1381
sba(igraph
Edge
p1382
(dp1383
g7
I1
sg8
I00
sg9
I5
sg10
(lp1384
g145
ag250
asg26
I00
sg27
I00
sg28
I5938708
sg20
S'14406.0934826'
p1385
sba(igraph
Edge
p1386
(dp1387
g7
I1
sg8
I00
sg9
I5
sg10
(lp1388
g152
ag264
asg26
I00
sg27
I00
sg28
I5938709
sg20
S'14406.0993931'
p1389
sba(igraph
Edge
p1390
(dp1391
g7
I1
sg8
I00
sg9
I5
sg10
(lp1392
g159
ag264
asg26
I00
sg27
I00
sg28
I5938710
sg20
S'14406.106466'
p1393
sba(igraph
Edge
p1394
(dp1395
g7
I1
sg8
I00
sg9
I5
sg10
(lp1396
g166
ag278
asg26
I00
sg27
I00
sg28
I5938711
sg20
S'14406.112488'
p1397
sba(igraph
Edge
p1398
(dp1399
g7
I1
sg8
I00
sg9
I5
sg10
(lp1400
g173
ag278
asg26
I00
sg27
I00
sg28
I5938712
sg20
S'14406.1183787'
p1401
sba(igraph
Edge
p1402
(dp1403
g7
I1
sg8
I00
sg9
I5
sg10
(lp1404
g180
ag292
asg26
I00
sg27
I00
sg28
I5938713
sg20
S'14406.1240281'
p1405
sba(igraph
Edge
p1406
(dp1407
g7
I1
sg8
I00
sg9
I5
sg10
(lp1408
g187
ag292
asg26
I00
sg27
I00
sg28
I5938714
sg20
S'14406.1298444'
p1409
sba(igraph
Edge
p1410
(dp1411
g7
I1
sg8
I00
sg9
I5
sg10
(lp1412
g194
ag306
asg26
I00
sg27
I00
sg28
I5938715
sg20
S'14406.1352842'
p1413
sba(igraph
Edge
p1414
(dp1415
g7
I1
sg8
I00
sg9
I5
sg10
(lp1416
g201
ag306
asg26
I00
sg27
I00
sg28
I5938716
sg20
S'14406.1410235'
p1417
sba(igraph
Edge
p1418
(dp1419
g7
I1
sg8
I00
sg9
I5
sg10
(lp1420
g208
ag320
asg26
I00
sg27
I00
sg28
I5938717
sg20
S'14406.1467589'
p1421
sba(igraph
Edge
p1422
(dp1423
g7
I1
sg8
I00
sg9
I5
sg10
(lp1424
g215
ag320
asg26
I00
sg27
I00
sg28
I5938718
sg20
S'14406.1524741'
p1425
sba(igraph
Edge
p1426
(dp1427
g7
I1
sg8
I00
sg9
I5
sg10
(lp1428
g222
ag233
asg26
I00
sg27
I00
sg28
I5938719
sg20
S'14406.1581517'
p1429
sba(igraph
Edge
p1430
(dp1431
g7
I1
sg8
I00
sg9
I5
sg10
(lp1432
g233
ag338
asg26
I00
sg27
I00
sg28
I5938720
sg20
S'14406.1642645'
p1433
sba(igraph
Edge
p1434
(dp1435
g7
I1
sg8
I00
sg9
I5
sg10
(lp1436
g236
ag348
asg26
I00
sg27
I00
sg28
I5938721
sg20
S'14406.1704152'
p1437
sba(igraph
Edge
p1438
(dp1439
g7
I1
sg8
I00
sg9
I5
sg10
(lp1440
g243
ag348
asg26
I00
sg27
I00
sg28
I5938722
sg20
S'14406.1781623'
p1441
sba(igraph
Edge
p1442
(dp1443
g7
I1
sg8
I00
sg9
I5
sg10
(lp1444
g250
ag362
asg26
I00
sg27
I00
sg28
I5938723
sg20
S'14406.185033'
p1445
sba(igraph
Edge
p1446
(dp1447
g7
I1
sg8
I00
sg9
I5
sg10
(lp1448
g257
ag362
asg26
I00
sg27
I00
sg28
I5938724
sg20
S'14406.1940752'
p1449
sba(igraph
Edge
p1450
(dp1451
g7
I1
sg8
I00
sg9
I5
sg10
(lp1452
g264
ag376
asg26
I00
sg27
I00
sg28
I5938725
sg20
S'14406.2009929'
p1453
sba(igraph
Edge
p1454
(dp1455
g7
I1
sg8
I00
sg9
I5
sg10
(lp1456
g271
ag376
asg26
I00
sg27
I00
sg28
I5938726
sg20
S'14406.2078312'
p1457
sba(igraph
Edge
p1458
(dp1459
g7
I1
sg8
I00
sg9
I5
sg10
(lp1460
g278
ag390
asg26
I00
sg27
I00
sg28
I5938727
sg20
S'14406.2147672'
p1461
sba(igraph
Edge
p1462
(dp1463
g7
I1
sg8
I00
sg9
I5
sg10
(lp1464
g285
ag390
asg26
I00
sg27
I00
sg28
I5938728
sg20
S'14406.2215268'
p1465
sba(igraph
Edge
p1466
(dp1467
g7
I1
sg8
I00
sg9
I5
sg10
(lp1468
g292
ag404
asg26
I00
sg27
I00
sg28
I5938729
sg20
S'14406.2279038'
p1469
sba(igraph
Edge
p1470
(dp1471
g7
I1
sg8
I00
sg9
I5
sg10
(lp1472
g299
ag404
asg26
I00
sg27
I00
sg28
I5938730
sg20
S'14406.2340756'
p1473
sba(igraph
Edge
p1474
(dp1475
g7
I1
sg8
I00
sg9
I5
sg10
(lp1476
g306
ag418
asg26
I00
sg27
I00
sg28
I5938731
sg20
S'14406.2403655'
p1477
sba(igraph
Edge
p1478
(dp1479
g7
I1
sg8
I00
sg9
I5
sg10
(lp1480
g313
ag418
asg26
I00
sg27
I00
sg28
I5938732
sg20
S'14406.2477284'
p1481
sba(igraph
Edge
p1482
(dp1483
g7
I1
sg8
I00
sg9
I5
sg10
(lp1484
g320
ag432
asg26
I00
sg27
I00
sg28
I5938733
sg20
S'14406.2537884'
p1485
sba(igraph
Edge
p1486
(dp1487
g7
I1
sg8
I00
sg9
I5
sg10
(lp1488
g327
ag432
asg26
I00
sg27
I00
sg28
I5938734
sg20
S'14406.2609611'
p1489
sba(igraph
Edge
p1490
(dp1491
g7
I1
sg8
I00
sg9
I5
sg10
(lp1492
g233
ag341
asg26
I00
sg27
I00
sg28
I5938735
sg20
S'14406.266939'
p1493
sba(igraph
Edge
p1494
(dp1495
g7
I1
sg8
I00
sg9
I5
sg10
(lp1496
g236
ag341
asg26
I00
sg27
I00
sg28
I5938736
sg20
S'14406.2733727'
p1497
sba(igraph
Edge
p1498
(dp1499
g7
I1
sg8
I00
sg9
I5
sg10
(lp1500
g243
ag355
asg26
I00
sg27
I00
sg28
I5938737
sg20
S'14406.2794973'
p1501
sba(igraph
Edge
p1502
(dp1503
g7
I1
sg8
I00
sg9
I5
sg10
(lp1504
g250
ag355
asg26
I00
sg27
I00
sg28
I5938738
sg20
S'14406.2856768'
p1505
sba(igraph
Edge
p1506
(dp1507
g7
I1
sg8
I00
sg9
I5
sg10
(lp1508
g257
ag369
asg26
I00
sg27
I00
sg28
I5938739
sg20
S'14406.2917787'
p1509
sba(igraph
Edge
p1510
(dp1511
g7
I1
sg8
I00
sg9
I5
sg10
(lp1512
g264
ag369
asg26
I00
sg27
I00
sg28
I5938740
sg20
S'14406.298303'
p1513
sba(igraph
Edge
p1514
(dp1515
g7
I1
sg8
I00
sg9
I5
sg10
(lp1516
g271
ag383
asg26
I00
sg27
I00
sg28
I5938741
sg20
S'14406.3048287'
p1517
sba(igraph
Edge
p1518
(dp1519
g7
I1
sg8
I00
sg9
I5
sg10
(lp1520
g278
ag383
asg26
I00
sg27
I00
sg28
I5938742
sg20
S'14406.3123372'
p1521
sba(igraph
Edge
p1522
(dp1523
g7
I1
sg8
I00
sg9
I5
sg10
(lp1524
g285
ag397
asg26
I00
sg27
I00
sg28
I5938743
sg20
S'14406.3208212'
p1525
sba(igraph
Edge
p1526
(dp1527
g7
I1
sg8
I00
sg9
I5
sg10
(lp1528
g292
ag397
asg26
I00
sg27
I00
sg28
I5938744
sg20
S'14406.3282736'
p1529
sba(igraph
Edge
p1530
(dp1531
g7
I1
sg8
I00
sg9
I5
sg10
(lp1532
g299
ag411
asg26
I00
sg27
I00
sg28
I5938745
sg20
S'14406.3356158'
p1533
sba(igraph
Edge
p1534
(dp1535
g7
I1
sg8
I00
sg9
I5
sg10
(lp1536
g306
ag411
asg26
I00
sg27
I00
sg28
I5938746
sg20
S'14406.3431939'
p1537
sba(igraph
Edge
p1538
(dp1539
g7
I1
sg8
I00
sg9
I5
sg10
(lp1540
g313
ag425
asg26
I00
sg27
I00
sg28
I5938747
sg20
S'14406.3508544'
p1541
sba(igraph
Edge
p1542
(dp1543
g7
I1
sg8
I00
sg9
I5
sg10
(lp1544
g320
ag425
asg26
I00
sg27
I00
sg28
I5938748
sg20
S'14406.3581779'
p1545
sba(igraph
Edge
p1546
(dp1547
g7
I1
sg8
I00
sg9
I5
sg10
(lp1548
g327
ag338
asg26
I00
sg27
I00
sg28
I5938749
sg20
S'14406.3649151'
p1549
sba(igraph
Edge
p1550
(dp1551
g7
I1
sg8
I00
sg9
I5
sg10
(lp1552
g338
ag443
asg26
I00
sg27
I00
sg28
I5938750
sg20
S'14406.3719174'
p1553
sba(igraph
Edge
p1554
(dp1555
g7
I1
sg8
I00
sg9
I5
sg10
(lp1556
g341
ag453
asg26
I00
sg27
I00
sg28
I5938751
sg20
S'14406.3786805'
p1557
sba(igraph
Edge
p1558
(dp1559
g7
I1
sg8
I00
sg9
I5
sg10
(lp1560
g348
ag453
asg26
I00
sg27
I00
sg28
I5938752
sg20
S'14406.3858828'
p1561
sba(igraph
Edge
p1562
(dp1563
g7
I1
sg8
I00
sg9
I5
sg10
(lp1564
g355
ag467
asg26
I00
sg27
I00
sg28
I5938753
sg20
S'14406.3924096'
p1565
sba(igraph
Edge
p1566
(dp1567
g7
I1
sg8
I00
sg9
I5
sg10
(lp1568
g362
ag467
asg26
I00
sg27
I00
sg28
I5938754
sg20
S'14406.3991655'
p1569
sba(igraph
Edge
p1570
(dp1571
g7
I1
sg8
I00
sg9
I5
sg10
(lp1572
g369
ag481
asg26
I00
sg27
I00
sg28
I5938755
sg20
S'14406.4062134'
p1573
sba(igraph
Edge
p1574
(dp1575
g7
I1
sg8
I00
sg9
I5
sg10
(lp1576
g376
ag481
asg26
I00
sg27
I00
sg28
I5938756
sg20
S'14406.4138364'
p1577
sba(igraph
Edge
p1578
(dp1579
g7
I1
sg8
I00
sg9
I5
sg10
(lp1580
g383
ag495
asg26
I00
sg27
I00
sg28
I5938757
sg20
S'14406.4202853'
p1581
sba(igraph
Edge
p1582
(dp1583
g7
I1
sg8
I00
sg9
I5
sg10
(lp1584
g390
ag495
asg26
I00
sg27
I00
sg28
I5938758
sg20
S'14406.4267607'
p1585
sba(igraph
Edge
p1586
(dp1587
g7
I1
sg8
I00
sg9
I5
sg10
(lp1588
g397
ag509
asg26
I00
sg27
I00
sg28
I5938759
sg20
S'14406.4335355'
p1589
sba(igraph
Edge
p1590
(dp1591
g7
I1
sg8
I00
sg9
I5
sg10
(lp1592
g404
ag509
asg26
I00
sg27
I00
sg28
I5938760
sg20
S'14406.4414952'
p1593
sba(igraph
Edge
p1594
(dp1595
g7
I1
sg8
I00
sg9
I5
sg10
(lp1596
g411
ag523
asg26
I00
sg27
I00
sg28
I5938761
sg20
S'14406.4492588'
p1597
sba(igraph
Edge
p1598
(dp1599
g7
I1
sg8
I00
sg9
I5
sg10
(lp1600
g418
ag523
asg26
I00
sg27
I00
sg28
I5938762
sg20
S'14406.4577498'
p1601
sba(igraph
Edge
p1602
(dp1603
g7
I1
sg8
I00
sg9
I5
sg10
(lp1604
g425
ag537
asg26
I00
sg27
I00
sg28
I5938763
sg20
S'14406.4661171'
p1605
sba(igraph
Edge
p1606
(dp1607
g7
I1
sg8
I00
sg9
I5
sg10
(lp1608
g432
ag537
asg26
I00
sg27
I00
sg28
I5938764
sg20
S'14406.4742935'
p1609
sba(igraph
Edge
p1610
(dp1611
g7
I1
sg8
I00
sg9
I5
sg10
(lp1612
g338
ag446
asg26
I00
sg27
I00
sg28
I5938765
sg20
S'14406.4824979'
p1613
sba(igraph
Edge
p1614
(dp1615
g7
I1
sg8
I00
sg9
I5
sg10
(lp1616
g341
ag446
asg26
I00
sg27
I00
sg28
I5938766
sg20
S'14406.4896418'
p1617
sba(igraph
Edge
p1618
(dp1619
g7
I1
sg8
I00
sg9
I5
sg10
(lp1620
g348
ag460
asg26
I00
sg27
I00
sg28
I5938767
sg20
S'14406.4966366'
p1621
sba(igraph
Edge
p1622
(dp1623
g7
I1
sg8
I00
sg9
I5
sg10
(lp1624
g355
ag460
asg26
I00
sg27
I00
sg28
I5938768
sg20
S'14406.5038987'
p1625
sba(igraph
Edge
p1626
(dp1627
g7
I1
sg8
I00
sg9
I5
sg10
(lp1628
g362
ag474
asg26
I00
sg27
I00
sg28
I5938769
sg20
S'14406.5108993'
p1629
sba(igraph
Edge
p1630
(dp1631
g7
I1
sg8
I00
sg9
I5
sg10
(lp1632
g369
ag474
asg26
I00
sg27
I00
sg28
I5938770
sg20
S'14406.5172403'
p1633
sba(igraph
Edge
p1634
(dp1635
g7
I1
sg8
I00
sg9
I5
sg10
(lp1636
g376
ag488
asg26
I00
sg27
I00
sg28
I5938771
sg20
S'14406.5235906'
p1637
sba(igraph
Edge
p1638
(dp1639
g7
I1
sg8
I00
sg9
I5
sg10
(lp1640
g383
ag488
asg26
I00
sg27
I00
sg28
I5938772
sg20
S'14406.5300389'
p1641
sba(igraph
Edge
p1642
(dp1643
g7
I1
sg8
I00
sg9
I5
sg10
(lp1644
g390
ag502
asg26
I00
sg27
I00
sg28
I5938773
sg20
S'14406.5364682'
p1645
sba(igraph
Edge
p1646
(dp1647
g7
I1
sg8
I00
sg9
I5
sg10
(lp1648
g397
ag502
asg26
I00
sg27
I00
sg28
I5938774
sg20
S'14406.5429143'
p1649
sba(igraph
Edge
p1650
(dp1651
g7
I1
sg8
I00
sg9
I5
sg10
(lp1652
g404
ag516
asg26
I00
sg27
I00
sg28
I5938775
sg20
S'14406.5493899'
p1653
sba(igraph
Edge
p1654
(dp1655
g7
I1
sg8
I00
sg9
I5
sg10
(lp1656
g411
ag516
asg26
I00
sg27
I00
sg28
I5938776
sg20
S'14406.5560383'
p1657
sba(igraph
Edge
p1658
(dp1659
g7
I1
sg8
I00
sg9
I5
sg10
(lp1660
g418
ag530
asg26
I00
sg27
I00
sg28
I5938777
sg20
S'14406.5625938'
p1661
sba(igraph
Edge
p1662
(dp1663
g7
I1
sg8
I00
sg9
I5
sg10
(lp1664
g425
ag530
asg26
I00
sg27
I00
sg28
I5938778
sg20
S'14406.5691134'
p1665
sba(igraph
Edge
p1666
(dp1667
g7
I1
sg8
I00
sg9
I5
sg10
(lp1668
g432
ag443
asg26
I00
sg27
I00
sg28
I5938779
sg20
S'14406.5757564'
p1669
sba(igraph
Edge
p1670
(dp1671
g7
I1
sg8
I00
sg9
I5
sg10
(lp1672
g443
ag548
asg26
I00
sg27
I00
sg28
I5938780
sg20
S'14406.5824447'
p1673
sba(igraph
Edge
p1674
(dp1675
g7
I1
sg8
I00
sg9
I5
sg10
(lp1676
g446
ag558
asg26
I00
sg27
I00
sg28
I5938781
sg20
S'14406.5913073'
p1677
sba(igraph
Edge
p1678
(dp1679
g7
I1
sg8
I00
sg9
I5
sg10
(lp1680
g453
ag558
asg26
I00
sg27
I00
sg28
I5938782
sg20
S'14406.5988057'
p1681
sba(igraph
Edge
p1682
(dp1683
g7
I1
sg8
I00
sg9
I5
sg10
(lp1684
g460
ag572
asg26
I00
sg27
I00
sg28
I5938783
sg20
S'14406.6060902'
p1685
sba(igraph
Edge
p1686
(dp1687
g7
I1
sg8
I00
sg9
I5
sg10
(lp1688
g467
ag572
asg26
I00
sg27
I00
sg28
I5938784
sg20
S'14406.6132754'
p1689
sba(igraph
Edge
p1690
(dp1691
g7
I1
sg8
I00
sg9
I5
sg10
(lp1692
g474
ag586
asg26
I00
sg27
I00
sg28
I5938785
sg20
S'14406.6206532'
p1693
sba(igraph
Edge
p1694
(dp1695
g7
I1
sg8
I00
sg9
I5
sg10
(lp1696
g481
ag586
asg26
I00
sg27
I00
sg28
I5938786
sg20
S'14406.6280628'
p1697
sba(igraph
Edge
p1698
(dp1699
g7
I1
sg8
I00
sg9
I5
sg10
(lp1700
g488
ag600
asg26
I00
sg27
I00
sg28
I5938787
sg20
S'14406.6356791'
p1701
sba(igraph
Edge
p1702
(dp1703
g7
I1
sg8
I00
sg9
I5
sg10
(lp1704
g495
ag600
asg26
I00
sg27
I00
sg28
I5938788
sg20
S'14406.6430544'
p1705
sba(igraph
Edge
p1706
(dp1707
g7
I1
sg8
I00
sg9
I5
sg10
(lp1708
g502
ag614
asg26
I00
sg27
I00
sg28
I5938789
sg20
S'14406.6502122'
p1709
sba(igraph
Edge
p1710
(dp1711
g7
I1
sg8
I00
sg9
I5
sg10
(lp1712
g509
ag614
asg26
I00
sg27
I00
sg28
I5938790
sg20
S'14406.6577177'
p1713
sba(igraph
Edge
p1714
(dp1715
g7
I1
sg8
I00
sg9
I5
sg10
(lp1716
g516
ag628
asg26
I00
sg27
I00
sg28
I5938791
sg20
S'14406.6675692'
p1717
sba(igraph
Edge
p1718
(dp1719
g7
I1
sg8
I00
sg9
I5
sg10
(lp1720
g523
ag628
asg26
I00
sg27
I00
sg28
I5938792
sg20
S'14406.6751618'
p1721
sba(igraph
Edge
p1722
(dp1723
g7
I1
sg8
I00
sg9
I5
sg10
(lp1724
g530
ag642
asg26
I00
sg27
I00
sg28
I5938793
sg20
S'14406.6826672'
p1725
sba(igraph
Edge
p1726
(dp1727
g7
I1
sg8
I00
sg9
I5
sg10
(lp1728
g537
ag642
asg26
I00
sg27
I00
sg28
I5938794
sg20
S'14406.6915837'
p1729
sba(igraph
Edge
p1730
(dp1731
g7
I1
sg8
I00
sg9
I5
sg10
(lp1732
g443
ag551
asg26
I00
sg27
I00
sg28
I5938795
sg20
S'14406.7001851'
p1733
sba(igraph
Edge
p1734
(dp1735
g7
I1
sg8
I00
sg9
I5
sg10
(lp1736
g446
ag551
asg26
I00
sg27
I00
sg28
I5938796
sg20
S'14406.7092055'
p1737
sba(igraph
Edge
p1738
(dp1739
g7
I1
sg8
I00
sg9
I5
sg10
(lp1740
g453
ag565
asg26
I00
sg27
I00
sg28
I5938797
sg20
S'14406.7189875'
p1741
sba(igraph
Edge
p1742
(dp1743
g7
I1
sg8
I00
sg9
I5
sg10
(lp1744
g460
ag565
asg26
I00
sg27
I00
sg28
I5938798
sg20
S'14406.7281322'
p1745
sba(igraph
Edge
p1746
(dp1747
g7
I1
sg8
I00
sg9
I5
sg10
(lp1748
g467
ag579
asg26
I00
sg27
I00
sg28
I5938799
sg20
S'14406.7370956'
p1749
sba(igraph
Edge
p1750
(dp1751
g7
I1
sg8
I00
sg9
I5
sg10
(lp1752
g474
ag579
asg26
I00
sg27
I00
sg28
I5938800
sg20
S'14406.7450466'
p1753
sba(igraph
Edge
p1754
(dp1755
g7
I1
sg8
I00
sg9
I5
sg10
(lp1756
g481
ag593
asg26
I00
sg27
I00
sg28
I5938801
sg20
S'14406.7529477'
p1757
sba(igraph
Edge
p1758
(dp1759
g7
I1
sg8
I00
sg9
I5
sg10
(lp1760
g488
ag593
asg26
I00
sg27
I00
sg28
I5938802
sg20
S'14406.7609389'
p1761
sba(igraph
Edge
p1762
(dp1763
g7
I1
sg8
I00
sg9
I5
sg10
(lp1764
g495
ag607
asg26
I00
sg27
I00
sg28
I5938803
sg20
S'14406.7694003'
p1765
sba(igraph
Edge
p1766
(dp1767
g7
I1
sg8
I00
sg9
I5
sg10
(lp1768
g502
ag607
asg26
I00
sg27
I00
sg28
I5938804
sg20
S'14406.7796773'
p1769
sba(igraph
Edge
p1770
(dp1771
g7
I1
sg8
I00
sg9
I5
sg10
(lp1772
g509
ag621
asg26
I00
sg27
I00
sg28
I5938805
sg20
S'14406.7874498'
p1773
sba(igraph
Edge
p1774
(dp1775
g7
I1
sg8
I00
sg9
I5
sg10
(lp1776
g516
ag621
asg26
I00
sg27
I00
sg28
I5938806
sg20
S'14406.7951083'
p1777
sba(igraph
Edge
p1778
(dp1779
g7
I1
sg8
I00
sg9
I5
sg10
(lp1780
g523
ag635
asg26
I00
sg27
I00
sg28
I5938807
sg20
S'14406.8033853'
p1781
sba(igraph
Edge
p1782
(dp1783
g7
I1
sg8
I00
sg9
I5
sg10
(lp1784
g530
ag635
asg26
I00
sg27
I00
sg28
I5938808
sg20
S'14406.8122021'
p1785
sba(igraph
Edge
p1786
(dp1787
g7
I1
sg8
I00
sg9
I5
sg10
(lp1788
g537
ag548
asg26
I00
sg27
I00
sg28
I5938809
sg20
S'14406.8208239'
p1789
sba(igraph
Edge
p1790
(dp1791
g7
I1
sg8
I00
sg9
I5
sg10
(lp1792
g548
ag653
asg26
I00
sg27
I00
sg28
I5938810
sg20
S'14406.8299985'
p1793
sba(igraph
Edge
p1794
(dp1795
g7
I1
sg8
I00
sg9
I5
sg10
(lp1796
g551
ag663
asg26
I00
sg27
I00
sg28
I5938811
sg20
S'14406.8395665'
p1797
sba(igraph
Edge
p1798
(dp1799
g7
I1
sg8
I00
sg9
I5
sg10
(lp1800
g558
ag663
asg26
I00
sg27
I00
sg28
I5938812
sg20
S'14406.849161'
p1801
sba(igraph
Edge
p1802
(dp1803
g7
I1
sg8
I00
sg9
I5
sg10
(lp1804
g565
ag677
asg26
I00
sg27
I00
sg28
I5938813
sg20
S'14406.8593182'
p1805
sba(igraph
Edge
p1806
(dp1807
g7
I1
sg8
I00
sg9
I5
sg10
(lp1808
g572
ag677
asg26
I00
sg27
I00
sg28
I5938814
sg20
S'14406.8676558'
p1809
sba(igraph
Edge
p1810
(dp1811
g7
I1
sg8
I00
sg9
I5
sg10
(lp1812
g579
ag691
asg26
I00
sg27
I00
sg28
I5938815
sg20
S'14406.8769997'
p1813
sba(igraph
Edge
p1814
(dp1815
g7
I1
sg8
I00
sg9
I5
sg10
(lp1816
g586
ag691
asg26
I00
sg27
I00
sg28
I5938816
sg20
S'14406.8852282'
p1817
sba(igraph
Edge
p1818
(dp1819
g7
I1
sg8
I00
sg9
I5
sg10
(lp1820
g593
ag705
asg26
I00
sg27
I00
sg28
I5938817
sg20
S'14406.8933412'
p1821
sba(igraph
Edge
p1822
(dp1823
g7
I1
sg8
I00
sg9
I5
sg10
(lp1824
g600
ag705
asg26
I00
sg27
I00
sg28
I5938818
sg20
S'14406.901459'
p1825
sba(igraph
Edge
p1826
(dp1827
g7
I1
sg8
I00
sg9
I5
sg10
(lp1828
g607
ag719
asg26
I00
sg27
I00
sg28
I5938819
sg20
S'14406.9094924'
p1829
sba(igraph
Edge
p1830
(dp1831
g7
I1
sg8
I00
sg9
I5
sg10
(lp1832
g614
ag719
asg26
I00
sg27
I00
sg28
I5938820
sg20
S'14406.9176214'
p1833
sba(igraph
Edge
p1834
(dp1835
g7
I1
sg8
I00
sg9
I5
sg10
(lp1836
g621
ag733
asg26
I00
sg27
I00
sg28
I5938821
sg20
S'14406.9257375'
p1837
sba(igraph
Edge
p1838
(dp1839
g7
I1
sg8
I00
sg9
I5
sg10
(lp1840
g628
ag733
asg26
I00
sg27
I00
sg28
I5938822
sg20
S'14406.9341483'
p1841
sba(igraph
Edge
p1842
(dp1843
g7
I1
sg8
I00
sg9
I5
sg10
(lp1844
g635
ag747
asg26
I00
sg27
I00
sg28
I5938823
sg20
S'14406.9431897'
p1845
sba(igraph
Edge
p1846
(dp1847
g7
I1
sg8
I00
sg9
I5
sg10
(lp1848
g642
ag747
asg26
I00
sg27
I00
sg28
I5938824
sg20
S'14406.9512237'
p1849
sba(igraph
Edge
p1850
(dp1851
g7
I1
sg8
I00
sg9
I5
sg10
(lp1852
g548
ag656
asg26
I00
sg27
I00
sg28
I5938825
sg20
S'14406.9591306'
p1853
sba(igraph
Edge
p1854
(dp1855
g7
I1
sg8
I00
sg9
I5
sg10
(lp1856
g551
ag656
asg26
I00
sg27
I00
sg28
I5938826
sg20
S'14406.9681457'
p1857
sba(igraph
Edge
p1858
(dp1859
g7
I1
sg8
I00
sg9
I5
sg10
(lp1860
g558
ag670
asg26
I00
sg27
I00
sg28
I5938827
sg20
S'14406.9791359'
p1861
sba(igraph
Edge
p1862
(dp1863
g7
I1
sg8
I00
sg9
I5
sg10
(lp1864
g565
ag670
asg26
I00
sg27
I00
sg28
I5938828
sg20
S'14406.9889262'
p1865
sba(igraph
Edge
p1866
(dp1867
g7
I1
sg8
I00
sg9
I5
sg10
(lp1868
g572
ag684
asg26
I00
sg27
I00
sg28
I5938829
sg20
S'14406.998804'
p1869
sba(igraph
Edge
p1870
(dp1871
g7
I1
sg8
I00
sg9
I5
sg10
(lp1872
g579
ag684
asg26
I00
sg27
I00
sg28
I5938830
sg20
S'14407.0087117'
p1873
sba(igraph
Edge
p1874
(dp1875
g7
I1
sg8
I00
sg9
I5
sg10
(lp1876
g586
ag698
asg26
I00
sg27
I00
sg28
I5938831
sg20
S'14407.0189734'
p1877
sba(igraph
Edge
p1878
(dp1879
g7
I1
sg8
I00
sg9
I5
sg10
(lp1880
g593
ag698
asg26
I00
sg27
I00
sg28
I5938832
sg20
S'14407.0274362'
p1881
sba(igraph
Edge
p1882
(dp1883
g7
I1
sg8
I00
sg9
I5
sg10
(lp1884
g600
ag712
asg26
I00
sg27
I00
sg28
I5938833
sg20
S'14407.0363781'
p1885
sba(igraph
Edge
p1886
(dp1887
g7
I1
sg8
I00
sg9
I5
sg10
(lp1888
g607
ag712
asg26
I00
sg27
I00
sg28
I5938834
sg20
S'14407.0446688'
p1889
sba(igraph
Edge
p1890
(dp1891
g7
I1
sg8
I00
sg9
I5
sg10
(lp1892
g614
ag726
asg26
I00
sg27
I00
sg28
I5938835
sg20
S'14407.0530034'
p1893
sba(igraph
Edge
p1894
(dp1895
g7
I1
sg8
I00
sg9
I5
sg10
(lp1896
g621
ag726
asg26
I00
sg27
I00
sg28
I5938836
sg20
S'14407.0614355'
p1897
sba(igraph
Edge
p1898
(dp1899
g7
I1
sg8
I00
sg9
I5
sg10
(lp1900
g628
ag740
asg26
I00
sg27
I00
sg28
I5938837
sg20
S'14407.0702128'
p1901
sba(igraph
Edge
p1902
(dp1903
g7
I1
sg8
I00
sg9
I5
sg10
(lp1904
g635
ag740
asg26
I00
sg27
I00
sg28
I5938838
sg20
S'14407.0792238'
p1905
sba(igraph
Edge
p1906
(dp1907
g7
I1
sg8
I00
sg9
I5
sg10
(lp1908
g642
ag653
asg26
I00
sg27
I00
sg28
I5938839
sg20
S'14407.0884383'
p1909
sba(igraph
Edge
p1910
(dp1911
g7
I1
sg8
I00
sg9
I5
sg10
(lp1912
g653
ag758
asg26
I00
sg27
I00
sg28
I5938840
sg20
S'14407.0980044'
p1913
sba(igraph
Edge
p1914
(dp1915
g7
I1
sg8
I00
sg9
I5
sg10
(lp1916
g656
ag768
asg26
I00
sg27
I00
sg28
I5938841
sg20
S'14407.1084917'
p1917
sba(igraph
Edge
p1918
(dp1919
g7
I1
sg8
I00
sg9
I5
sg10
(lp1920
g663
ag768
asg26
I00
sg27
I00
sg28
I5938842
sg20
S'14407.1188564'
p1921
sba(igraph
Edge
p1922
(dp1923
g7
I1
sg8
I00
sg9
I5
sg10
(lp1924
g670
ag782
asg26
I00
sg27
I00
sg28
I5938843
sg20
S'14407.1288789'
p1925
sba(igraph
Edge
p1926
(dp1927
g7
I1
sg8
I00
sg9
I5
sg10
(lp1928
g677
ag782
asg26
I00
sg27
I00
sg28
I5938844
sg20
S'14407.1391202'
p1929
sba(igraph
Edge
p1930
(dp1931
g7
I1
sg8
I00
sg9
I5
sg10
(lp1932
g684
ag796
asg26
I00
sg27
I00
sg28
I5938845
sg20
S'14407.1481736'
p1933
sba(igraph
Edge
p1934
(dp1935
g7
I1
sg8
I00
sg9
I5
sg10
(lp1936
g691
ag796
asg26
I00
sg27
I00
sg28
I5938846
sg20
S'14407.1585433'
p1937
sba(igraph
Edge
p1938
(dp1939
g7
I1
sg8
I00
sg9
I5
sg10
(lp1940
g698
ag810
asg26
I00
sg27
I00
sg28
I5938847
sg20
S'14407.1675132'
p1941
sba(igraph
Edge
p1942
(dp1943
g7
I1
sg8
I00
sg9
I5
sg10
(lp1944
g705
ag810
asg26
I00
sg27
I00
sg28
I5938848
sg20
S'14407.1764266'
p1945
sba(igraph
Edge
p1946
(dp1947
g7
I1
sg8
I00
sg9
I5
sg10
(lp1948
g712
ag824
asg26
I00
sg27
I00
sg28
I5938849
sg20
S'14407.1851487'
p1949
sba(igraph
Edge
p1950
(dp1951
g7
I1
sg8
I00
sg9
I5
sg10
(lp1952
g719
ag824
asg26
I00
sg27
I00
sg28
I5938850
sg20
S'14407.1940347'
p1953
sba(igraph
Edge
p1954
(dp1955
g7
I1
sg8
I00
sg9
I5
sg10
(lp1956
g726
ag838
asg26
I00
sg27
I00
sg28
I5938851
sg20
S'14407.2023679'
p1957
sba(igraph
Edge
p1958
(dp1959
g7
I1
sg8
I00
sg9
I5
sg10
(lp1960
g733
ag838
asg26
I00
sg27
I00
sg28
I5938852
sg20
S'14407.2105952'
p1961
sba(igraph
Edge
p1962
(dp1963
g7
I1
sg8
I00
sg9
I5
sg10
(lp1964
g740
ag852
asg26
I00
sg27
I00
sg28
I5938853
sg20
S'14407.2188281'
p1965
sba(igraph
Edge
p1966
(dp1967
g7
I1
sg8
I00
sg9
I5
sg10
(lp1968
g747
ag852
asg26
I00
sg27
I00
sg28
I5938854
sg20
S'14407.2270761'
p1969
sba(igraph
Edge
p1970
(dp1971
g7
I1
sg8
I00
sg9
I5
sg10
(lp1972
g653
ag761
asg26
I00
sg27
I00
sg28
I5938855
sg20
S'14407.2354769'
p1973
sba(igraph
Edge
p1974
(dp1975
g7
I1
sg8
I00
sg9
I5
sg10
(lp1976
g656
ag761
asg26
I00
sg27
I00
sg28
I5938856
sg20
S'14407.2436438'
p1977
sba(igraph
Edge
p1978
(dp1979
g7
I1
sg8
I00
sg9
I5
sg10
(lp1980
g663
ag775
asg26
I00
sg27
I00
sg28
I5938857
sg20
S'14407.2520264'
p1981
sba(igraph
Edge
p1982
(dp1983
g7
I1
sg8
I00
sg9
I5
sg10
(lp1984
g670
ag775
asg26
I00
sg27
I00
sg28
I5938858
sg20
S'14407.2603929'
p1985
sba(igraph
Edge
p1986
(dp1987
g7
I1
sg8
I00
sg9
I5
sg10
(lp1988
g677
ag789
asg26
I00
sg27
I00
sg28
I5938859
sg20
S'14407.2688509'
p1989
sba(igraph
Edge
p1990
(dp1991
g7
I1
sg8
I00
sg9
I5
sg10
(lp1992
g684
ag789
asg26
I00
sg27
I00
sg28
I5938860
sg20
S'14407.2772372'
p1993
sba(igraph
Edge
p1994
(dp1995
g7
I1
sg8
I00
sg9
I5
sg10
(lp1996
g691
ag803
asg26
I00
sg27
I00
sg28
I5938861
sg20
S'14407.2857285'
p1997
sba(igraph
Edge
p1998
(dp1999
g7
I1
sg8
I00
sg9
I5
sg10
(lp2000
g698
ag803
asg26
I00
sg27
I00
sg28
I5938862
sg20
S'14407.295118'
p2001
sba(igraph
Edge
p2002
(dp2003
g7
I1
sg8
I00
sg9
I5
sg10
(lp2004
g705
ag817
asg26
I00
sg27
I00
sg28
I5938863
sg20
S'14407.303566'
p2005
sba(igraph
Edge
p2006
(dp2007
g7
I1
sg8
I00
sg9
I5
sg10
(lp2008
g712
ag817
asg26
I00
sg27
I00
sg28
I5938864
sg20
S'14407.3121126'
p2009
sba(igraph
Edge
p2010
(dp2011
g7
I1
sg8
I00
sg9
I5
sg10
(lp2012
g719
ag831
asg26
I00
sg27
I00
sg28
I5938865
sg20
S'14407.320496'
p2013
sba(igraph
Edge
p2014
(dp2015
g7
I1
sg8
I00
sg9
I5
sg10
(lp2016
g726
ag831
asg26
I00
sg27
I00
sg28
I5938866
sg20
S'14407.329041'
p2017
sba(igraph
Edge
p2018
(dp2019
g7
I1
sg8
I00
sg9
I5
sg10
(lp2020
g733
ag845
asg26
I00
sg27
I00
sg28
I5938867
sg20
S'14407.3376764'
p2021
sba(igraph
Edge
p2022
(dp2023
g7
I1
sg8
I00
sg9
I5
sg10
(lp2024
g740
ag845
asg26
I00
sg27
I00
sg28
I5938868
sg20
S'14407.3461987'
p2025
sba(igraph
Edge
p2026
(dp2027
g7
I1
sg8
I00
sg9
I5
sg10
(lp2028
g747
ag758
asg26
I00
sg27
I00
sg28
I5938869
sg20
S'14407.3546945'
p2029
sba(igraph
Edge
p2030
(dp2031
g7
I1
sg8
I00
sg9
I5
sg10
(lp2032
g758
ag863
asg26
I00
sg27
I00
sg28
I5938870
sg20
S'14407.3631674'
p2033
sba(igraph
Edge
p2034
(dp2035
g7
I1
sg8
I00
sg9
I5
sg10
(lp2036
g761
ag873
asg26
I00
sg27
I00
sg28
I5938871
sg20
S'14407.3717257'
p2037
sba(igraph
Edge
p2038
(dp2039
g7
I1
sg8
I00
sg9
I5
sg10
(lp2040
g768
ag873
asg26
I00
sg27
I00
sg28
I5938872
sg20
S'14407.3802377'
p2041
sba(igraph
Edge
p2042
(dp2043
g7
I1
sg8
I00
sg9
I5
sg10
(lp2044
g775
ag887
asg26
I00
sg27
I00
sg28
I5938873
sg20
S'14407.388917'
p2045
sba(igraph
Edge
p2046
(dp2047
g7
I1
sg8
I00
sg9
I5
sg10
(lp2048
g782
ag887
asg26
I00
sg27
I00
sg28
I5938874
sg20
S'14407.3974768'
p2049
sba(igraph
Edge
p2050
(dp2051
g7
I1
sg8
I00
sg9
I5
sg10
(lp2052
g789
ag901
asg26
I00
sg27
I00
sg28
I5938875
sg20
S'14407.4061131'
p2053
sba(igraph
Edge
p2054
(dp2055
g7
I1
sg8
I00
sg9
I5
sg10
(lp2056
g796
ag901
asg26
I00
sg27
I00
sg28
I5938876
sg20
S'14407.4148491'
p2057
sba(igraph
Edge
p2058
(dp2059
g7
I1
sg8
I00
sg9
I5
sg10
(lp2060
g803
ag915
asg26
I00
sg27
I00
sg28
I5938877
sg20
S'14407.4234896'
p2061
sba(igraph
Edge
p2062
(dp2063
g7
I1
sg8
I00
sg9
I5
sg10
(lp2064
g810
ag915
asg26
I00
sg27
I00
sg28
I5938878
sg20
S'14407.4321424'
p2065
sba(igraph
Edge
p2066
(dp2067
g7
I1
sg8
I00
sg9
I5
sg10
(lp2068
g817
ag929
asg26
I00
sg27
I00
sg28
I5938879
sg20
S'14407.4410304'
p2069
sba(igraph
Edge
p2070
(dp2071
g7
I1
sg8
I00
sg9
I5
sg10
(lp2072
g824
ag929
asg26
I00
sg27
I00
sg28
I5938880
sg20
S'14407.4498139'
p2073
sba(igraph
Edge
p2074
(dp2075
g7
I1
sg8
I00
sg9
I5
sg10
(lp2076
g831
ag943
asg26
I00
sg27
I00
sg28
I5938881
sg20
S'14407.4586368'
p2077
sba(igraph
Edge
p2078
(dp2079
g7
I1
sg8
I00
sg9
I5
sg10
(lp2080
g838
ag943
asg26
I00
sg27
I00
sg28
I5938882
sg20
S'14407.4674697'
p2081
sba(igraph
Edge
p2082
(dp2083
g7
I1
sg8
I00
sg9
I5
sg10
(lp2084
g845
ag957
asg26
I00
sg27
I00
sg28
I5938883
sg20
S'14407.476417'
p2085
sba(igraph
Edge
p2086
(dp2087
g7
I1
sg8
I00
sg9
I5
sg10
(lp2088
g852
ag957
asg26
I00
sg27
I00
sg28
I5938884
sg20
S'14407.4857953'
p2089
sba(igraph
Edge
p2090
(dp2091
g7
I1
sg8
I00
sg9
I5
sg10
(lp2092
g758
ag866
asg26
I00
sg27
I00
sg28
I5938885
sg20
S'14407.4945374'
p2093
sba(igraph
Edge
p2094
(dp2095
g7
I1
sg8
I00
sg9
I5
sg10
(lp2096
g761
ag866
asg26
I00
sg27
I00
sg28
I5938886
sg20
S'14407.5034442'
p2097
sba(igraph
Edge
p2098
(dp2099
g7
I1
sg8
I00
sg9
I5
sg10
(lp2100
g768
ag880
asg26
I00
sg27
I00
sg28
I5938887
sg20
S'14407.5123897'
p2101
sba(igraph
Edge
p2102
(dp2103
g7
I1
sg8
I00
sg9
I5
sg10
(lp2104
g775
ag880
asg26
I00
sg27
I00
sg28
I5938888
sg20
S'14407.5212107'
p2105
sba(igraph
Edge
p2106
(dp2107
g7
I1
sg8
I00
sg9
I5
sg10
(lp2108
g782
ag894
asg26
I00
sg27
I00
sg28
I5938889
sg20
S'14407.5301146'
p2109
sba(igraph
Edge
p2110
(dp2111
g7
I1
sg8
I00
sg9
I5
sg10
(lp2112
g789
ag894
asg26
I00
sg27
I00
sg28
I5938890
sg20
S'14407.5392333'
p2113
sba(igraph
Edge
p2114
(dp2115
g7
I1
sg8
I00
sg9
I5
sg10
(lp2116
g796
ag908
asg26
I00
sg27
I00
sg28
I5938891
sg20
S'14407.5482169'
p2117
sba(igraph
Edge
p2118
(dp2119
g7
I1
sg8
I00
sg9
I5
sg10
(lp2120
g803
ag908
asg26
I00
sg27
I00
sg28
I5938892
sg20
S'14407.5571904'
p2121
sba(igraph
Edge
p2122
(dp2123
g7
I1
sg8
I00
sg9
I5
sg10
(lp2124
g810
ag922
asg26
I00
sg27
I00
sg28
I5938893
sg20
S'14407.5662479'
p2125
sba(igraph
Edge
p2126
(dp2127
g7
I1
sg8
I00
sg9
I5
sg10
(lp2128
g817
ag922
asg26
I00
sg27
I00
sg28
I5938894
sg20
S'14407.5756908'
p2129
sba(igraph
Edge
p2130
(dp2131
g7
I1
sg8
I00
sg9
I5
sg10
(lp2132
g824
ag936
asg26
I00
sg27
I00
sg28
I5938895
sg20
S'14407.5848743'
p2133
sba(igraph
Edge
p2134
(dp2135
g7
I1
sg8
I00
sg9
I5
sg10
(lp2136
g831
ag936
asg26
I00
sg27
I00
sg28
I5938896
sg20
S'14407.594625'
p2137
sba(igraph
Edge
p2138
(dp2139
g7
I1
sg8
I00
sg9
I5
sg10
(lp2140
g838
ag950
asg26
I00
sg27
I00
sg28
I5938897
sg20
S'14407.6040371'
p2141
sba(igraph
Edge
p2142
(dp2143
g7
I1
sg8
I00
sg9
I5
sg10
(lp2144
g845
ag950
asg26
I00
sg27
I00
sg28
I5938898
sg20
S'14407.6133604'
p2145
sba(igraph
Edge
p2146
(dp2147
g7
I1
sg8
I00
sg9
I5
sg10
(lp2148
g852
ag863
asg26
I00
sg27
I00
sg28
I5938899
sg20
S'14407.6228976'
p2149
sba(igraph
Edge
p2150
(dp2151
g7
I1
sg8
I00
sg9
I5
sg10
(lp2152
g863
ag968
asg26
I00
sg27
I00
sg28
I5938900
sg20
S'14407.6322362'
p2153
sba(igraph
Edge
p2154
(dp2155
g7
I1
sg8
I00
sg9
I5
sg10
(lp2156
g866
ag978
asg26
I00
sg27
I00
sg28
I5938901
sg20
S'14407.6414977'
p2157
sba(igraph
Edge
p2158
(dp2159
g7
I1
sg8
I00
sg9
I5
sg10
(lp2160
g873
ag978
asg26
I00
sg27
I00
sg28
I5938902
sg20
S'14407.6509562'
p2161
sba(igraph
Edge
p2162
(dp2163
g7
I1
sg8
I00
sg9
I5
sg10
(lp2164
g880
ag992
asg26
I00
sg27
I00
sg28
I5938903
sg20
S'14407.6603577'
p2165
sba(igraph
Edge
p2166
(dp2167
g7
I1
sg8
I00
sg9
I5
sg10
(lp2168
g887
ag992
asg26
I00
sg27
I00
sg28
I5938904
sg20
S'14407.6699757'
p2169
sba(igraph
Edge
p2170
(dp2171
g7
I1
sg8
I00
sg9
I5
sg10
(lp2172
g894
ag1006
asg26
I00
sg27
I00
sg28
I5938905
sg20
S'14407.6793903'
p2173
sba(igraph
Edge
p2174
(dp2175
g7
I1
sg8
I00
sg9
I5
sg10
(lp2176
g901
ag1006
asg26
I00
sg27
I00
sg28
I5938906
sg20
S'14407.6889839'
p2177
sba(igraph
Edge
p2178
(dp2179
g7
I1
sg8
I00
sg9
I5
sg10
(lp2180
g908
ag1020
asg26
I00
sg27
I00
sg28
I5938907
sg20
S'14407.6984416'
p2181
sba(igraph
Edge
p2182
(dp2183
g7
I1
sg8
I00
sg9
I5
sg10
(lp2184
g915
ag1020
asg26
I00
sg27
I00
sg28
I5938908
sg20
S'14407.7079796'
p2185
sba(igraph
Edge
p2186
(dp2187
g7
I1
sg8
I00
sg9
I5
sg10
(lp2188
g922
ag1034
asg26
I00
sg27
I00
sg28
I5938909
sg20
S'14407.7175476'
p2189
sba(igraph
Edge
p2190
(dp2191
g7
I1
sg8
I00
sg9
I5
sg10
(lp2192
g929
ag1034
asg26
I00
sg27
I00
sg28
I5938910
sg20
S'14407.7270762'
p2193
sba(igraph
Edge
p2194
(dp2195
g7
I1
sg8
I00
sg9
I5
sg10
(lp2196
g936
ag1048
asg26
I00
sg27
I00
sg28
I5938911
sg20
S'14407.736616'
p2197
sba(igraph
Edge
p2198
(dp2199
g7
I1
sg8
I00
sg9
I5
sg10
(lp2200
g943
ag1048
asg26
I00
sg27
I00
sg28
I5938912
sg20
S'14407.7463127'
p2201
sba(igraph
Edge
p2202
(dp2203
g7
I1
sg8
I00
sg9
I5
sg10
(lp2204
g950
ag1062
asg26
I00
sg27
I00
sg28
I5938913
sg20
S'14407.7559765'
p2205
sba(igraph
Edge
p2206
(dp2207
g7
I1
sg8
I00
sg9
I5
sg10
(lp2208
g957
ag1062
asg26
I00
sg27
I00
sg28
I5938914
sg20
S'14407.7662843'
p2209
sba(igraph
Edge
p2210
(dp2211
g7
I1
sg8
I00
sg9
I5
sg10
(lp2212
g863
ag971
asg26
I00
sg27
I00
sg28
I5938915
sg20
S'14407.7759232'
p2213
sba(igraph
Edge
p2214
(dp2215
g7
I1
sg8
I00
sg9
I5
sg10
(lp2216
g866
ag971
asg26
I00
sg27
I00
sg28
I5938916
sg20
S'14407.785677'
p2217
sba(igraph
Edge
p2218
(dp2219
g7
I1
sg8
I00
sg9
I5
sg10
(lp2220
g873
ag985
asg26
I00
sg27
I00
sg28
I5938917
sg20
S'14407.7952765'
p2221
sba(igraph
Edge
p2222
(dp2223
g7
I1
sg8
I00
sg9
I5
sg10
(lp2224
g880
ag985
asg26
I00
sg27
I00
sg28
I5938918
sg20
S'14407.804952'
p2225
sba(igraph
Edge
p2226
(dp2227
g7
I1
sg8
I00
sg9
I5
sg10
(lp2228
g887
ag999
asg26
I00
sg27
I00
sg28
I5938919
sg20
S'14407.8145686'
p2229
sba(igraph
Edge
p2230
(dp2231
g7
I1
sg8
I00
sg9
I5
sg10
(lp2232
g894
ag999
asg26
I00
sg27
I00
sg28
I5938920
sg20
S'14407.8242472'
p2233
sba(igraph
Edge
p2234
(dp2235
g7
I1
sg8
I00
sg9
I5
sg10
(lp2236
g901
ag1013
asg26
I00
sg27
I00
sg28
I5938921
sg20
S'14407.8339336'
p2237
sba(igraph
Edge
p2238
(dp2239
g7
I1
sg8
I00
sg9
I5
sg10
(lp2240
g908
ag1013
asg26
I00
sg27
I00
sg28
I5938922
sg20
S'14407.8437894'
p2241
sba(igraph
Edge
p2242
(dp2243
g7
I1
sg8
I00
sg9
I5
sg10
(lp2244
g915
ag1027
asg26
I00
sg27
I00
sg28
I5938923
sg20
S'14407.853789'
p2245
sba(igraph
Edge
p2246
(dp2247
g7
I1
sg8
I00
sg9
I5
sg10
(lp2248
g922
ag1027
asg26
I00
sg27
I00
sg28
I5938924
sg20
S'14407.8637039'
p2249
sba(igraph
Edge
p2250
(dp2251
g7
I1
sg8
I00
sg9
I5
sg10
(lp2252
g929
ag1041
asg26
I00
sg27
I00
sg28
I5938925
sg20
S'14407.8740463'
p2253
sba(igraph
Edge
p2254
(dp2255
g7
I1
sg8
I00
sg9
I5
sg10
(lp2256
g936
ag1041
asg26
I00
sg27
I00
sg28
I5938926
sg20
S'14407.8839431'
p2257
sba(igraph
Edge
p2258
(dp2259
g7
I1
sg8
I00
sg9
I5
sg10
(lp2260
g943
ag1055
asg26
I00
sg27
I00
sg28
I5938927
sg20
S'14407.8938642'
p2261
sba(igraph
Edge
p2262
(dp2263
g7
I1
sg8
I00
sg9
I5
sg10
(lp2264
g950
ag1055
asg26
I00
sg27
I00
sg28
I5938928
sg20
S'14407.9037056'
p2265
sba(igraph
Edge
p2266
(dp2267
g7
I1
sg8
I00
sg9
I5
sg10
(lp2268
g957
ag968
asg26
I00
sg27
I00
sg28
I5938929
sg20
S'14407.9136876'
p2269
sbasS'vertices'
p2270
(lp2271
g12
ag23
ag33
ag40
ag47
ag54
ag61
ag68
ag75
ag82
ag89
ag96
ag103
ag110
ag117
ag128
ag131
ag138
ag145
ag152
ag159
ag166
ag173
ag180
ag187
ag194
ag201
ag208
ag215
ag222
ag233
ag236
ag243
ag250
ag257
ag264
ag271
ag278
ag285
ag292
ag299
ag306
ag313
ag320
ag327
ag338
ag341
ag348
ag355
ag362
ag369
ag376
ag383
ag390
ag397
ag404
ag411
ag418
ag425
ag432
ag443
ag446
ag453
ag460
ag467
ag474
ag481
ag488
ag495
ag502
ag509
ag516
ag523
ag530
ag537
ag548
ag551
ag558
ag565
ag572
ag579
ag586
ag593
ag600
ag607
ag614
ag621
ag628
ag635
ag642
ag653
ag656
ag663
ag670
ag677
ag684
ag691
ag698
ag705
ag712
ag719
ag726
ag733
ag740
ag747
ag758
ag761
ag768
ag775
ag782
ag789
ag796
ag803
ag810
ag817
ag824
ag831
ag838
ag845
ag852
ag863
ag866
ag873
ag880
ag887
ag894
ag901
ag908
ag915
ag922
ag929
ag936
ag943
ag950
ag957
ag968
ag971
ag978
ag985
ag992
ag999
ag1006
ag1013
ag1020
ag1027
ag1034
ag1041
ag1048
ag1055
ag1062
asS'tags'
p2272
(lp2273
sb.