(igraph
Graph
p0
(dp1
S'labelingConstraints'
p2
I-1
sS'edges'
p3
(lp4
(igraph
Edge
p5
(dp6
S'direction'
p7
I1
sS'selected'
p8
I00
sS'height'
p9
I5
sS'vs'
p10
(lp11
(igraph
Vertex
p12
(dp13
S'xnorm'
p14
F0.0
sg8
I00
sS'label'
p15
S'NULL'
p16
sS'y'
p17
F-307.0
sS'x'
p18
F302.0
sS'circle'
p19
I5803100
sS'id'
p20
S'14097.6185255'
p21
sS'ynorm'
p22
F0.0
sba(igraph
Vertex
p23
(dp24
g14
F0.071428571428571383
sg8
I00
sg15
g16
sg17
F-307.0
sg18
F258.57142857142861
sg19
I5803101
sg20
S'14097.6185507'
p25
sg22
F0.0
sbasS'wrap'
p26
I00
sS'curved'
p27
I00
sS'line'
p28
I5802515
sg20
S'14097.7774767'
p29
sba(igraph
Edge
p30
(dp31
g7
I1
sg8
I00
sg9
I5
sg10
(lp32
g23
a(igraph
Vertex
p33
(dp34
g14
F0.1428571428571429
sg8
I01
sg15
I0
sg17
F-307.0
sg18
F215.14285714285711
sg19
I5803103
sg20
S'14097.618573'
p35
sg22
F0.0
sbasg26
I00
sg27
I00
sg28
I5802516
sg20
S'14097.7775357'
p36
sba(igraph
Edge
p37
(dp38
g7
I1
sg8
I00
sg9
I5
sg10
(lp39
g33
a(igraph
Vertex
p40
(dp41
g14
F0.21428571428571438
sg8
I00
sg15
g16
sg17
F-307.0
sg18
F171.71428571428567
sg19
I5803105
sg20
S'14097.6186004'
p42
sg22
F0.0
sbasg26
I00
sg27
I00
sg28
I5802517
sg20
S'14097.7776148'
p43
sba(igraph
Edge
p44
(dp45
g7
I1
sg8
I00
sg9
I5
sg10
(lp46
g40
a(igraph
Vertex
p47
(dp48
g14
F0.2857142857142857
sg8
I00
sg15
g16
sg17
F-307.0
sg18
F128.28571428571431
sg19
I5803106
sg20
S'14097.6186345'
p49
sg22
F0.0
sbasg26
I00
sg27
I00
sg28
I5802518
sg20
S'14097.7777148'
p50
sba(igraph
Edge
p51
(dp52
g7
I1
sg8
I00
sg9
I5
sg10
(lp53
g47
a(igraph
Vertex
p54
(dp55
g14
F0.35714285714285715
sg8
I00
sg15
g16
sg17
F-307.0
sg18
F84.857142857142861
sg19
I5803107
sg20
S'14097.6186753'
p56
sg22
F0.0
sbasg26
I00
sg27
I00
sg28
I5802519
sg20
S'14097.7778368'
p57
sba(igraph
Edge
p58
(dp59
g7
I1
sg8
I00
sg9
I5
sg10
(lp60
g54
a(igraph
Vertex
p61
(dp62
g14
F0.4285714285714286
sg8
I00
sg15
g16
sg17
F-307.0
sg18
F41.428571428571388
sg19
I5803108
sg20
S'14097.6187256'
p63
sg22
F0.0
sbasg26
I00
sg27
I00
sg28
I5802520
sg20
S'14097.7779816'
p64
sba(igraph
Edge
p65
(dp66
g7
I1
sg8
I00
sg9
I5
sg10
(lp67
g61
a(igraph
Vertex
p68
(dp69
g14
F0.50000000000000011
sg8
I00
sg15
g16
sg17
F-307.0
sg18
F-2.0000000000000568
sg19
I5803109
sg20
S'14097.6187826'
p70
sg22
F0.0
sbasg26
I00
sg27
I00
sg28
I5802521
sg20
S'14097.7781464'
p71
sba(igraph
Edge
p72
(dp73
g7
I1
sg8
I00
sg9
I5
sg10
(lp74
g68
a(igraph
Vertex
p75
(dp76
g14
F0.57142857142857151
sg8
I00
sg15
g16
sg17
F-307.0
sg18
F-45.428571428571502
sg19
I5803110
sg20
S'14097.6188457'
p77
sg22
F0.0
sbasg26
I00
sg27
I00
sg28
I5802522
sg20
S'14097.7783336'
p78
sba(igraph
Edge
p79
(dp80
g7
I1
sg8
I00
sg9
I5
sg10
(lp81
g75
a(igraph
Vertex
p82
(dp83
g14
F0.64285714285714279
sg8
I00
sg15
g16
sg17
F-307.0
sg18
F-88.857142857142833
sg19
I5803111
sg20
S'14097.6189178'
p84
sg22
F0.0
sbasg26
I00
sg27
I00
sg28
I5802523
sg20
S'14097.7785417'
p85
sba(igraph
Edge
p86
(dp87
g7
I1
sg8
I00
sg9
I5
sg10
(lp88
g82
a(igraph
Vertex
p89
(dp90
g14
F0.71428571428571419
sg8
I00
sg15
g16
sg17
F-307.0
sg18
F-132.28571428571422
sg19
I5803112
sg20
S'14097.6189963'
p91
sg22
F0.0
sbasg26
I00
sg27
I00
sg28
I5802524
sg20
S'14097.7787727'
p92
sba(igraph
Edge
p93
(dp94
g7
I1
sg8
I00
sg9
I5
sg10
(lp95
g89
a(igraph
Vertex
p96
(dp97
g14
F0.78571428571428559
sg8
I00
sg15
g16
sg17
F-307.0
sg18
F-175.71428571428567
sg19
I5803113
sg20
S'14097.6190829'
p98
sg22
F0.0
sbasg26
I00
sg27
I00
sg28
I5802525
sg20
S'14097.7790253'
p99
sba(igraph
Edge
p100
(dp101
g7
I1
sg8
I00
sg9
I5
sg10
(lp102
g96
a(igraph
Vertex
p103
(dp104
g14
F0.8571428571428571
sg8
I00
sg15
g16
sg17
F-307.0
sg18
F-219.14285714285711
sg19
I5803114
sg20
S'14097.6191781'
p105
sg22
F0.0
sbasg26
I00
sg27
I00
sg28
I5802526
sg20
S'14097.7792982'
p106
sba(igraph
Edge
p107
(dp108
g7
I1
sg8
I00
sg9
I5
sg10
(lp109
g103
a(igraph
Vertex
p110
(dp111
g14
F0.92857142857142849
sg8
I00
sg15
g16
sg17
F-307.0
sg18
F-262.57142857142856
sg19
I5803115
sg20
S'14097.6192809'
p112
sg22
F0.0
sbasg26
I00
sg27
I00
sg28
I5802527
sg20
S'14097.7795929'
p113
sba(igraph
Edge
p114
(dp115
g7
I1
sg8
I00
sg9
I5
sg10
(lp116
g110
a(igraph
Vertex
p117
(dp118
g14
F1.0
sg8
I00
sg15
g16
sg17
F-307.0
sg18
F-306.0
sg19
I5803116
sg20
S'14097.619391'
p119
sg22
F0.0
sbasg26
I00
sg27
I00
sg28
I5802528
sg20
S'14097.7799109'
p120
sba(igraph
Edge
p121
(dp122
g7
I1
sg8
I00
sg9
I5
sg10
(lp123
g117
ag12
asg26
I00
sg27
I00
sg28
I5802529
sg20
S'14097.78025'
p124
sba(igraph
Edge
p125
(dp126
g7
I1
sg8
I00
sg9
I5
sg10
(lp127
(igraph
Vertex
p128
(dp129
g14
F0.0
sg8
I00
sg15
g16
sg17
F-260.5
sg18
F302.0
sg19
I5803117
sg20
S'14097.6195092'
p130
sg22
F0.083333333333333329
sba(igraph
Vertex
p131
(dp132
g14
F0.071428571428571383
sg8
I00
sg15
g16
sg17
F-260.5
sg18
F258.57142857142861
sg19
I5803118
sg20
S'14097.6196335'
p133
sg22
F0.083333333333333329
sbasg26
I00
sg27
I00
sg28
I5802530
sg20
S'14097.7806104'
p134
sba(igraph
Edge
p135
(dp136
g7
I1
sg8
I00
sg9
I5
sg10
(lp137
g131
a(igraph
Vertex
p138
(dp139
g14
F0.1428571428571429
sg8
I00
sg15
g16
sg17
F-260.5
sg18
F215.14285714285711
sg19
I5803119
sg20
S'14097.619767'
p140
sg22
F0.083333333333333329
sbasg26
I00
sg27
I00
sg28
I5802531
sg20
S'14097.7813339'
p141
sba(igraph
Edge
p142
(dp143
g7
I1
sg8
I00
sg9
I5
sg10
(lp144
g138
a(igraph
Vertex
p145
(dp146
g14
F0.21428571428571438
sg8
I00
sg15
g16
sg17
F-260.5
sg18
F171.71428571428567
sg19
I5803120
sg20
S'14097.6199104'
p147
sg22
F0.083333333333333329
sbasg26
I00
sg27
I00
sg28
I5802532
sg20
S'14097.7817513'
p148
sba(igraph
Edge
p149
(dp150
g7
I1
sg8
I00
sg9
I5
sg10
(lp151
g145
a(igraph
Vertex
p152
(dp153
g14
F0.2857142857142857
sg8
I01
sg15
I0
sg17
F-260.5
sg18
F128.28571428571431
sg19
I5803122
sg20
S'14097.6200587'
p154
sg22
F0.083333333333333329
sbasg26
I00
sg27
I00
sg28
I5802533
sg20
S'14097.7821785'
p155
sba(igraph
Edge
p156
(dp157
g7
I1
sg8
I00
sg9
I5
sg10
(lp158
g152
a(igraph
Vertex
p159
(dp160
g14
F0.35714285714285715
sg8
I00
sg15
g16
sg17
F-260.5
sg18
F84.857142857142861
sg19
I5803124
sg20
S'14097.6202149'
p161
sg22
F0.083333333333333329
sbasg26
I00
sg27
I00
sg28
I5802534
sg20
S'14097.7826299'
p162
sba(igraph
Edge
p163
(dp164
g7
I1
sg8
I00
sg9
I5
sg10
(lp165
g159
a(igraph
Vertex
p166
(dp167
g14
F0.4285714285714286
sg8
I00
sg15
g16
sg17
F-260.5
sg18
F41.428571428571388
sg19
I5803125
sg20
S'14097.62038'
p168
sg22
F0.083333333333333329
sbasg26
I00
sg27
I00
sg28
I5802535
sg20
S'14097.7831023'
p169
sba(igraph
Edge
p170
(dp171
g7
I1
sg8
I00
sg9
I5
sg10
(lp172
g166
a(igraph
Vertex
p173
(dp174
g14
F0.50000000000000011
sg8
I00
sg15
g16
sg17
F-260.5
sg18
F-2.0000000000000568
sg19
I5803126
sg20
S'14097.6205585'
p175
sg22
F0.083333333333333329
sbasg26
I00
sg27
I00
sg28
I5802536
sg20
S'14097.7835965'
p176
sba(igraph
Edge
p177
(dp178
g7
I1
sg8
I00
sg9
I5
sg10
(lp179
g173
a(igraph
Vertex
p180
(dp181
g14
F0.57142857142857151
sg8
I00
sg15
g16
sg17
F-260.5
sg18
F-45.428571428571502
sg19
I5803127
sg20
S'14097.6207378'
p182
sg22
F0.083333333333333329
sbasg26
I00
sg27
I00
sg28
I5802537
sg20
S'14097.7841119'
p183
sba(igraph
Edge
p184
(dp185
g7
I1
sg8
I00
sg9
I5
sg10
(lp186
g180
a(igraph
Vertex
p187
(dp188
g14
F0.64285714285714279
sg8
I00
sg15
g16
sg17
F-260.5
sg18
F-88.857142857142833
sg19
I5803128
sg20
S'14097.6209258'
p189
sg22
F0.083333333333333329
sbasg26
I00
sg27
I00
sg28
I5802538
sg20
S'14097.7846486'
p190
sba(igraph
Edge
p191
(dp192
g7
I1
sg8
I00
sg9
I5
sg10
(lp193
g187
a(igraph
Vertex
p194
(dp195
g14
F0.71428571428571419
sg8
I00
sg15
g16
sg17
F-260.5
sg18
F-132.28571428571422
sg19
I5803129
sg20
S'14097.6211214'
p196
sg22
F0.083333333333333329
sbasg26
I00
sg27
I00
sg28
I5802539
sg20
S'14097.7852071'
p197
sba(igraph
Edge
p198
(dp199
g7
I1
sg8
I00
sg9
I5
sg10
(lp200
g194
a(igraph
Vertex
p201
(dp202
g14
F0.78571428571428559
sg8
I00
sg15
g16
sg17
F-260.5
sg18
F-175.71428571428567
sg19
I5803130
sg20
S'14097.6213239'
p203
sg22
F0.083333333333333329
sbasg26
I00
sg27
I00
sg28
I5802540
sg20
S'14097.785789'
p204
sba(igraph
Edge
p205
(dp206
g7
I1
sg8
I00
sg9
I5
sg10
(lp207
g201
a(igraph
Vertex
p208
(dp209
g14
F0.8571428571428571
sg8
I00
sg15
g16
sg17
F-260.5
sg18
F-219.14285714285711
sg19
I5803131
sg20
S'14097.6215377'
p210
sg22
F0.083333333333333329
sbasg26
I00
sg27
I00
sg28
I5802541
sg20
S'14097.7863938'
p211
sba(igraph
Edge
p212
(dp213
g7
I1
sg8
I00
sg9
I5
sg10
(lp214
g208
a(igraph
Vertex
p215
(dp216
g14
F0.92857142857142849
sg8
I00
sg15
g16
sg17
F-260.5
sg18
F-262.57142857142856
sg19
I5803132
sg20
S'14097.6217572'
p217
sg22
F0.083333333333333329
sbasg26
I00
sg27
I00
sg28
I5802542
sg20
S'14097.7870185'
p218
sba(igraph
Edge
p219
(dp220
g7
I1
sg8
I00
sg9
I5
sg10
(lp221
g215
a(igraph
Vertex
p222
(dp223
g14
F1.0
sg8
I00
sg15
g16
sg17
F-260.5
sg18
F-306.0
sg19
I5803133
sg20
S'14097.6219844'
p224
sg22
F0.083333333333333329
sbasg26
I00
sg27
I00
sg28
I5802543
sg20
S'14097.7876658'
p225
sba(igraph
Edge
p226
(dp227
g7
I1
sg8
I00
sg9
I5
sg10
(lp228
g222
ag128
asg26
I00
sg27
I00
sg28
I5802544
sg20
S'14097.788334'
p229
sba(igraph
Edge
p230
(dp231
g7
I1
sg8
I00
sg9
I5
sg10
(lp232
(igraph
Vertex
p233
(dp234
g14
F0.0
sg8
I00
sg15
g16
sg17
F-214.0
sg18
F302.0
sg19
I5803134
sg20
S'14097.6222207'
p235
sg22
F0.16666666666666666
sba(igraph
Vertex
p236
(dp237
g14
F0.071428571428571383
sg8
I00
sg15
g16
sg17
F-214.0
sg18
F258.57142857142861
sg19
I5803135
sg20
S'14097.6224629'
p238
sg22
F0.16666666666666666
sbasg26
I00
sg27
I00
sg28
I5802545
sg20
S'14097.7890277'
p239
sba(igraph
Edge
p240
(dp241
g7
I1
sg8
I00
sg9
I5
sg10
(lp242
g236
a(igraph
Vertex
p243
(dp244
g14
F0.1428571428571429
sg8
I00
sg15
g16
sg17
F-214.0
sg18
F215.14285714285711
sg19
I5803136
sg20
S'14097.6227216'
p245
sg22
F0.16666666666666666
sbasg26
I00
sg27
I00
sg28
I5802546
sg20
S'14097.7897406'
p246
sba(igraph
Edge
p247
(dp248
g7
I1
sg8
I00
sg9
I5
sg10
(lp249
g243
a(igraph
Vertex
p250
(dp251
g14
F0.21428571428571438
sg8
I00
sg15
g16
sg17
F-214.0
sg18
F171.71428571428567
sg19
I5803137
sg20
S'14097.6229814'
p252
sg22
F0.16666666666666666
sbasg26
I00
sg27
I00
sg28
I5802547
sg20
S'14097.7904764'
p253
sba(igraph
Edge
p254
(dp255
g7
I1
sg8
I00
sg9
I5
sg10
(lp256
g250
a(igraph
Vertex
p257
(dp258
g14
F0.2857142857142857
sg8
I00
sg15
g16
sg17
F-214.0
sg18
F128.28571428571431
sg19
I5803138
sg20
S'14097.6232479'
p259
sg22
F0.16666666666666666
sbasg26
I00
sg27
I00
sg28
I5802548
sg20
S'14097.7912332'
p260
sba(igraph
Edge
p261
(dp262
g7
I1
sg8
I00
sg9
I5
sg10
(lp263
g257
a(igraph
Vertex
p264
(dp265
g14
F0.35714285714285715
sg8
I00
sg15
g16
sg17
F-214.0
sg18
F84.857142857142861
sg19
I5803139
sg20
S'14097.6235245'
p266
sg22
F0.16666666666666666
sbasg26
I00
sg27
I00
sg28
I5802549
sg20
S'14097.7920141'
p267
sba(igraph
Edge
p268
(dp269
g7
I1
sg8
I00
sg9
I5
sg10
(lp270
g264
a(igraph
Vertex
p271
(dp272
g14
F0.4285714285714286
sg8
I00
sg15
g16
sg17
F-214.0
sg18
F41.428571428571388
sg19
I5803140
sg20
S'14097.6238075'
p273
sg22
F0.16666666666666666
sbasg26
I00
sg27
I00
sg28
I5802550
sg20
S'14097.7928144'
p274
sba(igraph
Edge
p275
(dp276
g7
I1
sg8
I00
sg9
I5
sg10
(lp277
g271
a(igraph
Vertex
p278
(dp279
g14
F0.50000000000000011
sg8
I00
sg15
g16
sg17
F-214.0
sg18
F-2.0000000000000568
sg19
I5803141
sg20
S'14097.6240983'
p280
sg22
F0.16666666666666666
sbasg26
I00
sg27
I00
sg28
I5802551
sg20
S'14097.7936377'
p281
sba(igraph
Edge
p282
(dp283
g7
I1
sg8
I00
sg9
I5
sg10
(lp284
g278
a(igraph
Vertex
p285
(dp286
g14
F0.57142857142857151
sg8
I00
sg15
g16
sg17
F-214.0
sg18
F-45.428571428571502
sg19
I5803142
sg20
S'14097.6243978'
p287
sg22
F0.16666666666666666
sbasg26
I00
sg27
I00
sg28
I5802552
sg20
S'14097.7944825'
p288
sba(igraph
Edge
p289
(dp290
g7
I1
sg8
I00
sg9
I5
sg10
(lp291
g285
a(igraph
Vertex
p292
(dp293
g14
F0.64285714285714279
sg8
I00
sg15
g16
sg17
F-214.0
sg18
F-88.857142857142833
sg19
I5803143
sg20
S'14097.6247054'
p294
sg22
F0.16666666666666666
sbasg26
I00
sg27
I00
sg28
I5802553
sg20
S'14097.7953472'
p295
sba(igraph
Edge
p296
(dp297
g7
I1
sg8
I00
sg9
I5
sg10
(lp298
g292
a(igraph
Vertex
p299
(dp300
g14
F0.71428571428571419
sg8
I00
sg15
g16
sg17
F-214.0
sg18
F-132.28571428571422
sg19
I5803144
sg20
S'14097.6250199'
p301
sg22
F0.16666666666666666
sbasg26
I00
sg27
I00
sg28
I5802554
sg20
S'14097.796235'
p302
sba(igraph
Edge
p303
(dp304
g7
I1
sg8
I00
sg9
I5
sg10
(lp305
g299
a(igraph
Vertex
p306
(dp307
g14
F0.78571428571428559
sg8
I00
sg15
g16
sg17
F-214.0
sg18
F-175.71428571428567
sg19
I5803145
sg20
S'14097.6253423'
p308
sg22
F0.16666666666666666
sbasg26
I00
sg27
I00
sg28
I5802555
sg20
S'14097.7971457'
p309
sba(igraph
Edge
p310
(dp311
g7
I1
sg8
I00
sg9
I5
sg10
(lp312
g306
a(igraph
Vertex
p313
(dp314
g14
F0.8571428571428571
sg8
I00
sg15
g16
sg17
F-214.0
sg18
F-219.14285714285711
sg19
I5803146
sg20
S'14097.6256764'
p315
sg22
F0.16666666666666666
sbasg26
I00
sg27
I00
sg28
I5802556
sg20
S'14097.798078'
p316
sba(igraph
Edge
p317
(dp318
g7
I1
sg8
I00
sg9
I5
sg10
(lp319
g313
a(igraph
Vertex
p320
(dp321
g14
F0.92857142857142849
sg8
I00
sg15
g16
sg17
F-214.0
sg18
F-262.57142857142856
sg19
I5803147
sg20
S'14097.6260128'
p322
sg22
F0.16666666666666666
sbasg26
I00
sg27
I00
sg28
I5802557
sg20
S'14097.7990314'
p323
sba(igraph
Edge
p324
(dp325
g7
I1
sg8
I00
sg9
I5
sg10
(lp326
g320
a(igraph
Vertex
p327
(dp328
g14
F1.0
sg8
I00
sg15
g16
sg17
F-214.0
sg18
F-306.0
sg19
I5803148
sg20
S'14097.6263615'
p329
sg22
F0.16666666666666666
sbasg26
I00
sg27
I00
sg28
I5802558
sg20
S'14097.800007'
p330
sba(igraph
Edge
p331
(dp332
g7
I1
sg8
I00
sg9
I5
sg10
(lp333
g327
ag233
asg26
I00
sg27
I00
sg28
I5802559
sg20
S'14097.8010035'
p334
sba(igraph
Edge
p335
(dp336
g7
I1
sg8
I00
sg9
I5
sg10
(lp337
(igraph
Vertex
p338
(dp339
g14
F0.0
sg8
I00
sg15
g16
sg17
F-167.5
sg18
F302.0
sg19
I5803149
sg20
S'14097.6267802'
p340
sg22
F0.25
sba(igraph
Vertex
p341
(dp342
g14
F0.071428571428571383
sg8
I00
sg15
g16
sg17
F-167.5
sg18
F258.57142857142861
sg19
I5803150
sg20
S'14097.6271459'
p343
sg22
F0.25
sbasg26
I00
sg27
I00
sg28
I5802560
sg20
S'14097.8020173'
p344
sba(igraph
Edge
p345
(dp346
g7
I1
sg8
I00
sg9
I5
sg10
(lp347
g341
a(igraph
Vertex
p348
(dp349
g14
F0.1428571428571429
sg8
I00
sg15
g16
sg17
F-167.5
sg18
F215.14285714285711
sg19
I5803151
sg20
S'14097.627537'
p350
sg22
F0.25
sbasg26
I00
sg27
I00
sg28
I5802561
sg20
S'14097.8030834'
p351
sba(igraph
Edge
p352
(dp353
g7
I1
sg8
I00
sg9
I5
sg10
(lp354
g348
a(igraph
Vertex
p355
(dp356
g14
F0.21428571428571438
sg8
I00
sg15
g16
sg17
F-167.5
sg18
F171.71428571428567
sg19
I5803152
sg20
S'14097.6279197'
p357
sg22
F0.25
sbasg26
I00
sg27
I00
sg28
I5802562
sg20
S'14097.8041357'
p358
sba(igraph
Edge
p359
(dp360
g7
I1
sg8
I00
sg9
I5
sg10
(lp361
g355
a(igraph
Vertex
p362
(dp363
g14
F0.2857142857142857
sg8
I00
sg15
g16
sg17
F-167.5
sg18
F128.28571428571431
sg19
I5803153
sg20
S'14097.6283134'
p364
sg22
F0.25
sbasg26
I00
sg27
I00
sg28
I5802563
sg20
S'14097.8052065'
p365
sba(igraph
Edge
p366
(dp367
g7
I1
sg8
I00
sg9
I5
sg10
(lp368
g362
a(igraph
Vertex
p369
(dp370
g14
F0.35714285714285715
sg8
I01
sg15
I0
sg17
F-167.5
sg18
F84.857142857142861
sg19
I5803155
sg20
S'14097.6287422'
p371
sg22
F0.25
sbasg26
I00
sg27
I00
sg28
I5802564
sg20
S'14097.8062958'
p372
sba(igraph
Edge
p373
(dp374
g7
I1
sg8
I00
sg9
I5
sg10
(lp375
g369
a(igraph
Vertex
p376
(dp377
g14
F0.4285714285714286
sg8
I00
sg15
g16
sg17
F-167.5
sg18
F41.428571428571388
sg19
I5803157
sg20
S'14097.629149'
p378
sg22
F0.25
sbasg26
I00
sg27
I00
sg28
I5802565
sg20
S'14097.8074071'
p379
sba(igraph
Edge
p380
(dp381
g7
I1
sg8
I00
sg9
I5
sg10
(lp382
g376
a(igraph
Vertex
p383
(dp384
g14
F0.50000000000000011
sg8
I00
sg15
g16
sg17
F-167.5
sg18
F-2.0000000000000568
sg19
I5803158
sg20
S'14097.629594'
p385
sg22
F0.25
sbasg26
I00
sg27
I00
sg28
I5802566
sg20
S'14097.8085413'
p386
sba(igraph
Edge
p387
(dp388
g7
I1
sg8
I00
sg9
I5
sg10
(lp389
g383
a(igraph
Vertex
p390
(dp391
g14
F0.57142857142857151
sg8
I00
sg15
g16
sg17
F-167.5
sg18
F-45.428571428571502
sg19
I5803159
sg20
S'14097.6300223'
p392
sg22
F0.25
sbasg26
I00
sg27
I00
sg28
I5802567
sg20
S'14097.8096984'
p393
sba(igraph
Edge
p394
(dp395
g7
I1
sg8
I00
sg9
I5
sg10
(lp396
g390
a(igraph
Vertex
p397
(dp398
g14
F0.64285714285714279
sg8
I00
sg15
g16
sg17
F-167.5
sg18
F-88.857142857142833
sg19
I5803160
sg20
S'14097.630455'
p399
sg22
F0.25
sbasg26
I00
sg27
I00
sg28
I5802568
sg20
S'14097.8108785'
p400
sba(igraph
Edge
p401
(dp402
g7
I1
sg8
I00
sg9
I5
sg10
(lp403
g397
a(igraph
Vertex
p404
(dp405
g14
F0.71428571428571419
sg8
I00
sg15
g16
sg17
F-167.5
sg18
F-132.28571428571422
sg19
I5803161
sg20
S'14097.6308933'
p406
sg22
F0.25
sbasg26
I00
sg27
I00
sg28
I5802569
sg20
S'14097.812077'
p407
sba(igraph
Edge
p408
(dp409
g7
I1
sg8
I00
sg9
I5
sg10
(lp410
g404
a(igraph
Vertex
p411
(dp412
g14
F0.78571428571428559
sg8
I00
sg15
g16
sg17
F-167.5
sg18
F-175.71428571428567
sg19
I5803162
sg20
S'14097.6313344'
p413
sg22
F0.25
sbasg26
I00
sg27
I00
sg28
I5802570
sg20
S'14097.8135129'
p414
sba(igraph
Edge
p415
(dp416
g7
I1
sg8
I00
sg9
I5
sg10
(lp417
g411
a(igraph
Vertex
p418
(dp419
g14
F0.8571428571428571
sg8
I00
sg15
g16
sg17
F-167.5
sg18
F-219.14285714285711
sg19
I5803163
sg20
S'14097.6317836'
p420
sg22
F0.25
sbasg26
I00
sg27
I00
sg28
I5802571
sg20
S'14097.8147899'
p421
sba(igraph
Edge
p422
(dp423
g7
I1
sg8
I00
sg9
I5
sg10
(lp424
g418
a(igraph
Vertex
p425
(dp426
g14
F0.92857142857142849
sg8
I00
sg15
g16
sg17
F-167.5
sg18
F-262.57142857142856
sg19
I5803164
sg20
S'14097.6322435'
p427
sg22
F0.25
sbasg26
I00
sg27
I00
sg28
I5802572
sg20
S'14097.8161029'
p428
sba(igraph
Edge
p429
(dp430
g7
I1
sg8
I00
sg9
I5
sg10
(lp431
g425
a(igraph
Vertex
p432
(dp433
g14
F1.0
sg8
I00
sg15
g16
sg17
F-167.5
sg18
F-306.0
sg19
I5803165
sg20
S'14097.6327111'
p434
sg22
F0.25
sbasg26
I00
sg27
I00
sg28
I5802573
sg20
S'14097.8173936'
p435
sba(igraph
Edge
p436
(dp437
g7
I1
sg8
I00
sg9
I5
sg10
(lp438
g432
ag338
asg26
I00
sg27
I00
sg28
I5802574
sg20
S'14097.8187082'
p439
sba(igraph
Edge
p440
(dp441
g7
I1
sg8
I00
sg9
I5
sg10
(lp442
(igraph
Vertex
p443
(dp444
g14
F0.0
sg8
I00
sg15
g16
sg17
F-121.0
sg18
F302.0
sg19
I5803166
sg20
S'14097.6331861'
p445
sg22
F0.33333333333333331
sba(igraph
Vertex
p446
(dp447
g14
F0.071428571428571383
sg8
I00
sg15
g16
sg17
F-121.0
sg18
F258.57142857142861
sg19
I5803167
sg20
S'14097.633673'
p448
sg22
F0.33333333333333331
sbasg26
I00
sg27
I00
sg28
I5802575
sg20
S'14097.8200425'
p449
sba(igraph
Edge
p450
(dp451
g7
I1
sg8
I00
sg9
I5
sg10
(lp452
g446
a(igraph
Vertex
p453
(dp454
g14
F0.1428571428571429
sg8
I00
sg15
g16
sg17
F-121.0
sg18
F215.14285714285711
sg19
I5803168
sg20
S'14097.634168'
p455
sg22
F0.33333333333333331
sbasg26
I00
sg27
I00
sg28
I5802576
sg20
S'14097.8213969'
p456
sba(igraph
Edge
p457
(dp458
g7
I1
sg8
I00
sg9
I5
sg10
(lp459
g453
a(igraph
Vertex
p460
(dp461
g14
F0.21428571428571438
sg8
I00
sg15
g16
sg17
F-121.0
sg18
F171.71428571428567
sg19
I5803169
sg20
S'14097.6346678'
p462
sg22
F0.33333333333333331
sbasg26
I00
sg27
I00
sg28
I5802577
sg20
S'14097.8227727'
p463
sba(igraph
Edge
p464
(dp465
g7
I1
sg8
I00
sg9
I5
sg10
(lp466
g460
a(igraph
Vertex
p467
(dp468
g14
F0.2857142857142857
sg8
I00
sg15
g16
sg17
F-121.0
sg18
F128.28571428571431
sg19
I5803170
sg20
S'14097.6351737'
p469
sg22
F0.33333333333333331
sbasg26
I00
sg27
I00
sg28
I5802578
sg20
S'14097.8241707'
p470
sba(igraph
Edge
p471
(dp472
g7
I1
sg8
I00
sg9
I5
sg10
(lp473
g467
a(igraph
Vertex
p474
(dp475
g14
F0.35714285714285715
sg8
I00
sg15
g16
sg17
F-121.0
sg18
F84.857142857142861
sg19
I5803171
sg20
S'14097.6356964'
p476
sg22
F0.33333333333333331
sbasg26
I00
sg27
I00
sg28
I5802579
sg20
S'14097.8255859'
p477
sba(igraph
Edge
p478
(dp479
g7
I1
sg8
I00
sg9
I5
sg10
(lp480
g474
a(igraph
Vertex
p481
(dp482
g14
F0.4285714285714286
sg8
I00
sg15
g16
sg17
F-121.0
sg18
F41.428571428571388
sg19
I5803172
sg20
S'14097.6362272'
p483
sg22
F0.33333333333333331
sbasg26
I00
sg27
I00
sg28
I5802580
sg20
S'14097.8270272'
p484
sba(igraph
Edge
p485
(dp486
g7
I1
sg8
I00
sg9
I5
sg10
(lp487
g481
a(igraph
Vertex
p488
(dp489
g14
F0.50000000000000011
sg8
I01
sg15
I0
sg17
F-121.0
sg18
F-2.0000000000000568
sg19
I5803174
sg20
S'14097.6367591'
p490
sg22
F0.33333333333333331
sbasg26
I00
sg27
I00
sg28
I5802581
sg20
S'14097.8284869'
p491
sba(igraph
Edge
p492
(dp493
g7
I1
sg8
I00
sg9
I5
sg10
(lp494
g488
a(igraph
Vertex
p495
(dp496
g14
F0.57142857142857151
sg8
I00
sg15
g16
sg17
F-121.0
sg18
F-45.428571428571502
sg19
I5803176
sg20
S'14097.6373031'
p497
sg22
F0.33333333333333331
sbasg26
I00
sg27
I00
sg28
I5802582
sg20
S'14097.8299675'
p498
sba(igraph
Edge
p499
(dp500
g7
I1
sg8
I00
sg9
I5
sg10
(lp501
g495
a(igraph
Vertex
p502
(dp503
g14
F0.64285714285714279
sg8
I00
sg15
g16
sg17
F-121.0
sg18
F-88.857142857142833
sg19
I5803177
sg20
S'14097.6378498'
p504
sg22
F0.33333333333333331
sbasg26
I00
sg27
I00
sg28
I5802583
sg20
S'14097.8314685'
p505
sba(igraph
Edge
p506
(dp507
g7
I1
sg8
I00
sg9
I5
sg10
(lp508
g502
a(igraph
Vertex
p509
(dp510
g14
F0.71428571428571419
sg8
I00
sg15
g16
sg17
F-121.0
sg18
F-132.28571428571422
sg19
I5803178
sg20
S'14097.6384071'
p511
sg22
F0.33333333333333331
sbasg26
I00
sg27
I00
sg28
I5802584
sg20
S'14097.8329944'
p512
sba(igraph
Edge
p513
(dp514
g7
I1
sg8
I00
sg9
I5
sg10
(lp515
g509
a(igraph
Vertex
p516
(dp517
g14
F0.78571428571428559
sg8
I00
sg15
g16
sg17
F-121.0
sg18
F-175.71428571428567
sg19
I5803179
sg20
S'14097.6389745'
p518
sg22
F0.33333333333333331
sbasg26
I00
sg27
I00
sg28
I5802585
sg20
S'14097.8345678'
p519
sba(igraph
Edge
p520
(dp521
g7
I1
sg8
I00
sg9
I5
sg10
(lp522
g516
a(igraph
Vertex
p523
(dp524
g14
F0.8571428571428571
sg8
I00
sg15
g16
sg17
F-121.0
sg18
F-219.14285714285711
sg19
I5803180
sg20
S'14097.6395472'
p525
sg22
F0.33333333333333331
sbasg26
I00
sg27
I00
sg28
I5802586
sg20
S'14097.8361881'
p526
sba(igraph
Edge
p527
(dp528
g7
I1
sg8
I00
sg9
I5
sg10
(lp529
g523
a(igraph
Vertex
p530
(dp531
g14
F0.92857142857142849
sg8
I00
sg15
g16
sg17
F-121.0
sg18
F-262.57142857142856
sg19
I5803181
sg20
S'14097.6401314'
p532
sg22
F0.33333333333333331
sbasg26
I00
sg27
I00
sg28
I5802587
sg20
S'14097.8378333'
p533
sba(igraph
Edge
p534
(dp535
g7
I1
sg8
I00
sg9
I5
sg10
(lp536
g530
a(igraph
Vertex
p537
(dp538
g14
F1.0
sg8
I00
sg15
g16
sg17
F-121.0
sg18
F-306.0
sg19
I5803182
sg20
S'14097.6407244'
p539
sg22
F0.33333333333333331
sbasg26
I00
sg27
I00
sg28
I5802588
sg20
S'14097.8394665'
p540
sba(igraph
Edge
p541
(dp542
g7
I1
sg8
I00
sg9
I5
sg10
(lp543
g537
ag443
asg26
I00
sg27
I00
sg28
I5802589
sg20
S'14097.8411063'
p544
sba(igraph
Edge
p545
(dp546
g7
I1
sg8
I00
sg9
I5
sg10
(lp547
(igraph
Vertex
p548
(dp549
g14
F0.0
sg8
I00
sg15
g16
sg17
F-74.5
sg18
F302.0
sg19
I5803183
sg20
S'14097.6413228'
p550
sg22
F0.41666666666666669
sba(igraph
Vertex
p551
(dp552
g14
F0.071428571428571383
sg8
I00
sg15
g16
sg17
F-74.5
sg18
F258.57142857142861
sg19
I5803184
sg20
S'14097.6419307'
p553
sg22
F0.41666666666666669
sbasg26
I00
sg27
I00
sg28
I5802590
sg20
S'14097.842799'
p554
sba(igraph
Edge
p555
(dp556
g7
I1
sg8
I00
sg9
I5
sg10
(lp557
g551
a(igraph
Vertex
p558
(dp559
g14
F0.1428571428571429
sg8
I00
sg15
g16
sg17
F-74.5
sg18
F215.14285714285711
sg19
I5803185
sg20
S'14097.6425537'
p560
sg22
F0.41666666666666669
sbasg26
I00
sg27
I00
sg28
I5802591
sg20
S'14097.8444987'
p561
sba(igraph
Edge
p562
(dp563
g7
I1
sg8
I00
sg9
I5
sg10
(lp564
g558
a(igraph
Vertex
p565
(dp566
g14
F0.21428571428571438
sg8
I00
sg15
g16
sg17
F-74.5
sg18
F171.71428571428567
sg19
I5803186
sg20
S'14097.6431834'
p567
sg22
F0.41666666666666669
sbasg26
I00
sg27
I00
sg28
I5802592
sg20
S'14097.8462754'
p568
sba(igraph
Edge
p569
(dp570
g7
I1
sg8
I00
sg9
I5
sg10
(lp571
g565
a(igraph
Vertex
p572
(dp573
g14
F0.2857142857142857
sg8
I00
sg15
g16
sg17
F-74.5
sg18
F128.28571428571431
sg19
I5803187
sg20
S'14097.6438193'
p574
sg22
F0.41666666666666669
sbasg26
I00
sg27
I00
sg28
I5802593
sg20
S'14097.8480089'
p575
sba(igraph
Edge
p576
(dp577
g7
I1
sg8
I00
sg9
I5
sg10
(lp578
g572
a(igraph
Vertex
p579
(dp580
g14
F0.35714285714285715
sg8
I00
sg15
g16
sg17
F-74.5
sg18
F84.857142857142861
sg19
I5803188
sg20
S'14097.6444618'
p581
sg22
F0.41666666666666669
sbasg26
I00
sg27
I00
sg28
I5802594
sg20
S'14097.849753'
p582
sba(igraph
Edge
p583
(dp584
g7
I1
sg8
I00
sg9
I5
sg10
(lp585
g579
a(igraph
Vertex
p586
(dp587
g14
F0.4285714285714286
sg8
I00
sg15
g16
sg17
F-74.5
sg18
F41.428571428571388
sg19
I5803189
sg20
S'14097.645113'
p588
sg22
F0.41666666666666669
sbasg26
I00
sg27
I00
sg28
I5802595
sg20
S'14097.8515141'
p589
sba(igraph
Edge
p590
(dp591
g7
I1
sg8
I00
sg9
I5
sg10
(lp592
g586
a(igraph
Vertex
p593
(dp594
g14
F0.50000000000000011
sg8
I00
sg15
g16
sg17
F-74.5
sg18
F-2.0000000000000568
sg19
I5803190
sg20
S'14097.6457659'
p595
sg22
F0.41666666666666669
sbasg26
I00
sg27
I00
sg28
I5802596
sg20
S'14097.8532956'
p596
sba(igraph
Edge
p597
(dp598
g7
I1
sg8
I00
sg9
I5
sg10
(lp599
g593
a(igraph
Vertex
p600
(dp601
g14
F0.57142857142857151
sg8
I00
sg15
g16
sg17
F-74.5
sg18
F-45.428571428571502
sg19
I5803191
sg20
S'14097.646433'
p602
sg22
F0.41666666666666669
sbasg26
I00
sg27
I00
sg28
I5802597
sg20
S'14097.8550989'
p603
sba(igraph
Edge
p604
(dp605
g7
I1
sg8
I00
sg9
I5
sg10
(lp606
g600
a(igraph
Vertex
p607
(dp608
g14
F0.64285714285714279
sg8
I00
sg15
g16
sg17
F-74.5
sg18
F-88.857142857142833
sg19
I5803192
sg20
S'14097.6471077'
p609
sg22
F0.41666666666666669
sbasg26
I00
sg27
I00
sg28
I5802598
sg20
S'14097.8569229'
p610
sba(igraph
Edge
p611
(dp612
g7
I1
sg8
I00
sg9
I5
sg10
(lp613
g607
a(igraph
Vertex
p614
(dp615
g14
F0.71428571428571419
sg8
I00
sg15
g16
sg17
F-74.5
sg18
F-132.28571428571422
sg19
I5803193
sg20
S'14097.6477966'
p616
sg22
F0.41666666666666669
sbasg26
I00
sg27
I00
sg28
I5802599
sg20
S'14097.8587751'
p617
sba(igraph
Edge
p618
(dp619
g7
I1
sg8
I00
sg9
I5
sg10
(lp620
g614
a(igraph
Vertex
p621
(dp622
g14
F0.78571428571428559
sg8
I00
sg15
g16
sg17
F-74.5
sg18
F-175.71428571428567
sg19
I5803194
sg20
S'14097.6485458'
p623
sg22
F0.41666666666666669
sbasg26
I00
sg27
I00
sg28
I5802600
sg20
S'14097.8606426'
p624
sba(igraph
Edge
p625
(dp626
g7
I1
sg8
I00
sg9
I5
sg10
(lp627
g621
a(igraph
Vertex
p628
(dp629
g14
F0.8571428571428571
sg8
I00
sg15
g16
sg17
F-74.5
sg18
F-219.14285714285711
sg19
I5803195
sg20
S'14097.6492535'
p630
sg22
F0.41666666666666669
sbasg26
I00
sg27
I00
sg28
I5802601
sg20
S'14097.8625253'
p631
sba(igraph
Edge
p632
(dp633
g7
I1
sg8
I00
sg9
I5
sg10
(lp634
g628
a(igraph
Vertex
p635
(dp636
g14
F0.92857142857142849
sg8
I00
sg15
g16
sg17
F-74.5
sg18
F-262.57142857142856
sg19
I5803196
sg20
S'14097.6499709'
p637
sg22
F0.41666666666666669
sbasg26
I00
sg27
I00
sg28
I5802602
sg20
S'14097.8644322'
p638
sba(igraph
Edge
p639
(dp640
g7
I1
sg8
I00
sg9
I5
sg10
(lp641
g635
a(igraph
Vertex
p642
(dp643
g14
F1.0
sg8
I00
sg15
g16
sg17
F-74.5
sg18
F-306.0
sg19
I5803197
sg20
S'14097.6506925'
p644
sg22
F0.41666666666666669
sbasg26
I00
sg27
I00
sg28
I5802603
sg20
S'14097.8663545'
p645
sba(igraph
Edge
p646
(dp647
g7
I1
sg8
I00
sg9
I5
sg10
(lp648
g642
ag548
asg26
I00
sg27
I00
sg28
I5802604
sg20
S'14097.868347'
p649
sba(igraph
Edge
p650
(dp651
g7
I1
sg8
I00
sg9
I5
sg10
(lp652
(igraph
Vertex
p653
(dp654
g14
F0.0
sg8
I00
sg15
g16
sg17
F-28.0
sg18
F302.0
sg19
I5803198
sg20
S'14097.6514236'
p655
sg22
F0.5
sba(igraph
Vertex
p656
(dp657
g14
F0.071428571428571383
sg8
I00
sg15
g16
sg17
F-28.0
sg18
F258.57142857142861
sg19
I5803199
sg20
S'14097.6521661'
p658
sg22
F0.5
sbasg26
I00
sg27
I00
sg28
I5802605
sg20
S'14097.8703841'
p659
sba(igraph
Edge
p660
(dp661
g7
I1
sg8
I00
sg9
I5
sg10
(lp662
g656
a(igraph
Vertex
p663
(dp664
g14
F0.1428571428571429
sg8
I00
sg15
g16
sg17
F-28.0
sg18
F215.14285714285711
sg19
I5803200
sg20
S'14097.6529182'
p665
sg22
F0.5
sbasg26
I00
sg27
I00
sg28
I5802606
sg20
S'14097.8724114'
p666
sba(igraph
Edge
p667
(dp668
g7
I1
sg8
I00
sg9
I5
sg10
(lp669
g663
a(igraph
Vertex
p670
(dp671
g14
F0.21428571428571438
sg8
I00
sg15
g16
sg17
F-28.0
sg18
F171.71428571428567
sg19
I5803201
sg20
S'14097.6536697'
p672
sg22
F0.5
sbasg26
I00
sg27
I00
sg28
I5802607
sg20
S'14097.8744651'
p673
sba(igraph
Edge
p674
(dp675
g7
I1
sg8
I00
sg9
I5
sg10
(lp676
g670
a(igraph
Vertex
p677
(dp678
g14
F0.2857142857142857
sg8
I00
sg15
g16
sg17
F-28.0
sg18
F128.28571428571431
sg19
I5803202
sg20
S'14097.6544351'
p679
sg22
F0.5
sbasg26
I00
sg27
I00
sg28
I5802608
sg20
S'14097.8765078'
p680
sba(igraph
Edge
p681
(dp682
g7
I1
sg8
I00
sg9
I5
sg10
(lp683
g677
a(igraph
Vertex
p684
(dp685
g14
F0.35714285714285715
sg8
I00
sg15
g16
sg17
F-28.0
sg18
F84.857142857142861
sg19
I5803203
sg20
S'14097.655202'
p686
sg22
F0.5
sbasg26
I00
sg27
I00
sg28
I5802609
sg20
S'14097.8785723'
p687
sba(igraph
Edge
p688
(dp689
g7
I1
sg8
I00
sg9
I5
sg10
(lp690
g684
a(igraph
Vertex
p691
(dp692
g14
F0.4285714285714286
sg8
I00
sg15
g16
sg17
F-28.0
sg18
F41.428571428571388
sg19
I5803204
sg20
S'14097.6560462'
p693
sg22
F0.5
sbasg26
I00
sg27
I00
sg28
I5802610
sg20
S'14097.8807427'
p694
sba(igraph
Edge
p695
(dp696
g7
I1
sg8
I00
sg9
I5
sg10
(lp697
g691
a(igraph
Vertex
p698
(dp699
g14
F0.50000000000000011
sg8
I00
sg15
g16
sg17
F-28.0
sg18
F-2.0000000000000568
sg19
I5803205
sg20
S'14097.6568472'
p700
sg22
F0.5
sbasg26
I00
sg27
I00
sg28
I5802611
sg20
S'14097.8828488'
p701
sba(igraph
Edge
p702
(dp703
g7
I1
sg8
I00
sg9
I5
sg10
(lp704
g698
a(igraph
Vertex
p705
(dp706
g14
F0.57142857142857151
sg8
I01
sg15
I0
sg17
F-28.0
sg18
F-45.428571428571502
sg19
I5803207
sg20
S'14097.6576543'
p707
sg22
F0.5
sbasg26
I00
sg27
I00
sg28
I5802612
sg20
S'14097.8849806'
p708
sba(igraph
Edge
p709
(dp710
g7
I1
sg8
I00
sg9
I5
sg10
(lp711
g705
a(igraph
Vertex
p712
(dp713
g14
F0.64285714285714279
sg8
I00
sg15
g16
sg17
F-28.0
sg18
F-88.857142857142833
sg19
I5803209
sg20
S'14097.658475'
p714
sg22
F0.5
sbasg26
I00
sg27
I00
sg28
I5802613
sg20
S'14097.8871317'
p715
sba(igraph
Edge
p716
(dp717
g7
I1
sg8
I00
sg9
I5
sg10
(lp718
g712
a(igraph
Vertex
p719
(dp720
g14
F0.71428571428571419
sg8
I00
sg15
g16
sg17
F-28.0
sg18
F-132.28571428571422
sg19
I5803210
sg20
S'14097.6593441'
p721
sg22
F0.5
sbasg26
I00
sg27
I00
sg28
I5802614
sg20
S'14097.8893049'
p722
sba(igraph
Edge
p723
(dp724
g7
I1
sg8
I00
sg9
I5
sg10
(lp725
g719
a(igraph
Vertex
p726
(dp727
g14
F0.78571428571428559
sg8
I00
sg15
g16
sg17
F-28.0
sg18
F-175.71428571428567
sg19
I5803211
sg20
S'14097.6601979'
p728
sg22
F0.5
sbasg26
I00
sg27
I00
sg28
I5802615
sg20
S'14097.8915253'
p729
sba(igraph
Edge
p730
(dp731
g7
I1
sg8
I00
sg9
I5
sg10
(lp732
g726
a(igraph
Vertex
p733
(dp734
g14
F0.8571428571428571
sg8
I00
sg15
g16
sg17
F-28.0
sg18
F-219.14285714285711
sg19
I5803212
sg20
S'14097.6610326'
p735
sg22
F0.5
sbasg26
I00
sg27
I00
sg28
I5802616
sg20
S'14097.8938225'
p736
sba(igraph
Edge
p737
(dp738
g7
I1
sg8
I00
sg9
I5
sg10
(lp739
g733
a(igraph
Vertex
p740
(dp741
g14
F0.92857142857142849
sg8
I00
sg15
g16
sg17
F-28.0
sg18
F-262.57142857142856
sg19
I5803213
sg20
S'14097.661881'
p742
sg22
F0.5
sbasg26
I00
sg27
I00
sg28
I5802617
sg20
S'14097.896051'
p743
sba(igraph
Edge
p744
(dp745
g7
I1
sg8
I00
sg9
I5
sg10
(lp746
g740
a(igraph
Vertex
p747
(dp748
g14
F1.0
sg8
I00
sg15
g16
sg17
F-28.0
sg18
F-306.0
sg19
I5803214
sg20
S'14097.6627303'
p749
sg22
F0.5
sbasg26
I00
sg27
I00
sg28
I5802618
sg20
S'14097.8983175'
p750
sba(igraph
Edge
p751
(dp752
g7
I1
sg8
I00
sg9
I5
sg10
(lp753
g747
ag653
asg26
I00
sg27
I00
sg28
I5802619
sg20
S'14097.9006047'
p754
sba(igraph
Edge
p755
(dp756
g7
I1
sg8
I00
sg9
I5
sg10
(lp757
(igraph
Vertex
p758
(dp759
g14
F0.0
sg8
I00
sg15
g16
sg17
F18.5
sg18
F302.0
sg19
I5803215
sg20
S'14097.6635896'
p760
sg22
F0.58333333333333337
sba(igraph
Vertex
p761
(dp762
g14
F0.071428571428571383
sg8
I00
sg15
g16
sg17
F18.5
sg18
F258.57142857142861
sg19
I5803216
sg20
S'14097.6644526'
p763
sg22
F0.58333333333333337
sbasg26
I00
sg27
I00
sg28
I5802620
sg20
S'14097.902915'
p764
sba(igraph
Edge
p765
(dp766
g7
I1
sg8
I00
sg9
I5
sg10
(lp767
g761
a(igraph
Vertex
p768
(dp769
g14
F0.1428571428571429
sg8
I00
sg15
g16
sg17
F18.5
sg18
F215.14285714285711
sg19
I5803217
sg20
S'14097.665327'
p770
sg22
F0.58333333333333337
sbasg26
I00
sg27
I00
sg28
I5802621
sg20
S'14097.9052447'
p771
sba(igraph
Edge
p772
(dp773
g7
I1
sg8
I00
sg9
I5
sg10
(lp774
g768
a(igraph
Vertex
p775
(dp776
g14
F0.21428571428571438
sg8
I00
sg15
g16
sg17
F18.5
sg18
F171.71428571428567
sg19
I5803218
sg20
S'14097.6662106'
p777
sg22
F0.58333333333333337
sbasg26
I00
sg27
I00
sg28
I5802622
sg20
S'14097.9075961'
p778
sba(igraph
Edge
p779
(dp780
g7
I1
sg8
I00
sg9
I5
sg10
(lp781
g775
a(igraph
Vertex
p782
(dp783
g14
F0.2857142857142857
sg8
I00
sg15
g16
sg17
F18.5
sg18
F128.28571428571431
sg19
I5803219
sg20
S'14097.6671015'
p784
sg22
F0.58333333333333337
sbasg26
I00
sg27
I00
sg28
I5802623
sg20
S'14097.9101263'
p785
sba(igraph
Edge
p786
(dp787
g7
I1
sg8
I00
sg9
I5
sg10
(lp788
g782
a(igraph
Vertex
p789
(dp790
g14
F0.35714285714285715
sg8
I00
sg15
g16
sg17
F18.5
sg18
F84.857142857142861
sg19
I5803220
sg20
S'14097.6679991'
p791
sg22
F0.58333333333333337
sbasg26
I00
sg27
I00
sg28
I5802624
sg20
S'14097.9126294'
p792
sba(igraph
Edge
p793
(dp794
g7
I1
sg8
I00
sg9
I5
sg10
(lp795
g789
a(igraph
Vertex
p796
(dp797
g14
F0.4285714285714286
sg8
I00
sg15
g16
sg17
F18.5
sg18
F41.428571428571388
sg19
I5803221
sg20
S'14097.6689051'
p798
sg22
F0.58333333333333337
sbasg26
I00
sg27
I00
sg28
I5802625
sg20
S'14097.915068'
p799
sba(igraph
Edge
p800
(dp801
g7
I1
sg8
I00
sg9
I5
sg10
(lp802
g796
a(igraph
Vertex
p803
(dp804
g14
F0.50000000000000011
sg8
I00
sg15
g16
sg17
F18.5
sg18
F-2.0000000000000568
sg19
I5803222
sg20
S'14097.6698242'
p805
sg22
F0.58333333333333337
sbasg26
I00
sg27
I00
sg28
I5802626
sg20
S'14097.9175211'
p806
sba(igraph
Edge
p807
(dp808
g7
I1
sg8
I00
sg9
I5
sg10
(lp809
g803
a(igraph
Vertex
p810
(dp811
g14
F0.57142857142857151
sg8
I00
sg15
g16
sg17
F18.5
sg18
F-45.428571428571502
sg19
I5803223
sg20
S'14097.6707506'
p812
sg22
F0.58333333333333337
sbasg26
I00
sg27
I00
sg28
I5802627
sg20
S'14097.9199954'
p813
sba(igraph
Edge
p814
(dp815
g7
I1
sg8
I00
sg9
I5
sg10
(lp816
g810
a(igraph
Vertex
p817
(dp818
g14
F0.64285714285714279
sg8
I00
sg15
g16
sg17
F18.5
sg18
F-88.857142857142833
sg19
I5803224
sg20
S'14097.6716949'
p819
sg22
F0.58333333333333337
sbasg26
I00
sg27
I00
sg28
I5802628
sg20
S'14097.9224901'
p820
sba(igraph
Edge
p821
(dp822
g7
I1
sg8
I00
sg9
I5
sg10
(lp823
g817
a(igraph
Vertex
p824
(dp825
g14
F0.71428571428571419
sg8
I01
sg15
I0
sg17
F18.5
sg18
F-132.28571428571422
sg19
I5803226
sg20
S'14097.6726291'
p826
sg22
F0.58333333333333337
sbasg26
I00
sg27
I00
sg28
I5802629
sg20
S'14097.9250064'
p827
sba(igraph
Edge
p828
(dp829
g7
I1
sg8
I00
sg9
I5
sg10
(lp830
g824
a(igraph
Vertex
p831
(dp832
g14
F0.78571428571428559
sg8
I00
sg15
g16
sg17
F18.5
sg18
F-175.71428571428567
sg19
I5803228
sg20
S'14097.6735859'
p833
sg22
F0.58333333333333337
sbasg26
I00
sg27
I00
sg28
I5802630
sg20
S'14097.9275676'
p834
sba(igraph
Edge
p835
(dp836
g7
I1
sg8
I00
sg9
I5
sg10
(lp837
g831
a(igraph
Vertex
p838
(dp839
g14
F0.8571428571428571
sg8
I00
sg15
g16
sg17
F18.5
sg18
F-219.14285714285711
sg19
I5803229
sg20
S'14097.6745528'
p840
sg22
F0.58333333333333337
sbasg26
I00
sg27
I00
sg28
I5802631
sg20
S'14097.9301322'
p841
sba(igraph
Edge
p842
(dp843
g7
I1
sg8
I00
sg9
I5
sg10
(lp844
g838
a(igraph
Vertex
p845
(dp846
g14
F0.92857142857142849
sg8
I00
sg15
g16
sg17
F18.5
sg18
F-262.57142857142856
sg19
I5803230
sg20
S'14097.675525'
p847
sg22
F0.58333333333333337
sbasg26
I00
sg27
I00
sg28
I5802632
sg20
S'14097.9327716'
p848
sba(igraph
Edge
p849
(dp850
g7
I1
sg8
I00
sg9
I5
sg10
(lp851
g845
a(igraph
Vertex
p852
(dp853
g14
F1.0
sg8
I00
sg15
g16
sg17
F18.5
sg18
F-306.0
sg19
I5803231
sg20
S'14097.6766019'
p854
sg22
F0.58333333333333337
sbasg26
I00
sg27
I00
sg28
I5802633
sg20
S'14097.9353935'
p855
sba(igraph
Edge
p856
(dp857
g7
I1
sg8
I00
sg9
I5
sg10
(lp858
g852
ag758
asg26
I00
sg27
I00
sg28
I5802634
sg20
S'14097.9380298'
p859
sba(igraph
Edge
p860
(dp861
g7
I1
sg8
I00
sg9
I5
sg10
(lp862
(igraph
Vertex
p863
(dp864
g14
F0.0
sg8
I00
sg15
g16
sg17
F65.0
sg18
F302.0
sg19
I5803232
sg20
S'14097.6775939'
p865
sg22
F0.66666666666666663
sba(igraph
Vertex
p866
(dp867
g14
F0.071428571428571383
sg8
I00
sg15
g16
sg17
F65.0
sg18
F258.57142857142861
sg19
I5803233
sg20
S'14097.6785818'
p868
sg22
F0.66666666666666663
sbasg26
I00
sg27
I00
sg28
I5802635
sg20
S'14097.9406844'
p869
sba(igraph
Edge
p870
(dp871
g7
I1
sg8
I00
sg9
I5
sg10
(lp872
g866
a(igraph
Vertex
p873
(dp874
g14
F0.1428571428571429
sg8
I00
sg15
g16
sg17
F65.0
sg18
F215.14285714285711
sg19
I5803234
sg20
S'14097.6795783'
p875
sg22
F0.66666666666666663
sbasg26
I00
sg27
I00
sg28
I5802636
sg20
S'14097.9434163'
p876
sba(igraph
Edge
p877
(dp878
g7
I1
sg8
I00
sg9
I5
sg10
(lp879
g873
a(igraph
Vertex
p880
(dp881
g14
F0.21428571428571438
sg8
I00
sg15
g16
sg17
F65.0
sg18
F171.71428571428567
sg19
I5803235
sg20
S'14097.6805862'
p882
sg22
F0.66666666666666663
sbasg26
I00
sg27
I00
sg28
I5802637
sg20
S'14097.9460831'
p883
sba(igraph
Edge
p884
(dp885
g7
I1
sg8
I00
sg9
I5
sg10
(lp886
g880
a(igraph
Vertex
p887
(dp888
g14
F0.2857142857142857
sg8
I00
sg15
g16
sg17
F65.0
sg18
F128.28571428571431
sg19
I5803236
sg20
S'14097.6816006'
p889
sg22
F0.66666666666666663
sbasg26
I00
sg27
I00
sg28
I5802638
sg20
S'14097.9487703'
p890
sba(igraph
Edge
p891
(dp892
g7
I1
sg8
I00
sg9
I5
sg10
(lp893
g887
a(igraph
Vertex
p894
(dp895
g14
F0.35714285714285715
sg8
I00
sg15
g16
sg17
F65.0
sg18
F84.857142857142861
sg19
I5803237
sg20
S'14097.6826303'
p896
sg22
F0.66666666666666663
sbasg26
I00
sg27
I00
sg28
I5802639
sg20
S'14097.9514748'
p897
sba(igraph
Edge
p898
(dp899
g7
I1
sg8
I00
sg9
I5
sg10
(lp900
g894
a(igraph
Vertex
p901
(dp902
g14
F0.4285714285714286
sg8
I00
sg15
g16
sg17
F65.0
sg18
F41.428571428571388
sg19
I5803238
sg20
S'14097.6836696'
p903
sg22
F0.66666666666666663
sbasg26
I00
sg27
I00
sg28
I5802640
sg20
S'14097.9542012'
p904
sba(igraph
Edge
p905
(dp906
g7
I1
sg8
I00
sg9
I5
sg10
(lp907
g901
a(igraph
Vertex
p908
(dp909
g14
F0.50000000000000011
sg8
I00
sg15
g16
sg17
F65.0
sg18
F-2.0000000000000568
sg19
I5803239
sg20
S'14097.6847124'
p910
sg22
F0.66666666666666663
sbasg26
I00
sg27
I00
sg28
I5802641
sg20
S'14097.9569465'
p911
sba(igraph
Edge
p912
(dp913
g7
I1
sg8
I00
sg9
I5
sg10
(lp914
g908
a(igraph
Vertex
p915
(dp916
g14
F0.57142857142857151
sg8
I00
sg15
g16
sg17
F65.0
sg18
F-45.428571428571502
sg19
I5803240
sg20
S'14097.6857626'
p917
sg22
F0.66666666666666663
sbasg26
I00
sg27
I00
sg28
I5802642
sg20
S'14097.9597169'
p918
sba(igraph
Edge
p919
(dp920
g7
I1
sg8
I00
sg9
I5
sg10
(lp921
g915
a(igraph
Vertex
p922
(dp923
g14
F0.64285714285714279
sg8
I00
sg15
g16
sg17
F65.0
sg18
F-88.857142857142833
sg19
I5803241
sg20
S'14097.686825'
p924
sg22
F0.66666666666666663
sbasg26
I00
sg27
I00
sg28
I5802643
sg20
S'14097.9625807'
p925
sba(igraph
Edge
p926
(dp927
g7
I1
sg8
I00
sg9
I5
sg10
(lp928
g922
a(igraph
Vertex
p929
(dp930
g14
F0.71428571428571419
sg8
I00
sg15
g16
sg17
F65.0
sg18
F-132.28571428571422
sg19
I5803242
sg20
S'14097.6878899'
p931
sg22
F0.66666666666666663
sbasg26
I00
sg27
I00
sg28
I5802644
sg20
S'14097.9654791'
p932
sba(igraph
Edge
p933
(dp934
g7
I1
sg8
I00
sg9
I5
sg10
(lp935
g929
a(igraph
Vertex
p936
(dp937
g14
F0.78571428571428559
sg8
I00
sg15
g16
sg17
F65.0
sg18
F-175.71428571428567
sg19
I5803243
sg20
S'14097.6889677'
p938
sg22
F0.66666666666666663
sbasg26
I00
sg27
I00
sg28
I5802645
sg20
S'14097.9683393'
p939
sba(igraph
Edge
p940
(dp941
g7
I1
sg8
I00
sg9
I5
sg10
(lp942
g936
a(igraph
Vertex
p943
(dp944
g14
F0.8571428571428571
sg8
I01
sg15
I0
sg17
F65.0
sg18
F-219.14285714285711
sg19
I5803245
sg20
S'14097.6900492'
p945
sg22
F0.66666666666666663
sbasg26
I00
sg27
I00
sg28
I5802646
sg20
S'14097.9717509'
p946
sba(igraph
Edge
p947
(dp948
g7
I1
sg8
I00
sg9
I5
sg10
(lp949
g943
a(igraph
Vertex
p950
(dp951
g14
F0.92857142857142849
sg8
I00
sg15
g16
sg17
F65.0
sg18
F-262.57142857142856
sg19
I5803247
sg20
S'14097.6912029'
p952
sg22
F0.66666666666666663
sbasg26
I00
sg27
I00
sg28
I5802647
sg20
S'14097.9746473'
p953
sba(igraph
Edge
p954
(dp955
g7
I1
sg8
I00
sg9
I5
sg10
(lp956
g950
a(igraph
Vertex
p957
(dp958
g14
F1.0
sg8
I00
sg15
g16
sg17
F65.0
sg18
F-306.0
sg19
I5803248
sg20
S'14097.6923282'
p959
sg22
F0.66666666666666663
sbasg26
I00
sg27
I00
sg28
I5802648
sg20
S'14097.9775768'
p960
sba(igraph
Edge
p961
(dp962
g7
I1
sg8
I00
sg9
I5
sg10
(lp963
g957
ag863
asg26
I00
sg27
I00
sg28
I5802649
sg20
S'14097.9805048'
p964
sba(igraph
Edge
p965
(dp966
g7
I1
sg8
I00
sg9
I5
sg10
(lp967
(igraph
Vertex
p968
(dp969
g14
F0.0
sg8
I00
sg15
g16
sg17
F111.5
sg18
F302.0
sg19
I5803249
sg20
S'14097.6934985'
p970
sg22
F0.75
sba(igraph
Vertex
p971
(dp972
g14
F0.071428571428571383
sg8
I00
sg15
g16
sg17
F111.5
sg18
F258.57142857142861
sg19
I5803250
sg20
S'14097.6946307'
p973
sg22
F0.75
sbasg26
I00
sg27
I00
sg28
I5802650
sg20
S'14097.983454'
p974
sba(igraph
Edge
p975
(dp976
g7
I1
sg8
I00
sg9
I5
sg10
(lp977
g971
a(igraph
Vertex
p978
(dp979
g14
F0.1428571428571429
sg8
I00
sg15
g16
sg17
F111.5
sg18
F215.14285714285711
sg19
I5803251
sg20
S'14097.6958164'
p980
sg22
F0.75
sbasg26
I00
sg27
I00
sg28
I5802651
sg20
S'14097.986417'
p981
sba(igraph
Edge
p982
(dp983
g7
I1
sg8
I00
sg9
I5
sg10
(lp984
g978
a(igraph
Vertex
p985
(dp986
g14
F0.21428571428571438
sg8
I00
sg15
g16
sg17
F111.5
sg18
F171.71428571428567
sg19
I5803252
sg20
S'14097.6969897'
p987
sg22
F0.75
sbasg26
I00
sg27
I00
sg28
I5802652
sg20
S'14097.9894093'
p988
sba(igraph
Edge
p989
(dp990
g7
I1
sg8
I00
sg9
I5
sg10
(lp991
g985
a(igraph
Vertex
p992
(dp993
g14
F0.2857142857142857
sg8
I00
sg15
g16
sg17
F111.5
sg18
F128.28571428571431
sg19
I5803253
sg20
S'14097.6981368'
p994
sg22
F0.75
sbasg26
I00
sg27
I00
sg28
I5802653
sg20
S'14097.992482'
p995
sba(igraph
Edge
p996
(dp997
g7
I1
sg8
I00
sg9
I5
sg10
(lp998
g992
a(igraph
Vertex
p999
(dp1000
g14
F0.35714285714285715
sg8
I00
sg15
g16
sg17
F111.5
sg18
F84.857142857142861
sg19
I5803254
sg20
S'14097.6992945'
p1001
sg22
F0.75
sbasg26
I00
sg27
I00
sg28
I5802654
sg20
S'14097.995526'
p1002
sba(igraph
Edge
p1003
(dp1004
g7
I1
sg8
I00
sg9
I5
sg10
(lp1005
g999
a(igraph
Vertex
p1006
(dp1007
g14
F0.4285714285714286
sg8
I00
sg15
g16
sg17
F111.5
sg18
F41.428571428571388
sg19
I5803255
sg20
S'14097.7004617'
p1008
sg22
F0.75
sbasg26
I00
sg27
I00
sg28
I5802655
sg20
S'14097.9985836'
p1009
sba(igraph
Edge
p1010
(dp1011
g7
I1
sg8
I00
sg9
I5
sg10
(lp1012
g1006
a(igraph
Vertex
p1013
(dp1014
g14
F0.50000000000000011
sg8
I00
sg15
g16
sg17
F111.5
sg18
F-2.0000000000000568
sg19
I5803256
sg20
S'14097.7016448'
p1015
sg22
F0.75
sbasg26
I00
sg27
I00
sg28
I5802656
sg20
S'14098.0016659'
p1016
sba(igraph
Edge
p1017
(dp1018
g7
I1
sg8
I00
sg9
I5
sg10
(lp1019
g1013
a(igraph
Vertex
p1020
(dp1021
g14
F0.57142857142857151
sg8
I00
sg15
g16
sg17
F111.5
sg18
F-45.428571428571502
sg19
I5803257
sg20
S'14097.7028273'
p1022
sg22
F0.75
sbasg26
I00
sg27
I00
sg28
I5802657
sg20
S'14098.0047827'
p1023
sba(igraph
Edge
p1024
(dp1025
g7
I1
sg8
I00
sg9
I5
sg10
(lp1026
g1020
a(igraph
Vertex
p1027
(dp1028
g14
F0.64285714285714279
sg8
I00
sg15
g16
sg17
F111.5
sg18
F-88.857142857142833
sg19
I5803258
sg20
S'14097.7040199'
p1029
sg22
F0.75
sbasg26
I00
sg27
I00
sg28
I5802658
sg20
S'14098.008039'
p1030
sba(igraph
Edge
p1031
(dp1032
g7
I1
sg8
I00
sg9
I5
sg10
(lp1033
g1027
a(igraph
Vertex
p1034
(dp1035
g14
F0.71428571428571419
sg8
I00
sg15
g16
sg17
F111.5
sg18
F-132.28571428571422
sg19
I5803259
sg20
S'14097.7052346'
p1036
sg22
F0.75
sbasg26
I00
sg27
I00
sg28
I5802659
sg20
S'14098.0112347'
p1037
sba(igraph
Edge
p1038
(dp1039
g7
I1
sg8
I00
sg9
I5
sg10
(lp1040
g1034
a(igraph
Vertex
p1041
(dp1042
g14
F0.78571428571428559
sg8
I01
sg15
I0
sg17
F111.5
sg18
F-175.71428571428567
sg19
I5803261
sg20
S'14097.7065292'
p1043
sg22
F0.75
sbasg26
I00
sg27
I00
sg28
I5802660
sg20
S'14098.0144175'
p1044
sba(igraph
Edge
p1045
(dp1046
g7
I1
sg8
I00
sg9
I5
sg10
(lp1047
g1041
a(igraph
Vertex
p1048
(dp1049
g14
F0.8571428571428571
sg8
I00
sg15
g16
sg17
F111.5
sg18
F-219.14285714285711
sg19
I5803263
sg20
S'14097.7078676'
p1050
sg22
F0.75
sbasg26
I00
sg27
I00
sg28
I5802661
sg20
S'14098.0177134'
p1051
sba(igraph
Edge
p1052
(dp1053
g7
I1
sg8
I00
sg9
I5
sg10
(lp1054
g1048
a(igraph
Vertex
p1055
(dp1056
g14
F0.92857142857142849
sg8
I00
sg15
g16
sg17
F111.5
sg18
F-262.57142857142856
sg19
I5803264
sg20
S'14097.7091125'
p1057
sg22
F0.75
sbasg26
I00
sg27
I00
sg28
I5802662
sg20
S'14098.0209867'
p1058
sba(igraph
Edge
p1059
(dp1060
g7
I1
sg8
I00
sg9
I5
sg10
(lp1061
g1055
a(igraph
Vertex
p1062
(dp1063
g14
F1.0
sg8
I00
sg15
g16
sg17
F111.5
sg18
F-306.0
sg19
I5803265
sg20
S'14097.7104288'
p1064
sg22
F0.75
sbasg26
I00
sg27
I00
sg28
I5802663
sg20
S'14098.0242045'
p1065
sba(igraph
Edge
p1066
(dp1067
g7
I1
sg8
I00
sg9
I5
sg10
(lp1068
g1062
ag968
asg26
I00
sg27
I00
sg28
I5802664
sg20
S'14098.0275085'
p1069
sba(igraph
Edge
p1070
(dp1071
g7
I1
sg8
I00
sg9
I5
sg10
(lp1072
(igraph
Vertex
p1073
(dp1074
g14
F0.0
sg8
I00
sg15
g16
sg17
F158.0
sg18
F302.0
sg19
I5803266
sg20
S'14097.7116857'
p1075
sg22
F0.83333333333333337
sba(igraph
Vertex
p1076
(dp1077
g14
F0.071428571428571383
sg8
I00
sg15
g16
sg17
F158.0
sg18
F258.57142857142861
sg19
I5803267
sg20
S'14097.7129482'
p1078
sg22
F0.83333333333333337
sbasg26
I00
sg27
I00
sg28
I5802665
sg20
S'14098.0308089'
p1079
sba(igraph
Edge
p1080
(dp1081
g7
I1
sg8
I00
sg9
I5
sg10
(lp1082
g1076
a(igraph
Vertex
p1083
(dp1084
g14
F0.1428571428571429
sg8
I00
sg15
g16
sg17
F158.0
sg18
F215.14285714285711
sg19
I5803268
sg20
S'14097.7142332'
p1085
sg22
F0.83333333333333337
sbasg26
I00
sg27
I00
sg28
I5802666
sg20
S'14098.0342368'
p1086
sba(igraph
Edge
p1087
(dp1088
g7
I1
sg8
I00
sg9
I5
sg10
(lp1089
g1083
a(igraph
Vertex
p1090
(dp1091
g14
F0.21428571428571438
sg8
I00
sg15
g16
sg17
F158.0
sg18
F171.71428571428567
sg19
I5803269
sg20
S'14097.7155454'
p1092
sg22
F0.83333333333333337
sbasg26
I00
sg27
I00
sg28
I5802667
sg20
S'14098.0375827'
p1093
sba(igraph
Edge
p1094
(dp1095
g7
I1
sg8
I00
sg9
I5
sg10
(lp1096
g1090
a(igraph
Vertex
p1097
(dp1098
g14
F0.2857142857142857
sg8
I00
sg15
g16
sg17
F158.0
sg18
F128.28571428571431
sg19
I5803270
sg20
S'14097.7169316'
p1099
sg22
F0.83333333333333337
sbasg26
I00
sg27
I00
sg28
I5802668
sg20
S'14098.0409714'
p1100
sba(igraph
Edge
p1101
(dp1102
g7
I1
sg8
I00
sg9
I5
sg10
(lp1103
g1097
a(igraph
Vertex
p1104
(dp1105
g14
F0.35714285714285715
sg8
I00
sg15
g16
sg17
F158.0
sg18
F84.857142857142861
sg19
I5803271
sg20
S'14097.7182276'
p1106
sg22
F0.83333333333333337
sbasg26
I00
sg27
I00
sg28
I5802669
sg20
S'14098.0443621'
p1107
sba(igraph
Edge
p1108
(dp1109
g7
I1
sg8
I00
sg9
I5
sg10
(lp1110
g1104
a(igraph
Vertex
p1111
(dp1112
g14
F0.4285714285714286
sg8
I00
sg15
g16
sg17
F158.0
sg18
F41.428571428571388
sg19
I5803272
sg20
S'14097.7195199'
p1113
sg22
F0.83333333333333337
sbasg26
I00
sg27
I00
sg28
I5802670
sg20
S'14098.0483148'
p1114
sba(igraph
Edge
p1115
(dp1116
g7
I1
sg8
I00
sg9
I5
sg10
(lp1117
g1111
a(igraph
Vertex
p1118
(dp1119
g14
F0.50000000000000011
sg8
I00
sg15
g16
sg17
F158.0
sg18
F-2.0000000000000568
sg19
I5803273
sg20
S'14097.7208221'
p1120
sg22
F0.83333333333333337
sbasg26
I00
sg27
I00
sg28
I5802671
sg20
S'14098.0517909'
p1121
sba(igraph
Edge
p1122
(dp1123
g7
I1
sg8
I00
sg9
I5
sg10
(lp1124
g1118
a(igraph
Vertex
p1125
(dp1126
g14
F0.57142857142857151
sg8
I00
sg15
g16
sg17
F158.0
sg18
F-45.428571428571502
sg19
I5803274
sg20
S'14097.7222343'
p1127
sg22
F0.83333333333333337
sbasg26
I00
sg27
I00
sg28
I5802672
sg20
S'14098.055304'
p1128
sba(igraph
Edge
p1129
(dp1130
g7
I1
sg8
I00
sg9
I5
sg10
(lp1131
g1125
a(igraph
Vertex
p1132
(dp1133
g14
F0.64285714285714279
sg8
I00
sg15
g16
sg17
F158.0
sg18
F-88.857142857142833
sg19
I5803275
sg20
S'14097.7235584'
p1134
sg22
F0.83333333333333337
sbasg26
I00
sg27
I00
sg28
I5802673
sg20
S'14098.0587834'
p1135
sba(igraph
Edge
p1136
(dp1137
g7
I1
sg8
I00
sg9
I5
sg10
(lp1138
g1132
a(igraph
Vertex
p1139
(dp1140
g14
F0.71428571428571419
sg8
I00
sg15
g16
sg17
F158.0
sg18
F-132.28571428571422
sg19
I5803276
sg20
S'14097.7248899'
p1141
sg22
F0.83333333333333337
sbasg26
I00
sg27
I00
sg28
I5802674
sg20
S'14098.0622409'
p1142
sba(igraph
Edge
p1143
(dp1144
g7
I1
sg8
I00
sg9
I5
sg10
(lp1145
g1139
a(igraph
Vertex
p1146
(dp1147
g14
F0.78571428571428559
sg8
I00
sg15
g16
sg17
F158.0
sg18
F-175.71428571428567
sg19
I5803277
sg20
S'14097.7262314'
p1148
sg22
F0.83333333333333337
sbasg26
I00
sg27
I00
sg28
I5802675
sg20
S'14098.0659637'
p1149
sba(igraph
Edge
p1150
(dp1151
g7
I1
sg8
I00
sg9
I5
sg10
(lp1152
g1146
a(igraph
Vertex
p1153
(dp1154
g14
F0.8571428571428571
sg8
I00
sg15
g16
sg17
F158.0
sg18
F-219.14285714285711
sg19
I5803278
sg20
S'14097.7275821'
p1155
sg22
F0.83333333333333337
sbasg26
I00
sg27
I00
sg28
I5802676
sg20
S'14098.0695127'
p1156
sba(igraph
Edge
p1157
(dp1158
g7
I1
sg8
I00
sg9
I5
sg10
(lp1159
g1153
a(igraph
Vertex
p1160
(dp1161
g14
F0.92857142857142849
sg8
I01
sg15
I0
sg17
F158.0
sg18
F-262.57142857142856
sg19
I5803280
sg20
S'14097.7289443'
p1162
sg22
F0.83333333333333337
sbasg26
I00
sg27
I00
sg28
I5802677
sg20
S'14098.0730481'
p1163
sba(igraph
Edge
p1164
(dp1165
g7
I1
sg8
I00
sg9
I5
sg10
(lp1166
g1160
a(igraph
Vertex
p1167
(dp1168
g14
F1.0
sg8
I00
sg15
g16
sg17
F158.0
sg18
F-306.0
sg19
I5803282
sg20
S'14097.730314'
p1169
sg22
F0.83333333333333337
sbasg26
I00
sg27
I00
sg28
I5802678
sg20
S'14098.0766374'
p1170
sba(igraph
Edge
p1171
(dp1172
g7
I1
sg8
I00
sg9
I5
sg10
(lp1173
g1167
ag1073
asg26
I00
sg27
I00
sg28
I5802679
sg20
S'14098.0802177'
p1174
sba(igraph
Edge
p1175
(dp1176
g7
I1
sg8
I00
sg9
I5
sg10
(lp1177
(igraph
Vertex
p1178
(dp1179
g14
F0.0
sg8
I00
sg15
g16
sg17
F204.5
sg18
F302.0
sg19
I5803283
sg20
S'14097.7316933'
p1180
sg22
F0.91666666666666663
sba(igraph
Vertex
p1181
(dp1182
g14
F0.071428571428571383
sg8
I01
sg15
I0
sg17
F204.5
sg18
F258.57142857142861
sg19
I5803285
sg20
S'14097.7330862'
p1183
sg22
F0.91666666666666663
sbasg26
I00
sg27
I00
sg28
I5802680
sg20
S'14098.0838271'
p1184
sba(igraph
Edge
p1185
(dp1186
g7
I1
sg8
I00
sg9
I5
sg10
(lp1187
g1181
a(igraph
Vertex
p1188
(dp1189
g14
F0.1428571428571429
sg8
I00
sg15
g16
sg17
F204.5
sg18
F215.14285714285711
sg19
I5803287
sg20
S'14097.7344864'
p1190
sg22
F0.91666666666666663
sbasg26
I00
sg27
I00
sg28
I5802681
sg20
S'14098.0875913'
p1191
sba(igraph
Edge
p1192
(dp1193
g7
I1
sg8
I00
sg9
I5
sg10
(lp1194
g1188
a(igraph
Vertex
p1195
(dp1196
g14
F0.21428571428571438
sg8
I00
sg15
g16
sg17
F204.5
sg18
F171.71428571428567
sg19
I5803288
sg20
S'14097.7358946'
p1197
sg22
F0.91666666666666663
sbasg26
I00
sg27
I00
sg28
I5802682
sg20
S'14098.0913024'
p1198
sba(igraph
Edge
p1199
(dp1200
g7
I1
sg8
I00
sg9
I5
sg10
(lp1201
g1195
a(igraph
Vertex
p1202
(dp1203
g14
F0.2857142857142857
sg8
I00
sg15
g16
sg17
F204.5
sg18
F128.28571428571431
sg19
I5803289
sg20
S'14097.73732'
p1204
sg22
F0.91666666666666663
sbasg26
I00
sg27
I00
sg28
I5802683
sg20
S'14098.0950104'
p1205
sba(igraph
Edge
p1206
(dp1207
g7
I1
sg8
I00
sg9
I5
sg10
(lp1208
g1202
a(igraph
Vertex
p1209
(dp1210
g14
F0.35714285714285715
sg8
I00
sg15
g16
sg17
F204.5
sg18
F84.857142857142861
sg19
I5803290
sg20
S'14097.7387573'
p1211
sg22
F0.91666666666666663
sbasg26
I00
sg27
I00
sg28
I5802684
sg20
S'14098.0988084'
p1212
sba(igraph
Edge
p1213
(dp1214
g7
I1
sg8
I00
sg9
I5
sg10
(lp1215
g1209
a(igraph
Vertex
p1216
(dp1217
g14
F0.4285714285714286
sg8
I00
sg15
g16
sg17
F204.5
sg18
F41.428571428571388
sg19
I5803291
sg20
S'14097.7401857'
p1218
sg22
F0.91666666666666663
sbasg26
I00
sg27
I00
sg28
I5802685
sg20
S'14098.1025351'
p1219
sba(igraph
Edge
p1220
(dp1221
g7
I1
sg8
I00
sg9
I5
sg10
(lp1222
g1216
a(igraph
Vertex
p1223
(dp1224
g14
F0.50000000000000011
sg8
I00
sg15
g16
sg17
F204.5
sg18
F-2.0000000000000568
sg19
I5803292
sg20
S'14097.7416258'
p1225
sg22
F0.91666666666666663
sbasg26
I00
sg27
I00
sg28
I5802686
sg20
S'14098.1062766'
p1226
sba(igraph
Edge
p1227
(dp1228
g7
I1
sg8
I00
sg9
I5
sg10
(lp1229
g1223
a(igraph
Vertex
p1230
(dp1231
g14
F0.57142857142857151
sg8
I00
sg15
g16
sg17
F204.5
sg18
F-45.428571428571502
sg19
I5803293
sg20
S'14097.7431252'
p1232
sg22
F0.91666666666666663
sbasg26
I00
sg27
I00
sg28
I5802687
sg20
S'14098.1100296'
p1233
sba(igraph
Edge
p1234
(dp1235
g7
I1
sg8
I00
sg9
I5
sg10
(lp1236
g1230
a(igraph
Vertex
p1237
(dp1238
g14
F0.64285714285714279
sg8
I00
sg15
g16
sg17
F204.5
sg18
F-88.857142857142833
sg19
I5803294
sg20
S'14097.7445971'
p1239
sg22
F0.91666666666666663
sbasg26
I00
sg27
I00
sg28
I5802688
sg20
S'14098.1138648'
p1240
sba(igraph
Edge
p1241
(dp1242
g7
I1
sg8
I00
sg9
I5
sg10
(lp1243
g1237
a(igraph
Vertex
p1244
(dp1245
g14
F0.71428571428571419
sg8
I00
sg15
g16
sg17
F204.5
sg18
F-132.28571428571422
sg19
I5803295
sg20
S'14097.7460641'
p1246
sg22
F0.91666666666666663
sbasg26
I00
sg27
I00
sg28
I5802689
sg20
S'14098.1176513'
p1247
sba(igraph
Edge
p1248
(dp1249
g7
I1
sg8
I00
sg9
I5
sg10
(lp1250
g1244
a(igraph
Vertex
p1251
(dp1252
g14
F0.78571428571428559
sg8
I00
sg15
g16
sg17
F204.5
sg18
F-175.71428571428567
sg19
I5803296
sg20
S'14097.7475417'
p1253
sg22
F0.91666666666666663
sbasg26
I00
sg27
I00
sg28
I5802690
sg20
S'14098.1214819'
p1254
sba(igraph
Edge
p1255
(dp1256
g7
I1
sg8
I00
sg9
I5
sg10
(lp1257
g1251
a(igraph
Vertex
p1258
(dp1259
g14
F0.8571428571428571
sg8
I00
sg15
g16
sg17
F204.5
sg18
F-219.14285714285711
sg19
I5803297
sg20
S'14097.7490237'
p1260
sg22
F0.91666666666666663
sbasg26
I00
sg27
I00
sg28
I5802691
sg20
S'14098.1254601'
p1261
sba(igraph
Edge
p1262
(dp1263
g7
I1
sg8
I00
sg9
I5
sg10
(lp1264
g1258
a(igraph
Vertex
p1265
(dp1266
g14
F0.92857142857142849
sg8
I00
sg15
g16
sg17
F204.5
sg18
F-262.57142857142856
sg19
I5803298
sg20
S'14097.7505208'
p1267
sg22
F0.91666666666666663
sbasg26
I00
sg27
I00
sg28
I5802692
sg20
S'14098.1293117'
p1268
sba(igraph
Edge
p1269
(dp1270
g7
I1
sg8
I00
sg9
I5
sg10
(lp1271
g1265
a(igraph
Vertex
p1272
(dp1273
g14
F1.0
sg8
I00
sg15
g16
sg17
F204.5
sg18
F-306.0
sg19
I5803299
sg20
S'14097.7520182'
p1274
sg22
F0.91666666666666663
sbasg26
I00
sg27
I00
sg28
I5802693
sg20
S'14098.1331851'
p1275
sba(igraph
Edge
p1276
(dp1277
g7
I1
sg8
I00
sg9
I5
sg10
(lp1278
g1272
ag1178
asg26
I00
sg27
I00
sg28
I5802694
sg20
S'14098.137187'
p1279
sba(igraph
Edge
p1280
(dp1281
g7
I1
sg8
I00
sg9
I5
sg10
(lp1282
(igraph
Vertex
p1283
(dp1284
g14
F0.0
sg8
I00
sg15
g16
sg17
F251.0
sg18
F302.0
sg19
I5803300
sg20
S'14097.7535569'
p1285
sg22
F1.0
sba(igraph
Vertex
p1286
(dp1287
g14
F0.071428571428571383
sg8
I00
sg15
g16
sg17
F251.0
sg18
F258.57142857142861
sg19
I5803301
sg20
S'14097.7550767'
p1288
sg22
F1.0
sbasg26
I00
sg27
I00
sg28
I5802695
sg20
S'14098.1411735'
p1289
sba(igraph
Edge
p1290
(dp1291
g7
I1
sg8
I00
sg9
I5
sg10
(lp1292
g1286
a(igraph
Vertex
p1293
(dp1294
g14
F0.1428571428571429
sg8
I00
sg15
g16
sg17
F251.0
sg18
F215.14285714285711
sg19
I5803302
sg20
S'14097.7566157'
p1295
sg22
F1.0
sbasg26
I00
sg27
I00
sg28
I5802696
sg20
S'14098.1452375'
p1296
sba(igraph
Edge
p1297
(dp1298
g7
I1
sg8
I00
sg9
I5
sg10
(lp1299
g1293
a(igraph
Vertex
p1300
(dp1301
g14
F0.21428571428571438
sg8
I00
sg15
g16
sg17
F251.0
sg18
F171.71428571428567
sg19
I5803303
sg20
S'14097.7581539'
p1302
sg22
F1.0
sbasg26
I00
sg27
I00
sg28
I5802697
sg20
S'14098.1494209'
p1303
sba(igraph
Edge
p1304
(dp1305
g7
I1
sg8
I00
sg9
I5
sg10
(lp1306
g1300
a(igraph
Vertex
p1307
(dp1308
g14
F0.2857142857142857
sg8
I00
sg15
g16
sg17
F251.0
sg18
F128.28571428571431
sg19
I5803304
sg20
S'14097.7597024'
p1309
sg22
F1.0
sbasg26
I00
sg27
I00
sg28
I5802698
sg20
S'14098.1534416'
p1310
sba(igraph
Edge
p1311
(dp1312
g7
I1
sg8
I00
sg9
I5
sg10
(lp1313
g1307
a(igraph
Vertex
p1314
(dp1315
g14
F0.35714285714285715
sg8
I00
sg15
g16
sg17
F251.0
sg18
F84.857142857142861
sg19
I5803305
sg20
S'14097.7612593'
p1316
sg22
F1.0
sbasg26
I00
sg27
I00
sg28
I5802699
sg20
S'14098.1576114'
p1317
sba(igraph
Edge
p1318
(dp1319
g7
I1
sg8
I00
sg9
I5
sg10
(lp1320
g1314
a(igraph
Vertex
p1321
(dp1322
g14
F0.4285714285714286
sg8
I00
sg15
g16
sg17
F251.0
sg18
F41.428571428571388
sg19
I5803306
sg20
S'14097.762824'
p1323
sg22
F1.0
sbasg26
I00
sg27
I00
sg28
I5802700
sg20
S'14098.1617359'
p1324
sba(igraph
Edge
p1325
(dp1326
g7
I1
sg8
I00
sg9
I5
sg10
(lp1327
g1321
a(igraph
Vertex
p1328
(dp1329
g14
F0.50000000000000011
sg8
I00
sg15
g16
sg17
F251.0
sg18
F-2.0000000000000568
sg19
I5803307
sg20
S'14097.7643994'
p1330
sg22
F1.0
sbasg26
I00
sg27
I00
sg28
I5802701
sg20
S'14098.1657711'
p1331
sba(igraph
Edge
p1332
(dp1333
g7
I1
sg8
I00
sg9
I5
sg10
(lp1334
g1328
a(igraph
Vertex
p1335
(dp1336
g14
F0.57142857142857151
sg8
I00
sg15
g16
sg17
F251.0
sg18
F-45.428571428571502
sg19
I5803308
sg20
S'14097.7659873'
p1337
sg22
F1.0
sbasg26
I00
sg27
I00
sg28
I5802702
sg20
S'14098.1698255'
p1338
sba(igraph
Edge
p1339
(dp1340
g7
I1
sg8
I00
sg9
I5
sg10
(lp1341
g1335
a(igraph
Vertex
p1342
(dp1343
g14
F0.64285714285714279
sg8
I00
sg15
g16
sg17
F251.0
sg18
F-88.857142857142833
sg19
I5803309
sg20
S'14097.7675922'
p1344
sg22
F1.0
sbasg26
I00
sg27
I00
sg28
I5802703
sg20
S'14098.1739643'
p1345
sba(igraph
Edge
p1346
(dp1347
g7
I1
sg8
I00
sg9
I5
sg10
(lp1348
g1342
a(igraph
Vertex
p1349
(dp1350
g14
F0.71428571428571419
sg8
I00
sg15
g16
sg17
F251.0
sg18
F-132.28571428571422
sg19
I5803310
sg20
S'14097.769205'
p1351
sg22
F1.0
sbasg26
I00
sg27
I00
sg28
I5802704
sg20
S'14098.1781126'
p1352
sba(igraph
Edge
p1353
(dp1354
g7
I1
sg8
I00
sg9
I5
sg10
(lp1355
g1349
a(igraph
Vertex
p1356
(dp1357
g14
F0.78571428571428559
sg8
I00
sg15
g16
sg17
F251.0
sg18
F-175.71428571428567
sg19
I5803311
sg20
S'14097.7708237'
p1358
sg22
F1.0
sbasg26
I00
sg27
I00
sg28
I5802705
sg20
S'14098.1825014'
p1359
sba(igraph
Edge
p1360
(dp1361
g7
I1
sg8
I00
sg9
I5
sg10
(lp1362
g1356
a(igraph
Vertex
p1363
(dp1364
g14
F0.8571428571428571
sg8
I00
sg15
g16
sg17
F251.0
sg18
F-219.14285714285711
sg19
I5803312
sg20
S'14097.7724568'
p1365
sg22
F1.0
sbasg26
I00
sg27
I00
sg28
I5802706
sg20
S'14098.1867821'
p1366
sba(igraph
Edge
p1367
(dp1368
g7
I1
sg8
I00
sg9
I5
sg10
(lp1369
g1363
a(igraph
Vertex
p1370
(dp1371
g14
F0.92857142857142849
sg8
I00
sg15
g16
sg17
F251.0
sg18
F-262.57142857142856
sg19
I5803313
sg20
S'14097.7740894'
p1372
sg22
F1.0
sbasg26
I00
sg27
I00
sg28
I5802707
sg20
S'14098.1913268'
p1373
sba(igraph
Edge
p1374
(dp1375
g7
I1
sg8
I00
sg9
I5
sg10
(lp1376
g1370
a(igraph
Vertex
p1377
(dp1378
g14
F1.0
sg8
I01
sg15
I0
sg17
F251.0
sg18
F-306.0
sg19
I5803315
sg20
S'14097.7757916'
p1379
sg22
F1.0
sbasg26
I00
sg27
I00
sg28
I5802708
sg20
S'14098.1955687'
p1380
sba(igraph
Edge
p1381
(dp1382
g7
I1
sg8
I00
sg9
I5
sg10
(lp1383
g1377
ag1283
asg26
I00
sg27
I00
sg28
I5802709
sg20
S'14098.1997813'
p1384
sba(igraph
Edge
p1385
(dp1386
g7
I1
sg8
I00
sg9
I5
sg10
(lp1387
g12
ag128
asg26
I00
sg27
I00
sg28
I5802710
sg20
S'14098.2040089'
p1388
sba(igraph
Edge
p1389
(dp1390
g7
I1
sg8
I00
sg9
I5
sg10
(lp1391
g23
ag138
asg26
I00
sg27
I00
sg28
I5802711
sg20
S'14098.2083022'
p1392
sba(igraph
Edge
p1393
(dp1394
g7
I1
sg8
I00
sg9
I5
sg10
(lp1395
g33
ag138
asg26
I00
sg27
I00
sg28
I5802712
sg20
S'14098.2127622'
p1396
sba(igraph
Edge
p1397
(dp1398
g7
I1
sg8
I00
sg9
I5
sg10
(lp1399
g40
ag152
asg26
I00
sg27
I00
sg28
I5802713
sg20
S'14098.2172494'
p1400
sba(igraph
Edge
p1401
(dp1402
g7
I1
sg8
I00
sg9
I5
sg10
(lp1403
g47
ag152
asg26
I00
sg27
I00
sg28
I5802714
sg20
S'14098.2222444'
p1404
sba(igraph
Edge
p1405
(dp1406
g7
I1
sg8
I00
sg9
I5
sg10
(lp1407
g54
ag166
asg26
I00
sg27
I00
sg28
I5802715
sg20
S'14098.2266799'
p1408
sba(igraph
Edge
p1409
(dp1410
g7
I1
sg8
I00
sg9
I5
sg10
(lp1411
g61
ag166
asg26
I00
sg27
I00
sg28
I5802716
sg20
S'14098.2310556'
p1412
sba(igraph
Edge
p1413
(dp1414
g7
I1
sg8
I00
sg9
I5
sg10
(lp1415
g68
ag180
asg26
I00
sg27
I00
sg28
I5802717
sg20
S'14098.2354618'
p1416
sba(igraph
Edge
p1417
(dp1418
g7
I1
sg8
I00
sg9
I5
sg10
(lp1419
g75
ag180
asg26
I00
sg27
I00
sg28
I5802718
sg20
S'14098.2398891'
p1420
sba(igraph
Edge
p1421
(dp1422
g7
I1
sg8
I00
sg9
I5
sg10
(lp1423
g82
ag194
asg26
I00
sg27
I00
sg28
I5802719
sg20
S'14098.2444137'
p1424
sba(igraph
Edge
p1425
(dp1426
g7
I1
sg8
I00
sg9
I5
sg10
(lp1427
g89
ag194
asg26
I00
sg27
I00
sg28
I5802720
sg20
S'14098.2488984'
p1428
sba(igraph
Edge
p1429
(dp1430
g7
I1
sg8
I00
sg9
I5
sg10
(lp1431
g96
ag208
asg26
I00
sg27
I00
sg28
I5802721
sg20
S'14098.2534059'
p1432
sba(igraph
Edge
p1433
(dp1434
g7
I1
sg8
I00
sg9
I5
sg10
(lp1435
g103
ag208
asg26
I00
sg27
I00
sg28
I5802722
sg20
S'14098.2580026'
p1436
sba(igraph
Edge
p1437
(dp1438
g7
I1
sg8
I00
sg9
I5
sg10
(lp1439
g110
ag222
asg26
I00
sg27
I00
sg28
I5802723
sg20
S'14098.2625507'
p1440
sba(igraph
Edge
p1441
(dp1442
g7
I1
sg8
I00
sg9
I5
sg10
(lp1443
g117
ag222
asg26
I00
sg27
I00
sg28
I5802724
sg20
S'14098.2671119'
p1444
sba(igraph
Edge
p1445
(dp1446
g7
I1
sg8
I00
sg9
I5
sg10
(lp1447
g12
ag131
asg26
I00
sg27
I00
sg28
I5802725
sg20
S'14098.2716918'
p1448
sba(igraph
Edge
p1449
(dp1450
g7
I1
sg8
I00
sg9
I5
sg10
(lp1451
g23
ag131
asg26
I00
sg27
I00
sg28
I5802726
sg20
S'14098.2763404'
p1452
sba(igraph
Edge
p1453
(dp1454
g7
I1
sg8
I00
sg9
I5
sg10
(lp1455
g33
ag145
asg26
I00
sg27
I00
sg28
I5802727
sg20
S'14098.2809502'
p1456
sba(igraph
Edge
p1457
(dp1458
g7
I1
sg8
I00
sg9
I5
sg10
(lp1459
g40
ag145
asg26
I00
sg27
I00
sg28
I5802728
sg20
S'14098.2858525'
p1460
sba(igraph
Edge
p1461
(dp1462
g7
I1
sg8
I00
sg9
I5
sg10
(lp1463
g47
ag159
asg26
I00
sg27
I00
sg28
I5802729
sg20
S'14098.2905076'
p1464
sba(igraph
Edge
p1465
(dp1466
g7
I1
sg8
I00
sg9
I5
sg10
(lp1467
g54
ag159
asg26
I00
sg27
I00
sg28
I5802730
sg20
S'14098.2951953'
p1468
sba(igraph
Edge
p1469
(dp1470
g7
I1
sg8
I00
sg9
I5
sg10
(lp1471
g61
ag173
asg26
I00
sg27
I00
sg28
I5802731
sg20
S'14098.2998957'
p1472
sba(igraph
Edge
p1473
(dp1474
g7
I1
sg8
I00
sg9
I5
sg10
(lp1475
g68
ag173
asg26
I00
sg27
I00
sg28
I5802732
sg20
S'14098.3046896'
p1476
sba(igraph
Edge
p1477
(dp1478
g7
I1
sg8
I00
sg9
I5
sg10
(lp1479
g75
ag187
asg26
I00
sg27
I00
sg28
I5802733
sg20
S'14098.3095022'
p1480
sba(igraph
Edge
p1481
(dp1482
g7
I1
sg8
I00
sg9
I5
sg10
(lp1483
g82
ag187
asg26
I00
sg27
I00
sg28
I5802734
sg20
S'14098.3143732'
p1484
sba(igraph
Edge
p1485
(dp1486
g7
I1
sg8
I00
sg9
I5
sg10
(lp1487
g89
ag201
asg26
I00
sg27
I00
sg28
I5802735
sg20
S'14098.3191855'
p1488
sba(igraph
Edge
p1489
(dp1490
g7
I1
sg8
I00
sg9
I5
sg10
(lp1491
g96
ag201
asg26
I00
sg27
I00
sg28
I5802736
sg20
S'14098.3240127'
p1492
sba(igraph
Edge
p1493
(dp1494
g7
I1
sg8
I00
sg9
I5
sg10
(lp1495
g103
ag215
asg26
I00
sg27
I00
sg28
I5802737
sg20
S'14098.328853'
p1496
sba(igraph
Edge
p1497
(dp1498
g7
I1
sg8
I00
sg9
I5
sg10
(lp1499
g110
ag215
asg26
I00
sg27
I00
sg28
I5802738
sg20
S'14098.3337891'
p1500
sba(igraph
Edge
p1501
(dp1502
g7
I1
sg8
I00
sg9
I5
sg10
(lp1503
g117
ag128
asg26
I00
sg27
I00
sg28
I5802739
sg20
S'14098.3386676'
p1504
sba(igraph
Edge
p1505
(dp1506
g7
I1
sg8
I00
sg9
I5
sg10
(lp1507
g12
ag1283
asg26
I00
sg27
I00
sg28
I5802740
sg20
S'14098.3436269'
p1508
sba(igraph
Edge
p1509
(dp1510
g7
I1
sg8
I00
sg9
I5
sg10
(lp1511
g23
ag1283
asg26
I00
sg27
I00
sg28
I5802741
sg20
S'14098.3487762'
p1512
sba(igraph
Edge
p1513
(dp1514
g7
I1
sg8
I00
sg9
I5
sg10
(lp1515
g33
ag1293
asg26
I00
sg27
I00
sg28
I5802742
sg20
S'14098.3537843'
p1516
sba(igraph
Edge
p1517
(dp1518
g7
I1
sg8
I00
sg9
I5
sg10
(lp1519
g40
ag1293
asg26
I00
sg27
I00
sg28
I5802743
sg20
S'14098.3587509'
p1520
sba(igraph
Edge
p1521
(dp1522
g7
I1
sg8
I00
sg9
I5
sg10
(lp1523
g47
ag1307
asg26
I00
sg27
I00
sg28
I5802744
sg20
S'14098.3637529'
p1524
sba(igraph
Edge
p1525
(dp1526
g7
I1
sg8
I00
sg9
I5
sg10
(lp1527
g54
ag1307
asg26
I00
sg27
I00
sg28
I5802745
sg20
S'14098.3688773'
p1528
sba(igraph
Edge
p1529
(dp1530
g7
I1
sg8
I00
sg9
I5
sg10
(lp1531
g61
ag1321
asg26
I00
sg27
I00
sg28
I5802746
sg20
S'14098.374007'
p1532
sba(igraph
Edge
p1533
(dp1534
g7
I1
sg8
I00
sg9
I5
sg10
(lp1535
g68
ag1321
asg26
I00
sg27
I00
sg28
I5802747
sg20
S'14098.3791658'
p1536
sba(igraph
Edge
p1537
(dp1538
g7
I1
sg8
I00
sg9
I5
sg10
(lp1539
g75
ag1335
asg26
I00
sg27
I00
sg28
I5802748
sg20
S'14098.384341'
p1540
sba(igraph
Edge
p1541
(dp1542
g7
I1
sg8
I00
sg9
I5
sg10
(lp1543
g82
ag1335
asg26
I00
sg27
I00
sg28
I5802749
sg20
S'14098.3894811'
p1544
sba(igraph
Edge
p1545
(dp1546
g7
I1
sg8
I00
sg9
I5
sg10
(lp1547
g89
ag1349
asg26
I00
sg27
I00
sg28
I5802750
sg20
S'14098.3945893'
p1548
sba(igraph
Edge
p1549
(dp1550
g7
I1
sg8
I00
sg9
I5
sg10
(lp1551
g96
ag1349
asg26
I00
sg27
I00
sg28
I5802751
sg20
S'14098.3998427'
p1552
sba(igraph
Edge
p1553
(dp1554
g7
I1
sg8
I00
sg9
I5
sg10
(lp1555
g103
ag1363
asg26
I00
sg27
I00
sg28
I5802752
sg20
S'14098.4051434'
p1556
sba(igraph
Edge
p1557
(dp1558
g7
I1
sg8
I00
sg9
I5
sg10
(lp1559
g110
ag1363
asg26
I00
sg27
I00
sg28
I5802753
sg20
S'14098.4103544'
p1560
sba(igraph
Edge
p1561
(dp1562
g7
I1
sg8
I00
sg9
I5
sg10
(lp1563
g117
ag1377
asg26
I00
sg27
I00
sg28
I5802754
sg20
S'14098.4155464'
p1564
sba(igraph
Edge
p1565
(dp1566
g7
I1
sg8
I00
sg9
I5
sg10
(lp1567
g12
ag1377
asg26
I00
sg27
I00
sg28
I5802755
sg20
S'14098.4207691'
p1568
sba(igraph
Edge
p1569
(dp1570
g7
I1
sg8
I00
sg9
I5
sg10
(lp1571
g23
ag1286
asg26
I00
sg27
I00
sg28
I5802756
sg20
S'14098.4260148'
p1572
sba(igraph
Edge
p1573
(dp1574
g7
I1
sg8
I00
sg9
I5
sg10
(lp1575
g33
ag1286
asg26
I00
sg27
I00
sg28
I5802757
sg20
S'14098.4314275'
p1576
sba(igraph
Edge
p1577
(dp1578
g7
I1
sg8
I00
sg9
I5
sg10
(lp1579
g40
ag1300
asg26
I00
sg27
I00
sg28
I5802758
sg20
S'14098.4367742'
p1580
sba(igraph
Edge
p1581
(dp1582
g7
I1
sg8
I00
sg9
I5
sg10
(lp1583
g47
ag1300
asg26
I00
sg27
I00
sg28
I5802759
sg20
S'14098.4422414'
p1584
sba(igraph
Edge
p1585
(dp1586
g7
I1
sg8
I00
sg9
I5
sg10
(lp1587
g54
ag1314
asg26
I00
sg27
I00
sg28
I5802760
sg20
S'14098.4476239'
p1588
sba(igraph
Edge
p1589
(dp1590
g7
I1
sg8
I00
sg9
I5
sg10
(lp1591
g61
ag1314
asg26
I00
sg27
I00
sg28
I5802761
sg20
S'14098.4530391'
p1592
sba(igraph
Edge
p1593
(dp1594
g7
I1
sg8
I00
sg9
I5
sg10
(lp1595
g68
ag1328
asg26
I00
sg27
I00
sg28
I5802762
sg20
S'14098.4584136'
p1596
sba(igraph
Edge
p1597
(dp1598
g7
I1
sg8
I00
sg9
I5
sg10
(lp1599
g75
ag1328
asg26
I00
sg27
I00
sg28
I5802763
sg20
S'14098.4638626'
p1600
sba(igraph
Edge
p1601
(dp1602
g7
I1
sg8
I00
sg9
I5
sg10
(lp1603
g82
ag1342
asg26
I00
sg27
I00
sg28
I5802764
sg20
S'14098.469294'
p1604
sba(igraph
Edge
p1605
(dp1606
g7
I1
sg8
I00
sg9
I5
sg10
(lp1607
g89
ag1342
asg26
I00
sg27
I00
sg28
I5802765
sg20
S'14098.4748821'
p1608
sba(igraph
Edge
p1609
(dp1610
g7
I1
sg8
I00
sg9
I5
sg10
(lp1611
g96
ag1356
asg26
I00
sg27
I00
sg28
I5802766
sg20
S'14098.4803088'
p1612
sba(igraph
Edge
p1613
(dp1614
g7
I1
sg8
I00
sg9
I5
sg10
(lp1615
g103
ag1356
asg26
I00
sg27
I00
sg28
I5802767
sg20
S'14098.4858011'
p1616
sba(igraph
Edge
p1617
(dp1618
g7
I1
sg8
I00
sg9
I5
sg10
(lp1619
g110
ag1370
asg26
I00
sg27
I00
sg28
I5802768
sg20
S'14098.4913108'
p1620
sba(igraph
Edge
p1621
(dp1622
g7
I1
sg8
I00
sg9
I5
sg10
(lp1623
g117
ag1370
asg26
I00
sg27
I00
sg28
I5802769
sg20
S'14098.4969615'
p1624
sba(igraph
Edge
p1625
(dp1626
g7
I1
sg8
I00
sg9
I5
sg10
(lp1627
g128
ag233
asg26
I00
sg27
I00
sg28
I5802770
sg20
S'14098.5025334'
p1628
sba(igraph
Edge
p1629
(dp1630
g7
I1
sg8
I00
sg9
I5
sg10
(lp1631
g131
ag243
asg26
I00
sg27
I00
sg28
I5802771
sg20
S'14098.508109'
p1632
sba(igraph
Edge
p1633
(dp1634
g7
I1
sg8
I00
sg9
I5
sg10
(lp1635
g138
ag243
asg26
I00
sg27
I00
sg28
I5802772
sg20
S'14098.5136594'
p1636
sba(igraph
Edge
p1637
(dp1638
g7
I1
sg8
I00
sg9
I5
sg10
(lp1639
g145
ag257
asg26
I00
sg27
I00
sg28
I5802773
sg20
S'14098.5192671'
p1640
sba(igraph
Edge
p1641
(dp1642
g7
I1
sg8
I00
sg9
I5
sg10
(lp1643
g152
ag257
asg26
I00
sg27
I00
sg28
I5802774
sg20
S'14098.5249528'
p1644
sba(igraph
Edge
p1645
(dp1646
g7
I1
sg8
I00
sg9
I5
sg10
(lp1647
g159
ag271
asg26
I00
sg27
I00
sg28
I5802775
sg20
S'14098.5305976'
p1648
sba(igraph
Edge
p1649
(dp1650
g7
I1
sg8
I00
sg9
I5
sg10
(lp1651
g166
ag271
asg26
I00
sg27
I00
sg28
I5802776
sg20
S'14098.5362757'
p1652
sba(igraph
Edge
p1653
(dp1654
g7
I1
sg8
I00
sg9
I5
sg10
(lp1655
g173
ag285
asg26
I00
sg27
I00
sg28
I5802777
sg20
S'14098.5419172'
p1656
sba(igraph
Edge
p1657
(dp1658
g7
I1
sg8
I00
sg9
I5
sg10
(lp1659
g180
ag285
asg26
I00
sg27
I00
sg28
I5802778
sg20
S'14098.5477794'
p1660
sba(igraph
Edge
p1661
(dp1662
g7
I1
sg8
I00
sg9
I5
sg10
(lp1663
g187
ag299
asg26
I00
sg27
I00
sg28
I5802779
sg20
S'14098.5535279'
p1664
sba(igraph
Edge
p1665
(dp1666
g7
I1
sg8
I00
sg9
I5
sg10
(lp1667
g194
ag299
asg26
I00
sg27
I00
sg28
I5802780
sg20
S'14098.5592714'
p1668
sba(igraph
Edge
p1669
(dp1670
g7
I1
sg8
I00
sg9
I5
sg10
(lp1671
g201
ag313
asg26
I00
sg27
I00
sg28
I5802781
sg20
S'14098.5650375'
p1672
sba(igraph
Edge
p1673
(dp1674
g7
I1
sg8
I00
sg9
I5
sg10
(lp1675
g208
ag313
asg26
I00
sg27
I00
sg28
I5802782
sg20
S'14098.5708681'
p1676
sba(igraph
Edge
p1677
(dp1678
g7
I1
sg8
I00
sg9
I5
sg10
(lp1679
g215
ag327
asg26
I00
sg27
I00
sg28
I5802783
sg20
S'14098.5767121'
p1680
sba(igraph
Edge
p1681
(dp1682
g7
I1
sg8
I00
sg9
I5
sg10
(lp1683
g222
ag327
asg26
I00
sg27
I00
sg28
I5802784
sg20
S'14098.584393'
p1684
sba(igraph
Edge
p1685
(dp1686
g7
I1
sg8
I00
sg9
I5
sg10
(lp1687
g128
ag236
asg26
I00
sg27
I00
sg28
I5802785
sg20
S'14098.5911008'
p1688
sba(igraph
Edge
p1689
(dp1690
g7
I1
sg8
I00
sg9
I5
sg10
(lp1691
g131
ag236
asg26
I00
sg27
I00
sg28
I5802786
sg20
S'14098.5979972'
p1692
sba(igraph
Edge
p1693
(dp1694
g7
I1
sg8
I00
sg9
I5
sg10
(lp1695
g138
ag250
asg26
I00
sg27
I00
sg28
I5802787
sg20
S'14098.6044715'
p1696
sba(igraph
Edge
p1697
(dp1698
g7
I1
sg8
I00
sg9
I5
sg10
(lp1699
g145
ag250
asg26
I00
sg27
I00
sg28
I5802788
sg20
S'14098.6110997'
p1700
sba(igraph
Edge
p1701
(dp1702
g7
I1
sg8
I00
sg9
I5
sg10
(lp1703
g152
ag264
asg26
I00
sg27
I00
sg28
I5802789
sg20
S'14098.6176634'
p1704
sba(igraph
Edge
p1705
(dp1706
g7
I1
sg8
I00
sg9
I5
sg10
(lp1707
g159
ag264
asg26
I00
sg27
I00
sg28
I5802790
sg20
S'14098.6241737'
p1708
sba(igraph
Edge
p1709
(dp1710
g7
I1
sg8
I00
sg9
I5
sg10
(lp1711
g166
ag278
asg26
I00
sg27
I00
sg28
I5802791
sg20
S'14098.6315649'
p1712
sba(igraph
Edge
p1713
(dp1714
g7
I1
sg8
I00
sg9
I5
sg10
(lp1715
g173
ag278
asg26
I00
sg27
I00
sg28
I5802792
sg20
S'14098.6383381'
p1716
sba(igraph
Edge
p1717
(dp1718
g7
I1
sg8
I00
sg9
I5
sg10
(lp1719
g180
ag292
asg26
I00
sg27
I00
sg28
I5802793
sg20
S'14098.6453485'
p1720
sba(igraph
Edge
p1721
(dp1722
g7
I1
sg8
I00
sg9
I5
sg10
(lp1723
g187
ag292
asg26
I00
sg27
I00
sg28
I5802794
sg20
S'14098.6521907'
p1724
sba(igraph
Edge
p1725
(dp1726
g7
I1
sg8
I00
sg9
I5
sg10
(lp1727
g194
ag306
asg26
I00
sg27
I00
sg28
I5802795
sg20
S'14098.6605219'
p1728
sba(igraph
Edge
p1729
(dp1730
g7
I1
sg8
I00
sg9
I5
sg10
(lp1731
g201
ag306
asg26
I00
sg27
I00
sg28
I5802796
sg20
S'14098.6685185'
p1732
sba(igraph
Edge
p1733
(dp1734
g7
I1
sg8
I00
sg9
I5
sg10
(lp1735
g208
ag320
asg26
I00
sg27
I00
sg28
I5802797
sg20
S'14098.6755099'
p1736
sba(igraph
Edge
p1737
(dp1738
g7
I1
sg8
I00
sg9
I5
sg10
(lp1739
g215
ag320
asg26
I00
sg27
I00
sg28
I5802798
sg20
S'14098.6833891'
p1740
sba(igraph
Edge
p1741
(dp1742
g7
I1
sg8
I00
sg9
I5
sg10
(lp1743
g222
ag233
asg26
I00
sg27
I00
sg28
I5802799
sg20
S'14098.6908403'
p1744
sba(igraph
Edge
p1745
(dp1746
g7
I1
sg8
I00
sg9
I5
sg10
(lp1747
g233
ag338
asg26
I00
sg27
I00
sg28
I5802800
sg20
S'14098.6994758'
p1748
sba(igraph
Edge
p1749
(dp1750
g7
I1
sg8
I00
sg9
I5
sg10
(lp1751
g236
ag348
asg26
I00
sg27
I00
sg28
I5802801
sg20
S'14098.7072656'
p1752
sba(igraph
Edge
p1753
(dp1754
g7
I1
sg8
I00
sg9
I5
sg10
(lp1755
g243
ag348
asg26
I00
sg27
I00
sg28
I5802802
sg20
S'14098.7148802'
p1756
sba(igraph
Edge
p1757
(dp1758
g7
I1
sg8
I00
sg9
I5
sg10
(lp1759
g250
ag362
asg26
I00
sg27
I00
sg28
I5802803
sg20
S'14098.7225519'
p1760
sba(igraph
Edge
p1761
(dp1762
g7
I1
sg8
I00
sg9
I5
sg10
(lp1763
g257
ag362
asg26
I00
sg27
I00
sg28
I5802804
sg20
S'14098.7296302'
p1764
sba(igraph
Edge
p1765
(dp1766
g7
I1
sg8
I00
sg9
I5
sg10
(lp1767
g264
ag376
asg26
I00
sg27
I00
sg28
I5802805
sg20
S'14098.7368213'
p1768
sba(igraph
Edge
p1769
(dp1770
g7
I1
sg8
I00
sg9
I5
sg10
(lp1771
g271
ag376
asg26
I00
sg27
I00
sg28
I5802806
sg20
S'14098.7441242'
p1772
sba(igraph
Edge
p1773
(dp1774
g7
I1
sg8
I00
sg9
I5
sg10
(lp1775
g278
ag390
asg26
I00
sg27
I00
sg28
I5802807
sg20
S'14098.7540087'
p1776
sba(igraph
Edge
p1777
(dp1778
g7
I1
sg8
I00
sg9
I5
sg10
(lp1779
g285
ag390
asg26
I00
sg27
I00
sg28
I5802808
sg20
S'14098.7627249'
p1780
sba(igraph
Edge
p1781
(dp1782
g7
I1
sg8
I00
sg9
I5
sg10
(lp1783
g292
ag404
asg26
I00
sg27
I00
sg28
I5802809
sg20
S'14098.7720082'
p1784
sba(igraph
Edge
p1785
(dp1786
g7
I1
sg8
I00
sg9
I5
sg10
(lp1787
g299
ag404
asg26
I00
sg27
I00
sg28
I5802810
sg20
S'14098.7790253'
p1788
sba(igraph
Edge
p1789
(dp1790
g7
I1
sg8
I00
sg9
I5
sg10
(lp1791
g306
ag418
asg26
I00
sg27
I00
sg28
I5802811
sg20
S'14098.7859482'
p1792
sba(igraph
Edge
p1793
(dp1794
g7
I1
sg8
I00
sg9
I5
sg10
(lp1795
g313
ag418
asg26
I00
sg27
I00
sg28
I5802812
sg20
S'14098.7942683'
p1796
sba(igraph
Edge
p1797
(dp1798
g7
I1
sg8
I00
sg9
I5
sg10
(lp1799
g320
ag432
asg26
I00
sg27
I00
sg28
I5802813
sg20
S'14098.802828'
p1800
sba(igraph
Edge
p1801
(dp1802
g7
I1
sg8
I00
sg9
I5
sg10
(lp1803
g327
ag432
asg26
I00
sg27
I00
sg28
I5802814
sg20
S'14098.8113009'
p1804
sba(igraph
Edge
p1805
(dp1806
g7
I1
sg8
I00
sg9
I5
sg10
(lp1807
g233
ag341
asg26
I00
sg27
I00
sg28
I5802815
sg20
S'14098.820613'
p1808
sba(igraph
Edge
p1809
(dp1810
g7
I1
sg8
I00
sg9
I5
sg10
(lp1811
g236
ag341
asg26
I00
sg27
I00
sg28
I5802816
sg20
S'14098.8291579'
p1812
sba(igraph
Edge
p1813
(dp1814
g7
I1
sg8
I00
sg9
I5
sg10
(lp1815
g243
ag355
asg26
I00
sg27
I00
sg28
I5802817
sg20
S'14098.8378489'
p1816
sba(igraph
Edge
p1817
(dp1818
g7
I1
sg8
I00
sg9
I5
sg10
(lp1819
g250
ag355
asg26
I00
sg27
I00
sg28
I5802818
sg20
S'14098.8455762'
p1820
sba(igraph
Edge
p1821
(dp1822
g7
I1
sg8
I00
sg9
I5
sg10
(lp1823
g257
ag369
asg26
I00
sg27
I00
sg28
I5802819
sg20
S'14098.8528807'
p1824
sba(igraph
Edge
p1825
(dp1826
g7
I1
sg8
I00
sg9
I5
sg10
(lp1827
g264
ag369
asg26
I00
sg27
I00
sg28
I5802820
sg20
S'14098.8601677'
p1828
sba(igraph
Edge
p1829
(dp1830
g7
I1
sg8
I00
sg9
I5
sg10
(lp1831
g271
ag383
asg26
I00
sg27
I00
sg28
I5802821
sg20
S'14098.8675966'
p1832
sba(igraph
Edge
p1833
(dp1834
g7
I1
sg8
I00
sg9
I5
sg10
(lp1835
g278
ag383
asg26
I00
sg27
I00
sg28
I5802822
sg20
S'14098.8748433'
p1836
sba(igraph
Edge
p1837
(dp1838
g7
I1
sg8
I00
sg9
I5
sg10
(lp1839
g285
ag397
asg26
I00
sg27
I00
sg28
I5802823
sg20
S'14098.8824957'
p1840
sba(igraph
Edge
p1841
(dp1842
g7
I1
sg8
I00
sg9
I5
sg10
(lp1843
g292
ag397
asg26
I00
sg27
I00
sg28
I5802824
sg20
S'14098.8899712'
p1844
sba(igraph
Edge
p1845
(dp1846
g7
I1
sg8
I00
sg9
I5
sg10
(lp1847
g299
ag411
asg26
I00
sg27
I00
sg28
I5802825
sg20
S'14098.8974426'
p1848
sba(igraph
Edge
p1849
(dp1850
g7
I1
sg8
I00
sg9
I5
sg10
(lp1851
g306
ag411
asg26
I00
sg27
I00
sg28
I5802826
sg20
S'14098.9052396'
p1852
sba(igraph
Edge
p1853
(dp1854
g7
I1
sg8
I00
sg9
I5
sg10
(lp1855
g313
ag425
asg26
I00
sg27
I00
sg28
I5802827
sg20
S'14098.9155133'
p1856
sba(igraph
Edge
p1857
(dp1858
g7
I1
sg8
I00
sg9
I5
sg10
(lp1859
g320
ag425
asg26
I00
sg27
I00
sg28
I5802828
sg20
S'14098.9234129'
p1860
sba(igraph
Edge
p1861
(dp1862
g7
I1
sg8
I00
sg9
I5
sg10
(lp1863
g327
ag338
asg26
I00
sg27
I00
sg28
I5802829
sg20
S'14098.9310901'
p1864
sba(igraph
Edge
p1865
(dp1866
g7
I1
sg8
I00
sg9
I5
sg10
(lp1867
g338
ag443
asg26
I00
sg27
I00
sg28
I5802830
sg20
S'14098.9396152'
p1868
sba(igraph
Edge
p1869
(dp1870
g7
I1
sg8
I00
sg9
I5
sg10
(lp1871
g341
ag453
asg26
I00
sg27
I00
sg28
I5802831
sg20
S'14098.9479473'
p1872
sba(igraph
Edge
p1873
(dp1874
g7
I1
sg8
I00
sg9
I5
sg10
(lp1875
g348
ag453
asg26
I00
sg27
I00
sg28
I5802832
sg20
S'14098.9564202'
p1876
sba(igraph
Edge
p1877
(dp1878
g7
I1
sg8
I00
sg9
I5
sg10
(lp1879
g355
ag467
asg26
I00
sg27
I00
sg28
I5802833
sg20
S'14098.9650472'
p1880
sba(igraph
Edge
p1881
(dp1882
g7
I1
sg8
I00
sg9
I5
sg10
(lp1883
g362
ag467
asg26
I00
sg27
I00
sg28
I5802834
sg20
S'14098.9756709'
p1884
sba(igraph
Edge
p1885
(dp1886
g7
I1
sg8
I00
sg9
I5
sg10
(lp1887
g369
ag481
asg26
I00
sg27
I00
sg28
I5802835
sg20
S'14098.9846025'
p1888
sba(igraph
Edge
p1889
(dp1890
g7
I1
sg8
I00
sg9
I5
sg10
(lp1891
g376
ag481
asg26
I00
sg27
I00
sg28
I5802836
sg20
S'14098.99262'
p1892
sba(igraph
Edge
p1893
(dp1894
g7
I1
sg8
I00
sg9
I5
sg10
(lp1895
g383
ag495
asg26
I00
sg27
I00
sg28
I5802837
sg20
S'14099.0002109'
p1896
sba(igraph
Edge
p1897
(dp1898
g7
I1
sg8
I00
sg9
I5
sg10
(lp1899
g390
ag495
asg26
I00
sg27
I00
sg28
I5802838
sg20
S'14099.0084033'
p1900
sba(igraph
Edge
p1901
(dp1902
g7
I1
sg8
I00
sg9
I5
sg10
(lp1903
g397
ag509
asg26
I00
sg27
I00
sg28
I5802839
sg20
S'14099.0162747'
p1904
sba(igraph
Edge
p1905
(dp1906
g7
I1
sg8
I00
sg9
I5
sg10
(lp1907
g404
ag509
asg26
I00
sg27
I00
sg28
I5802840
sg20
S'14099.0241388'
p1908
sba(igraph
Edge
p1909
(dp1910
g7
I1
sg8
I00
sg9
I5
sg10
(lp1911
g411
ag523
asg26
I00
sg27
I00
sg28
I5802841
sg20
S'14099.033899'
p1912
sba(igraph
Edge
p1913
(dp1914
g7
I1
sg8
I00
sg9
I5
sg10
(lp1915
g418
ag523
asg26
I00
sg27
I00
sg28
I5802842
sg20
S'14099.0419699'
p1916
sba(igraph
Edge
p1917
(dp1918
g7
I1
sg8
I00
sg9
I5
sg10
(lp1919
g425
ag537
asg26
I00
sg27
I00
sg28
I5802843
sg20
S'14099.0559965'
p1920
sba(igraph
Edge
p1921
(dp1922
g7
I1
sg8
I00
sg9
I5
sg10
(lp1923
g432
ag537
asg26
I00
sg27
I00
sg28
I5802844
sg20
S'14099.0662492'
p1924
sba(igraph
Edge
p1925
(dp1926
g7
I1
sg8
I00
sg9
I5
sg10
(lp1927
g338
ag446
asg26
I00
sg27
I00
sg28
I5802845
sg20
S'14099.0752911'
p1928
sba(igraph
Edge
p1929
(dp1930
g7
I1
sg8
I00
sg9
I5
sg10
(lp1931
g341
ag446
asg26
I00
sg27
I00
sg28
I5802846
sg20
S'14099.0841942'
p1932
sba(igraph
Edge
p1933
(dp1934
g7
I1
sg8
I00
sg9
I5
sg10
(lp1935
g348
ag460
asg26
I00
sg27
I00
sg28
I5802847
sg20
S'14099.0932356'
p1936
sba(igraph
Edge
p1937
(dp1938
g7
I1
sg8
I00
sg9
I5
sg10
(lp1939
g355
ag460
asg26
I00
sg27
I00
sg28
I5802848
sg20
S'14099.1015383'
p1940
sba(igraph
Edge
p1941
(dp1942
g7
I1
sg8
I00
sg9
I5
sg10
(lp1943
g362
ag474
asg26
I00
sg27
I00
sg28
I5802849
sg20
S'14099.1104344'
p1944
sba(igraph
Edge
p1945
(dp1946
g7
I1
sg8
I00
sg9
I5
sg10
(lp1947
g369
ag474
asg26
I00
sg27
I00
sg28
I5802850
sg20
S'14099.1183941'
p1948
sba(igraph
Edge
p1949
(dp1950
g7
I1
sg8
I00
sg9
I5
sg10
(lp1951
g376
ag488
asg26
I00
sg27
I00
sg28
I5802851
sg20
S'14099.1272525'
p1952
sba(igraph
Edge
p1953
(dp1954
g7
I1
sg8
I00
sg9
I5
sg10
(lp1955
g383
ag488
asg26
I00
sg27
I00
sg28
I5802852
sg20
S'14099.1352848'
p1956
sba(igraph
Edge
p1957
(dp1958
g7
I1
sg8
I00
sg9
I5
sg10
(lp1959
g390
ag502
asg26
I00
sg27
I00
sg28
I5802853
sg20
S'14099.1436163'
p1960
sba(igraph
Edge
p1961
(dp1962
g7
I1
sg8
I00
sg9
I5
sg10
(lp1963
g397
ag502
asg26
I00
sg27
I00
sg28
I5802854
sg20
S'14099.1524361'
p1964
sba(igraph
Edge
p1965
(dp1966
g7
I1
sg8
I00
sg9
I5
sg10
(lp1967
g404
ag516
asg26
I00
sg27
I00
sg28
I5802855
sg20
S'14099.1614356'
p1968
sba(igraph
Edge
p1969
(dp1970
g7
I1
sg8
I00
sg9
I5
sg10
(lp1971
g411
ag516
asg26
I00
sg27
I00
sg28
I5802856
sg20
S'14099.1698537'
p1972
sba(igraph
Edge
p1973
(dp1974
g7
I1
sg8
I00
sg9
I5
sg10
(lp1975
g418
ag530
asg26
I00
sg27
I00
sg28
I5802857
sg20
S'14099.1779293'
p1976
sba(igraph
Edge
p1977
(dp1978
g7
I1
sg8
I00
sg9
I5
sg10
(lp1979
g425
ag530
asg26
I00
sg27
I00
sg28
I5802858
sg20
S'14099.1858859'
p1980
sba(igraph
Edge
p1981
(dp1982
g7
I1
sg8
I00
sg9
I5
sg10
(lp1983
g432
ag443
asg26
I00
sg27
I00
sg28
I5802859
sg20
S'14099.194206'
p1984
sba(igraph
Edge
p1985
(dp1986
g7
I1
sg8
I00
sg9
I5
sg10
(lp1987
g443
ag548
asg26
I00
sg27
I00
sg28
I5802860
sg20
S'14099.2025134'
p1988
sba(igraph
Edge
p1989
(dp1990
g7
I1
sg8
I00
sg9
I5
sg10
(lp1991
g446
ag558
asg26
I00
sg27
I00
sg28
I5802861
sg20
S'14099.2109735'
p1992
sba(igraph
Edge
p1993
(dp1994
g7
I1
sg8
I00
sg9
I5
sg10
(lp1995
g453
ag558
asg26
I00
sg27
I00
sg28
I5802862
sg20
S'14099.2204154'
p1996
sba(igraph
Edge
p1997
(dp1998
g7
I1
sg8
I00
sg9
I5
sg10
(lp1999
g460
ag572
asg26
I00
sg27
I00
sg28
I5802863
sg20
S'14099.2285117'
p2000
sba(igraph
Edge
p2001
(dp2002
g7
I1
sg8
I00
sg9
I5
sg10
(lp2003
g467
ag572
asg26
I00
sg27
I00
sg28
I5802864
sg20
S'14099.2367228'
p2004
sba(igraph
Edge
p2005
(dp2006
g7
I1
sg8
I00
sg9
I5
sg10
(lp2007
g474
ag586
asg26
I00
sg27
I00
sg28
I5802865
sg20
S'14099.2452189'
p2008
sba(igraph
Edge
p2009
(dp2010
g7
I1
sg8
I00
sg9
I5
sg10
(lp2011
g481
ag586
asg26
I00
sg27
I00
sg28
I5802866
sg20
S'14099.2535643'
p2012
sba(igraph
Edge
p2013
(dp2014
g7
I1
sg8
I00
sg9
I5
sg10
(lp2015
g488
ag600
asg26
I00
sg27
I00
sg28
I5802867
sg20
S'14099.2641654'
p2016
sba(igraph
Edge
p2017
(dp2018
g7
I1
sg8
I00
sg9
I5
sg10
(lp2019
g495
ag600
asg26
I00
sg27
I00
sg28
I5802868
sg20
S'14099.2738594'
p2020
sba(igraph
Edge
p2021
(dp2022
g7
I1
sg8
I00
sg9
I5
sg10
(lp2023
g502
ag614
asg26
I00
sg27
I00
sg28
I5802869
sg20
S'14099.28374'
p2024
sba(igraph
Edge
p2025
(dp2026
g7
I1
sg8
I00
sg9
I5
sg10
(lp2027
g509
ag614
asg26
I00
sg27
I00
sg28
I5802870
sg20
S'14099.2936574'
p2028
sba(igraph
Edge
p2029
(dp2030
g7
I1
sg8
I00
sg9
I5
sg10
(lp2031
g516
ag628
asg26
I00
sg27
I00
sg28
I5802871
sg20
S'14099.3028119'
p2032
sba(igraph
Edge
p2033
(dp2034
g7
I1
sg8
I00
sg9
I5
sg10
(lp2035
g523
ag628
asg26
I00
sg27
I00
sg28
I5802872
sg20
S'14099.3116893'
p2036
sba(igraph
Edge
p2037
(dp2038
g7
I1
sg8
I00
sg9
I5
sg10
(lp2039
g530
ag642
asg26
I00
sg27
I00
sg28
I5802873
sg20
S'14099.3202983'
p2040
sba(igraph
Edge
p2041
(dp2042
g7
I1
sg8
I00
sg9
I5
sg10
(lp2043
g537
ag642
asg26
I00
sg27
I00
sg28
I5802874
sg20
S'14099.3291927'
p2044
sba(igraph
Edge
p2045
(dp2046
g7
I1
sg8
I00
sg9
I5
sg10
(lp2047
g443
ag551
asg26
I00
sg27
I00
sg28
I5802875
sg20
S'14099.3380326'
p2048
sba(igraph
Edge
p2049
(dp2050
g7
I1
sg8
I00
sg9
I5
sg10
(lp2051
g446
ag551
asg26
I00
sg27
I00
sg28
I5802876
sg20
S'14099.3523043'
p2052
sba(igraph
Edge
p2053
(dp2054
g7
I1
sg8
I00
sg9
I5
sg10
(lp2055
g453
ag565
asg26
I00
sg27
I00
sg28
I5802877
sg20
S'14099.3608126'
p2056
sba(igraph
Edge
p2057
(dp2058
g7
I1
sg8
I00
sg9
I5
sg10
(lp2059
g460
ag565
asg26
I00
sg27
I00
sg28
I5802878
sg20
S'14099.3693062'
p2060
sba(igraph
Edge
p2061
(dp2062
g7
I1
sg8
I00
sg9
I5
sg10
(lp2063
g467
ag579
asg26
I00
sg27
I00
sg28
I5802879
sg20
S'14099.3794932'
p2064
sba(igraph
Edge
p2065
(dp2066
g7
I1
sg8
I00
sg9
I5
sg10
(lp2067
g474
ag579
asg26
I00
sg27
I00
sg28
I5802880
sg20
S'14099.3899459'
p2068
sba(igraph
Edge
p2069
(dp2070
g7
I1
sg8
I00
sg9
I5
sg10
(lp2071
g481
ag593
asg26
I00
sg27
I00
sg28
I5802881
sg20
S'14099.4002562'
p2072
sba(igraph
Edge
p2073
(dp2074
g7
I1
sg8
I00
sg9
I5
sg10
(lp2075
g488
ag593
asg26
I00
sg27
I00
sg28
I5802882
sg20
S'14099.4108237'
p2076
sba(igraph
Edge
p2077
(dp2078
g7
I1
sg8
I00
sg9
I5
sg10
(lp2079
g495
ag607
asg26
I00
sg27
I00
sg28
I5802883
sg20
S'14099.4208784'
p2080
sba(igraph
Edge
p2081
(dp2082
g7
I1
sg8
I00
sg9
I5
sg10
(lp2083
g502
ag607
asg26
I00
sg27
I00
sg28
I5802884
sg20
S'14099.4315057'
p2084
sba(igraph
Edge
p2085
(dp2086
g7
I1
sg8
I00
sg9
I5
sg10
(lp2087
g509
ag621
asg26
I00
sg27
I00
sg28
I5802885
sg20
S'14099.4403029'
p2088
sba(igraph
Edge
p2089
(dp2090
g7
I1
sg8
I00
sg9
I5
sg10
(lp2091
g516
ag621
asg26
I00
sg27
I00
sg28
I5802886
sg20
S'14099.4492822'
p2092
sba(igraph
Edge
p2093
(dp2094
g7
I1
sg8
I00
sg9
I5
sg10
(lp2095
g523
ag635
asg26
I00
sg27
I00
sg28
I5802887
sg20
S'14099.4579495'
p2096
sba(igraph
Edge
p2097
(dp2098
g7
I1
sg8
I00
sg9
I5
sg10
(lp2099
g530
ag635
asg26
I00
sg27
I00
sg28
I5802888
sg20
S'14099.4670096'
p2100
sba(igraph
Edge
p2101
(dp2102
g7
I1
sg8
I00
sg9
I5
sg10
(lp2103
g537
ag548
asg26
I00
sg27
I00
sg28
I5802889
sg20
S'14099.47787'
p2104
sba(igraph
Edge
p2105
(dp2106
g7
I1
sg8
I00
sg9
I5
sg10
(lp2107
g548
ag653
asg26
I00
sg27
I00
sg28
I5802890
sg20
S'14099.487217'
p2108
sba(igraph
Edge
p2109
(dp2110
g7
I1
sg8
I00
sg9
I5
sg10
(lp2111
g551
ag663
asg26
I00
sg27
I00
sg28
I5802891
sg20
S'14099.4972721'
p2112
sba(igraph
Edge
p2113
(dp2114
g7
I1
sg8
I00
sg9
I5
sg10
(lp2115
g558
ag663
asg26
I00
sg27
I00
sg28
I5802892
sg20
S'14099.5080883'
p2116
sba(igraph
Edge
p2117
(dp2118
g7
I1
sg8
I00
sg9
I5
sg10
(lp2119
g565
ag677
asg26
I00
sg27
I00
sg28
I5802893
sg20
S'14099.5181393'
p2120
sba(igraph
Edge
p2121
(dp2122
g7
I1
sg8
I00
sg9
I5
sg10
(lp2123
g572
ag677
asg26
I00
sg27
I00
sg28
I5802894
sg20
S'14099.5280777'
p2124
sba(igraph
Edge
p2125
(dp2126
g7
I1
sg8
I00
sg9
I5
sg10
(lp2127
g579
ag691
asg26
I00
sg27
I00
sg28
I5802895
sg20
S'14099.5392278'
p2128
sba(igraph
Edge
p2129
(dp2130
g7
I1
sg8
I00
sg9
I5
sg10
(lp2131
g586
ag691
asg26
I00
sg27
I00
sg28
I5802896
sg20
S'14099.5485108'
p2132
sba(igraph
Edge
p2133
(dp2134
g7
I1
sg8
I00
sg9
I5
sg10
(lp2135
g593
ag705
asg26
I00
sg27
I00
sg28
I5802897
sg20
S'14099.5582064'
p2136
sba(igraph
Edge
p2137
(dp2138
g7
I1
sg8
I00
sg9
I5
sg10
(lp2139
g600
ag705
asg26
I00
sg27
I00
sg28
I5802898
sg20
S'14099.567723'
p2140
sba(igraph
Edge
p2141
(dp2142
g7
I1
sg8
I00
sg9
I5
sg10
(lp2143
g607
ag719
asg26
I00
sg27
I00
sg28
I5802899
sg20
S'14099.5789018'
p2144
sba(igraph
Edge
p2145
(dp2146
g7
I1
sg8
I00
sg9
I5
sg10
(lp2147
g614
ag719
asg26
I00
sg27
I00
sg28
I5802900
sg20
S'14099.5919258'
p2148
sba(igraph
Edge
p2149
(dp2150
g7
I1
sg8
I00
sg9
I5
sg10
(lp2151
g621
ag733
asg26
I00
sg27
I00
sg28
I5802901
sg20
S'14099.6015429'
p2152
sba(igraph
Edge
p2153
(dp2154
g7
I1
sg8
I00
sg9
I5
sg10
(lp2155
g628
ag733
asg26
I00
sg27
I00
sg28
I5802902
sg20
S'14099.6125765'
p2156
sba(igraph
Edge
p2157
(dp2158
g7
I1
sg8
I00
sg9
I5
sg10
(lp2159
g635
ag747
asg26
I00
sg27
I00
sg28
I5802903
sg20
S'14099.6235695'
p2160
sba(igraph
Edge
p2161
(dp2162
g7
I1
sg8
I00
sg9
I5
sg10
(lp2163
g642
ag747
asg26
I00
sg27
I00
sg28
I5802904
sg20
S'14099.6350408'
p2164
sba(igraph
Edge
p2165
(dp2166
g7
I1
sg8
I00
sg9
I5
sg10
(lp2167
g548
ag656
asg26
I00
sg27
I00
sg28
I5802905
sg20
S'14099.6456217'
p2168
sba(igraph
Edge
p2169
(dp2170
g7
I1
sg8
I00
sg9
I5
sg10
(lp2171
g551
ag656
asg26
I00
sg27
I00
sg28
I5802906
sg20
S'14099.6566005'
p2172
sba(igraph
Edge
p2173
(dp2174
g7
I1
sg8
I00
sg9
I5
sg10
(lp2175
g558
ag670
asg26
I00
sg27
I00
sg28
I5802907
sg20
S'14099.6663992'
p2176
sba(igraph
Edge
p2177
(dp2178
g7
I1
sg8
I00
sg9
I5
sg10
(lp2179
g565
ag670
asg26
I00
sg27
I00
sg28
I5802908
sg20
S'14099.6762619'
p2180
sba(igraph
Edge
p2181
(dp2182
g7
I1
sg8
I00
sg9
I5
sg10
(lp2183
g572
ag684
asg26
I00
sg27
I00
sg28
I5802909
sg20
S'14099.685921'
p2184
sba(igraph
Edge
p2185
(dp2186
g7
I1
sg8
I00
sg9
I5
sg10
(lp2187
g579
ag684
asg26
I00
sg27
I00
sg28
I5802910
sg20
S'14099.694781'
p2188
sba(igraph
Edge
p2189
(dp2190
g7
I1
sg8
I00
sg9
I5
sg10
(lp2191
g586
ag698
asg26
I00
sg27
I00
sg28
I5802911
sg20
S'14099.7034011'
p2192
sba(igraph
Edge
p2193
(dp2194
g7
I1
sg8
I00
sg9
I5
sg10
(lp2195
g593
ag698
asg26
I00
sg27
I00
sg28
I5802912
sg20
S'14099.7121816'
p2196
sba(igraph
Edge
p2197
(dp2198
g7
I1
sg8
I00
sg9
I5
sg10
(lp2199
g600
ag712
asg26
I00
sg27
I00
sg28
I5802913
sg20
S'14099.7209092'
p2200
sba(igraph
Edge
p2201
(dp2202
g7
I1
sg8
I00
sg9
I5
sg10
(lp2203
g607
ag712
asg26
I00
sg27
I00
sg28
I5802914
sg20
S'14099.7295687'
p2204
sba(igraph
Edge
p2205
(dp2206
g7
I1
sg8
I00
sg9
I5
sg10
(lp2207
g614
ag726
asg26
I00
sg27
I00
sg28
I5802915
sg20
S'14099.7382301'
p2208
sba(igraph
Edge
p2209
(dp2210
g7
I1
sg8
I00
sg9
I5
sg10
(lp2211
g621
ag726
asg26
I00
sg27
I00
sg28
I5802916
sg20
S'14099.7469826'
p2212
sba(igraph
Edge
p2213
(dp2214
g7
I1
sg8
I00
sg9
I5
sg10
(lp2215
g628
ag740
asg26
I00
sg27
I00
sg28
I5802917
sg20
S'14099.7562154'
p2216
sba(igraph
Edge
p2217
(dp2218
g7
I1
sg8
I00
sg9
I5
sg10
(lp2219
g635
ag740
asg26
I00
sg27
I00
sg28
I5802918
sg20
S'14099.7651738'
p2220
sba(igraph
Edge
p2221
(dp2222
g7
I1
sg8
I00
sg9
I5
sg10
(lp2223
g642
ag653
asg26
I00
sg27
I00
sg28
I5802919
sg20
S'14099.7739822'
p2224
sba(igraph
Edge
p2225
(dp2226
g7
I1
sg8
I00
sg9
I5
sg10
(lp2227
g653
ag758
asg26
I00
sg27
I00
sg28
I5802920
sg20
S'14099.7829487'
p2228
sba(igraph
Edge
p2229
(dp2230
g7
I1
sg8
I00
sg9
I5
sg10
(lp2231
g656
ag768
asg26
I00
sg27
I00
sg28
I5802921
sg20
S'14099.7919588'
p2232
sba(igraph
Edge
p2233
(dp2234
g7
I1
sg8
I00
sg9
I5
sg10
(lp2235
g663
ag768
asg26
I00
sg27
I00
sg28
I5802922
sg20
S'14099.8008004'
p2236
sba(igraph
Edge
p2237
(dp2238
g7
I1
sg8
I00
sg9
I5
sg10
(lp2239
g670
ag782
asg26
I00
sg27
I00
sg28
I5802923
sg20
S'14099.8097334'
p2240
sba(igraph
Edge
p2241
(dp2242
g7
I1
sg8
I00
sg9
I5
sg10
(lp2243
g677
ag782
asg26
I00
sg27
I00
sg28
I5802924
sg20
S'14099.8187745'
p2244
sba(igraph
Edge
p2245
(dp2246
g7
I1
sg8
I00
sg9
I5
sg10
(lp2247
g684
ag796
asg26
I00
sg27
I00
sg28
I5802925
sg20
S'14099.8277678'
p2248
sba(igraph
Edge
p2249
(dp2250
g7
I1
sg8
I00
sg9
I5
sg10
(lp2251
g691
ag796
asg26
I00
sg27
I00
sg28
I5802926
sg20
S'14099.8367751'
p2252
sba(igraph
Edge
p2253
(dp2254
g7
I1
sg8
I00
sg9
I5
sg10
(lp2255
g698
ag810
asg26
I00
sg27
I00
sg28
I5802927
sg20
S'14099.8458511'
p2256
sba(igraph
Edge
p2257
(dp2258
g7
I1
sg8
I00
sg9
I5
sg10
(lp2259
g705
ag810
asg26
I00
sg27
I00
sg28
I5802928
sg20
S'14099.8547757'
p2260
sba(igraph
Edge
p2261
(dp2262
g7
I1
sg8
I00
sg9
I5
sg10
(lp2263
g712
ag824
asg26
I00
sg27
I00
sg28
I5802929
sg20
S'14099.863793'
p2264
sba(igraph
Edge
p2265
(dp2266
g7
I1
sg8
I00
sg9
I5
sg10
(lp2267
g719
ag824
asg26
I00
sg27
I00
sg28
I5802930
sg20
S'14099.8727822'
p2268
sba(igraph
Edge
p2269
(dp2270
g7
I1
sg8
I00
sg9
I5
sg10
(lp2271
g726
ag838
asg26
I00
sg27
I00
sg28
I5802931
sg20
S'14099.8818034'
p2272
sba(igraph
Edge
p2273
(dp2274
g7
I1
sg8
I00
sg9
I5
sg10
(lp2275
g733
ag838
asg26
I00
sg27
I00
sg28
I5802932
sg20
S'14099.8913152'
p2276
sba(igraph
Edge
p2277
(dp2278
g7
I1
sg8
I00
sg9
I5
sg10
(lp2279
g740
ag852
asg26
I00
sg27
I00
sg28
I5802933
sg20
S'14099.9005589'
p2280
sba(igraph
Edge
p2281
(dp2282
g7
I1
sg8
I00
sg9
I5
sg10
(lp2283
g747
ag852
asg26
I00
sg27
I00
sg28
I5802934
sg20
S'14099.9098927'
p2284
sba(igraph
Edge
p2285
(dp2286
g7
I1
sg8
I00
sg9
I5
sg10
(lp2287
g653
ag761
asg26
I00
sg27
I00
sg28
I5802935
sg20
S'14099.9191445'
p2288
sba(igraph
Edge
p2289
(dp2290
g7
I1
sg8
I00
sg9
I5
sg10
(lp2291
g656
ag761
asg26
I00
sg27
I00
sg28
I5802936
sg20
S'14099.9283616'
p2292
sba(igraph
Edge
p2293
(dp2294
g7
I1
sg8
I00
sg9
I5
sg10
(lp2295
g663
ag775
asg26
I00
sg27
I00
sg28
I5802937
sg20
S'14099.9377343'
p2296
sba(igraph
Edge
p2297
(dp2298
g7
I1
sg8
I00
sg9
I5
sg10
(lp2299
g670
ag775
asg26
I00
sg27
I00
sg28
I5802938
sg20
S'14099.9470335'
p2300
sba(igraph
Edge
p2301
(dp2302
g7
I1
sg8
I00
sg9
I5
sg10
(lp2303
g677
ag789
asg26
I00
sg27
I00
sg28
I5802939
sg20
S'14099.9562967'
p2304
sba(igraph
Edge
p2305
(dp2306
g7
I1
sg8
I00
sg9
I5
sg10
(lp2307
g684
ag789
asg26
I00
sg27
I00
sg28
I5802940
sg20
S'14099.9655588'
p2308
sba(igraph
Edge
p2309
(dp2310
g7
I1
sg8
I00
sg9
I5
sg10
(lp2311
g691
ag803
asg26
I00
sg27
I00
sg28
I5802941
sg20
S'14099.9751264'
p2312
sba(igraph
Edge
p2313
(dp2314
g7
I1
sg8
I00
sg9
I5
sg10
(lp2315
g698
ag803
asg26
I00
sg27
I00
sg28
I5802942
sg20
S'14099.9845427'
p2316
sba(igraph
Edge
p2317
(dp2318
g7
I1
sg8
I00
sg9
I5
sg10
(lp2319
g705
ag817
asg26
I00
sg27
I00
sg28
I5802943
sg20
S'14099.9938769'
p2320
sba(igraph
Edge
p2321
(dp2322
g7
I1
sg8
I00
sg9
I5
sg10
(lp2323
g712
ag817
asg26
I00
sg27
I00
sg28
I5802944
sg20
S'14100.003323'
p2324
sba(igraph
Edge
p2325
(dp2326
g7
I1
sg8
I00
sg9
I5
sg10
(lp2327
g719
ag831
asg26
I00
sg27
I00
sg28
I5802945
sg20
S'14100.0127913'
p2328
sba(igraph
Edge
p2329
(dp2330
g7
I1
sg8
I00
sg9
I5
sg10
(lp2331
g726
ag831
asg26
I00
sg27
I00
sg28
I5802946
sg20
S'14100.0220799'
p2332
sba(igraph
Edge
p2333
(dp2334
g7
I1
sg8
I00
sg9
I5
sg10
(lp2335
g733
ag845
asg26
I00
sg27
I00
sg28
I5802947
sg20
S'14100.0317515'
p2336
sba(igraph
Edge
p2337
(dp2338
g7
I1
sg8
I00
sg9
I5
sg10
(lp2339
g740
ag845
asg26
I00
sg27
I00
sg28
I5802948
sg20
S'14100.0411795'
p2340
sba(igraph
Edge
p2341
(dp2342
g7
I1
sg8
I00
sg9
I5
sg10
(lp2343
g747
ag758
asg26
I00
sg27
I00
sg28
I5802949
sg20
S'14100.0506509'
p2344
sba(igraph
Edge
p2345
(dp2346
g7
I1
sg8
I00
sg9
I5
sg10
(lp2347
g758
ag863
asg26
I00
sg27
I00
sg28
I5802950
sg20
S'14100.0603127'
p2348
sba(igraph
Edge
p2349
(dp2350
g7
I1
sg8
I00
sg9
I5
sg10
(lp2351
g761
ag873
asg26
I00
sg27
I00
sg28
I5802951
sg20
S'14100.0698385'
p2352
sba(igraph
Edge
p2353
(dp2354
g7
I1
sg8
I00
sg9
I5
sg10
(lp2355
g768
ag873
asg26
I00
sg27
I00
sg28
I5802952
sg20
S'14100.0794023'
p2356
sba(igraph
Edge
p2357
(dp2358
g7
I1
sg8
I00
sg9
I5
sg10
(lp2359
g775
ag887
asg26
I00
sg27
I00
sg28
I5802953
sg20
S'14100.0889951'
p2360
sba(igraph
Edge
p2361
(dp2362
g7
I1
sg8
I00
sg9
I5
sg10
(lp2363
g782
ag887
asg26
I00
sg27
I00
sg28
I5802954
sg20
S'14100.0986567'
p2364
sba(igraph
Edge
p2365
(dp2366
g7
I1
sg8
I00
sg9
I5
sg10
(lp2367
g789
ag901
asg26
I00
sg27
I00
sg28
I5802955
sg20
S'14100.1082149'
p2368
sba(igraph
Edge
p2369
(dp2370
g7
I1
sg8
I00
sg9
I5
sg10
(lp2371
g796
ag901
asg26
I00
sg27
I00
sg28
I5802956
sg20
S'14100.1179144'
p2372
sba(igraph
Edge
p2373
(dp2374
g7
I1
sg8
I00
sg9
I5
sg10
(lp2375
g803
ag915
asg26
I00
sg27
I00
sg28
I5802957
sg20
S'14100.127674'
p2376
sba(igraph
Edge
p2377
(dp2378
g7
I1
sg8
I00
sg9
I5
sg10
(lp2379
g810
ag915
asg26
I00
sg27
I00
sg28
I5802958
sg20
S'14100.1375359'
p2380
sba(igraph
Edge
p2381
(dp2382
g7
I1
sg8
I00
sg9
I5
sg10
(lp2383
g817
ag929
asg26
I00
sg27
I00
sg28
I5802959
sg20
S'14100.1472039'
p2384
sba(igraph
Edge
p2385
(dp2386
g7
I1
sg8
I00
sg9
I5
sg10
(lp2387
g824
ag929
asg26
I00
sg27
I00
sg28
I5802960
sg20
S'14100.1568861'
p2388
sba(igraph
Edge
p2389
(dp2390
g7
I1
sg8
I00
sg9
I5
sg10
(lp2391
g831
ag943
asg26
I00
sg27
I00
sg28
I5802961
sg20
S'14100.166674'
p2392
sba(igraph
Edge
p2393
(dp2394
g7
I1
sg8
I00
sg9
I5
sg10
(lp2395
g838
ag943
asg26
I00
sg27
I00
sg28
I5802962
sg20
S'14100.1764157'
p2396
sba(igraph
Edge
p2397
(dp2398
g7
I1
sg8
I00
sg9
I5
sg10
(lp2399
g845
ag957
asg26
I00
sg27
I00
sg28
I5802963
sg20
S'14100.1863463'
p2400
sba(igraph
Edge
p2401
(dp2402
g7
I1
sg8
I00
sg9
I5
sg10
(lp2403
g852
ag957
asg26
I00
sg27
I00
sg28
I5802964
sg20
S'14100.1961948'
p2404
sba(igraph
Edge
p2405
(dp2406
g7
I1
sg8
I00
sg9
I5
sg10
(lp2407
g758
ag866
asg26
I00
sg27
I00
sg28
I5802965
sg20
S'14100.2059921'
p2408
sba(igraph
Edge
p2409
(dp2410
g7
I1
sg8
I00
sg9
I5
sg10
(lp2411
g761
ag866
asg26
I00
sg27
I00
sg28
I5802966
sg20
S'14100.2160417'
p2412
sba(igraph
Edge
p2413
(dp2414
g7
I1
sg8
I00
sg9
I5
sg10
(lp2415
g768
ag880
asg26
I00
sg27
I00
sg28
I5802967
sg20
S'14100.2259594'
p2416
sba(igraph
Edge
p2417
(dp2418
g7
I1
sg8
I00
sg9
I5
sg10
(lp2419
g775
ag880
asg26
I00
sg27
I00
sg28
I5802968
sg20
S'14100.235902'
p2420
sba(igraph
Edge
p2421
(dp2422
g7
I1
sg8
I00
sg9
I5
sg10
(lp2423
g782
ag894
asg26
I00
sg27
I00
sg28
I5802969
sg20
S'14100.2459631'
p2424
sba(igraph
Edge
p2425
(dp2426
g7
I1
sg8
I00
sg9
I5
sg10
(lp2427
g789
ag894
asg26
I00
sg27
I00
sg28
I5802970
sg20
S'14100.2560834'
p2428
sba(igraph
Edge
p2429
(dp2430
g7
I1
sg8
I00
sg9
I5
sg10
(lp2431
g796
ag908
asg26
I00
sg27
I00
sg28
I5802971
sg20
S'14100.2660517'
p2432
sba(igraph
Edge
p2433
(dp2434
g7
I1
sg8
I00
sg9
I5
sg10
(lp2435
g803
ag908
asg26
I00
sg27
I00
sg28
I5802972
sg20
S'14100.2761315'
p2436
sba(igraph
Edge
p2437
(dp2438
g7
I1
sg8
I00
sg9
I5
sg10
(lp2439
g810
ag922
asg26
I00
sg27
I00
sg28
I5802973
sg20
S'14100.2870415'
p2440
sba(igraph
Edge
p2441
(dp2442
g7
I1
sg8
I00
sg9
I5
sg10
(lp2443
g817
ag922
asg26
I00
sg27
I00
sg28
I5802974
sg20
S'14100.3025111'
p2444
sba(igraph
Edge
p2445
(dp2446
g7
I1
sg8
I00
sg9
I5
sg10
(lp2447
g824
ag936
asg26
I00
sg27
I00
sg28
I5802975
sg20
S'14100.3142486'
p2448
sba(igraph
Edge
p2449
(dp2450
g7
I1
sg8
I00
sg9
I5
sg10
(lp2451
g831
ag936
asg26
I00
sg27
I00
sg28
I5802976
sg20
S'14100.3256026'
p2452
sba(igraph
Edge
p2453
(dp2454
g7
I1
sg8
I00
sg9
I5
sg10
(lp2455
g838
ag950
asg26
I00
sg27
I00
sg28
I5802977
sg20
S'14100.3445332'
p2456
sba(igraph
Edge
p2457
(dp2458
g7
I1
sg8
I00
sg9
I5
sg10
(lp2459
g845
ag950
asg26
I00
sg27
I00
sg28
I5802978
sg20
S'14100.3582827'
p2460
sba(igraph
Edge
p2461
(dp2462
g7
I1
sg8
I00
sg9
I5
sg10
(lp2463
g852
ag863
asg26
I00
sg27
I00
sg28
I5802979
sg20
S'14100.3713184'
p2464
sba(igraph
Edge
p2465
(dp2466
g7
I1
sg8
I00
sg9
I5
sg10
(lp2467
g863
ag968
asg26
I00
sg27
I00
sg28
I5802980
sg20
S'14100.3838658'
p2468
sba(igraph
Edge
p2469
(dp2470
g7
I1
sg8
I00
sg9
I5
sg10
(lp2471
g866
ag978
asg26
I00
sg27
I00
sg28
I5802981
sg20
S'14100.3950145'
p2472
sba(igraph
Edge
p2473
(dp2474
g7
I1
sg8
I00
sg9
I5
sg10
(lp2475
g873
ag978
asg26
I00
sg27
I00
sg28
I5802982
sg20
S'14100.4051954'
p2476
sba(igraph
Edge
p2477
(dp2478
g7
I1
sg8
I00
sg9
I5
sg10
(lp2479
g880
ag992
asg26
I00
sg27
I00
sg28
I5802983
sg20
S'14100.4156319'
p2480
sba(igraph
Edge
p2481
(dp2482
g7
I1
sg8
I00
sg9
I5
sg10
(lp2483
g887
ag992
asg26
I00
sg27
I00
sg28
I5802984
sg20
S'14100.4257798'
p2484
sba(igraph
Edge
p2485
(dp2486
g7
I1
sg8
I00
sg9
I5
sg10
(lp2487
g894
ag1006
asg26
I00
sg27
I00
sg28
I5802985
sg20
S'14100.4359727'
p2488
sba(igraph
Edge
p2489
(dp2490
g7
I1
sg8
I00
sg9
I5
sg10
(lp2491
g901
ag1006
asg26
I00
sg27
I00
sg28
I5802986
sg20
S'14100.4464992'
p2492
sba(igraph
Edge
p2493
(dp2494
g7
I1
sg8
I00
sg9
I5
sg10
(lp2495
g908
ag1020
asg26
I00
sg27
I00
sg28
I5802987
sg20
S'14100.4567715'
p2496
sba(igraph
Edge
p2497
(dp2498
g7
I1
sg8
I00
sg9
I5
sg10
(lp2499
g915
ag1020
asg26
I00
sg27
I00
sg28
I5802988
sg20
S'14100.4671001'
p2500
sba(igraph
Edge
p2501
(dp2502
g7
I1
sg8
I00
sg9
I5
sg10
(lp2503
g922
ag1034
asg26
I00
sg27
I00
sg28
I5802989
sg20
S'14100.4776953'
p2504
sba(igraph
Edge
p2505
(dp2506
g7
I1
sg8
I00
sg9
I5
sg10
(lp2507
g929
ag1034
asg26
I00
sg27
I00
sg28
I5802990
sg20
S'14100.4881187'
p2508
sba(igraph
Edge
p2509
(dp2510
g7
I1
sg8
I00
sg9
I5
sg10
(lp2511
g936
ag1048
asg26
I00
sg27
I00
sg28
I5802991
sg20
S'14100.4986421'
p2512
sba(igraph
Edge
p2513
(dp2514
g7
I1
sg8
I00
sg9
I5
sg10
(lp2515
g943
ag1048
asg26
I00
sg27
I00
sg28
I5802992
sg20
S'14100.5090848'
p2516
sba(igraph
Edge
p2517
(dp2518
g7
I1
sg8
I00
sg9
I5
sg10
(lp2519
g950
ag1062
asg26
I00
sg27
I00
sg28
I5802993
sg20
S'14100.5195387'
p2520
sba(igraph
Edge
p2521
(dp2522
g7
I1
sg8
I00
sg9
I5
sg10
(lp2523
g957
ag1062
asg26
I00
sg27
I00
sg28
I5802994
sg20
S'14100.5299928'
p2524
sba(igraph
Edge
p2525
(dp2526
g7
I1
sg8
I00
sg9
I5
sg10
(lp2527
g863
ag971
asg26
I00
sg27
I00
sg28
I5802995
sg20
S'14100.5404153'
p2528
sba(igraph
Edge
p2529
(dp2530
g7
I1
sg8
I00
sg9
I5
sg10
(lp2531
g866
ag971
asg26
I00
sg27
I00
sg28
I5802996
sg20
S'14100.5508829'
p2532
sba(igraph
Edge
p2533
(dp2534
g7
I1
sg8
I00
sg9
I5
sg10
(lp2535
g873
ag985
asg26
I00
sg27
I00
sg28
I5802997
sg20
S'14100.5614892'
p2536
sba(igraph
Edge
p2537
(dp2538
g7
I1
sg8
I00
sg9
I5
sg10
(lp2539
g880
ag985
asg26
I00
sg27
I00
sg28
I5802998
sg20
S'14100.5721205'
p2540
sba(igraph
Edge
p2541
(dp2542
g7
I1
sg8
I00
sg9
I5
sg10
(lp2543
g887
ag999
asg26
I00
sg27
I00
sg28
I5802999
sg20
S'14100.582926'
p2544
sba(igraph
Edge
p2545
(dp2546
g7
I1
sg8
I00
sg9
I5
sg10
(lp2547
g894
ag999
asg26
I00
sg27
I00
sg28
I5803000
sg20
S'14100.5963135'
p2548
sba(igraph
Edge
p2549
(dp2550
g7
I1
sg8
I00
sg9
I5
sg10
(lp2551
g901
ag1013
asg26
I00
sg27
I00
sg28
I5803001
sg20
S'14100.6078055'
p2552
sba(igraph
Edge
p2553
(dp2554
g7
I1
sg8
I00
sg9
I5
sg10
(lp2555
g908
ag1013
asg26
I00
sg27
I00
sg28
I5803002
sg20
S'14100.6185767'
p2556
sba(igraph
Edge
p2557
(dp2558
g7
I1
sg8
I00
sg9
I5
sg10
(lp2559
g915
ag1027
asg26
I00
sg27
I00
sg28
I5803003
sg20
S'14100.6293629'
p2560
sba(igraph
Edge
p2561
(dp2562
g7
I1
sg8
I00
sg9
I5
sg10
(lp2563
g922
ag1027
asg26
I00
sg27
I00
sg28
I5803004
sg20
S'14100.640061'
p2564
sba(igraph
Edge
p2565
(dp2566
g7
I1
sg8
I00
sg9
I5
sg10
(lp2567
g929
ag1041
asg26
I00
sg27
I00
sg28
I5803005
sg20
S'14100.650793'
p2568
sba(igraph
Edge
p2569
(dp2570
g7
I1
sg8
I00
sg9
I5
sg10
(lp2571
g936
ag1041
asg26
I00
sg27
I00
sg28
I5803006
sg20
S'14100.661548'
p2572
sba(igraph
Edge
p2573
(dp2574
g7
I1
sg8
I00
sg9
I5
sg10
(lp2575
g943
ag1055
asg26
I00
sg27
I00
sg28
I5803007
sg20
S'14100.6722824'
p2576
sba(igraph
Edge
p2577
(dp2578
g7
I1
sg8
I00
sg9
I5
sg10
(lp2579
g950
ag1055
asg26
I00
sg27
I00
sg28
I5803008
sg20
S'14100.6830019'
p2580
sba(igraph
Edge
p2581
(dp2582
g7
I1
sg8
I00
sg9
I5
sg10
(lp2583
g957
ag968
asg26
I00
sg27
I00
sg28
I5803009
sg20
S'14100.6940234'
p2584
sba(igraph
Edge
p2585
(dp2586
g7
I1
sg8
I00
sg9
I5
sg10
(lp2587
g968
ag1073
asg26
I00
sg27
I00
sg28
I5803010
sg20
S'14100.7050664'
p2588
sba(igraph
Edge
p2589
(dp2590
g7
I1
sg8
I00
sg9
I5
sg10
(lp2591
g971
ag1083
asg26
I00
sg27
I00
sg28
I5803011
sg20
S'14100.7160815'
p2592
sba(igraph
Edge
p2593
(dp2594
g7
I1
sg8
I00
sg9
I5
sg10
(lp2595
g978
ag1083
asg26
I00
sg27
I00
sg28
I5803012
sg20
S'14100.727096'
p2596
sba(igraph
Edge
p2597
(dp2598
g7
I1
sg8
I00
sg9
I5
sg10
(lp2599
g985
ag1097
asg26
I00
sg27
I00
sg28
I5803013
sg20
S'14100.7381125'
p2600
sba(igraph
Edge
p2601
(dp2602
g7
I1
sg8
I00
sg9
I5
sg10
(lp2603
g992
ag1097
asg26
I00
sg27
I00
sg28
I5803014
sg20
S'14100.7489438'
p2604
sba(igraph
Edge
p2605
(dp2606
g7
I1
sg8
I00
sg9
I5
sg10
(lp2607
g999
ag1111
asg26
I00
sg27
I00
sg28
I5803015
sg20
S'14100.75986'
p2608
sba(igraph
Edge
p2609
(dp2610
g7
I1
sg8
I00
sg9
I5
sg10
(lp2611
g1006
ag1111
asg26
I00
sg27
I00
sg28
I5803016
sg20
S'14100.7709173'
p2612
sba(igraph
Edge
p2613
(dp2614
g7
I1
sg8
I00
sg9
I5
sg10
(lp2615
g1013
ag1125
asg26
I00
sg27
I00
sg28
I5803017
sg20
S'14100.7817843'
p2616
sba(igraph
Edge
p2617
(dp2618
g7
I1
sg8
I00
sg9
I5
sg10
(lp2619
g1020
ag1125
asg26
I00
sg27
I00
sg28
I5803018
sg20
S'14100.7932469'
p2620
sba(igraph
Edge
p2621
(dp2622
g7
I1
sg8
I00
sg9
I5
sg10
(lp2623
g1027
ag1139
asg26
I00
sg27
I00
sg28
I5803019
sg20
S'14100.8041983'
p2624
sba(igraph
Edge
p2625
(dp2626
g7
I1
sg8
I00
sg9
I5
sg10
(lp2627
g1034
ag1139
asg26
I00
sg27
I00
sg28
I5803020
sg20
S'14100.815305'
p2628
sba(igraph
Edge
p2629
(dp2630
g7
I1
sg8
I00
sg9
I5
sg10
(lp2631
g1041
ag1153
asg26
I00
sg27
I00
sg28
I5803021
sg20
S'14100.826564'
p2632
sba(igraph
Edge
p2633
(dp2634
g7
I1
sg8
I00
sg9
I5
sg10
(lp2635
g1048
ag1153
asg26
I00
sg27
I00
sg28
I5803022
sg20
S'14100.8377998'
p2636
sba(igraph
Edge
p2637
(dp2638
g7
I1
sg8
I00
sg9
I5
sg10
(lp2639
g1055
ag1167
asg26
I00
sg27
I00
sg28
I5803023
sg20
S'14100.8491914'
p2640
sba(igraph
Edge
p2641
(dp2642
g7
I1
sg8
I00
sg9
I5
sg10
(lp2643
g1062
ag1167
asg26
I00
sg27
I00
sg28
I5803024
sg20
S'14100.8603582'
p2644
sba(igraph
Edge
p2645
(dp2646
g7
I1
sg8
I00
sg9
I5
sg10
(lp2647
g968
ag1076
asg26
I00
sg27
I00
sg28
I5803025
sg20
S'14100.8716289'
p2648
sba(igraph
Edge
p2649
(dp2650
g7
I1
sg8
I00
sg9
I5
sg10
(lp2651
g971
ag1076
asg26
I00
sg27
I00
sg28
I5803026
sg20
S'14100.8829728'
p2652
sba(igraph
Edge
p2653
(dp2654
g7
I1
sg8
I00
sg9
I5
sg10
(lp2655
g978
ag1090
asg26
I00
sg27
I00
sg28
I5803027
sg20
S'14100.8942307'
p2656
sba(igraph
Edge
p2657
(dp2658
g7
I1
sg8
I00
sg9
I5
sg10
(lp2659
g985
ag1090
asg26
I00
sg27
I00
sg28
I5803028
sg20
S'14100.9054223'
p2660
sba(igraph
Edge
p2661
(dp2662
g7
I1
sg8
I00
sg9
I5
sg10
(lp2663
g992
ag1104
asg26
I00
sg27
I00
sg28
I5803029
sg20
S'14100.9167891'
p2664
sba(igraph
Edge
p2665
(dp2666
g7
I1
sg8
I00
sg9
I5
sg10
(lp2667
g999
ag1104
asg26
I00
sg27
I00
sg28
I5803030
sg20
S'14100.9279632'
p2668
sba(igraph
Edge
p2669
(dp2670
g7
I1
sg8
I00
sg9
I5
sg10
(lp2671
g1006
ag1118
asg26
I00
sg27
I00
sg28
I5803031
sg20
S'14100.9393398'
p2672
sba(igraph
Edge
p2673
(dp2674
g7
I1
sg8
I00
sg9
I5
sg10
(lp2675
g1013
ag1118
asg26
I00
sg27
I00
sg28
I5803032
sg20
S'14100.9506133'
p2676
sba(igraph
Edge
p2677
(dp2678
g7
I1
sg8
I00
sg9
I5
sg10
(lp2679
g1020
ag1132
asg26
I00
sg27
I00
sg28
I5803033
sg20
S'14100.9618502'
p2680
sba(igraph
Edge
p2681
(dp2682
g7
I1
sg8
I00
sg9
I5
sg10
(lp2683
g1027
ag1132
asg26
I00
sg27
I00
sg28
I5803034
sg20
S'14100.9736757'
p2684
sba(igraph
Edge
p2685
(dp2686
g7
I1
sg8
I00
sg9
I5
sg10
(lp2687
g1034
ag1146
asg26
I00
sg27
I00
sg28
I5803035
sg20
S'14100.9850802'
p2688
sba(igraph
Edge
p2689
(dp2690
g7
I1
sg8
I00
sg9
I5
sg10
(lp2691
g1041
ag1146
asg26
I00
sg27
I00
sg28
I5803036
sg20
S'14100.9965267'
p2692
sba(igraph
Edge
p2693
(dp2694
g7
I1
sg8
I00
sg9
I5
sg10
(lp2695
g1048
ag1160
asg26
I00
sg27
I00
sg28
I5803037
sg20
S'14101.0080535'
p2696
sba(igraph
Edge
p2697
(dp2698
g7
I1
sg8
I00
sg9
I5
sg10
(lp2699
g1055
ag1160
asg26
I00
sg27
I00
sg28
I5803038
sg20
S'14101.0194807'
p2700
sba(igraph
Edge
p2701
(dp2702
g7
I1
sg8
I00
sg9
I5
sg10
(lp2703
g1062
ag1073
asg26
I00
sg27
I00
sg28
I5803039
sg20
S'14101.0311081'
p2704
sba(igraph
Edge
p2705
(dp2706
g7
I1
sg8
I00
sg9
I5
sg10
(lp2707
g1073
ag1178
asg26
I00
sg27
I00
sg28
I5803040
sg20
S'14101.0427775'
p2708
sba(igraph
Edge
p2709
(dp2710
g7
I1
sg8
I00
sg9
I5
sg10
(lp2711
g1076
ag1188
asg26
I00
sg27
I00
sg28
I5803041
sg20
S'14101.0544508'
p2712
sba(igraph
Edge
p2713
(dp2714
g7
I1
sg8
I00
sg9
I5
sg10
(lp2715
g1083
ag1188
asg26
I00
sg27
I00
sg28
I5803042
sg20
S'14101.0667898'
p2716
sba(igraph
Edge
p2717
(dp2718
g7
I1
sg8
I00
sg9
I5
sg10
(lp2719
g1090
ag1202
asg26
I00
sg27
I00
sg28
I5803043
sg20
S'14101.0785259'
p2720
sba(igraph
Edge
p2721
(dp2722
g7
I1
sg8
I00
sg9
I5
sg10
(lp2723
g1097
ag1202
asg26
I00
sg27
I00
sg28
I5803044
sg20
S'14101.0904637'
p2724
sba(igraph
Edge
p2725
(dp2726
g7
I1
sg8
I00
sg9
I5
sg10
(lp2727
g1104
ag1216
asg26
I00
sg27
I00
sg28
I5803045
sg20
S'14101.102199'
p2728
sba(igraph
Edge
p2729
(dp2730
g7
I1
sg8
I00
sg9
I5
sg10
(lp2731
g1111
ag1216
asg26
I00
sg27
I00
sg28
I5803046
sg20
S'14101.1136888'
p2732
sba(igraph
Edge
p2733
(dp2734
g7
I1
sg8
I00
sg9
I5
sg10
(lp2735
g1118
ag1230
asg26
I00
sg27
I00
sg28
I5803047
sg20
S'14101.1252888'
p2736
sba(igraph
Edge
p2737
(dp2738
g7
I1
sg8
I00
sg9
I5
sg10
(lp2739
g1125
ag1230
asg26
I00
sg27
I00
sg28
I5803048
sg20
S'14101.1370889'
p2740
sba(igraph
Edge
p2741
(dp2742
g7
I1
sg8
I00
sg9
I5
sg10
(lp2743
g1132
ag1244
asg26
I00
sg27
I00
sg28
I5803049
sg20
S'14101.1488977'
p2744
sba(igraph
Edge
p2745
(dp2746
g7
I1
sg8
I00
sg9
I5
sg10
(lp2747
g1139
ag1244
asg26
I00
sg27
I00
sg28
I5803050
sg20
S'14101.1609216'
p2748
sba(igraph
Edge
p2749
(dp2750
g7
I1
sg8
I00
sg9
I5
sg10
(lp2751
g1146
ag1258
asg26
I00
sg27
I00
sg28
I5803051
sg20
S'14101.1727477'
p2752
sba(igraph
Edge
p2753
(dp2754
g7
I1
sg8
I00
sg9
I5
sg10
(lp2755
g1153
ag1258
asg26
I00
sg27
I00
sg28
I5803052
sg20
S'14101.1844754'
p2756
sba(igraph
Edge
p2757
(dp2758
g7
I1
sg8
I00
sg9
I5
sg10
(lp2759
g1160
ag1272
asg26
I00
sg27
I00
sg28
I5803053
sg20
S'14101.1962872'
p2760
sba(igraph
Edge
p2761
(dp2762
g7
I1
sg8
I00
sg9
I5
sg10
(lp2763
g1167
ag1272
asg26
I00
sg27
I00
sg28
I5803054
sg20
S'14101.2083622'
p2764
sba(igraph
Edge
p2765
(dp2766
g7
I1
sg8
I00
sg9
I5
sg10
(lp2767
g1073
ag1181
asg26
I00
sg27
I00
sg28
I5803055
sg20
S'14101.2202168'
p2768
sba(igraph
Edge
p2769
(dp2770
g7
I1
sg8
I00
sg9
I5
sg10
(lp2771
g1076
ag1181
asg26
I00
sg27
I00
sg28
I5803056
sg20
S'14101.2321664'
p2772
sba(igraph
Edge
p2773
(dp2774
g7
I1
sg8
I00
sg9
I5
sg10
(lp2775
g1083
ag1195
asg26
I00
sg27
I00
sg28
I5803057
sg20
S'14101.244038'
p2776
sba(igraph
Edge
p2777
(dp2778
g7
I1
sg8
I00
sg9
I5
sg10
(lp2779
g1090
ag1195
asg26
I00
sg27
I00
sg28
I5803058
sg20
S'14101.2559945'
p2780
sba(igraph
Edge
p2781
(dp2782
g7
I1
sg8
I00
sg9
I5
sg10
(lp2783
g1097
ag1209
asg26
I00
sg27
I00
sg28
I5803059
sg20
S'14101.2678265'
p2784
sba(igraph
Edge
p2785
(dp2786
g7
I1
sg8
I00
sg9
I5
sg10
(lp2787
g1104
ag1209
asg26
I00
sg27
I00
sg28
I5803060
sg20
S'14101.2795746'
p2788
sba(igraph
Edge
p2789
(dp2790
g7
I1
sg8
I00
sg9
I5
sg10
(lp2791
g1111
ag1223
asg26
I00
sg27
I00
sg28
I5803061
sg20
S'14101.2915077'
p2792
sba(igraph
Edge
p2793
(dp2794
g7
I1
sg8
I00
sg9
I5
sg10
(lp2795
g1118
ag1223
asg26
I00
sg27
I00
sg28
I5803062
sg20
S'14101.3034171'
p2796
sba(igraph
Edge
p2797
(dp2798
g7
I1
sg8
I00
sg9
I5
sg10
(lp2799
g1125
ag1237
asg26
I00
sg27
I00
sg28
I5803063
sg20
S'14101.3154443'
p2800
sba(igraph
Edge
p2801
(dp2802
g7
I1
sg8
I00
sg9
I5
sg10
(lp2803
g1132
ag1237
asg26
I00
sg27
I00
sg28
I5803064
sg20
S'14101.3274696'
p2804
sba(igraph
Edge
p2805
(dp2806
g7
I1
sg8
I00
sg9
I5
sg10
(lp2807
g1139
ag1251
asg26
I00
sg27
I00
sg28
I5803065
sg20
S'14101.3395256'
p2808
sba(igraph
Edge
p2809
(dp2810
g7
I1
sg8
I00
sg9
I5
sg10
(lp2811
g1146
ag1251
asg26
I00
sg27
I00
sg28
I5803066
sg20
S'14101.3516637'
p2812
sba(igraph
Edge
p2813
(dp2814
g7
I1
sg8
I00
sg9
I5
sg10
(lp2815
g1153
ag1265
asg26
I00
sg27
I00
sg28
I5803067
sg20
S'14101.3637225'
p2816
sba(igraph
Edge
p2817
(dp2818
g7
I1
sg8
I00
sg9
I5
sg10
(lp2819
g1160
ag1265
asg26
I00
sg27
I00
sg28
I5803068
sg20
S'14101.3758782'
p2820
sba(igraph
Edge
p2821
(dp2822
g7
I1
sg8
I00
sg9
I5
sg10
(lp2823
g1167
ag1178
asg26
I00
sg27
I00
sg28
I5803069
sg20
S'14101.3881504'
p2824
sba(igraph
Edge
p2825
(dp2826
g7
I1
sg8
I00
sg9
I5
sg10
(lp2827
g1178
ag1283
asg26
I00
sg27
I00
sg28
I5803070
sg20
S'14101.4003635'
p2828
sba(igraph
Edge
p2829
(dp2830
g7
I1
sg8
I00
sg9
I5
sg10
(lp2831
g1181
ag1293
asg26
I00
sg27
I00
sg28
I5803071
sg20
S'14101.4125767'
p2832
sba(igraph
Edge
p2833
(dp2834
g7
I1
sg8
I00
sg9
I5
sg10
(lp2835
g1188
ag1293
asg26
I00
sg27
I00
sg28
I5803072
sg20
S'14101.4247325'
p2836
sba(igraph
Edge
p2837
(dp2838
g7
I1
sg8
I00
sg9
I5
sg10
(lp2839
g1195
ag1307
asg26
I00
sg27
I00
sg28
I5803073
sg20
S'14101.4369533'
p2840
sba(igraph
Edge
p2841
(dp2842
g7
I1
sg8
I00
sg9
I5
sg10
(lp2843
g1202
ag1307
asg26
I00
sg27
I00
sg28
I5803074
sg20
S'14101.4490942'
p2844
sba(igraph
Edge
p2845
(dp2846
g7
I1
sg8
I00
sg9
I5
sg10
(lp2847
g1209
ag1321
asg26
I00
sg27
I00
sg28
I5803075
sg20
S'14101.4612854'
p2848
sba(igraph
Edge
p2849
(dp2850
g7
I1
sg8
I00
sg9
I5
sg10
(lp2851
g1216
ag1321
asg26
I00
sg27
I00
sg28
I5803076
sg20
S'14101.4735621'
p2852
sba(igraph
Edge
p2853
(dp2854
g7
I1
sg8
I00
sg9
I5
sg10
(lp2855
g1223
ag1335
asg26
I00
sg27
I00
sg28
I5803077
sg20
S'14101.4856148'
p2856
sba(igraph
Edge
p2857
(dp2858
g7
I1
sg8
I00
sg9
I5
sg10
(lp2859
g1230
ag1335
asg26
I00
sg27
I00
sg28
I5803078
sg20
S'14101.4978214'
p2860
sba(igraph
Edge
p2861
(dp2862
g7
I1
sg8
I00
sg9
I5
sg10
(lp2863
g1237
ag1349
asg26
I00
sg27
I00
sg28
I5803079
sg20
S'14101.510138'
p2864
sba(igraph
Edge
p2865
(dp2866
g7
I1
sg8
I00
sg9
I5
sg10
(lp2867
g1244
ag1349
asg26
I00
sg27
I00
sg28
I5803080
sg20
S'14101.522251'
p2868
sba(igraph
Edge
p2869
(dp2870
g7
I1
sg8
I00
sg9
I5
sg10
(lp2871
g1251
ag1363
asg26
I00
sg27
I00
sg28
I5803081
sg20
S'14101.5345883'
p2872
sba(igraph
Edge
p2873
(dp2874
g7
I1
sg8
I00
sg9
I5
sg10
(lp2875
g1258
ag1363
asg26
I00
sg27
I00
sg28
I5803082
sg20
S'14101.5468304'
p2876
sba(igraph
Edge
p2877
(dp2878
g7
I1
sg8
I00
sg9
I5
sg10
(lp2879
g1265
ag1377
asg26
I00
sg27
I00
sg28
I5803083
sg20
S'14101.5593747'
p2880
sba(igraph
Edge
p2881
(dp2882
g7
I1
sg8
I00
sg9
I5
sg10
(lp2883
g1272
ag1377
asg26
I00
sg27
I00
sg28
I5803084
sg20
S'14101.571835'
p2884
sba(igraph
Edge
p2885
(dp2886
g7
I1
sg8
I00
sg9
I5
sg10
(lp2887
g1178
ag1286
asg26
I00
sg27
I00
sg28
I5803085
sg20
S'14101.58431'
p2888
sba(igraph
Edge
p2889
(dp2890
g7
I1
sg8
I00
sg9
I5
sg10
(lp2891
g1181
ag1286
asg26
I00
sg27
I00
sg28
I5803086
sg20
S'14101.5975938'
p2892
sba(igraph
Edge
p2893
(dp2894
g7
I1
sg8
I00
sg9
I5
sg10
(lp2895
g1188
ag1300
asg26
I00
sg27
I00
sg28
I5803087
sg20
S'14101.6101789'
p2896
sba(igraph
Edge
p2897
(dp2898
g7
I1
sg8
I00
sg9
I5
sg10
(lp2899
g1195
ag1300
asg26
I00
sg27
I00
sg28
I5803088
sg20
S'14101.6229674'
p2900
sba(igraph
Edge
p2901
(dp2902
g7
I1
sg8
I00
sg9
I5
sg10
(lp2903
g1202
ag1314
asg26
I00
sg27
I00
sg28
I5803089
sg20
S'14101.6357378'
p2904
sba(igraph
Edge
p2905
(dp2906
g7
I1
sg8
I00
sg9
I5
sg10
(lp2907
g1209
ag1314
asg26
I00
sg27
I00
sg28
I5803090
sg20
S'14101.648505'
p2908
sba(igraph
Edge
p2909
(dp2910
g7
I1
sg8
I00
sg9
I5
sg10
(lp2911
g1216
ag1328
asg26
I00
sg27
I00
sg28
I5803091
sg20
S'14101.6611818'
p2912
sba(igraph
Edge
p2913
(dp2914
g7
I1
sg8
I00
sg9
I5
sg10
(lp2915
g1223
ag1328
asg26
I00
sg27
I00
sg28
I5803092
sg20
S'14101.6738876'
p2916
sba(igraph
Edge
p2917
(dp2918
g7
I1
sg8
I00
sg9
I5
sg10
(lp2919
g1230
ag1342
asg26
I00
sg27
I00
sg28
I5803093
sg20
S'14101.6866001'
p2920
sba(igraph
Edge
p2921
(dp2922
g7
I1
sg8
I00
sg9
I5
sg10
(lp2923
g1237
ag1342
asg26
I00
sg27
I00
sg28
I5803094
sg20
S'14101.6994252'
p2924
sba(igraph
Edge
p2925
(dp2926
g7
I1
sg8
I00
sg9
I5
sg10
(lp2927
g1244
ag1356
asg26
I00
sg27
I00
sg28
I5803095
sg20
S'14101.712167'
p2928
sba(igraph
Edge
p2929
(dp2930
g7
I1
sg8
I00
sg9
I5
sg10
(lp2931
g1251
ag1356
asg26
I00
sg27
I00
sg28
I5803096
sg20
S'14101.7251123'
p2932
sba(igraph
Edge
p2933
(dp2934
g7
I1
sg8
I00
sg9
I5
sg10
(lp2935
g1258
ag1370
asg26
I00
sg27
I00
sg28
I5803097
sg20
S'14101.7376734'
p2936
sba(igraph
Edge
p2937
(dp2938
g7
I1
sg8
I00
sg9
I5
sg10
(lp2939
g1265
ag1370
asg26
I00
sg27
I00
sg28
I5803098
sg20
S'14101.750323'
p2940
sba(igraph
Edge
p2941
(dp2942
g7
I1
sg8
I00
sg9
I5
sg10
(lp2943
g1272
ag1283
asg26
I00
sg27
I00
sg28
I5803099
sg20
S'14101.76324'
p2944
sbasS'vertices'
p2945
(lp2946
g12
ag23
ag33
ag40
ag47
ag54
ag61
ag68
ag75
ag82
ag89
ag96
ag103
ag110
ag117
ag128
ag131
ag138
ag145
ag152
ag159
ag166
ag173
ag180
ag187
ag194
ag201
ag208
ag215
ag222
ag233
ag236
ag243
ag250
ag257
ag264
ag271
ag278
ag285
ag292
ag299
ag306
ag313
ag320
ag327
ag338
ag341
ag348
ag355
ag362
ag369
ag376
ag383
ag390
ag397
ag404
ag411
ag418
ag425
ag432
ag443
ag446
ag453
ag460
ag467
ag474
ag481
ag488
ag495
ag502
ag509
ag516
ag523
ag530
ag537
ag548
ag551
ag558
ag565
ag572
ag579
ag586
ag593
ag600
ag607
ag614
ag621
ag628
ag635
ag642
ag653
ag656
ag663
ag670
ag677
ag684
ag691
ag698
ag705
ag712
ag719
ag726
ag733
ag740
ag747
ag758
ag761
ag768
ag775
ag782
ag789
ag796
ag803
ag810
ag817
ag824
ag831
ag838
ag845
ag852
ag863
ag866
ag873
ag880
ag887
ag894
ag901
ag908
ag915
ag922
ag929
ag936
ag943
ag950
ag957
ag968
ag971
ag978
ag985
ag992
ag999
ag1006
ag1013
ag1020
ag1027
ag1034
ag1041
ag1048
ag1055
ag1062
ag1073
ag1076
ag1083
ag1090
ag1097
ag1104
ag1111
ag1118
ag1125
ag1132
ag1139
ag1146
ag1153
ag1160
ag1167
ag1178
ag1181
ag1188
ag1195
ag1202
ag1209
ag1216
ag1223
ag1230
ag1237
ag1244
ag1251
ag1258
ag1265
ag1272
ag1283
ag1286
ag1293
ag1300
ag1307
ag1314
ag1321
ag1328
ag1335
ag1342
ag1349
ag1356
ag1363
ag1370
ag1377
asS'tags'
p2947
(lp2948
sb.