(igraph
Graph
p0
(dp1
S'labelingConstraints'
p2
I-1
sS'edges'
p3
(lp4
(igraph
Edge
p5
(dp6
S'direction'
p7
I1
sS'selected'
p8
I00
sS'height'
p9
I5
sS'vs'
p10
(lp11
(igraph
Vertex
p12
(dp13
S'xnorm'
p14
F0.0
sg8
I00
sS'label'
p15
S'NULL'
p16
sS'y'
p17
F-297.0
sS'x'
p18
F47.0
sS'circle'
p19
I6688816
sS'id'
p20
S'15857.0723843'
p21
sS'ynorm'
p22
F0.0
sba(igraph
Vertex
p23
(dp24
g14
F0.25
sg8
I00
sg15
g16
sg17
F-297.0
sg18
F-41.25
sg19
I6688817
sg20
S'15857.0724072'
p25
sg22
F0.0
sbasS'wrap'
p26
I00
sS'curved'
p27
I00
sS'line'
p28
I6688576
sg20
S'15857.0998199'
p29
sba(igraph
Edge
p30
(dp31
g7
I1
sg8
I00
sg9
I5
sg10
(lp32
g23
a(igraph
Vertex
p33
(dp34
g14
F0.5
sg8
I00
sg15
g16
sg17
F-297.0
sg18
F-129.5
sg19
I6688818
sg20
S'15857.0724313'
p35
sg22
F0.0
sbasg26
I00
sg27
I00
sg28
I6688577
sg20
S'15857.0998809'
p36
sba(igraph
Edge
p37
(dp38
g7
I1
sg8
I00
sg9
I5
sg10
(lp39
g33
a(igraph
Vertex
p40
(dp41
g14
F0.75
sg8
I00
sg15
g16
sg17
F-297.0
sg18
F-217.75
sg19
I6688819
sg20
S'15857.0724581'
p42
sg22
F0.0
sbasg26
I00
sg27
I00
sg28
I6688578
sg20
S'15857.0999607'
p43
sba(igraph
Edge
p44
(dp45
g7
I1
sg8
I00
sg9
I5
sg10
(lp46
g40
a(igraph
Vertex
p47
(dp48
g14
F1.0
sg8
I00
sg15
g16
sg17
F-297.0
sg18
F-306.0
sg19
I6688820
sg20
S'15857.0724927'
p49
sg22
F0.0
sbasg26
I00
sg27
I00
sg28
I6688579
sg20
S'15857.100063'
p50
sba(igraph
Edge
p51
(dp52
g7
I1
sg8
I00
sg9
I5
sg10
(lp53
g47
ag12
asg26
I00
sg27
I00
sg28
I6688580
sg20
S'15857.1001865'
p54
sba(igraph
Edge
p55
(dp56
g7
I1
sg8
I00
sg9
I5
sg10
(lp57
(igraph
Vertex
p58
(dp59
g14
F0.0
sg8
I01
sg15
I0
sg17
F-256.12371134020617
sg18
F47.0
sg19
I6688822
sg20
S'15857.0725341'
p60
sg22
F0.067010309278350499
sba(igraph
Vertex
p61
(dp62
g14
F0.25
sg8
I00
sg15
g16
sg17
F-256.12371134020617
sg18
F-41.25
sg19
I6688824
sg20
S'15857.0725849'
p63
sg22
F0.067010309278350499
sbasg26
I00
sg27
I00
sg28
I6688581
sg20
S'15857.1003337'
p64
sba(igraph
Edge
p65
(dp66
g7
I1
sg8
I00
sg9
I5
sg10
(lp67
g61
a(igraph
Vertex
p68
(dp69
g14
F0.5
sg8
I00
sg15
g16
sg17
F-256.12371134020617
sg18
F-129.5
sg19
I6688825
sg20
S'15857.0726422'
p70
sg22
F0.067010309278350499
sbasg26
I00
sg27
I00
sg28
I6688582
sg20
S'15857.1005033'
p71
sba(igraph
Edge
p72
(dp73
g7
I1
sg8
I00
sg9
I5
sg10
(lp74
g68
a(igraph
Vertex
p75
(dp76
g14
F0.75
sg8
I00
sg15
g16
sg17
F-256.12371134020617
sg18
F-217.75
sg19
I6688826
sg20
S'15857.0727078'
p77
sg22
F0.067010309278350499
sbasg26
I00
sg27
I00
sg28
I6688583
sg20
S'15857.1006938'
p78
sba(igraph
Edge
p79
(dp80
g7
I1
sg8
I00
sg9
I5
sg10
(lp81
g75
a(igraph
Vertex
p82
(dp83
g14
F1.0
sg8
I00
sg15
g16
sg17
F-256.12371134020617
sg18
F-306.0
sg19
I6688827
sg20
S'15857.0727802'
p84
sg22
F0.067010309278350499
sbasg26
I00
sg27
I00
sg28
I6688584
sg20
S'15857.1009058'
p85
sba(igraph
Edge
p86
(dp87
g7
I1
sg8
I00
sg9
I5
sg10
(lp88
g82
ag58
asg26
I00
sg27
I00
sg28
I6688585
sg20
S'15857.1011425'
p89
sba(igraph
Edge
p90
(dp91
g7
I1
sg8
I00
sg9
I5
sg10
(lp92
(igraph
Vertex
p93
(dp94
g14
F0.0
sg8
I00
sg15
g16
sg17
F-215.24742268041237
sg18
F47.0
sg19
I6688828
sg20
S'15857.0728604'
p95
sg22
F0.13402061855670103
sba(igraph
Vertex
p96
(dp97
g14
F0.25
sg8
I00
sg15
g16
sg17
F-215.24742268041237
sg18
F-41.25
sg19
I6688829
sg20
S'15857.0729861'
p98
sg22
F0.13402061855670103
sbasg26
I00
sg27
I00
sg28
I6688586
sg20
S'15857.1013998'
p99
sba(igraph
Edge
p100
(dp101
g7
I1
sg8
I00
sg9
I5
sg10
(lp102
g96
a(igraph
Vertex
p103
(dp104
g14
F0.5
sg8
I00
sg15
g16
sg17
F-215.24742268041237
sg18
F-129.5
sg19
I6688830
sg20
S'15857.0730833'
p105
sg22
F0.13402061855670103
sbasg26
I00
sg27
I00
sg28
I6688587
sg20
S'15857.1016797'
p106
sba(igraph
Edge
p107
(dp108
g7
I1
sg8
I00
sg9
I5
sg10
(lp109
g103
a(igraph
Vertex
p110
(dp111
g14
F0.75
sg8
I00
sg15
g16
sg17
F-215.24742268041237
sg18
F-217.75
sg19
I6688831
sg20
S'15857.0731886'
p112
sg22
F0.13402061855670103
sbasg26
I00
sg27
I00
sg28
I6688588
sg20
S'15857.1019811'
p113
sba(igraph
Edge
p114
(dp115
g7
I1
sg8
I00
sg9
I5
sg10
(lp116
g110
a(igraph
Vertex
p117
(dp118
g14
F1.0
sg8
I00
sg15
g16
sg17
F-215.24742268041237
sg18
F-306.0
sg19
I6688832
sg20
S'15857.0733498'
p119
sg22
F0.13402061855670103
sbasg26
I00
sg27
I00
sg28
I6688589
sg20
S'15857.1023063'
p120
sba(igraph
Edge
p121
(dp122
g7
I1
sg8
I00
sg9
I5
sg10
(lp123
g117
ag93
asg26
I00
sg27
I00
sg28
I6688590
sg20
S'15857.1026885'
p124
sba(igraph
Edge
p125
(dp126
g7
I1
sg8
I00
sg9
I5
sg10
(lp127
(igraph
Vertex
p128
(dp129
g14
F0.0
sg8
I01
sg15
I0
sg17
F-174.37113402061857
sg18
F47.0
sg19
I6688834
sg20
S'15857.0735269'
p130
sg22
F0.20103092783505155
sba(igraph
Vertex
p131
(dp132
g14
F0.25
sg8
I00
sg15
g16
sg17
F-174.37113402061857
sg18
F-41.25
sg19
I6688836
sg20
S'15857.073656'
p133
sg22
F0.20103092783505155
sbasg26
I00
sg27
I00
sg28
I6688591
sg20
S'15857.1030701'
p134
sba(igraph
Edge
p135
(dp136
g7
I1
sg8
I00
sg9
I5
sg10
(lp137
g131
a(igraph
Vertex
p138
(dp139
g14
F0.5
sg8
I00
sg15
g16
sg17
F-174.37113402061857
sg18
F-129.5
sg19
I6688837
sg20
S'15857.0737923'
p140
sg22
F0.20103092783505155
sbasg26
I00
sg27
I00
sg28
I6688592
sg20
S'15857.1034654'
p141
sba(igraph
Edge
p142
(dp143
g7
I1
sg8
I00
sg9
I5
sg10
(lp144
g138
a(igraph
Vertex
p145
(dp146
g14
F0.75
sg8
I00
sg15
g16
sg17
F-174.37113402061857
sg18
F-217.75
sg19
I6688838
sg20
S'15857.0739379'
p147
sg22
F0.20103092783505155
sbasg26
I00
sg27
I00
sg28
I6688593
sg20
S'15857.103923'
p148
sba(igraph
Edge
p149
(dp150
g7
I1
sg8
I00
sg9
I5
sg10
(lp151
g145
a(igraph
Vertex
p152
(dp153
g14
F1.0
sg8
I00
sg15
g16
sg17
F-174.37113402061857
sg18
F-306.0
sg19
I6688839
sg20
S'15857.074091'
p154
sg22
F0.20103092783505155
sbasg26
I00
sg27
I00
sg28
I6688594
sg20
S'15857.1043644'
p155
sba(igraph
Edge
p156
(dp157
g7
I1
sg8
I00
sg9
I5
sg10
(lp158
g152
ag128
asg26
I00
sg27
I00
sg28
I6688595
sg20
S'15857.1048209'
p159
sba(igraph
Edge
p160
(dp161
g7
I1
sg8
I00
sg9
I5
sg10
(lp162
(igraph
Vertex
p163
(dp164
g14
F0.0
sg8
I00
sg15
g16
sg17
F-133.49484536082474
sg18
F47.0
sg19
I6688840
sg20
S'15857.0742536'
p165
sg22
F0.26804123711340205
sba(igraph
Vertex
p166
(dp167
g14
F0.25
sg8
I00
sg15
g16
sg17
F-133.49484536082474
sg18
F-41.25
sg19
I6688841
sg20
S'15857.0744223'
p168
sg22
F0.26804123711340205
sbasg26
I00
sg27
I00
sg28
I6688596
sg20
S'15857.1053234'
p169
sba(igraph
Edge
p170
(dp171
g7
I1
sg8
I00
sg9
I5
sg10
(lp172
g166
a(igraph
Vertex
p173
(dp174
g14
F0.5
sg8
I00
sg15
g16
sg17
F-133.49484536082474
sg18
F-129.5
sg19
I6688842
sg20
S'15857.0746033'
p175
sg22
F0.26804123711340205
sbasg26
I00
sg27
I00
sg28
I6688597
sg20
S'15857.1058246'
p176
sba(igraph
Edge
p177
(dp178
g7
I1
sg8
I00
sg9
I5
sg10
(lp179
g173
a(igraph
Vertex
p180
(dp181
g14
F0.75
sg8
I00
sg15
g16
sg17
F-133.49484536082474
sg18
F-217.75
sg19
I6688843
sg20
S'15857.0747866'
p182
sg22
F0.26804123711340205
sbasg26
I00
sg27
I00
sg28
I6688598
sg20
S'15857.106349'
p183
sba(igraph
Edge
p184
(dp185
g7
I1
sg8
I00
sg9
I5
sg10
(lp186
g180
a(igraph
Vertex
p187
(dp188
g14
F1.0
sg8
I00
sg15
g16
sg17
F-133.49484536082474
sg18
F-306.0
sg19
I6688844
sg20
S'15857.0749799'
p189
sg22
F0.26804123711340205
sbasg26
I00
sg27
I00
sg28
I6688599
sg20
S'15857.1068965'
p190
sba(igraph
Edge
p191
(dp192
g7
I1
sg8
I00
sg9
I5
sg10
(lp193
g187
ag163
asg26
I00
sg27
I00
sg28
I6688600
sg20
S'15857.1074662'
p194
sba(igraph
Edge
p195
(dp196
g7
I1
sg8
I00
sg9
I5
sg10
(lp197
(igraph
Vertex
p198
(dp199
g14
F0.0
sg8
I01
sg15
I0
sg17
F-92.61855670103094
sg18
F47.0
sg19
I6688846
sg20
S'15857.0751813'
p200
sg22
F0.33505154639175255
sba(igraph
Vertex
p201
(dp202
g14
F0.25
sg8
I00
sg15
g16
sg17
F-92.61855670103094
sg18
F-41.25
sg19
I6688848
sg20
S'15857.07539'
p203
sg22
F0.33505154639175255
sbasg26
I00
sg27
I00
sg28
I6688601
sg20
S'15857.1080595'
p204
sba(igraph
Edge
p205
(dp206
g7
I1
sg8
I00
sg9
I5
sg10
(lp207
g201
a(igraph
Vertex
p208
(dp209
g14
F0.5
sg8
I00
sg15
g16
sg17
F-92.61855670103094
sg18
F-129.5
sg19
I6688849
sg20
S'15857.0756074'
p210
sg22
F0.33505154639175255
sbasg26
I00
sg27
I00
sg28
I6688602
sg20
S'15857.1087054'
p211
sba(igraph
Edge
p212
(dp213
g7
I1
sg8
I00
sg9
I5
sg10
(lp214
g208
a(igraph
Vertex
p215
(dp216
g14
F0.75
sg8
I00
sg15
g16
sg17
F-92.61855670103094
sg18
F-217.75
sg19
I6688850
sg20
S'15857.0758334'
p217
sg22
F0.33505154639175255
sbasg26
I00
sg27
I00
sg28
I6688603
sg20
S'15857.109339'
p218
sba(igraph
Edge
p219
(dp220
g7
I1
sg8
I00
sg9
I5
sg10
(lp221
g215
a(igraph
Vertex
p222
(dp223
g14
F1.0
sg8
I00
sg15
g16
sg17
F-92.61855670103094
sg18
F-306.0
sg19
I6688851
sg20
S'15857.0760703'
p224
sg22
F0.33505154639175255
sbasg26
I00
sg27
I00
sg28
I6688604
sg20
S'15857.109993'
p225
sba(igraph
Edge
p226
(dp227
g7
I1
sg8
I00
sg9
I5
sg10
(lp228
g222
ag198
asg26
I00
sg27
I00
sg28
I6688605
sg20
S'15857.1106755'
p229
sba(igraph
Edge
p230
(dp231
g7
I1
sg8
I00
sg9
I5
sg10
(lp232
(igraph
Vertex
p233
(dp234
g14
F0.0
sg8
I00
sg15
g16
sg17
F-51.742268041237111
sg18
F47.0
sg19
I6688852
sg20
S'15857.0763139'
p235
sg22
F0.40206185567010311
sba(igraph
Vertex
p236
(dp237
g14
F0.25
sg8
I00
sg15
g16
sg17
F-51.742268041237111
sg18
F-41.25
sg19
I6688853
sg20
S'15857.0765636'
p238
sg22
F0.40206185567010311
sbasg26
I00
sg27
I00
sg28
I6688606
sg20
S'15857.1113714'
p239
sba(igraph
Edge
p240
(dp241
g7
I1
sg8
I00
sg9
I5
sg10
(lp242
g236
a(igraph
Vertex
p243
(dp244
g14
F0.5
sg8
I00
sg15
g16
sg17
F-51.742268041237111
sg18
F-129.5
sg19
I6688854
sg20
S'15857.0768232'
p245
sg22
F0.40206185567010311
sbasg26
I00
sg27
I00
sg28
I6688607
sg20
S'15857.1122148'
p246
sba(igraph
Edge
p247
(dp248
g7
I1
sg8
I00
sg9
I5
sg10
(lp249
g243
a(igraph
Vertex
p250
(dp251
g14
F0.75
sg8
I00
sg15
g16
sg17
F-51.742268041237111
sg18
F-217.75
sg19
I6688855
sg20
S'15857.0770916'
p252
sg22
F0.40206185567010311
sbasg26
I00
sg27
I00
sg28
I6688608
sg20
S'15857.1129778'
p253
sba(igraph
Edge
p254
(dp255
g7
I1
sg8
I00
sg9
I5
sg10
(lp256
g250
a(igraph
Vertex
p257
(dp258
g14
F1.0
sg8
I00
sg15
g16
sg17
F-51.742268041237111
sg18
F-306.0
sg19
I6688856
sg20
S'15857.077366'
p259
sg22
F0.40206185567010311
sbasg26
I00
sg27
I00
sg28
I6688609
sg20
S'15857.1137818'
p260
sba(igraph
Edge
p261
(dp262
g7
I1
sg8
I00
sg9
I5
sg10
(lp263
g257
ag233
asg26
I00
sg27
I00
sg28
I6688610
sg20
S'15857.1148861'
p264
sba(igraph
Edge
p265
(dp266
g7
I1
sg8
I00
sg9
I5
sg10
(lp267
(igraph
Vertex
p268
(dp269
g14
F0.0
sg8
I01
sg15
I0
sg17
F-10.86597938144331
sg18
F47.0
sg19
I6688858
sg20
S'15857.0776543'
p270
sg22
F0.46907216494845361
sba(igraph
Vertex
p271
(dp272
g14
F0.25
sg8
I00
sg15
g16
sg17
F-10.86597938144331
sg18
F-41.25
sg19
I6688860
sg20
S'15857.0779454'
p273
sg22
F0.46907216494845361
sbasg26
I00
sg27
I00
sg28
I6688611
sg20
S'15857.1157091'
p274
sba(igraph
Edge
p275
(dp276
g7
I1
sg8
I00
sg9
I5
sg10
(lp277
g271
a(igraph
Vertex
p278
(dp279
g14
F0.5
sg8
I00
sg15
g16
sg17
F-10.86597938144331
sg18
F-129.5
sg19
I6688861
sg20
S'15857.0782446'
p280
sg22
F0.46907216494845361
sbasg26
I00
sg27
I00
sg28
I6688612
sg20
S'15857.1165408'
p281
sba(igraph
Edge
p282
(dp283
g7
I1
sg8
I00
sg9
I5
sg10
(lp284
g278
a(igraph
Vertex
p285
(dp286
g14
F0.75
sg8
I00
sg15
g16
sg17
F-10.86597938144331
sg18
F-217.75
sg19
I6688862
sg20
S'15857.0785524'
p287
sg22
F0.46907216494845361
sbasg26
I00
sg27
I00
sg28
I6688613
sg20
S'15857.1174297'
p288
sba(igraph
Edge
p289
(dp290
g7
I1
sg8
I00
sg9
I5
sg10
(lp291
g285
a(igraph
Vertex
p292
(dp293
g14
F1.0
sg8
I00
sg15
g16
sg17
F-10.86597938144331
sg18
F-306.0
sg19
I6688863
sg20
S'15857.0788692'
p294
sg22
F0.46907216494845361
sbasg26
I00
sg27
I00
sg28
I6688614
sg20
S'15857.1183184'
p295
sba(igraph
Edge
p296
(dp297
g7
I1
sg8
I00
sg9
I5
sg10
(lp298
g292
ag268
asg26
I00
sg27
I00
sg28
I6688615
sg20
S'15857.1192716'
p299
sba(igraph
Edge
p300
(dp301
g7
I1
sg8
I00
sg9
I5
sg10
(lp302
(igraph
Vertex
p303
(dp304
g14
F0.0
sg8
I00
sg15
g16
sg17
F30.010309278350519
sg18
F47.0
sg19
I6688864
sg20
S'15857.0792305'
p305
sg22
F0.53608247422680411
sba(igraph
Vertex
p306
(dp307
g14
F0.25
sg8
I00
sg15
g16
sg17
F30.010309278350519
sg18
F-41.25
sg19
I6688865
sg20
S'15857.0795651'
p308
sg22
F0.53608247422680411
sbasg26
I00
sg27
I00
sg28
I6688616
sg20
S'15857.1205941'
p309
sba(igraph
Edge
p310
(dp311
g7
I1
sg8
I00
sg9
I5
sg10
(lp312
g306
a(igraph
Vertex
p313
(dp314
g14
F0.5
sg8
I00
sg15
g16
sg17
F30.010309278350519
sg18
F-129.5
sg19
I6688866
sg20
S'15857.0799113'
p315
sg22
F0.53608247422680411
sbasg26
I00
sg27
I00
sg28
I6688617
sg20
S'15857.1215361'
p316
sba(igraph
Edge
p317
(dp318
g7
I1
sg8
I00
sg9
I5
sg10
(lp319
g313
a(igraph
Vertex
p320
(dp321
g14
F0.75
sg8
I00
sg15
g16
sg17
F30.010309278350519
sg18
F-217.75
sg19
I6688867
sg20
S'15857.0802697'
p322
sg22
F0.53608247422680411
sbasg26
I00
sg27
I00
sg28
I6688618
sg20
S'15857.1227223'
p323
sba(igraph
Edge
p324
(dp325
g7
I1
sg8
I00
sg9
I5
sg10
(lp326
g320
a(igraph
Vertex
p327
(dp328
g14
F1.0
sg8
I00
sg15
g16
sg17
F30.010309278350519
sg18
F-306.0
sg19
I6688868
sg20
S'15857.0806287'
p329
sg22
F0.53608247422680411
sbasg26
I00
sg27
I00
sg28
I6688619
sg20
S'15857.123728'
p330
sba(igraph
Edge
p331
(dp332
g7
I1
sg8
I00
sg9
I5
sg10
(lp333
g327
ag303
asg26
I00
sg27
I00
sg28
I6688620
sg20
S'15857.1249125'
p334
sba(igraph
Edge
p335
(dp336
g7
I1
sg8
I00
sg9
I5
sg10
(lp337
(igraph
Vertex
p338
(dp339
g14
F0.0
sg8
I00
sg15
g16
sg17
F70.886597938144291
sg18
F47.0
sg19
I6688869
sg20
S'15857.0809958'
p340
sg22
F0.60309278350515461
sba(igraph
Vertex
p341
(dp342
g14
F0.25
sg8
I01
sg15
I0
sg17
F70.886597938144291
sg18
F-41.25
sg19
I6688871
sg20
S'15857.0814425'
p343
sg22
F0.60309278350515461
sbasg26
I00
sg27
I00
sg28
I6688621
sg20
S'15857.1261093'
p344
sba(igraph
Edge
p345
(dp346
g7
I1
sg8
I00
sg9
I5
sg10
(lp347
g341
a(igraph
Vertex
p348
(dp349
g14
F0.5
sg8
I00
sg15
g16
sg17
F70.886597938144291
sg18
F-129.5
sg19
I6688873
sg20
S'15857.0818283'
p350
sg22
F0.60309278350515461
sbasg26
I00
sg27
I00
sg28
I6688622
sg20
S'15857.1272315'
p351
sba(igraph
Edge
p352
(dp353
g7
I1
sg8
I00
sg9
I5
sg10
(lp354
g348
a(igraph
Vertex
p355
(dp356
g14
F0.75
sg8
I00
sg15
g16
sg17
F70.886597938144291
sg18
F-217.75
sg19
I6688874
sg20
S'15857.0822853'
p357
sg22
F0.60309278350515461
sbasg26
I00
sg27
I00
sg28
I6688623
sg20
S'15857.1283392'
p358
sba(igraph
Edge
p359
(dp360
g7
I1
sg8
I00
sg9
I5
sg10
(lp361
g355
a(igraph
Vertex
p362
(dp363
g14
F1.0
sg8
I00
sg15
g16
sg17
F70.886597938144291
sg18
F-306.0
sg19
I6688875
sg20
S'15857.0826851'
p364
sg22
F0.60309278350515461
sbasg26
I00
sg27
I00
sg28
I6688624
sg20
S'15857.1295363'
p365
sba(igraph
Edge
p366
(dp367
g7
I1
sg8
I00
sg9
I5
sg10
(lp368
g362
ag338
asg26
I00
sg27
I00
sg28
I6688625
sg20
S'15857.1307102'
p369
sba(igraph
Edge
p370
(dp371
g7
I1
sg8
I00
sg9
I5
sg10
(lp372
(igraph
Vertex
p373
(dp374
g14
F0.0
sg8
I01
sg15
I0
sg17
F111.76288659793812
sg18
F47.0
sg19
I6688877
sg20
S'15857.0830994'
p375
sg22
F0.67010309278350511
sba(igraph
Vertex
p376
(dp377
g14
F0.25
sg8
I00
sg15
g16
sg17
F111.76288659793812
sg18
F-41.25
sg19
I6688879
sg20
S'15857.0835193'
p378
sg22
F0.67010309278350511
sbasg26
I00
sg27
I00
sg28
I6688626
sg20
S'15857.1349359'
p379
sba(igraph
Edge
p380
(dp381
g7
I1
sg8
I00
sg9
I5
sg10
(lp382
g376
a(igraph
Vertex
p383
(dp384
g14
F0.5
sg8
I00
sg15
g16
sg17
F111.76288659793812
sg18
F-129.5
sg19
I6688880
sg20
S'15857.0839506'
p385
sg22
F0.67010309278350511
sbasg26
I00
sg27
I00
sg28
I6688627
sg20
S'15857.1361433'
p386
sba(igraph
Edge
p387
(dp388
g7
I1
sg8
I00
sg9
I5
sg10
(lp389
g383
a(igraph
Vertex
p390
(dp391
g14
F0.75
sg8
I00
sg15
g16
sg17
F111.76288659793812
sg18
F-217.75
sg19
I6688881
sg20
S'15857.0843917'
p392
sg22
F0.67010309278350511
sbasg26
I00
sg27
I00
sg28
I6688628
sg20
S'15857.1373647'
p393
sba(igraph
Edge
p394
(dp395
g7
I1
sg8
I00
sg9
I5
sg10
(lp396
g390
a(igraph
Vertex
p397
(dp398
g14
F1.0
sg8
I00
sg15
g16
sg17
F111.76288659793812
sg18
F-306.0
sg19
I6688882
sg20
S'15857.084837'
p399
sg22
F0.67010309278350511
sbasg26
I00
sg27
I00
sg28
I6688629
sg20
S'15857.1387819'
p400
sba(igraph
Edge
p401
(dp402
g7
I1
sg8
I00
sg9
I5
sg10
(lp403
g397
ag373
asg26
I00
sg27
I00
sg28
I6688630
sg20
S'15857.1400466'
p404
sba(igraph
Edge
p405
(dp406
g7
I1
sg8
I00
sg9
I5
sg10
(lp407
(igraph
Vertex
p408
(dp409
g14
F0.0
sg8
I00
sg15
g16
sg17
F152.63917525773201
sg18
F47.0
sg19
I6688883
sg20
S'15857.0852932'
p410
sg22
F0.73711340206185572
sba(igraph
Vertex
p411
(dp412
g14
F0.25
sg8
I00
sg15
g16
sg17
F152.63917525773201
sg18
F-41.25
sg19
I6688884
sg20
S'15857.0857492'
p413
sg22
F0.73711340206185572
sbasg26
I00
sg27
I00
sg28
I6688631
sg20
S'15857.1413398'
p414
sba(igraph
Edge
p415
(dp416
g7
I1
sg8
I00
sg9
I5
sg10
(lp417
g411
a(igraph
Vertex
p418
(dp419
g14
F0.5
sg8
I01
sg15
I0
sg17
F152.63917525773201
sg18
F-129.5
sg19
I6688886
sg20
S'15857.0862252'
p420
sg22
F0.73711340206185572
sbasg26
I00
sg27
I00
sg28
I6688632
sg20
S'15857.1428047'
p421
sba(igraph
Edge
p422
(dp423
g7
I1
sg8
I00
sg9
I5
sg10
(lp424
g418
a(igraph
Vertex
p425
(dp426
g14
F0.75
sg8
I00
sg15
g16
sg17
F152.63917525773201
sg18
F-217.75
sg19
I6688888
sg20
S'15857.0867026'
p427
sg22
F0.73711340206185572
sbasg26
I00
sg27
I00
sg28
I6688633
sg20
S'15857.1442817'
p428
sba(igraph
Edge
p429
(dp430
g7
I1
sg8
I00
sg9
I5
sg10
(lp431
g425
a(igraph
Vertex
p432
(dp433
g14
F1.0
sg8
I00
sg15
g16
sg17
F152.63917525773201
sg18
F-306.0
sg19
I6688889
sg20
S'15857.0871985'
p434
sg22
F0.73711340206185572
sbasg26
I00
sg27
I00
sg28
I6688634
sg20
S'15857.1456635'
p435
sba(igraph
Edge
p436
(dp437
g7
I1
sg8
I00
sg9
I5
sg10
(lp438
g432
ag408
asg26
I00
sg27
I00
sg28
I6688635
sg20
S'15857.1472561'
p439
sba(igraph
Edge
p440
(dp441
g7
I1
sg8
I00
sg9
I5
sg10
(lp442
(igraph
Vertex
p443
(dp444
g14
F0.0
sg8
I00
sg15
g16
sg17
F193.51546391752578
sg18
F47.0
sg19
I6688890
sg20
S'15857.0876919'
p445
sg22
F0.80412371134020622
sba(igraph
Vertex
p446
(dp447
g14
F0.25
sg8
I01
sg15
I0
sg17
F193.51546391752578
sg18
F-41.25
sg19
I6688892
sg20
S'15857.0882467'
p448
sg22
F0.80412371134020622
sbasg26
I00
sg27
I00
sg28
I6688636
sg20
S'15857.1487438'
p449
sba(igraph
Edge
p450
(dp451
g7
I1
sg8
I00
sg9
I5
sg10
(lp452
g446
a(igraph
Vertex
p453
(dp454
g14
F0.5
sg8
I00
sg15
g16
sg17
F193.51546391752578
sg18
F-129.5
sg19
I6688894
sg20
S'15857.0887624'
p455
sg22
F0.80412371134020622
sbasg26
I00
sg27
I00
sg28
I6688637
sg20
S'15857.1501909'
p456
sba(igraph
Edge
p457
(dp458
g7
I1
sg8
I00
sg9
I5
sg10
(lp459
g453
a(igraph
Vertex
p460
(dp461
g14
F0.75
sg8
I00
sg15
g16
sg17
F193.51546391752578
sg18
F-217.75
sg19
I6688895
sg20
S'15857.0893231'
p462
sg22
F0.80412371134020622
sbasg26
I00
sg27
I00
sg28
I6688638
sg20
S'15857.1516573'
p463
sba(igraph
Edge
p464
(dp465
g7
I1
sg8
I00
sg9
I5
sg10
(lp466
g460
a(igraph
Vertex
p467
(dp468
g14
F1.0
sg8
I00
sg15
g16
sg17
F193.51546391752578
sg18
F-306.0
sg19
I6688896
sg20
S'15857.0898547'
p469
sg22
F0.80412371134020622
sbasg26
I00
sg27
I00
sg28
I6688639
sg20
S'15857.1532385'
p470
sba(igraph
Edge
p471
(dp472
g7
I1
sg8
I00
sg9
I5
sg10
(lp473
g467
ag443
asg26
I00
sg27
I00
sg28
I6688640
sg20
S'15857.1547814'
p474
sba(igraph
Edge
p475
(dp476
g7
I1
sg8
I00
sg9
I5
sg10
(lp477
(igraph
Vertex
p478
(dp479
g14
F0.0
sg8
I00
sg15
g16
sg17
F234.39175257731961
sg18
F47.0
sg19
I6688897
sg20
S'15857.0903891'
p480
sg22
F0.87113402061855671
sba(igraph
Vertex
p481
(dp482
g14
F0.25
sg8
I00
sg15
g16
sg17
F234.39175257731961
sg18
F-41.25
sg19
I6688898
sg20
S'15857.0909722'
p483
sg22
F0.87113402061855671
sbasg26
I00
sg27
I00
sg28
I6688641
sg20
S'15857.1563472'
p484
sba(igraph
Edge
p485
(dp486
g7
I1
sg8
I00
sg9
I5
sg10
(lp487
g481
a(igraph
Vertex
p488
(dp489
g14
F0.5
sg8
I00
sg15
g16
sg17
F234.39175257731961
sg18
F-129.5
sg19
I6688899
sg20
S'15857.0915351'
p490
sg22
F0.87113402061855671
sbasg26
I00
sg27
I00
sg28
I6688642
sg20
S'15857.1578994'
p491
sba(igraph
Edge
p492
(dp493
g7
I1
sg8
I00
sg9
I5
sg10
(lp494
g488
a(igraph
Vertex
p495
(dp496
g14
F0.75
sg8
I01
sg15
I0
sg17
F234.39175257731961
sg18
F-217.75
sg19
I6688901
sg20
S'15857.0921056'
p497
sg22
F0.87113402061855671
sbasg26
I00
sg27
I00
sg28
I6688643
sg20
S'15857.1594714'
p498
sba(igraph
Edge
p499
(dp500
g7
I1
sg8
I00
sg9
I5
sg10
(lp501
g495
a(igraph
Vertex
p502
(dp503
g14
F1.0
sg8
I00
sg15
g16
sg17
F234.39175257731961
sg18
F-306.0
sg19
I6688903
sg20
S'15857.092676'
p504
sg22
F0.87113402061855671
sbasg26
I00
sg27
I00
sg28
I6688644
sg20
S'15857.1610674'
p505
sba(igraph
Edge
p506
(dp507
g7
I1
sg8
I00
sg9
I5
sg10
(lp508
g502
ag478
asg26
I00
sg27
I00
sg28
I6688645
sg20
S'15857.1627126'
p509
sba(igraph
Edge
p510
(dp511
g7
I1
sg8
I00
sg9
I5
sg10
(lp512
(igraph
Vertex
p513
(dp514
g14
F0.0
sg8
I00
sg15
g16
sg17
F275.26804123711338
sg18
F47.0
sg19
I6688904
sg20
S'15857.0932853'
p515
sg22
F0.93814432989690721
sba(igraph
Vertex
p516
(dp517
g14
F0.25
sg8
I00
sg15
g16
sg17
F275.26804123711338
sg18
F-41.25
sg19
I6688905
sg20
S'15857.0938739'
p518
sg22
F0.93814432989690721
sbasg26
I00
sg27
I00
sg28
I6688646
sg20
S'15857.1643566'
p519
sba(igraph
Edge
p520
(dp521
g7
I1
sg8
I00
sg9
I5
sg10
(lp522
g516
a(igraph
Vertex
p523
(dp524
g14
F0.5
sg8
I00
sg15
g16
sg17
F275.26804123711338
sg18
F-129.5
sg19
I6688906
sg20
S'15857.0944709'
p525
sg22
F0.93814432989690721
sbasg26
I00
sg27
I00
sg28
I6688647
sg20
S'15857.1660164'
p526
sba(igraph
Edge
p527
(dp528
g7
I1
sg8
I00
sg9
I5
sg10
(lp529
g523
a(igraph
Vertex
p530
(dp531
g14
F0.75
sg8
I00
sg15
g16
sg17
F275.26804123711338
sg18
F-217.75
sg19
I6688907
sg20
S'15857.0950808'
p532
sg22
F0.93814432989690721
sbasg26
I00
sg27
I00
sg28
I6688648
sg20
S'15857.1678007'
p533
sba(igraph
Edge
p534
(dp535
g7
I1
sg8
I00
sg9
I5
sg10
(lp536
g530
a(igraph
Vertex
p537
(dp538
g14
F1.0
sg8
I00
sg15
g16
sg17
F275.26804123711338
sg18
F-306.0
sg19
I6688908
sg20
S'15857.0956951'
p539
sg22
F0.93814432989690721
sbasg26
I00
sg27
I00
sg28
I6688649
sg20
S'15857.1695802'
p540
sba(igraph
Edge
p541
(dp542
g7
I1
sg8
I00
sg9
I5
sg10
(lp543
g537
ag513
asg26
I00
sg27
I00
sg28
I6688650
sg20
S'15857.1713612'
p544
sba(igraph
Edge
p545
(dp546
g7
I1
sg8
I00
sg9
I5
sg10
(lp547
(igraph
Vertex
p548
(dp549
g14
F0.0
sg8
I00
sg15
g16
sg17
F316.14432989690715
sg18
F47.0
sg19
I6688909
sg20
S'15857.0963203'
p550
sg22
F1.0051546391752577
sba(igraph
Vertex
p551
(dp552
g14
F0.25
sg8
I00
sg15
g16
sg17
F316.14432989690715
sg18
F-41.25
sg19
I6688910
sg20
S'15857.0970389'
p553
sg22
F1.0051546391752577
sbasg26
I00
sg27
I00
sg28
I6688651
sg20
S'15857.1731661'
p554
sba(igraph
Edge
p555
(dp556
g7
I1
sg8
I00
sg9
I5
sg10
(lp557
g551
a(igraph
Vertex
p558
(dp559
g14
F0.5
sg8
I00
sg15
g16
sg17
F316.14432989690715
sg18
F-129.5
sg19
I6688911
sg20
S'15857.0976881'
p560
sg22
F1.0051546391752577
sbasg26
I00
sg27
I00
sg28
I6688652
sg20
S'15857.17492'
p561
sba(igraph
Edge
p562
(dp563
g7
I1
sg8
I00
sg9
I5
sg10
(lp564
g558
a(igraph
Vertex
p565
(dp566
g14
F0.75
sg8
I00
sg15
g16
sg17
F316.14432989690715
sg18
F-217.75
sg19
I6688912
sg20
S'15857.0983983'
p567
sg22
F1.0051546391752577
sbasg26
I00
sg27
I00
sg28
I6688653
sg20
S'15857.1767082'
p568
sba(igraph
Edge
p569
(dp570
g7
I1
sg8
I00
sg9
I5
sg10
(lp571
g565
a(igraph
Vertex
p572
(dp573
g14
F1.0
sg8
I01
sg15
I0
sg17
F316.14432989690715
sg18
F-306.0
sg19
I6688914
sg20
S'15857.0991137'
p574
sg22
F1.0051546391752577
sbasg26
I00
sg27
I00
sg28
I6688654
sg20
S'15857.1785448'
p575
sba(igraph
Edge
p576
(dp577
g7
I1
sg8
I00
sg9
I5
sg10
(lp578
g572
ag548
asg26
I00
sg27
I00
sg28
I6688655
sg20
S'15857.1807626'
p579
sba(igraph
Edge
p580
(dp581
g7
I1
sg8
I00
sg9
I5
sg10
(lp582
g12
ag58
asg26
I00
sg27
I00
sg28
I6688656
sg20
S'15857.1826092'
p583
sba(igraph
Edge
p584
(dp585
g7
I1
sg8
I00
sg9
I5
sg10
(lp586
g23
ag68
asg26
I00
sg27
I00
sg28
I6688657
sg20
S'15857.1845053'
p587
sba(igraph
Edge
p588
(dp589
g7
I1
sg8
I00
sg9
I5
sg10
(lp590
g33
ag68
asg26
I00
sg27
I00
sg28
I6688658
sg20
S'15857.1863997'
p591
sba(igraph
Edge
p592
(dp593
g7
I1
sg8
I00
sg9
I5
sg10
(lp594
g40
ag82
asg26
I00
sg27
I00
sg28
I6688659
sg20
S'15857.1892598'
p595
sba(igraph
Edge
p596
(dp597
g7
I1
sg8
I00
sg9
I5
sg10
(lp598
g47
ag82
asg26
I00
sg27
I00
sg28
I6688660
sg20
S'15857.1916886'
p599
sba(igraph
Edge
p600
(dp601
g7
I1
sg8
I00
sg9
I5
sg10
(lp602
g12
ag61
asg26
I00
sg27
I00
sg28
I6688661
sg20
S'15857.1940537'
p603
sba(igraph
Edge
p604
(dp605
g7
I1
sg8
I00
sg9
I5
sg10
(lp606
g23
ag61
asg26
I00
sg27
I00
sg28
I6688662
sg20
S'15857.1965124'
p607
sba(igraph
Edge
p608
(dp609
g7
I1
sg8
I00
sg9
I5
sg10
(lp610
g33
ag75
asg26
I00
sg27
I00
sg28
I6688663
sg20
S'15857.1990468'
p611
sba(igraph
Edge
p612
(dp613
g7
I1
sg8
I00
sg9
I5
sg10
(lp614
g40
ag75
asg26
I00
sg27
I00
sg28
I6688664
sg20
S'15857.201527'
p615
sba(igraph
Edge
p616
(dp617
g7
I1
sg8
I00
sg9
I5
sg10
(lp618
g47
ag58
asg26
I00
sg27
I00
sg28
I6688665
sg20
S'15857.2041542'
p619
sba(igraph
Edge
p620
(dp621
g7
I1
sg8
I00
sg9
I5
sg10
(lp622
g12
ag548
asg26
I00
sg27
I00
sg28
I6688666
sg20
S'15857.2066207'
p623
sba(igraph
Edge
p624
(dp625
g7
I1
sg8
I00
sg9
I5
sg10
(lp626
g23
ag548
asg26
I00
sg27
I00
sg28
I6688667
sg20
S'15857.2092291'
p627
sba(igraph
Edge
p628
(dp629
g7
I1
sg8
I00
sg9
I5
sg10
(lp630
g33
ag558
asg26
I00
sg27
I00
sg28
I6688668
sg20
S'15857.2117666'
p631
sba(igraph
Edge
p632
(dp633
g7
I1
sg8
I00
sg9
I5
sg10
(lp634
g40
ag558
asg26
I00
sg27
I00
sg28
I6688669
sg20
S'15857.2143828'
p635
sba(igraph
Edge
p636
(dp637
g7
I1
sg8
I00
sg9
I5
sg10
(lp638
g47
ag572
asg26
I00
sg27
I00
sg28
I6688670
sg20
S'15857.2170008'
p639
sba(igraph
Edge
p640
(dp641
g7
I1
sg8
I00
sg9
I5
sg10
(lp642
g12
ag572
asg26
I00
sg27
I00
sg28
I6688671
sg20
S'15857.2197553'
p643
sba(igraph
Edge
p644
(dp645
g7
I1
sg8
I00
sg9
I5
sg10
(lp646
g23
ag551
asg26
I00
sg27
I00
sg28
I6688672
sg20
S'15857.2225791'
p647
sba(igraph
Edge
p648
(dp649
g7
I1
sg8
I00
sg9
I5
sg10
(lp650
g33
ag551
asg26
I00
sg27
I00
sg28
I6688673
sg20
S'15857.2252527'
p651
sba(igraph
Edge
p652
(dp653
g7
I1
sg8
I00
sg9
I5
sg10
(lp654
g40
ag565
asg26
I00
sg27
I00
sg28
I6688674
sg20
S'15857.2279052'
p655
sba(igraph
Edge
p656
(dp657
g7
I1
sg8
I00
sg9
I5
sg10
(lp658
g47
ag565
asg26
I00
sg27
I00
sg28
I6688675
sg20
S'15857.2306989'
p659
sba(igraph
Edge
p660
(dp661
g7
I1
sg8
I00
sg9
I5
sg10
(lp662
g58
ag93
asg26
I00
sg27
I00
sg28
I6688676
sg20
S'15857.2335213'
p663
sba(igraph
Edge
p664
(dp665
g7
I1
sg8
I00
sg9
I5
sg10
(lp666
g61
ag103
asg26
I00
sg27
I00
sg28
I6688677
sg20
S'15857.2362337'
p667
sba(igraph
Edge
p668
(dp669
g7
I1
sg8
I00
sg9
I5
sg10
(lp670
g68
ag103
asg26
I00
sg27
I00
sg28
I6688678
sg20
S'15857.2388879'
p671
sba(igraph
Edge
p672
(dp673
g7
I1
sg8
I00
sg9
I5
sg10
(lp674
g75
ag117
asg26
I00
sg27
I00
sg28
I6688679
sg20
S'15857.2413491'
p675
sba(igraph
Edge
p676
(dp677
g7
I1
sg8
I00
sg9
I5
sg10
(lp678
g82
ag117
asg26
I00
sg27
I00
sg28
I6688680
sg20
S'15857.2441433'
p679
sba(igraph
Edge
p680
(dp681
g7
I1
sg8
I00
sg9
I5
sg10
(lp682
g58
ag96
asg26
I00
sg27
I00
sg28
I6688681
sg20
S'15857.2466797'
p683
sba(igraph
Edge
p684
(dp685
g7
I1
sg8
I00
sg9
I5
sg10
(lp686
g61
ag96
asg26
I00
sg27
I00
sg28
I6688682
sg20
S'15857.2491987'
p687
sba(igraph
Edge
p688
(dp689
g7
I1
sg8
I00
sg9
I5
sg10
(lp690
g68
ag110
asg26
I00
sg27
I00
sg28
I6688683
sg20
S'15857.2522022'
p691
sba(igraph
Edge
p692
(dp693
g7
I1
sg8
I00
sg9
I5
sg10
(lp694
g75
ag110
asg26
I00
sg27
I00
sg28
I6688684
sg20
S'15857.2549257'
p695
sba(igraph
Edge
p696
(dp697
g7
I1
sg8
I00
sg9
I5
sg10
(lp698
g82
ag93
asg26
I00
sg27
I00
sg28
I6688685
sg20
S'15857.2575352'
p699
sba(igraph
Edge
p700
(dp701
g7
I1
sg8
I00
sg9
I5
sg10
(lp702
g93
ag128
asg26
I00
sg27
I00
sg28
I6688686
sg20
S'15857.2601431'
p703
sba(igraph
Edge
p704
(dp705
g7
I1
sg8
I00
sg9
I5
sg10
(lp706
g96
ag138
asg26
I00
sg27
I00
sg28
I6688687
sg20
S'15857.2628382'
p707
sba(igraph
Edge
p708
(dp709
g7
I1
sg8
I00
sg9
I5
sg10
(lp710
g103
ag138
asg26
I00
sg27
I00
sg28
I6688688
sg20
S'15857.2655826'
p711
sba(igraph
Edge
p712
(dp713
g7
I1
sg8
I00
sg9
I5
sg10
(lp714
g110
ag152
asg26
I00
sg27
I00
sg28
I6688689
sg20
S'15857.2681975'
p715
sba(igraph
Edge
p716
(dp717
g7
I1
sg8
I00
sg9
I5
sg10
(lp718
g117
ag152
asg26
I00
sg27
I00
sg28
I6688690
sg20
S'15857.2712141'
p719
sba(igraph
Edge
p720
(dp721
g7
I1
sg8
I00
sg9
I5
sg10
(lp722
g93
ag131
asg26
I00
sg27
I00
sg28
I6688691
sg20
S'15857.2740804'
p723
sba(igraph
Edge
p724
(dp725
g7
I1
sg8
I00
sg9
I5
sg10
(lp726
g96
ag131
asg26
I00
sg27
I00
sg28
I6688692
sg20
S'15857.2769665'
p727
sba(igraph
Edge
p728
(dp729
g7
I1
sg8
I00
sg9
I5
sg10
(lp730
g103
ag145
asg26
I00
sg27
I00
sg28
I6688693
sg20
S'15857.2798783'
p731
sba(igraph
Edge
p732
(dp733
g7
I1
sg8
I00
sg9
I5
sg10
(lp734
g110
ag145
asg26
I00
sg27
I00
sg28
I6688694
sg20
S'15857.2829519'
p735
sba(igraph
Edge
p736
(dp737
g7
I1
sg8
I00
sg9
I5
sg10
(lp738
g117
ag128
asg26
I00
sg27
I00
sg28
I6688695
sg20
S'15857.2858165'
p739
sba(igraph
Edge
p740
(dp741
g7
I1
sg8
I00
sg9
I5
sg10
(lp742
g128
ag163
asg26
I00
sg27
I00
sg28
I6688696
sg20
S'15857.2886722'
p743
sba(igraph
Edge
p744
(dp745
g7
I1
sg8
I00
sg9
I5
sg10
(lp746
g131
ag173
asg26
I00
sg27
I00
sg28
I6688697
sg20
S'15857.291399'
p747
sba(igraph
Edge
p748
(dp749
g7
I1
sg8
I00
sg9
I5
sg10
(lp750
g138
ag173
asg26
I00
sg27
I00
sg28
I6688698
sg20
S'15857.294172'
p751
sba(igraph
Edge
p752
(dp753
g7
I1
sg8
I00
sg9
I5
sg10
(lp754
g145
ag187
asg26
I00
sg27
I00
sg28
I6688699
sg20
S'15857.2969349'
p755
sba(igraph
Edge
p756
(dp757
g7
I1
sg8
I00
sg9
I5
sg10
(lp758
g152
ag187
asg26
I00
sg27
I00
sg28
I6688700
sg20
S'15857.2997138'
p759
sba(igraph
Edge
p760
(dp761
g7
I1
sg8
I00
sg9
I5
sg10
(lp762
g128
ag166
asg26
I00
sg27
I00
sg28
I6688701
sg20
S'15857.302601'
p763
sba(igraph
Edge
p764
(dp765
g7
I1
sg8
I00
sg9
I5
sg10
(lp766
g131
ag166
asg26
I00
sg27
I00
sg28
I6688702
sg20
S'15857.3053941'
p767
sba(igraph
Edge
p768
(dp769
g7
I1
sg8
I00
sg9
I5
sg10
(lp770
g138
ag180
asg26
I00
sg27
I00
sg28
I6688703
sg20
S'15857.3082129'
p771
sba(igraph
Edge
p772
(dp773
g7
I1
sg8
I00
sg9
I5
sg10
(lp774
g145
ag180
asg26
I00
sg27
I00
sg28
I6688704
sg20
S'15857.3110359'
p775
sba(igraph
Edge
p776
(dp777
g7
I1
sg8
I00
sg9
I5
sg10
(lp778
g152
ag163
asg26
I00
sg27
I00
sg28
I6688705
sg20
S'15857.313915'
p779
sba(igraph
Edge
p780
(dp781
g7
I1
sg8
I00
sg9
I5
sg10
(lp782
g163
ag198
asg26
I00
sg27
I00
sg28
I6688706
sg20
S'15857.3167467'
p783
sba(igraph
Edge
p784
(dp785
g7
I1
sg8
I00
sg9
I5
sg10
(lp786
g166
ag208
asg26
I00
sg27
I00
sg28
I6688707
sg20
S'15857.3201368'
p787
sba(igraph
Edge
p788
(dp789
g7
I1
sg8
I00
sg9
I5
sg10
(lp790
g173
ag208
asg26
I00
sg27
I00
sg28
I6688708
sg20
S'15857.3231363'
p791
sba(igraph
Edge
p792
(dp793
g7
I1
sg8
I00
sg9
I5
sg10
(lp794
g180
ag222
asg26
I00
sg27
I00
sg28
I6688709
sg20
S'15857.3262627'
p795
sba(igraph
Edge
p796
(dp797
g7
I1
sg8
I00
sg9
I5
sg10
(lp798
g187
ag222
asg26
I00
sg27
I00
sg28
I6688710
sg20
S'15857.3294276'
p799
sba(igraph
Edge
p800
(dp801
g7
I1
sg8
I00
sg9
I5
sg10
(lp802
g163
ag201
asg26
I00
sg27
I00
sg28
I6688711
sg20
S'15857.3324238'
p803
sba(igraph
Edge
p804
(dp805
g7
I1
sg8
I00
sg9
I5
sg10
(lp806
g166
ag201
asg26
I00
sg27
I00
sg28
I6688712
sg20
S'15857.3355491'
p807
sba(igraph
Edge
p808
(dp809
g7
I1
sg8
I00
sg9
I5
sg10
(lp810
g173
ag215
asg26
I00
sg27
I00
sg28
I6688713
sg20
S'15857.3385752'
p811
sba(igraph
Edge
p812
(dp813
g7
I1
sg8
I00
sg9
I5
sg10
(lp814
g180
ag215
asg26
I00
sg27
I00
sg28
I6688714
sg20
S'15857.3416962'
p815
sba(igraph
Edge
p816
(dp817
g7
I1
sg8
I00
sg9
I5
sg10
(lp818
g187
ag198
asg26
I00
sg27
I00
sg28
I6688715
sg20
S'15857.3448961'
p819
sba(igraph
Edge
p820
(dp821
g7
I1
sg8
I00
sg9
I5
sg10
(lp822
g198
ag233
asg26
I00
sg27
I00
sg28
I6688716
sg20
S'15857.3482174'
p823
sba(igraph
Edge
p824
(dp825
g7
I1
sg8
I00
sg9
I5
sg10
(lp826
g201
ag243
asg26
I00
sg27
I00
sg28
I6688717
sg20
S'15857.3513438'
p827
sba(igraph
Edge
p828
(dp829
g7
I1
sg8
I00
sg9
I5
sg10
(lp830
g208
ag243
asg26
I00
sg27
I00
sg28
I6688718
sg20
S'15857.3545012'
p831
sba(igraph
Edge
p832
(dp833
g7
I1
sg8
I00
sg9
I5
sg10
(lp834
g215
ag257
asg26
I00
sg27
I00
sg28
I6688719
sg20
S'15857.3576569'
p835
sba(igraph
Edge
p836
(dp837
g7
I1
sg8
I00
sg9
I5
sg10
(lp838
g222
ag257
asg26
I00
sg27
I00
sg28
I6688720
sg20
S'15857.3608319'
p839
sba(igraph
Edge
p840
(dp841
g7
I1
sg8
I00
sg9
I5
sg10
(lp842
g198
ag236
asg26
I00
sg27
I00
sg28
I6688721
sg20
S'15857.3640038'
p843
sba(igraph
Edge
p844
(dp845
g7
I1
sg8
I00
sg9
I5
sg10
(lp846
g201
ag236
asg26
I00
sg27
I00
sg28
I6688722
sg20
S'15857.3672224'
p847
sba(igraph
Edge
p848
(dp849
g7
I1
sg8
I00
sg9
I5
sg10
(lp850
g208
ag250
asg26
I00
sg27
I00
sg28
I6688723
sg20
S'15857.3704756'
p851
sba(igraph
Edge
p852
(dp853
g7
I1
sg8
I00
sg9
I5
sg10
(lp854
g215
ag250
asg26
I00
sg27
I00
sg28
I6688724
sg20
S'15857.3737824'
p855
sba(igraph
Edge
p856
(dp857
g7
I1
sg8
I00
sg9
I5
sg10
(lp858
g222
ag233
asg26
I00
sg27
I00
sg28
I6688725
sg20
S'15857.3771222'
p859
sba(igraph
Edge
p860
(dp861
g7
I1
sg8
I00
sg9
I5
sg10
(lp862
g233
ag268
asg26
I00
sg27
I00
sg28
I6688726
sg20
S'15857.3804953'
p863
sba(igraph
Edge
p864
(dp865
g7
I1
sg8
I00
sg9
I5
sg10
(lp866
g236
ag278
asg26
I00
sg27
I00
sg28
I6688727
sg20
S'15857.383934'
p867
sba(igraph
Edge
p868
(dp869
g7
I1
sg8
I00
sg9
I5
sg10
(lp870
g243
ag278
asg26
I00
sg27
I00
sg28
I6688728
sg20
S'15857.387276'
p871
sba(igraph
Edge
p872
(dp873
g7
I1
sg8
I00
sg9
I5
sg10
(lp874
g250
ag292
asg26
I00
sg27
I00
sg28
I6688729
sg20
S'15857.3906382'
p875
sba(igraph
Edge
p876
(dp877
g7
I1
sg8
I00
sg9
I5
sg10
(lp878
g257
ag292
asg26
I00
sg27
I00
sg28
I6688730
sg20
S'15857.3940414'
p879
sba(igraph
Edge
p880
(dp881
g7
I1
sg8
I00
sg9
I5
sg10
(lp882
g233
ag271
asg26
I00
sg27
I00
sg28
I6688731
sg20
S'15857.3975586'
p883
sba(igraph
Edge
p884
(dp885
g7
I1
sg8
I00
sg9
I5
sg10
(lp886
g236
ag271
asg26
I00
sg27
I00
sg28
I6688732
sg20
S'15857.4010303'
p887
sba(igraph
Edge
p888
(dp889
g7
I1
sg8
I00
sg9
I5
sg10
(lp890
g243
ag285
asg26
I00
sg27
I00
sg28
I6688733
sg20
S'15857.4044911'
p891
sba(igraph
Edge
p892
(dp893
g7
I1
sg8
I00
sg9
I5
sg10
(lp894
g250
ag285
asg26
I00
sg27
I00
sg28
I6688734
sg20
S'15857.407975'
p895
sba(igraph
Edge
p896
(dp897
g7
I1
sg8
I00
sg9
I5
sg10
(lp898
g257
ag268
asg26
I00
sg27
I00
sg28
I6688735
sg20
S'15857.411452'
p899
sba(igraph
Edge
p900
(dp901
g7
I1
sg8
I00
sg9
I5
sg10
(lp902
g268
ag303
asg26
I00
sg27
I00
sg28
I6688736
sg20
S'15857.4150083'
p903
sba(igraph
Edge
p904
(dp905
g7
I1
sg8
I00
sg9
I5
sg10
(lp906
g271
ag313
asg26
I00
sg27
I00
sg28
I6688737
sg20
S'15857.4185714'
p907
sba(igraph
Edge
p908
(dp909
g7
I1
sg8
I00
sg9
I5
sg10
(lp910
g278
ag313
asg26
I00
sg27
I00
sg28
I6688738
sg20
S'15857.422162'
p911
sba(igraph
Edge
p912
(dp913
g7
I1
sg8
I00
sg9
I5
sg10
(lp914
g285
ag327
asg26
I00
sg27
I00
sg28
I6688739
sg20
S'15857.4257496'
p915
sba(igraph
Edge
p916
(dp917
g7
I1
sg8
I00
sg9
I5
sg10
(lp918
g292
ag327
asg26
I00
sg27
I00
sg28
I6688740
sg20
S'15857.4294356'
p919
sba(igraph
Edge
p920
(dp921
g7
I1
sg8
I00
sg9
I5
sg10
(lp922
g268
ag306
asg26
I00
sg27
I00
sg28
I6688741
sg20
S'15857.4331419'
p923
sba(igraph
Edge
p924
(dp925
g7
I1
sg8
I00
sg9
I5
sg10
(lp926
g271
ag306
asg26
I00
sg27
I00
sg28
I6688742
sg20
S'15857.4369242'
p927
sba(igraph
Edge
p928
(dp929
g7
I1
sg8
I00
sg9
I5
sg10
(lp930
g278
ag320
asg26
I00
sg27
I00
sg28
I6688743
sg20
S'15857.4406574'
p931
sba(igraph
Edge
p932
(dp933
g7
I1
sg8
I00
sg9
I5
sg10
(lp934
g285
ag320
asg26
I00
sg27
I00
sg28
I6688744
sg20
S'15857.4444191'
p935
sba(igraph
Edge
p936
(dp937
g7
I1
sg8
I00
sg9
I5
sg10
(lp938
g292
ag303
asg26
I00
sg27
I00
sg28
I6688745
sg20
S'15857.4482126'
p939
sba(igraph
Edge
p940
(dp941
g7
I1
sg8
I00
sg9
I5
sg10
(lp942
g303
ag338
asg26
I00
sg27
I00
sg28
I6688746
sg20
S'15857.451934'
p943
sba(igraph
Edge
p944
(dp945
g7
I1
sg8
I00
sg9
I5
sg10
(lp946
g306
ag348
asg26
I00
sg27
I00
sg28
I6688747
sg20
S'15857.4556789'
p947
sba(igraph
Edge
p948
(dp949
g7
I1
sg8
I00
sg9
I5
sg10
(lp950
g313
ag348
asg26
I00
sg27
I00
sg28
I6688748
sg20
S'15857.459595'
p951
sba(igraph
Edge
p952
(dp953
g7
I1
sg8
I00
sg9
I5
sg10
(lp954
g320
ag362
asg26
I00
sg27
I00
sg28
I6688749
sg20
S'15857.46345'
p955
sba(igraph
Edge
p956
(dp957
g7
I1
sg8
I00
sg9
I5
sg10
(lp958
g327
ag362
asg26
I00
sg27
I00
sg28
I6688750
sg20
S'15857.46747'
p959
sba(igraph
Edge
p960
(dp961
g7
I1
sg8
I00
sg9
I5
sg10
(lp962
g303
ag341
asg26
I00
sg27
I00
sg28
I6688751
sg20
S'15857.4714784'
p963
sba(igraph
Edge
p964
(dp965
g7
I1
sg8
I00
sg9
I5
sg10
(lp966
g306
ag341
asg26
I00
sg27
I00
sg28
I6688752
sg20
S'15857.4754012'
p967
sba(igraph
Edge
p968
(dp969
g7
I1
sg8
I00
sg9
I5
sg10
(lp970
g313
ag355
asg26
I00
sg27
I00
sg28
I6688753
sg20
S'15857.4793039'
p971
sba(igraph
Edge
p972
(dp973
g7
I1
sg8
I00
sg9
I5
sg10
(lp974
g320
ag355
asg26
I00
sg27
I00
sg28
I6688754
sg20
S'15857.4832466'
p975
sba(igraph
Edge
p976
(dp977
g7
I1
sg8
I00
sg9
I5
sg10
(lp978
g327
ag338
asg26
I00
sg27
I00
sg28
I6688755
sg20
S'15857.4871535'
p979
sba(igraph
Edge
p980
(dp981
g7
I1
sg8
I00
sg9
I5
sg10
(lp982
g338
ag373
asg26
I00
sg27
I00
sg28
I6688756
sg20
S'15857.4911035'
p983
sba(igraph
Edge
p984
(dp985
g7
I1
sg8
I00
sg9
I5
sg10
(lp986
g341
ag383
asg26
I00
sg27
I00
sg28
I6688757
sg20
S'15857.4950389'
p987
sba(igraph
Edge
p988
(dp989
g7
I1
sg8
I00
sg9
I5
sg10
(lp990
g348
ag383
asg26
I00
sg27
I00
sg28
I6688758
sg20
S'15857.4989925'
p991
sba(igraph
Edge
p992
(dp993
g7
I1
sg8
I00
sg9
I5
sg10
(lp994
g355
ag397
asg26
I00
sg27
I00
sg28
I6688759
sg20
S'15857.5029754'
p995
sba(igraph
Edge
p996
(dp997
g7
I1
sg8
I00
sg9
I5
sg10
(lp998
g362
ag397
asg26
I00
sg27
I00
sg28
I6688760
sg20
S'15857.5074813'
p999
sba(igraph
Edge
p1000
(dp1001
g7
I1
sg8
I00
sg9
I5
sg10
(lp1002
g338
ag376
asg26
I00
sg27
I00
sg28
I6688761
sg20
S'15857.5116312'
p1003
sba(igraph
Edge
p1004
(dp1005
g7
I1
sg8
I00
sg9
I5
sg10
(lp1006
g341
ag376
asg26
I00
sg27
I00
sg28
I6688762
sg20
S'15857.5157491'
p1007
sba(igraph
Edge
p1008
(dp1009
g7
I1
sg8
I00
sg9
I5
sg10
(lp1010
g348
ag390
asg26
I00
sg27
I00
sg28
I6688763
sg20
S'15857.5198415'
p1011
sba(igraph
Edge
p1012
(dp1013
g7
I1
sg8
I00
sg9
I5
sg10
(lp1014
g355
ag390
asg26
I00
sg27
I00
sg28
I6688764
sg20
S'15857.5239959'
p1015
sba(igraph
Edge
p1016
(dp1017
g7
I1
sg8
I00
sg9
I5
sg10
(lp1018
g362
ag373
asg26
I00
sg27
I00
sg28
I6688765
sg20
S'15857.5281618'
p1019
sba(igraph
Edge
p1020
(dp1021
g7
I1
sg8
I00
sg9
I5
sg10
(lp1022
g373
ag408
asg26
I00
sg27
I00
sg28
I6688766
sg20
S'15857.5325006'
p1023
sba(igraph
Edge
p1024
(dp1025
g7
I1
sg8
I00
sg9
I5
sg10
(lp1026
g376
ag418
asg26
I00
sg27
I00
sg28
I6688767
sg20
S'15857.5366679'
p1027
sba(igraph
Edge
p1028
(dp1029
g7
I1
sg8
I00
sg9
I5
sg10
(lp1030
g383
ag418
asg26
I00
sg27
I00
sg28
I6688768
sg20
S'15857.54094'
p1031
sba(igraph
Edge
p1032
(dp1033
g7
I1
sg8
I00
sg9
I5
sg10
(lp1034
g390
ag432
asg26
I00
sg27
I00
sg28
I6688769
sg20
S'15857.5453271'
p1035
sba(igraph
Edge
p1036
(dp1037
g7
I1
sg8
I00
sg9
I5
sg10
(lp1038
g397
ag432
asg26
I00
sg27
I00
sg28
I6688770
sg20
S'15857.5496442'
p1039
sba(igraph
Edge
p1040
(dp1041
g7
I1
sg8
I00
sg9
I5
sg10
(lp1042
g373
ag411
asg26
I00
sg27
I00
sg28
I6688771
sg20
S'15857.5540794'
p1043
sba(igraph
Edge
p1044
(dp1045
g7
I1
sg8
I00
sg9
I5
sg10
(lp1046
g376
ag411
asg26
I00
sg27
I00
sg28
I6688772
sg20
S'15857.5584447'
p1047
sba(igraph
Edge
p1048
(dp1049
g7
I1
sg8
I00
sg9
I5
sg10
(lp1050
g383
ag425
asg26
I00
sg27
I00
sg28
I6688773
sg20
S'15857.5629062'
p1051
sba(igraph
Edge
p1052
(dp1053
g7
I1
sg8
I00
sg9
I5
sg10
(lp1054
g390
ag425
asg26
I00
sg27
I00
sg28
I6688774
sg20
S'15857.5672936'
p1055
sba(igraph
Edge
p1056
(dp1057
g7
I1
sg8
I00
sg9
I5
sg10
(lp1058
g397
ag408
asg26
I00
sg27
I00
sg28
I6688775
sg20
S'15857.5717989'
p1059
sba(igraph
Edge
p1060
(dp1061
g7
I1
sg8
I00
sg9
I5
sg10
(lp1062
g408
ag443
asg26
I00
sg27
I00
sg28
I6688776
sg20
S'15857.5762341'
p1063
sba(igraph
Edge
p1064
(dp1065
g7
I1
sg8
I00
sg9
I5
sg10
(lp1066
g411
ag453
asg26
I00
sg27
I00
sg28
I6688777
sg20
S'15857.5807068'
p1067
sba(igraph
Edge
p1068
(dp1069
g7
I1
sg8
I00
sg9
I5
sg10
(lp1070
g418
ag453
asg26
I00
sg27
I00
sg28
I6688778
sg20
S'15857.585321'
p1071
sba(igraph
Edge
p1072
(dp1073
g7
I1
sg8
I00
sg9
I5
sg10
(lp1074
g425
ag467
asg26
I00
sg27
I00
sg28
I6688779
sg20
S'15857.5897688'
p1075
sba(igraph
Edge
p1076
(dp1077
g7
I1
sg8
I00
sg9
I5
sg10
(lp1078
g432
ag467
asg26
I00
sg27
I00
sg28
I6688780
sg20
S'15857.5942414'
p1079
sba(igraph
Edge
p1080
(dp1081
g7
I1
sg8
I00
sg9
I5
sg10
(lp1082
g408
ag446
asg26
I00
sg27
I00
sg28
I6688781
sg20
S'15857.5987836'
p1083
sba(igraph
Edge
p1084
(dp1085
g7
I1
sg8
I00
sg9
I5
sg10
(lp1086
g411
ag446
asg26
I00
sg27
I00
sg28
I6688782
sg20
S'15857.6032705'
p1087
sba(igraph
Edge
p1088
(dp1089
g7
I1
sg8
I00
sg9
I5
sg10
(lp1090
g418
ag460
asg26
I00
sg27
I00
sg28
I6688783
sg20
S'15857.6077739'
p1091
sba(igraph
Edge
p1092
(dp1093
g7
I1
sg8
I00
sg9
I5
sg10
(lp1094
g425
ag460
asg26
I00
sg27
I00
sg28
I6688784
sg20
S'15857.6122753'
p1095
sba(igraph
Edge
p1096
(dp1097
g7
I1
sg8
I00
sg9
I5
sg10
(lp1098
g432
ag443
asg26
I00
sg27
I00
sg28
I6688785
sg20
S'15857.6167887'
p1099
sba(igraph
Edge
p1100
(dp1101
g7
I1
sg8
I00
sg9
I5
sg10
(lp1102
g443
ag478
asg26
I00
sg27
I00
sg28
I6688786
sg20
S'15857.6216254'
p1103
sba(igraph
Edge
p1104
(dp1105
g7
I1
sg8
I00
sg9
I5
sg10
(lp1106
g446
ag488
asg26
I00
sg27
I00
sg28
I6688787
sg20
S'15857.6264288'
p1107
sba(igraph
Edge
p1108
(dp1109
g7
I1
sg8
I00
sg9
I5
sg10
(lp1110
g453
ag488
asg26
I00
sg27
I00
sg28
I6688788
sg20
S'15857.6311894'
p1111
sba(igraph
Edge
p1112
(dp1113
g7
I1
sg8
I00
sg9
I5
sg10
(lp1114
g460
ag502
asg26
I00
sg27
I00
sg28
I6688789
sg20
S'15857.6359057'
p1115
sba(igraph
Edge
p1116
(dp1117
g7
I1
sg8
I00
sg9
I5
sg10
(lp1118
g467
ag502
asg26
I00
sg27
I00
sg28
I6688790
sg20
S'15857.64063'
p1119
sba(igraph
Edge
p1120
(dp1121
g7
I1
sg8
I00
sg9
I5
sg10
(lp1122
g443
ag481
asg26
I00
sg27
I00
sg28
I6688791
sg20
S'15857.6454007'
p1123
sba(igraph
Edge
p1124
(dp1125
g7
I1
sg8
I00
sg9
I5
sg10
(lp1126
g446
ag481
asg26
I00
sg27
I00
sg28
I6688792
sg20
S'15857.650229'
p1127
sba(igraph
Edge
p1128
(dp1129
g7
I1
sg8
I00
sg9
I5
sg10
(lp1130
g453
ag495
asg26
I00
sg27
I00
sg28
I6688793
sg20
S'15857.6551151'
p1131
sba(igraph
Edge
p1132
(dp1133
g7
I1
sg8
I00
sg9
I5
sg10
(lp1134
g460
ag495
asg26
I00
sg27
I00
sg28
I6688794
sg20
S'15857.6599308'
p1135
sba(igraph
Edge
p1136
(dp1137
g7
I1
sg8
I00
sg9
I5
sg10
(lp1138
g467
ag478
asg26
I00
sg27
I00
sg28
I6688795
sg20
S'15857.6647322'
p1139
sba(igraph
Edge
p1140
(dp1141
g7
I1
sg8
I00
sg9
I5
sg10
(lp1142
g478
ag513
asg26
I00
sg27
I00
sg28
I6688796
sg20
S'15857.6695887'
p1143
sba(igraph
Edge
p1144
(dp1145
g7
I1
sg8
I00
sg9
I5
sg10
(lp1146
g481
ag523
asg26
I00
sg27
I00
sg28
I6688797
sg20
S'15857.6744123'
p1147
sba(igraph
Edge
p1148
(dp1149
g7
I1
sg8
I00
sg9
I5
sg10
(lp1150
g488
ag523
asg26
I00
sg27
I00
sg28
I6688798
sg20
S'15857.6793355'
p1151
sba(igraph
Edge
p1152
(dp1153
g7
I1
sg8
I00
sg9
I5
sg10
(lp1154
g495
ag537
asg26
I00
sg27
I00
sg28
I6688799
sg20
S'15857.6846879'
p1155
sba(igraph
Edge
p1156
(dp1157
g7
I1
sg8
I00
sg9
I5
sg10
(lp1158
g502
ag537
asg26
I00
sg27
I00
sg28
I6688800
sg20
S'15857.6896513'
p1159
sba(igraph
Edge
p1160
(dp1161
g7
I1
sg8
I00
sg9
I5
sg10
(lp1162
g478
ag516
asg26
I00
sg27
I00
sg28
I6688801
sg20
S'15857.694683'
p1163
sba(igraph
Edge
p1164
(dp1165
g7
I1
sg8
I00
sg9
I5
sg10
(lp1166
g481
ag516
asg26
I00
sg27
I00
sg28
I6688802
sg20
S'15857.699778'
p1167
sba(igraph
Edge
p1168
(dp1169
g7
I1
sg8
I00
sg9
I5
sg10
(lp1170
g488
ag530
asg26
I00
sg27
I00
sg28
I6688803
sg20
S'15857.7048253'
p1171
sba(igraph
Edge
p1172
(dp1173
g7
I1
sg8
I00
sg9
I5
sg10
(lp1174
g495
ag530
asg26
I00
sg27
I00
sg28
I6688804
sg20
S'15857.7099355'
p1175
sba(igraph
Edge
p1176
(dp1177
g7
I1
sg8
I00
sg9
I5
sg10
(lp1178
g502
ag513
asg26
I00
sg27
I00
sg28
I6688805
sg20
S'15857.7149087'
p1179
sba(igraph
Edge
p1180
(dp1181
g7
I1
sg8
I00
sg9
I5
sg10
(lp1182
g513
ag548
asg26
I00
sg27
I00
sg28
I6688806
sg20
S'15857.7199219'
p1183
sba(igraph
Edge
p1184
(dp1185
g7
I1
sg8
I00
sg9
I5
sg10
(lp1186
g516
ag558
asg26
I00
sg27
I00
sg28
I6688807
sg20
S'15857.7249586'
p1187
sba(igraph
Edge
p1188
(dp1189
g7
I1
sg8
I00
sg9
I5
sg10
(lp1190
g523
ag558
asg26
I00
sg27
I00
sg28
I6688808
sg20
S'15857.7304833'
p1191
sba(igraph
Edge
p1192
(dp1193
g7
I1
sg8
I00
sg9
I5
sg10
(lp1194
g530
ag572
asg26
I00
sg27
I00
sg28
I6688809
sg20
S'15857.7355873'
p1195
sba(igraph
Edge
p1196
(dp1197
g7
I1
sg8
I00
sg9
I5
sg10
(lp1198
g537
ag572
asg26
I00
sg27
I00
sg28
I6688810
sg20
S'15857.7408791'
p1199
sba(igraph
Edge
p1200
(dp1201
g7
I1
sg8
I00
sg9
I5
sg10
(lp1202
g513
ag551
asg26
I00
sg27
I00
sg28
I6688811
sg20
S'15857.7461141'
p1203
sba(igraph
Edge
p1204
(dp1205
g7
I1
sg8
I00
sg9
I5
sg10
(lp1206
g516
ag551
asg26
I00
sg27
I00
sg28
I6688812
sg20
S'15857.7512452'
p1207
sba(igraph
Edge
p1208
(dp1209
g7
I1
sg8
I00
sg9
I5
sg10
(lp1210
g523
ag565
asg26
I00
sg27
I00
sg28
I6688813
sg20
S'15857.7563945'
p1211
sba(igraph
Edge
p1212
(dp1213
g7
I1
sg8
I00
sg9
I5
sg10
(lp1214
g530
ag565
asg26
I00
sg27
I00
sg28
I6688814
sg20
S'15857.7616141'
p1215
sba(igraph
Edge
p1216
(dp1217
g7
I1
sg8
I00
sg9
I5
sg10
(lp1218
g537
ag548
asg26
I00
sg27
I00
sg28
I6688815
sg20
S'15857.7668637'
p1219
sbasS'vertices'
p1220
(lp1221
g12
ag23
ag33
ag40
ag47
ag58
ag61
ag68
ag75
ag82
ag93
ag96
ag103
ag110
ag117
ag128
ag131
ag138
ag145
ag152
ag163
ag166
ag173
ag180
ag187
ag198
ag201
ag208
ag215
ag222
ag233
ag236
ag243
ag250
ag257
ag268
ag271
ag278
ag285
ag292
ag303
ag306
ag313
ag320
ag327
ag338
ag341
ag348
ag355
ag362
ag373
ag376
ag383
ag390
ag397
ag408
ag411
ag418
ag425
ag432
ag443
ag446
ag453
ag460
ag467
ag478
ag481
ag488
ag495
ag502
ag513
ag516
ag523
ag530
ag537
ag548
ag551
ag558
ag565
ag572
asS'tags'
p1222
(lp1223
sb.