(igraph
Graph
p0
(dp1
S'labelingConstraints'
p2
I-1
sS'edges'
p3
(lp4
(igraph
Edge
p5
(dp6
S'direction'
p7
I1
sS'selected'
p8
I00
sS'height'
p9
I5
sS'vs'
p10
(lp11
(igraph
Vertex
p12
(dp13
S'xnorm'
p14
F0.0
sg8
I00
sS'label'
p15
S'NULL'
p16
sS'y'
p17
F-306.0
sS'x'
p18
F362.0
sS'circle'
p19
I6576612
sS'id'
p20
S'15544.8405524'
p21
sS'ynorm'
p22
F0.0
sba(igraph
Vertex
p23
(dp24
g14
F0.12500000000000006
sg8
I00
sg15
g16
sg17
F-306.0
sg18
F271.12499999999994
sg19
I6576613
sg20
S'15544.8405772'
p25
sg22
F0.0
sbasS'wrap'
p26
I00
sS'curved'
p27
I00
sS'line'
p28
I6576180
sg20
S'15544.9472603'
p29
sba(igraph
Edge
p30
(dp31
g7
I1
sg8
I00
sg9
I5
sg10
(lp32
g23
a(igraph
Vertex
p33
(dp34
g14
F0.24999999999999994
sg8
I00
sg15
g16
sg17
F-306.0
sg18
F180.25000000000003
sg19
I6576614
sg20
S'15544.8406004'
p35
sg22
F0.0
sbasg26
I00
sg27
I00
sg28
I6576181
sg20
S'15544.9473397'
p36
sba(igraph
Edge
p37
(dp38
g7
I1
sg8
I00
sg9
I5
sg10
(lp39
g33
a(igraph
Vertex
p40
(dp41
g14
F0.375
sg8
I00
sg15
g16
sg17
F-306.0
sg18
F89.375
sg19
I6576615
sg20
S'15544.8406281'
p42
sg22
F0.0
sbasg26
I00
sg27
I00
sg28
I6576182
sg20
S'15544.9474685'
p43
sba(igraph
Edge
p44
(dp45
g7
I1
sg8
I00
sg9
I5
sg10
(lp46
g40
a(igraph
Vertex
p47
(dp48
g14
F0.5
sg8
I00
sg15
g16
sg17
F-306.0
sg18
F-1.5
sg19
I6576616
sg20
S'15544.8406638'
p49
sg22
F0.0
sbasg26
I00
sg27
I00
sg28
I6576183
sg20
S'15544.9475908'
p50
sba(igraph
Edge
p51
(dp52
g7
I1
sg8
I00
sg9
I5
sg10
(lp53
g47
a(igraph
Vertex
p54
(dp55
g14
F0.625
sg8
I00
sg15
g16
sg17
F-306.0
sg18
F-92.375
sg19
I6576617
sg20
S'15544.840706'
p56
sg22
F0.0
sbasg26
I00
sg27
I00
sg28
I6576184
sg20
S'15544.9477425'
p57
sba(igraph
Edge
p58
(dp59
g7
I1
sg8
I00
sg9
I5
sg10
(lp60
g54
a(igraph
Vertex
p61
(dp62
g14
F0.74999999999999989
sg8
I00
sg15
g16
sg17
F-306.0
sg18
F-183.24999999999989
sg19
I6576618
sg20
S'15544.840825'
p63
sg22
F0.0
sbasg26
I00
sg27
I00
sg28
I6576185
sg20
S'15544.9479481'
p64
sba(igraph
Edge
p65
(dp66
g7
I1
sg8
I00
sg9
I5
sg10
(lp67
g61
a(igraph
Vertex
p68
(dp69
g14
F0.87500000000000011
sg8
I00
sg15
g16
sg17
F-306.0
sg18
F-274.12500000000011
sg19
I6576619
sg20
S'15544.8408865'
p70
sg22
F0.0
sbasg26
I00
sg27
I00
sg28
I6576186
sg20
S'15544.9481644'
p71
sba(igraph
Edge
p72
(dp73
g7
I1
sg8
I00
sg9
I5
sg10
(lp74
g68
a(igraph
Vertex
p75
(dp76
g14
F1.0
sg8
I00
sg15
g16
sg17
F-306.0
sg18
F-365.0
sg19
I6576620
sg20
S'15544.8409527'
p77
sg22
F0.0
sbasg26
I00
sg27
I00
sg28
I6576187
sg20
S'15544.9484074'
p78
sba(igraph
Edge
p79
(dp80
g7
I1
sg8
I00
sg9
I5
sg10
(lp81
g75
ag12
asg26
I00
sg27
I00
sg28
I6576188
sg20
S'15544.9487281'
p82
sba(igraph
Edge
p83
(dp84
g7
I1
sg8
I00
sg9
I5
sg10
(lp85
(igraph
Vertex
p86
(dp87
g14
F0.0
sg8
I00
sg15
g16
sg17
F-268.60824742268039
sg18
F362.0
sg19
I6576621
sg20
S'15544.8410267'
p88
sg22
F0.067010309278350527
sba(igraph
Vertex
p89
(dp90
g14
F0.12500000000000006
sg8
I01
sg15
I0
sg17
F-268.60824742268039
sg18
F271.12499999999994
sg19
I6576623
sg20
S'15544.8411063'
p91
sg22
F0.067010309278350527
sbasg26
I00
sg27
I00
sg28
I6576189
sg20
S'15544.9490075'
p92
sba(igraph
Edge
p93
(dp94
g7
I1
sg8
I00
sg9
I5
sg10
(lp95
g89
a(igraph
Vertex
p96
(dp97
g14
F0.24999999999999994
sg8
I00
sg15
g16
sg17
F-268.60824742268039
sg18
F180.25000000000003
sg19
I6576625
sg20
S'15544.8411969'
p98
sg22
F0.067010309278350527
sbasg26
I00
sg27
I00
sg28
I6576190
sg20
S'15544.9493438'
p99
sba(igraph
Edge
p100
(dp101
g7
I1
sg8
I00
sg9
I5
sg10
(lp102
g96
a(igraph
Vertex
p103
(dp104
g14
F0.375
sg8
I00
sg15
g16
sg17
F-268.60824742268039
sg18
F89.375
sg19
I6576626
sg20
S'15544.8412958'
p105
sg22
F0.067010309278350527
sbasg26
I00
sg27
I00
sg28
I6576191
sg20
S'15544.949721'
p106
sba(igraph
Edge
p107
(dp108
g7
I1
sg8
I00
sg9
I5
sg10
(lp109
g103
a(igraph
Vertex
p110
(dp111
g14
F0.5
sg8
I00
sg15
g16
sg17
F-268.60824742268039
sg18
F-1.5
sg19
I6576627
sg20
S'15544.8414016'
p112
sg22
F0.067010309278350527
sbasg26
I00
sg27
I00
sg28
I6576192
sg20
S'15544.9500939'
p113
sba(igraph
Edge
p114
(dp115
g7
I1
sg8
I00
sg9
I5
sg10
(lp116
g110
a(igraph
Vertex
p117
(dp118
g14
F0.625
sg8
I00
sg15
g16
sg17
F-268.60824742268039
sg18
F-92.375
sg19
I6576628
sg20
S'15544.8415131'
p119
sg22
F0.067010309278350527
sbasg26
I00
sg27
I00
sg28
I6576193
sg20
S'15544.9505046'
p120
sba(igraph
Edge
p121
(dp122
g7
I1
sg8
I00
sg9
I5
sg10
(lp123
g117
a(igraph
Vertex
p124
(dp125
g14
F0.74999999999999989
sg8
I00
sg15
g16
sg17
F-268.60824742268039
sg18
F-183.24999999999989
sg19
I6576629
sg20
S'15544.8416332'
p126
sg22
F0.067010309278350527
sbasg26
I00
sg27
I00
sg28
I6576194
sg20
S'15544.9509885'
p127
sba(igraph
Edge
p128
(dp129
g7
I1
sg8
I00
sg9
I5
sg10
(lp130
g124
a(igraph
Vertex
p131
(dp132
g14
F0.87500000000000011
sg8
I00
sg15
g16
sg17
F-268.60824742268039
sg18
F-274.12500000000011
sg19
I6576630
sg20
S'15544.8417606'
p133
sg22
F0.067010309278350527
sbasg26
I00
sg27
I00
sg28
I6576195
sg20
S'15544.9514572'
p134
sba(igraph
Edge
p135
(dp136
g7
I1
sg8
I00
sg9
I5
sg10
(lp137
g131
a(igraph
Vertex
p138
(dp139
g14
F1.0
sg8
I00
sg15
g16
sg17
F-268.60824742268039
sg18
F-365.0
sg19
I6576631
sg20
S'15544.8418972'
p140
sg22
F0.067010309278350527
sbasg26
I00
sg27
I00
sg28
I6576196
sg20
S'15544.9519735'
p141
sba(igraph
Edge
p142
(dp143
g7
I1
sg8
I00
sg9
I5
sg10
(lp144
g138
ag86
asg26
I00
sg27
I00
sg28
I6576197
sg20
S'15544.9526241'
p145
sba(igraph
Edge
p146
(dp147
g7
I1
sg8
I00
sg9
I5
sg10
(lp148
(igraph
Vertex
p149
(dp150
g14
F0.0
sg8
I00
sg15
g16
sg17
F-231.21649484536084
sg18
F362.0
sg19
I6576632
sg20
S'15544.8420405'
p151
sg22
F0.13402061855670103
sba(igraph
Vertex
p152
(dp153
g14
F0.12500000000000006
sg8
I00
sg15
g16
sg17
F-231.21649484536084
sg18
F271.12499999999994
sg19
I6576633
sg20
S'15544.8421928'
p154
sg22
F0.13402061855670103
sbasg26
I00
sg27
I00
sg28
I6576198
sg20
S'15544.9531868'
p155
sba(igraph
Edge
p156
(dp157
g7
I1
sg8
I00
sg9
I5
sg10
(lp158
g152
a(igraph
Vertex
p159
(dp160
g14
F0.24999999999999994
sg8
I00
sg15
g16
sg17
F-231.21649484536084
sg18
F180.25000000000003
sg19
I6576634
sg20
S'15544.8423548'
p161
sg22
F0.13402061855670103
sbasg26
I00
sg27
I00
sg28
I6576199
sg20
S'15544.953769'
p162
sba(igraph
Edge
p163
(dp164
g7
I1
sg8
I00
sg9
I5
sg10
(lp165
g159
a(igraph
Vertex
p166
(dp167
g14
F0.375
sg8
I00
sg15
g16
sg17
F-231.21649484536084
sg18
F89.375
sg19
I6576635
sg20
S'15544.8425241'
p168
sg22
F0.13402061855670103
sbasg26
I00
sg27
I00
sg28
I6576200
sg20
S'15544.9543786'
p169
sba(igraph
Edge
p170
(dp171
g7
I1
sg8
I00
sg9
I5
sg10
(lp172
g166
a(igraph
Vertex
p173
(dp174
g14
F0.5
sg8
I00
sg15
g16
sg17
F-231.21649484536084
sg18
F-1.5
sg19
I6576636
sg20
S'15544.8426993'
p175
sg22
F0.13402061855670103
sbasg26
I00
sg27
I00
sg28
I6576201
sg20
S'15544.9551043'
p176
sba(igraph
Edge
p177
(dp178
g7
I1
sg8
I00
sg9
I5
sg10
(lp179
g173
a(igraph
Vertex
p180
(dp181
g14
F0.625
sg8
I00
sg15
g16
sg17
F-231.21649484536084
sg18
F-92.375
sg19
I6576637
sg20
S'15544.8428879'
p182
sg22
F0.13402061855670103
sbasg26
I00
sg27
I00
sg28
I6576202
sg20
S'15544.9557592'
p183
sba(igraph
Edge
p184
(dp185
g7
I1
sg8
I00
sg9
I5
sg10
(lp186
g180
a(igraph
Vertex
p187
(dp188
g14
F0.74999999999999989
sg8
I00
sg15
g16
sg17
F-231.21649484536084
sg18
F-183.24999999999989
sg19
I6576638
sg20
S'15544.8430815'
p189
sg22
F0.13402061855670103
sbasg26
I00
sg27
I00
sg28
I6576203
sg20
S'15544.9564861'
p190
sba(igraph
Edge
p191
(dp192
g7
I1
sg8
I00
sg9
I5
sg10
(lp193
g187
a(igraph
Vertex
p194
(dp195
g14
F0.87500000000000011
sg8
I00
sg15
g16
sg17
F-231.21649484536084
sg18
F-274.12500000000011
sg19
I6576639
sg20
S'15544.843289'
p196
sg22
F0.13402061855670103
sbasg26
I00
sg27
I00
sg28
I6576204
sg20
S'15544.957149'
p197
sba(igraph
Edge
p198
(dp199
g7
I1
sg8
I00
sg9
I5
sg10
(lp200
g194
a(igraph
Vertex
p201
(dp202
g14
F1.0
sg8
I00
sg15
g16
sg17
F-231.21649484536084
sg18
F-365.0
sg19
I6576640
sg20
S'15544.8434971'
p203
sg22
F0.13402061855670103
sbasg26
I00
sg27
I00
sg28
I6576205
sg20
S'15544.9578483'
p204
sba(igraph
Edge
p205
(dp206
g7
I1
sg8
I00
sg9
I5
sg10
(lp207
g201
ag149
asg26
I00
sg27
I00
sg28
I6576206
sg20
S'15544.9586894'
p208
sba(igraph
Edge
p209
(dp210
g7
I1
sg8
I00
sg9
I5
sg10
(lp211
(igraph
Vertex
p212
(dp213
g14
F0.0
sg8
I00
sg15
g16
sg17
F-193.82474226804123
sg18
F362.0
sg19
I6576641
sg20
S'15544.8437137'
p214
sg22
F0.20103092783505153
sba(igraph
Vertex
p215
(dp216
g14
F0.12500000000000006
sg8
I00
sg15
g16
sg17
F-193.82474226804123
sg18
F271.12499999999994
sg19
I6576642
sg20
S'15544.8439366'
p217
sg22
F0.20103092783505153
sbasg26
I00
sg27
I00
sg28
I6576207
sg20
S'15544.9594728'
p218
sba(igraph
Edge
p219
(dp220
g7
I1
sg8
I00
sg9
I5
sg10
(lp221
g215
a(igraph
Vertex
p222
(dp223
g14
F0.24999999999999994
sg8
I01
sg15
I0
sg17
F-193.82474226804123
sg18
F180.25000000000003
sg19
I6576644
sg20
S'15544.844247'
p224
sg22
F0.20103092783505153
sbasg26
I00
sg27
I00
sg28
I6576208
sg20
S'15544.9602712'
p225
sba(igraph
Edge
p226
(dp227
g7
I1
sg8
I00
sg9
I5
sg10
(lp228
g222
a(igraph
Vertex
p229
(dp230
g14
F0.375
sg8
I00
sg15
g16
sg17
F-193.82474226804123
sg18
F89.375
sg19
I6576646
sg20
S'15544.844485'
p231
sg22
F0.20103092783505153
sbasg26
I00
sg27
I00
sg28
I6576209
sg20
S'15544.9621536'
p232
sba(igraph
Edge
p233
(dp234
g7
I1
sg8
I00
sg9
I5
sg10
(lp235
g229
a(igraph
Vertex
p236
(dp237
g14
F0.5
sg8
I00
sg15
g16
sg17
F-193.82474226804123
sg18
F-1.5
sg19
I6576647
sg20
S'15544.8447392'
p238
sg22
F0.20103092783505153
sbasg26
I00
sg27
I00
sg28
I6576210
sg20
S'15544.9637406'
p239
sba(igraph
Edge
p240
(dp241
g7
I1
sg8
I00
sg9
I5
sg10
(lp242
g236
a(igraph
Vertex
p243
(dp244
g14
F0.625
sg8
I00
sg15
g16
sg17
F-193.82474226804123
sg18
F-92.375
sg19
I6576648
sg20
S'15544.844994'
p245
sg22
F0.20103092783505153
sbasg26
I00
sg27
I00
sg28
I6576211
sg20
S'15544.9646494'
p246
sba(igraph
Edge
p247
(dp248
g7
I1
sg8
I00
sg9
I5
sg10
(lp249
g243
a(igraph
Vertex
p250
(dp251
g14
F0.74999999999999989
sg8
I00
sg15
g16
sg17
F-193.82474226804123
sg18
F-183.24999999999989
sg19
I6576649
sg20
S'15544.8452583'
p252
sg22
F0.20103092783505153
sbasg26
I00
sg27
I00
sg28
I6576212
sg20
S'15544.9655831'
p253
sba(igraph
Edge
p254
(dp255
g7
I1
sg8
I00
sg9
I5
sg10
(lp256
g250
a(igraph
Vertex
p257
(dp258
g14
F0.87500000000000011
sg8
I00
sg15
g16
sg17
F-193.82474226804123
sg18
F-274.12500000000011
sg19
I6576650
sg20
S'15544.8455418'
p259
sg22
F0.20103092783505153
sbasg26
I00
sg27
I00
sg28
I6576213
sg20
S'15544.9665608'
p260
sba(igraph
Edge
p261
(dp262
g7
I1
sg8
I00
sg9
I5
sg10
(lp263
g257
a(igraph
Vertex
p264
(dp265
g14
F1.0
sg8
I00
sg15
g16
sg17
F-193.82474226804123
sg18
F-365.0
sg19
I6576651
sg20
S'15544.8458324'
p266
sg22
F0.20103092783505153
sbasg26
I00
sg27
I00
sg28
I6576214
sg20
S'15544.9675534'
p267
sba(igraph
Edge
p268
(dp269
g7
I1
sg8
I00
sg9
I5
sg10
(lp270
g264
ag212
asg26
I00
sg27
I00
sg28
I6576215
sg20
S'15544.9685591'
p271
sba(igraph
Edge
p272
(dp273
g7
I1
sg8
I00
sg9
I5
sg10
(lp274
(igraph
Vertex
p275
(dp276
g14
F0.0
sg8
I00
sg15
g16
sg17
F-156.43298969072166
sg18
F362.0
sg19
I6576652
sg20
S'15544.8461777'
p277
sg22
F0.26804123711340205
sba(igraph
Vertex
p278
(dp279
g14
F0.12500000000000006
sg8
I00
sg15
g16
sg17
F-156.43298969072166
sg18
F271.12499999999994
sg19
I6576653
sg20
S'15544.8464864'
p280
sg22
F0.26804123711340205
sbasg26
I00
sg27
I00
sg28
I6576216
sg20
S'15544.9697408'
p281
sba(igraph
Edge
p282
(dp283
g7
I1
sg8
I00
sg9
I5
sg10
(lp284
g278
a(igraph
Vertex
p285
(dp286
g14
F0.24999999999999994
sg8
I00
sg15
g16
sg17
F-156.43298969072166
sg18
F180.25000000000003
sg19
I6576654
sg20
S'15544.846799'
p287
sg22
F0.26804123711340205
sbasg26
I00
sg27
I00
sg28
I6576217
sg20
S'15544.9706365'
p288
sba(igraph
Edge
p289
(dp290
g7
I1
sg8
I00
sg9
I5
sg10
(lp291
g285
a(igraph
Vertex
p292
(dp293
g14
F0.375
sg8
I00
sg15
g16
sg17
F-156.43298969072166
sg18
F89.375
sg19
I6576655
sg20
S'15544.8471205'
p294
sg22
F0.26804123711340205
sbasg26
I00
sg27
I00
sg28
I6576218
sg20
S'15544.9716863'
p295
sba(igraph
Edge
p296
(dp297
g7
I1
sg8
I00
sg9
I5
sg10
(lp298
g292
a(igraph
Vertex
p299
(dp300
g14
F0.5
sg8
I00
sg15
g16
sg17
F-156.43298969072166
sg18
F-1.5
sg19
I6576656
sg20
S'15544.847451'
p301
sg22
F0.26804123711340205
sbasg26
I00
sg27
I00
sg28
I6576219
sg20
S'15544.9731455'
p302
sba(igraph
Edge
p303
(dp304
g7
I1
sg8
I00
sg9
I5
sg10
(lp305
g299
a(igraph
Vertex
p306
(dp307
g14
F0.625
sg8
I00
sg15
g16
sg17
F-156.43298969072166
sg18
F-92.375
sg19
I6576657
sg20
S'15544.8477871'
p308
sg22
F0.26804123711340205
sbasg26
I00
sg27
I00
sg28
I6576220
sg20
S'15544.9742819'
p309
sba(igraph
Edge
p310
(dp311
g7
I1
sg8
I00
sg9
I5
sg10
(lp312
g306
a(igraph
Vertex
p313
(dp314
g14
F0.74999999999999989
sg8
I00
sg15
g16
sg17
F-156.43298969072166
sg18
F-183.24999999999989
sg19
I6576658
sg20
S'15544.8481234'
p315
sg22
F0.26804123711340205
sbasg26
I00
sg27
I00
sg28
I6576221
sg20
S'15544.9752538'
p316
sba(igraph
Edge
p317
(dp318
g7
I1
sg8
I00
sg9
I5
sg10
(lp319
g313
a(igraph
Vertex
p320
(dp321
g14
F0.87500000000000011
sg8
I00
sg15
g16
sg17
F-156.43298969072166
sg18
F-274.12500000000011
sg19
I6576659
sg20
S'15544.8484707'
p322
sg22
F0.26804123711340205
sbasg26
I00
sg27
I00
sg28
I6576222
sg20
S'15544.9762422'
p323
sba(igraph
Edge
p324
(dp325
g7
I1
sg8
I00
sg9
I5
sg10
(lp326
g320
a(igraph
Vertex
p327
(dp328
g14
F1.0
sg8
I00
sg15
g16
sg17
F-156.43298969072166
sg18
F-365.0
sg19
I6576660
sg20
S'15544.848823'
p329
sg22
F0.26804123711340205
sbasg26
I00
sg27
I00
sg28
I6576223
sg20
S'15544.9778201'
p330
sba(igraph
Edge
p331
(dp332
g7
I1
sg8
I00
sg9
I5
sg10
(lp333
g327
ag275
asg26
I00
sg27
I00
sg28
I6576224
sg20
S'15544.9789093'
p334
sba(igraph
Edge
p335
(dp336
g7
I1
sg8
I00
sg9
I5
sg10
(lp337
(igraph
Vertex
p338
(dp339
g14
F0.0
sg8
I00
sg15
g16
sg17
F-119.04123711340208
sg18
F362.0
sg19
I6576661
sg20
S'15544.8491903'
p340
sg22
F0.33505154639175255
sba(igraph
Vertex
p341
(dp342
g14
F0.12500000000000006
sg8
I00
sg15
g16
sg17
F-119.04123711340208
sg18
F271.12499999999994
sg19
I6576662
sg20
S'15544.8495686'
p343
sg22
F0.33505154639175255
sbasg26
I00
sg27
I00
sg28
I6576225
sg20
S'15544.9801489'
p344
sba(igraph
Edge
p345
(dp346
g7
I1
sg8
I00
sg9
I5
sg10
(lp347
g341
a(igraph
Vertex
p348
(dp349
g14
F0.24999999999999994
sg8
I00
sg15
g16
sg17
F-119.04123711340208
sg18
F180.25000000000003
sg19
I6576663
sg20
S'15544.8499519'
p350
sg22
F0.33505154639175255
sbasg26
I00
sg27
I00
sg28
I6576226
sg20
S'15544.9812286'
p351
sba(igraph
Edge
p352
(dp353
g7
I1
sg8
I00
sg9
I5
sg10
(lp354
g348
a(igraph
Vertex
p355
(dp356
g14
F0.375
sg8
I01
sg15
I0
sg17
F-119.04123711340208
sg18
F89.375
sg19
I6576665
sg20
S'15544.8503394'
p357
sg22
F0.33505154639175255
sbasg26
I00
sg27
I00
sg28
I6576227
sg20
S'15544.9823371'
p358
sba(igraph
Edge
p359
(dp360
g7
I1
sg8
I00
sg9
I5
sg10
(lp361
g355
a(igraph
Vertex
p362
(dp363
g14
F0.5
sg8
I00
sg15
g16
sg17
F-119.04123711340208
sg18
F-1.5
sg19
I6576667
sg20
S'15544.8507341'
p364
sg22
F0.33505154639175255
sbasg26
I00
sg27
I00
sg28
I6576228
sg20
S'15544.9834973'
p365
sba(igraph
Edge
p366
(dp367
g7
I1
sg8
I00
sg9
I5
sg10
(lp368
g362
a(igraph
Vertex
p369
(dp370
g14
F0.625
sg8
I00
sg15
g16
sg17
F-119.04123711340208
sg18
F-92.375
sg19
I6576668
sg20
S'15544.8512032'
p371
sg22
F0.33505154639175255
sbasg26
I00
sg27
I00
sg28
I6576229
sg20
S'15544.9849646'
p372
sba(igraph
Edge
p373
(dp374
g7
I1
sg8
I00
sg9
I5
sg10
(lp375
g369
a(igraph
Vertex
p376
(dp377
g14
F0.74999999999999989
sg8
I00
sg15
g16
sg17
F-119.04123711340208
sg18
F-183.24999999999989
sg19
I6576669
sg20
S'15544.8516714'
p378
sg22
F0.33505154639175255
sbasg26
I00
sg27
I00
sg28
I6576230
sg20
S'15544.986303'
p379
sba(igraph
Edge
p380
(dp381
g7
I1
sg8
I00
sg9
I5
sg10
(lp382
g376
a(igraph
Vertex
p383
(dp384
g14
F0.87500000000000011
sg8
I00
sg15
g16
sg17
F-119.04123711340208
sg18
F-274.12500000000011
sg19
I6576670
sg20
S'15544.8522214'
p385
sg22
F0.33505154639175255
sbasg26
I00
sg27
I00
sg28
I6576231
sg20
S'15544.9876814'
p386
sba(igraph
Edge
p387
(dp388
g7
I1
sg8
I00
sg9
I5
sg10
(lp389
g383
a(igraph
Vertex
p390
(dp391
g14
F1.0
sg8
I00
sg15
g16
sg17
F-119.04123711340208
sg18
F-365.0
sg19
I6576671
sg20
S'15544.8529131'
p392
sg22
F0.33505154639175255
sbasg26
I00
sg27
I00
sg28
I6576232
sg20
S'15544.9889869'
p393
sba(igraph
Edge
p394
(dp395
g7
I1
sg8
I00
sg9
I5
sg10
(lp396
g390
ag338
asg26
I00
sg27
I00
sg28
I6576233
sg20
S'15544.9902331'
p397
sba(igraph
Edge
p398
(dp399
g7
I1
sg8
I00
sg9
I5
sg10
(lp400
(igraph
Vertex
p401
(dp402
g14
F0.0
sg8
I00
sg15
g16
sg17
F-81.649484536082497
sg18
F362.0
sg19
I6576672
sg20
S'15544.8534006'
p403
sg22
F0.40206185567010305
sba(igraph
Vertex
p404
(dp405
g14
F0.12500000000000006
sg8
I00
sg15
g16
sg17
F-81.649484536082497
sg18
F271.12499999999994
sg19
I6576673
sg20
S'15544.8538485'
p406
sg22
F0.40206185567010305
sbasg26
I00
sg27
I00
sg28
I6576234
sg20
S'15544.9914788'
p407
sba(igraph
Edge
p408
(dp409
g7
I1
sg8
I00
sg9
I5
sg10
(lp410
g404
a(igraph
Vertex
p411
(dp412
g14
F0.24999999999999994
sg8
I01
sg15
I0
sg17
F-81.649484536082497
sg18
F180.25000000000003
sg19
I6576675
sg20
S'15544.8543027'
p413
sg22
F0.40206185567010305
sbasg26
I00
sg27
I00
sg28
I6576235
sg20
S'15544.9927653'
p414
sba(igraph
Edge
p415
(dp416
g7
I1
sg8
I00
sg9
I5
sg10
(lp417
g411
a(igraph
Vertex
p418
(dp419
g14
F0.375
sg8
I00
sg15
g16
sg17
F-81.649484536082497
sg18
F89.375
sg19
I6576677
sg20
S'15544.854769'
p420
sg22
F0.40206185567010305
sbasg26
I00
sg27
I00
sg28
I6576236
sg20
S'15544.9941219'
p421
sba(igraph
Edge
p422
(dp423
g7
I1
sg8
I00
sg9
I5
sg10
(lp424
g418
a(igraph
Vertex
p425
(dp426
g14
F0.5
sg8
I00
sg15
g16
sg17
F-81.649484536082497
sg18
F-1.5
sg19
I6576678
sg20
S'15544.8553442'
p427
sg22
F0.40206185567010305
sbasg26
I00
sg27
I00
sg28
I6576237
sg20
S'15544.9956087'
p428
sba(igraph
Edge
p429
(dp430
g7
I1
sg8
I00
sg9
I5
sg10
(lp431
g425
a(igraph
Vertex
p432
(dp433
g14
F0.625
sg8
I00
sg15
g16
sg17
F-81.649484536082497
sg18
F-92.375
sg19
I6576679
sg20
S'15544.8559038'
p434
sg22
F0.40206185567010305
sbasg26
I00
sg27
I00
sg28
I6576238
sg20
S'15544.9970211'
p435
sba(igraph
Edge
p436
(dp437
g7
I1
sg8
I00
sg9
I5
sg10
(lp438
g432
a(igraph
Vertex
p439
(dp440
g14
F0.74999999999999989
sg8
I00
sg15
g16
sg17
F-81.649484536082497
sg18
F-183.24999999999989
sg19
I6576680
sg20
S'15544.8564371'
p441
sg22
F0.40206185567010305
sbasg26
I00
sg27
I00
sg28
I6576239
sg20
S'15544.9990686'
p442
sba(igraph
Edge
p443
(dp444
g7
I1
sg8
I00
sg9
I5
sg10
(lp445
g439
a(igraph
Vertex
p446
(dp447
g14
F0.87500000000000011
sg8
I00
sg15
g16
sg17
F-81.649484536082497
sg18
F-274.12500000000011
sg19
I6576681
sg20
S'15544.857026'
p448
sg22
F0.40206185567010305
sbasg26
I00
sg27
I00
sg28
I6576240
sg20
S'15545.0005138'
p449
sba(igraph
Edge
p450
(dp451
g7
I1
sg8
I00
sg9
I5
sg10
(lp452
g446
a(igraph
Vertex
p453
(dp454
g14
F1.0
sg8
I00
sg15
g16
sg17
F-81.649484536082497
sg18
F-365.0
sg19
I6576682
sg20
S'15544.8575794'
p455
sg22
F0.40206185567010305
sbasg26
I00
sg27
I00
sg28
I6576241
sg20
S'15545.0019505'
p456
sba(igraph
Edge
p457
(dp458
g7
I1
sg8
I00
sg9
I5
sg10
(lp459
g453
ag401
asg26
I00
sg27
I00
sg28
I6576242
sg20
S'15545.0034907'
p460
sba(igraph
Edge
p461
(dp462
g7
I1
sg8
I00
sg9
I5
sg10
(lp463
(igraph
Vertex
p464
(dp465
g14
F0.0
sg8
I00
sg15
g16
sg17
F-44.257731958762861
sg18
F362.0
sg19
I6576683
sg20
S'15544.8595187'
p466
sg22
F0.46907216494845366
sba(igraph
Vertex
p467
(dp468
g14
F0.12500000000000006
sg8
I00
sg15
g16
sg17
F-44.257731958762861
sg18
F271.12499999999994
sg19
I6576684
sg20
S'15544.8600515'
p469
sg22
F0.46907216494845366
sbasg26
I00
sg27
I00
sg28
I6576243
sg20
S'15545.0057122'
p470
sba(igraph
Edge
p471
(dp472
g7
I1
sg8
I00
sg9
I5
sg10
(lp473
g467
a(igraph
Vertex
p474
(dp475
g14
F0.24999999999999994
sg8
I00
sg15
g16
sg17
F-44.257731958762861
sg18
F180.25000000000003
sg19
I6576685
sg20
S'15544.8605884'
p476
sg22
F0.46907216494845366
sbasg26
I00
sg27
I00
sg28
I6576244
sg20
S'15545.0073333'
p477
sba(igraph
Edge
p478
(dp479
g7
I1
sg8
I00
sg9
I5
sg10
(lp480
g474
a(igraph
Vertex
p481
(dp482
g14
F0.375
sg8
I00
sg15
g16
sg17
F-44.257731958762861
sg18
F89.375
sg19
I6576686
sg20
S'15544.8611307'
p483
sg22
F0.46907216494845366
sbasg26
I00
sg27
I00
sg28
I6576245
sg20
S'15545.0090324'
p484
sba(igraph
Edge
p485
(dp486
g7
I1
sg8
I00
sg9
I5
sg10
(lp487
g481
a(igraph
Vertex
p488
(dp489
g14
F0.5
sg8
I01
sg15
I0
sg17
F-44.257731958762861
sg18
F-1.5
sg19
I6576688
sg20
S'15544.8616852'
p490
sg22
F0.46907216494845366
sbasg26
I00
sg27
I00
sg28
I6576246
sg20
S'15545.0108561'
p491
sba(igraph
Edge
p492
(dp493
g7
I1
sg8
I00
sg9
I5
sg10
(lp494
g488
a(igraph
Vertex
p495
(dp496
g14
F0.625
sg8
I00
sg15
g16
sg17
F-44.257731958762861
sg18
F-92.375
sg19
I6576690
sg20
S'15544.862252'
p497
sg22
F0.46907216494845366
sbasg26
I00
sg27
I00
sg28
I6576247
sg20
S'15545.0124147'
p498
sba(igraph
Edge
p499
(dp500
g7
I1
sg8
I00
sg9
I5
sg10
(lp501
g495
a(igraph
Vertex
p502
(dp503
g14
F0.74999999999999989
sg8
I00
sg15
g16
sg17
F-44.257731958762861
sg18
F-183.24999999999989
sg19
I6576691
sg20
S'15544.8628169'
p504
sg22
F0.46907216494845366
sbasg26
I00
sg27
I00
sg28
I6576248
sg20
S'15545.0140294'
p505
sba(igraph
Edge
p506
(dp507
g7
I1
sg8
I00
sg9
I5
sg10
(lp508
g502
a(igraph
Vertex
p509
(dp510
g14
F0.87500000000000011
sg8
I00
sg15
g16
sg17
F-44.257731958762861
sg18
F-274.12500000000011
sg19
I6576692
sg20
S'15544.86346'
p511
sg22
F0.46907216494845366
sbasg26
I00
sg27
I00
sg28
I6576249
sg20
S'15545.0157336'
p512
sba(igraph
Edge
p513
(dp514
g7
I1
sg8
I00
sg9
I5
sg10
(lp515
g509
a(igraph
Vertex
p516
(dp517
g14
F1.0
sg8
I00
sg15
g16
sg17
F-44.257731958762861
sg18
F-365.0
sg19
I6576693
sg20
S'15544.864097'
p518
sg22
F0.46907216494845366
sbasg26
I00
sg27
I00
sg28
I6576250
sg20
S'15545.0174187'
p519
sba(igraph
Edge
p520
(dp521
g7
I1
sg8
I00
sg9
I5
sg10
(lp522
g516
ag464
asg26
I00
sg27
I00
sg28
I6576251
sg20
S'15545.0191013'
p523
sba(igraph
Edge
p524
(dp525
g7
I1
sg8
I00
sg9
I5
sg10
(lp526
(igraph
Vertex
p527
(dp528
g14
F0.0
sg8
I01
sg15
I0
sg17
F-6.8659793814433101
sg18
F362.0
sg19
I6576695
sg20
S'15544.8647574'
p529
sg22
F0.53608247422680411
sba(igraph
Vertex
p530
(dp531
g14
F0.12500000000000006
sg8
I00
sg15
g16
sg17
F-6.8659793814433101
sg18
F271.12499999999994
sg19
I6576697
sg20
S'15544.865415'
p532
sg22
F0.53608247422680411
sbasg26
I00
sg27
I00
sg28
I6576252
sg20
S'15545.0208202'
p533
sba(igraph
Edge
p534
(dp535
g7
I1
sg8
I00
sg9
I5
sg10
(lp536
g530
a(igraph
Vertex
p537
(dp538
g14
F0.24999999999999994
sg8
I00
sg15
g16
sg17
F-6.8659793814433101
sg18
F180.25000000000003
sg19
I6576698
sg20
S'15544.8660838'
p539
sg22
F0.53608247422680411
sbasg26
I00
sg27
I00
sg28
I6576253
sg20
S'15545.0226565'
p540
sba(igraph
Edge
p541
(dp542
g7
I1
sg8
I00
sg9
I5
sg10
(lp543
g537
a(igraph
Vertex
p544
(dp545
g14
F0.375
sg8
I00
sg15
g16
sg17
F-6.8659793814433101
sg18
F89.375
sg19
I6576699
sg20
S'15544.8669728'
p546
sg22
F0.53608247422680411
sbasg26
I00
sg27
I00
sg28
I6576254
sg20
S'15545.0243685'
p547
sba(igraph
Edge
p548
(dp549
g7
I1
sg8
I00
sg9
I5
sg10
(lp550
g544
a(igraph
Vertex
p551
(dp552
g14
F0.5
sg8
I00
sg15
g16
sg17
F-6.8659793814433101
sg18
F-1.5
sg19
I6576700
sg20
S'15544.867622'
p553
sg22
F0.53608247422680411
sbasg26
I00
sg27
I00
sg28
I6576255
sg20
S'15545.0261586'
p554
sba(igraph
Edge
p555
(dp556
g7
I1
sg8
I00
sg9
I5
sg10
(lp557
g551
a(igraph
Vertex
p558
(dp559
g14
F0.625
sg8
I00
sg15
g16
sg17
F-6.8659793814433101
sg18
F-92.375
sg19
I6576701
sg20
S'15544.8682995'
p560
sg22
F0.53608247422680411
sbasg26
I00
sg27
I00
sg28
I6576256
sg20
S'15545.0281818'
p561
sba(igraph
Edge
p562
(dp563
g7
I1
sg8
I00
sg9
I5
sg10
(lp564
g558
a(igraph
Vertex
p565
(dp566
g14
F0.74999999999999989
sg8
I00
sg15
g16
sg17
F-6.8659793814433101
sg18
F-183.24999999999989
sg19
I6576702
sg20
S'15544.8691607'
p567
sg22
F0.53608247422680411
sbasg26
I00
sg27
I00
sg28
I6576257
sg20
S'15545.0303438'
p568
sba(igraph
Edge
p569
(dp570
g7
I1
sg8
I00
sg9
I5
sg10
(lp571
g565
a(igraph
Vertex
p572
(dp573
g14
F0.87500000000000011
sg8
I00
sg15
g16
sg17
F-6.8659793814433101
sg18
F-274.12500000000011
sg19
I6576703
sg20
S'15544.8699008'
p574
sg22
F0.53608247422680411
sbasg26
I00
sg27
I00
sg28
I6576258
sg20
S'15545.0324086'
p575
sba(igraph
Edge
p576
(dp577
g7
I1
sg8
I00
sg9
I5
sg10
(lp578
g572
a(igraph
Vertex
p579
(dp580
g14
F1.0
sg8
I00
sg15
g16
sg17
F-6.8659793814433101
sg18
F-365.0
sg19
I6576704
sg20
S'15544.8705914'
p581
sg22
F0.53608247422680411
sbasg26
I00
sg27
I00
sg28
I6576259
sg20
S'15545.0344052'
p582
sba(igraph
Edge
p583
(dp584
g7
I1
sg8
I00
sg9
I5
sg10
(lp585
g579
ag527
asg26
I00
sg27
I00
sg28
I6576260
sg20
S'15545.0362714'
p586
sba(igraph
Edge
p587
(dp588
g7
I1
sg8
I00
sg9
I5
sg10
(lp589
(igraph
Vertex
p590
(dp591
g14
F0.0
sg8
I00
sg15
g16
sg17
F30.525773195876297
sg18
F362.0
sg19
I6576705
sg20
S'15544.8712901'
p592
sg22
F0.60309278350515461
sba(igraph
Vertex
p593
(dp594
g14
F0.12500000000000006
sg8
I00
sg15
g16
sg17
F30.525773195876297
sg18
F271.12499999999994
sg19
I6576706
sg20
S'15544.8719935'
p595
sg22
F0.60309278350515461
sbasg26
I00
sg27
I00
sg28
I6576261
sg20
S'15545.0381828'
p596
sba(igraph
Edge
p597
(dp598
g7
I1
sg8
I00
sg9
I5
sg10
(lp599
g593
a(igraph
Vertex
p600
(dp601
g14
F0.24999999999999994
sg8
I00
sg15
g16
sg17
F30.525773195876297
sg18
F180.25000000000003
sg19
I6576707
sg20
S'15544.8727106'
p602
sg22
F0.60309278350515461
sbasg26
I00
sg27
I00
sg28
I6576262
sg20
S'15545.040273'
p603
sba(igraph
Edge
p604
(dp605
g7
I1
sg8
I00
sg9
I5
sg10
(lp606
g600
a(igraph
Vertex
p607
(dp608
g14
F0.375
sg8
I00
sg15
g16
sg17
F30.525773195876297
sg18
F89.375
sg19
I6576708
sg20
S'15544.8734311'
p609
sg22
F0.60309278350515461
sbasg26
I00
sg27
I00
sg28
I6576263
sg20
S'15545.0422185'
p610
sba(igraph
Edge
p611
(dp612
g7
I1
sg8
I00
sg9
I5
sg10
(lp613
g607
a(igraph
Vertex
p614
(dp615
g14
F0.5
sg8
I00
sg15
g16
sg17
F30.525773195876297
sg18
F-1.5
sg19
I6576709
sg20
S'15544.8741698'
p616
sg22
F0.60309278350515461
sbasg26
I00
sg27
I00
sg28
I6576264
sg20
S'15545.0442034'
p617
sba(igraph
Edge
p618
(dp619
g7
I1
sg8
I00
sg9
I5
sg10
(lp620
g614
a(igraph
Vertex
p621
(dp622
g14
F0.625
sg8
I01
sg15
I0
sg17
F30.525773195876297
sg18
F-92.375
sg19
I6576711
sg20
S'15544.8749176'
p623
sg22
F0.60309278350515461
sbasg26
I00
sg27
I00
sg28
I6576265
sg20
S'15545.0462687'
p624
sba(igraph
Edge
p625
(dp626
g7
I1
sg8
I00
sg9
I5
sg10
(lp627
g621
a(igraph
Vertex
p628
(dp629
g14
F0.74999999999999989
sg8
I00
sg15
g16
sg17
F30.525773195876297
sg18
F-183.24999999999989
sg19
I6576713
sg20
S'15544.8757038'
p630
sg22
F0.60309278350515461
sbasg26
I00
sg27
I00
sg28
I6576266
sg20
S'15545.048293'
p631
sba(igraph
Edge
p632
(dp633
g7
I1
sg8
I00
sg9
I5
sg10
(lp634
g628
a(igraph
Vertex
p635
(dp636
g14
F0.87500000000000011
sg8
I00
sg15
g16
sg17
F30.525773195876297
sg18
F-274.12500000000011
sg19
I6576714
sg20
S'15544.8764656'
p637
sg22
F0.60309278350515461
sbasg26
I00
sg27
I00
sg28
I6576267
sg20
S'15545.0505433'
p638
sba(igraph
Edge
p639
(dp640
g7
I1
sg8
I00
sg9
I5
sg10
(lp641
g635
a(igraph
Vertex
p642
(dp643
g14
F1.0
sg8
I00
sg15
g16
sg17
F30.525773195876297
sg18
F-365.0
sg19
I6576715
sg20
S'15544.8772361'
p644
sg22
F0.60309278350515461
sbasg26
I00
sg27
I00
sg28
I6576268
sg20
S'15545.0526184'
p645
sba(igraph
Edge
p646
(dp647
g7
I1
sg8
I00
sg9
I5
sg10
(lp648
g642
ag590
asg26
I00
sg27
I00
sg28
I6576269
sg20
S'15545.0546933'
p649
sba(igraph
Edge
p650
(dp651
g7
I1
sg8
I00
sg9
I5
sg10
(lp652
(igraph
Vertex
p653
(dp654
g14
F0.0
sg8
I00
sg15
g16
sg17
F67.917525773195848
sg18
F362.0
sg19
I6576716
sg20
S'15544.8780108'
p655
sg22
F0.67010309278350511
sba(igraph
Vertex
p656
(dp657
g14
F0.12500000000000006
sg8
I00
sg15
g16
sg17
F67.917525773195848
sg18
F271.12499999999994
sg19
I6576717
sg20
S'15544.8787963'
p658
sg22
F0.67010309278350511
sbasg26
I00
sg27
I00
sg28
I6576270
sg20
S'15545.0568874'
p659
sba(igraph
Edge
p660
(dp661
g7
I1
sg8
I00
sg9
I5
sg10
(lp662
g656
a(igraph
Vertex
p663
(dp664
g14
F0.24999999999999994
sg8
I00
sg15
g16
sg17
F67.917525773195848
sg18
F180.25000000000003
sg19
I6576718
sg20
S'15544.8800289'
p665
sg22
F0.67010309278350511
sbasg26
I00
sg27
I00
sg28
I6576271
sg20
S'15545.0590086'
p666
sba(igraph
Edge
p667
(dp668
g7
I1
sg8
I00
sg9
I5
sg10
(lp669
g663
a(igraph
Vertex
p670
(dp671
g14
F0.375
sg8
I00
sg15
g16
sg17
F67.917525773195848
sg18
F89.375
sg19
I6576719
sg20
S'15544.8808298'
p672
sg22
F0.67010309278350511
sbasg26
I00
sg27
I00
sg28
I6576272
sg20
S'15545.0611575'
p673
sba(igraph
Edge
p674
(dp675
g7
I1
sg8
I00
sg9
I5
sg10
(lp676
g670
a(igraph
Vertex
p677
(dp678
g14
F0.5
sg8
I00
sg15
g16
sg17
F67.917525773195848
sg18
F-1.5
sg19
I6576720
sg20
S'15544.8817431'
p679
sg22
F0.67010309278350511
sbasg26
I00
sg27
I00
sg28
I6576273
sg20
S'15545.063327'
p680
sba(igraph
Edge
p681
(dp682
g7
I1
sg8
I00
sg9
I5
sg10
(lp683
g677
a(igraph
Vertex
p684
(dp685
g14
F0.625
sg8
I00
sg15
g16
sg17
F67.917525773195848
sg18
F-92.375
sg19
I6576721
sg20
S'15544.8825703'
p686
sg22
F0.67010309278350511
sbasg26
I00
sg27
I00
sg28
I6576274
sg20
S'15545.0654969'
p687
sba(igraph
Edge
p688
(dp689
g7
I1
sg8
I00
sg9
I5
sg10
(lp690
g684
a(igraph
Vertex
p691
(dp692
g14
F0.74999999999999989
sg8
I00
sg15
g16
sg17
F67.917525773195848
sg18
F-183.24999999999989
sg19
I6576722
sg20
S'15544.8834056'
p693
sg22
F0.67010309278350511
sbasg26
I00
sg27
I00
sg28
I6576275
sg20
S'15545.0684794'
p694
sba(igraph
Edge
p695
(dp696
g7
I1
sg8
I00
sg9
I5
sg10
(lp697
g691
a(igraph
Vertex
p698
(dp699
g14
F0.87500000000000011
sg8
I00
sg15
g16
sg17
F67.917525773195848
sg18
F-274.12500000000011
sg19
I6576723
sg20
S'15544.8842501'
p700
sg22
F0.67010309278350511
sbasg26
I00
sg27
I00
sg28
I6576276
sg20
S'15545.070697'
p701
sba(igraph
Edge
p702
(dp703
g7
I1
sg8
I00
sg9
I5
sg10
(lp704
g698
a(igraph
Vertex
p705
(dp706
g14
F1.0
sg8
I00
sg15
g16
sg17
F67.917525773195848
sg18
F-365.0
sg19
I6576724
sg20
S'15544.8850901'
p707
sg22
F0.67010309278350511
sbasg26
I00
sg27
I00
sg28
I6576277
sg20
S'15545.0729361'
p708
sba(igraph
Edge
p709
(dp710
g7
I1
sg8
I00
sg9
I5
sg10
(lp711
g705
ag653
asg26
I00
sg27
I00
sg28
I6576278
sg20
S'15545.0752235'
p712
sba(igraph
Edge
p713
(dp714
g7
I1
sg8
I00
sg9
I5
sg10
(lp715
(igraph
Vertex
p716
(dp717
g14
F0.0
sg8
I00
sg15
g16
sg17
F105.30927835051551
sg18
F362.0
sg19
I6576725
sg20
S'15544.885945'
p718
sg22
F0.73711340206185572
sba(igraph
Vertex
p719
(dp720
g14
F0.12500000000000006
sg8
I00
sg15
g16
sg17
F105.30927835051551
sg18
F271.12499999999994
sg19
I6576726
sg20
S'15544.8868088'
p721
sg22
F0.73711340206185572
sbasg26
I00
sg27
I00
sg28
I6576279
sg20
S'15545.0776937'
p722
sba(igraph
Edge
p723
(dp724
g7
I1
sg8
I00
sg9
I5
sg10
(lp725
g719
a(igraph
Vertex
p726
(dp727
g14
F0.24999999999999994
sg8
I00
sg15
g16
sg17
F105.30927835051551
sg18
F180.25000000000003
sg19
I6576727
sg20
S'15544.8877139'
p728
sg22
F0.73711340206185572
sbasg26
I00
sg27
I00
sg28
I6576280
sg20
S'15545.0825203'
p729
sba(igraph
Edge
p730
(dp731
g7
I1
sg8
I00
sg9
I5
sg10
(lp732
g726
a(igraph
Vertex
p733
(dp734
g14
F0.375
sg8
I00
sg15
g16
sg17
F105.30927835051551
sg18
F89.375
sg19
I6576728
sg20
S'15544.8888199'
p735
sg22
F0.73711340206185572
sbasg26
I00
sg27
I00
sg28
I6576281
sg20
S'15545.0854279'
p736
sba(igraph
Edge
p737
(dp738
g7
I1
sg8
I00
sg9
I5
sg10
(lp739
g733
a(igraph
Vertex
p740
(dp741
g14
F0.5
sg8
I00
sg15
g16
sg17
F105.30927835051551
sg18
F-1.5
sg19
I6576729
sg20
S'15544.8898097'
p742
sg22
F0.73711340206185572
sbasg26
I00
sg27
I00
sg28
I6576282
sg20
S'15545.0881897'
p743
sba(igraph
Edge
p744
(dp745
g7
I1
sg8
I00
sg9
I5
sg10
(lp746
g740
a(igraph
Vertex
p747
(dp748
g14
F0.625
sg8
I00
sg15
g16
sg17
F105.30927835051551
sg18
F-92.375
sg19
I6576730
sg20
S'15544.8907297'
p749
sg22
F0.73711340206185572
sbasg26
I00
sg27
I00
sg28
I6576283
sg20
S'15545.0912806'
p750
sba(igraph
Edge
p751
(dp752
g7
I1
sg8
I00
sg9
I5
sg10
(lp753
g747
a(igraph
Vertex
p754
(dp755
g14
F0.74999999999999989
sg8
I01
sg15
I0
sg17
F105.30927835051551
sg18
F-183.24999999999989
sg19
I6576732
sg20
S'15544.8916575'
p756
sg22
F0.73711340206185572
sbasg26
I00
sg27
I00
sg28
I6576284
sg20
S'15545.0942955'
p757
sba(igraph
Edge
p758
(dp759
g7
I1
sg8
I00
sg9
I5
sg10
(lp760
g754
a(igraph
Vertex
p761
(dp762
g14
F0.87500000000000011
sg8
I00
sg15
g16
sg17
F105.30927835051551
sg18
F-274.12500000000011
sg19
I6576734
sg20
S'15544.8925903'
p763
sg22
F0.73711340206185572
sbasg26
I00
sg27
I00
sg28
I6576285
sg20
S'15545.0973867'
p764
sba(igraph
Edge
p765
(dp766
g7
I1
sg8
I00
sg9
I5
sg10
(lp767
g761
a(igraph
Vertex
p768
(dp769
g14
F1.0
sg8
I00
sg15
g16
sg17
F105.30927835051551
sg18
F-365.0
sg19
I6576735
sg20
S'15544.89357'
p770
sg22
F0.73711340206185572
sbasg26
I00
sg27
I00
sg28
I6576286
sg20
S'15545.1003597'
p771
sba(igraph
Edge
p772
(dp773
g7
I1
sg8
I00
sg9
I5
sg10
(lp774
g768
ag716
asg26
I00
sg27
I00
sg28
I6576287
sg20
S'15545.1033254'
p775
sba(igraph
Edge
p776
(dp777
g7
I1
sg8
I00
sg9
I5
sg10
(lp778
(igraph
Vertex
p779
(dp780
g14
F0.0
sg8
I00
sg15
g16
sg17
F142.70103092783501
sg18
F362.0
sg19
I6576736
sg20
S'15544.8945229'
p781
sg22
F0.8041237113402061
sba(igraph
Vertex
p782
(dp783
g14
F0.12500000000000006
sg8
I00
sg15
g16
sg17
F142.70103092783501
sg18
F271.12499999999994
sg19
I6576737
sg20
S'15544.8954867'
p784
sg22
F0.8041237113402061
sbasg26
I00
sg27
I00
sg28
I6576288
sg20
S'15545.1069393'
p785
sba(igraph
Edge
p786
(dp787
g7
I1
sg8
I00
sg9
I5
sg10
(lp788
g782
a(igraph
Vertex
p789
(dp790
g14
F0.24999999999999994
sg8
I00
sg15
g16
sg17
F142.70103092783501
sg18
F180.25000000000003
sg19
I6576738
sg20
S'15544.8964759'
p791
sg22
F0.8041237113402061
sbasg26
I00
sg27
I00
sg28
I6576289
sg20
S'15545.1100676'
p792
sba(igraph
Edge
p793
(dp794
g7
I1
sg8
I00
sg9
I5
sg10
(lp795
g789
a(igraph
Vertex
p796
(dp797
g14
F0.375
sg8
I00
sg15
g16
sg17
F142.70103092783501
sg18
F89.375
sg19
I6576739
sg20
S'15544.8974582'
p798
sg22
F0.8041237113402061
sbasg26
I00
sg27
I00
sg28
I6576290
sg20
S'15545.1131286'
p799
sba(igraph
Edge
p800
(dp801
g7
I1
sg8
I00
sg9
I5
sg10
(lp802
g796
a(igraph
Vertex
p803
(dp804
g14
F0.5
sg8
I00
sg15
g16
sg17
F142.70103092783501
sg18
F-1.5
sg19
I6576740
sg20
S'15544.8984438'
p805
sg22
F0.8041237113402061
sbasg26
I00
sg27
I00
sg28
I6576291
sg20
S'15545.1164444'
p806
sba(igraph
Edge
p807
(dp808
g7
I1
sg8
I00
sg9
I5
sg10
(lp809
g803
a(igraph
Vertex
p810
(dp811
g14
F0.625
sg8
I01
sg15
I0
sg17
F142.70103092783501
sg18
F-92.375
sg19
I6576742
sg20
S'15544.8995803'
p812
sg22
F0.8041237113402061
sbasg26
I00
sg27
I00
sg28
I6576292
sg20
S'15545.119528'
p813
sba(igraph
Edge
p814
(dp815
g7
I1
sg8
I00
sg9
I5
sg10
(lp816
g810
a(igraph
Vertex
p817
(dp818
g14
F0.74999999999999989
sg8
I00
sg15
g16
sg17
F142.70103092783501
sg18
F-183.24999999999989
sg19
I6576744
sg20
S'15544.9007039'
p819
sg22
F0.8041237113402061
sbasg26
I00
sg27
I00
sg28
I6576293
sg20
S'15545.1226212'
p820
sba(igraph
Edge
p821
(dp822
g7
I1
sg8
I00
sg9
I5
sg10
(lp823
g817
a(igraph
Vertex
p824
(dp825
g14
F0.87500000000000011
sg8
I00
sg15
g16
sg17
F142.70103092783501
sg18
F-274.12500000000011
sg19
I6576745
sg20
S'15544.9017249'
p826
sg22
F0.8041237113402061
sbasg26
I00
sg27
I00
sg28
I6576294
sg20
S'15545.1259135'
p827
sba(igraph
Edge
p828
(dp829
g7
I1
sg8
I00
sg9
I5
sg10
(lp830
g824
a(igraph
Vertex
p831
(dp832
g14
F1.0
sg8
I00
sg15
g16
sg17
F142.70103092783501
sg18
F-365.0
sg19
I6576746
sg20
S'15544.9027589'
p833
sg22
F0.8041237113402061
sbasg26
I00
sg27
I00
sg28
I6576295
sg20
S'15545.1291248'
p834
sba(igraph
Edge
p835
(dp836
g7
I1
sg8
I00
sg9
I5
sg10
(lp837
g831
ag779
asg26
I00
sg27
I00
sg28
I6576296
sg20
S'15545.1320137'
p838
sba(igraph
Edge
p839
(dp840
g7
I1
sg8
I00
sg9
I5
sg10
(lp841
(igraph
Vertex
p842
(dp843
g14
F0.0
sg8
I00
sg15
g16
sg17
F180.09278350515467
sg18
F362.0
sg19
I6576747
sg20
S'15544.9038199'
p844
sg22
F0.87113402061855671
sba(igraph
Vertex
p845
(dp846
g14
F0.12500000000000006
sg8
I00
sg15
g16
sg17
F180.09278350515467
sg18
F271.12499999999994
sg19
I6576748
sg20
S'15544.9049298'
p847
sg22
F0.87113402061855671
sbasg26
I00
sg27
I00
sg28
I6576297
sg20
S'15545.1349834'
p848
sba(igraph
Edge
p849
(dp850
g7
I1
sg8
I00
sg9
I5
sg10
(lp851
g845
a(igraph
Vertex
p852
(dp853
g14
F0.24999999999999994
sg8
I00
sg15
g16
sg17
F180.09278350515467
sg18
F180.25000000000003
sg19
I6576749
sg20
S'15544.9059894'
p854
sg22
F0.87113402061855671
sbasg26
I00
sg27
I00
sg28
I6576298
sg20
S'15545.1392459'
p855
sba(igraph
Edge
p856
(dp857
g7
I1
sg8
I00
sg9
I5
sg10
(lp858
g852
a(igraph
Vertex
p859
(dp860
g14
F0.375
sg8
I00
sg15
g16
sg17
F180.09278350515467
sg18
F89.375
sg19
I6576750
sg20
S'15544.9070549'
p861
sg22
F0.87113402061855671
sbasg26
I00
sg27
I00
sg28
I6576299
sg20
S'15545.1422485'
p862
sba(igraph
Edge
p863
(dp864
g7
I1
sg8
I00
sg9
I5
sg10
(lp865
g859
a(igraph
Vertex
p866
(dp867
g14
F0.5
sg8
I00
sg15
g16
sg17
F180.09278350515467
sg18
F-1.5
sg19
I6576751
sg20
S'15544.9081224'
p868
sg22
F0.87113402061855671
sbasg26
I00
sg27
I00
sg28
I6576300
sg20
S'15545.1451749'
p869
sba(igraph
Edge
p870
(dp871
g7
I1
sg8
I00
sg9
I5
sg10
(lp872
g866
a(igraph
Vertex
p873
(dp874
g14
F0.625
sg8
I00
sg15
g16
sg17
F180.09278350515467
sg18
F-92.375
sg19
I6576752
sg20
S'15544.9091943'
p875
sg22
F0.87113402061855671
sbasg26
I00
sg27
I00
sg28
I6576301
sg20
S'15545.1480473'
p876
sba(igraph
Edge
p877
(dp878
g7
I1
sg8
I00
sg9
I5
sg10
(lp879
g873
a(igraph
Vertex
p880
(dp881
g14
F0.74999999999999989
sg8
I00
sg15
g16
sg17
F180.09278350515467
sg18
F-183.24999999999989
sg19
I6576753
sg20
S'15544.9116896'
p882
sg22
F0.87113402061855671
sbasg26
I00
sg27
I00
sg28
I6576302
sg20
S'15545.1509326'
p883
sba(igraph
Edge
p884
(dp885
g7
I1
sg8
I00
sg9
I5
sg10
(lp886
g880
a(igraph
Vertex
p887
(dp888
g14
F0.87500000000000011
sg8
I01
sg15
I0
sg17
F180.09278350515467
sg18
F-274.12500000000011
sg19
I6576755
sg20
S'15544.9127881'
p889
sg22
F0.87113402061855671
sbasg26
I00
sg27
I00
sg28
I6576303
sg20
S'15545.1539746'
p890
sba(igraph
Edge
p891
(dp892
g7
I1
sg8
I00
sg9
I5
sg10
(lp893
g887
a(igraph
Vertex
p894
(dp895
g14
F1.0
sg8
I00
sg15
g16
sg17
F180.09278350515467
sg18
F-365.0
sg19
I6576757
sg20
S'15544.9138966'
p896
sg22
F0.87113402061855671
sbasg26
I00
sg27
I00
sg28
I6576304
sg20
S'15545.157106'
p897
sba(igraph
Edge
p898
(dp899
g7
I1
sg8
I00
sg9
I5
sg10
(lp900
g894
ag842
asg26
I00
sg27
I00
sg28
I6576305
sg20
S'15545.1602036'
p901
sba(igraph
Edge
p902
(dp903
g7
I1
sg8
I00
sg9
I5
sg10
(lp904
(igraph
Vertex
p905
(dp906
g14
F0.0
sg8
I00
sg15
g16
sg17
F217.48453608247428
sg18
F362.0
sg19
I6576758
sg20
S'15544.9150141'
p907
sg22
F0.93814432989690733
sba(igraph
Vertex
p908
(dp909
g14
F0.12500000000000006
sg8
I00
sg15
g16
sg17
F217.48453608247428
sg18
F271.12499999999994
sg19
I6576759
sg20
S'15544.9161419'
p910
sg22
F0.93814432989690733
sbasg26
I00
sg27
I00
sg28
I6576306
sg20
S'15545.16313'
p911
sba(igraph
Edge
p912
(dp913
g7
I1
sg8
I00
sg9
I5
sg10
(lp914
g908
a(igraph
Vertex
p915
(dp916
g14
F0.24999999999999994
sg8
I00
sg15
g16
sg17
F217.48453608247428
sg18
F180.25000000000003
sg19
I6576760
sg20
S'15544.9185715'
p917
sg22
F0.93814432989690733
sbasg26
I00
sg27
I00
sg28
I6576307
sg20
S'15545.1661144'
p918
sba(igraph
Edge
p919
(dp920
g7
I1
sg8
I00
sg9
I5
sg10
(lp921
g915
a(igraph
Vertex
p922
(dp923
g14
F0.375
sg8
I00
sg15
g16
sg17
F217.48453608247428
sg18
F89.375
sg19
I6576761
sg20
S'15544.919661'
p924
sg22
F0.93814432989690733
sbasg26
I00
sg27
I00
sg28
I6576308
sg20
S'15545.1690748'
p925
sba(igraph
Edge
p926
(dp927
g7
I1
sg8
I00
sg9
I5
sg10
(lp928
g922
a(igraph
Vertex
p929
(dp930
g14
F0.5
sg8
I00
sg15
g16
sg17
F217.48453608247428
sg18
F-1.5
sg19
I6576762
sg20
S'15544.9207835'
p931
sg22
F0.93814432989690733
sbasg26
I00
sg27
I00
sg28
I6576309
sg20
S'15545.1721319'
p932
sba(igraph
Edge
p933
(dp934
g7
I1
sg8
I00
sg9
I5
sg10
(lp935
g929
a(igraph
Vertex
p936
(dp937
g14
F0.625
sg8
I00
sg15
g16
sg17
F217.48453608247428
sg18
F-92.375
sg19
I6576763
sg20
S'15544.9226832'
p938
sg22
F0.93814432989690733
sbasg26
I00
sg27
I00
sg28
I6576310
sg20
S'15545.1750963'
p939
sba(igraph
Edge
p940
(dp941
g7
I1
sg8
I00
sg9
I5
sg10
(lp942
g936
a(igraph
Vertex
p943
(dp944
g14
F0.74999999999999989
sg8
I00
sg15
g16
sg17
F217.48453608247428
sg18
F-183.24999999999989
sg19
I6576764
sg20
S'15544.9244541'
p945
sg22
F0.93814432989690733
sbasg26
I00
sg27
I00
sg28
I6576311
sg20
S'15545.1784291'
p946
sba(igraph
Edge
p947
(dp948
g7
I1
sg8
I00
sg9
I5
sg10
(lp949
g943
a(igraph
Vertex
p950
(dp951
g14
F0.87500000000000011
sg8
I00
sg15
g16
sg17
F217.48453608247428
sg18
F-274.12500000000011
sg19
I6576765
sg20
S'15544.9262465'
p952
sg22
F0.93814432989690733
sbasg26
I00
sg27
I00
sg28
I6576312
sg20
S'15545.1815924'
p953
sba(igraph
Edge
p954
(dp955
g7
I1
sg8
I00
sg9
I5
sg10
(lp956
g950
a(igraph
Vertex
p957
(dp958
g14
F1.0
sg8
I00
sg15
g16
sg17
F217.48453608247428
sg18
F-365.0
sg19
I6576766
sg20
S'15544.9278947'
p959
sg22
F0.93814432989690733
sbasg26
I00
sg27
I00
sg28
I6576313
sg20
S'15545.1847293'
p960
sba(igraph
Edge
p961
(dp962
g7
I1
sg8
I00
sg9
I5
sg10
(lp963
g957
ag905
asg26
I00
sg27
I00
sg28
I6576314
sg20
S'15545.1893484'
p964
sba(igraph
Edge
p965
(dp966
g7
I1
sg8
I00
sg9
I5
sg10
(lp967
(igraph
Vertex
p968
(dp969
g14
F0.0
sg8
I00
sg15
g16
sg17
F254.87628865979377
sg18
F362.0
sg19
I6576767
sg20
S'15544.9304191'
p970
sg22
F1.0051546391752577
sba(igraph
Vertex
p971
(dp972
g14
F0.12500000000000006
sg8
I00
sg15
g16
sg17
F254.87628865979377
sg18
F271.12499999999994
sg19
I6576768
sg20
S'15544.9324051'
p973
sg22
F1.0051546391752577
sbasg26
I00
sg27
I00
sg28
I6576315
sg20
S'15545.1924747'
p974
sba(igraph
Edge
p975
(dp976
g7
I1
sg8
I00
sg9
I5
sg10
(lp977
g971
a(igraph
Vertex
p978
(dp979
g14
F0.24999999999999994
sg8
I00
sg15
g16
sg17
F254.87628865979377
sg18
F180.25000000000003
sg19
I6576769
sg20
S'15544.9341626'
p980
sg22
F1.0051546391752577
sbasg26
I00
sg27
I00
sg28
I6576316
sg20
S'15545.1956103'
p981
sba(igraph
Edge
p982
(dp983
g7
I1
sg8
I00
sg9
I5
sg10
(lp984
g978
a(igraph
Vertex
p985
(dp986
g14
F0.375
sg8
I00
sg15
g16
sg17
F254.87628865979377
sg18
F89.375
sg19
I6576770
sg20
S'15544.9357944'
p987
sg22
F1.0051546391752577
sbasg26
I00
sg27
I00
sg28
I6576317
sg20
S'15545.1987538'
p988
sba(igraph
Edge
p989
(dp990
g7
I1
sg8
I00
sg9
I5
sg10
(lp991
g985
a(igraph
Vertex
p992
(dp993
g14
F0.5
sg8
I00
sg15
g16
sg17
F254.87628865979377
sg18
F-1.5
sg19
I6576771
sg20
S'15544.937587'
p994
sg22
F1.0051546391752577
sbasg26
I00
sg27
I00
sg28
I6576318
sg20
S'15545.2024349'
p995
sba(igraph
Edge
p996
(dp997
g7
I1
sg8
I00
sg9
I5
sg10
(lp998
g992
a(igraph
Vertex
p999
(dp1000
g14
F0.625
sg8
I00
sg15
g16
sg17
F254.87628865979377
sg18
F-92.375
sg19
I6576772
sg20
S'15544.9394219'
p1001
sg22
F1.0051546391752577
sbasg26
I00
sg27
I00
sg28
I6576319
sg20
S'15545.206001'
p1002
sba(igraph
Edge
p1003
(dp1004
g7
I1
sg8
I00
sg9
I5
sg10
(lp1005
g999
a(igraph
Vertex
p1006
(dp1007
g14
F0.74999999999999989
sg8
I00
sg15
g16
sg17
F254.87628865979377
sg18
F-183.24999999999989
sg19
I6576773
sg20
S'15544.9413498'
p1008
sg22
F1.0051546391752577
sbasg26
I00
sg27
I00
sg28
I6576320
sg20
S'15545.2104491'
p1009
sba(igraph
Edge
p1010
(dp1011
g7
I1
sg8
I00
sg9
I5
sg10
(lp1012
g1006
a(igraph
Vertex
p1013
(dp1014
g14
F0.87500000000000011
sg8
I00
sg15
g16
sg17
F254.87628865979377
sg18
F-274.12500000000011
sg19
I6576774
sg20
S'15544.9433305'
p1015
sg22
F1.0051546391752577
sbasg26
I00
sg27
I00
sg28
I6576321
sg20
S'15545.2146952'
p1016
sba(igraph
Edge
p1017
(dp1018
g7
I1
sg8
I00
sg9
I5
sg10
(lp1019
g1013
a(igraph
Vertex
p1020
(dp1021
g14
F1.0
sg8
I01
sg15
I0
sg17
F254.87628865979377
sg18
F-365.0
sg19
I6576776
sg20
S'15544.9452213'
p1022
sg22
F1.0051546391752577
sbasg26
I00
sg27
I00
sg28
I6576322
sg20
S'15545.2194033'
p1023
sba(igraph
Edge
p1024
(dp1025
g7
I1
sg8
I00
sg9
I5
sg10
(lp1026
g1020
ag968
asg26
I00
sg27
I00
sg28
I6576323
sg20
S'15545.2232873'
p1027
sba(igraph
Edge
p1028
(dp1029
g7
I1
sg8
I00
sg9
I5
sg10
(lp1030
g12
ag86
asg26
I00
sg27
I00
sg28
I6576324
sg20
S'15545.2272697'
p1031
sba(igraph
Edge
p1032
(dp1033
g7
I1
sg8
I00
sg9
I5
sg10
(lp1034
g23
ag96
asg26
I00
sg27
I00
sg28
I6576325
sg20
S'15545.2314465'
p1035
sba(igraph
Edge
p1036
(dp1037
g7
I1
sg8
I00
sg9
I5
sg10
(lp1038
g33
ag96
asg26
I00
sg27
I00
sg28
I6576326
sg20
S'15545.2356797'
p1039
sba(igraph
Edge
p1040
(dp1041
g7
I1
sg8
I00
sg9
I5
sg10
(lp1042
g40
ag110
asg26
I00
sg27
I00
sg28
I6576327
sg20
S'15545.2400772'
p1043
sba(igraph
Edge
p1044
(dp1045
g7
I1
sg8
I00
sg9
I5
sg10
(lp1046
g47
ag110
asg26
I00
sg27
I00
sg28
I6576328
sg20
S'15545.2442632'
p1047
sba(igraph
Edge
p1048
(dp1049
g7
I1
sg8
I00
sg9
I5
sg10
(lp1050
g54
ag124
asg26
I00
sg27
I00
sg28
I6576329
sg20
S'15545.2483807'
p1051
sba(igraph
Edge
p1052
(dp1053
g7
I1
sg8
I00
sg9
I5
sg10
(lp1054
g61
ag124
asg26
I00
sg27
I00
sg28
I6576330
sg20
S'15545.252681'
p1055
sba(igraph
Edge
p1056
(dp1057
g7
I1
sg8
I00
sg9
I5
sg10
(lp1058
g68
ag138
asg26
I00
sg27
I00
sg28
I6576331
sg20
S'15545.2567452'
p1059
sba(igraph
Edge
p1060
(dp1061
g7
I1
sg8
I00
sg9
I5
sg10
(lp1062
g75
ag138
asg26
I00
sg27
I00
sg28
I6576332
sg20
S'15545.2604588'
p1063
sba(igraph
Edge
p1064
(dp1065
g7
I1
sg8
I00
sg9
I5
sg10
(lp1066
g12
ag89
asg26
I00
sg27
I00
sg28
I6576333
sg20
S'15545.264214'
p1067
sba(igraph
Edge
p1068
(dp1069
g7
I1
sg8
I00
sg9
I5
sg10
(lp1070
g23
ag89
asg26
I00
sg27
I00
sg28
I6576334
sg20
S'15545.2683081'
p1071
sba(igraph
Edge
p1072
(dp1073
g7
I1
sg8
I00
sg9
I5
sg10
(lp1074
g33
ag103
asg26
I00
sg27
I00
sg28
I6576335
sg20
S'15545.2726383'
p1075
sba(igraph
Edge
p1076
(dp1077
g7
I1
sg8
I00
sg9
I5
sg10
(lp1078
g40
ag103
asg26
I00
sg27
I00
sg28
I6576336
sg20
S'15545.2771129'
p1079
sba(igraph
Edge
p1080
(dp1081
g7
I1
sg8
I00
sg9
I5
sg10
(lp1082
g47
ag117
asg26
I00
sg27
I00
sg28
I6576337
sg20
S'15545.280877'
p1083
sba(igraph
Edge
p1084
(dp1085
g7
I1
sg8
I00
sg9
I5
sg10
(lp1086
g54
ag117
asg26
I00
sg27
I00
sg28
I6576338
sg20
S'15545.2850955'
p1087
sba(igraph
Edge
p1088
(dp1089
g7
I1
sg8
I00
sg9
I5
sg10
(lp1090
g61
ag131
asg26
I00
sg27
I00
sg28
I6576339
sg20
S'15545.2890113'
p1091
sba(igraph
Edge
p1092
(dp1093
g7
I1
sg8
I00
sg9
I5
sg10
(lp1094
g68
ag131
asg26
I00
sg27
I00
sg28
I6576340
sg20
S'15545.2929638'
p1095
sba(igraph
Edge
p1096
(dp1097
g7
I1
sg8
I00
sg9
I5
sg10
(lp1098
g75
ag86
asg26
I00
sg27
I00
sg28
I6576341
sg20
S'15545.2968221'
p1099
sba(igraph
Edge
p1100
(dp1101
g7
I1
sg8
I00
sg9
I5
sg10
(lp1102
g12
ag968
asg26
I00
sg27
I00
sg28
I6576342
sg20
S'15545.3008028'
p1103
sba(igraph
Edge
p1104
(dp1105
g7
I1
sg8
I00
sg9
I5
sg10
(lp1106
g23
ag968
asg26
I00
sg27
I00
sg28
I6576343
sg20
S'15545.3046882'
p1107
sba(igraph
Edge
p1108
(dp1109
g7
I1
sg8
I00
sg9
I5
sg10
(lp1110
g33
ag978
asg26
I00
sg27
I00
sg28
I6576344
sg20
S'15545.308654'
p1111
sba(igraph
Edge
p1112
(dp1113
g7
I1
sg8
I00
sg9
I5
sg10
(lp1114
g40
ag978
asg26
I00
sg27
I00
sg28
I6576345
sg20
S'15545.3123704'
p1115
sba(igraph
Edge
p1116
(dp1117
g7
I1
sg8
I00
sg9
I5
sg10
(lp1118
g47
ag992
asg26
I00
sg27
I00
sg28
I6576346
sg20
S'15545.316312'
p1119
sba(igraph
Edge
p1120
(dp1121
g7
I1
sg8
I00
sg9
I5
sg10
(lp1122
g54
ag992
asg26
I00
sg27
I00
sg28
I6576347
sg20
S'15545.3202499'
p1123
sba(igraph
Edge
p1124
(dp1125
g7
I1
sg8
I00
sg9
I5
sg10
(lp1126
g61
ag1006
asg26
I00
sg27
I00
sg28
I6576348
sg20
S'15545.3243418'
p1127
sba(igraph
Edge
p1128
(dp1129
g7
I1
sg8
I00
sg9
I5
sg10
(lp1130
g68
ag1006
asg26
I00
sg27
I00
sg28
I6576349
sg20
S'15545.3283149'
p1131
sba(igraph
Edge
p1132
(dp1133
g7
I1
sg8
I00
sg9
I5
sg10
(lp1134
g75
ag1020
asg26
I00
sg27
I00
sg28
I6576350
sg20
S'15545.3324786'
p1135
sba(igraph
Edge
p1136
(dp1137
g7
I1
sg8
I00
sg9
I5
sg10
(lp1138
g12
ag1020
asg26
I00
sg27
I00
sg28
I6576351
sg20
S'15545.3424583'
p1139
sba(igraph
Edge
p1140
(dp1141
g7
I1
sg8
I00
sg9
I5
sg10
(lp1142
g23
ag971
asg26
I00
sg27
I00
sg28
I6576352
sg20
S'15545.3466035'
p1143
sba(igraph
Edge
p1144
(dp1145
g7
I1
sg8
I00
sg9
I5
sg10
(lp1146
g33
ag971
asg26
I00
sg27
I00
sg28
I6576353
sg20
S'15545.3514016'
p1147
sba(igraph
Edge
p1148
(dp1149
g7
I1
sg8
I00
sg9
I5
sg10
(lp1150
g40
ag985
asg26
I00
sg27
I00
sg28
I6576354
sg20
S'15545.3554566'
p1151
sba(igraph
Edge
p1152
(dp1153
g7
I1
sg8
I00
sg9
I5
sg10
(lp1154
g47
ag985
asg26
I00
sg27
I00
sg28
I6576355
sg20
S'15545.3594602'
p1155
sba(igraph
Edge
p1156
(dp1157
g7
I1
sg8
I00
sg9
I5
sg10
(lp1158
g54
ag999
asg26
I00
sg27
I00
sg28
I6576356
sg20
S'15545.3646936'
p1159
sba(igraph
Edge
p1160
(dp1161
g7
I1
sg8
I00
sg9
I5
sg10
(lp1162
g61
ag999
asg26
I00
sg27
I00
sg28
I6576357
sg20
S'15545.3695579'
p1163
sba(igraph
Edge
p1164
(dp1165
g7
I1
sg8
I00
sg9
I5
sg10
(lp1166
g68
ag1013
asg26
I00
sg27
I00
sg28
I6576358
sg20
S'15545.3785381'
p1167
sba(igraph
Edge
p1168
(dp1169
g7
I1
sg8
I00
sg9
I5
sg10
(lp1170
g75
ag1013
asg26
I00
sg27
I00
sg28
I6576359
sg20
S'15545.3836197'
p1171
sba(igraph
Edge
p1172
(dp1173
g7
I1
sg8
I00
sg9
I5
sg10
(lp1174
g86
ag149
asg26
I00
sg27
I00
sg28
I6576360
sg20
S'15545.3883485'
p1175
sba(igraph
Edge
p1176
(dp1177
g7
I1
sg8
I00
sg9
I5
sg10
(lp1178
g89
ag159
asg26
I00
sg27
I00
sg28
I6576361
sg20
S'15545.3935869'
p1179
sba(igraph
Edge
p1180
(dp1181
g7
I1
sg8
I00
sg9
I5
sg10
(lp1182
g96
ag159
asg26
I00
sg27
I00
sg28
I6576362
sg20
S'15545.3984565'
p1183
sba(igraph
Edge
p1184
(dp1185
g7
I1
sg8
I00
sg9
I5
sg10
(lp1186
g103
ag173
asg26
I00
sg27
I00
sg28
I6576363
sg20
S'15545.4032596'
p1187
sba(igraph
Edge
p1188
(dp1189
g7
I1
sg8
I00
sg9
I5
sg10
(lp1190
g110
ag173
asg26
I00
sg27
I00
sg28
I6576364
sg20
S'15545.4082659'
p1191
sba(igraph
Edge
p1192
(dp1193
g7
I1
sg8
I00
sg9
I5
sg10
(lp1194
g117
ag187
asg26
I00
sg27
I00
sg28
I6576365
sg20
S'15545.4130785'
p1195
sba(igraph
Edge
p1196
(dp1197
g7
I1
sg8
I00
sg9
I5
sg10
(lp1198
g124
ag187
asg26
I00
sg27
I00
sg28
I6576366
sg20
S'15545.4182819'
p1199
sba(igraph
Edge
p1200
(dp1201
g7
I1
sg8
I00
sg9
I5
sg10
(lp1202
g131
ag201
asg26
I00
sg27
I00
sg28
I6576367
sg20
S'15545.4233334'
p1203
sba(igraph
Edge
p1204
(dp1205
g7
I1
sg8
I00
sg9
I5
sg10
(lp1206
g138
ag201
asg26
I00
sg27
I00
sg28
I6576368
sg20
S'15545.4282055'
p1207
sba(igraph
Edge
p1208
(dp1209
g7
I1
sg8
I00
sg9
I5
sg10
(lp1210
g86
ag152
asg26
I00
sg27
I00
sg28
I6576369
sg20
S'15545.4333663'
p1211
sba(igraph
Edge
p1212
(dp1213
g7
I1
sg8
I00
sg9
I5
sg10
(lp1214
g89
ag152
asg26
I00
sg27
I00
sg28
I6576370
sg20
S'15545.4376618'
p1215
sba(igraph
Edge
p1216
(dp1217
g7
I1
sg8
I00
sg9
I5
sg10
(lp1218
g96
ag166
asg26
I00
sg27
I00
sg28
I6576371
sg20
S'15545.4421612'
p1219
sba(igraph
Edge
p1220
(dp1221
g7
I1
sg8
I00
sg9
I5
sg10
(lp1222
g103
ag166
asg26
I00
sg27
I00
sg28
I6576372
sg20
S'15545.4464634'
p1223
sba(igraph
Edge
p1224
(dp1225
g7
I1
sg8
I00
sg9
I5
sg10
(lp1226
g110
ag180
asg26
I00
sg27
I00
sg28
I6576373
sg20
S'15545.4508294'
p1227
sba(igraph
Edge
p1228
(dp1229
g7
I1
sg8
I00
sg9
I5
sg10
(lp1230
g117
ag180
asg26
I00
sg27
I00
sg28
I6576374
sg20
S'15545.4551464'
p1231
sba(igraph
Edge
p1232
(dp1233
g7
I1
sg8
I00
sg9
I5
sg10
(lp1234
g124
ag194
asg26
I00
sg27
I00
sg28
I6576375
sg20
S'15545.4594816'
p1235
sba(igraph
Edge
p1236
(dp1237
g7
I1
sg8
I00
sg9
I5
sg10
(lp1238
g131
ag194
asg26
I00
sg27
I00
sg28
I6576376
sg20
S'15545.4638193'
p1239
sba(igraph
Edge
p1240
(dp1241
g7
I1
sg8
I00
sg9
I5
sg10
(lp1242
g138
ag149
asg26
I00
sg27
I00
sg28
I6576377
sg20
S'15545.4680983'
p1243
sba(igraph
Edge
p1244
(dp1245
g7
I1
sg8
I00
sg9
I5
sg10
(lp1246
g149
ag212
asg26
I00
sg27
I00
sg28
I6576378
sg20
S'15545.4724617'
p1247
sba(igraph
Edge
p1248
(dp1249
g7
I1
sg8
I00
sg9
I5
sg10
(lp1250
g152
ag222
asg26
I00
sg27
I00
sg28
I6576379
sg20
S'15545.476836'
p1251
sba(igraph
Edge
p1252
(dp1253
g7
I1
sg8
I00
sg9
I5
sg10
(lp1254
g159
ag222
asg26
I00
sg27
I00
sg28
I6576380
sg20
S'15545.4813494'
p1255
sba(igraph
Edge
p1256
(dp1257
g7
I1
sg8
I00
sg9
I5
sg10
(lp1258
g166
ag236
asg26
I00
sg27
I00
sg28
I6576381
sg20
S'15545.4866297'
p1259
sba(igraph
Edge
p1260
(dp1261
g7
I1
sg8
I00
sg9
I5
sg10
(lp1262
g173
ag236
asg26
I00
sg27
I00
sg28
I6576382
sg20
S'15545.4911149'
p1263
sba(igraph
Edge
p1264
(dp1265
g7
I1
sg8
I00
sg9
I5
sg10
(lp1266
g180
ag250
asg26
I00
sg27
I00
sg28
I6576383
sg20
S'15545.4958069'
p1267
sba(igraph
Edge
p1268
(dp1269
g7
I1
sg8
I00
sg9
I5
sg10
(lp1270
g187
ag250
asg26
I00
sg27
I00
sg28
I6576384
sg20
S'15545.5005893'
p1271
sba(igraph
Edge
p1272
(dp1273
g7
I1
sg8
I00
sg9
I5
sg10
(lp1274
g194
ag264
asg26
I00
sg27
I00
sg28
I6576385
sg20
S'15545.5051111'
p1275
sba(igraph
Edge
p1276
(dp1277
g7
I1
sg8
I00
sg9
I5
sg10
(lp1278
g201
ag264
asg26
I00
sg27
I00
sg28
I6576386
sg20
S'15545.5097265'
p1279
sba(igraph
Edge
p1280
(dp1281
g7
I1
sg8
I00
sg9
I5
sg10
(lp1282
g149
ag215
asg26
I00
sg27
I00
sg28
I6576387
sg20
S'15545.5144752'
p1283
sba(igraph
Edge
p1284
(dp1285
g7
I1
sg8
I00
sg9
I5
sg10
(lp1286
g152
ag215
asg26
I00
sg27
I00
sg28
I6576388
sg20
S'15545.5190581'
p1287
sba(igraph
Edge
p1288
(dp1289
g7
I1
sg8
I00
sg9
I5
sg10
(lp1290
g159
ag229
asg26
I00
sg27
I00
sg28
I6576389
sg20
S'15545.52369'
p1291
sba(igraph
Edge
p1292
(dp1293
g7
I1
sg8
I00
sg9
I5
sg10
(lp1294
g166
ag229
asg26
I00
sg27
I00
sg28
I6576390
sg20
S'15545.5283705'
p1295
sba(igraph
Edge
p1296
(dp1297
g7
I1
sg8
I00
sg9
I5
sg10
(lp1298
g173
ag243
asg26
I00
sg27
I00
sg28
I6576391
sg20
S'15545.5331365'
p1299
sba(igraph
Edge
p1300
(dp1301
g7
I1
sg8
I00
sg9
I5
sg10
(lp1302
g180
ag243
asg26
I00
sg27
I00
sg28
I6576392
sg20
S'15545.5379256'
p1303
sba(igraph
Edge
p1304
(dp1305
g7
I1
sg8
I00
sg9
I5
sg10
(lp1306
g187
ag257
asg26
I00
sg27
I00
sg28
I6576393
sg20
S'15545.5425673'
p1307
sba(igraph
Edge
p1308
(dp1309
g7
I1
sg8
I00
sg9
I5
sg10
(lp1310
g194
ag257
asg26
I00
sg27
I00
sg28
I6576394
sg20
S'15545.5472947'
p1311
sba(igraph
Edge
p1312
(dp1313
g7
I1
sg8
I00
sg9
I5
sg10
(lp1314
g201
ag212
asg26
I00
sg27
I00
sg28
I6576395
sg20
S'15545.5520305'
p1315
sba(igraph
Edge
p1316
(dp1317
g7
I1
sg8
I00
sg9
I5
sg10
(lp1318
g212
ag275
asg26
I00
sg27
I00
sg28
I6576396
sg20
S'15545.5567973'
p1319
sba(igraph
Edge
p1320
(dp1321
g7
I1
sg8
I00
sg9
I5
sg10
(lp1322
g215
ag285
asg26
I00
sg27
I00
sg28
I6576397
sg20
S'15545.5615289'
p1323
sba(igraph
Edge
p1324
(dp1325
g7
I1
sg8
I00
sg9
I5
sg10
(lp1326
g222
ag285
asg26
I00
sg27
I00
sg28
I6576398
sg20
S'15545.5662857'
p1327
sba(igraph
Edge
p1328
(dp1329
g7
I1
sg8
I00
sg9
I5
sg10
(lp1330
g229
ag299
asg26
I00
sg27
I00
sg28
I6576399
sg20
S'15545.5711315'
p1331
sba(igraph
Edge
p1332
(dp1333
g7
I1
sg8
I00
sg9
I5
sg10
(lp1334
g236
ag299
asg26
I00
sg27
I00
sg28
I6576400
sg20
S'15545.5760115'
p1335
sba(igraph
Edge
p1336
(dp1337
g7
I1
sg8
I00
sg9
I5
sg10
(lp1338
g243
ag313
asg26
I00
sg27
I00
sg28
I6576401
sg20
S'15545.5808565'
p1339
sba(igraph
Edge
p1340
(dp1341
g7
I1
sg8
I00
sg9
I5
sg10
(lp1342
g250
ag313
asg26
I00
sg27
I00
sg28
I6576402
sg20
S'15545.5856864'
p1343
sba(igraph
Edge
p1344
(dp1345
g7
I1
sg8
I00
sg9
I5
sg10
(lp1346
g257
ag327
asg26
I00
sg27
I00
sg28
I6576403
sg20
S'15545.5905558'
p1347
sba(igraph
Edge
p1348
(dp1349
g7
I1
sg8
I00
sg9
I5
sg10
(lp1350
g264
ag327
asg26
I00
sg27
I00
sg28
I6576404
sg20
S'15545.5954282'
p1351
sba(igraph
Edge
p1352
(dp1353
g7
I1
sg8
I00
sg9
I5
sg10
(lp1354
g212
ag278
asg26
I00
sg27
I00
sg28
I6576405
sg20
S'15545.6004014'
p1355
sba(igraph
Edge
p1356
(dp1357
g7
I1
sg8
I00
sg9
I5
sg10
(lp1358
g215
ag278
asg26
I00
sg27
I00
sg28
I6576406
sg20
S'15545.6053476'
p1359
sba(igraph
Edge
p1360
(dp1361
g7
I1
sg8
I00
sg9
I5
sg10
(lp1362
g222
ag292
asg26
I00
sg27
I00
sg28
I6576407
sg20
S'15545.6107424'
p1363
sba(igraph
Edge
p1364
(dp1365
g7
I1
sg8
I00
sg9
I5
sg10
(lp1366
g229
ag292
asg26
I00
sg27
I00
sg28
I6576408
sg20
S'15545.6157528'
p1367
sba(igraph
Edge
p1368
(dp1369
g7
I1
sg8
I00
sg9
I5
sg10
(lp1370
g236
ag306
asg26
I00
sg27
I00
sg28
I6576409
sg20
S'15545.6212577'
p1371
sba(igraph
Edge
p1372
(dp1373
g7
I1
sg8
I00
sg9
I5
sg10
(lp1374
g243
ag306
asg26
I00
sg27
I00
sg28
I6576410
sg20
S'15545.6263148'
p1375
sba(igraph
Edge
p1376
(dp1377
g7
I1
sg8
I00
sg9
I5
sg10
(lp1378
g250
ag320
asg26
I00
sg27
I00
sg28
I6576411
sg20
S'15545.6314462'
p1379
sba(igraph
Edge
p1380
(dp1381
g7
I1
sg8
I00
sg9
I5
sg10
(lp1382
g257
ag320
asg26
I00
sg27
I00
sg28
I6576412
sg20
S'15545.6366256'
p1383
sba(igraph
Edge
p1384
(dp1385
g7
I1
sg8
I00
sg9
I5
sg10
(lp1386
g264
ag275
asg26
I00
sg27
I00
sg28
I6576413
sg20
S'15545.6416966'
p1387
sba(igraph
Edge
p1388
(dp1389
g7
I1
sg8
I00
sg9
I5
sg10
(lp1390
g275
ag338
asg26
I00
sg27
I00
sg28
I6576414
sg20
S'15545.6467973'
p1391
sba(igraph
Edge
p1392
(dp1393
g7
I1
sg8
I00
sg9
I5
sg10
(lp1394
g278
ag348
asg26
I00
sg27
I00
sg28
I6576415
sg20
S'15545.6519513'
p1395
sba(igraph
Edge
p1396
(dp1397
g7
I1
sg8
I00
sg9
I5
sg10
(lp1398
g285
ag348
asg26
I00
sg27
I00
sg28
I6576416
sg20
S'15545.6572182'
p1399
sba(igraph
Edge
p1400
(dp1401
g7
I1
sg8
I00
sg9
I5
sg10
(lp1402
g292
ag362
asg26
I00
sg27
I00
sg28
I6576417
sg20
S'15545.6623889'
p1403
sba(igraph
Edge
p1404
(dp1405
g7
I1
sg8
I00
sg9
I5
sg10
(lp1406
g299
ag362
asg26
I00
sg27
I00
sg28
I6576418
sg20
S'15545.6675957'
p1407
sba(igraph
Edge
p1408
(dp1409
g7
I1
sg8
I00
sg9
I5
sg10
(lp1410
g306
ag376
asg26
I00
sg27
I00
sg28
I6576419
sg20
S'15545.6730344'
p1411
sba(igraph
Edge
p1412
(dp1413
g7
I1
sg8
I00
sg9
I5
sg10
(lp1414
g313
ag376
asg26
I00
sg27
I00
sg28
I6576420
sg20
S'15545.6783256'
p1415
sba(igraph
Edge
p1416
(dp1417
g7
I1
sg8
I00
sg9
I5
sg10
(lp1418
g320
ag390
asg26
I00
sg27
I00
sg28
I6576421
sg20
S'15545.6837693'
p1419
sba(igraph
Edge
p1420
(dp1421
g7
I1
sg8
I00
sg9
I5
sg10
(lp1422
g327
ag390
asg26
I00
sg27
I00
sg28
I6576422
sg20
S'15545.6891314'
p1423
sba(igraph
Edge
p1424
(dp1425
g7
I1
sg8
I00
sg9
I5
sg10
(lp1426
g275
ag341
asg26
I00
sg27
I00
sg28
I6576423
sg20
S'15545.6945226'
p1427
sba(igraph
Edge
p1428
(dp1429
g7
I1
sg8
I00
sg9
I5
sg10
(lp1430
g278
ag341
asg26
I00
sg27
I00
sg28
I6576424
sg20
S'15545.6999906'
p1431
sba(igraph
Edge
p1432
(dp1433
g7
I1
sg8
I00
sg9
I5
sg10
(lp1434
g285
ag355
asg26
I00
sg27
I00
sg28
I6576425
sg20
S'15545.7053927'
p1435
sba(igraph
Edge
p1436
(dp1437
g7
I1
sg8
I00
sg9
I5
sg10
(lp1438
g292
ag355
asg26
I00
sg27
I00
sg28
I6576426
sg20
S'15545.7107822'
p1439
sba(igraph
Edge
p1440
(dp1441
g7
I1
sg8
I00
sg9
I5
sg10
(lp1442
g299
ag369
asg26
I00
sg27
I00
sg28
I6576427
sg20
S'15545.7163667'
p1443
sba(igraph
Edge
p1444
(dp1445
g7
I1
sg8
I00
sg9
I5
sg10
(lp1446
g306
ag369
asg26
I00
sg27
I00
sg28
I6576428
sg20
S'15545.7218797'
p1447
sba(igraph
Edge
p1448
(dp1449
g7
I1
sg8
I00
sg9
I5
sg10
(lp1450
g313
ag383
asg26
I00
sg27
I00
sg28
I6576429
sg20
S'15545.7273891'
p1451
sba(igraph
Edge
p1452
(dp1453
g7
I1
sg8
I00
sg9
I5
sg10
(lp1454
g320
ag383
asg26
I00
sg27
I00
sg28
I6576430
sg20
S'15545.7329809'
p1455
sba(igraph
Edge
p1456
(dp1457
g7
I1
sg8
I00
sg9
I5
sg10
(lp1458
g327
ag338
asg26
I00
sg27
I00
sg28
I6576431
sg20
S'15545.7385187'
p1459
sba(igraph
Edge
p1460
(dp1461
g7
I1
sg8
I00
sg9
I5
sg10
(lp1462
g338
ag401
asg26
I00
sg27
I00
sg28
I6576432
sg20
S'15545.7440454'
p1463
sba(igraph
Edge
p1464
(dp1465
g7
I1
sg8
I00
sg9
I5
sg10
(lp1466
g341
ag411
asg26
I00
sg27
I00
sg28
I6576433
sg20
S'15545.7496126'
p1467
sba(igraph
Edge
p1468
(dp1469
g7
I1
sg8
I00
sg9
I5
sg10
(lp1470
g348
ag411
asg26
I00
sg27
I00
sg28
I6576434
sg20
S'15545.7552527'
p1471
sba(igraph
Edge
p1472
(dp1473
g7
I1
sg8
I00
sg9
I5
sg10
(lp1474
g355
ag425
asg26
I00
sg27
I00
sg28
I6576435
sg20
S'15545.7609598'
p1475
sba(igraph
Edge
p1476
(dp1477
g7
I1
sg8
I00
sg9
I5
sg10
(lp1478
g362
ag425
asg26
I00
sg27
I00
sg28
I6576436
sg20
S'15545.7667514'
p1479
sba(igraph
Edge
p1480
(dp1481
g7
I1
sg8
I00
sg9
I5
sg10
(lp1482
g369
ag439
asg26
I00
sg27
I00
sg28
I6576437
sg20
S'15545.7725577'
p1483
sba(igraph
Edge
p1484
(dp1485
g7
I1
sg8
I00
sg9
I5
sg10
(lp1486
g376
ag439
asg26
I00
sg27
I00
sg28
I6576438
sg20
S'15545.7782584'
p1487
sba(igraph
Edge
p1488
(dp1489
g7
I1
sg8
I00
sg9
I5
sg10
(lp1490
g383
ag453
asg26
I00
sg27
I00
sg28
I6576439
sg20
S'15545.7840248'
p1491
sba(igraph
Edge
p1492
(dp1493
g7
I1
sg8
I00
sg9
I5
sg10
(lp1494
g390
ag453
asg26
I00
sg27
I00
sg28
I6576440
sg20
S'15545.7898113'
p1495
sba(igraph
Edge
p1496
(dp1497
g7
I1
sg8
I00
sg9
I5
sg10
(lp1498
g338
ag404
asg26
I00
sg27
I00
sg28
I6576441
sg20
S'15545.7955858'
p1499
sba(igraph
Edge
p1500
(dp1501
g7
I1
sg8
I00
sg9
I5
sg10
(lp1502
g341
ag404
asg26
I00
sg27
I00
sg28
I6576442
sg20
S'15545.8015427'
p1503
sba(igraph
Edge
p1504
(dp1505
g7
I1
sg8
I00
sg9
I5
sg10
(lp1506
g348
ag418
asg26
I00
sg27
I00
sg28
I6576443
sg20
S'15545.8073831'
p1507
sba(igraph
Edge
p1508
(dp1509
g7
I1
sg8
I00
sg9
I5
sg10
(lp1510
g355
ag418
asg26
I00
sg27
I00
sg28
I6576444
sg20
S'15545.8132469'
p1511
sba(igraph
Edge
p1512
(dp1513
g7
I1
sg8
I00
sg9
I5
sg10
(lp1514
g362
ag432
asg26
I00
sg27
I00
sg28
I6576445
sg20
S'15545.8191516'
p1515
sba(igraph
Edge
p1516
(dp1517
g7
I1
sg8
I00
sg9
I5
sg10
(lp1518
g369
ag432
asg26
I00
sg27
I00
sg28
I6576446
sg20
S'15545.8250697'
p1519
sba(igraph
Edge
p1520
(dp1521
g7
I1
sg8
I00
sg9
I5
sg10
(lp1522
g376
ag446
asg26
I00
sg27
I00
sg28
I6576447
sg20
S'15545.8309495'
p1523
sba(igraph
Edge
p1524
(dp1525
g7
I1
sg8
I00
sg9
I5
sg10
(lp1526
g383
ag446
asg26
I00
sg27
I00
sg28
I6576448
sg20
S'15545.8369449'
p1527
sba(igraph
Edge
p1528
(dp1529
g7
I1
sg8
I00
sg9
I5
sg10
(lp1530
g390
ag401
asg26
I00
sg27
I00
sg28
I6576449
sg20
S'15545.8429077'
p1531
sba(igraph
Edge
p1532
(dp1533
g7
I1
sg8
I00
sg9
I5
sg10
(lp1534
g401
ag464
asg26
I00
sg27
I00
sg28
I6576450
sg20
S'15545.8490643'
p1535
sba(igraph
Edge
p1536
(dp1537
g7
I1
sg8
I00
sg9
I5
sg10
(lp1538
g404
ag474
asg26
I00
sg27
I00
sg28
I6576451
sg20
S'15545.8551456'
p1539
sba(igraph
Edge
p1540
(dp1541
g7
I1
sg8
I00
sg9
I5
sg10
(lp1542
g411
ag474
asg26
I00
sg27
I00
sg28
I6576452
sg20
S'15545.8610932'
p1543
sba(igraph
Edge
p1544
(dp1545
g7
I1
sg8
I00
sg9
I5
sg10
(lp1546
g418
ag488
asg26
I00
sg27
I00
sg28
I6576453
sg20
S'15545.8670504'
p1547
sba(igraph
Edge
p1548
(dp1549
g7
I1
sg8
I00
sg9
I5
sg10
(lp1550
g425
ag488
asg26
I00
sg27
I00
sg28
I6576454
sg20
S'15545.8730763'
p1551
sba(igraph
Edge
p1552
(dp1553
g7
I1
sg8
I00
sg9
I5
sg10
(lp1554
g432
ag502
asg26
I00
sg27
I00
sg28
I6576455
sg20
S'15545.8791436'
p1555
sba(igraph
Edge
p1556
(dp1557
g7
I1
sg8
I00
sg9
I5
sg10
(lp1558
g439
ag502
asg26
I00
sg27
I00
sg28
I6576456
sg20
S'15545.8852854'
p1559
sba(igraph
Edge
p1560
(dp1561
g7
I1
sg8
I00
sg9
I5
sg10
(lp1562
g446
ag516
asg26
I00
sg27
I00
sg28
I6576457
sg20
S'15545.8914924'
p1563
sba(igraph
Edge
p1564
(dp1565
g7
I1
sg8
I00
sg9
I5
sg10
(lp1566
g453
ag516
asg26
I00
sg27
I00
sg28
I6576458
sg20
S'15545.8975987'
p1567
sba(igraph
Edge
p1568
(dp1569
g7
I1
sg8
I00
sg9
I5
sg10
(lp1570
g401
ag467
asg26
I00
sg27
I00
sg28
I6576459
sg20
S'15545.9038774'
p1571
sba(igraph
Edge
p1572
(dp1573
g7
I1
sg8
I00
sg9
I5
sg10
(lp1574
g404
ag467
asg26
I00
sg27
I00
sg28
I6576460
sg20
S'15545.9101229'
p1575
sba(igraph
Edge
p1576
(dp1577
g7
I1
sg8
I00
sg9
I5
sg10
(lp1578
g411
ag481
asg26
I00
sg27
I00
sg28
I6576461
sg20
S'15545.9163519'
p1579
sba(igraph
Edge
p1580
(dp1581
g7
I1
sg8
I00
sg9
I5
sg10
(lp1582
g418
ag481
asg26
I00
sg27
I00
sg28
I6576462
sg20
S'15545.9226036'
p1583
sba(igraph
Edge
p1584
(dp1585
g7
I1
sg8
I00
sg9
I5
sg10
(lp1586
g425
ag495
asg26
I00
sg27
I00
sg28
I6576463
sg20
S'15545.9290005'
p1587
sba(igraph
Edge
p1588
(dp1589
g7
I1
sg8
I00
sg9
I5
sg10
(lp1590
g432
ag495
asg26
I00
sg27
I00
sg28
I6576464
sg20
S'15545.9353982'
p1591
sba(igraph
Edge
p1592
(dp1593
g7
I1
sg8
I00
sg9
I5
sg10
(lp1594
g439
ag509
asg26
I00
sg27
I00
sg28
I6576465
sg20
S'15545.941825'
p1595
sba(igraph
Edge
p1596
(dp1597
g7
I1
sg8
I00
sg9
I5
sg10
(lp1598
g446
ag509
asg26
I00
sg27
I00
sg28
I6576466
sg20
S'15545.9483219'
p1599
sba(igraph
Edge
p1600
(dp1601
g7
I1
sg8
I00
sg9
I5
sg10
(lp1602
g453
ag464
asg26
I00
sg27
I00
sg28
I6576467
sg20
S'15545.9549189'
p1603
sba(igraph
Edge
p1604
(dp1605
g7
I1
sg8
I00
sg9
I5
sg10
(lp1606
g464
ag527
asg26
I00
sg27
I00
sg28
I6576468
sg20
S'15545.9614725'
p1607
sba(igraph
Edge
p1608
(dp1609
g7
I1
sg8
I00
sg9
I5
sg10
(lp1610
g467
ag537
asg26
I00
sg27
I00
sg28
I6576469
sg20
S'15545.9678683'
p1611
sba(igraph
Edge
p1612
(dp1613
g7
I1
sg8
I00
sg9
I5
sg10
(lp1614
g474
ag537
asg26
I00
sg27
I00
sg28
I6576470
sg20
S'15545.9742747'
p1615
sba(igraph
Edge
p1616
(dp1617
g7
I1
sg8
I00
sg9
I5
sg10
(lp1618
g481
ag551
asg26
I00
sg27
I00
sg28
I6576471
sg20
S'15545.9806308'
p1619
sba(igraph
Edge
p1620
(dp1621
g7
I1
sg8
I00
sg9
I5
sg10
(lp1622
g488
ag551
asg26
I00
sg27
I00
sg28
I6576472
sg20
S'15545.9870232'
p1623
sba(igraph
Edge
p1624
(dp1625
g7
I1
sg8
I00
sg9
I5
sg10
(lp1626
g495
ag565
asg26
I00
sg27
I00
sg28
I6576473
sg20
S'15545.9933556'
p1627
sba(igraph
Edge
p1628
(dp1629
g7
I1
sg8
I00
sg9
I5
sg10
(lp1630
g502
ag565
asg26
I00
sg27
I00
sg28
I6576474
sg20
S'15546.0000894'
p1631
sba(igraph
Edge
p1632
(dp1633
g7
I1
sg8
I00
sg9
I5
sg10
(lp1634
g509
ag579
asg26
I00
sg27
I00
sg28
I6576475
sg20
S'15546.0067009'
p1635
sba(igraph
Edge
p1636
(dp1637
g7
I1
sg8
I00
sg9
I5
sg10
(lp1638
g516
ag579
asg26
I00
sg27
I00
sg28
I6576476
sg20
S'15546.0132475'
p1639
sba(igraph
Edge
p1640
(dp1641
g7
I1
sg8
I00
sg9
I5
sg10
(lp1642
g464
ag530
asg26
I00
sg27
I00
sg28
I6576477
sg20
S'15546.0199872'
p1643
sba(igraph
Edge
p1644
(dp1645
g7
I1
sg8
I00
sg9
I5
sg10
(lp1646
g467
ag530
asg26
I00
sg27
I00
sg28
I6576478
sg20
S'15546.0265953'
p1647
sba(igraph
Edge
p1648
(dp1649
g7
I1
sg8
I00
sg9
I5
sg10
(lp1650
g474
ag544
asg26
I00
sg27
I00
sg28
I6576479
sg20
S'15546.0334361'
p1651
sba(igraph
Edge
p1652
(dp1653
g7
I1
sg8
I00
sg9
I5
sg10
(lp1654
g481
ag544
asg26
I00
sg27
I00
sg28
I6576480
sg20
S'15546.0402797'
p1655
sba(igraph
Edge
p1656
(dp1657
g7
I1
sg8
I00
sg9
I5
sg10
(lp1658
g488
ag558
asg26
I00
sg27
I00
sg28
I6576481
sg20
S'15546.0470722'
p1659
sba(igraph
Edge
p1660
(dp1661
g7
I1
sg8
I00
sg9
I5
sg10
(lp1662
g495
ag558
asg26
I00
sg27
I00
sg28
I6576482
sg20
S'15546.0537747'
p1663
sba(igraph
Edge
p1664
(dp1665
g7
I1
sg8
I00
sg9
I5
sg10
(lp1666
g502
ag572
asg26
I00
sg27
I00
sg28
I6576483
sg20
S'15546.0606563'
p1667
sba(igraph
Edge
p1668
(dp1669
g7
I1
sg8
I00
sg9
I5
sg10
(lp1670
g509
ag572
asg26
I00
sg27
I00
sg28
I6576484
sg20
S'15546.0674717'
p1671
sba(igraph
Edge
p1672
(dp1673
g7
I1
sg8
I00
sg9
I5
sg10
(lp1674
g516
ag527
asg26
I00
sg27
I00
sg28
I6576485
sg20
S'15546.0742552'
p1675
sba(igraph
Edge
p1676
(dp1677
g7
I1
sg8
I00
sg9
I5
sg10
(lp1678
g527
ag590
asg26
I00
sg27
I00
sg28
I6576486
sg20
S'15546.0810268'
p1679
sba(igraph
Edge
p1680
(dp1681
g7
I1
sg8
I00
sg9
I5
sg10
(lp1682
g530
ag600
asg26
I00
sg27
I00
sg28
I6576487
sg20
S'15546.0878022'
p1683
sba(igraph
Edge
p1684
(dp1685
g7
I1
sg8
I00
sg9
I5
sg10
(lp1686
g537
ag600
asg26
I00
sg27
I00
sg28
I6576488
sg20
S'15546.0945715'
p1687
sba(igraph
Edge
p1688
(dp1689
g7
I1
sg8
I00
sg9
I5
sg10
(lp1690
g544
ag614
asg26
I00
sg27
I00
sg28
I6576489
sg20
S'15546.1014341'
p1691
sba(igraph
Edge
p1692
(dp1693
g7
I1
sg8
I00
sg9
I5
sg10
(lp1694
g551
ag614
asg26
I00
sg27
I00
sg28
I6576490
sg20
S'15546.1082587'
p1695
sba(igraph
Edge
p1696
(dp1697
g7
I1
sg8
I00
sg9
I5
sg10
(lp1698
g558
ag628
asg26
I00
sg27
I00
sg28
I6576491
sg20
S'15546.1152082'
p1699
sba(igraph
Edge
p1700
(dp1701
g7
I1
sg8
I00
sg9
I5
sg10
(lp1702
g565
ag628
asg26
I00
sg27
I00
sg28
I6576492
sg20
S'15546.1221784'
p1703
sba(igraph
Edge
p1704
(dp1705
g7
I1
sg8
I00
sg9
I5
sg10
(lp1706
g572
ag642
asg26
I00
sg27
I00
sg28
I6576493
sg20
S'15546.1291687'
p1707
sba(igraph
Edge
p1708
(dp1709
g7
I1
sg8
I00
sg9
I5
sg10
(lp1710
g579
ag642
asg26
I00
sg27
I00
sg28
I6576494
sg20
S'15546.1362344'
p1711
sba(igraph
Edge
p1712
(dp1713
g7
I1
sg8
I00
sg9
I5
sg10
(lp1714
g527
ag593
asg26
I00
sg27
I00
sg28
I6576495
sg20
S'15546.1435722'
p1715
sba(igraph
Edge
p1716
(dp1717
g7
I1
sg8
I00
sg9
I5
sg10
(lp1718
g530
ag593
asg26
I00
sg27
I00
sg28
I6576496
sg20
S'15546.1506395'
p1719
sba(igraph
Edge
p1720
(dp1721
g7
I1
sg8
I00
sg9
I5
sg10
(lp1722
g537
ag607
asg26
I00
sg27
I00
sg28
I6576497
sg20
S'15546.1575636'
p1723
sba(igraph
Edge
p1724
(dp1725
g7
I1
sg8
I00
sg9
I5
sg10
(lp1726
g544
ag607
asg26
I00
sg27
I00
sg28
I6576498
sg20
S'15546.1647198'
p1727
sba(igraph
Edge
p1728
(dp1729
g7
I1
sg8
I00
sg9
I5
sg10
(lp1730
g551
ag621
asg26
I00
sg27
I00
sg28
I6576499
sg20
S'15546.1720258'
p1731
sba(igraph
Edge
p1732
(dp1733
g7
I1
sg8
I00
sg9
I5
sg10
(lp1734
g558
ag621
asg26
I00
sg27
I00
sg28
I6576500
sg20
S'15546.1810311'
p1735
sba(igraph
Edge
p1736
(dp1737
g7
I1
sg8
I00
sg9
I5
sg10
(lp1738
g565
ag635
asg26
I00
sg27
I00
sg28
I6576501
sg20
S'15546.1899549'
p1739
sba(igraph
Edge
p1740
(dp1741
g7
I1
sg8
I00
sg9
I5
sg10
(lp1742
g572
ag635
asg26
I00
sg27
I00
sg28
I6576502
sg20
S'15546.1976139'
p1743
sba(igraph
Edge
p1744
(dp1745
g7
I1
sg8
I00
sg9
I5
sg10
(lp1746
g579
ag590
asg26
I00
sg27
I00
sg28
I6576503
sg20
S'15546.205389'
p1747
sba(igraph
Edge
p1748
(dp1749
g7
I1
sg8
I00
sg9
I5
sg10
(lp1750
g590
ag653
asg26
I00
sg27
I00
sg28
I6576504
sg20
S'15546.2129405'
p1751
sba(igraph
Edge
p1752
(dp1753
g7
I1
sg8
I00
sg9
I5
sg10
(lp1754
g593
ag663
asg26
I00
sg27
I00
sg28
I6576505
sg20
S'15546.220663'
p1755
sba(igraph
Edge
p1756
(dp1757
g7
I1
sg8
I00
sg9
I5
sg10
(lp1758
g600
ag663
asg26
I00
sg27
I00
sg28
I6576506
sg20
S'15546.2284229'
p1759
sba(igraph
Edge
p1760
(dp1761
g7
I1
sg8
I00
sg9
I5
sg10
(lp1762
g607
ag677
asg26
I00
sg27
I00
sg28
I6576507
sg20
S'15546.2361686'
p1763
sba(igraph
Edge
p1764
(dp1765
g7
I1
sg8
I00
sg9
I5
sg10
(lp1766
g614
ag677
asg26
I00
sg27
I00
sg28
I6576508
sg20
S'15546.2437606'
p1767
sba(igraph
Edge
p1768
(dp1769
g7
I1
sg8
I00
sg9
I5
sg10
(lp1770
g621
ag691
asg26
I00
sg27
I00
sg28
I6576509
sg20
S'15546.252063'
p1771
sba(igraph
Edge
p1772
(dp1773
g7
I1
sg8
I00
sg9
I5
sg10
(lp1774
g628
ag691
asg26
I00
sg27
I00
sg28
I6576510
sg20
S'15546.2598154'
p1775
sba(igraph
Edge
p1776
(dp1777
g7
I1
sg8
I00
sg9
I5
sg10
(lp1778
g635
ag705
asg26
I00
sg27
I00
sg28
I6576511
sg20
S'15546.2677184'
p1779
sba(igraph
Edge
p1780
(dp1781
g7
I1
sg8
I00
sg9
I5
sg10
(lp1782
g642
ag705
asg26
I00
sg27
I00
sg28
I6576512
sg20
S'15546.2758133'
p1783
sba(igraph
Edge
p1784
(dp1785
g7
I1
sg8
I00
sg9
I5
sg10
(lp1786
g590
ag656
asg26
I00
sg27
I00
sg28
I6576513
sg20
S'15546.2853148'
p1787
sba(igraph
Edge
p1788
(dp1789
g7
I1
sg8
I00
sg9
I5
sg10
(lp1790
g593
ag656
asg26
I00
sg27
I00
sg28
I6576514
sg20
S'15546.2935904'
p1791
sba(igraph
Edge
p1792
(dp1793
g7
I1
sg8
I00
sg9
I5
sg10
(lp1794
g600
ag670
asg26
I00
sg27
I00
sg28
I6576515
sg20
S'15546.3018853'
p1795
sba(igraph
Edge
p1796
(dp1797
g7
I1
sg8
I00
sg9
I5
sg10
(lp1798
g607
ag670
asg26
I00
sg27
I00
sg28
I6576516
sg20
S'15546.3100922'
p1799
sba(igraph
Edge
p1800
(dp1801
g7
I1
sg8
I00
sg9
I5
sg10
(lp1802
g614
ag684
asg26
I00
sg27
I00
sg28
I6576517
sg20
S'15546.3183092'
p1803
sba(igraph
Edge
p1804
(dp1805
g7
I1
sg8
I00
sg9
I5
sg10
(lp1806
g621
ag684
asg26
I00
sg27
I00
sg28
I6576518
sg20
S'15546.3268753'
p1807
sba(igraph
Edge
p1808
(dp1809
g7
I1
sg8
I00
sg9
I5
sg10
(lp1810
g628
ag698
asg26
I00
sg27
I00
sg28
I6576519
sg20
S'15546.3349523'
p1811
sba(igraph
Edge
p1812
(dp1813
g7
I1
sg8
I00
sg9
I5
sg10
(lp1814
g635
ag698
asg26
I00
sg27
I00
sg28
I6576520
sg20
S'15546.3429704'
p1815
sba(igraph
Edge
p1816
(dp1817
g7
I1
sg8
I00
sg9
I5
sg10
(lp1818
g642
ag653
asg26
I00
sg27
I00
sg28
I6576521
sg20
S'15546.3511742'
p1819
sba(igraph
Edge
p1820
(dp1821
g7
I1
sg8
I00
sg9
I5
sg10
(lp1822
g653
ag716
asg26
I00
sg27
I00
sg28
I6576522
sg20
S'15546.3592658'
p1823
sba(igraph
Edge
p1824
(dp1825
g7
I1
sg8
I00
sg9
I5
sg10
(lp1826
g656
ag726
asg26
I00
sg27
I00
sg28
I6576523
sg20
S'15546.367017'
p1827
sba(igraph
Edge
p1828
(dp1829
g7
I1
sg8
I00
sg9
I5
sg10
(lp1830
g663
ag726
asg26
I00
sg27
I00
sg28
I6576524
sg20
S'15546.3750647'
p1831
sba(igraph
Edge
p1832
(dp1833
g7
I1
sg8
I00
sg9
I5
sg10
(lp1834
g670
ag740
asg26
I00
sg27
I00
sg28
I6576525
sg20
S'15546.383018'
p1835
sba(igraph
Edge
p1836
(dp1837
g7
I1
sg8
I00
sg9
I5
sg10
(lp1838
g677
ag740
asg26
I00
sg27
I00
sg28
I6576526
sg20
S'15546.391671'
p1839
sba(igraph
Edge
p1840
(dp1841
g7
I1
sg8
I00
sg9
I5
sg10
(lp1842
g684
ag754
asg26
I00
sg27
I00
sg28
I6576527
sg20
S'15546.4007157'
p1843
sba(igraph
Edge
p1844
(dp1845
g7
I1
sg8
I00
sg9
I5
sg10
(lp1846
g691
ag754
asg26
I00
sg27
I00
sg28
I6576528
sg20
S'15546.4087891'
p1847
sba(igraph
Edge
p1848
(dp1849
g7
I1
sg8
I00
sg9
I5
sg10
(lp1850
g698
ag768
asg26
I00
sg27
I00
sg28
I6576529
sg20
S'15546.4172136'
p1851
sba(igraph
Edge
p1852
(dp1853
g7
I1
sg8
I00
sg9
I5
sg10
(lp1854
g705
ag768
asg26
I00
sg27
I00
sg28
I6576530
sg20
S'15546.4253457'
p1855
sba(igraph
Edge
p1856
(dp1857
g7
I1
sg8
I00
sg9
I5
sg10
(lp1858
g653
ag719
asg26
I00
sg27
I00
sg28
I6576531
sg20
S'15546.433366'
p1859
sba(igraph
Edge
p1860
(dp1861
g7
I1
sg8
I00
sg9
I5
sg10
(lp1862
g656
ag719
asg26
I00
sg27
I00
sg28
I6576532
sg20
S'15546.4413896'
p1863
sba(igraph
Edge
p1864
(dp1865
g7
I1
sg8
I00
sg9
I5
sg10
(lp1866
g663
ag733
asg26
I00
sg27
I00
sg28
I6576533
sg20
S'15546.4495208'
p1867
sba(igraph
Edge
p1868
(dp1869
g7
I1
sg8
I00
sg9
I5
sg10
(lp1870
g670
ag733
asg26
I00
sg27
I00
sg28
I6576534
sg20
S'15546.4578831'
p1871
sba(igraph
Edge
p1872
(dp1873
g7
I1
sg8
I00
sg9
I5
sg10
(lp1874
g677
ag747
asg26
I00
sg27
I00
sg28
I6576535
sg20
S'15546.466511'
p1875
sba(igraph
Edge
p1876
(dp1877
g7
I1
sg8
I00
sg9
I5
sg10
(lp1878
g684
ag747
asg26
I00
sg27
I00
sg28
I6576536
sg20
S'15546.4747126'
p1879
sba(igraph
Edge
p1880
(dp1881
g7
I1
sg8
I00
sg9
I5
sg10
(lp1882
g691
ag761
asg26
I00
sg27
I00
sg28
I6576537
sg20
S'15546.484366'
p1883
sba(igraph
Edge
p1884
(dp1885
g7
I1
sg8
I00
sg9
I5
sg10
(lp1886
g698
ag761
asg26
I00
sg27
I00
sg28
I6576538
sg20
S'15546.4924506'
p1887
sba(igraph
Edge
p1888
(dp1889
g7
I1
sg8
I00
sg9
I5
sg10
(lp1890
g705
ag716
asg26
I00
sg27
I00
sg28
I6576539
sg20
S'15546.5002658'
p1891
sba(igraph
Edge
p1892
(dp1893
g7
I1
sg8
I00
sg9
I5
sg10
(lp1894
g716
ag779
asg26
I00
sg27
I00
sg28
I6576540
sg20
S'15546.508473'
p1895
sba(igraph
Edge
p1896
(dp1897
g7
I1
sg8
I00
sg9
I5
sg10
(lp1898
g719
ag789
asg26
I00
sg27
I00
sg28
I6576541
sg20
S'15546.5164939'
p1899
sba(igraph
Edge
p1900
(dp1901
g7
I1
sg8
I00
sg9
I5
sg10
(lp1902
g726
ag789
asg26
I00
sg27
I00
sg28
I6576542
sg20
S'15546.5243625'
p1903
sba(igraph
Edge
p1904
(dp1905
g7
I1
sg8
I00
sg9
I5
sg10
(lp1906
g733
ag803
asg26
I00
sg27
I00
sg28
I6576543
sg20
S'15546.5322811'
p1907
sba(igraph
Edge
p1908
(dp1909
g7
I1
sg8
I00
sg9
I5
sg10
(lp1910
g740
ag803
asg26
I00
sg27
I00
sg28
I6576544
sg20
S'15546.5403924'
p1911
sba(igraph
Edge
p1912
(dp1913
g7
I1
sg8
I00
sg9
I5
sg10
(lp1914
g747
ag817
asg26
I00
sg27
I00
sg28
I6576545
sg20
S'15546.5483566'
p1915
sba(igraph
Edge
p1916
(dp1917
g7
I1
sg8
I00
sg9
I5
sg10
(lp1918
g754
ag817
asg26
I00
sg27
I00
sg28
I6576546
sg20
S'15546.556414'
p1919
sba(igraph
Edge
p1920
(dp1921
g7
I1
sg8
I00
sg9
I5
sg10
(lp1922
g761
ag831
asg26
I00
sg27
I00
sg28
I6576547
sg20
S'15546.5645572'
p1923
sba(igraph
Edge
p1924
(dp1925
g7
I1
sg8
I00
sg9
I5
sg10
(lp1926
g768
ag831
asg26
I00
sg27
I00
sg28
I6576548
sg20
S'15546.5726485'
p1927
sba(igraph
Edge
p1928
(dp1929
g7
I1
sg8
I00
sg9
I5
sg10
(lp1930
g716
ag782
asg26
I00
sg27
I00
sg28
I6576549
sg20
S'15546.5808973'
p1931
sba(igraph
Edge
p1932
(dp1933
g7
I1
sg8
I00
sg9
I5
sg10
(lp1934
g719
ag782
asg26
I00
sg27
I00
sg28
I6576550
sg20
S'15546.5889816'
p1935
sba(igraph
Edge
p1936
(dp1937
g7
I1
sg8
I00
sg9
I5
sg10
(lp1938
g726
ag796
asg26
I00
sg27
I00
sg28
I6576551
sg20
S'15546.5971016'
p1939
sba(igraph
Edge
p1940
(dp1941
g7
I1
sg8
I00
sg9
I5
sg10
(lp1942
g733
ag796
asg26
I00
sg27
I00
sg28
I6576552
sg20
S'15546.6053322'
p1943
sba(igraph
Edge
p1944
(dp1945
g7
I1
sg8
I00
sg9
I5
sg10
(lp1946
g740
ag810
asg26
I00
sg27
I00
sg28
I6576553
sg20
S'15546.6175411'
p1947
sba(igraph
Edge
p1948
(dp1949
g7
I1
sg8
I00
sg9
I5
sg10
(lp1950
g747
ag810
asg26
I00
sg27
I00
sg28
I6576554
sg20
S'15546.6265288'
p1951
sba(igraph
Edge
p1952
(dp1953
g7
I1
sg8
I00
sg9
I5
sg10
(lp1954
g754
ag824
asg26
I00
sg27
I00
sg28
I6576555
sg20
S'15546.6348617'
p1955
sba(igraph
Edge
p1956
(dp1957
g7
I1
sg8
I00
sg9
I5
sg10
(lp1958
g761
ag824
asg26
I00
sg27
I00
sg28
I6576556
sg20
S'15546.6431083'
p1959
sba(igraph
Edge
p1960
(dp1961
g7
I1
sg8
I00
sg9
I5
sg10
(lp1962
g768
ag779
asg26
I00
sg27
I00
sg28
I6576557
sg20
S'15546.6513842'
p1963
sba(igraph
Edge
p1964
(dp1965
g7
I1
sg8
I00
sg9
I5
sg10
(lp1966
g779
ag842
asg26
I00
sg27
I00
sg28
I6576558
sg20
S'15546.6598073'
p1967
sba(igraph
Edge
p1968
(dp1969
g7
I1
sg8
I00
sg9
I5
sg10
(lp1970
g782
ag852
asg26
I00
sg27
I00
sg28
I6576559
sg20
S'15546.6683165'
p1971
sba(igraph
Edge
p1972
(dp1973
g7
I1
sg8
I00
sg9
I5
sg10
(lp1974
g789
ag852
asg26
I00
sg27
I00
sg28
I6576560
sg20
S'15546.6771774'
p1975
sba(igraph
Edge
p1976
(dp1977
g7
I1
sg8
I00
sg9
I5
sg10
(lp1978
g796
ag866
asg26
I00
sg27
I00
sg28
I6576561
sg20
S'15546.6856782'
p1979
sba(igraph
Edge
p1980
(dp1981
g7
I1
sg8
I00
sg9
I5
sg10
(lp1982
g803
ag866
asg26
I00
sg27
I00
sg28
I6576562
sg20
S'15546.6941455'
p1983
sba(igraph
Edge
p1984
(dp1985
g7
I1
sg8
I00
sg9
I5
sg10
(lp1986
g810
ag880
asg26
I00
sg27
I00
sg28
I6576563
sg20
S'15546.7026102'
p1987
sba(igraph
Edge
p1988
(dp1989
g7
I1
sg8
I00
sg9
I5
sg10
(lp1990
g817
ag880
asg26
I00
sg27
I00
sg28
I6576564
sg20
S'15546.7110258'
p1991
sba(igraph
Edge
p1992
(dp1993
g7
I1
sg8
I00
sg9
I5
sg10
(lp1994
g824
ag894
asg26
I00
sg27
I00
sg28
I6576565
sg20
S'15546.7196451'
p1995
sba(igraph
Edge
p1996
(dp1997
g7
I1
sg8
I00
sg9
I5
sg10
(lp1998
g831
ag894
asg26
I00
sg27
I00
sg28
I6576566
sg20
S'15546.7281328'
p1999
sba(igraph
Edge
p2000
(dp2001
g7
I1
sg8
I00
sg9
I5
sg10
(lp2002
g779
ag845
asg26
I00
sg27
I00
sg28
I6576567
sg20
S'15546.7366174'
p2003
sba(igraph
Edge
p2004
(dp2005
g7
I1
sg8
I00
sg9
I5
sg10
(lp2006
g782
ag845
asg26
I00
sg27
I00
sg28
I6576568
sg20
S'15546.745119'
p2007
sba(igraph
Edge
p2008
(dp2009
g7
I1
sg8
I00
sg9
I5
sg10
(lp2010
g789
ag859
asg26
I00
sg27
I00
sg28
I6576569
sg20
S'15546.7537045'
p2011
sba(igraph
Edge
p2012
(dp2013
g7
I1
sg8
I00
sg9
I5
sg10
(lp2014
g796
ag859
asg26
I00
sg27
I00
sg28
I6576570
sg20
S'15546.7623729'
p2015
sba(igraph
Edge
p2016
(dp2017
g7
I1
sg8
I00
sg9
I5
sg10
(lp2018
g803
ag873
asg26
I00
sg27
I00
sg28
I6576571
sg20
S'15546.7709203'
p2019
sba(igraph
Edge
p2020
(dp2021
g7
I1
sg8
I00
sg9
I5
sg10
(lp2022
g810
ag873
asg26
I00
sg27
I00
sg28
I6576572
sg20
S'15546.7796047'
p2023
sba(igraph
Edge
p2024
(dp2025
g7
I1
sg8
I00
sg9
I5
sg10
(lp2026
g817
ag887
asg26
I00
sg27
I00
sg28
I6576573
sg20
S'15546.7883144'
p2027
sba(igraph
Edge
p2028
(dp2029
g7
I1
sg8
I00
sg9
I5
sg10
(lp2030
g824
ag887
asg26
I00
sg27
I00
sg28
I6576574
sg20
S'15546.7969594'
p2031
sba(igraph
Edge
p2032
(dp2033
g7
I1
sg8
I00
sg9
I5
sg10
(lp2034
g831
ag842
asg26
I00
sg27
I00
sg28
I6576575
sg20
S'15546.8056974'
p2035
sba(igraph
Edge
p2036
(dp2037
g7
I1
sg8
I00
sg9
I5
sg10
(lp2038
g842
ag905
asg26
I00
sg27
I00
sg28
I6576576
sg20
S'15546.814311'
p2039
sba(igraph
Edge
p2040
(dp2041
g7
I1
sg8
I00
sg9
I5
sg10
(lp2042
g845
ag915
asg26
I00
sg27
I00
sg28
I6576577
sg20
S'15546.8231778'
p2043
sba(igraph
Edge
p2044
(dp2045
g7
I1
sg8
I00
sg9
I5
sg10
(lp2046
g852
ag915
asg26
I00
sg27
I00
sg28
I6576578
sg20
S'15546.832008'
p2047
sba(igraph
Edge
p2048
(dp2049
g7
I1
sg8
I00
sg9
I5
sg10
(lp2050
g859
ag929
asg26
I00
sg27
I00
sg28
I6576579
sg20
S'15546.8414698'
p2051
sba(igraph
Edge
p2052
(dp2053
g7
I1
sg8
I00
sg9
I5
sg10
(lp2054
g866
ag929
asg26
I00
sg27
I00
sg28
I6576580
sg20
S'15546.8503631'
p2055
sba(igraph
Edge
p2056
(dp2057
g7
I1
sg8
I00
sg9
I5
sg10
(lp2058
g873
ag943
asg26
I00
sg27
I00
sg28
I6576581
sg20
S'15546.8594483'
p2059
sba(igraph
Edge
p2060
(dp2061
g7
I1
sg8
I00
sg9
I5
sg10
(lp2062
g880
ag943
asg26
I00
sg27
I00
sg28
I6576582
sg20
S'15546.8683349'
p2063
sba(igraph
Edge
p2064
(dp2065
g7
I1
sg8
I00
sg9
I5
sg10
(lp2066
g887
ag957
asg26
I00
sg27
I00
sg28
I6576583
sg20
S'15546.8774841'
p2067
sba(igraph
Edge
p2068
(dp2069
g7
I1
sg8
I00
sg9
I5
sg10
(lp2070
g894
ag957
asg26
I00
sg27
I00
sg28
I6576584
sg20
S'15546.8866839'
p2071
sba(igraph
Edge
p2072
(dp2073
g7
I1
sg8
I00
sg9
I5
sg10
(lp2074
g842
ag908
asg26
I00
sg27
I00
sg28
I6576585
sg20
S'15546.8959968'
p2075
sba(igraph
Edge
p2076
(dp2077
g7
I1
sg8
I00
sg9
I5
sg10
(lp2078
g845
ag908
asg26
I00
sg27
I00
sg28
I6576586
sg20
S'15546.9049103'
p2079
sba(igraph
Edge
p2080
(dp2081
g7
I1
sg8
I00
sg9
I5
sg10
(lp2082
g852
ag922
asg26
I00
sg27
I00
sg28
I6576587
sg20
S'15546.9139312'
p2083
sba(igraph
Edge
p2084
(dp2085
g7
I1
sg8
I00
sg9
I5
sg10
(lp2086
g859
ag922
asg26
I00
sg27
I00
sg28
I6576588
sg20
S'15546.9229232'
p2087
sba(igraph
Edge
p2088
(dp2089
g7
I1
sg8
I00
sg9
I5
sg10
(lp2090
g866
ag936
asg26
I00
sg27
I00
sg28
I6576589
sg20
S'15546.9319497'
p2091
sba(igraph
Edge
p2092
(dp2093
g7
I1
sg8
I00
sg9
I5
sg10
(lp2094
g873
ag936
asg26
I00
sg27
I00
sg28
I6576590
sg20
S'15546.9410866'
p2095
sba(igraph
Edge
p2096
(dp2097
g7
I1
sg8
I00
sg9
I5
sg10
(lp2098
g880
ag950
asg26
I00
sg27
I00
sg28
I6576591
sg20
S'15546.9501847'
p2099
sba(igraph
Edge
p2100
(dp2101
g7
I1
sg8
I00
sg9
I5
sg10
(lp2102
g887
ag950
asg26
I00
sg27
I00
sg28
I6576592
sg20
S'15546.9592113'
p2103
sba(igraph
Edge
p2104
(dp2105
g7
I1
sg8
I00
sg9
I5
sg10
(lp2106
g894
ag905
asg26
I00
sg27
I00
sg28
I6576593
sg20
S'15546.9683627'
p2107
sba(igraph
Edge
p2108
(dp2109
g7
I1
sg8
I00
sg9
I5
sg10
(lp2110
g905
ag968
asg26
I00
sg27
I00
sg28
I6576594
sg20
S'15546.9774253'
p2111
sba(igraph
Edge
p2112
(dp2113
g7
I1
sg8
I00
sg9
I5
sg10
(lp2114
g908
ag978
asg26
I00
sg27
I00
sg28
I6576595
sg20
S'15546.9866774'
p2115
sba(igraph
Edge
p2116
(dp2117
g7
I1
sg8
I00
sg9
I5
sg10
(lp2118
g915
ag978
asg26
I00
sg27
I00
sg28
I6576596
sg20
S'15546.9957668'
p2119
sba(igraph
Edge
p2120
(dp2121
g7
I1
sg8
I00
sg9
I5
sg10
(lp2122
g922
ag992
asg26
I00
sg27
I00
sg28
I6576597
sg20
S'15547.0050621'
p2123
sba(igraph
Edge
p2124
(dp2125
g7
I1
sg8
I00
sg9
I5
sg10
(lp2126
g929
ag992
asg26
I00
sg27
I00
sg28
I6576598
sg20
S'15547.0143451'
p2127
sba(igraph
Edge
p2128
(dp2129
g7
I1
sg8
I00
sg9
I5
sg10
(lp2130
g936
ag1006
asg26
I00
sg27
I00
sg28
I6576599
sg20
S'15547.023584'
p2131
sba(igraph
Edge
p2132
(dp2133
g7
I1
sg8
I00
sg9
I5
sg10
(lp2134
g943
ag1006
asg26
I00
sg27
I00
sg28
I6576600
sg20
S'15547.0329142'
p2135
sba(igraph
Edge
p2136
(dp2137
g7
I1
sg8
I00
sg9
I5
sg10
(lp2138
g950
ag1020
asg26
I00
sg27
I00
sg28
I6576601
sg20
S'15547.0422607'
p2139
sba(igraph
Edge
p2140
(dp2141
g7
I1
sg8
I00
sg9
I5
sg10
(lp2142
g957
ag1020
asg26
I00
sg27
I00
sg28
I6576602
sg20
S'15547.0515557'
p2143
sba(igraph
Edge
p2144
(dp2145
g7
I1
sg8
I00
sg9
I5
sg10
(lp2146
g905
ag971
asg26
I00
sg27
I00
sg28
I6576603
sg20
S'15547.0612575'
p2147
sba(igraph
Edge
p2148
(dp2149
g7
I1
sg8
I00
sg9
I5
sg10
(lp2150
g908
ag971
asg26
I00
sg27
I00
sg28
I6576604
sg20
S'15547.0706587'
p2151
sba(igraph
Edge
p2152
(dp2153
g7
I1
sg8
I00
sg9
I5
sg10
(lp2154
g915
ag985
asg26
I00
sg27
I00
sg28
I6576605
sg20
S'15547.0800554'
p2155
sba(igraph
Edge
p2156
(dp2157
g7
I1
sg8
I00
sg9
I5
sg10
(lp2158
g922
ag985
asg26
I00
sg27
I00
sg28
I6576606
sg20
S'15547.0895117'
p2159
sba(igraph
Edge
p2160
(dp2161
g7
I1
sg8
I00
sg9
I5
sg10
(lp2162
g929
ag999
asg26
I00
sg27
I00
sg28
I6576607
sg20
S'15547.0990081'
p2163
sba(igraph
Edge
p2164
(dp2165
g7
I1
sg8
I00
sg9
I5
sg10
(lp2166
g936
ag999
asg26
I00
sg27
I00
sg28
I6576608
sg20
S'15547.1084085'
p2167
sba(igraph
Edge
p2168
(dp2169
g7
I1
sg8
I00
sg9
I5
sg10
(lp2170
g943
ag1013
asg26
I00
sg27
I00
sg28
I6576609
sg20
S'15547.1178812'
p2171
sba(igraph
Edge
p2172
(dp2173
g7
I1
sg8
I00
sg9
I5
sg10
(lp2174
g950
ag1013
asg26
I00
sg27
I00
sg28
I6576610
sg20
S'15547.1273028'
p2175
sba(igraph
Edge
p2176
(dp2177
g7
I1
sg8
I00
sg9
I5
sg10
(lp2178
g957
ag968
asg26
I00
sg27
I00
sg28
I6576611
sg20
S'15547.1367327'
p2179
sbasS'vertices'
p2180
(lp2181
g12
ag23
ag33
ag40
ag47
ag54
ag61
ag68
ag75
ag86
ag89
ag96
ag103
ag110
ag117
ag124
ag131
ag138
ag149
ag152
ag159
ag166
ag173
ag180
ag187
ag194
ag201
ag212
ag215
ag222
ag229
ag236
ag243
ag250
ag257
ag264
ag275
ag278
ag285
ag292
ag299
ag306
ag313
ag320
ag327
ag338
ag341
ag348
ag355
ag362
ag369
ag376
ag383
ag390
ag401
ag404
ag411
ag418
ag425
ag432
ag439
ag446
ag453
ag464
ag467
ag474
ag481
ag488
ag495
ag502
ag509
ag516
ag527
ag530
ag537
ag544
ag551
ag558
ag565
ag572
ag579
ag590
ag593
ag600
ag607
ag614
ag621
ag628
ag635
ag642
ag653
ag656
ag663
ag670
ag677
ag684
ag691
ag698
ag705
ag716
ag719
ag726
ag733
ag740
ag747
ag754
ag761
ag768
ag779
ag782
ag789
ag796
ag803
ag810
ag817
ag824
ag831
ag842
ag845
ag852
ag859
ag866
ag873
ag880
ag887
ag894
ag905
ag908
ag915
ag922
ag929
ag936
ag943
ag950
ag957
ag968
ag971
ag978
ag985
ag992
ag999
ag1006
ag1013
ag1020
asS'tags'
p2182
(lp2183
sb.