(igraph
Graph
p0
(dp1
S'labelingConstraints'
p2
I-1
sS'edges'
p3
(lp4
(igraph
Edge
p5
(dp6
S'direction'
p7
I1
sS'selected'
p8
I00
sS'height'
p9
I5
sS'vs'
p10
(lp11
(igraph
Vertex
p12
(dp13
S'xnorm'
p14
F0.5625
sg8
I01
sS'label'
p15
I0
sS'y'
p16
F-310.0
sS'x'
p17
F-62.625
sS'circle'
p18
I3453344
sS'id'
p19
S'10025.3282068'
p20
sS'ynorm'
p21
F0.0
sba(igraph
Vertex
p22
(dp23
g14
F0.625
sg8
I00
sg15
S'NULL'
p24
sg16
F-310.0
sg17
F-104.25
sg18
I3453346
sg19
S'10025.3282928'
p25
sg21
F0.0
sbasS'wrap'
p26
I00
sS'curved'
p27
I00
sS'line'
p28
I3452959
sg19
S'10025.7051019'
p29
sba(igraph
Edge
p30
(dp31
g7
I1
sg8
I00
sg9
I5
sg10
(lp32
g22
a(igraph
Vertex
p33
(dp34
g14
F0.6875
sg8
I00
sg15
g24
sg16
F-310.0
sg17
F-145.875
sg18
I3453347
sg19
S'10025.3283864'
p35
sg21
F0.0
sbasg26
I00
sg27
I00
sg28
I3452960
sg19
S'10025.70535'
p36
sba(igraph
Edge
p37
(dp38
g7
I1
sg8
I00
sg9
I5
sg10
(lp39
g33
a(igraph
Vertex
p40
(dp41
g14
F0.75
sg8
I00
sg15
g24
sg16
F-310.0
sg17
F-187.5
sg18
I3453348
sg19
S'10025.3284906'
p42
sg21
F0.0
sbasg26
I00
sg27
I00
sg28
I3452961
sg19
S'10025.7056201'
p43
sba(igraph
Edge
p44
(dp45
g7
I1
sg8
I00
sg9
I5
sg10
(lp46
g40
a(igraph
Vertex
p47
(dp48
g14
F0.8125
sg8
I00
sg15
g24
sg16
F-310.0
sg17
F-229.125
sg18
I3453349
sg19
S'10025.3286013'
p49
sg21
F0.0
sbasg26
I00
sg27
I00
sg28
I3452962
sg19
S'10025.7059109'
p50
sba(igraph
Edge
p51
(dp52
g7
I1
sg8
I00
sg9
I5
sg10
(lp53
g47
a(igraph
Vertex
p54
(dp55
g14
F0.875
sg8
I00
sg15
g24
sg16
F-310.0
sg17
F-270.75
sg18
I3453350
sg19
S'10025.3287203'
p56
sg21
F0.0
sbasg26
I00
sg27
I00
sg28
I3452963
sg19
S'10025.7062241'
p57
sba(igraph
Edge
p58
(dp59
g7
I1
sg8
I00
sg9
I5
sg10
(lp60
g54
a(igraph
Vertex
p61
(dp62
g14
F0.9375
sg8
I00
sg15
g24
sg16
F-310.0
sg17
F-312.375
sg18
I3453351
sg19
S'10025.3288488'
p63
sg21
F0.0
sbasg26
I00
sg27
I00
sg28
I3452964
sg19
S'10025.7065571'
p64
sba(igraph
Edge
p65
(dp66
g7
I1
sg8
I00
sg9
I5
sg10
(lp67
g61
a(igraph
Vertex
p68
(dp69
g14
F1.0
sg8
I00
sg15
g24
sg16
F-310.0
sg17
F-354.0
sg18
I3453352
sg19
S'10025.328984'
p70
sg21
F0.0
sbasg26
I00
sg27
I00
sg28
I3452965
sg19
S'10025.7069097'
p71
sba(igraph
Edge
p72
(dp73
g7
I1
sg8
I00
sg9
I5
sg10
(lp74
(igraph
Vertex
p75
(dp76
g14
F0.5625
sg8
I01
sg15
I0
sg16
F-271.0
sg17
F-62.625
sg18
I3453354
sg19
S'10025.3308113'
p77
sg21
F0.066666666666666652
sba(igraph
Vertex
p78
(dp79
g14
F0.625
sg8
I00
sg15
g24
sg16
F-271.0
sg17
F-104.25
sg18
I3453356
sg19
S'10025.3310365'
p80
sg21
F0.066666666666666652
sbasg26
I00
sg27
I00
sg28
I3452966
sg19
S'10025.7124411'
p81
sba(igraph
Edge
p82
(dp83
g7
I1
sg8
I00
sg9
I5
sg10
(lp84
g78
a(igraph
Vertex
p85
(dp86
g14
F0.6875
sg8
I00
sg15
g24
sg16
F-271.0
sg17
F-145.875
sg18
I3453357
sg19
S'10025.3312751'
p87
sg21
F0.066666666666666652
sbasg26
I00
sg27
I00
sg28
I3452967
sg19
S'10025.7130546'
p88
sba(igraph
Edge
p89
(dp90
g7
I1
sg8
I00
sg9
I5
sg10
(lp91
g85
a(igraph
Vertex
p92
(dp93
g14
F0.75
sg8
I00
sg15
g24
sg16
F-271.0
sg17
F-187.5
sg18
I3453358
sg19
S'10025.3315195'
p94
sg21
F0.066666666666666652
sbasg26
I00
sg27
I00
sg28
I3452968
sg19
S'10025.7136913'
p95
sba(igraph
Edge
p96
(dp97
g7
I1
sg8
I00
sg9
I5
sg10
(lp98
g92
a(igraph
Vertex
p99
(dp100
g14
F0.8125
sg8
I00
sg15
g24
sg16
F-271.0
sg17
F-229.125
sg18
I3453359
sg19
S'10025.3317746'
p101
sg21
F0.066666666666666652
sbasg26
I00
sg27
I00
sg28
I3452969
sg19
S'10025.714343'
p102
sba(igraph
Edge
p103
(dp104
g7
I1
sg8
I00
sg9
I5
sg10
(lp105
g99
a(igraph
Vertex
p106
(dp107
g14
F0.875
sg8
I00
sg15
g24
sg16
F-271.0
sg17
F-270.75
sg18
I3453360
sg19
S'10025.332038'
p108
sg21
F0.066666666666666652
sbasg26
I00
sg27
I00
sg28
I3452970
sg19
S'10025.7150196'
p109
sba(igraph
Edge
p110
(dp111
g7
I1
sg8
I00
sg9
I5
sg10
(lp112
g106
a(igraph
Vertex
p113
(dp114
g14
F0.9375
sg8
I00
sg15
g24
sg16
F-271.0
sg17
F-312.375
sg18
I3453361
sg19
S'10025.3323098'
p115
sg21
F0.066666666666666652
sbasg26
I00
sg27
I00
sg28
I3452971
sg19
S'10025.7157203'
p116
sba(igraph
Edge
p117
(dp118
g7
I1
sg8
I00
sg9
I5
sg10
(lp119
g113
a(igraph
Vertex
p120
(dp121
g14
F1.0
sg8
I00
sg15
g24
sg16
F-271.0
sg17
F-354.0
sg18
I3453362
sg19
S'10025.3325903'
p122
sg21
F0.066666666666666652
sbasg26
I00
sg27
I00
sg28
I3452972
sg19
S'10025.7164405'
p123
sba(igraph
Edge
p124
(dp125
g7
I1
sg8
I00
sg9
I5
sg10
(lp126
(igraph
Vertex
p127
(dp128
g14
F0.5625
sg8
I00
sg15
g24
sg16
F-232.0
sg17
F-62.625
sg18
I3453363
sg19
S'10025.3358687'
p129
sg21
F0.1333333333333333
sba(igraph
Vertex
p130
(dp131
g14
F0.625
sg8
I00
sg15
g24
sg16
F-232.0
sg17
F-104.25
sg18
I3453364
sg19
S'10025.3362469'
p132
sg21
F0.1333333333333333
sbasg26
I00
sg27
I00
sg28
I3452973
sg19
S'10025.7258646'
p133
sba(igraph
Edge
p134
(dp135
g7
I1
sg8
I00
sg9
I5
sg10
(lp136
g130
a(igraph
Vertex
p137
(dp138
g14
F0.6875
sg8
I00
sg15
g24
sg16
F-232.0
sg17
F-145.875
sg18
I3453365
sg19
S'10025.3366364'
p139
sg21
F0.1333333333333333
sbasg26
I00
sg27
I00
sg28
I3452974
sg19
S'10025.7268435'
p140
sba(igraph
Edge
p141
(dp142
g7
I1
sg8
I00
sg9
I5
sg10
(lp143
g137
a(igraph
Vertex
p144
(dp145
g14
F0.75
sg8
I00
sg15
g24
sg16
F-232.0
sg17
F-187.5
sg18
I3453366
sg19
S'10025.3370291'
p146
sg21
F0.1333333333333333
sbasg26
I00
sg27
I00
sg28
I3452975
sg19
S'10025.7278411'
p147
sba(igraph
Edge
p148
(dp149
g7
I1
sg8
I00
sg9
I5
sg10
(lp150
g144
a(igraph
Vertex
p151
(dp152
g14
F0.8125
sg8
I00
sg15
g24
sg16
F-232.0
sg17
F-229.125
sg18
I3453367
sg19
S'10025.3374317'
p153
sg21
F0.1333333333333333
sbasg26
I00
sg27
I00
sg28
I3452976
sg19
S'10025.7288594'
p154
sba(igraph
Edge
p155
(dp156
g7
I1
sg8
I00
sg9
I5
sg10
(lp157
g151
a(igraph
Vertex
p158
(dp159
g14
F0.875
sg8
I00
sg15
g24
sg16
F-232.0
sg17
F-270.75
sg18
I3453368
sg19
S'10025.3378452'
p160
sg21
F0.1333333333333333
sbasg26
I00
sg27
I00
sg28
I3452977
sg19
S'10025.7299025'
p161
sba(igraph
Edge
p162
(dp163
g7
I1
sg8
I00
sg9
I5
sg10
(lp164
g158
a(igraph
Vertex
p165
(dp166
g14
F0.9375
sg8
I00
sg15
g24
sg16
F-232.0
sg17
F-312.375
sg18
I3453369
sg19
S'10025.3382692'
p167
sg21
F0.1333333333333333
sbasg26
I00
sg27
I00
sg28
I3452978
sg19
S'10025.7309652'
p168
sba(igraph
Edge
p169
(dp170
g7
I1
sg8
I00
sg9
I5
sg10
(lp171
g165
a(igraph
Vertex
p172
(dp173
g14
F1.0
sg8
I00
sg15
g24
sg16
F-232.0
sg17
F-354.0
sg18
I3453370
sg19
S'10025.3386967'
p174
sg21
F0.1333333333333333
sbasg26
I00
sg27
I00
sg28
I3452979
sg19
S'10025.7320497'
p175
sba(igraph
Edge
p176
(dp177
g7
I1
sg8
I00
sg9
I5
sg10
(lp178
(igraph
Vertex
p179
(dp180
g14
F0.5625
sg8
I00
sg15
g24
sg16
F-193.0
sg17
F-62.625
sg18
I3453371
sg19
S'10025.3435043'
p181
sg21
F0.20000000000000001
sba(igraph
Vertex
p182
(dp183
g14
F0.625
sg8
I01
sg15
I0
sg16
F-193.0
sg17
F-104.25
sg18
I3453373
sg19
S'10025.3440281'
p184
sg21
F0.20000000000000001
sbasg26
I00
sg27
I00
sg28
I3452980
sg19
S'10025.7457772'
p185
sba(igraph
Edge
p186
(dp187
g7
I1
sg8
I00
sg9
I5
sg10
(lp188
g182
a(igraph
Vertex
p189
(dp190
g14
F0.6875
sg8
I00
sg15
g24
sg16
F-193.0
sg17
F-145.875
sg18
I3453375
sg19
S'10025.3445611'
p191
sg21
F0.20000000000000001
sbasg26
I00
sg27
I00
sg28
I3452981
sg19
S'10025.747124'
p192
sba(igraph
Edge
p193
(dp194
g7
I1
sg8
I00
sg9
I5
sg10
(lp195
g189
a(igraph
Vertex
p196
(dp197
g14
F0.75
sg8
I00
sg15
g24
sg16
F-193.0
sg17
F-187.5
sg18
I3453376
sg19
S'10025.3451056'
p198
sg21
F0.20000000000000001
sbasg26
I00
sg27
I00
sg28
I3452982
sg19
S'10025.7485636'
p199
sba(igraph
Edge
p200
(dp201
g7
I1
sg8
I00
sg9
I5
sg10
(lp202
g196
a(igraph
Vertex
p203
(dp204
g14
F0.8125
sg8
I00
sg15
g24
sg16
F-193.0
sg17
F-229.125
sg18
I3453377
sg19
S'10025.3460691'
p205
sg21
F0.20000000000000001
sbasg26
I00
sg27
I00
sg28
I3452983
sg19
S'10025.7499551'
p206
sba(igraph
Edge
p207
(dp208
g7
I1
sg8
I00
sg9
I5
sg10
(lp209
g203
a(igraph
Vertex
p210
(dp211
g14
F0.875
sg8
I00
sg15
g24
sg16
F-193.0
sg17
F-270.75
sg18
I3453378
sg19
S'10025.3466368'
p212
sg21
F0.20000000000000001
sbasg26
I00
sg27
I00
sg28
I3452984
sg19
S'10025.7513681'
p213
sba(igraph
Edge
p214
(dp215
g7
I1
sg8
I00
sg9
I5
sg10
(lp216
g210
a(igraph
Vertex
p217
(dp218
g14
F0.9375
sg8
I00
sg15
g24
sg16
F-193.0
sg17
F-312.375
sg18
I3453379
sg19
S'10025.3472087'
p219
sg21
F0.20000000000000001
sbasg26
I00
sg27
I00
sg28
I3452985
sg19
S'10025.7528035'
p220
sba(igraph
Edge
p221
(dp222
g7
I1
sg8
I00
sg9
I5
sg10
(lp223
g217
a(igraph
Vertex
p224
(dp225
g14
F1.0
sg8
I00
sg15
g24
sg16
F-193.0
sg17
F-354.0
sg18
I3453380
sg19
S'10025.3477895'
p226
sg21
F0.20000000000000001
sbasg26
I00
sg27
I00
sg28
I3452986
sg19
S'10025.7542635'
p227
sba(igraph
Edge
p228
(dp229
g7
I1
sg8
I00
sg9
I5
sg10
(lp230
(igraph
Vertex
p231
(dp232
g14
F0.5625
sg8
I00
sg15
g24
sg16
F-154.0
sg17
F-62.625
sg18
I3453381
sg19
S'10025.3540548'
p233
sg21
F0.26666666666666666
sba(igraph
Vertex
p234
(dp235
g14
F0.625
sg8
I00
sg15
g24
sg16
F-154.0
sg17
F-104.25
sg18
I3453382
sg19
S'10025.3547191'
p236
sg21
F0.26666666666666666
sbasg26
I00
sg27
I00
sg28
I3452987
sg19
S'10025.7718319'
p237
sba(igraph
Edge
p238
(dp239
g7
I1
sg8
I00
sg9
I5
sg10
(lp240
g234
a(igraph
Vertex
p241
(dp242
g14
F0.6875
sg8
I00
sg15
g24
sg16
F-154.0
sg17
F-145.875
sg18
I3453383
sg19
S'10025.3555438'
p243
sg21
F0.26666666666666666
sbasg26
I00
sg27
I00
sg28
I3452988
sg19
S'10025.7735304'
p244
sba(igraph
Edge
p245
(dp246
g7
I1
sg8
I00
sg9
I5
sg10
(lp247
g241
a(igraph
Vertex
p248
(dp249
g14
F0.75
sg8
I00
sg15
g24
sg16
F-154.0
sg17
F-187.5
sg18
I3453384
sg19
S'10025.356806'
p250
sg21
F0.26666666666666666
sbasg26
I00
sg27
I00
sg28
I3452989
sg19
S'10025.7752443'
p251
sba(igraph
Edge
p252
(dp253
g7
I1
sg8
I00
sg9
I5
sg10
(lp254
g248
a(igraph
Vertex
p255
(dp256
g14
F0.8125
sg8
I00
sg15
g24
sg16
F-154.0
sg17
F-229.125
sg18
I3453385
sg19
S'10025.3576787'
p257
sg21
F0.26666666666666666
sbasg26
I00
sg27
I00
sg28
I3452990
sg19
S'10025.7769837'
p258
sba(igraph
Edge
p259
(dp260
g7
I1
sg8
I00
sg9
I5
sg10
(lp261
g255
a(igraph
Vertex
p262
(dp263
g14
F0.875
sg8
I00
sg15
g24
sg16
F-154.0
sg17
F-270.75
sg18
I3453386
sg19
S'10025.3585618'
p264
sg21
F0.26666666666666666
sbasg26
I00
sg27
I00
sg28
I3452991
sg19
S'10025.7788102'
p265
sba(igraph
Edge
p266
(dp267
g7
I1
sg8
I00
sg9
I5
sg10
(lp268
g262
a(igraph
Vertex
p269
(dp270
g14
F0.9375
sg8
I00
sg15
g24
sg16
F-154.0
sg17
F-312.375
sg18
I3453387
sg19
S'10025.3594803'
p271
sg21
F0.26666666666666666
sbasg26
I00
sg27
I00
sg28
I3452992
sg19
S'10025.7805998'
p272
sba(igraph
Edge
p273
(dp274
g7
I1
sg8
I00
sg9
I5
sg10
(lp275
g269
a(igraph
Vertex
p276
(dp277
g14
F1.0
sg8
I00
sg15
g24
sg16
F-154.0
sg17
F-354.0
sg18
I3453388
sg19
S'10025.360212'
p278
sg21
F0.26666666666666666
sbasg26
I00
sg27
I00
sg28
I3452993
sg19
S'10025.782414'
p279
sba(igraph
Edge
p280
(dp281
g7
I1
sg8
I00
sg9
I5
sg10
(lp282
(igraph
Vertex
p283
(dp284
g14
F0.5625
sg8
I00
sg15
g24
sg16
F-115.0
sg17
F-62.625
sg18
I3453389
sg19
S'10025.3720671'
p285
sg21
F0.33333333333333331
sba(igraph
Vertex
p286
(dp287
g14
F0.625
sg8
I00
sg15
g24
sg16
F-115.0
sg17
F-104.25
sg18
I3453390
sg19
S'10025.3728966'
p288
sg21
F0.33333333333333331
sbasg26
I00
sg27
I00
sg28
I3452994
sg19
S'10025.804053'
p289
sba(igraph
Edge
p290
(dp291
g7
I1
sg8
I00
sg9
I5
sg10
(lp292
g286
a(igraph
Vertex
p293
(dp294
g14
F0.6875
sg8
I01
sg15
I0
sg16
F-115.0
sg17
F-145.875
sg18
I3453392
sg19
S'10025.373731'
p295
sg21
F0.33333333333333331
sbasg26
I00
sg27
I00
sg28
I3452995
sg19
S'10025.8061217'
p296
sba(igraph
Edge
p297
(dp298
g7
I1
sg8
I00
sg9
I5
sg10
(lp299
g293
a(igraph
Vertex
p300
(dp301
g14
F0.75
sg8
I00
sg15
g24
sg16
F-115.0
sg17
F-187.5
sg18
I3453394
sg19
S'10025.3747823'
p302
sg21
F0.33333333333333331
sbasg26
I00
sg27
I00
sg28
I3452996
sg19
S'10025.8081974'
p303
sba(igraph
Edge
p304
(dp305
g7
I1
sg8
I00
sg9
I5
sg10
(lp306
g300
a(igraph
Vertex
p307
(dp308
g14
F0.8125
sg8
I00
sg15
g24
sg16
F-115.0
sg17
F-229.125
sg18
I3453395
sg19
S'10025.3756709'
p309
sg21
F0.33333333333333331
sbasg26
I00
sg27
I00
sg28
I3452997
sg19
S'10025.8103617'
p310
sba(igraph
Edge
p311
(dp312
g7
I1
sg8
I00
sg9
I5
sg10
(lp313
g307
a(igraph
Vertex
p314
(dp315
g14
F0.875
sg8
I00
sg15
g24
sg16
F-115.0
sg17
F-270.75
sg18
I3453396
sg19
S'10025.3765909'
p316
sg21
F0.33333333333333331
sbasg26
I00
sg27
I00
sg28
I3452998
sg19
S'10025.8124988'
p317
sba(igraph
Edge
p318
(dp319
g7
I1
sg8
I00
sg9
I5
sg10
(lp320
g314
a(igraph
Vertex
p321
(dp322
g14
F0.9375
sg8
I00
sg15
g24
sg16
F-115.0
sg17
F-312.375
sg18
I3453397
sg19
S'10025.3775198'
p323
sg21
F0.33333333333333331
sbasg26
I00
sg27
I00
sg28
I3452999
sg19
S'10025.8147441'
p324
sba(igraph
Edge
p325
(dp326
g7
I1
sg8
I00
sg9
I5
sg10
(lp327
g321
a(igraph
Vertex
p328
(dp329
g14
F1.0
sg8
I00
sg15
g24
sg16
F-115.0
sg17
F-354.0
sg18
I3453398
sg19
S'10025.3785445'
p330
sg21
F0.33333333333333331
sbasg26
I00
sg27
I00
sg28
I3453000
sg19
S'10025.8169865'
p331
sba(igraph
Edge
p332
(dp333
g7
I1
sg8
I00
sg9
I5
sg10
(lp334
(igraph
Vertex
p335
(dp336
g14
F0.5625
sg8
I00
sg15
g24
sg16
F-76.0
sg17
F-62.625
sg18
I3453399
sg19
S'10025.3883133'
p337
sg21
F0.40000000000000002
sba(igraph
Vertex
p338
(dp339
g14
F0.625
sg8
I01
sg15
I0
sg16
F-76.0
sg17
F-104.25
sg18
I3453401
sg19
S'10025.3895177'
p340
sg21
F0.40000000000000002
sbasg26
I00
sg27
I00
sg28
I3453001
sg19
S'10025.8432541'
p341
sba(igraph
Edge
p342
(dp343
g7
I1
sg8
I00
sg9
I5
sg10
(lp344
g338
a(igraph
Vertex
p345
(dp346
g14
F0.6875
sg8
I00
sg15
g24
sg16
F-76.0
sg17
F-145.875
sg18
I3453403
sg19
S'10025.390679'
p347
sg21
F0.40000000000000002
sbasg26
I00
sg27
I00
sg28
I3453002
sg19
S'10025.845729'
p348
sba(igraph
Edge
p349
(dp350
g7
I1
sg8
I00
sg9
I5
sg10
(lp351
g345
a(igraph
Vertex
p352
(dp353
g14
F0.75
sg8
I00
sg15
g24
sg16
F-76.0
sg17
F-187.5
sg18
I3453404
sg19
S'10025.3917671'
p354
sg21
F0.40000000000000002
sbasg26
I00
sg27
I00
sg28
I3453003
sg19
S'10025.8482254'
p355
sba(igraph
Edge
p356
(dp357
g7
I1
sg8
I00
sg9
I5
sg10
(lp358
g352
a(igraph
Vertex
p359
(dp360
g14
F0.8125
sg8
I00
sg15
g24
sg16
F-76.0
sg17
F-229.125
sg18
I3453405
sg19
S'10025.3929033'
p361
sg21
F0.40000000000000002
sbasg26
I00
sg27
I00
sg28
I3453004
sg19
S'10025.850743'
p362
sba(igraph
Edge
p363
(dp364
g7
I1
sg8
I00
sg9
I5
sg10
(lp365
g359
a(igraph
Vertex
p366
(dp367
g14
F0.875
sg8
I00
sg15
g24
sg16
F-76.0
sg17
F-270.75
sg18
I3453406
sg19
S'10025.3940302'
p368
sg21
F0.40000000000000002
sbasg26
I00
sg27
I00
sg28
I3453005
sg19
S'10025.8532677'
p369
sba(igraph
Edge
p370
(dp371
g7
I1
sg8
I00
sg9
I5
sg10
(lp372
g366
a(igraph
Vertex
p373
(dp374
g14
F0.9375
sg8
I00
sg15
g24
sg16
F-76.0
sg17
F-312.375
sg18
I3453407
sg19
S'10025.3951128'
p375
sg21
F0.40000000000000002
sbasg26
I00
sg27
I00
sg28
I3453006
sg19
S'10025.8557842'
p376
sba(igraph
Edge
p377
(dp378
g7
I1
sg8
I00
sg9
I5
sg10
(lp379
g373
a(igraph
Vertex
p380
(dp381
g14
F1.0
sg8
I00
sg15
g24
sg16
F-76.0
sg17
F-354.0
sg18
I3453408
sg19
S'10025.3962534'
p382
sg21
F0.40000000000000002
sbasg26
I00
sg27
I00
sg28
I3453007
sg19
S'10025.8583348'
p383
sba(igraph
Edge
p384
(dp385
g7
I1
sg8
I00
sg9
I5
sg10
(lp386
(igraph
Vertex
p387
(dp388
g14
F0.5625
sg8
I00
sg15
g24
sg16
F-37.0
sg17
F-62.625
sg18
I3453409
sg19
S'10025.408876'
p389
sg21
F0.46666666666666667
sba(igraph
Vertex
p390
(dp391
g14
F0.625
sg8
I00
sg15
g24
sg16
F-37.0
sg17
F-104.25
sg18
I3453410
sg19
S'10025.410144'
p392
sg21
F0.46666666666666667
sbasg26
I00
sg27
I00
sg28
I3453008
sg19
S'10025.8878422'
p393
sba(igraph
Edge
p394
(dp395
g7
I1
sg8
I00
sg9
I5
sg10
(lp396
g390
a(igraph
Vertex
p397
(dp398
g14
F0.6875
sg8
I00
sg15
g24
sg16
F-37.0
sg17
F-145.875
sg18
I3453411
sg19
S'10025.4114397'
p399
sg21
F0.46666666666666667
sbasg26
I00
sg27
I00
sg28
I3453009
sg19
S'10025.890683'
p400
sba(igraph
Edge
p401
(dp402
g7
I1
sg8
I00
sg9
I5
sg10
(lp403
g397
a(igraph
Vertex
p404
(dp405
g14
F0.75
sg8
I01
sg15
I0
sg16
F-37.0
sg17
F-187.5
sg18
I3453413
sg19
S'10025.4126611'
p406
sg21
F0.46666666666666667
sbasg26
I00
sg27
I00
sg28
I3453010
sg19
S'10025.8934795'
p407
sba(igraph
Edge
p408
(dp409
g7
I1
sg8
I00
sg9
I5
sg10
(lp410
g404
a(igraph
Vertex
p411
(dp412
g14
F0.8125
sg8
I00
sg15
g24
sg16
F-37.0
sg17
F-229.125
sg18
I3453415
sg19
S'10025.4139442'
p413
sg21
F0.46666666666666667
sbasg26
I00
sg27
I00
sg28
I3453011
sg19
S'10025.8963075'
p414
sba(igraph
Edge
p415
(dp416
g7
I1
sg8
I00
sg9
I5
sg10
(lp417
g411
a(igraph
Vertex
p418
(dp419
g14
F0.875
sg8
I00
sg15
g24
sg16
F-37.0
sg17
F-270.75
sg18
I3453416
sg19
S'10025.4152405'
p420
sg21
F0.46666666666666667
sbasg26
I00
sg27
I00
sg28
I3453012
sg19
S'10025.8991562'
p421
sba(igraph
Edge
p422
(dp423
g7
I1
sg8
I00
sg9
I5
sg10
(lp424
g418
a(igraph
Vertex
p425
(dp426
g14
F0.9375
sg8
I00
sg15
g24
sg16
F-37.0
sg17
F-312.375
sg18
I3453417
sg19
S'10025.4165641'
p427
sg21
F0.46666666666666667
sbasg26
I00
sg27
I00
sg28
I3453013
sg19
S'10025.9020046'
p428
sba(igraph
Edge
p429
(dp430
g7
I1
sg8
I00
sg9
I5
sg10
(lp431
g425
a(igraph
Vertex
p432
(dp433
g14
F1.0
sg8
I00
sg15
g24
sg16
F-37.0
sg17
F-354.0
sg18
I3453418
sg19
S'10025.417826'
p434
sg21
F0.46666666666666667
sbasg26
I00
sg27
I00
sg28
I3453014
sg19
S'10025.9048896'
p435
sba(igraph
Edge
p436
(dp437
g7
I1
sg8
I00
sg9
I5
sg10
(lp438
(igraph
Vertex
p439
(dp440
g14
F0.5625
sg8
I00
sg15
g24
sg16
F2.0
sg17
F-62.625
sg18
I3453419
sg19
S'10025.4317641'
p441
sg21
F0.53333333333333333
sba(igraph
Vertex
p442
(dp443
g14
F0.625
sg8
I00
sg15
g24
sg16
F2.0
sg17
F-104.25
sg18
I3453420
sg19
S'10025.433128'
p444
sg21
F0.53333333333333333
sbasg26
I00
sg27
I00
sg28
I3453015
sg19
S'10025.9413439'
p445
sba(igraph
Edge
p446
(dp447
g7
I1
sg8
I00
sg9
I5
sg10
(lp448
g442
a(igraph
Vertex
p449
(dp450
g14
F0.6875
sg8
I00
sg15
g24
sg16
F2.0
sg17
F-145.875
sg18
I3453421
sg19
S'10025.4345784'
p451
sg21
F0.53333333333333333
sbasg26
I00
sg27
I00
sg28
I3453016
sg19
S'10025.9446818'
p452
sba(igraph
Edge
p453
(dp454
g7
I1
sg8
I00
sg9
I5
sg10
(lp455
g449
a(igraph
Vertex
p456
(dp457
g14
F0.75
sg8
I00
sg15
g24
sg16
F2.0
sg17
F-187.5
sg18
I3453422
sg19
S'10025.4359711'
p458
sg21
F0.53333333333333333
sbasg26
I00
sg27
I00
sg28
I3453017
sg19
S'10025.9480068'
p459
sba(igraph
Edge
p460
(dp461
g7
I1
sg8
I00
sg9
I5
sg10
(lp462
g456
a(igraph
Vertex
p463
(dp464
g14
F0.8125
sg8
I00
sg15
g24
sg16
F2.0
sg17
F-229.125
sg18
I3453423
sg19
S'10025.4373584'
p465
sg21
F0.53333333333333333
sbasg26
I00
sg27
I00
sg28
I3453018
sg19
S'10025.9514092'
p466
sba(igraph
Edge
p467
(dp468
g7
I1
sg8
I00
sg9
I5
sg10
(lp469
g463
a(igraph
Vertex
p470
(dp471
g14
F0.875
sg8
I00
sg15
g24
sg16
F2.0
sg17
F-270.75
sg18
I3453424
sg19
S'10025.4398911'
p472
sg21
F0.53333333333333333
sbasg26
I00
sg27
I00
sg28
I3453019
sg19
S'10025.9547423'
p473
sba(igraph
Edge
p474
(dp475
g7
I1
sg8
I00
sg9
I5
sg10
(lp476
g470
a(igraph
Vertex
p477
(dp478
g14
F0.9375
sg8
I00
sg15
g24
sg16
F2.0
sg17
F-312.375
sg18
I3453425
sg19
S'10025.4413279'
p479
sg21
F0.53333333333333333
sbasg26
I00
sg27
I00
sg28
I3453020
sg19
S'10025.9580584'
p480
sba(igraph
Edge
p481
(dp482
g7
I1
sg8
I00
sg9
I5
sg10
(lp483
g477
a(igraph
Vertex
p484
(dp485
g14
F1.0
sg8
I00
sg15
g24
sg16
F2.0
sg17
F-354.0
sg18
I3453426
sg19
S'10025.4428862'
p486
sg21
F0.53333333333333333
sbasg26
I00
sg27
I00
sg28
I3453021
sg19
S'10025.9614144'
p487
sba(igraph
Edge
p488
(dp489
g7
I1
sg8
I00
sg9
I5
sg10
(lp490
(igraph
Vertex
p491
(dp492
g14
F0.5625
sg8
I00
sg15
g24
sg16
F41.0
sg17
F-62.625
sg18
I3453427
sg19
S'10025.4585167'
p493
sg21
F0.59999999999999998
sba(igraph
Vertex
p494
(dp495
g14
F0.625
sg8
I00
sg15
g24
sg16
F41.0
sg17
F-104.25
sg18
I3453428
sg19
S'10025.4600797'
p496
sg21
F0.59999999999999998
sbasg26
I00
sg27
I00
sg28
I3453022
sg19
S'10025.9999827'
p497
sba(igraph
Edge
p498
(dp499
g7
I1
sg8
I00
sg9
I5
sg10
(lp500
g494
a(igraph
Vertex
p501
(dp502
g14
F0.6875
sg8
I00
sg15
g24
sg16
F41.0
sg17
F-145.875
sg18
I3453429
sg19
S'10025.4619713'
p503
sg21
F0.59999999999999998
sbasg26
I00
sg27
I00
sg28
I3453023
sg19
S'10026.0035884'
p504
sba(igraph
Edge
p505
(dp506
g7
I1
sg8
I00
sg9
I5
sg10
(lp507
g501
a(igraph
Vertex
p508
(dp509
g14
F0.75
sg8
I00
sg15
g24
sg16
F41.0
sg17
F-187.5
sg18
I3453430
sg19
S'10025.4636078'
p510
sg21
F0.59999999999999998
sbasg26
I00
sg27
I00
sg28
I3453024
sg19
S'10026.0072599'
p511
sba(igraph
Edge
p512
(dp513
g7
I1
sg8
I00
sg9
I5
sg10
(lp514
g508
a(igraph
Vertex
p515
(dp516
g14
F0.8125
sg8
I01
sg15
I0
sg16
F41.0
sg17
F-229.125
sg18
I3453432
sg19
S'10025.465234'
p517
sg21
F0.59999999999999998
sbasg26
I00
sg27
I00
sg28
I3453025
sg19
S'10026.014967'
p518
sba(igraph
Edge
p519
(dp520
g7
I1
sg8
I00
sg9
I5
sg10
(lp521
g515
a(igraph
Vertex
p522
(dp523
g14
F0.875
sg8
I00
sg15
g24
sg16
F41.0
sg17
F-270.75
sg18
I3453434
sg19
S'10025.4669789'
p524
sg21
F0.59999999999999998
sbasg26
I00
sg27
I00
sg28
I3453026
sg19
S'10026.0186677'
p525
sba(igraph
Edge
p526
(dp527
g7
I1
sg8
I00
sg9
I5
sg10
(lp528
g522
a(igraph
Vertex
p529
(dp530
g14
F0.9375
sg8
I00
sg15
g24
sg16
F41.0
sg17
F-312.375
sg18
I3453435
sg19
S'10025.4687844'
p531
sg21
F0.59999999999999998
sbasg26
I00
sg27
I00
sg28
I3453027
sg19
S'10026.0222676'
p532
sba(igraph
Edge
p533
(dp534
g7
I1
sg8
I00
sg9
I5
sg10
(lp535
g529
a(igraph
Vertex
p536
(dp537
g14
F1.0
sg8
I00
sg15
g24
sg16
F41.0
sg17
F-354.0
sg18
I3453436
sg19
S'10025.4703304'
p538
sg21
F0.59999999999999998
sbasg26
I00
sg27
I00
sg28
I3453028
sg19
S'10026.0259016'
p539
sba(igraph
Edge
p540
(dp541
g7
I1
sg8
I00
sg9
I5
sg10
(lp542
(igraph
Vertex
p543
(dp544
g14
F0.5625
sg8
I00
sg15
g24
sg16
F80.0
sg17
F-62.625
sg18
I3453437
sg19
S'10025.4866311'
p545
sg21
F0.66666666666666663
sba(igraph
Vertex
p546
(dp547
g14
F0.625
sg8
I00
sg15
g24
sg16
F80.0
sg17
F-104.25
sg18
I3453438
sg19
S'10025.488321'
p548
sg21
F0.66666666666666663
sbasg26
I00
sg27
I00
sg28
I3453029
sg19
S'10026.0683679'
p549
sba(igraph
Edge
p550
(dp551
g7
I1
sg8
I00
sg9
I5
sg10
(lp552
g546
a(igraph
Vertex
p553
(dp554
g14
F0.6875
sg8
I00
sg15
g24
sg16
F80.0
sg17
F-145.875
sg18
I3453439
sg19
S'10025.4899871'
p555
sg21
F0.66666666666666663
sbasg26
I00
sg27
I00
sg28
I3453030
sg19
S'10026.0723813'
p556
sba(igraph
Edge
p557
(dp558
g7
I1
sg8
I00
sg9
I5
sg10
(lp559
g553
a(igraph
Vertex
p560
(dp561
g14
F0.75
sg8
I00
sg15
g24
sg16
F80.0
sg17
F-187.5
sg18
I3453440
sg19
S'10025.4916589'
p562
sg21
F0.66666666666666663
sbasg26
I00
sg27
I00
sg28
I3453031
sg19
S'10026.0763024'
p563
sba(igraph
Edge
p564
(dp565
g7
I1
sg8
I00
sg9
I5
sg10
(lp566
g560
a(igraph
Vertex
p567
(dp568
g14
F0.8125
sg8
I00
sg15
g24
sg16
F80.0
sg17
F-229.125
sg18
I3453441
sg19
S'10025.4933289'
p569
sg21
F0.66666666666666663
sbasg26
I00
sg27
I00
sg28
I3453032
sg19
S'10026.0817797'
p570
sba(igraph
Edge
p571
(dp572
g7
I1
sg8
I00
sg9
I5
sg10
(lp573
g567
a(igraph
Vertex
p574
(dp575
g14
F0.875
sg8
I00
sg15
g24
sg16
F80.0
sg17
F-270.75
sg18
I3453442
sg19
S'10025.4950126'
p576
sg21
F0.66666666666666663
sbasg26
I00
sg27
I00
sg28
I3453033
sg19
S'10026.0858101'
p577
sba(igraph
Edge
p578
(dp579
g7
I1
sg8
I00
sg9
I5
sg10
(lp580
g574
a(igraph
Vertex
p581
(dp582
g14
F0.9375
sg8
I00
sg15
g24
sg16
F80.0
sg17
F-312.375
sg18
I3453443
sg19
S'10025.4967067'
p583
sg21
F0.66666666666666663
sbasg26
I00
sg27
I00
sg28
I3453034
sg19
S'10026.0898463'
p584
sba(igraph
Edge
p585
(dp586
g7
I1
sg8
I00
sg9
I5
sg10
(lp587
g581
a(igraph
Vertex
p588
(dp589
g14
F1.0
sg8
I00
sg15
g24
sg16
F80.0
sg17
F-354.0
sg18
I3453444
sg19
S'10025.4985648'
p590
sg21
F0.66666666666666663
sbasg26
I00
sg27
I00
sg28
I3453035
sg19
S'10026.0939013'
p591
sba(igraph
Edge
p592
(dp593
g7
I1
sg8
I00
sg9
I5
sg10
(lp594
(igraph
Vertex
p595
(dp596
g14
F0.5625
sg8
I00
sg15
g24
sg16
F118.99999999999994
sg17
F-62.625
sg18
I3453445
sg19
S'10025.5169087'
p597
sg21
F0.73333333333333328
sba(igraph
Vertex
p598
(dp599
g14
F0.625
sg8
I00
sg15
g24
sg16
F118.99999999999994
sg17
F-104.25
sg18
I3453446
sg19
S'10025.5188009'
p600
sg21
F0.73333333333333328
sbasg26
I00
sg27
I00
sg28
I3453036
sg19
S'10026.139818'
p601
sba(igraph
Edge
p602
(dp603
g7
I1
sg8
I00
sg9
I5
sg10
(lp604
g598
a(igraph
Vertex
p605
(dp606
g14
F0.6875
sg8
I00
sg15
g24
sg16
F118.99999999999994
sg17
F-145.875
sg18
I3453447
sg19
S'10025.5209693'
p607
sg21
F0.73333333333333328
sbasg26
I00
sg27
I00
sg28
I3453037
sg19
S'10026.1440529'
p608
sba(igraph
Edge
p609
(dp610
g7
I1
sg8
I00
sg9
I5
sg10
(lp611
g605
a(igraph
Vertex
p612
(dp613
g14
F0.75
sg8
I00
sg15
g24
sg16
F118.99999999999994
sg17
F-187.5
sg18
I3453448
sg19
S'10025.5228634'
p614
sg21
F0.73333333333333328
sbasg26
I00
sg27
I00
sg28
I3453038
sg19
S'10026.1483264'
p615
sba(igraph
Edge
p616
(dp617
g7
I1
sg8
I00
sg9
I5
sg10
(lp618
g612
a(igraph
Vertex
p619
(dp620
g14
F0.8125
sg8
I00
sg15
g24
sg16
F118.99999999999994
sg17
F-229.125
sg18
I3453449
sg19
S'10025.5248206'
p621
sg21
F0.73333333333333328
sbasg26
I00
sg27
I00
sg28
I3453039
sg19
S'10026.1526183'
p622
sba(igraph
Edge
p623
(dp624
g7
I1
sg8
I00
sg9
I5
sg10
(lp625
g619
a(igraph
Vertex
p626
(dp627
g14
F0.875
sg8
I01
sg15
I0
sg16
F118.99999999999994
sg17
F-270.75
sg18
I3453451
sg19
S'10025.5270273'
p628
sg21
F0.73333333333333328
sbasg26
I00
sg27
I00
sg28
I3453040
sg19
S'10026.1570188'
p629
sba(igraph
Edge
p630
(dp631
g7
I1
sg8
I00
sg9
I5
sg10
(lp632
g626
a(igraph
Vertex
p633
(dp634
g14
F0.9375
sg8
I00
sg15
g24
sg16
F118.99999999999994
sg17
F-312.375
sg18
I3453453
sg19
S'10025.5291687'
p635
sg21
F0.73333333333333328
sbasg26
I00
sg27
I00
sg28
I3453041
sg19
S'10026.1613565'
p636
sba(igraph
Edge
p637
(dp638
g7
I1
sg8
I00
sg9
I5
sg10
(lp639
g633
a(igraph
Vertex
p640
(dp641
g14
F1.0
sg8
I00
sg15
g24
sg16
F118.99999999999994
sg17
F-354.0
sg18
I3453454
sg19
S'10025.5310904'
p642
sg21
F0.73333333333333328
sbasg26
I00
sg27
I00
sg28
I3453042
sg19
S'10026.1657107'
p643
sba(igraph
Edge
p644
(dp645
g7
I1
sg8
I00
sg9
I5
sg10
(lp646
(igraph
Vertex
p647
(dp648
g14
F0.5625
sg8
I00
sg15
g24
sg16
F158.0
sg17
F-62.625
sg18
I3453455
sg19
S'10025.5519864'
p649
sg21
F0.80000000000000004
sba(igraph
Vertex
p650
(dp651
g14
F0.625
sg8
I00
sg15
g24
sg16
F158.0
sg17
F-104.25
sg18
I3453456
sg19
S'10025.5555206'
p652
sg21
F0.80000000000000004
sbasg26
I00
sg27
I00
sg28
I3453043
sg19
S'10026.215174'
p653
sba(igraph
Edge
p654
(dp655
g7
I1
sg8
I00
sg9
I5
sg10
(lp656
g650
a(igraph
Vertex
p657
(dp658
g14
F0.6875
sg8
I00
sg15
g24
sg16
F158.0
sg17
F-145.875
sg18
I3453457
sg19
S'10025.5576167'
p659
sg21
F0.80000000000000004
sbasg26
I00
sg27
I00
sg28
I3453044
sg19
S'10026.2197684'
p660
sba(igraph
Edge
p661
(dp662
g7
I1
sg8
I00
sg9
I5
sg10
(lp663
g657
a(igraph
Vertex
p664
(dp665
g14
F0.75
sg8
I00
sg15
g24
sg16
F158.0
sg17
F-187.5
sg18
I3453458
sg19
S'10025.5597404'
p666
sg21
F0.80000000000000004
sbasg26
I00
sg27
I00
sg28
I3453045
sg19
S'10026.224481'
p667
sba(igraph
Edge
p668
(dp669
g7
I1
sg8
I00
sg9
I5
sg10
(lp670
g664
a(igraph
Vertex
p671
(dp672
g14
F0.8125
sg8
I01
sg15
I0
sg16
F158.0
sg17
F-229.125
sg18
I3453460
sg19
S'10025.5619932'
p673
sg21
F0.80000000000000004
sbasg26
I00
sg27
I00
sg28
I3453046
sg19
S'10026.2291738'
p674
sba(igraph
Edge
p675
(dp676
g7
I1
sg8
I00
sg9
I5
sg10
(lp677
g671
a(igraph
Vertex
p678
(dp679
g14
F0.875
sg8
I00
sg15
g24
sg16
F158.0
sg17
F-270.75
sg18
I3453462
sg19
S'10025.5641407'
p680
sg21
F0.80000000000000004
sbasg26
I00
sg27
I00
sg28
I3453047
sg19
S'10026.2338817'
p681
sba(igraph
Edge
p682
(dp683
g7
I1
sg8
I00
sg9
I5
sg10
(lp684
g678
a(igraph
Vertex
p685
(dp686
g14
F0.9375
sg8
I00
sg15
g24
sg16
F158.0
sg17
F-312.375
sg18
I3453463
sg19
S'10025.5663675'
p687
sg21
F0.80000000000000004
sbasg26
I00
sg27
I00
sg28
I3453048
sg19
S'10026.2385434'
p688
sba(igraph
Edge
p689
(dp690
g7
I1
sg8
I00
sg9
I5
sg10
(lp691
g685
a(igraph
Vertex
p692
(dp693
g14
F1.0
sg8
I00
sg15
g24
sg16
F158.0
sg17
F-354.0
sg18
I3453464
sg19
S'10025.5684887'
p694
sg21
F0.80000000000000004
sbasg26
I00
sg27
I00
sg28
I3453049
sg19
S'10026.2432605'
p695
sba(igraph
Edge
p696
(dp697
g7
I1
sg8
I00
sg9
I5
sg10
(lp698
(igraph
Vertex
p699
(dp700
g14
F0.5625
sg8
I00
sg15
g24
sg16
F197.00000000000006
sg17
F-62.625
sg18
I3453465
sg19
S'10025.5962559'
p701
sg21
F0.86666666666666681
sba(igraph
Vertex
p702
(dp703
g14
F0.625
sg8
I00
sg15
g24
sg16
F197.00000000000006
sg17
F-104.25
sg18
I3453466
sg19
S'10025.5984347'
p704
sg21
F0.86666666666666681
sbasg26
I00
sg27
I00
sg28
I3453050
sg19
S'10026.297123'
p705
sba(igraph
Edge
p706
(dp707
g7
I1
sg8
I00
sg9
I5
sg10
(lp708
g702
a(igraph
Vertex
p709
(dp710
g14
F0.6875
sg8
I00
sg15
g24
sg16
F197.00000000000006
sg17
F-145.875
sg18
I3453467
sg19
S'10025.6006263'
p711
sg21
F0.86666666666666681
sbasg26
I00
sg27
I00
sg28
I3453051
sg19
S'10026.3021021'
p712
sba(igraph
Edge
p713
(dp714
g7
I1
sg8
I00
sg9
I5
sg10
(lp715
g709
a(igraph
Vertex
p716
(dp717
g14
F0.75
sg8
I00
sg15
g24
sg16
F197.00000000000006
sg17
F-187.5
sg18
I3453468
sg19
S'10025.6030786'
p718
sg21
F0.86666666666666681
sbasg26
I00
sg27
I00
sg28
I3453052
sg19
S'10026.3071041'
p719
sba(igraph
Edge
p720
(dp721
g7
I1
sg8
I00
sg9
I5
sg10
(lp722
g716
a(igraph
Vertex
p723
(dp724
g14
F0.8125
sg8
I00
sg15
g24
sg16
F197.00000000000006
sg17
F-229.125
sg18
I3453469
sg19
S'10025.6053018'
p725
sg21
F0.86666666666666681
sbasg26
I00
sg27
I00
sg28
I3453053
sg19
S'10026.3121263'
p726
sba(igraph
Edge
p727
(dp728
g7
I1
sg8
I00
sg9
I5
sg10
(lp729
g723
a(igraph
Vertex
p730
(dp731
g14
F0.875
sg8
I00
sg15
g24
sg16
F197.00000000000006
sg17
F-270.75
sg18
I3453470
sg19
S'10025.6075311'
p732
sg21
F0.86666666666666681
sbasg26
I00
sg27
I00
sg28
I3453054
sg19
S'10026.3172261'
p733
sba(igraph
Edge
p734
(dp735
g7
I1
sg8
I00
sg9
I5
sg10
(lp736
g730
a(igraph
Vertex
p737
(dp738
g14
F0.9375
sg8
I01
sg15
I0
sg16
F197.00000000000006
sg17
F-312.375
sg18
I3453472
sg19
S'10025.60977'
p739
sg21
F0.86666666666666681
sbasg26
I00
sg27
I00
sg28
I3453055
sg19
S'10026.3222491'
p740
sba(igraph
Edge
p741
(dp742
g7
I1
sg8
I00
sg9
I5
sg10
(lp743
g737
a(igraph
Vertex
p744
(dp745
g14
F1.0
sg8
I00
sg15
g24
sg16
F197.00000000000006
sg17
F-354.0
sg18
I3453474
sg19
S'10025.6120202'
p746
sg21
F0.86666666666666681
sbasg26
I00
sg27
I00
sg28
I3453056
sg19
S'10026.3273709'
p747
sba(igraph
Edge
p748
(dp749
g7
I1
sg8
I00
sg9
I5
sg10
(lp750
(igraph
Vertex
p751
(dp752
g14
F0.5625
sg8
I00
sg15
g24
sg16
F236.0
sg17
F-62.625
sg18
I3453475
sg19
S'10025.6365016'
p753
sg21
F0.93333333333333335
sba(igraph
Vertex
p754
(dp755
g14
F0.625
sg8
I00
sg15
g24
sg16
F236.0
sg17
F-104.25
sg18
I3453476
sg19
S'10025.6389918'
p756
sg21
F0.93333333333333335
sbasg26
I00
sg27
I00
sg28
I3453057
sg19
S'10026.3853333'
p757
sba(igraph
Edge
p758
(dp759
g7
I1
sg8
I00
sg9
I5
sg10
(lp760
g754
a(igraph
Vertex
p761
(dp762
g14
F0.6875
sg8
I00
sg15
g24
sg16
F236.0
sg17
F-145.875
sg18
I3453477
sg19
S'10025.6427342'
p763
sg21
F0.93333333333333335
sbasg26
I00
sg27
I00
sg28
I3453058
sg19
S'10026.3907075'
p764
sba(igraph
Edge
p765
(dp766
g7
I1
sg8
I00
sg9
I5
sg10
(lp767
g761
a(igraph
Vertex
p768
(dp769
g14
F0.75
sg8
I00
sg15
g24
sg16
F236.0
sg17
F-187.5
sg18
I3453478
sg19
S'10025.645306'
p770
sg21
F0.93333333333333335
sbasg26
I00
sg27
I00
sg28
I3453059
sg19
S'10026.396064'
p771
sba(igraph
Edge
p772
(dp773
g7
I1
sg8
I00
sg9
I5
sg10
(lp774
g768
a(igraph
Vertex
p775
(dp776
g14
F0.8125
sg8
I00
sg15
g24
sg16
F236.0
sg17
F-229.125
sg18
I3453479
sg19
S'10025.6479234'
p777
sg21
F0.93333333333333335
sbasg26
I00
sg27
I00
sg28
I3453060
sg19
S'10026.4014404'
p778
sba(igraph
Edge
p779
(dp780
g7
I1
sg8
I00
sg9
I5
sg10
(lp781
g775
a(igraph
Vertex
p782
(dp783
g14
F0.875
sg8
I00
sg15
g24
sg16
F236.0
sg17
F-270.75
sg18
I3453480
sg19
S'10025.6503799'
p784
sg21
F0.93333333333333335
sbasg26
I00
sg27
I00
sg28
I3453061
sg19
S'10026.4068249'
p785
sba(igraph
Edge
p786
(dp787
g7
I1
sg8
I00
sg9
I5
sg10
(lp788
g782
a(igraph
Vertex
p789
(dp790
g14
F0.9375
sg8
I00
sg15
g24
sg16
F236.0
sg17
F-312.375
sg18
I3453481
sg19
S'10025.6531978'
p791
sg21
F0.93333333333333335
sbasg26
I00
sg27
I00
sg28
I3453062
sg19
S'10026.4123175'
p792
sba(igraph
Edge
p793
(dp794
g7
I1
sg8
I00
sg9
I5
sg10
(lp795
g789
a(igraph
Vertex
p796
(dp797
g14
F1.0
sg8
I00
sg15
g24
sg16
F236.0
sg17
F-354.0
sg18
I3453482
sg19
S'10025.6558909'
p798
sg21
F0.93333333333333335
sbasg26
I00
sg27
I00
sg28
I3453063
sg19
S'10026.4177654'
p799
sba(igraph
Edge
p800
(dp801
g7
I1
sg8
I00
sg9
I5
sg10
(lp802
(igraph
Vertex
p803
(dp804
g14
F0.5625
sg8
I00
sg15
g24
sg16
F275.0
sg17
F-62.625
sg18
I3453483
sg19
S'10025.6830161'
p805
sg21
F1.0
sba(igraph
Vertex
p806
(dp807
g14
F0.625
sg8
I00
sg15
g24
sg16
F275.0
sg17
F-104.25
sg18
I3453484
sg19
S'10025.6858008'
p808
sg21
F1.0
sbasg26
I00
sg27
I00
sg28
I3453064
sg19
S'10026.4801987'
p809
sba(igraph
Edge
p810
(dp811
g7
I1
sg8
I00
sg9
I5
sg10
(lp812
g806
a(igraph
Vertex
p813
(dp814
g14
F0.6875
sg8
I00
sg15
g24
sg16
F275.0
sg17
F-145.875
sg18
I3453485
sg19
S'10025.6886501'
p815
sg21
F1.0
sbasg26
I00
sg27
I00
sg28
I3453065
sg19
S'10026.4859824'
p816
sba(igraph
Edge
p817
(dp818
g7
I1
sg8
I00
sg9
I5
sg10
(lp819
g813
a(igraph
Vertex
p820
(dp821
g14
F0.75
sg8
I00
sg15
g24
sg16
F275.0
sg17
F-187.5
sg18
I3453486
sg19
S'10025.6911303'
p822
sg21
F1.0
sbasg26
I00
sg27
I00
sg28
I3453066
sg19
S'10026.4916896'
p823
sba(igraph
Edge
p824
(dp825
g7
I1
sg8
I00
sg9
I5
sg10
(lp826
g820
a(igraph
Vertex
p827
(dp828
g14
F0.8125
sg8
I00
sg15
g24
sg16
F275.0
sg17
F-229.125
sg18
I3453487
sg19
S'10025.6936982'
p829
sg21
F1.0
sbasg26
I00
sg27
I00
sg28
I3453067
sg19
S'10026.4975333'
p830
sba(igraph
Edge
p831
(dp832
g7
I1
sg8
I00
sg9
I5
sg10
(lp833
g827
a(igraph
Vertex
p834
(dp835
g14
F0.875
sg8
I00
sg15
g24
sg16
F275.0
sg17
F-270.75
sg18
I3453488
sg19
S'10025.6961829'
p836
sg21
F1.0
sbasg26
I00
sg27
I00
sg28
I3453068
sg19
S'10026.5033039'
p837
sba(igraph
Edge
p838
(dp839
g7
I1
sg8
I00
sg9
I5
sg10
(lp840
g834
a(igraph
Vertex
p841
(dp842
g14
F0.9375
sg8
I00
sg15
g24
sg16
F275.0
sg17
F-312.375
sg18
I3453489
sg19
S'10025.6986698'
p843
sg21
F1.0
sbasg26
I00
sg27
I00
sg28
I3453069
sg19
S'10026.5090552'
p844
sba(igraph
Edge
p845
(dp846
g7
I1
sg8
I00
sg9
I5
sg10
(lp847
g841
a(igraph
Vertex
p848
(dp849
g14
F1.0
sg8
I01
sg15
I0
sg16
F275.0
sg17
F-354.0
sg18
I3453491
sg19
S'10025.7011981'
p850
sg21
F1.0
sbasg26
I00
sg27
I00
sg28
I3453070
sg19
S'10026.5150389'
p851
sba(igraph
Edge
p852
(dp853
g7
I1
sg8
I00
sg9
I5
sg10
(lp854
g12
ag78
asg26
I00
sg27
I00
sg28
I3453071
sg19
S'10026.5829565'
p855
sba(igraph
Edge
p856
(dp857
g7
I1
sg8
I00
sg9
I5
sg10
(lp858
g22
ag78
asg26
I00
sg27
I00
sg28
I3453072
sg19
S'10026.589169'
p859
sba(igraph
Edge
p860
(dp861
g7
I1
sg8
I00
sg9
I5
sg10
(lp862
g33
ag92
asg26
I00
sg27
I00
sg28
I3453073
sg19
S'10026.5954246'
p863
sba(igraph
Edge
p864
(dp865
g7
I1
sg8
I00
sg9
I5
sg10
(lp866
g40
ag92
asg26
I00
sg27
I00
sg28
I3453074
sg19
S'10026.6015494'
p867
sba(igraph
Edge
p868
(dp869
g7
I1
sg8
I00
sg9
I5
sg10
(lp870
g47
ag106
asg26
I00
sg27
I00
sg28
I3453075
sg19
S'10026.6077029'
p871
sba(igraph
Edge
p872
(dp873
g7
I1
sg8
I00
sg9
I5
sg10
(lp874
g54
ag106
asg26
I00
sg27
I00
sg28
I3453076
sg19
S'10026.6138565'
p875
sba(igraph
Edge
p876
(dp877
g7
I1
sg8
I00
sg9
I5
sg10
(lp878
g61
ag120
asg26
I00
sg27
I00
sg28
I3453077
sg19
S'10026.6200112'
p879
sba(igraph
Edge
p880
(dp881
g7
I1
sg8
I00
sg9
I5
sg10
(lp882
g68
ag120
asg26
I00
sg27
I00
sg28
I3453078
sg19
S'10026.6269314'
p883
sba(igraph
Edge
p884
(dp885
g7
I1
sg8
I00
sg9
I5
sg10
(lp886
g12
ag75
asg26
I00
sg27
I00
sg28
I3453079
sg19
S'10026.6903576'
p887
sba(igraph
Edge
p888
(dp889
g7
I1
sg8
I00
sg9
I5
sg10
(lp890
g22
ag85
asg26
I00
sg27
I00
sg28
I3453080
sg19
S'10026.6969347'
p891
sba(igraph
Edge
p892
(dp893
g7
I1
sg8
I00
sg9
I5
sg10
(lp894
g33
ag85
asg26
I00
sg27
I00
sg28
I3453081
sg19
S'10026.7035182'
p895
sba(igraph
Edge
p896
(dp897
g7
I1
sg8
I00
sg9
I5
sg10
(lp898
g40
ag99
asg26
I00
sg27
I00
sg28
I3453082
sg19
S'10026.7100104'
p899
sba(igraph
Edge
p900
(dp901
g7
I1
sg8
I00
sg9
I5
sg10
(lp902
g47
ag99
asg26
I00
sg27
I00
sg28
I3453083
sg19
S'10026.7165263'
p903
sba(igraph
Edge
p904
(dp905
g7
I1
sg8
I00
sg9
I5
sg10
(lp906
g54
ag113
asg26
I00
sg27
I00
sg28
I3453084
sg19
S'10026.7230455'
p907
sba(igraph
Edge
p908
(dp909
g7
I1
sg8
I00
sg9
I5
sg10
(lp910
g61
ag113
asg26
I00
sg27
I00
sg28
I3453085
sg19
S'10026.7296494'
p911
sba(igraph
Edge
p912
(dp913
g7
I1
sg8
I00
sg9
I5
sg10
(lp914
g22
ag806
asg26
I00
sg27
I00
sg28
I3453086
sg19
S'10026.8104206'
p915
sba(igraph
Edge
p916
(dp917
g7
I1
sg8
I00
sg9
I5
sg10
(lp918
g33
ag806
asg26
I00
sg27
I00
sg28
I3453087
sg19
S'10026.8172324'
p919
sba(igraph
Edge
p920
(dp921
g7
I1
sg8
I00
sg9
I5
sg10
(lp922
g40
ag820
asg26
I00
sg27
I00
sg28
I3453088
sg19
S'10026.8240704'
p923
sba(igraph
Edge
p924
(dp925
g7
I1
sg8
I00
sg9
I5
sg10
(lp926
g47
ag820
asg26
I00
sg27
I00
sg28
I3453089
sg19
S'10026.8310408'
p927
sba(igraph
Edge
p928
(dp929
g7
I1
sg8
I00
sg9
I5
sg10
(lp930
g54
ag834
asg26
I00
sg27
I00
sg28
I3453090
sg19
S'10026.8379328'
p931
sba(igraph
Edge
p932
(dp933
g7
I1
sg8
I00
sg9
I5
sg10
(lp934
g61
ag834
asg26
I00
sg27
I00
sg28
I3453091
sg19
S'10026.8449512'
p935
sba(igraph
Edge
p936
(dp937
g7
I1
sg8
I00
sg9
I5
sg10
(lp938
g68
ag848
asg26
I00
sg27
I00
sg28
I3453092
sg19
S'10026.8518256'
p939
sba(igraph
Edge
p940
(dp941
g7
I1
sg8
I00
sg9
I5
sg10
(lp942
g12
ag803
asg26
I00
sg27
I00
sg28
I3453093
sg19
S'10026.9241848'
p943
sba(igraph
Edge
p944
(dp945
g7
I1
sg8
I00
sg9
I5
sg10
(lp946
g22
ag803
asg26
I00
sg27
I00
sg28
I3453094
sg19
S'10026.93127'
p947
sba(igraph
Edge
p948
(dp949
g7
I1
sg8
I00
sg9
I5
sg10
(lp950
g33
ag813
asg26
I00
sg27
I00
sg28
I3453095
sg19
S'10026.9384327'
p951
sba(igraph
Edge
p952
(dp953
g7
I1
sg8
I00
sg9
I5
sg10
(lp954
g40
ag813
asg26
I00
sg27
I00
sg28
I3453096
sg19
S'10026.9456347'
p955
sba(igraph
Edge
p956
(dp957
g7
I1
sg8
I00
sg9
I5
sg10
(lp958
g47
ag827
asg26
I00
sg27
I00
sg28
I3453097
sg19
S'10026.9529091'
p959
sba(igraph
Edge
p960
(dp961
g7
I1
sg8
I00
sg9
I5
sg10
(lp962
g54
ag827
asg26
I00
sg27
I00
sg28
I3453098
sg19
S'10026.9604212'
p963
sba(igraph
Edge
p964
(dp965
g7
I1
sg8
I00
sg9
I5
sg10
(lp966
g61
ag841
asg26
I00
sg27
I00
sg28
I3453099
sg19
S'10026.9676635'
p967
sba(igraph
Edge
p968
(dp969
g7
I1
sg8
I00
sg9
I5
sg10
(lp970
g68
ag841
asg26
I00
sg27
I00
sg28
I3453100
sg19
S'10026.9750407'
p971
sba(igraph
Edge
p972
(dp973
g7
I1
sg8
I00
sg9
I5
sg10
(lp974
g75
ag130
asg26
I00
sg27
I00
sg28
I3453101
sg19
S'10027.052836'
p975
sba(igraph
Edge
p976
(dp977
g7
I1
sg8
I00
sg9
I5
sg10
(lp978
g78
ag130
asg26
I00
sg27
I00
sg28
I3453102
sg19
S'10027.0606004'
p979
sba(igraph
Edge
p980
(dp981
g7
I1
sg8
I00
sg9
I5
sg10
(lp982
g85
ag144
asg26
I00
sg27
I00
sg28
I3453103
sg19
S'10027.0681559'
p983
sba(igraph
Edge
p984
(dp985
g7
I1
sg8
I00
sg9
I5
sg10
(lp986
g92
ag144
asg26
I00
sg27
I00
sg28
I3453104
sg19
S'10027.0769665'
p987
sba(igraph
Edge
p988
(dp989
g7
I1
sg8
I00
sg9
I5
sg10
(lp990
g99
ag158
asg26
I00
sg27
I00
sg28
I3453105
sg19
S'10027.0847988'
p991
sba(igraph
Edge
p992
(dp993
g7
I1
sg8
I00
sg9
I5
sg10
(lp994
g106
ag158
asg26
I00
sg27
I00
sg28
I3453106
sg19
S'10027.0929062'
p995
sba(igraph
Edge
p996
(dp997
g7
I1
sg8
I00
sg9
I5
sg10
(lp998
g113
ag172
asg26
I00
sg27
I00
sg28
I3453107
sg19
S'10027.1007304'
p999
sba(igraph
Edge
p1000
(dp1001
g7
I1
sg8
I00
sg9
I5
sg10
(lp1002
g120
ag172
asg26
I00
sg27
I00
sg28
I3453108
sg19
S'10027.1085029'
p1003
sba(igraph
Edge
p1004
(dp1005
g7
I1
sg8
I00
sg9
I5
sg10
(lp1006
g75
ag127
asg26
I00
sg27
I00
sg28
I3453109
sg19
S'10027.1871034'
p1007
sba(igraph
Edge
p1008
(dp1009
g7
I1
sg8
I00
sg9
I5
sg10
(lp1010
g78
ag137
asg26
I00
sg27
I00
sg28
I3453110
sg19
S'10027.1950991'
p1011
sba(igraph
Edge
p1012
(dp1013
g7
I1
sg8
I00
sg9
I5
sg10
(lp1014
g85
ag137
asg26
I00
sg27
I00
sg28
I3453111
sg19
S'10027.2031862'
p1015
sba(igraph
Edge
p1016
(dp1017
g7
I1
sg8
I00
sg9
I5
sg10
(lp1018
g92
ag151
asg26
I00
sg27
I00
sg28
I3453112
sg19
S'10027.2113573'
p1019
sba(igraph
Edge
p1020
(dp1021
g7
I1
sg8
I00
sg9
I5
sg10
(lp1022
g99
ag151
asg26
I00
sg27
I00
sg28
I3453113
sg19
S'10027.2193843'
p1023
sba(igraph
Edge
p1024
(dp1025
g7
I1
sg8
I00
sg9
I5
sg10
(lp1026
g106
ag165
asg26
I00
sg27
I00
sg28
I3453114
sg19
S'10027.2274373'
p1027
sba(igraph
Edge
p1028
(dp1029
g7
I1
sg8
I00
sg9
I5
sg10
(lp1030
g113
ag165
asg26
I00
sg27
I00
sg28
I3453115
sg19
S'10027.2354584'
p1031
sba(igraph
Edge
p1032
(dp1033
g7
I1
sg8
I00
sg9
I5
sg10
(lp1034
g127
ag182
asg26
I00
sg27
I00
sg28
I3453116
sg19
S'10027.3259867'
p1035
sba(igraph
Edge
p1036
(dp1037
g7
I1
sg8
I00
sg9
I5
sg10
(lp1038
g130
ag182
asg26
I00
sg27
I00
sg28
I3453117
sg19
S'10027.3343967'
p1039
sba(igraph
Edge
p1040
(dp1041
g7
I1
sg8
I00
sg9
I5
sg10
(lp1042
g137
ag196
asg26
I00
sg27
I00
sg28
I3453118
sg19
S'10027.342586'
p1043
sba(igraph
Edge
p1044
(dp1045
g7
I1
sg8
I00
sg9
I5
sg10
(lp1046
g144
ag196
asg26
I00
sg27
I00
sg28
I3453119
sg19
S'10027.3508904'
p1047
sba(igraph
Edge
p1048
(dp1049
g7
I1
sg8
I00
sg9
I5
sg10
(lp1050
g151
ag210
asg26
I00
sg27
I00
sg28
I3453120
sg19
S'10027.3591141'
p1051
sba(igraph
Edge
p1052
(dp1053
g7
I1
sg8
I00
sg9
I5
sg10
(lp1054
g158
ag210
asg26
I00
sg27
I00
sg28
I3453121
sg19
S'10027.3675467'
p1055
sba(igraph
Edge
p1056
(dp1057
g7
I1
sg8
I00
sg9
I5
sg10
(lp1058
g165
ag224
asg26
I00
sg27
I00
sg28
I3453122
sg19
S'10027.3759668'
p1059
sba(igraph
Edge
p1060
(dp1061
g7
I1
sg8
I00
sg9
I5
sg10
(lp1062
g172
ag224
asg26
I00
sg27
I00
sg28
I3453123
sg19
S'10027.3842835'
p1063
sba(igraph
Edge
p1064
(dp1065
g7
I1
sg8
I00
sg9
I5
sg10
(lp1066
g127
ag179
asg26
I00
sg27
I00
sg28
I3453124
sg19
S'10027.4708325'
p1067
sba(igraph
Edge
p1068
(dp1069
g7
I1
sg8
I00
sg9
I5
sg10
(lp1070
g130
ag189
asg26
I00
sg27
I00
sg28
I3453125
sg19
S'10027.479764'
p1071
sba(igraph
Edge
p1072
(dp1073
g7
I1
sg8
I00
sg9
I5
sg10
(lp1074
g137
ag189
asg26
I00
sg27
I00
sg28
I3453126
sg19
S'10027.4885646'
p1075
sba(igraph
Edge
p1076
(dp1077
g7
I1
sg8
I00
sg9
I5
sg10
(lp1078
g144
ag203
asg26
I00
sg27
I00
sg28
I3453127
sg19
S'10027.4973372'
p1079
sba(igraph
Edge
p1080
(dp1081
g7
I1
sg8
I00
sg9
I5
sg10
(lp1082
g151
ag203
asg26
I00
sg27
I00
sg28
I3453128
sg19
S'10027.5059509'
p1083
sba(igraph
Edge
p1084
(dp1085
g7
I1
sg8
I00
sg9
I5
sg10
(lp1086
g158
ag217
asg26
I00
sg27
I00
sg28
I3453129
sg19
S'10027.5149115'
p1087
sba(igraph
Edge
p1088
(dp1089
g7
I1
sg8
I00
sg9
I5
sg10
(lp1090
g165
ag217
asg26
I00
sg27
I00
sg28
I3453130
sg19
S'10027.5236635'
p1091
sba(igraph
Edge
p1092
(dp1093
g7
I1
sg8
I00
sg9
I5
sg10
(lp1094
g179
ag234
asg26
I00
sg27
I00
sg28
I3453131
sg19
S'10027.6226224'
p1095
sba(igraph
Edge
p1096
(dp1097
g7
I1
sg8
I00
sg9
I5
sg10
(lp1098
g182
ag234
asg26
I00
sg27
I00
sg28
I3453132
sg19
S'10027.6316275'
p1099
sba(igraph
Edge
p1100
(dp1101
g7
I1
sg8
I00
sg9
I5
sg10
(lp1102
g189
ag248
asg26
I00
sg27
I00
sg28
I3453133
sg19
S'10027.640701'
p1103
sba(igraph
Edge
p1104
(dp1105
g7
I1
sg8
I00
sg9
I5
sg10
(lp1106
g196
ag248
asg26
I00
sg27
I00
sg28
I3453134
sg19
S'10027.6497979'
p1107
sba(igraph
Edge
p1108
(dp1109
g7
I1
sg8
I00
sg9
I5
sg10
(lp1110
g203
ag262
asg26
I00
sg27
I00
sg28
I3453135
sg19
S'10027.6589519'
p1111
sba(igraph
Edge
p1112
(dp1113
g7
I1
sg8
I00
sg9
I5
sg10
(lp1114
g210
ag262
asg26
I00
sg27
I00
sg28
I3453136
sg19
S'10027.6680343'
p1115
sba(igraph
Edge
p1116
(dp1117
g7
I1
sg8
I00
sg9
I5
sg10
(lp1118
g217
ag276
asg26
I00
sg27
I00
sg28
I3453137
sg19
S'10027.6771749'
p1119
sba(igraph
Edge
p1120
(dp1121
g7
I1
sg8
I00
sg9
I5
sg10
(lp1122
g224
ag276
asg26
I00
sg27
I00
sg28
I3453138
sg19
S'10027.6862389'
p1123
sba(igraph
Edge
p1124
(dp1125
g7
I1
sg8
I00
sg9
I5
sg10
(lp1126
g179
ag231
asg26
I00
sg27
I00
sg28
I3453139
sg19
S'10027.7800592'
p1127
sba(igraph
Edge
p1128
(dp1129
g7
I1
sg8
I00
sg9
I5
sg10
(lp1130
g182
ag241
asg26
I00
sg27
I00
sg28
I3453140
sg19
S'10027.7894453'
p1131
sba(igraph
Edge
p1132
(dp1133
g7
I1
sg8
I00
sg9
I5
sg10
(lp1134
g189
ag241
asg26
I00
sg27
I00
sg28
I3453141
sg19
S'10027.7988367'
p1135
sba(igraph
Edge
p1136
(dp1137
g7
I1
sg8
I00
sg9
I5
sg10
(lp1138
g196
ag255
asg26
I00
sg27
I00
sg28
I3453142
sg19
S'10027.8083709'
p1139
sba(igraph
Edge
p1140
(dp1141
g7
I1
sg8
I00
sg9
I5
sg10
(lp1142
g203
ag255
asg26
I00
sg27
I00
sg28
I3453143
sg19
S'10027.8178696'
p1143
sba(igraph
Edge
p1144
(dp1145
g7
I1
sg8
I00
sg9
I5
sg10
(lp1146
g210
ag269
asg26
I00
sg27
I00
sg28
I3453144
sg19
S'10027.8273825'
p1147
sba(igraph
Edge
p1148
(dp1149
g7
I1
sg8
I00
sg9
I5
sg10
(lp1150
g217
ag269
asg26
I00
sg27
I00
sg28
I3453145
sg19
S'10027.8368279'
p1151
sba(igraph
Edge
p1152
(dp1153
g7
I1
sg8
I00
sg9
I5
sg10
(lp1154
g231
ag286
asg26
I00
sg27
I00
sg28
I3453146
sg19
S'10027.9437758'
p1155
sba(igraph
Edge
p1156
(dp1157
g7
I1
sg8
I00
sg9
I5
sg10
(lp1158
g234
ag286
asg26
I00
sg27
I00
sg28
I3453147
sg19
S'10027.9534745'
p1159
sba(igraph
Edge
p1160
(dp1161
g7
I1
sg8
I00
sg9
I5
sg10
(lp1162
g241
ag300
asg26
I00
sg27
I00
sg28
I3453148
sg19
S'10027.9631182'
p1163
sba(igraph
Edge
p1164
(dp1165
g7
I1
sg8
I00
sg9
I5
sg10
(lp1166
g248
ag300
asg26
I00
sg27
I00
sg28
I3453149
sg19
S'10027.972882'
p1167
sba(igraph
Edge
p1168
(dp1169
g7
I1
sg8
I00
sg9
I5
sg10
(lp1170
g255
ag314
asg26
I00
sg27
I00
sg28
I3453150
sg19
S'10027.9825891'
p1171
sba(igraph
Edge
p1172
(dp1173
g7
I1
sg8
I00
sg9
I5
sg10
(lp1174
g262
ag314
asg26
I00
sg27
I00
sg28
I3453151
sg19
S'10027.9922605'
p1175
sba(igraph
Edge
p1176
(dp1177
g7
I1
sg8
I00
sg9
I5
sg10
(lp1178
g269
ag328
asg26
I00
sg27
I00
sg28
I3453152
sg19
S'10028.0020142'
p1179
sba(igraph
Edge
p1180
(dp1181
g7
I1
sg8
I00
sg9
I5
sg10
(lp1182
g276
ag328
asg26
I00
sg27
I00
sg28
I3453153
sg19
S'10028.0118049'
p1183
sba(igraph
Edge
p1184
(dp1185
g7
I1
sg8
I00
sg9
I5
sg10
(lp1186
g231
ag283
asg26
I00
sg27
I00
sg28
I3453154
sg19
S'10028.1151205'
p1187
sba(igraph
Edge
p1188
(dp1189
g7
I1
sg8
I00
sg9
I5
sg10
(lp1190
g234
ag293
asg26
I00
sg27
I00
sg28
I3453155
sg19
S'10028.1251793'
p1191
sba(igraph
Edge
p1192
(dp1193
g7
I1
sg8
I00
sg9
I5
sg10
(lp1194
g241
ag293
asg26
I00
sg27
I00
sg28
I3453156
sg19
S'10028.1352759'
p1195
sba(igraph
Edge
p1196
(dp1197
g7
I1
sg8
I00
sg9
I5
sg10
(lp1198
g248
ag307
asg26
I00
sg27
I00
sg28
I3453157
sg19
S'10028.1456459'
p1199
sba(igraph
Edge
p1200
(dp1201
g7
I1
sg8
I00
sg9
I5
sg10
(lp1202
g255
ag307
asg26
I00
sg27
I00
sg28
I3453158
sg19
S'10028.1557662'
p1203
sba(igraph
Edge
p1204
(dp1205
g7
I1
sg8
I00
sg9
I5
sg10
(lp1206
g262
ag321
asg26
I00
sg27
I00
sg28
I3453159
sg19
S'10028.1663371'
p1207
sba(igraph
Edge
p1208
(dp1209
g7
I1
sg8
I00
sg9
I5
sg10
(lp1210
g269
ag321
asg26
I00
sg27
I00
sg28
I3453160
sg19
S'10028.1764073'
p1211
sba(igraph
Edge
p1212
(dp1213
g7
I1
sg8
I00
sg9
I5
sg10
(lp1214
g283
ag338
asg26
I00
sg27
I00
sg28
I3453161
sg19
S'10028.2909132'
p1215
sba(igraph
Edge
p1216
(dp1217
g7
I1
sg8
I00
sg9
I5
sg10
(lp1218
g286
ag338
asg26
I00
sg27
I00
sg28
I3453162
sg19
S'10028.3015436'
p1219
sba(igraph
Edge
p1220
(dp1221
g7
I1
sg8
I00
sg9
I5
sg10
(lp1222
g293
ag352
asg26
I00
sg27
I00
sg28
I3453163
sg19
S'10028.3122659'
p1223
sba(igraph
Edge
p1224
(dp1225
g7
I1
sg8
I00
sg9
I5
sg10
(lp1226
g300
ag352
asg26
I00
sg27
I00
sg28
I3453164
sg19
S'10028.3227988'
p1227
sba(igraph
Edge
p1228
(dp1229
g7
I1
sg8
I00
sg9
I5
sg10
(lp1230
g307
ag366
asg26
I00
sg27
I00
sg28
I3453165
sg19
S'10028.3333236'
p1231
sba(igraph
Edge
p1232
(dp1233
g7
I1
sg8
I00
sg9
I5
sg10
(lp1234
g314
ag366
asg26
I00
sg27
I00
sg28
I3453166
sg19
S'10028.3438102'
p1235
sba(igraph
Edge
p1236
(dp1237
g7
I1
sg8
I00
sg9
I5
sg10
(lp1238
g321
ag380
asg26
I00
sg27
I00
sg28
I3453167
sg19
S'10028.3543436'
p1239
sba(igraph
Edge
p1240
(dp1241
g7
I1
sg8
I00
sg9
I5
sg10
(lp1242
g328
ag380
asg26
I00
sg27
I00
sg28
I3453168
sg19
S'10028.3649562'
p1243
sba(igraph
Edge
p1244
(dp1245
g7
I1
sg8
I00
sg9
I5
sg10
(lp1246
g283
ag335
asg26
I00
sg27
I00
sg28
I3453169
sg19
S'10028.4824225'
p1247
sba(igraph
Edge
p1248
(dp1249
g7
I1
sg8
I00
sg9
I5
sg10
(lp1250
g286
ag345
asg26
I00
sg27
I00
sg28
I3453170
sg19
S'10028.4936801'
p1251
sba(igraph
Edge
p1252
(dp1253
g7
I1
sg8
I00
sg9
I5
sg10
(lp1254
g293
ag345
asg26
I00
sg27
I00
sg28
I3453171
sg19
S'10028.5056006'
p1255
sba(igraph
Edge
p1256
(dp1257
g7
I1
sg8
I00
sg9
I5
sg10
(lp1258
g300
ag359
asg26
I00
sg27
I00
sg28
I3453172
sg19
S'10028.5169752'
p1259
sba(igraph
Edge
p1260
(dp1261
g7
I1
sg8
I00
sg9
I5
sg10
(lp1262
g307
ag359
asg26
I00
sg27
I00
sg28
I3453173
sg19
S'10028.5281814'
p1263
sba(igraph
Edge
p1264
(dp1265
g7
I1
sg8
I00
sg9
I5
sg10
(lp1266
g314
ag373
asg26
I00
sg27
I00
sg28
I3453174
sg19
S'10028.5400298'
p1267
sba(igraph
Edge
p1268
(dp1269
g7
I1
sg8
I00
sg9
I5
sg10
(lp1270
g321
ag373
asg26
I00
sg27
I00
sg28
I3453175
sg19
S'10028.5521389'
p1271
sba(igraph
Edge
p1272
(dp1273
g7
I1
sg8
I00
sg9
I5
sg10
(lp1274
g335
ag390
asg26
I00
sg27
I00
sg28
I3453176
sg19
S'10028.6935474'
p1275
sba(igraph
Edge
p1276
(dp1277
g7
I1
sg8
I00
sg9
I5
sg10
(lp1278
g338
ag390
asg26
I00
sg27
I00
sg28
I3453177
sg19
S'10028.707115'
p1279
sba(igraph
Edge
p1280
(dp1281
g7
I1
sg8
I00
sg9
I5
sg10
(lp1282
g345
ag404
asg26
I00
sg27
I00
sg28
I3453178
sg19
S'10028.7188861'
p1283
sba(igraph
Edge
p1284
(dp1285
g7
I1
sg8
I00
sg9
I5
sg10
(lp1286
g352
ag404
asg26
I00
sg27
I00
sg28
I3453179
sg19
S'10028.730896'
p1287
sba(igraph
Edge
p1288
(dp1289
g7
I1
sg8
I00
sg9
I5
sg10
(lp1290
g359
ag418
asg26
I00
sg27
I00
sg28
I3453180
sg19
S'10028.7426927'
p1291
sba(igraph
Edge
p1292
(dp1293
g7
I1
sg8
I00
sg9
I5
sg10
(lp1294
g366
ag418
asg26
I00
sg27
I00
sg28
I3453181
sg19
S'10028.7546115'
p1295
sba(igraph
Edge
p1296
(dp1297
g7
I1
sg8
I00
sg9
I5
sg10
(lp1298
g373
ag432
asg26
I00
sg27
I00
sg28
I3453182
sg19
S'10028.766358'
p1299
sba(igraph
Edge
p1300
(dp1301
g7
I1
sg8
I00
sg9
I5
sg10
(lp1302
g380
ag432
asg26
I00
sg27
I00
sg28
I3453183
sg19
S'10028.7786409'
p1303
sba(igraph
Edge
p1304
(dp1305
g7
I1
sg8
I00
sg9
I5
sg10
(lp1306
g335
ag387
asg26
I00
sg27
I00
sg28
I3453184
sg19
S'10028.903374'
p1307
sba(igraph
Edge
p1308
(dp1309
g7
I1
sg8
I00
sg9
I5
sg10
(lp1310
g338
ag397
asg26
I00
sg27
I00
sg28
I3453185
sg19
S'10028.9153018'
p1311
sba(igraph
Edge
p1312
(dp1313
g7
I1
sg8
I00
sg9
I5
sg10
(lp1314
g345
ag397
asg26
I00
sg27
I00
sg28
I3453186
sg19
S'10028.9272637'
p1315
sba(igraph
Edge
p1316
(dp1317
g7
I1
sg8
I00
sg9
I5
sg10
(lp1318
g352
ag411
asg26
I00
sg27
I00
sg28
I3453187
sg19
S'10028.9389517'
p1319
sba(igraph
Edge
p1320
(dp1321
g7
I1
sg8
I00
sg9
I5
sg10
(lp1322
g359
ag411
asg26
I00
sg27
I00
sg28
I3453188
sg19
S'10028.9505811'
p1323
sba(igraph
Edge
p1324
(dp1325
g7
I1
sg8
I00
sg9
I5
sg10
(lp1326
g366
ag425
asg26
I00
sg27
I00
sg28
I3453189
sg19
S'10028.9622284'
p1327
sba(igraph
Edge
p1328
(dp1329
g7
I1
sg8
I00
sg9
I5
sg10
(lp1330
g373
ag425
asg26
I00
sg27
I00
sg28
I3453190
sg19
S'10028.9741691'
p1331
sba(igraph
Edge
p1332
(dp1333
g7
I1
sg8
I00
sg9
I5
sg10
(lp1334
g387
ag442
asg26
I00
sg27
I00
sg28
I3453191
sg19
S'10029.1200544'
p1335
sba(igraph
Edge
p1336
(dp1337
g7
I1
sg8
I00
sg9
I5
sg10
(lp1338
g390
ag442
asg26
I00
sg27
I00
sg28
I3453192
sg19
S'10029.1323428'
p1339
sba(igraph
Edge
p1340
(dp1341
g7
I1
sg8
I00
sg9
I5
sg10
(lp1342
g397
ag456
asg26
I00
sg27
I00
sg28
I3453193
sg19
S'10029.1448665'
p1343
sba(igraph
Edge
p1344
(dp1345
g7
I1
sg8
I00
sg9
I5
sg10
(lp1346
g404
ag456
asg26
I00
sg27
I00
sg28
I3453194
sg19
S'10029.1572247'
p1347
sba(igraph
Edge
p1348
(dp1349
g7
I1
sg8
I00
sg9
I5
sg10
(lp1350
g411
ag470
asg26
I00
sg27
I00
sg28
I3453195
sg19
S'10029.1709033'
p1351
sba(igraph
Edge
p1352
(dp1353
g7
I1
sg8
I00
sg9
I5
sg10
(lp1354
g418
ag470
asg26
I00
sg27
I00
sg28
I3453196
sg19
S'10029.1839684'
p1355
sba(igraph
Edge
p1356
(dp1357
g7
I1
sg8
I00
sg9
I5
sg10
(lp1358
g425
ag484
asg26
I00
sg27
I00
sg28
I3453197
sg19
S'10029.1973717'
p1359
sba(igraph
Edge
p1360
(dp1361
g7
I1
sg8
I00
sg9
I5
sg10
(lp1362
g432
ag484
asg26
I00
sg27
I00
sg28
I3453198
sg19
S'10029.2104267'
p1363
sba(igraph
Edge
p1364
(dp1365
g7
I1
sg8
I00
sg9
I5
sg10
(lp1366
g387
ag439
asg26
I00
sg27
I00
sg28
I3453199
sg19
S'10029.3411448'
p1367
sba(igraph
Edge
p1368
(dp1369
g7
I1
sg8
I00
sg9
I5
sg10
(lp1370
g390
ag449
asg26
I00
sg27
I00
sg28
I3453200
sg19
S'10029.3551091'
p1371
sba(igraph
Edge
p1372
(dp1373
g7
I1
sg8
I00
sg9
I5
sg10
(lp1374
g397
ag449
asg26
I00
sg27
I00
sg28
I3453201
sg19
S'10029.3708295'
p1375
sba(igraph
Edge
p1376
(dp1377
g7
I1
sg8
I00
sg9
I5
sg10
(lp1378
g404
ag463
asg26
I00
sg27
I00
sg28
I3453202
sg19
S'10029.3837345'
p1379
sba(igraph
Edge
p1380
(dp1381
g7
I1
sg8
I00
sg9
I5
sg10
(lp1382
g411
ag463
asg26
I00
sg27
I00
sg28
I3453203
sg19
S'10029.3965398'
p1383
sba(igraph
Edge
p1384
(dp1385
g7
I1
sg8
I00
sg9
I5
sg10
(lp1386
g418
ag477
asg26
I00
sg27
I00
sg28
I3453204
sg19
S'10029.4093252'
p1387
sba(igraph
Edge
p1388
(dp1389
g7
I1
sg8
I00
sg9
I5
sg10
(lp1390
g425
ag477
asg26
I00
sg27
I00
sg28
I3453205
sg19
S'10029.4225353'
p1391
sba(igraph
Edge
p1392
(dp1393
g7
I1
sg8
I00
sg9
I5
sg10
(lp1394
g439
ag494
asg26
I00
sg27
I00
sg28
I3453206
sg19
S'10029.5748013'
p1395
sba(igraph
Edge
p1396
(dp1397
g7
I1
sg8
I00
sg9
I5
sg10
(lp1398
g442
ag494
asg26
I00
sg27
I00
sg28
I3453207
sg19
S'10029.5899579'
p1399
sba(igraph
Edge
p1400
(dp1401
g7
I1
sg8
I00
sg9
I5
sg10
(lp1402
g449
ag508
asg26
I00
sg27
I00
sg28
I3453208
sg19
S'10029.6027422'
p1403
sba(igraph
Edge
p1404
(dp1405
g7
I1
sg8
I00
sg9
I5
sg10
(lp1406
g456
ag508
asg26
I00
sg27
I00
sg28
I3453209
sg19
S'10029.6155159'
p1407
sba(igraph
Edge
p1408
(dp1409
g7
I1
sg8
I00
sg9
I5
sg10
(lp1410
g463
ag522
asg26
I00
sg27
I00
sg28
I3453210
sg19
S'10029.6283354'
p1411
sba(igraph
Edge
p1412
(dp1413
g7
I1
sg8
I00
sg9
I5
sg10
(lp1414
g470
ag522
asg26
I00
sg27
I00
sg28
I3453211
sg19
S'10029.641243'
p1415
sba(igraph
Edge
p1416
(dp1417
g7
I1
sg8
I00
sg9
I5
sg10
(lp1418
g477
ag536
asg26
I00
sg27
I00
sg28
I3453212
sg19
S'10029.6540767'
p1419
sba(igraph
Edge
p1420
(dp1421
g7
I1
sg8
I00
sg9
I5
sg10
(lp1422
g484
ag536
asg26
I00
sg27
I00
sg28
I3453213
sg19
S'10029.666989'
p1423
sba(igraph
Edge
p1424
(dp1425
g7
I1
sg8
I00
sg9
I5
sg10
(lp1426
g439
ag491
asg26
I00
sg27
I00
sg28
I3453214
sg19
S'10029.7977486'
p1427
sba(igraph
Edge
p1428
(dp1429
g7
I1
sg8
I00
sg9
I5
sg10
(lp1430
g442
ag501
asg26
I00
sg27
I00
sg28
I3453215
sg19
S'10029.8108413'
p1431
sba(igraph
Edge
p1432
(dp1433
g7
I1
sg8
I00
sg9
I5
sg10
(lp1434
g449
ag501
asg26
I00
sg27
I00
sg28
I3453216
sg19
S'10029.8238782'
p1435
sba(igraph
Edge
p1436
(dp1437
g7
I1
sg8
I00
sg9
I5
sg10
(lp1438
g456
ag515
asg26
I00
sg27
I00
sg28
I3453217
sg19
S'10029.8369318'
p1439
sba(igraph
Edge
p1440
(dp1441
g7
I1
sg8
I00
sg9
I5
sg10
(lp1442
g463
ag515
asg26
I00
sg27
I00
sg28
I3453218
sg19
S'10029.8502491'
p1443
sba(igraph
Edge
p1444
(dp1445
g7
I1
sg8
I00
sg9
I5
sg10
(lp1446
g470
ag529
asg26
I00
sg27
I00
sg28
I3453219
sg19
S'10029.8636329'
p1447
sba(igraph
Edge
p1448
(dp1449
g7
I1
sg8
I00
sg9
I5
sg10
(lp1450
g477
ag529
asg26
I00
sg27
I00
sg28
I3453220
sg19
S'10029.8769922'
p1451
sba(igraph
Edge
p1452
(dp1453
g7
I1
sg8
I00
sg9
I5
sg10
(lp1454
g491
ag546
asg26
I00
sg27
I00
sg28
I3453221
sg19
S'10030.0242589'
p1455
sba(igraph
Edge
p1456
(dp1457
g7
I1
sg8
I00
sg9
I5
sg10
(lp1458
g494
ag546
asg26
I00
sg27
I00
sg28
I3453222
sg19
S'10030.037766'
p1459
sba(igraph
Edge
p1460
(dp1461
g7
I1
sg8
I00
sg9
I5
sg10
(lp1462
g501
ag560
asg26
I00
sg27
I00
sg28
I3453223
sg19
S'10030.0516057'
p1463
sba(igraph
Edge
p1464
(dp1465
g7
I1
sg8
I00
sg9
I5
sg10
(lp1466
g508
ag560
asg26
I00
sg27
I00
sg28
I3453224
sg19
S'10030.0656785'
p1467
sba(igraph
Edge
p1468
(dp1469
g7
I1
sg8
I00
sg9
I5
sg10
(lp1470
g515
ag574
asg26
I00
sg27
I00
sg28
I3453225
sg19
S'10030.0805706'
p1471
sba(igraph
Edge
p1472
(dp1473
g7
I1
sg8
I00
sg9
I5
sg10
(lp1474
g522
ag574
asg26
I00
sg27
I00
sg28
I3453226
sg19
S'10030.0941338'
p1475
sba(igraph
Edge
p1476
(dp1477
g7
I1
sg8
I00
sg9
I5
sg10
(lp1478
g529
ag588
asg26
I00
sg27
I00
sg28
I3453227
sg19
S'10030.1078461'
p1479
sba(igraph
Edge
p1480
(dp1481
g7
I1
sg8
I00
sg9
I5
sg10
(lp1482
g536
ag588
asg26
I00
sg27
I00
sg28
I3453228
sg19
S'10030.1215152'
p1483
sba(igraph
Edge
p1484
(dp1485
g7
I1
sg8
I00
sg9
I5
sg10
(lp1486
g491
ag543
asg26
I00
sg27
I00
sg28
I3453229
sg19
S'10030.259964'
p1487
sba(igraph
Edge
p1488
(dp1489
g7
I1
sg8
I00
sg9
I5
sg10
(lp1490
g494
ag553
asg26
I00
sg27
I00
sg28
I3453230
sg19
S'10030.2738569'
p1491
sba(igraph
Edge
p1492
(dp1493
g7
I1
sg8
I00
sg9
I5
sg10
(lp1494
g501
ag553
asg26
I00
sg27
I00
sg28
I3453231
sg19
S'10030.2876583'
p1495
sba(igraph
Edge
p1496
(dp1497
g7
I1
sg8
I00
sg9
I5
sg10
(lp1498
g508
ag567
asg26
I00
sg27
I00
sg28
I3453232
sg19
S'10030.3016043'
p1499
sba(igraph
Edge
p1500
(dp1501
g7
I1
sg8
I00
sg9
I5
sg10
(lp1502
g515
ag567
asg26
I00
sg27
I00
sg28
I3453233
sg19
S'10030.315515'
p1503
sba(igraph
Edge
p1504
(dp1505
g7
I1
sg8
I00
sg9
I5
sg10
(lp1506
g522
ag581
asg26
I00
sg27
I00
sg28
I3453234
sg19
S'10030.3294064'
p1507
sba(igraph
Edge
p1508
(dp1509
g7
I1
sg8
I00
sg9
I5
sg10
(lp1510
g529
ag581
asg26
I00
sg27
I00
sg28
I3453235
sg19
S'10030.3431579'
p1511
sba(igraph
Edge
p1512
(dp1513
g7
I1
sg8
I00
sg9
I5
sg10
(lp1514
g543
ag598
asg26
I00
sg27
I00
sg28
I3453236
sg19
S'10030.5008394'
p1515
sba(igraph
Edge
p1516
(dp1517
g7
I1
sg8
I00
sg9
I5
sg10
(lp1518
g546
ag598
asg26
I00
sg27
I00
sg28
I3453237
sg19
S'10030.5149543'
p1519
sba(igraph
Edge
p1520
(dp1521
g7
I1
sg8
I00
sg9
I5
sg10
(lp1522
g553
ag612
asg26
I00
sg27
I00
sg28
I3453238
sg19
S'10030.5290611'
p1523
sba(igraph
Edge
p1524
(dp1525
g7
I1
sg8
I00
sg9
I5
sg10
(lp1526
g560
ag612
asg26
I00
sg27
I00
sg28
I3453239
sg19
S'10030.5433827'
p1527
sba(igraph
Edge
p1528
(dp1529
g7
I1
sg8
I00
sg9
I5
sg10
(lp1530
g567
ag626
asg26
I00
sg27
I00
sg28
I3453240
sg19
S'10030.5575756'
p1531
sba(igraph
Edge
p1532
(dp1533
g7
I1
sg8
I00
sg9
I5
sg10
(lp1534
g574
ag626
asg26
I00
sg27
I00
sg28
I3453241
sg19
S'10030.5728801'
p1535
sba(igraph
Edge
p1536
(dp1537
g7
I1
sg8
I00
sg9
I5
sg10
(lp1538
g581
ag640
asg26
I00
sg27
I00
sg28
I3453242
sg19
S'10030.5881639'
p1539
sba(igraph
Edge
p1540
(dp1541
g7
I1
sg8
I00
sg9
I5
sg10
(lp1542
g588
ag640
asg26
I00
sg27
I00
sg28
I3453243
sg19
S'10030.6027774'
p1543
sba(igraph
Edge
p1544
(dp1545
g7
I1
sg8
I00
sg9
I5
sg10
(lp1546
g543
ag595
asg26
I00
sg27
I00
sg28
I3453244
sg19
S'10030.7483236'
p1547
sba(igraph
Edge
p1548
(dp1549
g7
I1
sg8
I00
sg9
I5
sg10
(lp1550
g546
ag605
asg26
I00
sg27
I00
sg28
I3453245
sg19
S'10030.7628869'
p1551
sba(igraph
Edge
p1552
(dp1553
g7
I1
sg8
I00
sg9
I5
sg10
(lp1554
g553
ag605
asg26
I00
sg27
I00
sg28
I3453246
sg19
S'10030.7789454'
p1555
sba(igraph
Edge
p1556
(dp1557
g7
I1
sg8
I00
sg9
I5
sg10
(lp1558
g560
ag619
asg26
I00
sg27
I00
sg28
I3453247
sg19
S'10030.7939425'
p1559
sba(igraph
Edge
p1560
(dp1561
g7
I1
sg8
I00
sg9
I5
sg10
(lp1562
g567
ag619
asg26
I00
sg27
I00
sg28
I3453248
sg19
S'10030.8086581'
p1563
sba(igraph
Edge
p1564
(dp1565
g7
I1
sg8
I00
sg9
I5
sg10
(lp1566
g574
ag633
asg26
I00
sg27
I00
sg28
I3453249
sg19
S'10030.8235021'
p1567
sba(igraph
Edge
p1568
(dp1569
g7
I1
sg8
I00
sg9
I5
sg10
(lp1570
g581
ag633
asg26
I00
sg27
I00
sg28
I3453250
sg19
S'10030.8381616'
p1571
sba(igraph
Edge
p1572
(dp1573
g7
I1
sg8
I00
sg9
I5
sg10
(lp1574
g595
ag650
asg26
I00
sg27
I00
sg28
I3453251
sg19
S'10031.0167228'
p1575
sba(igraph
Edge
p1576
(dp1577
g7
I1
sg8
I00
sg9
I5
sg10
(lp1578
g598
ag650
asg26
I00
sg27
I00
sg28
I3453252
sg19
S'10031.0332593'
p1579
sba(igraph
Edge
p1580
(dp1581
g7
I1
sg8
I00
sg9
I5
sg10
(lp1582
g605
ag664
asg26
I00
sg27
I00
sg28
I3453253
sg19
S'10031.0487364'
p1583
sba(igraph
Edge
p1584
(dp1585
g7
I1
sg8
I00
sg9
I5
sg10
(lp1586
g612
ag664
asg26
I00
sg27
I00
sg28
I3453254
sg19
S'10031.0639799'
p1587
sba(igraph
Edge
p1588
(dp1589
g7
I1
sg8
I00
sg9
I5
sg10
(lp1590
g619
ag678
asg26
I00
sg27
I00
sg28
I3453255
sg19
S'10031.080094'
p1591
sba(igraph
Edge
p1592
(dp1593
g7
I1
sg8
I00
sg9
I5
sg10
(lp1594
g626
ag678
asg26
I00
sg27
I00
sg28
I3453256
sg19
S'10031.0954264'
p1595
sba(igraph
Edge
p1596
(dp1597
g7
I1
sg8
I00
sg9
I5
sg10
(lp1598
g633
ag692
asg26
I00
sg27
I00
sg28
I3453257
sg19
S'10031.1107104'
p1599
sba(igraph
Edge
p1600
(dp1601
g7
I1
sg8
I00
sg9
I5
sg10
(lp1602
g640
ag692
asg26
I00
sg27
I00
sg28
I3453258
sg19
S'10031.1258263'
p1603
sba(igraph
Edge
p1604
(dp1605
g7
I1
sg8
I00
sg9
I5
sg10
(lp1606
g595
ag647
asg26
I00
sg27
I00
sg28
I3453259
sg19
S'10031.278463'
p1607
sba(igraph
Edge
p1608
(dp1609
g7
I1
sg8
I00
sg9
I5
sg10
(lp1610
g598
ag657
asg26
I00
sg27
I00
sg28
I3453260
sg19
S'10031.2940404'
p1611
sba(igraph
Edge
p1612
(dp1613
g7
I1
sg8
I00
sg9
I5
sg10
(lp1614
g605
ag657
asg26
I00
sg27
I00
sg28
I3453261
sg19
S'10031.3093527'
p1615
sba(igraph
Edge
p1616
(dp1617
g7
I1
sg8
I00
sg9
I5
sg10
(lp1618
g612
ag671
asg26
I00
sg27
I00
sg28
I3453262
sg19
S'10031.3248497'
p1619
sba(igraph
Edge
p1620
(dp1621
g7
I1
sg8
I00
sg9
I5
sg10
(lp1622
g619
ag671
asg26
I00
sg27
I00
sg28
I3453263
sg19
S'10031.3403799'
p1623
sba(igraph
Edge
p1624
(dp1625
g7
I1
sg8
I00
sg9
I5
sg10
(lp1626
g626
ag685
asg26
I00
sg27
I00
sg28
I3453264
sg19
S'10031.3557296'
p1627
sba(igraph
Edge
p1628
(dp1629
g7
I1
sg8
I00
sg9
I5
sg10
(lp1630
g633
ag685
asg26
I00
sg27
I00
sg28
I3453265
sg19
S'10031.371236'
p1631
sba(igraph
Edge
p1632
(dp1633
g7
I1
sg8
I00
sg9
I5
sg10
(lp1634
g647
ag702
asg26
I00
sg27
I00
sg28
I3453266
sg19
S'10031.541868'
p1635
sba(igraph
Edge
p1636
(dp1637
g7
I1
sg8
I00
sg9
I5
sg10
(lp1638
g650
ag702
asg26
I00
sg27
I00
sg28
I3453267
sg19
S'10031.5575558'
p1639
sba(igraph
Edge
p1640
(dp1641
g7
I1
sg8
I00
sg9
I5
sg10
(lp1642
g657
ag716
asg26
I00
sg27
I00
sg28
I3453268
sg19
S'10031.5734382'
p1643
sba(igraph
Edge
p1644
(dp1645
g7
I1
sg8
I00
sg9
I5
sg10
(lp1646
g664
ag716
asg26
I00
sg27
I00
sg28
I3453269
sg19
S'10031.5909963'
p1647
sba(igraph
Edge
p1648
(dp1649
g7
I1
sg8
I00
sg9
I5
sg10
(lp1650
g671
ag730
asg26
I00
sg27
I00
sg28
I3453270
sg19
S'10031.6066855'
p1651
sba(igraph
Edge
p1652
(dp1653
g7
I1
sg8
I00
sg9
I5
sg10
(lp1654
g678
ag730
asg26
I00
sg27
I00
sg28
I3453271
sg19
S'10031.622364'
p1655
sba(igraph
Edge
p1656
(dp1657
g7
I1
sg8
I00
sg9
I5
sg10
(lp1658
g685
ag744
asg26
I00
sg27
I00
sg28
I3453272
sg19
S'10031.6380532'
p1659
sba(igraph
Edge
p1660
(dp1661
g7
I1
sg8
I00
sg9
I5
sg10
(lp1662
g692
ag744
asg26
I00
sg27
I00
sg28
I3453273
sg19
S'10031.6537895'
p1663
sba(igraph
Edge
p1664
(dp1665
g7
I1
sg8
I00
sg9
I5
sg10
(lp1666
g647
ag699
asg26
I00
sg27
I00
sg28
I3453274
sg19
S'10031.8136526'
p1667
sba(igraph
Edge
p1668
(dp1669
g7
I1
sg8
I00
sg9
I5
sg10
(lp1670
g650
ag709
asg26
I00
sg27
I00
sg28
I3453275
sg19
S'10031.8300784'
p1671
sba(igraph
Edge
p1672
(dp1673
g7
I1
sg8
I00
sg9
I5
sg10
(lp1674
g657
ag709
asg26
I00
sg27
I00
sg28
I3453276
sg19
S'10031.8459405'
p1675
sba(igraph
Edge
p1676
(dp1677
g7
I1
sg8
I00
sg9
I5
sg10
(lp1678
g664
ag723
asg26
I00
sg27
I00
sg28
I3453277
sg19
S'10031.8618838'
p1679
sba(igraph
Edge
p1680
(dp1681
g7
I1
sg8
I00
sg9
I5
sg10
(lp1682
g671
ag723
asg26
I00
sg27
I00
sg28
I3453278
sg19
S'10031.87783'
p1683
sba(igraph
Edge
p1684
(dp1685
g7
I1
sg8
I00
sg9
I5
sg10
(lp1686
g678
ag737
asg26
I00
sg27
I00
sg28
I3453279
sg19
S'10031.8937974'
p1687
sba(igraph
Edge
p1688
(dp1689
g7
I1
sg8
I00
sg9
I5
sg10
(lp1690
g685
ag737
asg26
I00
sg27
I00
sg28
I3453280
sg19
S'10031.9098536'
p1691
sba(igraph
Edge
p1692
(dp1693
g7
I1
sg8
I00
sg9
I5
sg10
(lp1694
g699
ag754
asg26
I00
sg27
I00
sg28
I3453281
sg19
S'10032.0910783'
p1695
sba(igraph
Edge
p1696
(dp1697
g7
I1
sg8
I00
sg9
I5
sg10
(lp1698
g702
ag754
asg26
I00
sg27
I00
sg28
I3453282
sg19
S'10032.1074938'
p1699
sba(igraph
Edge
p1700
(dp1701
g7
I1
sg8
I00
sg9
I5
sg10
(lp1702
g709
ag768
asg26
I00
sg27
I00
sg28
I3453283
sg19
S'10032.1239423'
p1703
sba(igraph
Edge
p1704
(dp1705
g7
I1
sg8
I00
sg9
I5
sg10
(lp1706
g716
ag768
asg26
I00
sg27
I00
sg28
I3453284
sg19
S'10032.1401932'
p1707
sba(igraph
Edge
p1708
(dp1709
g7
I1
sg8
I00
sg9
I5
sg10
(lp1710
g723
ag782
asg26
I00
sg27
I00
sg28
I3453285
sg19
S'10032.156381'
p1711
sba(igraph
Edge
p1712
(dp1713
g7
I1
sg8
I00
sg9
I5
sg10
(lp1714
g730
ag782
asg26
I00
sg27
I00
sg28
I3453286
sg19
S'10032.1727125'
p1715
sba(igraph
Edge
p1716
(dp1717
g7
I1
sg8
I00
sg9
I5
sg10
(lp1718
g737
ag796
asg26
I00
sg27
I00
sg28
I3453287
sg19
S'10032.1890249'
p1719
sba(igraph
Edge
p1720
(dp1721
g7
I1
sg8
I00
sg9
I5
sg10
(lp1722
g744
ag796
asg26
I00
sg27
I00
sg28
I3453288
sg19
S'10032.2053551'
p1723
sba(igraph
Edge
p1724
(dp1725
g7
I1
sg8
I00
sg9
I5
sg10
(lp1726
g699
ag751
asg26
I00
sg27
I00
sg28
I3453289
sg19
S'10032.3756723'
p1727
sba(igraph
Edge
p1728
(dp1729
g7
I1
sg8
I00
sg9
I5
sg10
(lp1730
g702
ag761
asg26
I00
sg27
I00
sg28
I3453290
sg19
S'10032.3927946'
p1731
sba(igraph
Edge
p1732
(dp1733
g7
I1
sg8
I00
sg9
I5
sg10
(lp1734
g709
ag761
asg26
I00
sg27
I00
sg28
I3453291
sg19
S'10032.4094573'
p1735
sba(igraph
Edge
p1736
(dp1737
g7
I1
sg8
I00
sg9
I5
sg10
(lp1738
g716
ag775
asg26
I00
sg27
I00
sg28
I3453292
sg19
S'10032.4262341'
p1739
sba(igraph
Edge
p1740
(dp1741
g7
I1
sg8
I00
sg9
I5
sg10
(lp1742
g723
ag775
asg26
I00
sg27
I00
sg28
I3453293
sg19
S'10032.4437293'
p1743
sba(igraph
Edge
p1744
(dp1745
g7
I1
sg8
I00
sg9
I5
sg10
(lp1746
g730
ag789
asg26
I00
sg27
I00
sg28
I3453294
sg19
S'10032.4613648'
p1747
sba(igraph
Edge
p1748
(dp1749
g7
I1
sg8
I00
sg9
I5
sg10
(lp1750
g737
ag789
asg26
I00
sg27
I00
sg28
I3453295
sg19
S'10032.4784924'
p1751
sba(igraph
Edge
p1752
(dp1753
g7
I1
sg8
I00
sg9
I5
sg10
(lp1754
g751
ag806
asg26
I00
sg27
I00
sg28
I3453296
sg19
S'10032.6728475'
p1755
sba(igraph
Edge
p1756
(dp1757
g7
I1
sg8
I00
sg9
I5
sg10
(lp1758
g754
ag806
asg26
I00
sg27
I00
sg28
I3453297
sg19
S'10032.6901768'
p1759
sba(igraph
Edge
p1760
(dp1761
g7
I1
sg8
I00
sg9
I5
sg10
(lp1762
g761
ag820
asg26
I00
sg27
I00
sg28
I3453298
sg19
S'10032.7074273'
p1763
sba(igraph
Edge
p1764
(dp1765
g7
I1
sg8
I00
sg9
I5
sg10
(lp1766
g768
ag820
asg26
I00
sg27
I00
sg28
I3453299
sg19
S'10032.7248424'
p1767
sba(igraph
Edge
p1768
(dp1769
g7
I1
sg8
I00
sg9
I5
sg10
(lp1770
g775
ag834
asg26
I00
sg27
I00
sg28
I3453300
sg19
S'10032.7420826'
p1771
sba(igraph
Edge
p1772
(dp1773
g7
I1
sg8
I00
sg9
I5
sg10
(lp1774
g782
ag834
asg26
I00
sg27
I00
sg28
I3453301
sg19
S'10032.759399'
p1775
sba(igraph
Edge
p1776
(dp1777
g7
I1
sg8
I00
sg9
I5
sg10
(lp1778
g789
ag848
asg26
I00
sg27
I00
sg28
I3453302
sg19
S'10032.7767395'
p1779
sba(igraph
Edge
p1780
(dp1781
g7
I1
sg8
I00
sg9
I5
sg10
(lp1782
g796
ag848
asg26
I00
sg27
I00
sg28
I3453303
sg19
S'10032.7940716'
p1783
sba(igraph
Edge
p1784
(dp1785
g7
I1
sg8
I00
sg9
I5
sg10
(lp1786
g751
ag803
asg26
I00
sg27
I00
sg28
I3453304
sg19
S'10032.9718671'
p1787
sba(igraph
Edge
p1788
(dp1789
g7
I1
sg8
I00
sg9
I5
sg10
(lp1790
g754
ag813
asg26
I00
sg27
I00
sg28
I3453305
sg19
S'10032.9893573'
p1791
sba(igraph
Edge
p1792
(dp1793
g7
I1
sg8
I00
sg9
I5
sg10
(lp1794
g761
ag813
asg26
I00
sg27
I00
sg28
I3453306
sg19
S'10033.0069707'
p1795
sba(igraph
Edge
p1796
(dp1797
g7
I1
sg8
I00
sg9
I5
sg10
(lp1798
g768
ag827
asg26
I00
sg27
I00
sg28
I3453307
sg19
S'10033.0266232'
p1799
sba(igraph
Edge
p1800
(dp1801
g7
I1
sg8
I00
sg9
I5
sg10
(lp1802
g775
ag827
asg26
I00
sg27
I00
sg28
I3453308
sg19
S'10033.0494605'
p1803
sba(igraph
Edge
p1804
(dp1805
g7
I1
sg8
I00
sg9
I5
sg10
(lp1806
g782
ag841
asg26
I00
sg27
I00
sg28
I3453309
sg19
S'10033.0694893'
p1807
sba(igraph
Edge
p1808
(dp1809
g7
I1
sg8
I00
sg9
I5
sg10
(lp1810
g789
ag841
asg26
I00
sg27
I00
sg28
I3453310
sg19
S'10033.0913999'
p1811
sba(igraph
Edge
p1812
(dp1813
g7
I1
sg8
I00
sg9
I5
sg10
(lp1814
g848
ag803
asg26
I00
sg27
I00
sg28
I3453311
sg19
S'11163.5610839'
p1815
sba(igraph
Edge
p1816
(dp1817
g7
I1
sg8
I00
sg9
I5
sg10
(lp1818
g803
ag796
asg26
I00
sg27
I00
sg28
I3453312
sg19
S'11165.3617407'
p1819
sba(igraph
Edge
p1820
(dp1821
g7
I1
sg8
I00
sg9
I5
sg10
(lp1822
g796
ag751
asg26
I00
sg27
I00
sg28
I3453313
sg19
S'11167.2300762'
p1823
sba(igraph
Edge
p1824
(dp1825
g7
I1
sg8
I00
sg9
I5
sg10
(lp1826
g751
ag744
asg26
I00
sg27
I00
sg28
I3453314
sg19
S'11169.0838067'
p1827
sba(igraph
Edge
p1828
(dp1829
g7
I1
sg8
I00
sg9
I5
sg10
(lp1830
g744
ag699
asg26
I00
sg27
I00
sg28
I3453315
sg19
S'11170.5246929'
p1831
sba(igraph
Edge
p1832
(dp1833
g7
I1
sg8
I00
sg9
I5
sg10
(lp1834
g699
ag692
asg26
I00
sg27
I00
sg28
I3453316
sg19
S'11172.2337683'
p1835
sba(igraph
Edge
p1836
(dp1837
g7
I1
sg8
I00
sg9
I5
sg10
(lp1838
g692
ag647
asg26
I00
sg27
I00
sg28
I3453317
sg19
S'11173.7213624'
p1839
sba(igraph
Edge
p1840
(dp1841
g7
I1
sg8
I00
sg9
I5
sg10
(lp1842
g647
ag640
asg26
I00
sg27
I00
sg28
I3453318
sg19
S'11175.528209'
p1843
sba(igraph
Edge
p1844
(dp1845
g7
I1
sg8
I00
sg9
I5
sg10
(lp1846
g640
ag595
asg26
I00
sg27
I00
sg28
I3453319
sg19
S'11177.1515681'
p1847
sba(igraph
Edge
p1848
(dp1849
g7
I1
sg8
I00
sg9
I5
sg10
(lp1850
g595
ag588
asg26
I00
sg27
I00
sg28
I3453320
sg19
S'11179.802678'
p1851
sba(igraph
Edge
p1852
(dp1853
g7
I1
sg8
I00
sg9
I5
sg10
(lp1854
g588
ag543
asg26
I00
sg27
I00
sg28
I3453321
sg19
S'11181.4222612'
p1855
sba(igraph
Edge
p1856
(dp1857
g7
I1
sg8
I00
sg9
I5
sg10
(lp1858
g543
ag536
asg26
I00
sg27
I00
sg28
I3453322
sg19
S'11182.8771408'
p1859
sba(igraph
Edge
p1860
(dp1861
g7
I1
sg8
I00
sg9
I5
sg10
(lp1862
g536
ag491
asg26
I00
sg27
I00
sg28
I3453323
sg19
S'11184.7929044'
p1863
sba(igraph
Edge
p1864
(dp1865
g7
I1
sg8
I00
sg9
I5
sg10
(lp1866
g491
ag484
asg26
I00
sg27
I00
sg28
I3453324
sg19
S'11186.9614605'
p1867
sba(igraph
Edge
p1868
(dp1869
g7
I1
sg8
I00
sg9
I5
sg10
(lp1870
g484
ag439
asg26
I00
sg27
I00
sg28
I3453325
sg19
S'11188.9717646'
p1871
sba(igraph
Edge
p1872
(dp1873
g7
I1
sg8
I00
sg9
I5
sg10
(lp1874
g439
ag432
asg26
I00
sg27
I00
sg28
I3453326
sg19
S'11191.1581997'
p1875
sba(igraph
Edge
p1876
(dp1877
g7
I1
sg8
I00
sg9
I5
sg10
(lp1878
g432
ag387
asg26
I00
sg27
I00
sg28
I3453327
sg19
S'11193.6685101'
p1879
sba(igraph
Edge
p1880
(dp1881
g7
I1
sg8
I00
sg9
I5
sg10
(lp1882
g387
ag380
asg26
I00
sg27
I00
sg28
I3453328
sg19
S'11195.0132503'
p1883
sba(igraph
Edge
p1884
(dp1885
g7
I1
sg8
I00
sg9
I5
sg10
(lp1886
g380
ag335
asg26
I00
sg27
I00
sg28
I3453329
sg19
S'11196.7558558'
p1887
sba(igraph
Edge
p1888
(dp1889
g7
I1
sg8
I00
sg9
I5
sg10
(lp1890
g335
ag328
asg26
I00
sg27
I00
sg28
I3453330
sg19
S'11198.2704003'
p1891
sba(igraph
Edge
p1892
(dp1893
g7
I1
sg8
I00
sg9
I5
sg10
(lp1894
g328
ag283
asg26
I00
sg27
I00
sg28
I3453331
sg19
S'11200.0409728'
p1895
sba(igraph
Edge
p1896
(dp1897
g7
I1
sg8
I00
sg9
I5
sg10
(lp1898
g283
ag276
asg26
I00
sg27
I00
sg28
I3453332
sg19
S'11201.4315188'
p1899
sba(igraph
Edge
p1900
(dp1901
g7
I1
sg8
I00
sg9
I5
sg10
(lp1902
g276
ag231
asg26
I00
sg27
I00
sg28
I3453333
sg19
S'11203.449033'
p1903
sba(igraph
Edge
p1904
(dp1905
g7
I1
sg8
I00
sg9
I5
sg10
(lp1906
g231
ag224
asg26
I00
sg27
I00
sg28
I3453334
sg19
S'11205.5534656'
p1907
sba(igraph
Edge
p1908
(dp1909
g7
I1
sg8
I00
sg9
I5
sg10
(lp1910
g224
ag179
asg26
I00
sg27
I00
sg28
I3453335
sg19
S'11207.5508549'
p1911
sba(igraph
Edge
p1912
(dp1913
g7
I1
sg8
I00
sg9
I5
sg10
(lp1914
g179
ag172
asg26
I00
sg27
I00
sg28
I3453336
sg19
S'11209.2904973'
p1915
sba(igraph
Edge
p1916
(dp1917
g7
I1
sg8
I00
sg9
I5
sg10
(lp1918
g172
ag127
asg26
I00
sg27
I00
sg28
I3453337
sg19
S'11211.2884914'
p1919
sba(igraph
Edge
p1920
(dp1921
g7
I1
sg8
I00
sg9
I5
sg10
(lp1922
g127
ag120
asg26
I00
sg27
I00
sg28
I3453338
sg19
S'11213.1820446'
p1923
sba(igraph
Edge
p1924
(dp1925
g7
I1
sg8
I00
sg9
I5
sg10
(lp1926
g120
ag75
asg26
I00
sg27
I00
sg28
I3453339
sg19
S'11214.9022186'
p1927
sba(igraph
Edge
p1928
(dp1929
g7
I1
sg8
I00
sg9
I5
sg10
(lp1930
g75
ag68
asg26
I00
sg27
I00
sg28
I3453340
sg19
S'11217.1412512'
p1931
sba(igraph
Edge
p1932
(dp1933
g7
I1
sg8
I00
sg9
I5
sg10
(lp1934
g68
ag12
asg26
I00
sg27
I00
sg28
I3453341
sg19
S'11219.014748'
p1935
sba(igraph
Edge
p1936
(dp1937
g7
I1
sg8
I00
sg9
I5
sg10
(lp1938
g12
ag848
asg26
I00
sg27
I00
sg28
I3453342
sg19
S'11221.2300091'
p1939
sbasS'vertices'
p1940
(lp1941
g12
ag22
ag33
ag40
ag47
ag54
ag61
ag68
ag75
ag78
ag85
ag92
ag99
ag106
ag113
ag120
ag127
ag130
ag137
ag144
ag151
ag158
ag165
ag172
ag179
ag182
ag189
ag196
ag203
ag210
ag217
ag224
ag231
ag234
ag241
ag248
ag255
ag262
ag269
ag276
ag283
ag286
ag293
ag300
ag307
ag314
ag321
ag328
ag335
ag338
ag345
ag352
ag359
ag366
ag373
ag380
ag387
ag390
ag397
ag404
ag411
ag418
ag425
ag432
ag439
ag442
ag449
ag456
ag463
ag470
ag477
ag484
ag491
ag494
ag501
ag508
ag515
ag522
ag529
ag536
ag543
ag546
ag553
ag560
ag567
ag574
ag581
ag588
ag595
ag598
ag605
ag612
ag619
ag626
ag633
ag640
ag647
ag650
ag657
ag664
ag671
ag678
ag685
ag692
ag699
ag702
ag709
ag716
ag723
ag730
ag737
ag744
ag751
ag754
ag761
ag768
ag775
ag782
ag789
ag796
ag803
ag806
ag813
ag820
ag827
ag834
ag841
ag848
asS'tags'
p1942
(lp1943
sb.