(igraph
Graph
p0
(dp1
S'labelingConstraints'
p2
I-1
sS'edges'
p3
(lp4
(igraph
Edge
p5
(dp6
S'direction'
p7
I1
sS'selected'
p8
I00
sS'height'
p9
I5
sS'vs'
p10
(lp11
(igraph
Vertex
p12
(dp13
S'xnorm'
p14
F0.8125
sg8
I00
sS'label'
p15
S'NULL'
p16
sS'y'
p17
F-310.0
sS'x'
p18
F-229.125
sS'circle'
p19
I3513181
sS'id'
p20
S'10025.3286013'
p21
sS'ynorm'
p22
F0.0
sba(igraph
Vertex
p23
(dp24
g14
F0.875
sg8
I00
sg15
g16
sg17
F-310.0
sg18
F-270.75
sg19
I3513182
sg20
S'10025.3287203'
p25
sg22
F0.0
sbasS'wrap'
p26
I00
sS'curved'
p27
I00
sS'line'
p28
I3512989
sg20
S'10025.7062241'
p29
sba(igraph
Edge
p30
(dp31
g7
I1
sg8
I00
sg9
I5
sg10
(lp32
g23
a(igraph
Vertex
p33
(dp34
g14
F0.9375
sg8
I00
sg15
g16
sg17
F-310.0
sg18
F-312.375
sg19
I3513183
sg20
S'10025.3288488'
p35
sg22
F0.0
sbasg26
I00
sg27
I00
sg28
I3512990
sg20
S'10025.7065571'
p36
sba(igraph
Edge
p37
(dp38
g7
I1
sg8
I00
sg9
I5
sg10
(lp39
g33
a(igraph
Vertex
p40
(dp41
g14
F1.0
sg8
I00
sg15
g16
sg17
F-310.0
sg18
F-354.0
sg19
I3513184
sg20
S'10025.328984'
p42
sg22
F0.0
sbasg26
I00
sg27
I00
sg28
I3512991
sg20
S'10025.7069097'
p43
sba(igraph
Edge
p44
(dp45
g7
I1
sg8
I00
sg9
I5
sg10
(lp46
(igraph
Vertex
p47
(dp48
g14
F0.8125
sg8
I01
sg15
I0
sg17
F-271.0
sg18
F-229.125
sg19
I3513186
sg20
S'10025.3317746'
p49
sg22
F0.066666666666666652
sba(igraph
Vertex
p50
(dp51
g14
F0.875
sg8
I00
sg15
g16
sg17
F-271.0
sg18
F-270.75
sg19
I3513188
sg20
S'10025.332038'
p52
sg22
F0.066666666666666652
sbasg26
I00
sg27
I00
sg28
I3512992
sg20
S'10025.7150196'
p53
sba(igraph
Edge
p54
(dp55
g7
I1
sg8
I00
sg9
I5
sg10
(lp56
g50
a(igraph
Vertex
p57
(dp58
g14
F0.9375
sg8
I00
sg15
g16
sg17
F-271.0
sg18
F-312.375
sg19
I3513189
sg20
S'10025.3323098'
p59
sg22
F0.066666666666666652
sbasg26
I00
sg27
I00
sg28
I3512993
sg20
S'10025.7157203'
p60
sba(igraph
Edge
p61
(dp62
g7
I1
sg8
I00
sg9
I5
sg10
(lp63
g57
a(igraph
Vertex
p64
(dp65
g14
F1.0
sg8
I00
sg15
g16
sg17
F-271.0
sg18
F-354.0
sg19
I3513190
sg20
S'10025.3325903'
p66
sg22
F0.066666666666666652
sbasg26
I00
sg27
I00
sg28
I3512994
sg20
S'10025.7164405'
p67
sba(igraph
Edge
p68
(dp69
g7
I1
sg8
I00
sg9
I5
sg10
(lp70
(igraph
Vertex
p71
(dp72
g14
F0.8125
sg8
I00
sg15
g16
sg17
F-232.0
sg18
F-229.125
sg19
I3513191
sg20
S'10025.3374317'
p73
sg22
F0.1333333333333333
sba(igraph
Vertex
p74
(dp75
g14
F0.875
sg8
I00
sg15
g16
sg17
F-232.0
sg18
F-270.75
sg19
I3513192
sg20
S'10025.3378452'
p76
sg22
F0.1333333333333333
sbasg26
I00
sg27
I00
sg28
I3512995
sg20
S'10025.7299025'
p77
sba(igraph
Edge
p78
(dp79
g7
I1
sg8
I00
sg9
I5
sg10
(lp80
g74
a(igraph
Vertex
p81
(dp82
g14
F0.9375
sg8
I00
sg15
g16
sg17
F-232.0
sg18
F-312.375
sg19
I3513193
sg20
S'10025.3382692'
p83
sg22
F0.1333333333333333
sbasg26
I00
sg27
I00
sg28
I3512996
sg20
S'10025.7309652'
p84
sba(igraph
Edge
p85
(dp86
g7
I1
sg8
I00
sg9
I5
sg10
(lp87
g81
a(igraph
Vertex
p88
(dp89
g14
F1.0
sg8
I00
sg15
g16
sg17
F-232.0
sg18
F-354.0
sg19
I3513194
sg20
S'10025.3386967'
p90
sg22
F0.1333333333333333
sbasg26
I00
sg27
I00
sg28
I3512997
sg20
S'10025.7320497'
p91
sba(igraph
Edge
p92
(dp93
g7
I1
sg8
I00
sg9
I5
sg10
(lp94
(igraph
Vertex
p95
(dp96
g14
F0.8125
sg8
I01
sg15
I0
sg17
F-193.0
sg18
F-229.125
sg19
I3513196
sg20
S'10025.3460691'
p97
sg22
F0.20000000000000001
sba(igraph
Vertex
p98
(dp99
g14
F0.875
sg8
I00
sg15
g16
sg17
F-193.0
sg18
F-270.75
sg19
I3513198
sg20
S'10025.3466368'
p100
sg22
F0.20000000000000001
sbasg26
I00
sg27
I00
sg28
I3512998
sg20
S'10025.7513681'
p101
sba(igraph
Edge
p102
(dp103
g7
I1
sg8
I00
sg9
I5
sg10
(lp104
g98
a(igraph
Vertex
p105
(dp106
g14
F0.9375
sg8
I00
sg15
g16
sg17
F-193.0
sg18
F-312.375
sg19
I3513199
sg20
S'10025.3472087'
p107
sg22
F0.20000000000000001
sbasg26
I00
sg27
I00
sg28
I3512999
sg20
S'10025.7528035'
p108
sba(igraph
Edge
p109
(dp110
g7
I1
sg8
I00
sg9
I5
sg10
(lp111
g105
a(igraph
Vertex
p112
(dp113
g14
F1.0
sg8
I00
sg15
g16
sg17
F-193.0
sg18
F-354.0
sg19
I3513200
sg20
S'10025.3477895'
p114
sg22
F0.20000000000000001
sbasg26
I00
sg27
I00
sg28
I3513000
sg20
S'10025.7542635'
p115
sba(igraph
Edge
p116
(dp117
g7
I1
sg8
I00
sg9
I5
sg10
(lp118
(igraph
Vertex
p119
(dp120
g14
F0.8125
sg8
I00
sg15
g16
sg17
F-154.0
sg18
F-229.125
sg19
I3513201
sg20
S'10025.3576787'
p121
sg22
F0.26666666666666666
sba(igraph
Vertex
p122
(dp123
g14
F0.875
sg8
I00
sg15
g16
sg17
F-154.0
sg18
F-270.75
sg19
I3513202
sg20
S'10025.3585618'
p124
sg22
F0.26666666666666666
sbasg26
I00
sg27
I00
sg28
I3513001
sg20
S'10025.7788102'
p125
sba(igraph
Edge
p126
(dp127
g7
I1
sg8
I00
sg9
I5
sg10
(lp128
g122
a(igraph
Vertex
p129
(dp130
g14
F0.9375
sg8
I00
sg15
g16
sg17
F-154.0
sg18
F-312.375
sg19
I3513203
sg20
S'10025.3594803'
p131
sg22
F0.26666666666666666
sbasg26
I00
sg27
I00
sg28
I3513002
sg20
S'10025.7805998'
p132
sba(igraph
Edge
p133
(dp134
g7
I1
sg8
I00
sg9
I5
sg10
(lp135
g129
a(igraph
Vertex
p136
(dp137
g14
F1.0
sg8
I00
sg15
g16
sg17
F-154.0
sg18
F-354.0
sg19
I3513204
sg20
S'10025.360212'
p138
sg22
F0.26666666666666666
sbasg26
I00
sg27
I00
sg28
I3513003
sg20
S'10025.782414'
p139
sba(igraph
Edge
p140
(dp141
g7
I1
sg8
I00
sg9
I5
sg10
(lp142
(igraph
Vertex
p143
(dp144
g14
F0.8125
sg8
I01
sg15
I0
sg17
F-115.0
sg18
F-229.125
sg19
I3513206
sg20
S'10025.3756709'
p145
sg22
F0.33333333333333331
sba(igraph
Vertex
p146
(dp147
g14
F0.875
sg8
I00
sg15
g16
sg17
F-115.0
sg18
F-270.75
sg19
I3513208
sg20
S'10025.3765909'
p148
sg22
F0.33333333333333331
sbasg26
I00
sg27
I00
sg28
I3513004
sg20
S'10025.8124988'
p149
sba(igraph
Edge
p150
(dp151
g7
I1
sg8
I00
sg9
I5
sg10
(lp152
g146
a(igraph
Vertex
p153
(dp154
g14
F0.9375
sg8
I00
sg15
g16
sg17
F-115.0
sg18
F-312.375
sg19
I3513209
sg20
S'10025.3775198'
p155
sg22
F0.33333333333333331
sbasg26
I00
sg27
I00
sg28
I3513005
sg20
S'10025.8147441'
p156
sba(igraph
Edge
p157
(dp158
g7
I1
sg8
I00
sg9
I5
sg10
(lp159
g153
a(igraph
Vertex
p160
(dp161
g14
F1.0
sg8
I00
sg15
g16
sg17
F-115.0
sg18
F-354.0
sg19
I3513210
sg20
S'10025.3785445'
p162
sg22
F0.33333333333333331
sbasg26
I00
sg27
I00
sg28
I3513006
sg20
S'10025.8169865'
p163
sba(igraph
Edge
p164
(dp165
g7
I1
sg8
I00
sg9
I5
sg10
(lp166
(igraph
Vertex
p167
(dp168
g14
F0.8125
sg8
I00
sg15
g16
sg17
F-76.0
sg18
F-229.125
sg19
I3513211
sg20
S'10025.3929033'
p169
sg22
F0.40000000000000002
sba(igraph
Vertex
p170
(dp171
g14
F0.875
sg8
I00
sg15
g16
sg17
F-76.0
sg18
F-270.75
sg19
I3513212
sg20
S'10025.3940302'
p172
sg22
F0.40000000000000002
sbasg26
I00
sg27
I00
sg28
I3513007
sg20
S'10025.8532677'
p173
sba(igraph
Edge
p174
(dp175
g7
I1
sg8
I00
sg9
I5
sg10
(lp176
g170
a(igraph
Vertex
p177
(dp178
g14
F0.9375
sg8
I00
sg15
g16
sg17
F-76.0
sg18
F-312.375
sg19
I3513213
sg20
S'10025.3951128'
p179
sg22
F0.40000000000000002
sbasg26
I00
sg27
I00
sg28
I3513008
sg20
S'10025.8557842'
p180
sba(igraph
Edge
p181
(dp182
g7
I1
sg8
I00
sg9
I5
sg10
(lp183
g177
a(igraph
Vertex
p184
(dp185
g14
F1.0
sg8
I00
sg15
g16
sg17
F-76.0
sg18
F-354.0
sg19
I3513214
sg20
S'10025.3962534'
p186
sg22
F0.40000000000000002
sbasg26
I00
sg27
I00
sg28
I3513009
sg20
S'10025.8583348'
p187
sba(igraph
Edge
p188
(dp189
g7
I1
sg8
I00
sg9
I5
sg10
(lp190
(igraph
Vertex
p191
(dp192
g14
F0.8125
sg8
I01
sg15
I0
sg17
F-37.0
sg18
F-229.125
sg19
I3513216
sg20
S'10025.4139442'
p193
sg22
F0.46666666666666667
sba(igraph
Vertex
p194
(dp195
g14
F0.875
sg8
I00
sg15
g16
sg17
F-37.0
sg18
F-270.75
sg19
I3513218
sg20
S'10025.4152405'
p196
sg22
F0.46666666666666667
sbasg26
I00
sg27
I00
sg28
I3513010
sg20
S'10025.8991562'
p197
sba(igraph
Edge
p198
(dp199
g7
I1
sg8
I00
sg9
I5
sg10
(lp200
g194
a(igraph
Vertex
p201
(dp202
g14
F0.9375
sg8
I00
sg15
g16
sg17
F-37.0
sg18
F-312.375
sg19
I3513219
sg20
S'10025.4165641'
p203
sg22
F0.46666666666666667
sbasg26
I00
sg27
I00
sg28
I3513011
sg20
S'10025.9020046'
p204
sba(igraph
Edge
p205
(dp206
g7
I1
sg8
I00
sg9
I5
sg10
(lp207
g201
a(igraph
Vertex
p208
(dp209
g14
F1.0
sg8
I00
sg15
g16
sg17
F-37.0
sg18
F-354.0
sg19
I3513220
sg20
S'10025.417826'
p210
sg22
F0.46666666666666667
sbasg26
I00
sg27
I00
sg28
I3513012
sg20
S'10025.9048896'
p211
sba(igraph
Edge
p212
(dp213
g7
I1
sg8
I00
sg9
I5
sg10
(lp214
(igraph
Vertex
p215
(dp216
g14
F0.8125
sg8
I00
sg15
g16
sg17
F2.0
sg18
F-229.125
sg19
I3513221
sg20
S'10025.4373584'
p217
sg22
F0.53333333333333333
sba(igraph
Vertex
p218
(dp219
g14
F0.875
sg8
I00
sg15
g16
sg17
F2.0
sg18
F-270.75
sg19
I3513222
sg20
S'10025.4398911'
p220
sg22
F0.53333333333333333
sbasg26
I00
sg27
I00
sg28
I3513013
sg20
S'10025.9547423'
p221
sba(igraph
Edge
p222
(dp223
g7
I1
sg8
I00
sg9
I5
sg10
(lp224
g218
a(igraph
Vertex
p225
(dp226
g14
F0.9375
sg8
I00
sg15
g16
sg17
F2.0
sg18
F-312.375
sg19
I3513223
sg20
S'10025.4413279'
p227
sg22
F0.53333333333333333
sbasg26
I00
sg27
I00
sg28
I3513014
sg20
S'10025.9580584'
p228
sba(igraph
Edge
p229
(dp230
g7
I1
sg8
I00
sg9
I5
sg10
(lp231
g225
a(igraph
Vertex
p232
(dp233
g14
F1.0
sg8
I00
sg15
g16
sg17
F2.0
sg18
F-354.0
sg19
I3513224
sg20
S'10025.4428862'
p234
sg22
F0.53333333333333333
sbasg26
I00
sg27
I00
sg28
I3513015
sg20
S'10025.9614144'
p235
sba(igraph
Edge
p236
(dp237
g7
I1
sg8
I00
sg9
I5
sg10
(lp238
(igraph
Vertex
p239
(dp240
g14
F0.8125
sg8
I00
sg15
I0
sg17
F41.0
sg18
F-229.125
sg19
I3513225
sg20
S'10025.465234'
p241
sg22
F0.59999999999999998
sba(igraph
Vertex
p242
(dp243
g14
F0.875
sg8
I00
sg15
g16
sg17
F41.0
sg18
F-270.75
sg19
I3513227
sg20
S'10025.4669789'
p244
sg22
F0.59999999999999998
sbasg26
I00
sg27
I00
sg28
I3513016
sg20
S'10026.0186677'
p245
sba(igraph
Edge
p246
(dp247
g7
I1
sg8
I00
sg9
I5
sg10
(lp248
g242
a(igraph
Vertex
p249
(dp250
g14
F0.9375
sg8
I00
sg15
g16
sg17
F41.0
sg18
F-312.375
sg19
I3513228
sg20
S'10025.4687844'
p251
sg22
F0.59999999999999998
sbasg26
I00
sg27
I00
sg28
I3513017
sg20
S'10026.0222676'
p252
sba(igraph
Edge
p253
(dp254
g7
I1
sg8
I00
sg9
I5
sg10
(lp255
g249
a(igraph
Vertex
p256
(dp257
g14
F1.0
sg8
I00
sg15
g16
sg17
F41.0
sg18
F-354.0
sg19
I3513229
sg20
S'10025.4703304'
p258
sg22
F0.59999999999999998
sbasg26
I00
sg27
I00
sg28
I3513018
sg20
S'10026.0259016'
p259
sba(igraph
Edge
p260
(dp261
g7
I1
sg8
I00
sg9
I5
sg10
(lp262
(igraph
Vertex
p263
(dp264
g14
F0.8125
sg8
I00
sg15
g16
sg17
F80.0
sg18
F-229.125
sg19
I3513230
sg20
S'10025.4933289'
p265
sg22
F0.66666666666666663
sba(igraph
Vertex
p266
(dp267
g14
F0.875
sg8
I00
sg15
g16
sg17
F80.0
sg18
F-270.75
sg19
I3513231
sg20
S'10025.4950126'
p268
sg22
F0.66666666666666663
sbasg26
I00
sg27
I00
sg28
I3513019
sg20
S'10026.0858101'
p269
sba(igraph
Edge
p270
(dp271
g7
I1
sg8
I00
sg9
I5
sg10
(lp272
g266
a(igraph
Vertex
p273
(dp274
g14
F0.9375
sg8
I00
sg15
g16
sg17
F80.0
sg18
F-312.375
sg19
I3513232
sg20
S'10025.4967067'
p275
sg22
F0.66666666666666663
sbasg26
I00
sg27
I00
sg28
I3513020
sg20
S'10026.0898463'
p276
sba(igraph
Edge
p277
(dp278
g7
I1
sg8
I00
sg9
I5
sg10
(lp279
g273
a(igraph
Vertex
p280
(dp281
g14
F1.0
sg8
I00
sg15
g16
sg17
F80.0
sg18
F-354.0
sg19
I3513233
sg20
S'10025.4985648'
p282
sg22
F0.66666666666666663
sbasg26
I00
sg27
I00
sg28
I3513021
sg20
S'10026.0939013'
p283
sba(igraph
Edge
p284
(dp285
g7
I1
sg8
I00
sg9
I5
sg10
(lp286
(igraph
Vertex
p287
(dp288
g14
F0.8125
sg8
I00
sg15
g16
sg17
F118.99999999999994
sg18
F-229.125
sg19
I3513234
sg20
S'10025.5248206'
p289
sg22
F0.73333333333333328
sba(igraph
Vertex
p290
(dp291
g14
F0.875
sg8
I00
sg15
I0
sg17
F118.99999999999994
sg18
F-270.75
sg19
I3513235
sg20
S'10025.5270273'
p292
sg22
F0.73333333333333328
sbasg26
I00
sg27
I00
sg28
I3513022
sg20
S'10026.1570188'
p293
sba(igraph
Edge
p294
(dp295
g7
I1
sg8
I00
sg9
I5
sg10
(lp296
g290
a(igraph
Vertex
p297
(dp298
g14
F0.9375
sg8
I00
sg15
g16
sg17
F118.99999999999994
sg18
F-312.375
sg19
I3513237
sg20
S'10025.5291687'
p299
sg22
F0.73333333333333328
sbasg26
I00
sg27
I00
sg28
I3513023
sg20
S'10026.1613565'
p300
sba(igraph
Edge
p301
(dp302
g7
I1
sg8
I00
sg9
I5
sg10
(lp303
g297
a(igraph
Vertex
p304
(dp305
g14
F1.0
sg8
I00
sg15
g16
sg17
F118.99999999999994
sg18
F-354.0
sg19
I3513238
sg20
S'10025.5310904'
p306
sg22
F0.73333333333333328
sbasg26
I00
sg27
I00
sg28
I3513024
sg20
S'10026.1657107'
p307
sba(igraph
Edge
p308
(dp309
g7
I1
sg8
I00
sg9
I5
sg10
(lp310
(igraph
Vertex
p311
(dp312
g14
F0.8125
sg8
I00
sg15
I0
sg17
F158.0
sg18
F-229.125
sg19
I3513239
sg20
S'10025.5619932'
p313
sg22
F0.80000000000000004
sba(igraph
Vertex
p314
(dp315
g14
F0.875
sg8
I00
sg15
g16
sg17
F158.0
sg18
F-270.75
sg19
I3513241
sg20
S'10025.5641407'
p316
sg22
F0.80000000000000004
sbasg26
I00
sg27
I00
sg28
I3513025
sg20
S'10026.2338817'
p317
sba(igraph
Edge
p318
(dp319
g7
I1
sg8
I00
sg9
I5
sg10
(lp320
g314
a(igraph
Vertex
p321
(dp322
g14
F0.9375
sg8
I00
sg15
g16
sg17
F158.0
sg18
F-312.375
sg19
I3513242
sg20
S'10025.5663675'
p323
sg22
F0.80000000000000004
sbasg26
I00
sg27
I00
sg28
I3513026
sg20
S'10026.2385434'
p324
sba(igraph
Edge
p325
(dp326
g7
I1
sg8
I00
sg9
I5
sg10
(lp327
g321
a(igraph
Vertex
p328
(dp329
g14
F1.0
sg8
I00
sg15
g16
sg17
F158.0
sg18
F-354.0
sg19
I3513243
sg20
S'10025.5684887'
p330
sg22
F0.80000000000000004
sbasg26
I00
sg27
I00
sg28
I3513027
sg20
S'10026.2432605'
p331
sba(igraph
Edge
p332
(dp333
g7
I1
sg8
I00
sg9
I5
sg10
(lp334
(igraph
Vertex
p335
(dp336
g14
F0.8125
sg8
I00
sg15
g16
sg17
F197.00000000000006
sg18
F-229.125
sg19
I3513244
sg20
S'10025.6053018'
p337
sg22
F0.86666666666666681
sba(igraph
Vertex
p338
(dp339
g14
F0.875
sg8
I00
sg15
g16
sg17
F197.00000000000006
sg18
F-270.75
sg19
I3513245
sg20
S'10025.6075311'
p340
sg22
F0.86666666666666681
sbasg26
I00
sg27
I00
sg28
I3513028
sg20
S'10026.3172261'
p341
sba(igraph
Edge
p342
(dp343
g7
I1
sg8
I00
sg9
I5
sg10
(lp344
g338
a(igraph
Vertex
p345
(dp346
g14
F0.9375
sg8
I00
sg15
I0
sg17
F197.00000000000006
sg18
F-312.375
sg19
I3513246
sg20
S'10025.60977'
p347
sg22
F0.86666666666666681
sbasg26
I00
sg27
I00
sg28
I3513029
sg20
S'10026.3222491'
p348
sba(igraph
Edge
p349
(dp350
g7
I1
sg8
I00
sg9
I5
sg10
(lp351
g345
a(igraph
Vertex
p352
(dp353
g14
F1.0
sg8
I00
sg15
g16
sg17
F197.00000000000006
sg18
F-354.0
sg19
I3513248
sg20
S'10025.6120202'
p354
sg22
F0.86666666666666681
sbasg26
I00
sg27
I00
sg28
I3513030
sg20
S'10026.3273709'
p355
sba(igraph
Edge
p356
(dp357
g7
I1
sg8
I00
sg9
I5
sg10
(lp358
(igraph
Vertex
p359
(dp360
g14
F0.8125
sg8
I00
sg15
g16
sg17
F236.0
sg18
F-229.125
sg19
I3513249
sg20
S'10025.6479234'
p361
sg22
F0.93333333333333335
sba(igraph
Vertex
p362
(dp363
g14
F0.875
sg8
I00
sg15
g16
sg17
F236.0
sg18
F-270.75
sg19
I3513250
sg20
S'10025.6503799'
p364
sg22
F0.93333333333333335
sbasg26
I00
sg27
I00
sg28
I3513031
sg20
S'10026.4068249'
p365
sba(igraph
Edge
p366
(dp367
g7
I1
sg8
I00
sg9
I5
sg10
(lp368
g362
a(igraph
Vertex
p369
(dp370
g14
F0.9375
sg8
I00
sg15
g16
sg17
F236.0
sg18
F-312.375
sg19
I3513251
sg20
S'10025.6531978'
p371
sg22
F0.93333333333333335
sbasg26
I00
sg27
I00
sg28
I3513032
sg20
S'10026.4123175'
p372
sba(igraph
Edge
p373
(dp374
g7
I1
sg8
I00
sg9
I5
sg10
(lp375
g369
a(igraph
Vertex
p376
(dp377
g14
F1.0
sg8
I00
sg15
g16
sg17
F236.0
sg18
F-354.0
sg19
I3513252
sg20
S'10025.6558909'
p378
sg22
F0.93333333333333335
sbasg26
I00
sg27
I00
sg28
I3513033
sg20
S'10026.4177654'
p379
sba(igraph
Edge
p380
(dp381
g7
I1
sg8
I00
sg9
I5
sg10
(lp382
(igraph
Vertex
p383
(dp384
g14
F0.8125
sg8
I00
sg15
g16
sg17
F275.0
sg18
F-229.125
sg19
I3513253
sg20
S'10025.6936982'
p385
sg22
F1.0
sba(igraph
Vertex
p386
(dp387
g14
F0.875
sg8
I00
sg15
g16
sg17
F275.0
sg18
F-270.75
sg19
I3513254
sg20
S'10025.6961829'
p388
sg22
F1.0
sbasg26
I00
sg27
I00
sg28
I3513034
sg20
S'10026.5033039'
p389
sba(igraph
Edge
p390
(dp391
g7
I1
sg8
I00
sg9
I5
sg10
(lp392
g386
a(igraph
Vertex
p393
(dp394
g14
F0.9375
sg8
I00
sg15
g16
sg17
F275.0
sg18
F-312.375
sg19
I3513255
sg20
S'10025.6986698'
p395
sg22
F1.0
sbasg26
I00
sg27
I00
sg28
I3513035
sg20
S'10026.5090552'
p396
sba(igraph
Edge
p397
(dp398
g7
I1
sg8
I00
sg9
I5
sg10
(lp399
g393
a(igraph
Vertex
p400
(dp401
g14
F1.0
sg8
I00
sg15
I0
sg17
F275.0
sg18
F-354.0
sg19
I3513256
sg20
S'10025.7011981'
p402
sg22
F1.0
sbasg26
I00
sg27
I00
sg28
I3513036
sg20
S'10026.5150389'
p403
sba(igraph
Edge
p404
(dp405
g7
I1
sg8
I00
sg9
I5
sg10
(lp406
g12
ag50
asg26
I00
sg27
I00
sg28
I3513037
sg20
S'10026.6077029'
p407
sba(igraph
Edge
p408
(dp409
g7
I1
sg8
I00
sg9
I5
sg10
(lp410
g23
ag50
asg26
I00
sg27
I00
sg28
I3513038
sg20
S'10026.6138565'
p411
sba(igraph
Edge
p412
(dp413
g7
I1
sg8
I00
sg9
I5
sg10
(lp414
g33
ag64
asg26
I00
sg27
I00
sg28
I3513039
sg20
S'10026.6200112'
p415
sba(igraph
Edge
p416
(dp417
g7
I1
sg8
I00
sg9
I5
sg10
(lp418
g40
ag64
asg26
I00
sg27
I00
sg28
I3513040
sg20
S'10026.6269314'
p419
sba(igraph
Edge
p420
(dp421
g7
I1
sg8
I00
sg9
I5
sg10
(lp422
g12
ag47
asg26
I00
sg27
I00
sg28
I3513041
sg20
S'10026.7165263'
p423
sba(igraph
Edge
p424
(dp425
g7
I1
sg8
I00
sg9
I5
sg10
(lp426
g23
ag57
asg26
I00
sg27
I00
sg28
I3513042
sg20
S'10026.7230455'
p427
sba(igraph
Edge
p428
(dp429
g7
I1
sg8
I00
sg9
I5
sg10
(lp430
g33
ag57
asg26
I00
sg27
I00
sg28
I3513043
sg20
S'10026.7296494'
p431
sba(igraph
Edge
p432
(dp433
g7
I1
sg8
I00
sg9
I5
sg10
(lp434
g23
ag386
asg26
I00
sg27
I00
sg28
I3513044
sg20
S'10026.8379328'
p435
sba(igraph
Edge
p436
(dp437
g7
I1
sg8
I00
sg9
I5
sg10
(lp438
g33
ag386
asg26
I00
sg27
I00
sg28
I3513045
sg20
S'10026.8449512'
p439
sba(igraph
Edge
p440
(dp441
g7
I1
sg8
I00
sg9
I5
sg10
(lp442
g40
ag400
asg26
I00
sg27
I00
sg28
I3513046
sg20
S'10026.8518256'
p443
sba(igraph
Edge
p444
(dp445
g7
I1
sg8
I00
sg9
I5
sg10
(lp446
g12
ag383
asg26
I00
sg27
I00
sg28
I3513047
sg20
S'10026.9529091'
p447
sba(igraph
Edge
p448
(dp449
g7
I1
sg8
I00
sg9
I5
sg10
(lp450
g23
ag383
asg26
I00
sg27
I00
sg28
I3513048
sg20
S'10026.9604212'
p451
sba(igraph
Edge
p452
(dp453
g7
I1
sg8
I00
sg9
I5
sg10
(lp454
g33
ag393
asg26
I00
sg27
I00
sg28
I3513049
sg20
S'10026.9676635'
p455
sba(igraph
Edge
p456
(dp457
g7
I1
sg8
I00
sg9
I5
sg10
(lp458
g40
ag393
asg26
I00
sg27
I00
sg28
I3513050
sg20
S'10026.9750407'
p459
sba(igraph
Edge
p460
(dp461
g7
I1
sg8
I00
sg9
I5
sg10
(lp462
g47
ag74
asg26
I00
sg27
I00
sg28
I3513051
sg20
S'10027.0847988'
p463
sba(igraph
Edge
p464
(dp465
g7
I1
sg8
I00
sg9
I5
sg10
(lp466
g50
ag74
asg26
I00
sg27
I00
sg28
I3513052
sg20
S'10027.0929062'
p467
sba(igraph
Edge
p468
(dp469
g7
I1
sg8
I00
sg9
I5
sg10
(lp470
g57
ag88
asg26
I00
sg27
I00
sg28
I3513053
sg20
S'10027.1007304'
p471
sba(igraph
Edge
p472
(dp473
g7
I1
sg8
I00
sg9
I5
sg10
(lp474
g64
ag88
asg26
I00
sg27
I00
sg28
I3513054
sg20
S'10027.1085029'
p475
sba(igraph
Edge
p476
(dp477
g7
I1
sg8
I00
sg9
I5
sg10
(lp478
g47
ag71
asg26
I00
sg27
I00
sg28
I3513055
sg20
S'10027.2193843'
p479
sba(igraph
Edge
p480
(dp481
g7
I1
sg8
I00
sg9
I5
sg10
(lp482
g50
ag81
asg26
I00
sg27
I00
sg28
I3513056
sg20
S'10027.2274373'
p483
sba(igraph
Edge
p484
(dp485
g7
I1
sg8
I00
sg9
I5
sg10
(lp486
g57
ag81
asg26
I00
sg27
I00
sg28
I3513057
sg20
S'10027.2354584'
p487
sba(igraph
Edge
p488
(dp489
g7
I1
sg8
I00
sg9
I5
sg10
(lp490
g71
ag98
asg26
I00
sg27
I00
sg28
I3513058
sg20
S'10027.3591141'
p491
sba(igraph
Edge
p492
(dp493
g7
I1
sg8
I00
sg9
I5
sg10
(lp494
g74
ag98
asg26
I00
sg27
I00
sg28
I3513059
sg20
S'10027.3675467'
p495
sba(igraph
Edge
p496
(dp497
g7
I1
sg8
I00
sg9
I5
sg10
(lp498
g81
ag112
asg26
I00
sg27
I00
sg28
I3513060
sg20
S'10027.3759668'
p499
sba(igraph
Edge
p500
(dp501
g7
I1
sg8
I00
sg9
I5
sg10
(lp502
g88
ag112
asg26
I00
sg27
I00
sg28
I3513061
sg20
S'10027.3842835'
p503
sba(igraph
Edge
p504
(dp505
g7
I1
sg8
I00
sg9
I5
sg10
(lp506
g71
ag95
asg26
I00
sg27
I00
sg28
I3513062
sg20
S'10027.5059509'
p507
sba(igraph
Edge
p508
(dp509
g7
I1
sg8
I00
sg9
I5
sg10
(lp510
g74
ag105
asg26
I00
sg27
I00
sg28
I3513063
sg20
S'10027.5149115'
p511
sba(igraph
Edge
p512
(dp513
g7
I1
sg8
I00
sg9
I5
sg10
(lp514
g81
ag105
asg26
I00
sg27
I00
sg28
I3513064
sg20
S'10027.5236635'
p515
sba(igraph
Edge
p516
(dp517
g7
I1
sg8
I00
sg9
I5
sg10
(lp518
g95
ag122
asg26
I00
sg27
I00
sg28
I3513065
sg20
S'10027.6589519'
p519
sba(igraph
Edge
p520
(dp521
g7
I1
sg8
I00
sg9
I5
sg10
(lp522
g98
ag122
asg26
I00
sg27
I00
sg28
I3513066
sg20
S'10027.6680343'
p523
sba(igraph
Edge
p524
(dp525
g7
I1
sg8
I00
sg9
I5
sg10
(lp526
g105
ag136
asg26
I00
sg27
I00
sg28
I3513067
sg20
S'10027.6771749'
p527
sba(igraph
Edge
p528
(dp529
g7
I1
sg8
I00
sg9
I5
sg10
(lp530
g112
ag136
asg26
I00
sg27
I00
sg28
I3513068
sg20
S'10027.6862389'
p531
sba(igraph
Edge
p532
(dp533
g7
I1
sg8
I00
sg9
I5
sg10
(lp534
g95
ag119
asg26
I00
sg27
I00
sg28
I3513069
sg20
S'10027.8178696'
p535
sba(igraph
Edge
p536
(dp537
g7
I1
sg8
I00
sg9
I5
sg10
(lp538
g98
ag129
asg26
I00
sg27
I00
sg28
I3513070
sg20
S'10027.8273825'
p539
sba(igraph
Edge
p540
(dp541
g7
I1
sg8
I00
sg9
I5
sg10
(lp542
g105
ag129
asg26
I00
sg27
I00
sg28
I3513071
sg20
S'10027.8368279'
p543
sba(igraph
Edge
p544
(dp545
g7
I1
sg8
I00
sg9
I5
sg10
(lp546
g119
ag146
asg26
I00
sg27
I00
sg28
I3513072
sg20
S'10027.9825891'
p547
sba(igraph
Edge
p548
(dp549
g7
I1
sg8
I00
sg9
I5
sg10
(lp550
g122
ag146
asg26
I00
sg27
I00
sg28
I3513073
sg20
S'10027.9922605'
p551
sba(igraph
Edge
p552
(dp553
g7
I1
sg8
I00
sg9
I5
sg10
(lp554
g129
ag160
asg26
I00
sg27
I00
sg28
I3513074
sg20
S'10028.0020142'
p555
sba(igraph
Edge
p556
(dp557
g7
I1
sg8
I00
sg9
I5
sg10
(lp558
g136
ag160
asg26
I00
sg27
I00
sg28
I3513075
sg20
S'10028.0118049'
p559
sba(igraph
Edge
p560
(dp561
g7
I1
sg8
I00
sg9
I5
sg10
(lp562
g119
ag143
asg26
I00
sg27
I00
sg28
I3513076
sg20
S'10028.1557662'
p563
sba(igraph
Edge
p564
(dp565
g7
I1
sg8
I00
sg9
I5
sg10
(lp566
g122
ag153
asg26
I00
sg27
I00
sg28
I3513077
sg20
S'10028.1663371'
p567
sba(igraph
Edge
p568
(dp569
g7
I1
sg8
I00
sg9
I5
sg10
(lp570
g129
ag153
asg26
I00
sg27
I00
sg28
I3513078
sg20
S'10028.1764073'
p571
sba(igraph
Edge
p572
(dp573
g7
I1
sg8
I00
sg9
I5
sg10
(lp574
g143
ag170
asg26
I00
sg27
I00
sg28
I3513079
sg20
S'10028.3333236'
p575
sba(igraph
Edge
p576
(dp577
g7
I1
sg8
I00
sg9
I5
sg10
(lp578
g146
ag170
asg26
I00
sg27
I00
sg28
I3513080
sg20
S'10028.3438102'
p579
sba(igraph
Edge
p580
(dp581
g7
I1
sg8
I00
sg9
I5
sg10
(lp582
g153
ag184
asg26
I00
sg27
I00
sg28
I3513081
sg20
S'10028.3543436'
p583
sba(igraph
Edge
p584
(dp585
g7
I1
sg8
I00
sg9
I5
sg10
(lp586
g160
ag184
asg26
I00
sg27
I00
sg28
I3513082
sg20
S'10028.3649562'
p587
sba(igraph
Edge
p588
(dp589
g7
I1
sg8
I00
sg9
I5
sg10
(lp590
g143
ag167
asg26
I00
sg27
I00
sg28
I3513083
sg20
S'10028.5281814'
p591
sba(igraph
Edge
p592
(dp593
g7
I1
sg8
I00
sg9
I5
sg10
(lp594
g146
ag177
asg26
I00
sg27
I00
sg28
I3513084
sg20
S'10028.5400298'
p595
sba(igraph
Edge
p596
(dp597
g7
I1
sg8
I00
sg9
I5
sg10
(lp598
g153
ag177
asg26
I00
sg27
I00
sg28
I3513085
sg20
S'10028.5521389'
p599
sba(igraph
Edge
p600
(dp601
g7
I1
sg8
I00
sg9
I5
sg10
(lp602
g167
ag194
asg26
I00
sg27
I00
sg28
I3513086
sg20
S'10028.7426927'
p603
sba(igraph
Edge
p604
(dp605
g7
I1
sg8
I00
sg9
I5
sg10
(lp606
g170
ag194
asg26
I00
sg27
I00
sg28
I3513087
sg20
S'10028.7546115'
p607
sba(igraph
Edge
p608
(dp609
g7
I1
sg8
I00
sg9
I5
sg10
(lp610
g177
ag208
asg26
I00
sg27
I00
sg28
I3513088
sg20
S'10028.766358'
p611
sba(igraph
Edge
p612
(dp613
g7
I1
sg8
I00
sg9
I5
sg10
(lp614
g184
ag208
asg26
I00
sg27
I00
sg28
I3513089
sg20
S'10028.7786409'
p615
sba(igraph
Edge
p616
(dp617
g7
I1
sg8
I00
sg9
I5
sg10
(lp618
g167
ag191
asg26
I00
sg27
I00
sg28
I3513090
sg20
S'10028.9505811'
p619
sba(igraph
Edge
p620
(dp621
g7
I1
sg8
I00
sg9
I5
sg10
(lp622
g170
ag201
asg26
I00
sg27
I00
sg28
I3513091
sg20
S'10028.9622284'
p623
sba(igraph
Edge
p624
(dp625
g7
I1
sg8
I00
sg9
I5
sg10
(lp626
g177
ag201
asg26
I00
sg27
I00
sg28
I3513092
sg20
S'10028.9741691'
p627
sba(igraph
Edge
p628
(dp629
g7
I1
sg8
I00
sg9
I5
sg10
(lp630
g191
ag218
asg26
I00
sg27
I00
sg28
I3513093
sg20
S'10029.1709033'
p631
sba(igraph
Edge
p632
(dp633
g7
I1
sg8
I00
sg9
I5
sg10
(lp634
g194
ag218
asg26
I00
sg27
I00
sg28
I3513094
sg20
S'10029.1839684'
p635
sba(igraph
Edge
p636
(dp637
g7
I1
sg8
I00
sg9
I5
sg10
(lp638
g201
ag232
asg26
I00
sg27
I00
sg28
I3513095
sg20
S'10029.1973717'
p639
sba(igraph
Edge
p640
(dp641
g7
I1
sg8
I00
sg9
I5
sg10
(lp642
g208
ag232
asg26
I00
sg27
I00
sg28
I3513096
sg20
S'10029.2104267'
p643
sba(igraph
Edge
p644
(dp645
g7
I1
sg8
I00
sg9
I5
sg10
(lp646
g191
ag215
asg26
I00
sg27
I00
sg28
I3513097
sg20
S'10029.3965398'
p647
sba(igraph
Edge
p648
(dp649
g7
I1
sg8
I00
sg9
I5
sg10
(lp650
g194
ag225
asg26
I00
sg27
I00
sg28
I3513098
sg20
S'10029.4093252'
p651
sba(igraph
Edge
p652
(dp653
g7
I1
sg8
I00
sg9
I5
sg10
(lp654
g201
ag225
asg26
I00
sg27
I00
sg28
I3513099
sg20
S'10029.4225353'
p655
sba(igraph
Edge
p656
(dp657
g7
I1
sg8
I00
sg9
I5
sg10
(lp658
g215
ag242
asg26
I00
sg27
I00
sg28
I3513100
sg20
S'10029.6283354'
p659
sba(igraph
Edge
p660
(dp661
g7
I1
sg8
I00
sg9
I5
sg10
(lp662
g218
ag242
asg26
I00
sg27
I00
sg28
I3513101
sg20
S'10029.641243'
p663
sba(igraph
Edge
p664
(dp665
g7
I1
sg8
I00
sg9
I5
sg10
(lp666
g225
ag256
asg26
I00
sg27
I00
sg28
I3513102
sg20
S'10029.6540767'
p667
sba(igraph
Edge
p668
(dp669
g7
I1
sg8
I00
sg9
I5
sg10
(lp670
g232
ag256
asg26
I00
sg27
I00
sg28
I3513103
sg20
S'10029.666989'
p671
sba(igraph
Edge
p672
(dp673
g7
I1
sg8
I00
sg9
I5
sg10
(lp674
g215
ag239
asg26
I00
sg27
I00
sg28
I3513104
sg20
S'10029.8502491'
p675
sba(igraph
Edge
p676
(dp677
g7
I1
sg8
I00
sg9
I5
sg10
(lp678
g218
ag249
asg26
I00
sg27
I00
sg28
I3513105
sg20
S'10029.8636329'
p679
sba(igraph
Edge
p680
(dp681
g7
I1
sg8
I00
sg9
I5
sg10
(lp682
g225
ag249
asg26
I00
sg27
I00
sg28
I3513106
sg20
S'10029.8769922'
p683
sba(igraph
Edge
p684
(dp685
g7
I1
sg8
I00
sg9
I5
sg10
(lp686
g239
ag266
asg26
I00
sg27
I00
sg28
I3513107
sg20
S'10030.0805706'
p687
sba(igraph
Edge
p688
(dp689
g7
I1
sg8
I00
sg9
I5
sg10
(lp690
g242
ag266
asg26
I00
sg27
I00
sg28
I3513108
sg20
S'10030.0941338'
p691
sba(igraph
Edge
p692
(dp693
g7
I1
sg8
I00
sg9
I5
sg10
(lp694
g249
ag280
asg26
I00
sg27
I00
sg28
I3513109
sg20
S'10030.1078461'
p695
sba(igraph
Edge
p696
(dp697
g7
I1
sg8
I00
sg9
I5
sg10
(lp698
g256
ag280
asg26
I00
sg27
I00
sg28
I3513110
sg20
S'10030.1215152'
p699
sba(igraph
Edge
p700
(dp701
g7
I1
sg8
I00
sg9
I5
sg10
(lp702
g239
ag263
asg26
I00
sg27
I00
sg28
I3513111
sg20
S'10030.315515'
p703
sba(igraph
Edge
p704
(dp705
g7
I1
sg8
I00
sg9
I5
sg10
(lp706
g242
ag273
asg26
I00
sg27
I00
sg28
I3513112
sg20
S'10030.3294064'
p707
sba(igraph
Edge
p708
(dp709
g7
I1
sg8
I00
sg9
I5
sg10
(lp710
g249
ag273
asg26
I00
sg27
I00
sg28
I3513113
sg20
S'10030.3431579'
p711
sba(igraph
Edge
p712
(dp713
g7
I1
sg8
I00
sg9
I5
sg10
(lp714
g263
ag290
asg26
I00
sg27
I00
sg28
I3513114
sg20
S'10030.5575756'
p715
sba(igraph
Edge
p716
(dp717
g7
I1
sg8
I00
sg9
I5
sg10
(lp718
g266
ag290
asg26
I00
sg27
I00
sg28
I3513115
sg20
S'10030.5728801'
p719
sba(igraph
Edge
p720
(dp721
g7
I1
sg8
I00
sg9
I5
sg10
(lp722
g273
ag304
asg26
I00
sg27
I00
sg28
I3513116
sg20
S'10030.5881639'
p723
sba(igraph
Edge
p724
(dp725
g7
I1
sg8
I00
sg9
I5
sg10
(lp726
g280
ag304
asg26
I00
sg27
I00
sg28
I3513117
sg20
S'10030.6027774'
p727
sba(igraph
Edge
p728
(dp729
g7
I1
sg8
I00
sg9
I5
sg10
(lp730
g263
ag287
asg26
I00
sg27
I00
sg28
I3513118
sg20
S'10030.8086581'
p731
sba(igraph
Edge
p732
(dp733
g7
I1
sg8
I00
sg9
I5
sg10
(lp734
g266
ag297
asg26
I00
sg27
I00
sg28
I3513119
sg20
S'10030.8235021'
p735
sba(igraph
Edge
p736
(dp737
g7
I1
sg8
I00
sg9
I5
sg10
(lp738
g273
ag297
asg26
I00
sg27
I00
sg28
I3513120
sg20
S'10030.8381616'
p739
sba(igraph
Edge
p740
(dp741
g7
I1
sg8
I00
sg9
I5
sg10
(lp742
g287
ag314
asg26
I00
sg27
I00
sg28
I3513121
sg20
S'10031.080094'
p743
sba(igraph
Edge
p744
(dp745
g7
I1
sg8
I00
sg9
I5
sg10
(lp746
g290
ag314
asg26
I00
sg27
I00
sg28
I3513122
sg20
S'10031.0954264'
p747
sba(igraph
Edge
p748
(dp749
g7
I1
sg8
I00
sg9
I5
sg10
(lp750
g297
ag328
asg26
I00
sg27
I00
sg28
I3513123
sg20
S'10031.1107104'
p751
sba(igraph
Edge
p752
(dp753
g7
I1
sg8
I00
sg9
I5
sg10
(lp754
g304
ag328
asg26
I00
sg27
I00
sg28
I3513124
sg20
S'10031.1258263'
p755
sba(igraph
Edge
p756
(dp757
g7
I1
sg8
I00
sg9
I5
sg10
(lp758
g287
ag311
asg26
I00
sg27
I00
sg28
I3513125
sg20
S'10031.3403799'
p759
sba(igraph
Edge
p760
(dp761
g7
I1
sg8
I00
sg9
I5
sg10
(lp762
g290
ag321
asg26
I00
sg27
I00
sg28
I3513126
sg20
S'10031.3557296'
p763
sba(igraph
Edge
p764
(dp765
g7
I1
sg8
I00
sg9
I5
sg10
(lp766
g297
ag321
asg26
I00
sg27
I00
sg28
I3513127
sg20
S'10031.371236'
p767
sba(igraph
Edge
p768
(dp769
g7
I1
sg8
I00
sg9
I5
sg10
(lp770
g311
ag338
asg26
I00
sg27
I00
sg28
I3513128
sg20
S'10031.6066855'
p771
sba(igraph
Edge
p772
(dp773
g7
I1
sg8
I00
sg9
I5
sg10
(lp774
g314
ag338
asg26
I00
sg27
I00
sg28
I3513129
sg20
S'10031.622364'
p775
sba(igraph
Edge
p776
(dp777
g7
I1
sg8
I00
sg9
I5
sg10
(lp778
g321
ag352
asg26
I00
sg27
I00
sg28
I3513130
sg20
S'10031.6380532'
p779
sba(igraph
Edge
p780
(dp781
g7
I1
sg8
I00
sg9
I5
sg10
(lp782
g328
ag352
asg26
I00
sg27
I00
sg28
I3513131
sg20
S'10031.6537895'
p783
sba(igraph
Edge
p784
(dp785
g7
I1
sg8
I00
sg9
I5
sg10
(lp786
g311
ag335
asg26
I00
sg27
I00
sg28
I3513132
sg20
S'10031.87783'
p787
sba(igraph
Edge
p788
(dp789
g7
I1
sg8
I00
sg9
I5
sg10
(lp790
g314
ag345
asg26
I00
sg27
I00
sg28
I3513133
sg20
S'10031.8937974'
p791
sba(igraph
Edge
p792
(dp793
g7
I1
sg8
I00
sg9
I5
sg10
(lp794
g321
ag345
asg26
I00
sg27
I00
sg28
I3513134
sg20
S'10031.9098536'
p795
sba(igraph
Edge
p796
(dp797
g7
I1
sg8
I00
sg9
I5
sg10
(lp798
g335
ag362
asg26
I00
sg27
I00
sg28
I3513135
sg20
S'10032.156381'
p799
sba(igraph
Edge
p800
(dp801
g7
I1
sg8
I00
sg9
I5
sg10
(lp802
g338
ag362
asg26
I00
sg27
I00
sg28
I3513136
sg20
S'10032.1727125'
p803
sba(igraph
Edge
p804
(dp805
g7
I1
sg8
I00
sg9
I5
sg10
(lp806
g345
ag376
asg26
I00
sg27
I00
sg28
I3513137
sg20
S'10032.1890249'
p807
sba(igraph
Edge
p808
(dp809
g7
I1
sg8
I00
sg9
I5
sg10
(lp810
g352
ag376
asg26
I00
sg27
I00
sg28
I3513138
sg20
S'10032.2053551'
p811
sba(igraph
Edge
p812
(dp813
g7
I1
sg8
I00
sg9
I5
sg10
(lp814
g335
ag359
asg26
I00
sg27
I00
sg28
I3513139
sg20
S'10032.4437293'
p815
sba(igraph
Edge
p816
(dp817
g7
I1
sg8
I00
sg9
I5
sg10
(lp818
g338
ag369
asg26
I00
sg27
I00
sg28
I3513140
sg20
S'10032.4613648'
p819
sba(igraph
Edge
p820
(dp821
g7
I1
sg8
I00
sg9
I5
sg10
(lp822
g345
ag369
asg26
I00
sg27
I00
sg28
I3513141
sg20
S'10032.4784924'
p823
sba(igraph
Edge
p824
(dp825
g7
I1
sg8
I00
sg9
I5
sg10
(lp826
g359
ag386
asg26
I00
sg27
I00
sg28
I3513142
sg20
S'10032.7420826'
p827
sba(igraph
Edge
p828
(dp829
g7
I1
sg8
I00
sg9
I5
sg10
(lp830
g362
ag386
asg26
I00
sg27
I00
sg28
I3513143
sg20
S'10032.759399'
p831
sba(igraph
Edge
p832
(dp833
g7
I1
sg8
I00
sg9
I5
sg10
(lp834
g369
ag400
asg26
I00
sg27
I00
sg28
I3513144
sg20
S'10032.7767395'
p835
sba(igraph
Edge
p836
(dp837
g7
I1
sg8
I00
sg9
I5
sg10
(lp838
g376
ag400
asg26
I00
sg27
I00
sg28
I3513145
sg20
S'10032.7940716'
p839
sba(igraph
Edge
p840
(dp841
g7
I1
sg8
I00
sg9
I5
sg10
(lp842
g359
ag383
asg26
I00
sg27
I00
sg28
I3513146
sg20
S'10033.0494605'
p843
sba(igraph
Edge
p844
(dp845
g7
I1
sg8
I00
sg9
I5
sg10
(lp846
g362
ag393
asg26
I00
sg27
I00
sg28
I3513147
sg20
S'10033.0694893'
p847
sba(igraph
Edge
p848
(dp849
g7
I1
sg8
I00
sg9
I5
sg10
(lp850
g369
ag393
asg26
I00
sg27
I00
sg28
I3513148
sg20
S'10033.0913999'
p851
sba(igraph
Edge
p852
(dp853
g7
I1
sg8
I00
sg9
I5
sg10
(lp854
g400
ag383
asg26
I00
sg27
I00
sg28
I3513149
sg20
S'11448.1470153'
p855
sba(igraph
Edge
p856
(dp857
g7
I1
sg8
I00
sg9
I5
sg10
(lp858
g383
ag376
asg26
I00
sg27
I00
sg28
I3513150
sg20
S'11450.5140287'
p859
sba(igraph
Edge
p860
(dp861
g7
I1
sg8
I00
sg9
I5
sg10
(lp862
g376
ag359
asg26
I00
sg27
I00
sg28
I3513151
sg20
S'11452.1491818'
p863
sba(igraph
Edge
p864
(dp865
g7
I1
sg8
I00
sg9
I5
sg10
(lp866
g359
ag352
asg26
I00
sg27
I00
sg28
I3513152
sg20
S'11453.3631881'
p867
sba(igraph
Edge
p868
(dp869
g7
I1
sg8
I00
sg9
I5
sg10
(lp870
g352
ag335
asg26
I00
sg27
I00
sg28
I3513153
sg20
S'11455.0207158'
p871
sba(igraph
Edge
p872
(dp873
g7
I1
sg8
I00
sg9
I5
sg10
(lp874
g335
ag328
asg26
I00
sg27
I00
sg28
I3513154
sg20
S'11456.2932353'
p875
sba(igraph
Edge
p876
(dp877
g7
I1
sg8
I00
sg9
I5
sg10
(lp878
g328
ag311
asg26
I00
sg27
I00
sg28
I3513155
sg20
S'11457.718481'
p879
sba(igraph
Edge
p880
(dp881
g7
I1
sg8
I00
sg9
I5
sg10
(lp882
g311
ag304
asg26
I00
sg27
I00
sg28
I3513156
sg20
S'11458.9541445'
p883
sba(igraph
Edge
p884
(dp885
g7
I1
sg8
I00
sg9
I5
sg10
(lp886
g304
ag287
asg26
I00
sg27
I00
sg28
I3513157
sg20
S'11460.1036037'
p887
sba(igraph
Edge
p888
(dp889
g7
I1
sg8
I00
sg9
I5
sg10
(lp890
g287
ag280
asg26
I00
sg27
I00
sg28
I3513158
sg20
S'11461.4482992'
p891
sba(igraph
Edge
p892
(dp893
g7
I1
sg8
I00
sg9
I5
sg10
(lp894
g280
ag263
asg26
I00
sg27
I00
sg28
I3513159
sg20
S'11463.0259309'
p895
sba(igraph
Edge
p896
(dp897
g7
I1
sg8
I00
sg9
I5
sg10
(lp898
g263
ag256
asg26
I00
sg27
I00
sg28
I3513160
sg20
S'11464.4233658'
p899
sba(igraph
Edge
p900
(dp901
g7
I1
sg8
I00
sg9
I5
sg10
(lp902
g256
ag239
asg26
I00
sg27
I00
sg28
I3513161
sg20
S'11466.1443538'
p903
sba(igraph
Edge
p904
(dp905
g7
I1
sg8
I00
sg9
I5
sg10
(lp906
g239
ag232
asg26
I00
sg27
I00
sg28
I3513162
sg20
S'11467.6860188'
p907
sba(igraph
Edge
p908
(dp909
g7
I1
sg8
I00
sg9
I5
sg10
(lp910
g232
ag215
asg26
I00
sg27
I00
sg28
I3513163
sg20
S'11469.2068735'
p911
sba(igraph
Edge
p912
(dp913
g7
I1
sg8
I00
sg9
I5
sg10
(lp914
g215
ag208
asg26
I00
sg27
I00
sg28
I3513164
sg20
S'11470.8911172'
p915
sba(igraph
Edge
p916
(dp917
g7
I1
sg8
I00
sg9
I5
sg10
(lp918
g208
ag191
asg26
I00
sg27
I00
sg28
I3513165
sg20
S'11472.3962087'
p919
sba(igraph
Edge
p920
(dp921
g7
I1
sg8
I00
sg9
I5
sg10
(lp922
g191
ag184
asg26
I00
sg27
I00
sg28
I3513166
sg20
S'11473.7819111'
p923
sba(igraph
Edge
p924
(dp925
g7
I1
sg8
I00
sg9
I5
sg10
(lp926
g184
ag167
asg26
I00
sg27
I00
sg28
I3513167
sg20
S'11475.1483541'
p927
sba(igraph
Edge
p928
(dp929
g7
I1
sg8
I00
sg9
I5
sg10
(lp930
g167
ag160
asg26
I00
sg27
I00
sg28
I3513168
sg20
S'11477.1913025'
p931
sba(igraph
Edge
p932
(dp933
g7
I1
sg8
I00
sg9
I5
sg10
(lp934
g160
ag143
asg26
I00
sg27
I00
sg28
I3513169
sg20
S'11478.952404'
p935
sba(igraph
Edge
p936
(dp937
g7
I1
sg8
I00
sg9
I5
sg10
(lp938
g143
ag136
asg26
I00
sg27
I00
sg28
I3513170
sg20
S'11480.5168562'
p939
sba(igraph
Edge
p940
(dp941
g7
I1
sg8
I00
sg9
I5
sg10
(lp942
g136
ag119
asg26
I00
sg27
I00
sg28
I3513171
sg20
S'11482.1335524'
p943
sba(igraph
Edge
p944
(dp945
g7
I1
sg8
I00
sg9
I5
sg10
(lp946
g119
ag112
asg26
I00
sg27
I00
sg28
I3513172
sg20
S'11483.8427934'
p947
sba(igraph
Edge
p948
(dp949
g7
I1
sg8
I00
sg9
I5
sg10
(lp950
g112
ag95
asg26
I00
sg27
I00
sg28
I3513173
sg20
S'11485.5636593'
p951
sba(igraph
Edge
p952
(dp953
g7
I1
sg8
I00
sg9
I5
sg10
(lp954
g95
ag88
asg26
I00
sg27
I00
sg28
I3513174
sg20
S'11486.729762'
p955
sba(igraph
Edge
p956
(dp957
g7
I1
sg8
I00
sg9
I5
sg10
(lp958
g88
ag71
asg26
I00
sg27
I00
sg28
I3513175
sg20
S'11488.2556205'
p959
sba(igraph
Edge
p960
(dp961
g7
I1
sg8
I00
sg9
I5
sg10
(lp962
g71
ag64
asg26
I00
sg27
I00
sg28
I3513176
sg20
S'11489.6798629'
p963
sba(igraph
Edge
p964
(dp965
g7
I1
sg8
I00
sg9
I5
sg10
(lp966
g64
ag47
asg26
I00
sg27
I00
sg28
I3513177
sg20
S'11490.9809398'
p967
sba(igraph
Edge
p968
(dp969
g7
I1
sg8
I00
sg9
I5
sg10
(lp970
g47
ag40
asg26
I00
sg27
I00
sg28
I3513178
sg20
S'11492.2467599'
p971
sba(igraph
Edge
p972
(dp973
g7
I1
sg8
I00
sg9
I5
sg10
(lp974
g40
ag12
asg26
I00
sg27
I00
sg28
I3513179
sg20
S'11494.5443186'
p975
sba(igraph
Edge
p976
(dp977
g7
I1
sg8
I00
sg9
I5
sg10
(lp978
g12
ag400
asg26
I00
sg27
I00
sg28
I3513180
sg20
S'11499.526482'
p979
sbasS'vertices'
p980
(lp981
g12
ag23
ag33
ag40
ag47
ag50
ag57
ag64
ag71
ag74
ag81
ag88
ag95
ag98
ag105
ag112
ag119
ag122
ag129
ag136
ag143
ag146
ag153
ag160
ag167
ag170
ag177
ag184
ag191
ag194
ag201
ag208
ag215
ag218
ag225
ag232
ag239
ag242
ag249
ag256
ag263
ag266
ag273
ag280
ag287
ag290
ag297
ag304
ag311
ag314
ag321
ag328
ag335
ag338
ag345
ag352
ag359
ag362
ag369
ag376
ag383
ag386
ag393
ag400
asS'tags'
p982
(lp983
sb.