(igraph
Graph
p0
(dp1
S'labelingConstraints'
p2
I-1
sS'edges'
p3
(lp4
(igraph
Edge
p5
(dp6
S'direction'
p7
I1
sS'selected'
p8
I00
sS'height'
p9
I5
sS'vs'
p10
(lp11
(igraph
Vertex
p12
(dp13
S'xnorm'
p14
F0.3125
sg8
I00
sS'label'
p15
S'NULL'
p16
sS'y'
p17
F-310.0
sS'x'
p18
F103.875
sS'circle'
p19
I3277925
sS'id'
p20
S'10025.3279478'
p21
sS'ynorm'
p22
F0.0
sba(igraph
Vertex
p23
(dp24
g14
F0.375
sg8
I00
sg15
g16
sg17
F-310.0
sg18
F62.25
sg19
I3277926
sg20
S'10025.3280015'
p25
sg22
F0.0
sbasS'wrap'
p26
I00
sS'curved'
p27
I00
sS'line'
p28
I3277350
sg20
S'10025.7043247'
p29
sba(igraph
Edge
p30
(dp31
g7
I1
sg8
I00
sg9
I5
sg10
(lp32
g23
a(igraph
Vertex
p33
(dp34
g14
F0.4375
sg8
I00
sg15
g16
sg17
F-310.0
sg18
F20.625
sg19
I3277927
sg20
S'10025.3280626'
p35
sg22
F0.0
sbasg26
I00
sg27
I00
sg28
I3277351
sg20
S'10025.7044867'
p36
sba(igraph
Edge
p37
(dp38
g7
I1
sg8
I00
sg9
I5
sg10
(lp39
g33
a(igraph
Vertex
p40
(dp41
g14
F0.5
sg8
I00
sg15
g16
sg17
F-310.0
sg18
F-21.0
sg19
I3277928
sg20
S'10025.3281308'
p42
sg22
F0.0
sbasg26
I00
sg27
I00
sg28
I3277352
sg20
S'10025.7046697'
p43
sba(igraph
Edge
p44
(dp45
g7
I1
sg8
I00
sg9
I5
sg10
(lp46
g40
a(igraph
Vertex
p47
(dp48
g14
F0.5625
sg8
I00
sg15
g16
sg17
F-310.0
sg18
F-62.625
sg19
I3277929
sg20
S'10025.3282068'
p49
sg22
F0.0
sbasg26
I00
sg27
I00
sg28
I3277353
sg20
S'10025.7048751'
p50
sba(igraph
Edge
p51
(dp52
g7
I1
sg8
I00
sg9
I5
sg10
(lp53
g47
a(igraph
Vertex
p54
(dp55
g14
F0.625
sg8
I00
sg15
g16
sg17
F-310.0
sg18
F-104.25
sg19
I3277930
sg20
S'10025.3282928'
p56
sg22
F0.0
sbasg26
I00
sg27
I00
sg28
I3277354
sg20
S'10025.7051019'
p57
sba(igraph
Edge
p58
(dp59
g7
I1
sg8
I00
sg9
I5
sg10
(lp60
g54
a(igraph
Vertex
p61
(dp62
g14
F0.6875
sg8
I00
sg15
g16
sg17
F-310.0
sg18
F-145.875
sg19
I3277931
sg20
S'10025.3283864'
p63
sg22
F0.0
sbasg26
I00
sg27
I00
sg28
I3277355
sg20
S'10025.70535'
p64
sba(igraph
Edge
p65
(dp66
g7
I1
sg8
I00
sg9
I5
sg10
(lp67
g61
a(igraph
Vertex
p68
(dp69
g14
F0.75
sg8
I00
sg15
g16
sg17
F-310.0
sg18
F-187.5
sg19
I3277932
sg20
S'10025.3284906'
p70
sg22
F0.0
sbasg26
I00
sg27
I00
sg28
I3277356
sg20
S'10025.7056201'
p71
sba(igraph
Edge
p72
(dp73
g7
I1
sg8
I00
sg9
I5
sg10
(lp74
g68
a(igraph
Vertex
p75
(dp76
g14
F0.8125
sg8
I00
sg15
g16
sg17
F-310.0
sg18
F-229.125
sg19
I3277933
sg20
S'10025.3286013'
p77
sg22
F0.0
sbasg26
I00
sg27
I00
sg28
I3277357
sg20
S'10025.7059109'
p78
sba(igraph
Edge
p79
(dp80
g7
I1
sg8
I00
sg9
I5
sg10
(lp81
g75
a(igraph
Vertex
p82
(dp83
g14
F0.875
sg8
I00
sg15
g16
sg17
F-310.0
sg18
F-270.75
sg19
I3277934
sg20
S'10025.3287203'
p84
sg22
F0.0
sbasg26
I00
sg27
I00
sg28
I3277358
sg20
S'10025.7062241'
p85
sba(igraph
Edge
p86
(dp87
g7
I1
sg8
I00
sg9
I5
sg10
(lp88
g82
a(igraph
Vertex
p89
(dp90
g14
F0.9375
sg8
I00
sg15
g16
sg17
F-310.0
sg18
F-312.375
sg19
I3277935
sg20
S'10025.3288488'
p91
sg22
F0.0
sbasg26
I00
sg27
I00
sg28
I3277359
sg20
S'10025.7065571'
p92
sba(igraph
Edge
p93
(dp94
g7
I1
sg8
I00
sg9
I5
sg10
(lp95
g89
a(igraph
Vertex
p96
(dp97
g14
F1.0
sg8
I00
sg15
g16
sg17
F-310.0
sg18
F-354.0
sg19
I3277936
sg20
S'10025.328984'
p98
sg22
F0.0
sbasg26
I00
sg27
I00
sg28
I3277360
sg20
S'10025.7069097'
p99
sba(igraph
Edge
p100
(dp101
g7
I1
sg8
I00
sg9
I5
sg10
(lp102
(igraph
Vertex
p103
(dp104
g14
F0.3125
sg8
I00
sg15
g16
sg17
F-271.0
sg18
F103.875
sg19
I3277937
sg20
S'10025.3299813'
p105
sg22
F0.066666666666666652
sba(igraph
Vertex
p106
(dp107
g14
F0.375
sg8
I01
sg15
I0
sg17
F-271.0
sg18
F62.25
sg19
I3277939
sg20
S'10025.3301769'
p108
sg22
F0.066666666666666652
sbasg26
I00
sg27
I00
sg28
I3277361
sg20
S'10025.7101813'
p109
sba(igraph
Edge
p110
(dp111
g7
I1
sg8
I00
sg9
I5
sg10
(lp112
g106
a(igraph
Vertex
p113
(dp114
g14
F0.4375
sg8
I00
sg15
g16
sg17
F-271.0
sg18
F20.625
sg19
I3277941
sg20
S'10025.3303794'
p115
sg22
F0.066666666666666652
sbasg26
I00
sg27
I00
sg28
I3277362
sg20
S'10025.710716'
p116
sba(igraph
Edge
p117
(dp118
g7
I1
sg8
I00
sg9
I5
sg10
(lp119
g113
a(igraph
Vertex
p120
(dp121
g14
F0.5
sg8
I00
sg15
g16
sg17
F-271.0
sg18
F-21.0
sg19
I3277942
sg20
S'10025.3305906'
p122
sg22
F0.066666666666666652
sbasg26
I00
sg27
I00
sg28
I3277363
sg20
S'10025.7112706'
p123
sba(igraph
Edge
p124
(dp125
g7
I1
sg8
I00
sg9
I5
sg10
(lp126
g120
a(igraph
Vertex
p127
(dp128
g14
F0.5625
sg8
I00
sg15
g16
sg17
F-271.0
sg18
F-62.625
sg19
I3277943
sg20
S'10025.3308113'
p129
sg22
F0.066666666666666652
sbasg26
I00
sg27
I00
sg28
I3277364
sg20
S'10025.7118502'
p130
sba(igraph
Edge
p131
(dp132
g7
I1
sg8
I00
sg9
I5
sg10
(lp133
g127
a(igraph
Vertex
p134
(dp135
g14
F0.625
sg8
I00
sg15
g16
sg17
F-271.0
sg18
F-104.25
sg19
I3277944
sg20
S'10025.3310365'
p136
sg22
F0.066666666666666652
sbasg26
I00
sg27
I00
sg28
I3277365
sg20
S'10025.7124411'
p137
sba(igraph
Edge
p138
(dp139
g7
I1
sg8
I00
sg9
I5
sg10
(lp140
g134
a(igraph
Vertex
p141
(dp142
g14
F0.6875
sg8
I00
sg15
g16
sg17
F-271.0
sg18
F-145.875
sg19
I3277945
sg20
S'10025.3312751'
p143
sg22
F0.066666666666666652
sbasg26
I00
sg27
I00
sg28
I3277366
sg20
S'10025.7130546'
p144
sba(igraph
Edge
p145
(dp146
g7
I1
sg8
I00
sg9
I5
sg10
(lp147
g141
a(igraph
Vertex
p148
(dp149
g14
F0.75
sg8
I00
sg15
g16
sg17
F-271.0
sg18
F-187.5
sg19
I3277946
sg20
S'10025.3315195'
p150
sg22
F0.066666666666666652
sbasg26
I00
sg27
I00
sg28
I3277367
sg20
S'10025.7136913'
p151
sba(igraph
Edge
p152
(dp153
g7
I1
sg8
I00
sg9
I5
sg10
(lp154
g148
a(igraph
Vertex
p155
(dp156
g14
F0.8125
sg8
I00
sg15
g16
sg17
F-271.0
sg18
F-229.125
sg19
I3277947
sg20
S'10025.3317746'
p157
sg22
F0.066666666666666652
sbasg26
I00
sg27
I00
sg28
I3277368
sg20
S'10025.714343'
p158
sba(igraph
Edge
p159
(dp160
g7
I1
sg8
I00
sg9
I5
sg10
(lp161
g155
a(igraph
Vertex
p162
(dp163
g14
F0.875
sg8
I00
sg15
g16
sg17
F-271.0
sg18
F-270.75
sg19
I3277948
sg20
S'10025.332038'
p164
sg22
F0.066666666666666652
sbasg26
I00
sg27
I00
sg28
I3277369
sg20
S'10025.7150196'
p165
sba(igraph
Edge
p166
(dp167
g7
I1
sg8
I00
sg9
I5
sg10
(lp168
g162
a(igraph
Vertex
p169
(dp170
g14
F0.9375
sg8
I00
sg15
g16
sg17
F-271.0
sg18
F-312.375
sg19
I3277949
sg20
S'10025.3323098'
p171
sg22
F0.066666666666666652
sbasg26
I00
sg27
I00
sg28
I3277370
sg20
S'10025.7157203'
p172
sba(igraph
Edge
p173
(dp174
g7
I1
sg8
I00
sg9
I5
sg10
(lp175
g169
a(igraph
Vertex
p176
(dp177
g14
F1.0
sg8
I00
sg15
g16
sg17
F-271.0
sg18
F-354.0
sg19
I3277950
sg20
S'10025.3325903'
p178
sg22
F0.066666666666666652
sbasg26
I00
sg27
I00
sg28
I3277371
sg20
S'10025.7164405'
p179
sba(igraph
Edge
p180
(dp181
g7
I1
sg8
I00
sg9
I5
sg10
(lp182
(igraph
Vertex
p183
(dp184
g14
F0.3125
sg8
I01
sg15
I0
sg17
F-232.0
sg18
F103.875
sg19
I3277952
sg20
S'10025.3344548'
p185
sg22
F0.1333333333333333
sba(igraph
Vertex
p186
(dp187
g14
F0.375
sg8
I00
sg15
g16
sg17
F-232.0
sg18
F62.25
sg19
I3277954
sg20
S'10025.334797'
p188
sg22
F0.1333333333333333
sbasg26
I00
sg27
I00
sg28
I3277372
sg20
S'10025.7220912'
p189
sba(igraph
Edge
p190
(dp191
g7
I1
sg8
I00
sg9
I5
sg10
(lp192
g186
a(igraph
Vertex
p193
(dp194
g14
F0.4375
sg8
I00
sg15
g16
sg17
F-232.0
sg18
F20.625
sg19
I3277955
sg20
S'10025.3351457'
p195
sg22
F0.1333333333333333
sbasg26
I00
sg27
I00
sg28
I3277373
sg20
S'10025.7229855'
p196
sba(igraph
Edge
p197
(dp198
g7
I1
sg8
I00
sg9
I5
sg10
(lp199
g193
a(igraph
Vertex
p200
(dp201
g14
F0.5
sg8
I00
sg15
g16
sg17
F-232.0
sg18
F-21.0
sg19
I3277956
sg20
S'10025.3355005'
p202
sg22
F0.1333333333333333
sbasg26
I00
sg27
I00
sg28
I3277374
sg20
S'10025.7239007'
p203
sba(igraph
Edge
p204
(dp205
g7
I1
sg8
I00
sg9
I5
sg10
(lp206
g200
a(igraph
Vertex
p207
(dp208
g14
F0.5625
sg8
I00
sg15
g16
sg17
F-232.0
sg18
F-62.625
sg19
I3277957
sg20
S'10025.3358687'
p209
sg22
F0.1333333333333333
sbasg26
I00
sg27
I00
sg28
I3277375
sg20
S'10025.7249064'
p210
sba(igraph
Edge
p211
(dp212
g7
I1
sg8
I00
sg9
I5
sg10
(lp213
g207
a(igraph
Vertex
p214
(dp215
g14
F0.625
sg8
I00
sg15
g16
sg17
F-232.0
sg18
F-104.25
sg19
I3277958
sg20
S'10025.3362469'
p216
sg22
F0.1333333333333333
sbasg26
I00
sg27
I00
sg28
I3277376
sg20
S'10025.7258646'
p217
sba(igraph
Edge
p218
(dp219
g7
I1
sg8
I00
sg9
I5
sg10
(lp220
g214
a(igraph
Vertex
p221
(dp222
g14
F0.6875
sg8
I00
sg15
g16
sg17
F-232.0
sg18
F-145.875
sg19
I3277959
sg20
S'10025.3366364'
p223
sg22
F0.1333333333333333
sbasg26
I00
sg27
I00
sg28
I3277377
sg20
S'10025.7268435'
p224
sba(igraph
Edge
p225
(dp226
g7
I1
sg8
I00
sg9
I5
sg10
(lp227
g221
a(igraph
Vertex
p228
(dp229
g14
F0.75
sg8
I00
sg15
g16
sg17
F-232.0
sg18
F-187.5
sg19
I3277960
sg20
S'10025.3370291'
p230
sg22
F0.1333333333333333
sbasg26
I00
sg27
I00
sg28
I3277378
sg20
S'10025.7278411'
p231
sba(igraph
Edge
p232
(dp233
g7
I1
sg8
I00
sg9
I5
sg10
(lp234
g228
a(igraph
Vertex
p235
(dp236
g14
F0.8125
sg8
I00
sg15
g16
sg17
F-232.0
sg18
F-229.125
sg19
I3277961
sg20
S'10025.3374317'
p237
sg22
F0.1333333333333333
sbasg26
I00
sg27
I00
sg28
I3277379
sg20
S'10025.7288594'
p238
sba(igraph
Edge
p239
(dp240
g7
I1
sg8
I00
sg9
I5
sg10
(lp241
g235
a(igraph
Vertex
p242
(dp243
g14
F0.875
sg8
I00
sg15
g16
sg17
F-232.0
sg18
F-270.75
sg19
I3277962
sg20
S'10025.3378452'
p244
sg22
F0.1333333333333333
sbasg26
I00
sg27
I00
sg28
I3277380
sg20
S'10025.7299025'
p245
sba(igraph
Edge
p246
(dp247
g7
I1
sg8
I00
sg9
I5
sg10
(lp248
g242
a(igraph
Vertex
p249
(dp250
g14
F0.9375
sg8
I00
sg15
g16
sg17
F-232.0
sg18
F-312.375
sg19
I3277963
sg20
S'10025.3382692'
p251
sg22
F0.1333333333333333
sbasg26
I00
sg27
I00
sg28
I3277381
sg20
S'10025.7309652'
p252
sba(igraph
Edge
p253
(dp254
g7
I1
sg8
I00
sg9
I5
sg10
(lp255
g249
a(igraph
Vertex
p256
(dp257
g14
F1.0
sg8
I00
sg15
g16
sg17
F-232.0
sg18
F-354.0
sg19
I3277964
sg20
S'10025.3386967'
p258
sg22
F0.1333333333333333
sbasg26
I00
sg27
I00
sg28
I3277382
sg20
S'10025.7320497'
p259
sba(igraph
Edge
p260
(dp261
g7
I1
sg8
I00
sg9
I5
sg10
(lp262
(igraph
Vertex
p263
(dp264
g14
F0.3125
sg8
I00
sg15
g16
sg17
F-193.0
sg18
F103.875
sg19
I3277965
sg20
S'10025.3414789'
p265
sg22
F0.20000000000000001
sba(igraph
Vertex
p266
(dp267
g14
F0.375
sg8
I00
sg15
g16
sg17
F-193.0
sg18
F62.25
sg19
I3277966
sg20
S'10025.3419742'
p268
sg22
F0.20000000000000001
sbasg26
I00
sg27
I00
sg28
I3277383
sg20
S'10025.7404033'
p269
sba(igraph
Edge
p270
(dp271
g7
I1
sg8
I00
sg9
I5
sg10
(lp272
g266
a(igraph
Vertex
p273
(dp274
g14
F0.4375
sg8
I01
sg15
I0
sg17
F-193.0
sg18
F20.625
sg19
I3277968
sg20
S'10025.3424773'
p275
sg22
F0.20000000000000001
sbasg26
I00
sg27
I00
sg28
I3277384
sg20
S'10025.7416736'
p276
sba(igraph
Edge
p277
(dp278
g7
I1
sg8
I00
sg9
I5
sg10
(lp279
g273
a(igraph
Vertex
p280
(dp281
g14
F0.5
sg8
I00
sg15
g16
sg17
F-193.0
sg18
F-21.0
sg19
I3277970
sg20
S'10025.3429877'
p282
sg22
F0.20000000000000001
sbasg26
I00
sg27
I00
sg28
I3277385
sg20
S'10025.7429687'
p283
sba(igraph
Edge
p284
(dp285
g7
I1
sg8
I00
sg9
I5
sg10
(lp286
g280
a(igraph
Vertex
p287
(dp288
g14
F0.5625
sg8
I00
sg15
g16
sg17
F-193.0
sg18
F-62.625
sg19
I3277971
sg20
S'10025.3435043'
p289
sg22
F0.20000000000000001
sbasg26
I00
sg27
I00
sg28
I3277386
sg20
S'10025.7444055'
p290
sba(igraph
Edge
p291
(dp292
g7
I1
sg8
I00
sg9
I5
sg10
(lp293
g287
a(igraph
Vertex
p294
(dp295
g14
F0.625
sg8
I00
sg15
g16
sg17
F-193.0
sg18
F-104.25
sg19
I3277972
sg20
S'10025.3440281'
p296
sg22
F0.20000000000000001
sbasg26
I00
sg27
I00
sg28
I3277387
sg20
S'10025.7457772'
p297
sba(igraph
Edge
p298
(dp299
g7
I1
sg8
I00
sg9
I5
sg10
(lp300
g294
a(igraph
Vertex
p301
(dp302
g14
F0.6875
sg8
I00
sg15
g16
sg17
F-193.0
sg18
F-145.875
sg19
I3277973
sg20
S'10025.3445611'
p303
sg22
F0.20000000000000001
sbasg26
I00
sg27
I00
sg28
I3277388
sg20
S'10025.747124'
p304
sba(igraph
Edge
p305
(dp306
g7
I1
sg8
I00
sg9
I5
sg10
(lp307
g301
a(igraph
Vertex
p308
(dp309
g14
F0.75
sg8
I00
sg15
g16
sg17
F-193.0
sg18
F-187.5
sg19
I3277974
sg20
S'10025.3451056'
p310
sg22
F0.20000000000000001
sbasg26
I00
sg27
I00
sg28
I3277389
sg20
S'10025.7485636'
p311
sba(igraph
Edge
p312
(dp313
g7
I1
sg8
I00
sg9
I5
sg10
(lp314
g308
a(igraph
Vertex
p315
(dp316
g14
F0.8125
sg8
I00
sg15
g16
sg17
F-193.0
sg18
F-229.125
sg19
I3277975
sg20
S'10025.3460691'
p317
sg22
F0.20000000000000001
sbasg26
I00
sg27
I00
sg28
I3277390
sg20
S'10025.7499551'
p318
sba(igraph
Edge
p319
(dp320
g7
I1
sg8
I00
sg9
I5
sg10
(lp321
g315
a(igraph
Vertex
p322
(dp323
g14
F0.875
sg8
I00
sg15
g16
sg17
F-193.0
sg18
F-270.75
sg19
I3277976
sg20
S'10025.3466368'
p324
sg22
F0.20000000000000001
sbasg26
I00
sg27
I00
sg28
I3277391
sg20
S'10025.7513681'
p325
sba(igraph
Edge
p326
(dp327
g7
I1
sg8
I00
sg9
I5
sg10
(lp328
g322
a(igraph
Vertex
p329
(dp330
g14
F0.9375
sg8
I00
sg15
g16
sg17
F-193.0
sg18
F-312.375
sg19
I3277977
sg20
S'10025.3472087'
p331
sg22
F0.20000000000000001
sbasg26
I00
sg27
I00
sg28
I3277392
sg20
S'10025.7528035'
p332
sba(igraph
Edge
p333
(dp334
g7
I1
sg8
I00
sg9
I5
sg10
(lp335
g329
a(igraph
Vertex
p336
(dp337
g14
F1.0
sg8
I00
sg15
g16
sg17
F-193.0
sg18
F-354.0
sg19
I3277978
sg20
S'10025.3477895'
p338
sg22
F0.20000000000000001
sbasg26
I00
sg27
I00
sg28
I3277393
sg20
S'10025.7542635'
p339
sba(igraph
Edge
p340
(dp341
g7
I1
sg8
I00
sg9
I5
sg10
(lp342
(igraph
Vertex
p343
(dp344
g14
F0.3125
sg8
I00
sg15
g16
sg17
F-154.0
sg18
F103.875
sg19
I3277979
sg20
S'10025.3514441'
p345
sg22
F0.26666666666666666
sba(igraph
Vertex
p346
(dp347
g14
F0.375
sg8
I00
sg15
g16
sg17
F-154.0
sg18
F62.25
sg19
I3277980
sg20
S'10025.3520794'
p348
sg22
F0.26666666666666666
sbasg26
I00
sg27
I00
sg28
I3277394
sg20
S'10025.7651945'
p349
sba(igraph
Edge
p350
(dp351
g7
I1
sg8
I00
sg9
I5
sg10
(lp352
g346
a(igraph
Vertex
p353
(dp354
g14
F0.4375
sg8
I00
sg15
g16
sg17
F-154.0
sg18
F20.625
sg19
I3277981
sg20
S'10025.3527297'
p355
sg22
F0.26666666666666666
sbasg26
I00
sg27
I00
sg28
I3277395
sg20
S'10025.7668486'
p356
sba(igraph
Edge
p357
(dp358
g7
I1
sg8
I00
sg9
I5
sg10
(lp359
g353
a(igraph
Vertex
p360
(dp361
g14
F0.5
sg8
I00
sg15
g16
sg17
F-154.0
sg18
F-21.0
sg19
I3277982
sg20
S'10025.3533865'
p362
sg22
F0.26666666666666666
sbasg26
I00
sg27
I00
sg28
I3277396
sg20
S'10025.7685049'
p363
sba(igraph
Edge
p364
(dp365
g7
I1
sg8
I00
sg9
I5
sg10
(lp366
g360
a(igraph
Vertex
p367
(dp368
g14
F0.5625
sg8
I00
sg15
g16
sg17
F-154.0
sg18
F-62.625
sg19
I3277983
sg20
S'10025.3540548'
p369
sg22
F0.26666666666666666
sbasg26
I00
sg27
I00
sg28
I3277397
sg20
S'10025.7701568'
p370
sba(igraph
Edge
p371
(dp372
g7
I1
sg8
I00
sg9
I5
sg10
(lp373
g367
a(igraph
Vertex
p374
(dp375
g14
F0.625
sg8
I00
sg15
g16
sg17
F-154.0
sg18
F-104.25
sg19
I3277984
sg20
S'10025.3547191'
p376
sg22
F0.26666666666666666
sbasg26
I00
sg27
I00
sg28
I3277398
sg20
S'10025.7718319'
p377
sba(igraph
Edge
p378
(dp379
g7
I1
sg8
I00
sg9
I5
sg10
(lp380
g374
a(igraph
Vertex
p381
(dp382
g14
F0.6875
sg8
I00
sg15
g16
sg17
F-154.0
sg18
F-145.875
sg19
I3277985
sg20
S'10025.3555438'
p383
sg22
F0.26666666666666666
sbasg26
I00
sg27
I00
sg28
I3277399
sg20
S'10025.7735304'
p384
sba(igraph
Edge
p385
(dp386
g7
I1
sg8
I00
sg9
I5
sg10
(lp387
g381
a(igraph
Vertex
p388
(dp389
g14
F0.75
sg8
I00
sg15
g16
sg17
F-154.0
sg18
F-187.5
sg19
I3277986
sg20
S'10025.356806'
p390
sg22
F0.26666666666666666
sbasg26
I00
sg27
I00
sg28
I3277400
sg20
S'10025.7752443'
p391
sba(igraph
Edge
p392
(dp393
g7
I1
sg8
I00
sg9
I5
sg10
(lp394
g388
a(igraph
Vertex
p395
(dp396
g14
F0.8125
sg8
I00
sg15
g16
sg17
F-154.0
sg18
F-229.125
sg19
I3277987
sg20
S'10025.3576787'
p397
sg22
F0.26666666666666666
sbasg26
I00
sg27
I00
sg28
I3277401
sg20
S'10025.7769837'
p398
sba(igraph
Edge
p399
(dp400
g7
I1
sg8
I00
sg9
I5
sg10
(lp401
g395
a(igraph
Vertex
p402
(dp403
g14
F0.875
sg8
I00
sg15
g16
sg17
F-154.0
sg18
F-270.75
sg19
I3277988
sg20
S'10025.3585618'
p404
sg22
F0.26666666666666666
sbasg26
I00
sg27
I00
sg28
I3277402
sg20
S'10025.7788102'
p405
sba(igraph
Edge
p406
(dp407
g7
I1
sg8
I00
sg9
I5
sg10
(lp408
g402
a(igraph
Vertex
p409
(dp410
g14
F0.9375
sg8
I00
sg15
g16
sg17
F-154.0
sg18
F-312.375
sg19
I3277989
sg20
S'10025.3594803'
p411
sg22
F0.26666666666666666
sbasg26
I00
sg27
I00
sg28
I3277403
sg20
S'10025.7805998'
p412
sba(igraph
Edge
p413
(dp414
g7
I1
sg8
I00
sg9
I5
sg10
(lp415
g409
a(igraph
Vertex
p416
(dp417
g14
F1.0
sg8
I00
sg15
g16
sg17
F-154.0
sg18
F-354.0
sg19
I3277990
sg20
S'10025.360212'
p418
sg22
F0.26666666666666666
sbasg26
I00
sg27
I00
sg28
I3277404
sg20
S'10025.782414'
p419
sba(igraph
Edge
p420
(dp421
g7
I1
sg8
I00
sg9
I5
sg10
(lp422
(igraph
Vertex
p423
(dp424
g14
F0.3125
sg8
I00
sg15
g16
sg17
F-115.0
sg18
F103.875
sg19
I3277991
sg20
S'10025.3676425'
p425
sg22
F0.33333333333333331
sba(igraph
Vertex
p426
(dp427
g14
F0.375
sg8
I00
sg15
g16
sg17
F-115.0
sg18
F62.25
sg19
I3277992
sg20
S'10025.3684292'
p428
sg22
F0.33333333333333331
sbasg26
I00
sg27
I00
sg28
I3277405
sg20
S'10025.7958755'
p429
sba(igraph
Edge
p430
(dp431
g7
I1
sg8
I00
sg9
I5
sg10
(lp432
g426
a(igraph
Vertex
p433
(dp434
g14
F0.4375
sg8
I00
sg15
g16
sg17
F-115.0
sg18
F20.625
sg19
I3277993
sg20
S'10025.3699205'
p435
sg22
F0.33333333333333331
sbasg26
I00
sg27
I00
sg28
I3277406
sg20
S'10025.7978891'
p436
sba(igraph
Edge
p437
(dp438
g7
I1
sg8
I00
sg9
I5
sg10
(lp439
g433
a(igraph
Vertex
p440
(dp441
g14
F0.5
sg8
I01
sg15
I0
sg17
F-115.0
sg18
F-21.0
sg19
I3277995
sg20
S'10025.3710684'
p442
sg22
F0.33333333333333331
sbasg26
I00
sg27
I00
sg28
I3277407
sg20
S'10025.7999497'
p443
sba(igraph
Edge
p444
(dp445
g7
I1
sg8
I00
sg9
I5
sg10
(lp446
g440
a(igraph
Vertex
p447
(dp448
g14
F0.5625
sg8
I00
sg15
g16
sg17
F-115.0
sg18
F-62.625
sg19
I3277997
sg20
S'10025.3720671'
p449
sg22
F0.33333333333333331
sbasg26
I00
sg27
I00
sg28
I3277408
sg20
S'10025.801991'
p450
sba(igraph
Edge
p451
(dp452
g7
I1
sg8
I00
sg9
I5
sg10
(lp453
g447
a(igraph
Vertex
p454
(dp455
g14
F0.625
sg8
I00
sg15
g16
sg17
F-115.0
sg18
F-104.25
sg19
I3277998
sg20
S'10025.3728966'
p456
sg22
F0.33333333333333331
sbasg26
I00
sg27
I00
sg28
I3277409
sg20
S'10025.804053'
p457
sba(igraph
Edge
p458
(dp459
g7
I1
sg8
I00
sg9
I5
sg10
(lp460
g454
a(igraph
Vertex
p461
(dp462
g14
F0.6875
sg8
I00
sg15
g16
sg17
F-115.0
sg18
F-145.875
sg19
I3277999
sg20
S'10025.373731'
p463
sg22
F0.33333333333333331
sbasg26
I00
sg27
I00
sg28
I3277410
sg20
S'10025.8061217'
p464
sba(igraph
Edge
p465
(dp466
g7
I1
sg8
I00
sg9
I5
sg10
(lp467
g461
a(igraph
Vertex
p468
(dp469
g14
F0.75
sg8
I00
sg15
g16
sg17
F-115.0
sg18
F-187.5
sg19
I3278000
sg20
S'10025.3747823'
p470
sg22
F0.33333333333333331
sbasg26
I00
sg27
I00
sg28
I3277411
sg20
S'10025.8081974'
p471
sba(igraph
Edge
p472
(dp473
g7
I1
sg8
I00
sg9
I5
sg10
(lp474
g468
a(igraph
Vertex
p475
(dp476
g14
F0.8125
sg8
I00
sg15
g16
sg17
F-115.0
sg18
F-229.125
sg19
I3278001
sg20
S'10025.3756709'
p477
sg22
F0.33333333333333331
sbasg26
I00
sg27
I00
sg28
I3277412
sg20
S'10025.8103617'
p478
sba(igraph
Edge
p479
(dp480
g7
I1
sg8
I00
sg9
I5
sg10
(lp481
g475
a(igraph
Vertex
p482
(dp483
g14
F0.875
sg8
I00
sg15
g16
sg17
F-115.0
sg18
F-270.75
sg19
I3278002
sg20
S'10025.3765909'
p484
sg22
F0.33333333333333331
sbasg26
I00
sg27
I00
sg28
I3277413
sg20
S'10025.8124988'
p485
sba(igraph
Edge
p486
(dp487
g7
I1
sg8
I00
sg9
I5
sg10
(lp488
g482
a(igraph
Vertex
p489
(dp490
g14
F0.9375
sg8
I00
sg15
g16
sg17
F-115.0
sg18
F-312.375
sg19
I3278003
sg20
S'10025.3775198'
p491
sg22
F0.33333333333333331
sbasg26
I00
sg27
I00
sg28
I3277414
sg20
S'10025.8147441'
p492
sba(igraph
Edge
p493
(dp494
g7
I1
sg8
I00
sg9
I5
sg10
(lp495
g489
a(igraph
Vertex
p496
(dp497
g14
F1.0
sg8
I00
sg15
g16
sg17
F-115.0
sg18
F-354.0
sg19
I3278004
sg20
S'10025.3785445'
p498
sg22
F0.33333333333333331
sbasg26
I00
sg27
I00
sg28
I3277415
sg20
S'10025.8169865'
p499
sba(igraph
Edge
p500
(dp501
g7
I1
sg8
I00
sg9
I5
sg10
(lp502
(igraph
Vertex
p503
(dp504
g14
F0.3125
sg8
I00
sg15
g16
sg17
F-76.0
sg18
F103.875
sg19
I3278005
sg20
S'10025.3844695'
p505
sg22
F0.40000000000000002
sba(igraph
Vertex
p506
(dp507
g14
F0.375
sg8
I00
sg15
g16
sg17
F-76.0
sg18
F62.25
sg19
I3278006
sg20
S'10025.3854208'
p508
sg22
F0.40000000000000002
sbasg26
I00
sg27
I00
sg28
I3277416
sg20
S'10025.8336166'
p509
sba(igraph
Edge
p510
(dp511
g7
I1
sg8
I00
sg9
I5
sg10
(lp512
g506
a(igraph
Vertex
p513
(dp514
g14
F0.4375
sg8
I00
sg15
g16
sg17
F-76.0
sg18
F20.625
sg19
I3278007
sg20
S'10025.3863745'
p515
sg22
F0.40000000000000002
sbasg26
I00
sg27
I00
sg28
I3277417
sg20
S'10025.8359694'
p516
sba(igraph
Edge
p517
(dp518
g7
I1
sg8
I00
sg9
I5
sg10
(lp519
g513
a(igraph
Vertex
p520
(dp521
g14
F0.5
sg8
I00
sg15
g16
sg17
F-76.0
sg18
F-21.0
sg19
I3278008
sg20
S'10025.3873417'
p522
sg22
F0.40000000000000002
sbasg26
I00
sg27
I00
sg28
I3277418
sg20
S'10025.8383417'
p523
sba(igraph
Edge
p524
(dp525
g7
I1
sg8
I00
sg9
I5
sg10
(lp526
g520
a(igraph
Vertex
p527
(dp528
g14
F0.5625
sg8
I00
sg15
g16
sg17
F-76.0
sg18
F-62.625
sg19
I3278009
sg20
S'10025.3883133'
p529
sg22
F0.40000000000000002
sbasg26
I00
sg27
I00
sg28
I3277419
sg20
S'10025.840765'
p530
sba(igraph
Edge
p531
(dp532
g7
I1
sg8
I00
sg9
I5
sg10
(lp533
g527
a(igraph
Vertex
p534
(dp535
g14
F0.625
sg8
I01
sg15
I0
sg17
F-76.0
sg18
F-104.25
sg19
I3278011
sg20
S'10025.3895177'
p536
sg22
F0.40000000000000002
sbasg26
I00
sg27
I00
sg28
I3277420
sg20
S'10025.8432541'
p537
sba(igraph
Edge
p538
(dp539
g7
I1
sg8
I00
sg9
I5
sg10
(lp540
g534
a(igraph
Vertex
p541
(dp542
g14
F0.6875
sg8
I00
sg15
g16
sg17
F-76.0
sg18
F-145.875
sg19
I3278013
sg20
S'10025.390679'
p543
sg22
F0.40000000000000002
sbasg26
I00
sg27
I00
sg28
I3277421
sg20
S'10025.845729'
p544
sba(igraph
Edge
p545
(dp546
g7
I1
sg8
I00
sg9
I5
sg10
(lp547
g541
a(igraph
Vertex
p548
(dp549
g14
F0.75
sg8
I00
sg15
g16
sg17
F-76.0
sg18
F-187.5
sg19
I3278014
sg20
S'10025.3917671'
p550
sg22
F0.40000000000000002
sbasg26
I00
sg27
I00
sg28
I3277422
sg20
S'10025.8482254'
p551
sba(igraph
Edge
p552
(dp553
g7
I1
sg8
I00
sg9
I5
sg10
(lp554
g548
a(igraph
Vertex
p555
(dp556
g14
F0.8125
sg8
I00
sg15
g16
sg17
F-76.0
sg18
F-229.125
sg19
I3278015
sg20
S'10025.3929033'
p557
sg22
F0.40000000000000002
sbasg26
I00
sg27
I00
sg28
I3277423
sg20
S'10025.850743'
p558
sba(igraph
Edge
p559
(dp560
g7
I1
sg8
I00
sg9
I5
sg10
(lp561
g555
a(igraph
Vertex
p562
(dp563
g14
F0.875
sg8
I00
sg15
g16
sg17
F-76.0
sg18
F-270.75
sg19
I3278016
sg20
S'10025.3940302'
p564
sg22
F0.40000000000000002
sbasg26
I00
sg27
I00
sg28
I3277424
sg20
S'10025.8532677'
p565
sba(igraph
Edge
p566
(dp567
g7
I1
sg8
I00
sg9
I5
sg10
(lp568
g562
a(igraph
Vertex
p569
(dp570
g14
F0.9375
sg8
I00
sg15
g16
sg17
F-76.0
sg18
F-312.375
sg19
I3278017
sg20
S'10025.3951128'
p571
sg22
F0.40000000000000002
sbasg26
I00
sg27
I00
sg28
I3277425
sg20
S'10025.8557842'
p572
sba(igraph
Edge
p573
(dp574
g7
I1
sg8
I00
sg9
I5
sg10
(lp575
g569
a(igraph
Vertex
p576
(dp577
g14
F1.0
sg8
I00
sg15
g16
sg17
F-76.0
sg18
F-354.0
sg19
I3278018
sg20
S'10025.3962534'
p578
sg22
F0.40000000000000002
sbasg26
I00
sg27
I00
sg28
I3277426
sg20
S'10025.8583348'
p579
sba(igraph
Edge
p580
(dp581
g7
I1
sg8
I00
sg9
I5
sg10
(lp582
(igraph
Vertex
p583
(dp584
g14
F0.3125
sg8
I00
sg15
g16
sg17
F-37.0
sg18
F103.875
sg19
I3278019
sg20
S'10025.4039916'
p585
sg22
F0.46666666666666667
sba(igraph
Vertex
p586
(dp587
g14
F0.375
sg8
I00
sg15
g16
sg17
F-37.0
sg18
F62.25
sg19
I3278020
sg20
S'10025.4051965'
p588
sg22
F0.46666666666666667
sbasg26
I00
sg27
I00
sg28
I3277427
sg20
S'10025.8768749'
p589
sba(igraph
Edge
p590
(dp591
g7
I1
sg8
I00
sg9
I5
sg10
(lp592
g586
a(igraph
Vertex
p593
(dp594
g14
F0.4375
sg8
I00
sg15
g16
sg17
F-37.0
sg18
F20.625
sg19
I3278021
sg20
S'10025.4064441'
p595
sg22
F0.46666666666666667
sbasg26
I00
sg27
I00
sg28
I3277428
sg20
S'10025.8795651'
p596
sba(igraph
Edge
p597
(dp598
g7
I1
sg8
I00
sg9
I5
sg10
(lp599
g593
a(igraph
Vertex
p600
(dp601
g14
F0.5
sg8
I00
sg15
g16
sg17
F-37.0
sg18
F-21.0
sg19
I3278022
sg20
S'10025.4076256'
p602
sg22
F0.46666666666666667
sbasg26
I00
sg27
I00
sg28
I3277429
sg20
S'10025.8822783'
p603
sba(igraph
Edge
p604
(dp605
g7
I1
sg8
I00
sg9
I5
sg10
(lp606
g600
a(igraph
Vertex
p607
(dp608
g14
F0.5625
sg8
I00
sg15
g16
sg17
F-37.0
sg18
F-62.625
sg19
I3278023
sg20
S'10025.408876'
p609
sg22
F0.46666666666666667
sbasg26
I00
sg27
I00
sg28
I3277430
sg20
S'10025.8850144'
p610
sba(igraph
Edge
p611
(dp612
g7
I1
sg8
I00
sg9
I5
sg10
(lp613
g607
a(igraph
Vertex
p614
(dp615
g14
F0.625
sg8
I00
sg15
g16
sg17
F-37.0
sg18
F-104.25
sg19
I3278024
sg20
S'10025.410144'
p616
sg22
F0.46666666666666667
sbasg26
I00
sg27
I00
sg28
I3277431
sg20
S'10025.8878422'
p617
sba(igraph
Edge
p618
(dp619
g7
I1
sg8
I00
sg9
I5
sg10
(lp620
g614
a(igraph
Vertex
p621
(dp622
g14
F0.6875
sg8
I00
sg15
g16
sg17
F-37.0
sg18
F-145.875
sg19
I3278025
sg20
S'10025.4114397'
p623
sg22
F0.46666666666666667
sbasg26
I00
sg27
I00
sg28
I3277432
sg20
S'10025.890683'
p624
sba(igraph
Edge
p625
(dp626
g7
I1
sg8
I00
sg9
I5
sg10
(lp627
g621
a(igraph
Vertex
p628
(dp629
g14
F0.75
sg8
I00
sg15
g16
sg17
F-37.0
sg18
F-187.5
sg19
I3278026
sg20
S'10025.4126611'
p630
sg22
F0.46666666666666667
sbasg26
I00
sg27
I00
sg28
I3277433
sg20
S'10025.8934795'
p631
sba(igraph
Edge
p632
(dp633
g7
I1
sg8
I00
sg9
I5
sg10
(lp634
g628
a(igraph
Vertex
p635
(dp636
g14
F0.8125
sg8
I00
sg15
g16
sg17
F-37.0
sg18
F-229.125
sg19
I3278027
sg20
S'10025.4139442'
p637
sg22
F0.46666666666666667
sbasg26
I00
sg27
I00
sg28
I3277434
sg20
S'10025.8963075'
p638
sba(igraph
Edge
p639
(dp640
g7
I1
sg8
I00
sg9
I5
sg10
(lp641
g635
a(igraph
Vertex
p642
(dp643
g14
F0.875
sg8
I00
sg15
g16
sg17
F-37.0
sg18
F-270.75
sg19
I3278028
sg20
S'10025.4152405'
p644
sg22
F0.46666666666666667
sbasg26
I00
sg27
I00
sg28
I3277435
sg20
S'10025.8991562'
p645
sba(igraph
Edge
p646
(dp647
g7
I1
sg8
I00
sg9
I5
sg10
(lp648
g642
a(igraph
Vertex
p649
(dp650
g14
F0.9375
sg8
I00
sg15
g16
sg17
F-37.0
sg18
F-312.375
sg19
I3278029
sg20
S'10025.4165641'
p651
sg22
F0.46666666666666667
sbasg26
I00
sg27
I00
sg28
I3277436
sg20
S'10025.9020046'
p652
sba(igraph
Edge
p653
(dp654
g7
I1
sg8
I00
sg9
I5
sg10
(lp655
g649
a(igraph
Vertex
p656
(dp657
g14
F1.0
sg8
I00
sg15
g16
sg17
F-37.0
sg18
F-354.0
sg19
I3278030
sg20
S'10025.417826'
p658
sg22
F0.46666666666666667
sbasg26
I00
sg27
I00
sg28
I3277437
sg20
S'10025.9048896'
p659
sba(igraph
Edge
p660
(dp661
g7
I1
sg8
I00
sg9
I5
sg10
(lp662
(igraph
Vertex
p663
(dp664
g14
F0.3125
sg8
I00
sg15
g16
sg17
F2.0
sg18
F103.875
sg19
I3278031
sg20
S'10025.4264156'
p665
sg22
F0.53333333333333333
sba(igraph
Vertex
p666
(dp667
g14
F0.375
sg8
I00
sg15
g16
sg17
F2.0
sg18
F62.25
sg19
I3278032
sg20
S'10025.427739'
p668
sg22
F0.53333333333333333
sbasg26
I00
sg27
I00
sg28
I3277438
sg20
S'10025.9281255'
p669
sba(igraph
Edge
p670
(dp671
g7
I1
sg8
I00
sg9
I5
sg10
(lp672
g666
a(igraph
Vertex
p673
(dp674
g14
F0.4375
sg8
I00
sg15
g16
sg17
F2.0
sg18
F20.625
sg19
I3278033
sg20
S'10025.4290805'
p675
sg22
F0.53333333333333333
sbasg26
I00
sg27
I00
sg28
I3277439
sg20
S'10025.9314818'
p676
sba(igraph
Edge
p677
(dp678
g7
I1
sg8
I00
sg9
I5
sg10
(lp679
g673
a(igraph
Vertex
p680
(dp681
g14
F0.5
sg8
I00
sg15
g16
sg17
F2.0
sg18
F-21.0
sg19
I3278034
sg20
S'10025.4304176'
p682
sg22
F0.53333333333333333
sbasg26
I00
sg27
I00
sg28
I3277440
sg20
S'10025.9347199'
p683
sba(igraph
Edge
p684
(dp685
g7
I1
sg8
I00
sg9
I5
sg10
(lp686
g680
a(igraph
Vertex
p687
(dp688
g14
F0.5625
sg8
I00
sg15
g16
sg17
F2.0
sg18
F-62.625
sg19
I3278035
sg20
S'10025.4317641'
p689
sg22
F0.53333333333333333
sbasg26
I00
sg27
I00
sg28
I3277441
sg20
S'10025.9379927'
p690
sba(igraph
Edge
p691
(dp692
g7
I1
sg8
I00
sg9
I5
sg10
(lp693
g687
a(igraph
Vertex
p694
(dp695
g14
F0.625
sg8
I00
sg15
g16
sg17
F2.0
sg18
F-104.25
sg19
I3278036
sg20
S'10025.433128'
p696
sg22
F0.53333333333333333
sbasg26
I00
sg27
I00
sg28
I3277442
sg20
S'10025.9413439'
p697
sba(igraph
Edge
p698
(dp699
g7
I1
sg8
I00
sg9
I5
sg10
(lp700
g694
a(igraph
Vertex
p701
(dp702
g14
F0.6875
sg8
I01
sg15
I0
sg17
F2.0
sg18
F-145.875
sg19
I3278038
sg20
S'10025.4345784'
p703
sg22
F0.53333333333333333
sbasg26
I00
sg27
I00
sg28
I3277443
sg20
S'10025.9446818'
p704
sba(igraph
Edge
p705
(dp706
g7
I1
sg8
I00
sg9
I5
sg10
(lp707
g701
a(igraph
Vertex
p708
(dp709
g14
F0.75
sg8
I00
sg15
g16
sg17
F2.0
sg18
F-187.5
sg19
I3278040
sg20
S'10025.4359711'
p710
sg22
F0.53333333333333333
sbasg26
I00
sg27
I00
sg28
I3277444
sg20
S'10025.9480068'
p711
sba(igraph
Edge
p712
(dp713
g7
I1
sg8
I00
sg9
I5
sg10
(lp714
g708
a(igraph
Vertex
p715
(dp716
g14
F0.8125
sg8
I00
sg15
g16
sg17
F2.0
sg18
F-229.125
sg19
I3278041
sg20
S'10025.4373584'
p717
sg22
F0.53333333333333333
sbasg26
I00
sg27
I00
sg28
I3277445
sg20
S'10025.9514092'
p718
sba(igraph
Edge
p719
(dp720
g7
I1
sg8
I00
sg9
I5
sg10
(lp721
g715
a(igraph
Vertex
p722
(dp723
g14
F0.875
sg8
I00
sg15
g16
sg17
F2.0
sg18
F-270.75
sg19
I3278042
sg20
S'10025.4398911'
p724
sg22
F0.53333333333333333
sbasg26
I00
sg27
I00
sg28
I3277446
sg20
S'10025.9547423'
p725
sba(igraph
Edge
p726
(dp727
g7
I1
sg8
I00
sg9
I5
sg10
(lp728
g722
a(igraph
Vertex
p729
(dp730
g14
F0.9375
sg8
I00
sg15
g16
sg17
F2.0
sg18
F-312.375
sg19
I3278043
sg20
S'10025.4413279'
p731
sg22
F0.53333333333333333
sbasg26
I00
sg27
I00
sg28
I3277447
sg20
S'10025.9580584'
p732
sba(igraph
Edge
p733
(dp734
g7
I1
sg8
I00
sg9
I5
sg10
(lp735
g729
a(igraph
Vertex
p736
(dp737
g14
F1.0
sg8
I00
sg15
g16
sg17
F2.0
sg18
F-354.0
sg19
I3278044
sg20
S'10025.4428862'
p738
sg22
F0.53333333333333333
sbasg26
I00
sg27
I00
sg28
I3277448
sg20
S'10025.9614144'
p739
sba(igraph
Edge
p740
(dp741
g7
I1
sg8
I00
sg9
I5
sg10
(lp742
(igraph
Vertex
p743
(dp744
g14
F0.3125
sg8
I00
sg15
g16
sg17
F41.0
sg18
F103.875
sg19
I3278045
sg20
S'10025.4520832'
p745
sg22
F0.59999999999999998
sba(igraph
Vertex
p746
(dp747
g14
F0.375
sg8
I00
sg15
g16
sg17
F41.0
sg18
F62.25
sg19
I3278046
sg20
S'10025.4536957'
p748
sg22
F0.59999999999999998
sbasg26
I00
sg27
I00
sg28
I3277449
sg20
S'10025.9858094'
p749
sba(igraph
Edge
p750
(dp751
g7
I1
sg8
I00
sg9
I5
sg10
(lp752
g746
a(igraph
Vertex
p753
(dp754
g14
F0.4375
sg8
I00
sg15
g16
sg17
F41.0
sg18
F20.625
sg19
I3278047
sg20
S'10025.4554403'
p755
sg22
F0.59999999999999998
sbasg26
I00
sg27
I00
sg28
I3277450
sg20
S'10025.989326'
p756
sba(igraph
Edge
p757
(dp758
g7
I1
sg8
I00
sg9
I5
sg10
(lp759
g753
a(igraph
Vertex
p760
(dp761
g14
F0.5
sg8
I00
sg15
g16
sg17
F41.0
sg18
F-21.0
sg19
I3278048
sg20
S'10025.456976'
p762
sg22
F0.59999999999999998
sbasg26
I00
sg27
I00
sg28
I3277451
sg20
S'10025.9928611'
p763
sba(igraph
Edge
p764
(dp765
g7
I1
sg8
I00
sg9
I5
sg10
(lp766
g760
a(igraph
Vertex
p767
(dp768
g14
F0.5625
sg8
I00
sg15
g16
sg17
F41.0
sg18
F-62.625
sg19
I3278049
sg20
S'10025.4585167'
p769
sg22
F0.59999999999999998
sbasg26
I00
sg27
I00
sg28
I3277452
sg20
S'10025.9963981'
p770
sba(igraph
Edge
p771
(dp772
g7
I1
sg8
I00
sg9
I5
sg10
(lp773
g767
a(igraph
Vertex
p774
(dp775
g14
F0.625
sg8
I00
sg15
g16
sg17
F41.0
sg18
F-104.25
sg19
I3278050
sg20
S'10025.4600797'
p776
sg22
F0.59999999999999998
sbasg26
I00
sg27
I00
sg28
I3277453
sg20
S'10025.9999827'
p777
sba(igraph
Edge
p778
(dp779
g7
I1
sg8
I00
sg9
I5
sg10
(lp780
g774
a(igraph
Vertex
p781
(dp782
g14
F0.6875
sg8
I00
sg15
g16
sg17
F41.0
sg18
F-145.875
sg19
I3278051
sg20
S'10025.4619713'
p783
sg22
F0.59999999999999998
sbasg26
I00
sg27
I00
sg28
I3277454
sg20
S'10026.0035884'
p784
sba(igraph
Edge
p785
(dp786
g7
I1
sg8
I00
sg9
I5
sg10
(lp787
g781
a(igraph
Vertex
p788
(dp789
g14
F0.75
sg8
I00
sg15
g16
sg17
F41.0
sg18
F-187.5
sg19
I3278052
sg20
S'10025.4636078'
p790
sg22
F0.59999999999999998
sbasg26
I00
sg27
I00
sg28
I3277455
sg20
S'10026.0072599'
p791
sba(igraph
Edge
p792
(dp793
g7
I1
sg8
I00
sg9
I5
sg10
(lp794
g788
a(igraph
Vertex
p795
(dp796
g14
F0.8125
sg8
I00
sg15
g16
sg17
F41.0
sg18
F-229.125
sg19
I3278053
sg20
S'10025.465234'
p797
sg22
F0.59999999999999998
sbasg26
I00
sg27
I00
sg28
I3277456
sg20
S'10026.014967'
p798
sba(igraph
Edge
p799
(dp800
g7
I1
sg8
I00
sg9
I5
sg10
(lp801
g795
a(igraph
Vertex
p802
(dp803
g14
F0.875
sg8
I00
sg15
g16
sg17
F41.0
sg18
F-270.75
sg19
I3278054
sg20
S'10025.4669789'
p804
sg22
F0.59999999999999998
sbasg26
I00
sg27
I00
sg28
I3277457
sg20
S'10026.0186677'
p805
sba(igraph
Edge
p806
(dp807
g7
I1
sg8
I00
sg9
I5
sg10
(lp808
g802
a(igraph
Vertex
p809
(dp810
g14
F0.9375
sg8
I00
sg15
g16
sg17
F41.0
sg18
F-312.375
sg19
I3278055
sg20
S'10025.4687844'
p811
sg22
F0.59999999999999998
sbasg26
I00
sg27
I00
sg28
I3277458
sg20
S'10026.0222676'
p812
sba(igraph
Edge
p813
(dp814
g7
I1
sg8
I00
sg9
I5
sg10
(lp815
g809
a(igraph
Vertex
p816
(dp817
g14
F1.0
sg8
I00
sg15
g16
sg17
F41.0
sg18
F-354.0
sg19
I3278056
sg20
S'10025.4703304'
p818
sg22
F0.59999999999999998
sbasg26
I00
sg27
I00
sg28
I3277459
sg20
S'10026.0259016'
p819
sba(igraph
Edge
p820
(dp821
g7
I1
sg8
I00
sg9
I5
sg10
(lp822
(igraph
Vertex
p823
(dp824
g14
F0.3125
sg8
I00
sg15
g16
sg17
F80.0
sg18
F103.875
sg19
I3278057
sg20
S'10025.4800982'
p825
sg22
F0.66666666666666663
sba(igraph
Vertex
p826
(dp827
g14
F0.375
sg8
I00
sg15
g16
sg17
F80.0
sg18
F62.25
sg19
I3278058
sg20
S'10025.4817045'
p828
sg22
F0.66666666666666663
sbasg26
I00
sg27
I00
sg28
I3277460
sg20
S'10026.0525142'
p829
sba(igraph
Edge
p830
(dp831
g7
I1
sg8
I00
sg9
I5
sg10
(lp832
g826
a(igraph
Vertex
p833
(dp834
g14
F0.4375
sg8
I00
sg15
g16
sg17
F80.0
sg18
F20.625
sg19
I3278059
sg20
S'10025.4833257'
p835
sg22
F0.66666666666666663
sbasg26
I00
sg27
I00
sg28
I3277461
sg20
S'10026.0563689'
p836
sba(igraph
Edge
p837
(dp838
g7
I1
sg8
I00
sg9
I5
sg10
(lp839
g833
a(igraph
Vertex
p840
(dp841
g14
F0.5
sg8
I00
sg15
g16
sg17
F80.0
sg18
F-21.0
sg19
I3278060
sg20
S'10025.4849474'
p842
sg22
F0.66666666666666663
sbasg26
I00
sg27
I00
sg28
I3277462
sg20
S'10026.0602311'
p843
sba(igraph
Edge
p844
(dp845
g7
I1
sg8
I00
sg9
I5
sg10
(lp846
g840
a(igraph
Vertex
p847
(dp848
g14
F0.5625
sg8
I00
sg15
g16
sg17
F80.0
sg18
F-62.625
sg19
I3278061
sg20
S'10025.4866311'
p849
sg22
F0.66666666666666663
sbasg26
I00
sg27
I00
sg28
I3277463
sg20
S'10026.0644898'
p850
sba(igraph
Edge
p851
(dp852
g7
I1
sg8
I00
sg9
I5
sg10
(lp853
g847
a(igraph
Vertex
p854
(dp855
g14
F0.625
sg8
I00
sg15
g16
sg17
F80.0
sg18
F-104.25
sg19
I3278062
sg20
S'10025.488321'
p856
sg22
F0.66666666666666663
sbasg26
I00
sg27
I00
sg28
I3277464
sg20
S'10026.0683679'
p857
sba(igraph
Edge
p858
(dp859
g7
I1
sg8
I00
sg9
I5
sg10
(lp860
g854
a(igraph
Vertex
p861
(dp862
g14
F0.6875
sg8
I00
sg15
g16
sg17
F80.0
sg18
F-145.875
sg19
I3278063
sg20
S'10025.4899871'
p863
sg22
F0.66666666666666663
sbasg26
I00
sg27
I00
sg28
I3277465
sg20
S'10026.0723813'
p864
sba(igraph
Edge
p865
(dp866
g7
I1
sg8
I00
sg9
I5
sg10
(lp867
g861
a(igraph
Vertex
p868
(dp869
g14
F0.75
sg8
I01
sg15
I0
sg17
F80.0
sg18
F-187.5
sg19
I3278065
sg20
S'10025.4916589'
p870
sg22
F0.66666666666666663
sbasg26
I00
sg27
I00
sg28
I3277466
sg20
S'10026.0763024'
p871
sba(igraph
Edge
p872
(dp873
g7
I1
sg8
I00
sg9
I5
sg10
(lp874
g868
a(igraph
Vertex
p875
(dp876
g14
F0.8125
sg8
I00
sg15
g16
sg17
F80.0
sg18
F-229.125
sg19
I3278067
sg20
S'10025.4933289'
p877
sg22
F0.66666666666666663
sbasg26
I00
sg27
I00
sg28
I3277467
sg20
S'10026.0817797'
p878
sba(igraph
Edge
p879
(dp880
g7
I1
sg8
I00
sg9
I5
sg10
(lp881
g875
a(igraph
Vertex
p882
(dp883
g14
F0.875
sg8
I00
sg15
g16
sg17
F80.0
sg18
F-270.75
sg19
I3278068
sg20
S'10025.4950126'
p884
sg22
F0.66666666666666663
sbasg26
I00
sg27
I00
sg28
I3277468
sg20
S'10026.0858101'
p885
sba(igraph
Edge
p886
(dp887
g7
I1
sg8
I00
sg9
I5
sg10
(lp888
g882
a(igraph
Vertex
p889
(dp890
g14
F0.9375
sg8
I00
sg15
g16
sg17
F80.0
sg18
F-312.375
sg19
I3278069
sg20
S'10025.4967067'
p891
sg22
F0.66666666666666663
sbasg26
I00
sg27
I00
sg28
I3277469
sg20
S'10026.0898463'
p892
sba(igraph
Edge
p893
(dp894
g7
I1
sg8
I00
sg9
I5
sg10
(lp895
g889
a(igraph
Vertex
p896
(dp897
g14
F1.0
sg8
I00
sg15
g16
sg17
F80.0
sg18
F-354.0
sg19
I3278070
sg20
S'10025.4985648'
p898
sg22
F0.66666666666666663
sbasg26
I00
sg27
I00
sg28
I3277470
sg20
S'10026.0939013'
p899
sba(igraph
Edge
p900
(dp901
g7
I1
sg8
I00
sg9
I5
sg10
(lp902
(igraph
Vertex
p903
(dp904
g14
F0.3125
sg8
I00
sg15
g16
sg17
F118.99999999999994
sg18
F103.875
sg19
I3278071
sg20
S'10025.5096313'
p905
sg22
F0.73333333333333328
sba(igraph
Vertex
p906
(dp907
g14
F0.375
sg8
I00
sg15
g16
sg17
F118.99999999999994
sg18
F62.25
sg19
I3278072
sg20
S'10025.5114809'
p908
sg22
F0.73333333333333328
sbasg26
I00
sg27
I00
sg28
I3277471
sg20
S'10026.1228695'
p909
sba(igraph
Edge
p910
(dp911
g7
I1
sg8
I00
sg9
I5
sg10
(lp912
g906
a(igraph
Vertex
p913
(dp914
g14
F0.4375
sg8
I00
sg15
g16
sg17
F118.99999999999994
sg18
F20.625
sg19
I3278073
sg20
S'10025.5132697'
p915
sg22
F0.73333333333333328
sbasg26
I00
sg27
I00
sg28
I3277472
sg20
S'10026.1270441'
p916
sba(igraph
Edge
p917
(dp918
g7
I1
sg8
I00
sg9
I5
sg10
(lp919
g913
a(igraph
Vertex
p920
(dp921
g14
F0.5
sg8
I00
sg15
g16
sg17
F118.99999999999994
sg18
F-21.0
sg19
I3278074
sg20
S'10025.5150884'
p922
sg22
F0.73333333333333328
sbasg26
I00
sg27
I00
sg28
I3277473
sg20
S'10026.1312907'
p923
sba(igraph
Edge
p924
(dp925
g7
I1
sg8
I00
sg9
I5
sg10
(lp926
g920
a(igraph
Vertex
p927
(dp928
g14
F0.5625
sg8
I00
sg15
g16
sg17
F118.99999999999994
sg18
F-62.625
sg19
I3278075
sg20
S'10025.5169087'
p929
sg22
F0.73333333333333328
sbasg26
I00
sg27
I00
sg28
I3277474
sg20
S'10026.1355264'
p930
sba(igraph
Edge
p931
(dp932
g7
I1
sg8
I00
sg9
I5
sg10
(lp933
g927
a(igraph
Vertex
p934
(dp935
g14
F0.625
sg8
I00
sg15
g16
sg17
F118.99999999999994
sg18
F-104.25
sg19
I3278076
sg20
S'10025.5188009'
p936
sg22
F0.73333333333333328
sbasg26
I00
sg27
I00
sg28
I3277475
sg20
S'10026.139818'
p937
sba(igraph
Edge
p938
(dp939
g7
I1
sg8
I00
sg9
I5
sg10
(lp940
g934
a(igraph
Vertex
p941
(dp942
g14
F0.6875
sg8
I00
sg15
g16
sg17
F118.99999999999994
sg18
F-145.875
sg19
I3278077
sg20
S'10025.5209693'
p943
sg22
F0.73333333333333328
sbasg26
I00
sg27
I00
sg28
I3277476
sg20
S'10026.1440529'
p944
sba(igraph
Edge
p945
(dp946
g7
I1
sg8
I00
sg9
I5
sg10
(lp947
g941
a(igraph
Vertex
p948
(dp949
g14
F0.75
sg8
I00
sg15
g16
sg17
F118.99999999999994
sg18
F-187.5
sg19
I3278078
sg20
S'10025.5228634'
p950
sg22
F0.73333333333333328
sbasg26
I00
sg27
I00
sg28
I3277477
sg20
S'10026.1483264'
p951
sba(igraph
Edge
p952
(dp953
g7
I1
sg8
I00
sg9
I5
sg10
(lp954
g948
a(igraph
Vertex
p955
(dp956
g14
F0.8125
sg8
I00
sg15
g16
sg17
F118.99999999999994
sg18
F-229.125
sg19
I3278079
sg20
S'10025.5248206'
p957
sg22
F0.73333333333333328
sbasg26
I00
sg27
I00
sg28
I3277478
sg20
S'10026.1526183'
p958
sba(igraph
Edge
p959
(dp960
g7
I1
sg8
I00
sg9
I5
sg10
(lp961
g955
a(igraph
Vertex
p962
(dp963
g14
F0.875
sg8
I01
sg15
I0
sg17
F118.99999999999994
sg18
F-270.75
sg19
I3278081
sg20
S'10025.5270273'
p964
sg22
F0.73333333333333328
sbasg26
I00
sg27
I00
sg28
I3277479
sg20
S'10026.1570188'
p965
sba(igraph
Edge
p966
(dp967
g7
I1
sg8
I00
sg9
I5
sg10
(lp968
g962
a(igraph
Vertex
p969
(dp970
g14
F0.9375
sg8
I00
sg15
g16
sg17
F118.99999999999994
sg18
F-312.375
sg19
I3278083
sg20
S'10025.5291687'
p971
sg22
F0.73333333333333328
sbasg26
I00
sg27
I00
sg28
I3277480
sg20
S'10026.1613565'
p972
sba(igraph
Edge
p973
(dp974
g7
I1
sg8
I00
sg9
I5
sg10
(lp975
g969
a(igraph
Vertex
p976
(dp977
g14
F1.0
sg8
I00
sg15
g16
sg17
F118.99999999999994
sg18
F-354.0
sg19
I3278084
sg20
S'10025.5310904'
p978
sg22
F0.73333333333333328
sbasg26
I00
sg27
I00
sg28
I3277481
sg20
S'10026.1657107'
p979
sba(igraph
Edge
p980
(dp981
g7
I1
sg8
I00
sg9
I5
sg10
(lp982
(igraph
Vertex
p983
(dp984
g14
F0.3125
sg8
I00
sg15
g16
sg17
F158.0
sg18
F103.875
sg19
I3278085
sg20
S'10025.5436199'
p985
sg22
F0.80000000000000004
sba(igraph
Vertex
p986
(dp987
g14
F0.375
sg8
I00
sg15
g16
sg17
F158.0
sg18
F62.25
sg19
I3278086
sg20
S'10025.5458604'
p988
sg22
F0.80000000000000004
sbasg26
I00
sg27
I00
sg28
I3277482
sg20
S'10026.1968929'
p989
sba(igraph
Edge
p990
(dp991
g7
I1
sg8
I00
sg9
I5
sg10
(lp992
g986
a(igraph
Vertex
p993
(dp994
g14
F0.4375
sg8
I00
sg15
g16
sg17
F158.0
sg18
F20.625
sg19
I3278087
sg20
S'10025.5479032'
p995
sg22
F0.80000000000000004
sbasg26
I00
sg27
I00
sg28
I3277483
sg20
S'10026.2015228'
p996
sba(igraph
Edge
p997
(dp998
g7
I1
sg8
I00
sg9
I5
sg10
(lp999
g993
a(igraph
Vertex
p1000
(dp1001
g14
F0.5
sg8
I00
sg15
g16
sg17
F158.0
sg18
F-21.0
sg19
I3278088
sg20
S'10025.5499333'
p1002
sg22
F0.80000000000000004
sbasg26
I00
sg27
I00
sg28
I3277484
sg20
S'10026.2060393'
p1003
sba(igraph
Edge
p1004
(dp1005
g7
I1
sg8
I00
sg9
I5
sg10
(lp1006
g1000
a(igraph
Vertex
p1007
(dp1008
g14
F0.5625
sg8
I00
sg15
g16
sg17
F158.0
sg18
F-62.625
sg19
I3278089
sg20
S'10025.5519864'
p1009
sg22
F0.80000000000000004
sbasg26
I00
sg27
I00
sg28
I3277485
sg20
S'10026.2105977'
p1010
sba(igraph
Edge
p1011
(dp1012
g7
I1
sg8
I00
sg9
I5
sg10
(lp1013
g1007
a(igraph
Vertex
p1014
(dp1015
g14
F0.625
sg8
I00
sg15
g16
sg17
F158.0
sg18
F-104.25
sg19
I3278090
sg20
S'10025.5555206'
p1016
sg22
F0.80000000000000004
sbasg26
I00
sg27
I00
sg28
I3277486
sg20
S'10026.215174'
p1017
sba(igraph
Edge
p1018
(dp1019
g7
I1
sg8
I00
sg9
I5
sg10
(lp1020
g1014
a(igraph
Vertex
p1021
(dp1022
g14
F0.6875
sg8
I00
sg15
g16
sg17
F158.0
sg18
F-145.875
sg19
I3278091
sg20
S'10025.5576167'
p1023
sg22
F0.80000000000000004
sbasg26
I00
sg27
I00
sg28
I3277487
sg20
S'10026.2197684'
p1024
sba(igraph
Edge
p1025
(dp1026
g7
I1
sg8
I00
sg9
I5
sg10
(lp1027
g1021
a(igraph
Vertex
p1028
(dp1029
g14
F0.75
sg8
I00
sg15
g16
sg17
F158.0
sg18
F-187.5
sg19
I3278092
sg20
S'10025.5597404'
p1030
sg22
F0.80000000000000004
sbasg26
I00
sg27
I00
sg28
I3277488
sg20
S'10026.224481'
p1031
sba(igraph
Edge
p1032
(dp1033
g7
I1
sg8
I00
sg9
I5
sg10
(lp1034
g1028
a(igraph
Vertex
p1035
(dp1036
g14
F0.8125
sg8
I00
sg15
g16
sg17
F158.0
sg18
F-229.125
sg19
I3278093
sg20
S'10025.5619932'
p1037
sg22
F0.80000000000000004
sbasg26
I00
sg27
I00
sg28
I3277489
sg20
S'10026.2291738'
p1038
sba(igraph
Edge
p1039
(dp1040
g7
I1
sg8
I00
sg9
I5
sg10
(lp1041
g1035
a(igraph
Vertex
p1042
(dp1043
g14
F0.875
sg8
I00
sg15
g16
sg17
F158.0
sg18
F-270.75
sg19
I3278094
sg20
S'10025.5641407'
p1044
sg22
F0.80000000000000004
sbasg26
I00
sg27
I00
sg28
I3277490
sg20
S'10026.2338817'
p1045
sba(igraph
Edge
p1046
(dp1047
g7
I1
sg8
I00
sg9
I5
sg10
(lp1048
g1042
a(igraph
Vertex
p1049
(dp1050
g14
F0.9375
sg8
I00
sg15
g16
sg17
F158.0
sg18
F-312.375
sg19
I3278095
sg20
S'10025.5663675'
p1051
sg22
F0.80000000000000004
sbasg26
I00
sg27
I00
sg28
I3277491
sg20
S'10026.2385434'
p1052
sba(igraph
Edge
p1053
(dp1054
g7
I1
sg8
I00
sg9
I5
sg10
(lp1055
g1049
a(igraph
Vertex
p1056
(dp1057
g14
F1.0
sg8
I00
sg15
g16
sg17
F158.0
sg18
F-354.0
sg19
I3278096
sg20
S'10025.5684887'
p1058
sg22
F0.80000000000000004
sbasg26
I00
sg27
I00
sg28
I3277492
sg20
S'10026.2432605'
p1059
sba(igraph
Edge
p1060
(dp1061
g7
I1
sg8
I00
sg9
I5
sg10
(lp1062
(igraph
Vertex
p1063
(dp1064
g14
F0.3125
sg8
I00
sg15
g16
sg17
F197.00000000000006
sg18
F103.875
sg19
I3278097
sg20
S'10025.5866656'
p1065
sg22
F0.86666666666666681
sba(igraph
Vertex
p1066
(dp1067
g14
F0.375
sg8
I00
sg15
g16
sg17
F197.00000000000006
sg18
F62.25
sg19
I3278098
sg20
S'10025.5893671'
p1068
sg22
F0.86666666666666681
sbasg26
I00
sg27
I00
sg28
I3277493
sg20
S'10026.2770983'
p1069
sba(igraph
Edge
p1070
(dp1071
g7
I1
sg8
I00
sg9
I5
sg10
(lp1072
g1066
a(igraph
Vertex
p1073
(dp1074
g14
F0.4375
sg8
I00
sg15
g16
sg17
F197.00000000000006
sg18
F20.625
sg19
I3278099
sg20
S'10025.5919157'
p1075
sg22
F0.86666666666666681
sbasg26
I00
sg27
I00
sg28
I3277494
sg20
S'10026.2820705'
p1076
sba(igraph
Edge
p1077
(dp1078
g7
I1
sg8
I00
sg9
I5
sg10
(lp1079
g1073
a(igraph
Vertex
p1080
(dp1081
g14
F0.5
sg8
I00
sg15
g16
sg17
F197.00000000000006
sg18
F-21.0
sg19
I3278100
sg20
S'10025.5940828'
p1082
sg22
F0.86666666666666681
sbasg26
I00
sg27
I00
sg28
I3277495
sg20
S'10026.287068'
p1083
sba(igraph
Edge
p1084
(dp1085
g7
I1
sg8
I00
sg9
I5
sg10
(lp1086
g1080
a(igraph
Vertex
p1087
(dp1088
g14
F0.5625
sg8
I00
sg15
g16
sg17
F197.00000000000006
sg18
F-62.625
sg19
I3278101
sg20
S'10025.5962559'
p1089
sg22
F0.86666666666666681
sbasg26
I00
sg27
I00
sg28
I3277496
sg20
S'10026.2920785'
p1090
sba(igraph
Edge
p1091
(dp1092
g7
I1
sg8
I00
sg9
I5
sg10
(lp1093
g1087
a(igraph
Vertex
p1094
(dp1095
g14
F0.625
sg8
I00
sg15
g16
sg17
F197.00000000000006
sg18
F-104.25
sg19
I3278102
sg20
S'10025.5984347'
p1096
sg22
F0.86666666666666681
sbasg26
I00
sg27
I00
sg28
I3277497
sg20
S'10026.297123'
p1097
sba(igraph
Edge
p1098
(dp1099
g7
I1
sg8
I00
sg9
I5
sg10
(lp1100
g1094
a(igraph
Vertex
p1101
(dp1102
g14
F0.6875
sg8
I00
sg15
g16
sg17
F197.00000000000006
sg18
F-145.875
sg19
I3278103
sg20
S'10025.6006263'
p1103
sg22
F0.86666666666666681
sbasg26
I00
sg27
I00
sg28
I3277498
sg20
S'10026.3021021'
p1104
sba(igraph
Edge
p1105
(dp1106
g7
I1
sg8
I00
sg9
I5
sg10
(lp1107
g1101
a(igraph
Vertex
p1108
(dp1109
g14
F0.75
sg8
I00
sg15
g16
sg17
F197.00000000000006
sg18
F-187.5
sg19
I3278104
sg20
S'10025.6030786'
p1110
sg22
F0.86666666666666681
sbasg26
I00
sg27
I00
sg28
I3277499
sg20
S'10026.3071041'
p1111
sba(igraph
Edge
p1112
(dp1113
g7
I1
sg8
I00
sg9
I5
sg10
(lp1114
g1108
a(igraph
Vertex
p1115
(dp1116
g14
F0.8125
sg8
I00
sg15
g16
sg17
F197.00000000000006
sg18
F-229.125
sg19
I3278105
sg20
S'10025.6053018'
p1117
sg22
F0.86666666666666681
sbasg26
I00
sg27
I00
sg28
I3277500
sg20
S'10026.3121263'
p1118
sba(igraph
Edge
p1119
(dp1120
g7
I1
sg8
I00
sg9
I5
sg10
(lp1121
g1115
a(igraph
Vertex
p1122
(dp1123
g14
F0.875
sg8
I00
sg15
g16
sg17
F197.00000000000006
sg18
F-270.75
sg19
I3278106
sg20
S'10025.6075311'
p1124
sg22
F0.86666666666666681
sbasg26
I00
sg27
I00
sg28
I3277501
sg20
S'10026.3172261'
p1125
sba(igraph
Edge
p1126
(dp1127
g7
I1
sg8
I00
sg9
I5
sg10
(lp1128
g1122
a(igraph
Vertex
p1129
(dp1130
g14
F0.9375
sg8
I01
sg15
I0
sg17
F197.00000000000006
sg18
F-312.375
sg19
I3278108
sg20
S'10025.60977'
p1131
sg22
F0.86666666666666681
sbasg26
I00
sg27
I00
sg28
I3277502
sg20
S'10026.3222491'
p1132
sba(igraph
Edge
p1133
(dp1134
g7
I1
sg8
I00
sg9
I5
sg10
(lp1135
g1129
a(igraph
Vertex
p1136
(dp1137
g14
F1.0
sg8
I00
sg15
g16
sg17
F197.00000000000006
sg18
F-354.0
sg19
I3278110
sg20
S'10025.6120202'
p1138
sg22
F0.86666666666666681
sbasg26
I00
sg27
I00
sg28
I3277503
sg20
S'10026.3273709'
p1139
sba(igraph
Edge
p1140
(dp1141
g7
I1
sg8
I00
sg9
I5
sg10
(lp1142
(igraph
Vertex
p1143
(dp1144
g14
F0.3125
sg8
I00
sg15
g16
sg17
F236.0
sg18
F103.875
sg19
I3278111
sg20
S'10025.626514'
p1145
sg22
F0.93333333333333335
sba(igraph
Vertex
p1146
(dp1147
g14
F0.375
sg8
I00
sg15
g16
sg17
F236.0
sg18
F62.25
sg19
I3278112
sg20
S'10025.6288461'
p1148
sg22
F0.93333333333333335
sbasg26
I00
sg27
I00
sg28
I3277504
sg20
S'10026.3639239'
p1149
sba(igraph
Edge
p1150
(dp1151
g7
I1
sg8
I00
sg9
I5
sg10
(lp1152
g1146
a(igraph
Vertex
p1153
(dp1154
g14
F0.4375
sg8
I00
sg15
g16
sg17
F236.0
sg18
F20.625
sg19
I3278113
sg20
S'10025.6313062'
p1155
sg22
F0.93333333333333335
sbasg26
I00
sg27
I00
sg28
I3277505
sg20
S'10026.3695025'
p1156
sba(igraph
Edge
p1157
(dp1158
g7
I1
sg8
I00
sg9
I5
sg10
(lp1159
g1153
a(igraph
Vertex
p1160
(dp1161
g14
F0.5
sg8
I00
sg15
g16
sg17
F236.0
sg18
F-21.0
sg19
I3278114
sg20
S'10025.6336601'
p1162
sg22
F0.93333333333333335
sbasg26
I00
sg27
I00
sg28
I3277506
sg20
S'10026.3747225'
p1163
sba(igraph
Edge
p1164
(dp1165
g7
I1
sg8
I00
sg9
I5
sg10
(lp1166
g1160
a(igraph
Vertex
p1167
(dp1168
g14
F0.5625
sg8
I00
sg15
g16
sg17
F236.0
sg18
F-62.625
sg19
I3278115
sg20
S'10025.6365016'
p1169
sg22
F0.93333333333333335
sbasg26
I00
sg27
I00
sg28
I3277507
sg20
S'10026.3800044'
p1170
sba(igraph
Edge
p1171
(dp1172
g7
I1
sg8
I00
sg9
I5
sg10
(lp1173
g1167
a(igraph
Vertex
p1174
(dp1175
g14
F0.625
sg8
I00
sg15
g16
sg17
F236.0
sg18
F-104.25
sg19
I3278116
sg20
S'10025.6389918'
p1176
sg22
F0.93333333333333335
sbasg26
I00
sg27
I00
sg28
I3277508
sg20
S'10026.3853333'
p1177
sba(igraph
Edge
p1178
(dp1179
g7
I1
sg8
I00
sg9
I5
sg10
(lp1180
g1174
a(igraph
Vertex
p1181
(dp1182
g14
F0.6875
sg8
I00
sg15
g16
sg17
F236.0
sg18
F-145.875
sg19
I3278117
sg20
S'10025.6427342'
p1183
sg22
F0.93333333333333335
sbasg26
I00
sg27
I00
sg28
I3277509
sg20
S'10026.3907075'
p1184
sba(igraph
Edge
p1185
(dp1186
g7
I1
sg8
I00
sg9
I5
sg10
(lp1187
g1181
a(igraph
Vertex
p1188
(dp1189
g14
F0.75
sg8
I00
sg15
g16
sg17
F236.0
sg18
F-187.5
sg19
I3278118
sg20
S'10025.645306'
p1190
sg22
F0.93333333333333335
sbasg26
I00
sg27
I00
sg28
I3277510
sg20
S'10026.396064'
p1191
sba(igraph
Edge
p1192
(dp1193
g7
I1
sg8
I00
sg9
I5
sg10
(lp1194
g1188
a(igraph
Vertex
p1195
(dp1196
g14
F0.8125
sg8
I00
sg15
g16
sg17
F236.0
sg18
F-229.125
sg19
I3278119
sg20
S'10025.6479234'
p1197
sg22
F0.93333333333333335
sbasg26
I00
sg27
I00
sg28
I3277511
sg20
S'10026.4014404'
p1198
sba(igraph
Edge
p1199
(dp1200
g7
I1
sg8
I00
sg9
I5
sg10
(lp1201
g1195
a(igraph
Vertex
p1202
(dp1203
g14
F0.875
sg8
I01
sg15
I0
sg17
F236.0
sg18
F-270.75
sg19
I3278121
sg20
S'10025.6503799'
p1204
sg22
F0.93333333333333335
sbasg26
I00
sg27
I00
sg28
I3277512
sg20
S'10026.4068249'
p1205
sba(igraph
Edge
p1206
(dp1207
g7
I1
sg8
I00
sg9
I5
sg10
(lp1208
g1202
a(igraph
Vertex
p1209
(dp1210
g14
F0.9375
sg8
I00
sg15
g16
sg17
F236.0
sg18
F-312.375
sg19
I3278123
sg20
S'10025.6531978'
p1211
sg22
F0.93333333333333335
sbasg26
I00
sg27
I00
sg28
I3277513
sg20
S'10026.4123175'
p1212
sba(igraph
Edge
p1213
(dp1214
g7
I1
sg8
I00
sg9
I5
sg10
(lp1215
g1209
a(igraph
Vertex
p1216
(dp1217
g14
F1.0
sg8
I00
sg15
g16
sg17
F236.0
sg18
F-354.0
sg19
I3278124
sg20
S'10025.6558909'
p1218
sg22
F0.93333333333333335
sbasg26
I00
sg27
I00
sg28
I3277514
sg20
S'10026.4177654'
p1219
sba(igraph
Edge
p1220
(dp1221
g7
I1
sg8
I00
sg9
I5
sg10
(lp1222
(igraph
Vertex
p1223
(dp1224
g14
F0.3125
sg8
I00
sg15
g16
sg17
F275.0
sg18
F103.875
sg19
I3278125
sg20
S'10025.6721544'
p1225
sg22
F1.0
sba(igraph
Vertex
p1226
(dp1227
g14
F0.375
sg8
I00
sg15
g16
sg17
F275.0
sg18
F62.25
sg19
I3278126
sg20
S'10025.674833'
p1228
sg22
F1.0
sbasg26
I00
sg27
I00
sg28
I3277515
sg20
S'10026.4574143'
p1229
sba(igraph
Edge
p1230
(dp1231
g7
I1
sg8
I00
sg9
I5
sg10
(lp1232
g1226
a(igraph
Vertex
p1233
(dp1234
g14
F0.4375
sg8
I00
sg15
g16
sg17
F275.0
sg18
F20.625
sg19
I3278127
sg20
S'10025.6775825'
p1235
sg22
F1.0
sbasg26
I00
sg27
I00
sg28
I3277516
sg20
S'10026.4630086'
p1236
sba(igraph
Edge
p1237
(dp1238
g7
I1
sg8
I00
sg9
I5
sg10
(lp1239
g1233
a(igraph
Vertex
p1240
(dp1241
g14
F0.5
sg8
I00
sg15
g16
sg17
F275.0
sg18
F-21.0
sg19
I3278128
sg20
S'10025.6802267'
p1242
sg22
F1.0
sbasg26
I00
sg27
I00
sg28
I3277517
sg20
S'10026.4687599'
p1243
sba(igraph
Edge
p1244
(dp1245
g7
I1
sg8
I00
sg9
I5
sg10
(lp1246
g1240
a(igraph
Vertex
p1247
(dp1248
g14
F0.5625
sg8
I00
sg15
g16
sg17
F275.0
sg18
F-62.625
sg19
I3278129
sg20
S'10025.6830161'
p1249
sg22
F1.0
sbasg26
I00
sg27
I00
sg28
I3277518
sg20
S'10026.4744106'
p1250
sba(igraph
Edge
p1251
(dp1252
g7
I1
sg8
I00
sg9
I5
sg10
(lp1253
g1247
a(igraph
Vertex
p1254
(dp1255
g14
F0.625
sg8
I00
sg15
g16
sg17
F275.0
sg18
F-104.25
sg19
I3278130
sg20
S'10025.6858008'
p1256
sg22
F1.0
sbasg26
I00
sg27
I00
sg28
I3277519
sg20
S'10026.4801987'
p1257
sba(igraph
Edge
p1258
(dp1259
g7
I1
sg8
I00
sg9
I5
sg10
(lp1260
g1254
a(igraph
Vertex
p1261
(dp1262
g14
F0.6875
sg8
I00
sg15
g16
sg17
F275.0
sg18
F-145.875
sg19
I3278131
sg20
S'10025.6886501'
p1263
sg22
F1.0
sbasg26
I00
sg27
I00
sg28
I3277520
sg20
S'10026.4859824'
p1264
sba(igraph
Edge
p1265
(dp1266
g7
I1
sg8
I00
sg9
I5
sg10
(lp1267
g1261
a(igraph
Vertex
p1268
(dp1269
g14
F0.75
sg8
I00
sg15
g16
sg17
F275.0
sg18
F-187.5
sg19
I3278132
sg20
S'10025.6911303'
p1270
sg22
F1.0
sbasg26
I00
sg27
I00
sg28
I3277521
sg20
S'10026.4916896'
p1271
sba(igraph
Edge
p1272
(dp1273
g7
I1
sg8
I00
sg9
I5
sg10
(lp1274
g1268
a(igraph
Vertex
p1275
(dp1276
g14
F0.8125
sg8
I00
sg15
g16
sg17
F275.0
sg18
F-229.125
sg19
I3278133
sg20
S'10025.6936982'
p1277
sg22
F1.0
sbasg26
I00
sg27
I00
sg28
I3277522
sg20
S'10026.4975333'
p1278
sba(igraph
Edge
p1279
(dp1280
g7
I1
sg8
I00
sg9
I5
sg10
(lp1281
g1275
a(igraph
Vertex
p1282
(dp1283
g14
F0.875
sg8
I00
sg15
g16
sg17
F275.0
sg18
F-270.75
sg19
I3278134
sg20
S'10025.6961829'
p1284
sg22
F1.0
sbasg26
I00
sg27
I00
sg28
I3277523
sg20
S'10026.5033039'
p1285
sba(igraph
Edge
p1286
(dp1287
g7
I1
sg8
I00
sg9
I5
sg10
(lp1288
g1282
a(igraph
Vertex
p1289
(dp1290
g14
F0.9375
sg8
I00
sg15
g16
sg17
F275.0
sg18
F-312.375
sg19
I3278135
sg20
S'10025.6986698'
p1291
sg22
F1.0
sbasg26
I00
sg27
I00
sg28
I3277524
sg20
S'10026.5090552'
p1292
sba(igraph
Edge
p1293
(dp1294
g7
I1
sg8
I00
sg9
I5
sg10
(lp1295
g1289
a(igraph
Vertex
p1296
(dp1297
g14
F1.0
sg8
I01
sg15
I0
sg17
F275.0
sg18
F-354.0
sg19
I3278137
sg20
S'10025.7011981'
p1298
sg22
F1.0
sbasg26
I00
sg27
I00
sg28
I3277525
sg20
S'10026.5150389'
p1299
sba(igraph
Edge
p1300
(dp1301
g7
I1
sg8
I00
sg9
I5
sg10
(lp1302
g12
ag106
asg26
I00
sg27
I00
sg28
I3277526
sg20
S'10026.5565584'
p1303
sba(igraph
Edge
p1304
(dp1305
g7
I1
sg8
I00
sg9
I5
sg10
(lp1306
g23
ag106
asg26
I00
sg27
I00
sg28
I3277527
sg20
S'10026.5626103'
p1307
sba(igraph
Edge
p1308
(dp1309
g7
I1
sg8
I00
sg9
I5
sg10
(lp1310
g33
ag120
asg26
I00
sg27
I00
sg28
I3277528
sg20
S'10026.5685876'
p1311
sba(igraph
Edge
p1312
(dp1313
g7
I1
sg8
I00
sg9
I5
sg10
(lp1314
g40
ag120
asg26
I00
sg27
I00
sg28
I3277529
sg20
S'10026.5745691'
p1315
sba(igraph
Edge
p1316
(dp1317
g7
I1
sg8
I00
sg9
I5
sg10
(lp1318
g47
ag134
asg26
I00
sg27
I00
sg28
I3277530
sg20
S'10026.5829565'
p1319
sba(igraph
Edge
p1320
(dp1321
g7
I1
sg8
I00
sg9
I5
sg10
(lp1322
g54
ag134
asg26
I00
sg27
I00
sg28
I3277531
sg20
S'10026.589169'
p1323
sba(igraph
Edge
p1324
(dp1325
g7
I1
sg8
I00
sg9
I5
sg10
(lp1326
g61
ag148
asg26
I00
sg27
I00
sg28
I3277532
sg20
S'10026.5954246'
p1327
sba(igraph
Edge
p1328
(dp1329
g7
I1
sg8
I00
sg9
I5
sg10
(lp1330
g68
ag148
asg26
I00
sg27
I00
sg28
I3277533
sg20
S'10026.6015494'
p1331
sba(igraph
Edge
p1332
(dp1333
g7
I1
sg8
I00
sg9
I5
sg10
(lp1334
g75
ag162
asg26
I00
sg27
I00
sg28
I3277534
sg20
S'10026.6077029'
p1335
sba(igraph
Edge
p1336
(dp1337
g7
I1
sg8
I00
sg9
I5
sg10
(lp1338
g82
ag162
asg26
I00
sg27
I00
sg28
I3277535
sg20
S'10026.6138565'
p1339
sba(igraph
Edge
p1340
(dp1341
g7
I1
sg8
I00
sg9
I5
sg10
(lp1342
g89
ag176
asg26
I00
sg27
I00
sg28
I3277536
sg20
S'10026.6200112'
p1343
sba(igraph
Edge
p1344
(dp1345
g7
I1
sg8
I00
sg9
I5
sg10
(lp1346
g96
ag176
asg26
I00
sg27
I00
sg28
I3277537
sg20
S'10026.6269314'
p1347
sba(igraph
Edge
p1348
(dp1349
g7
I1
sg8
I00
sg9
I5
sg10
(lp1350
g12
ag103
asg26
I00
sg27
I00
sg28
I3277538
sg20
S'10026.6647364'
p1351
sba(igraph
Edge
p1352
(dp1353
g7
I1
sg8
I00
sg9
I5
sg10
(lp1354
g23
ag113
asg26
I00
sg27
I00
sg28
I3277539
sg20
S'10026.6711646'
p1355
sba(igraph
Edge
p1356
(dp1357
g7
I1
sg8
I00
sg9
I5
sg10
(lp1358
g33
ag113
asg26
I00
sg27
I00
sg28
I3277540
sg20
S'10026.6776222'
p1359
sba(igraph
Edge
p1360
(dp1361
g7
I1
sg8
I00
sg9
I5
sg10
(lp1362
g40
ag127
asg26
I00
sg27
I00
sg28
I3277541
sg20
S'10026.6839774'
p1363
sba(igraph
Edge
p1364
(dp1365
g7
I1
sg8
I00
sg9
I5
sg10
(lp1366
g47
ag127
asg26
I00
sg27
I00
sg28
I3277542
sg20
S'10026.6903576'
p1367
sba(igraph
Edge
p1368
(dp1369
g7
I1
sg8
I00
sg9
I5
sg10
(lp1370
g54
ag141
asg26
I00
sg27
I00
sg28
I3277543
sg20
S'10026.6969347'
p1371
sba(igraph
Edge
p1372
(dp1373
g7
I1
sg8
I00
sg9
I5
sg10
(lp1374
g61
ag141
asg26
I00
sg27
I00
sg28
I3277544
sg20
S'10026.7035182'
p1375
sba(igraph
Edge
p1376
(dp1377
g7
I1
sg8
I00
sg9
I5
sg10
(lp1378
g68
ag155
asg26
I00
sg27
I00
sg28
I3277545
sg20
S'10026.7100104'
p1379
sba(igraph
Edge
p1380
(dp1381
g7
I1
sg8
I00
sg9
I5
sg10
(lp1382
g75
ag155
asg26
I00
sg27
I00
sg28
I3277546
sg20
S'10026.7165263'
p1383
sba(igraph
Edge
p1384
(dp1385
g7
I1
sg8
I00
sg9
I5
sg10
(lp1386
g82
ag169
asg26
I00
sg27
I00
sg28
I3277547
sg20
S'10026.7230455'
p1387
sba(igraph
Edge
p1388
(dp1389
g7
I1
sg8
I00
sg9
I5
sg10
(lp1390
g89
ag169
asg26
I00
sg27
I00
sg28
I3277548
sg20
S'10026.7296494'
p1391
sba(igraph
Edge
p1392
(dp1393
g7
I1
sg8
I00
sg9
I5
sg10
(lp1394
g23
ag1226
asg26
I00
sg27
I00
sg28
I3277549
sg20
S'10026.7830803'
p1395
sba(igraph
Edge
p1396
(dp1397
g7
I1
sg8
I00
sg9
I5
sg10
(lp1398
g33
ag1226
asg26
I00
sg27
I00
sg28
I3277550
sg20
S'10026.7899099'
p1399
sba(igraph
Edge
p1400
(dp1401
g7
I1
sg8
I00
sg9
I5
sg10
(lp1402
g40
ag1240
asg26
I00
sg27
I00
sg28
I3277551
sg20
S'10026.7967937'
p1403
sba(igraph
Edge
p1404
(dp1405
g7
I1
sg8
I00
sg9
I5
sg10
(lp1406
g47
ag1240
asg26
I00
sg27
I00
sg28
I3277552
sg20
S'10026.8035253'
p1407
sba(igraph
Edge
p1408
(dp1409
g7
I1
sg8
I00
sg9
I5
sg10
(lp1410
g54
ag1254
asg26
I00
sg27
I00
sg28
I3277553
sg20
S'10026.8104206'
p1411
sba(igraph
Edge
p1412
(dp1413
g7
I1
sg8
I00
sg9
I5
sg10
(lp1414
g61
ag1254
asg26
I00
sg27
I00
sg28
I3277554
sg20
S'10026.8172324'
p1415
sba(igraph
Edge
p1416
(dp1417
g7
I1
sg8
I00
sg9
I5
sg10
(lp1418
g68
ag1268
asg26
I00
sg27
I00
sg28
I3277555
sg20
S'10026.8240704'
p1419
sba(igraph
Edge
p1420
(dp1421
g7
I1
sg8
I00
sg9
I5
sg10
(lp1422
g75
ag1268
asg26
I00
sg27
I00
sg28
I3277556
sg20
S'10026.8310408'
p1423
sba(igraph
Edge
p1424
(dp1425
g7
I1
sg8
I00
sg9
I5
sg10
(lp1426
g82
ag1282
asg26
I00
sg27
I00
sg28
I3277557
sg20
S'10026.8379328'
p1427
sba(igraph
Edge
p1428
(dp1429
g7
I1
sg8
I00
sg9
I5
sg10
(lp1430
g89
ag1282
asg26
I00
sg27
I00
sg28
I3277558
sg20
S'10026.8449512'
p1431
sba(igraph
Edge
p1432
(dp1433
g7
I1
sg8
I00
sg9
I5
sg10
(lp1434
g96
ag1296
asg26
I00
sg27
I00
sg28
I3277559
sg20
S'10026.8518256'
p1435
sba(igraph
Edge
p1436
(dp1437
g7
I1
sg8
I00
sg9
I5
sg10
(lp1438
g12
ag1223
asg26
I00
sg27
I00
sg28
I3277560
sg20
S'10026.8950889'
p1439
sba(igraph
Edge
p1440
(dp1441
g7
I1
sg8
I00
sg9
I5
sg10
(lp1442
g23
ag1223
asg26
I00
sg27
I00
sg28
I3277561
sg20
S'10026.9024552'
p1443
sba(igraph
Edge
p1444
(dp1445
g7
I1
sg8
I00
sg9
I5
sg10
(lp1446
g33
ag1233
asg26
I00
sg27
I00
sg28
I3277562
sg20
S'10026.9098436'
p1447
sba(igraph
Edge
p1448
(dp1449
g7
I1
sg8
I00
sg9
I5
sg10
(lp1450
g40
ag1233
asg26
I00
sg27
I00
sg28
I3277563
sg20
S'10026.9170135'
p1451
sba(igraph
Edge
p1452
(dp1453
g7
I1
sg8
I00
sg9
I5
sg10
(lp1454
g47
ag1247
asg26
I00
sg27
I00
sg28
I3277564
sg20
S'10026.9241848'
p1455
sba(igraph
Edge
p1456
(dp1457
g7
I1
sg8
I00
sg9
I5
sg10
(lp1458
g54
ag1247
asg26
I00
sg27
I00
sg28
I3277565
sg20
S'10026.93127'
p1459
sba(igraph
Edge
p1460
(dp1461
g7
I1
sg8
I00
sg9
I5
sg10
(lp1462
g61
ag1261
asg26
I00
sg27
I00
sg28
I3277566
sg20
S'10026.9384327'
p1463
sba(igraph
Edge
p1464
(dp1465
g7
I1
sg8
I00
sg9
I5
sg10
(lp1466
g68
ag1261
asg26
I00
sg27
I00
sg28
I3277567
sg20
S'10026.9456347'
p1467
sba(igraph
Edge
p1468
(dp1469
g7
I1
sg8
I00
sg9
I5
sg10
(lp1470
g75
ag1275
asg26
I00
sg27
I00
sg28
I3277568
sg20
S'10026.9529091'
p1471
sba(igraph
Edge
p1472
(dp1473
g7
I1
sg8
I00
sg9
I5
sg10
(lp1474
g82
ag1275
asg26
I00
sg27
I00
sg28
I3277569
sg20
S'10026.9604212'
p1475
sba(igraph
Edge
p1476
(dp1477
g7
I1
sg8
I00
sg9
I5
sg10
(lp1478
g89
ag1289
asg26
I00
sg27
I00
sg28
I3277570
sg20
S'10026.9676635'
p1479
sba(igraph
Edge
p1480
(dp1481
g7
I1
sg8
I00
sg9
I5
sg10
(lp1482
g96
ag1289
asg26
I00
sg27
I00
sg28
I3277571
sg20
S'10026.9750407'
p1483
sba(igraph
Edge
p1484
(dp1485
g7
I1
sg8
I00
sg9
I5
sg10
(lp1486
g103
ag186
asg26
I00
sg27
I00
sg28
I3277572
sg20
S'10027.0213566'
p1487
sba(igraph
Edge
p1488
(dp1489
g7
I1
sg8
I00
sg9
I5
sg10
(lp1490
g106
ag186
asg26
I00
sg27
I00
sg28
I3277573
sg20
S'10027.0295037'
p1491
sba(igraph
Edge
p1492
(dp1493
g7
I1
sg8
I00
sg9
I5
sg10
(lp1494
g113
ag200
asg26
I00
sg27
I00
sg28
I3277574
sg20
S'10027.0371723'
p1495
sba(igraph
Edge
p1496
(dp1497
g7
I1
sg8
I00
sg9
I5
sg10
(lp1498
g120
ag200
asg26
I00
sg27
I00
sg28
I3277575
sg20
S'10027.0446632'
p1499
sba(igraph
Edge
p1500
(dp1501
g7
I1
sg8
I00
sg9
I5
sg10
(lp1502
g127
ag214
asg26
I00
sg27
I00
sg28
I3277576
sg20
S'10027.052836'
p1503
sba(igraph
Edge
p1504
(dp1505
g7
I1
sg8
I00
sg9
I5
sg10
(lp1506
g134
ag214
asg26
I00
sg27
I00
sg28
I3277577
sg20
S'10027.0606004'
p1507
sba(igraph
Edge
p1508
(dp1509
g7
I1
sg8
I00
sg9
I5
sg10
(lp1510
g141
ag228
asg26
I00
sg27
I00
sg28
I3277578
sg20
S'10027.0681559'
p1511
sba(igraph
Edge
p1512
(dp1513
g7
I1
sg8
I00
sg9
I5
sg10
(lp1514
g148
ag228
asg26
I00
sg27
I00
sg28
I3277579
sg20
S'10027.0769665'
p1515
sba(igraph
Edge
p1516
(dp1517
g7
I1
sg8
I00
sg9
I5
sg10
(lp1518
g155
ag242
asg26
I00
sg27
I00
sg28
I3277580
sg20
S'10027.0847988'
p1519
sba(igraph
Edge
p1520
(dp1521
g7
I1
sg8
I00
sg9
I5
sg10
(lp1522
g162
ag242
asg26
I00
sg27
I00
sg28
I3277581
sg20
S'10027.0929062'
p1523
sba(igraph
Edge
p1524
(dp1525
g7
I1
sg8
I00
sg9
I5
sg10
(lp1526
g169
ag256
asg26
I00
sg27
I00
sg28
I3277582
sg20
S'10027.1007304'
p1527
sba(igraph
Edge
p1528
(dp1529
g7
I1
sg8
I00
sg9
I5
sg10
(lp1530
g176
ag256
asg26
I00
sg27
I00
sg28
I3277583
sg20
S'10027.1085029'
p1531
sba(igraph
Edge
p1532
(dp1533
g7
I1
sg8
I00
sg9
I5
sg10
(lp1534
g103
ag183
asg26
I00
sg27
I00
sg28
I3277584
sg20
S'10027.1553259'
p1535
sba(igraph
Edge
p1536
(dp1537
g7
I1
sg8
I00
sg9
I5
sg10
(lp1538
g106
ag193
asg26
I00
sg27
I00
sg28
I3277585
sg20
S'10027.1631978'
p1539
sba(igraph
Edge
p1540
(dp1541
g7
I1
sg8
I00
sg9
I5
sg10
(lp1542
g113
ag193
asg26
I00
sg27
I00
sg28
I3277586
sg20
S'10027.1709974'
p1543
sba(igraph
Edge
p1544
(dp1545
g7
I1
sg8
I00
sg9
I5
sg10
(lp1546
g120
ag207
asg26
I00
sg27
I00
sg28
I3277587
sg20
S'10027.1789736'
p1547
sba(igraph
Edge
p1548
(dp1549
g7
I1
sg8
I00
sg9
I5
sg10
(lp1550
g127
ag207
asg26
I00
sg27
I00
sg28
I3277588
sg20
S'10027.1871034'
p1551
sba(igraph
Edge
p1552
(dp1553
g7
I1
sg8
I00
sg9
I5
sg10
(lp1554
g134
ag221
asg26
I00
sg27
I00
sg28
I3277589
sg20
S'10027.1950991'
p1555
sba(igraph
Edge
p1556
(dp1557
g7
I1
sg8
I00
sg9
I5
sg10
(lp1558
g141
ag221
asg26
I00
sg27
I00
sg28
I3277590
sg20
S'10027.2031862'
p1559
sba(igraph
Edge
p1560
(dp1561
g7
I1
sg8
I00
sg9
I5
sg10
(lp1562
g148
ag235
asg26
I00
sg27
I00
sg28
I3277591
sg20
S'10027.2113573'
p1563
sba(igraph
Edge
p1564
(dp1565
g7
I1
sg8
I00
sg9
I5
sg10
(lp1566
g155
ag235
asg26
I00
sg27
I00
sg28
I3277592
sg20
S'10027.2193843'
p1567
sba(igraph
Edge
p1568
(dp1569
g7
I1
sg8
I00
sg9
I5
sg10
(lp1570
g162
ag249
asg26
I00
sg27
I00
sg28
I3277593
sg20
S'10027.2274373'
p1571
sba(igraph
Edge
p1572
(dp1573
g7
I1
sg8
I00
sg9
I5
sg10
(lp1574
g169
ag249
asg26
I00
sg27
I00
sg28
I3277594
sg20
S'10027.2354584'
p1575
sba(igraph
Edge
p1576
(dp1577
g7
I1
sg8
I00
sg9
I5
sg10
(lp1578
g183
ag266
asg26
I00
sg27
I00
sg28
I3277595
sg20
S'10027.2926632'
p1579
sba(igraph
Edge
p1580
(dp1581
g7
I1
sg8
I00
sg9
I5
sg10
(lp1582
g186
ag266
asg26
I00
sg27
I00
sg28
I3277596
sg20
S'10027.3009693'
p1583
sba(igraph
Edge
p1584
(dp1585
g7
I1
sg8
I00
sg9
I5
sg10
(lp1586
g193
ag280
asg26
I00
sg27
I00
sg28
I3277597
sg20
S'10027.3092642'
p1587
sba(igraph
Edge
p1588
(dp1589
g7
I1
sg8
I00
sg9
I5
sg10
(lp1590
g200
ag280
asg26
I00
sg27
I00
sg28
I3277598
sg20
S'10027.3176446'
p1591
sba(igraph
Edge
p1592
(dp1593
g7
I1
sg8
I00
sg9
I5
sg10
(lp1594
g207
ag294
asg26
I00
sg27
I00
sg28
I3277599
sg20
S'10027.3259867'
p1595
sba(igraph
Edge
p1596
(dp1597
g7
I1
sg8
I00
sg9
I5
sg10
(lp1598
g214
ag294
asg26
I00
sg27
I00
sg28
I3277600
sg20
S'10027.3343967'
p1599
sba(igraph
Edge
p1600
(dp1601
g7
I1
sg8
I00
sg9
I5
sg10
(lp1602
g221
ag308
asg26
I00
sg27
I00
sg28
I3277601
sg20
S'10027.342586'
p1603
sba(igraph
Edge
p1604
(dp1605
g7
I1
sg8
I00
sg9
I5
sg10
(lp1606
g228
ag308
asg26
I00
sg27
I00
sg28
I3277602
sg20
S'10027.3508904'
p1607
sba(igraph
Edge
p1608
(dp1609
g7
I1
sg8
I00
sg9
I5
sg10
(lp1610
g235
ag322
asg26
I00
sg27
I00
sg28
I3277603
sg20
S'10027.3591141'
p1611
sba(igraph
Edge
p1612
(dp1613
g7
I1
sg8
I00
sg9
I5
sg10
(lp1614
g242
ag322
asg26
I00
sg27
I00
sg28
I3277604
sg20
S'10027.3675467'
p1615
sba(igraph
Edge
p1616
(dp1617
g7
I1
sg8
I00
sg9
I5
sg10
(lp1618
g249
ag336
asg26
I00
sg27
I00
sg28
I3277605
sg20
S'10027.3759668'
p1619
sba(igraph
Edge
p1620
(dp1621
g7
I1
sg8
I00
sg9
I5
sg10
(lp1622
g256
ag336
asg26
I00
sg27
I00
sg28
I3277606
sg20
S'10027.3842835'
p1623
sba(igraph
Edge
p1624
(dp1625
g7
I1
sg8
I00
sg9
I5
sg10
(lp1626
g183
ag263
asg26
I00
sg27
I00
sg28
I3277607
sg20
S'10027.4360283'
p1627
sba(igraph
Edge
p1628
(dp1629
g7
I1
sg8
I00
sg9
I5
sg10
(lp1630
g186
ag273
asg26
I00
sg27
I00
sg28
I3277608
sg20
S'10027.4446987'
p1631
sba(igraph
Edge
p1632
(dp1633
g7
I1
sg8
I00
sg9
I5
sg10
(lp1634
g193
ag273
asg26
I00
sg27
I00
sg28
I3277609
sg20
S'10027.4534814'
p1635
sba(igraph
Edge
p1636
(dp1637
g7
I1
sg8
I00
sg9
I5
sg10
(lp1638
g200
ag287
asg26
I00
sg27
I00
sg28
I3277610
sg20
S'10027.4620372'
p1639
sba(igraph
Edge
p1640
(dp1641
g7
I1
sg8
I00
sg9
I5
sg10
(lp1642
g207
ag287
asg26
I00
sg27
I00
sg28
I3277611
sg20
S'10027.4708325'
p1643
sba(igraph
Edge
p1644
(dp1645
g7
I1
sg8
I00
sg9
I5
sg10
(lp1646
g214
ag301
asg26
I00
sg27
I00
sg28
I3277612
sg20
S'10027.479764'
p1647
sba(igraph
Edge
p1648
(dp1649
g7
I1
sg8
I00
sg9
I5
sg10
(lp1650
g221
ag301
asg26
I00
sg27
I00
sg28
I3277613
sg20
S'10027.4885646'
p1651
sba(igraph
Edge
p1652
(dp1653
g7
I1
sg8
I00
sg9
I5
sg10
(lp1654
g228
ag315
asg26
I00
sg27
I00
sg28
I3277614
sg20
S'10027.4973372'
p1655
sba(igraph
Edge
p1656
(dp1657
g7
I1
sg8
I00
sg9
I5
sg10
(lp1658
g235
ag315
asg26
I00
sg27
I00
sg28
I3277615
sg20
S'10027.5059509'
p1659
sba(igraph
Edge
p1660
(dp1661
g7
I1
sg8
I00
sg9
I5
sg10
(lp1662
g242
ag329
asg26
I00
sg27
I00
sg28
I3277616
sg20
S'10027.5149115'
p1663
sba(igraph
Edge
p1664
(dp1665
g7
I1
sg8
I00
sg9
I5
sg10
(lp1666
g249
ag329
asg26
I00
sg27
I00
sg28
I3277617
sg20
S'10027.5236635'
p1667
sba(igraph
Edge
p1668
(dp1669
g7
I1
sg8
I00
sg9
I5
sg10
(lp1670
g263
ag346
asg26
I00
sg27
I00
sg28
I3277618
sg20
S'10027.5861264'
p1671
sba(igraph
Edge
p1672
(dp1673
g7
I1
sg8
I00
sg9
I5
sg10
(lp1674
g266
ag346
asg26
I00
sg27
I00
sg28
I3277619
sg20
S'10027.5951033'
p1675
sba(igraph
Edge
p1676
(dp1677
g7
I1
sg8
I00
sg9
I5
sg10
(lp1678
g273
ag360
asg26
I00
sg27
I00
sg28
I3277620
sg20
S'10027.6041575'
p1679
sba(igraph
Edge
p1680
(dp1681
g7
I1
sg8
I00
sg9
I5
sg10
(lp1682
g280
ag360
asg26
I00
sg27
I00
sg28
I3277621
sg20
S'10027.6134213'
p1683
sba(igraph
Edge
p1684
(dp1685
g7
I1
sg8
I00
sg9
I5
sg10
(lp1686
g287
ag374
asg26
I00
sg27
I00
sg28
I3277622
sg20
S'10027.6226224'
p1687
sba(igraph
Edge
p1688
(dp1689
g7
I1
sg8
I00
sg9
I5
sg10
(lp1690
g294
ag374
asg26
I00
sg27
I00
sg28
I3277623
sg20
S'10027.6316275'
p1691
sba(igraph
Edge
p1692
(dp1693
g7
I1
sg8
I00
sg9
I5
sg10
(lp1694
g301
ag388
asg26
I00
sg27
I00
sg28
I3277624
sg20
S'10027.640701'
p1695
sba(igraph
Edge
p1696
(dp1697
g7
I1
sg8
I00
sg9
I5
sg10
(lp1698
g308
ag388
asg26
I00
sg27
I00
sg28
I3277625
sg20
S'10027.6497979'
p1699
sba(igraph
Edge
p1700
(dp1701
g7
I1
sg8
I00
sg9
I5
sg10
(lp1702
g315
ag402
asg26
I00
sg27
I00
sg28
I3277626
sg20
S'10027.6589519'
p1703
sba(igraph
Edge
p1704
(dp1705
g7
I1
sg8
I00
sg9
I5
sg10
(lp1706
g322
ag402
asg26
I00
sg27
I00
sg28
I3277627
sg20
S'10027.6680343'
p1707
sba(igraph
Edge
p1708
(dp1709
g7
I1
sg8
I00
sg9
I5
sg10
(lp1710
g329
ag416
asg26
I00
sg27
I00
sg28
I3277628
sg20
S'10027.6771749'
p1711
sba(igraph
Edge
p1712
(dp1713
g7
I1
sg8
I00
sg9
I5
sg10
(lp1714
g336
ag416
asg26
I00
sg27
I00
sg28
I3277629
sg20
S'10027.6862389'
p1715
sba(igraph
Edge
p1716
(dp1717
g7
I1
sg8
I00
sg9
I5
sg10
(lp1718
g263
ag343
asg26
I00
sg27
I00
sg28
I3277630
sg20
S'10027.7422108'
p1719
sba(igraph
Edge
p1720
(dp1721
g7
I1
sg8
I00
sg9
I5
sg10
(lp1722
g266
ag353
asg26
I00
sg27
I00
sg28
I3277631
sg20
S'10027.7518634'
p1723
sba(igraph
Edge
p1724
(dp1725
g7
I1
sg8
I00
sg9
I5
sg10
(lp1726
g273
ag353
asg26
I00
sg27
I00
sg28
I3277632
sg20
S'10027.7611534'
p1727
sba(igraph
Edge
p1728
(dp1729
g7
I1
sg8
I00
sg9
I5
sg10
(lp1730
g280
ag367
asg26
I00
sg27
I00
sg28
I3277633
sg20
S'10027.7705653'
p1731
sba(igraph
Edge
p1732
(dp1733
g7
I1
sg8
I00
sg9
I5
sg10
(lp1734
g287
ag367
asg26
I00
sg27
I00
sg28
I3277634
sg20
S'10027.7800592'
p1735
sba(igraph
Edge
p1736
(dp1737
g7
I1
sg8
I00
sg9
I5
sg10
(lp1738
g294
ag381
asg26
I00
sg27
I00
sg28
I3277635
sg20
S'10027.7894453'
p1739
sba(igraph
Edge
p1740
(dp1741
g7
I1
sg8
I00
sg9
I5
sg10
(lp1742
g301
ag381
asg26
I00
sg27
I00
sg28
I3277636
sg20
S'10027.7988367'
p1743
sba(igraph
Edge
p1744
(dp1745
g7
I1
sg8
I00
sg9
I5
sg10
(lp1746
g308
ag395
asg26
I00
sg27
I00
sg28
I3277637
sg20
S'10027.8083709'
p1747
sba(igraph
Edge
p1748
(dp1749
g7
I1
sg8
I00
sg9
I5
sg10
(lp1750
g315
ag395
asg26
I00
sg27
I00
sg28
I3277638
sg20
S'10027.8178696'
p1751
sba(igraph
Edge
p1752
(dp1753
g7
I1
sg8
I00
sg9
I5
sg10
(lp1754
g322
ag409
asg26
I00
sg27
I00
sg28
I3277639
sg20
S'10027.8273825'
p1755
sba(igraph
Edge
p1756
(dp1757
g7
I1
sg8
I00
sg9
I5
sg10
(lp1758
g329
ag409
asg26
I00
sg27
I00
sg28
I3277640
sg20
S'10027.8368279'
p1759
sba(igraph
Edge
p1760
(dp1761
g7
I1
sg8
I00
sg9
I5
sg10
(lp1762
g343
ag426
asg26
I00
sg27
I00
sg28
I3277641
sg20
S'10027.9047809'
p1763
sba(igraph
Edge
p1764
(dp1765
g7
I1
sg8
I00
sg9
I5
sg10
(lp1766
g346
ag426
asg26
I00
sg27
I00
sg28
I3277642
sg20
S'10027.9146512'
p1767
sba(igraph
Edge
p1768
(dp1769
g7
I1
sg8
I00
sg9
I5
sg10
(lp1770
g353
ag440
asg26
I00
sg27
I00
sg28
I3277643
sg20
S'10027.9243828'
p1771
sba(igraph
Edge
p1772
(dp1773
g7
I1
sg8
I00
sg9
I5
sg10
(lp1774
g360
ag440
asg26
I00
sg27
I00
sg28
I3277644
sg20
S'10027.9339447'
p1775
sba(igraph
Edge
p1776
(dp1777
g7
I1
sg8
I00
sg9
I5
sg10
(lp1778
g367
ag454
asg26
I00
sg27
I00
sg28
I3277645
sg20
S'10027.9437758'
p1779
sba(igraph
Edge
p1780
(dp1781
g7
I1
sg8
I00
sg9
I5
sg10
(lp1782
g374
ag454
asg26
I00
sg27
I00
sg28
I3277646
sg20
S'10027.9534745'
p1783
sba(igraph
Edge
p1784
(dp1785
g7
I1
sg8
I00
sg9
I5
sg10
(lp1786
g381
ag468
asg26
I00
sg27
I00
sg28
I3277647
sg20
S'10027.9631182'
p1787
sba(igraph
Edge
p1788
(dp1789
g7
I1
sg8
I00
sg9
I5
sg10
(lp1790
g388
ag468
asg26
I00
sg27
I00
sg28
I3277648
sg20
S'10027.972882'
p1791
sba(igraph
Edge
p1792
(dp1793
g7
I1
sg8
I00
sg9
I5
sg10
(lp1794
g395
ag482
asg26
I00
sg27
I00
sg28
I3277649
sg20
S'10027.9825891'
p1795
sba(igraph
Edge
p1796
(dp1797
g7
I1
sg8
I00
sg9
I5
sg10
(lp1798
g402
ag482
asg26
I00
sg27
I00
sg28
I3277650
sg20
S'10027.9922605'
p1799
sba(igraph
Edge
p1800
(dp1801
g7
I1
sg8
I00
sg9
I5
sg10
(lp1802
g409
ag496
asg26
I00
sg27
I00
sg28
I3277651
sg20
S'10028.0020142'
p1803
sba(igraph
Edge
p1804
(dp1805
g7
I1
sg8
I00
sg9
I5
sg10
(lp1806
g416
ag496
asg26
I00
sg27
I00
sg28
I3277652
sg20
S'10028.0118049'
p1807
sba(igraph
Edge
p1808
(dp1809
g7
I1
sg8
I00
sg9
I5
sg10
(lp1810
g343
ag423
asg26
I00
sg27
I00
sg28
I3277653
sg20
S'10028.0733146'
p1811
sba(igraph
Edge
p1812
(dp1813
g7
I1
sg8
I00
sg9
I5
sg10
(lp1814
g346
ag433
asg26
I00
sg27
I00
sg28
I3277654
sg20
S'10028.0847963'
p1815
sba(igraph
Edge
p1816
(dp1817
g7
I1
sg8
I00
sg9
I5
sg10
(lp1818
g353
ag433
asg26
I00
sg27
I00
sg28
I3277655
sg20
S'10028.0949095'
p1819
sba(igraph
Edge
p1820
(dp1821
g7
I1
sg8
I00
sg9
I5
sg10
(lp1822
g360
ag447
asg26
I00
sg27
I00
sg28
I3277656
sg20
S'10028.1050223'
p1823
sba(igraph
Edge
p1824
(dp1825
g7
I1
sg8
I00
sg9
I5
sg10
(lp1826
g367
ag447
asg26
I00
sg27
I00
sg28
I3277657
sg20
S'10028.1151205'
p1827
sba(igraph
Edge
p1828
(dp1829
g7
I1
sg8
I00
sg9
I5
sg10
(lp1830
g374
ag461
asg26
I00
sg27
I00
sg28
I3277658
sg20
S'10028.1251793'
p1831
sba(igraph
Edge
p1832
(dp1833
g7
I1
sg8
I00
sg9
I5
sg10
(lp1834
g381
ag461
asg26
I00
sg27
I00
sg28
I3277659
sg20
S'10028.1352759'
p1835
sba(igraph
Edge
p1836
(dp1837
g7
I1
sg8
I00
sg9
I5
sg10
(lp1838
g388
ag475
asg26
I00
sg27
I00
sg28
I3277660
sg20
S'10028.1456459'
p1839
sba(igraph
Edge
p1840
(dp1841
g7
I1
sg8
I00
sg9
I5
sg10
(lp1842
g395
ag475
asg26
I00
sg27
I00
sg28
I3277661
sg20
S'10028.1557662'
p1843
sba(igraph
Edge
p1844
(dp1845
g7
I1
sg8
I00
sg9
I5
sg10
(lp1846
g402
ag489
asg26
I00
sg27
I00
sg28
I3277662
sg20
S'10028.1663371'
p1847
sba(igraph
Edge
p1848
(dp1849
g7
I1
sg8
I00
sg9
I5
sg10
(lp1850
g409
ag489
asg26
I00
sg27
I00
sg28
I3277663
sg20
S'10028.1764073'
p1851
sba(igraph
Edge
p1852
(dp1853
g7
I1
sg8
I00
sg9
I5
sg10
(lp1854
g423
ag506
asg26
I00
sg27
I00
sg28
I3277664
sg20
S'10028.2491004'
p1855
sba(igraph
Edge
p1856
(dp1857
g7
I1
sg8
I00
sg9
I5
sg10
(lp1858
g426
ag506
asg26
I00
sg27
I00
sg28
I3277665
sg20
S'10028.2594986'
p1859
sba(igraph
Edge
p1860
(dp1861
g7
I1
sg8
I00
sg9
I5
sg10
(lp1862
g433
ag520
asg26
I00
sg27
I00
sg28
I3277666
sg20
S'10028.2699751'
p1863
sba(igraph
Edge
p1864
(dp1865
g7
I1
sg8
I00
sg9
I5
sg10
(lp1866
g440
ag520
asg26
I00
sg27
I00
sg28
I3277667
sg20
S'10028.2803731'
p1867
sba(igraph
Edge
p1868
(dp1869
g7
I1
sg8
I00
sg9
I5
sg10
(lp1870
g447
ag534
asg26
I00
sg27
I00
sg28
I3277668
sg20
S'10028.2909132'
p1871
sba(igraph
Edge
p1872
(dp1873
g7
I1
sg8
I00
sg9
I5
sg10
(lp1874
g454
ag534
asg26
I00
sg27
I00
sg28
I3277669
sg20
S'10028.3015436'
p1875
sba(igraph
Edge
p1876
(dp1877
g7
I1
sg8
I00
sg9
I5
sg10
(lp1878
g461
ag548
asg26
I00
sg27
I00
sg28
I3277670
sg20
S'10028.3122659'
p1879
sba(igraph
Edge
p1880
(dp1881
g7
I1
sg8
I00
sg9
I5
sg10
(lp1882
g468
ag548
asg26
I00
sg27
I00
sg28
I3277671
sg20
S'10028.3227988'
p1883
sba(igraph
Edge
p1884
(dp1885
g7
I1
sg8
I00
sg9
I5
sg10
(lp1886
g475
ag562
asg26
I00
sg27
I00
sg28
I3277672
sg20
S'10028.3333236'
p1887
sba(igraph
Edge
p1888
(dp1889
g7
I1
sg8
I00
sg9
I5
sg10
(lp1890
g482
ag562
asg26
I00
sg27
I00
sg28
I3277673
sg20
S'10028.3438102'
p1891
sba(igraph
Edge
p1892
(dp1893
g7
I1
sg8
I00
sg9
I5
sg10
(lp1894
g489
ag576
asg26
I00
sg27
I00
sg28
I3277674
sg20
S'10028.3543436'
p1895
sba(igraph
Edge
p1896
(dp1897
g7
I1
sg8
I00
sg9
I5
sg10
(lp1898
g496
ag576
asg26
I00
sg27
I00
sg28
I3277675
sg20
S'10028.3649562'
p1899
sba(igraph
Edge
p1900
(dp1901
g7
I1
sg8
I00
sg9
I5
sg10
(lp1902
g423
ag503
asg26
I00
sg27
I00
sg28
I3277676
sg20
S'10028.4354154'
p1903
sba(igraph
Edge
p1904
(dp1905
g7
I1
sg8
I00
sg9
I5
sg10
(lp1906
g426
ag513
asg26
I00
sg27
I00
sg28
I3277677
sg20
S'10028.4474856'
p1907
sba(igraph
Edge
p1908
(dp1909
g7
I1
sg8
I00
sg9
I5
sg10
(lp1910
g433
ag513
asg26
I00
sg27
I00
sg28
I3277678
sg20
S'10028.4594947'
p1911
sba(igraph
Edge
p1912
(dp1913
g7
I1
sg8
I00
sg9
I5
sg10
(lp1914
g440
ag527
asg26
I00
sg27
I00
sg28
I3277679
sg20
S'10028.4711001'
p1915
sba(igraph
Edge
p1916
(dp1917
g7
I1
sg8
I00
sg9
I5
sg10
(lp1918
g447
ag527
asg26
I00
sg27
I00
sg28
I3277680
sg20
S'10028.4824225'
p1919
sba(igraph
Edge
p1920
(dp1921
g7
I1
sg8
I00
sg9
I5
sg10
(lp1922
g454
ag541
asg26
I00
sg27
I00
sg28
I3277681
sg20
S'10028.4936801'
p1923
sba(igraph
Edge
p1924
(dp1925
g7
I1
sg8
I00
sg9
I5
sg10
(lp1926
g461
ag541
asg26
I00
sg27
I00
sg28
I3277682
sg20
S'10028.5056006'
p1927
sba(igraph
Edge
p1928
(dp1929
g7
I1
sg8
I00
sg9
I5
sg10
(lp1930
g468
ag555
asg26
I00
sg27
I00
sg28
I3277683
sg20
S'10028.5169752'
p1931
sba(igraph
Edge
p1932
(dp1933
g7
I1
sg8
I00
sg9
I5
sg10
(lp1934
g475
ag555
asg26
I00
sg27
I00
sg28
I3277684
sg20
S'10028.5281814'
p1935
sba(igraph
Edge
p1936
(dp1937
g7
I1
sg8
I00
sg9
I5
sg10
(lp1938
g482
ag569
asg26
I00
sg27
I00
sg28
I3277685
sg20
S'10028.5400298'
p1939
sba(igraph
Edge
p1940
(dp1941
g7
I1
sg8
I00
sg9
I5
sg10
(lp1942
g489
ag569
asg26
I00
sg27
I00
sg28
I3277686
sg20
S'10028.5521389'
p1943
sba(igraph
Edge
p1944
(dp1945
g7
I1
sg8
I00
sg9
I5
sg10
(lp1946
g503
ag586
asg26
I00
sg27
I00
sg28
I3277687
sg20
S'10028.6428052'
p1947
sba(igraph
Edge
p1948
(dp1949
g7
I1
sg8
I00
sg9
I5
sg10
(lp1950
g506
ag586
asg26
I00
sg27
I00
sg28
I3277688
sg20
S'10028.6555956'
p1951
sba(igraph
Edge
p1952
(dp1953
g7
I1
sg8
I00
sg9
I5
sg10
(lp1954
g513
ag600
asg26
I00
sg27
I00
sg28
I3277689
sg20
S'10028.6678723'
p1955
sba(igraph
Edge
p1956
(dp1957
g7
I1
sg8
I00
sg9
I5
sg10
(lp1958
g520
ag600
asg26
I00
sg27
I00
sg28
I3277690
sg20
S'10028.6807301'
p1959
sba(igraph
Edge
p1960
(dp1961
g7
I1
sg8
I00
sg9
I5
sg10
(lp1962
g527
ag614
asg26
I00
sg27
I00
sg28
I3277691
sg20
S'10028.6935474'
p1963
sba(igraph
Edge
p1964
(dp1965
g7
I1
sg8
I00
sg9
I5
sg10
(lp1966
g534
ag614
asg26
I00
sg27
I00
sg28
I3277692
sg20
S'10028.707115'
p1967
sba(igraph
Edge
p1968
(dp1969
g7
I1
sg8
I00
sg9
I5
sg10
(lp1970
g541
ag628
asg26
I00
sg27
I00
sg28
I3277693
sg20
S'10028.7188861'
p1971
sba(igraph
Edge
p1972
(dp1973
g7
I1
sg8
I00
sg9
I5
sg10
(lp1974
g548
ag628
asg26
I00
sg27
I00
sg28
I3277694
sg20
S'10028.730896'
p1975
sba(igraph
Edge
p1976
(dp1977
g7
I1
sg8
I00
sg9
I5
sg10
(lp1978
g555
ag642
asg26
I00
sg27
I00
sg28
I3277695
sg20
S'10028.7426927'
p1979
sba(igraph
Edge
p1980
(dp1981
g7
I1
sg8
I00
sg9
I5
sg10
(lp1982
g562
ag642
asg26
I00
sg27
I00
sg28
I3277696
sg20
S'10028.7546115'
p1983
sba(igraph
Edge
p1984
(dp1985
g7
I1
sg8
I00
sg9
I5
sg10
(lp1986
g569
ag656
asg26
I00
sg27
I00
sg28
I3277697
sg20
S'10028.766358'
p1987
sba(igraph
Edge
p1988
(dp1989
g7
I1
sg8
I00
sg9
I5
sg10
(lp1990
g576
ag656
asg26
I00
sg27
I00
sg28
I3277698
sg20
S'10028.7786409'
p1991
sba(igraph
Edge
p1992
(dp1993
g7
I1
sg8
I00
sg9
I5
sg10
(lp1994
g503
ag583
asg26
I00
sg27
I00
sg28
I3277699
sg20
S'10028.85353'
p1995
sba(igraph
Edge
p1996
(dp1997
g7
I1
sg8
I00
sg9
I5
sg10
(lp1998
g506
ag593
asg26
I00
sg27
I00
sg28
I3277700
sg20
S'10028.8655902'
p1999
sba(igraph
Edge
p2000
(dp2001
g7
I1
sg8
I00
sg9
I5
sg10
(lp2002
g513
ag593
asg26
I00
sg27
I00
sg28
I3277701
sg20
S'10028.8776942'
p2003
sba(igraph
Edge
p2004
(dp2005
g7
I1
sg8
I00
sg9
I5
sg10
(lp2006
g520
ag607
asg26
I00
sg27
I00
sg28
I3277702
sg20
S'10028.8904847'
p2007
sba(igraph
Edge
p2008
(dp2009
g7
I1
sg8
I00
sg9
I5
sg10
(lp2010
g527
ag607
asg26
I00
sg27
I00
sg28
I3277703
sg20
S'10028.903374'
p2011
sba(igraph
Edge
p2012
(dp2013
g7
I1
sg8
I00
sg9
I5
sg10
(lp2014
g534
ag621
asg26
I00
sg27
I00
sg28
I3277704
sg20
S'10028.9153018'
p2015
sba(igraph
Edge
p2016
(dp2017
g7
I1
sg8
I00
sg9
I5
sg10
(lp2018
g541
ag621
asg26
I00
sg27
I00
sg28
I3277705
sg20
S'10028.9272637'
p2019
sba(igraph
Edge
p2020
(dp2021
g7
I1
sg8
I00
sg9
I5
sg10
(lp2022
g548
ag635
asg26
I00
sg27
I00
sg28
I3277706
sg20
S'10028.9389517'
p2023
sba(igraph
Edge
p2024
(dp2025
g7
I1
sg8
I00
sg9
I5
sg10
(lp2026
g555
ag635
asg26
I00
sg27
I00
sg28
I3277707
sg20
S'10028.9505811'
p2027
sba(igraph
Edge
p2028
(dp2029
g7
I1
sg8
I00
sg9
I5
sg10
(lp2030
g562
ag649
asg26
I00
sg27
I00
sg28
I3277708
sg20
S'10028.9622284'
p2031
sba(igraph
Edge
p2032
(dp2033
g7
I1
sg8
I00
sg9
I5
sg10
(lp2034
g569
ag649
asg26
I00
sg27
I00
sg28
I3277709
sg20
S'10028.9741691'
p2035
sba(igraph
Edge
p2036
(dp2037
g7
I1
sg8
I00
sg9
I5
sg10
(lp2038
g583
ag666
asg26
I00
sg27
I00
sg28
I3277710
sg20
S'10029.0652678'
p2039
sba(igraph
Edge
p2040
(dp2041
g7
I1
sg8
I00
sg9
I5
sg10
(lp2042
g586
ag666
asg26
I00
sg27
I00
sg28
I3277711
sg20
S'10029.0811969'
p2043
sba(igraph
Edge
p2044
(dp2045
g7
I1
sg8
I00
sg9
I5
sg10
(lp2046
g593
ag680
asg26
I00
sg27
I00
sg28
I3277712
sg20
S'10029.0949808'
p2047
sba(igraph
Edge
p2048
(dp2049
g7
I1
sg8
I00
sg9
I5
sg10
(lp2050
g600
ag680
asg26
I00
sg27
I00
sg28
I3277713
sg20
S'10029.1074746'
p2051
sba(igraph
Edge
p2052
(dp2053
g7
I1
sg8
I00
sg9
I5
sg10
(lp2054
g607
ag694
asg26
I00
sg27
I00
sg28
I3277714
sg20
S'10029.1200544'
p2055
sba(igraph
Edge
p2056
(dp2057
g7
I1
sg8
I00
sg9
I5
sg10
(lp2058
g614
ag694
asg26
I00
sg27
I00
sg28
I3277715
sg20
S'10029.1323428'
p2059
sba(igraph
Edge
p2060
(dp2061
g7
I1
sg8
I00
sg9
I5
sg10
(lp2062
g621
ag708
asg26
I00
sg27
I00
sg28
I3277716
sg20
S'10029.1448665'
p2063
sba(igraph
Edge
p2064
(dp2065
g7
I1
sg8
I00
sg9
I5
sg10
(lp2066
g628
ag708
asg26
I00
sg27
I00
sg28
I3277717
sg20
S'10029.1572247'
p2067
sba(igraph
Edge
p2068
(dp2069
g7
I1
sg8
I00
sg9
I5
sg10
(lp2070
g635
ag722
asg26
I00
sg27
I00
sg28
I3277718
sg20
S'10029.1709033'
p2071
sba(igraph
Edge
p2072
(dp2073
g7
I1
sg8
I00
sg9
I5
sg10
(lp2074
g642
ag722
asg26
I00
sg27
I00
sg28
I3277719
sg20
S'10029.1839684'
p2075
sba(igraph
Edge
p2076
(dp2077
g7
I1
sg8
I00
sg9
I5
sg10
(lp2078
g649
ag736
asg26
I00
sg27
I00
sg28
I3277720
sg20
S'10029.1973717'
p2079
sba(igraph
Edge
p2080
(dp2081
g7
I1
sg8
I00
sg9
I5
sg10
(lp2082
g656
ag736
asg26
I00
sg27
I00
sg28
I3277721
sg20
S'10029.2104267'
p2083
sba(igraph
Edge
p2084
(dp2085
g7
I1
sg8
I00
sg9
I5
sg10
(lp2086
g583
ag663
asg26
I00
sg27
I00
sg28
I3277722
sg20
S'10029.2874564'
p2087
sba(igraph
Edge
p2088
(dp2089
g7
I1
sg8
I00
sg9
I5
sg10
(lp2090
g586
ag673
asg26
I00
sg27
I00
sg28
I3277723
sg20
S'10029.3010807'
p2091
sba(igraph
Edge
p2092
(dp2093
g7
I1
sg8
I00
sg9
I5
sg10
(lp2094
g593
ag673
asg26
I00
sg27
I00
sg28
I3277724
sg20
S'10029.314481'
p2095
sba(igraph
Edge
p2096
(dp2097
g7
I1
sg8
I00
sg9
I5
sg10
(lp2098
g600
ag687
asg26
I00
sg27
I00
sg28
I3277725
sg20
S'10029.3276872'
p2099
sba(igraph
Edge
p2100
(dp2101
g7
I1
sg8
I00
sg9
I5
sg10
(lp2102
g607
ag687
asg26
I00
sg27
I00
sg28
I3277726
sg20
S'10029.3411448'
p2103
sba(igraph
Edge
p2104
(dp2105
g7
I1
sg8
I00
sg9
I5
sg10
(lp2106
g614
ag701
asg26
I00
sg27
I00
sg28
I3277727
sg20
S'10029.3551091'
p2107
sba(igraph
Edge
p2108
(dp2109
g7
I1
sg8
I00
sg9
I5
sg10
(lp2110
g621
ag701
asg26
I00
sg27
I00
sg28
I3277728
sg20
S'10029.3708295'
p2111
sba(igraph
Edge
p2112
(dp2113
g7
I1
sg8
I00
sg9
I5
sg10
(lp2114
g628
ag715
asg26
I00
sg27
I00
sg28
I3277729
sg20
S'10029.3837345'
p2115
sba(igraph
Edge
p2116
(dp2117
g7
I1
sg8
I00
sg9
I5
sg10
(lp2118
g635
ag715
asg26
I00
sg27
I00
sg28
I3277730
sg20
S'10029.3965398'
p2119
sba(igraph
Edge
p2120
(dp2121
g7
I1
sg8
I00
sg9
I5
sg10
(lp2122
g642
ag729
asg26
I00
sg27
I00
sg28
I3277731
sg20
S'10029.4093252'
p2123
sba(igraph
Edge
p2124
(dp2125
g7
I1
sg8
I00
sg9
I5
sg10
(lp2126
g649
ag729
asg26
I00
sg27
I00
sg28
I3277732
sg20
S'10029.4225353'
p2127
sba(igraph
Edge
p2128
(dp2129
g7
I1
sg8
I00
sg9
I5
sg10
(lp2130
g663
ag746
asg26
I00
sg27
I00
sg28
I3277733
sg20
S'10029.5196289'
p2131
sba(igraph
Edge
p2132
(dp2133
g7
I1
sg8
I00
sg9
I5
sg10
(lp2134
g666
ag746
asg26
I00
sg27
I00
sg28
I3277734
sg20
S'10029.532623'
p2135
sba(igraph
Edge
p2136
(dp2137
g7
I1
sg8
I00
sg9
I5
sg10
(lp2138
g673
ag760
asg26
I00
sg27
I00
sg28
I3277735
sg20
S'10029.5460029'
p2139
sba(igraph
Edge
p2140
(dp2141
g7
I1
sg8
I00
sg9
I5
sg10
(lp2142
g680
ag760
asg26
I00
sg27
I00
sg28
I3277736
sg20
S'10029.5610152'
p2143
sba(igraph
Edge
p2144
(dp2145
g7
I1
sg8
I00
sg9
I5
sg10
(lp2146
g687
ag774
asg26
I00
sg27
I00
sg28
I3277737
sg20
S'10029.5748013'
p2147
sba(igraph
Edge
p2148
(dp2149
g7
I1
sg8
I00
sg9
I5
sg10
(lp2150
g694
ag774
asg26
I00
sg27
I00
sg28
I3277738
sg20
S'10029.5899579'
p2151
sba(igraph
Edge
p2152
(dp2153
g7
I1
sg8
I00
sg9
I5
sg10
(lp2154
g701
ag788
asg26
I00
sg27
I00
sg28
I3277739
sg20
S'10029.6027422'
p2155
sba(igraph
Edge
p2156
(dp2157
g7
I1
sg8
I00
sg9
I5
sg10
(lp2158
g708
ag788
asg26
I00
sg27
I00
sg28
I3277740
sg20
S'10029.6155159'
p2159
sba(igraph
Edge
p2160
(dp2161
g7
I1
sg8
I00
sg9
I5
sg10
(lp2162
g715
ag802
asg26
I00
sg27
I00
sg28
I3277741
sg20
S'10029.6283354'
p2163
sba(igraph
Edge
p2164
(dp2165
g7
I1
sg8
I00
sg9
I5
sg10
(lp2166
g722
ag802
asg26
I00
sg27
I00
sg28
I3277742
sg20
S'10029.641243'
p2167
sba(igraph
Edge
p2168
(dp2169
g7
I1
sg8
I00
sg9
I5
sg10
(lp2170
g729
ag816
asg26
I00
sg27
I00
sg28
I3277743
sg20
S'10029.6540767'
p2171
sba(igraph
Edge
p2172
(dp2173
g7
I1
sg8
I00
sg9
I5
sg10
(lp2174
g736
ag816
asg26
I00
sg27
I00
sg28
I3277744
sg20
S'10029.666989'
p2175
sba(igraph
Edge
p2176
(dp2177
g7
I1
sg8
I00
sg9
I5
sg10
(lp2178
g663
ag743
asg26
I00
sg27
I00
sg28
I3277745
sg20
S'10029.7454872'
p2179
sba(igraph
Edge
p2180
(dp2181
g7
I1
sg8
I00
sg9
I5
sg10
(lp2182
g666
ag753
asg26
I00
sg27
I00
sg28
I3277746
sg20
S'10029.7585134'
p2183
sba(igraph
Edge
p2184
(dp2185
g7
I1
sg8
I00
sg9
I5
sg10
(lp2186
g673
ag753
asg26
I00
sg27
I00
sg28
I3277747
sg20
S'10029.7716185'
p2187
sba(igraph
Edge
p2188
(dp2189
g7
I1
sg8
I00
sg9
I5
sg10
(lp2190
g680
ag767
asg26
I00
sg27
I00
sg28
I3277748
sg20
S'10029.7846251'
p2191
sba(igraph
Edge
p2192
(dp2193
g7
I1
sg8
I00
sg9
I5
sg10
(lp2194
g687
ag767
asg26
I00
sg27
I00
sg28
I3277749
sg20
S'10029.7977486'
p2195
sba(igraph
Edge
p2196
(dp2197
g7
I1
sg8
I00
sg9
I5
sg10
(lp2198
g694
ag781
asg26
I00
sg27
I00
sg28
I3277750
sg20
S'10029.8108413'
p2199
sba(igraph
Edge
p2200
(dp2201
g7
I1
sg8
I00
sg9
I5
sg10
(lp2202
g701
ag781
asg26
I00
sg27
I00
sg28
I3277751
sg20
S'10029.8238782'
p2203
sba(igraph
Edge
p2204
(dp2205
g7
I1
sg8
I00
sg9
I5
sg10
(lp2206
g708
ag795
asg26
I00
sg27
I00
sg28
I3277752
sg20
S'10029.8369318'
p2207
sba(igraph
Edge
p2208
(dp2209
g7
I1
sg8
I00
sg9
I5
sg10
(lp2210
g715
ag795
asg26
I00
sg27
I00
sg28
I3277753
sg20
S'10029.8502491'
p2211
sba(igraph
Edge
p2212
(dp2213
g7
I1
sg8
I00
sg9
I5
sg10
(lp2214
g722
ag809
asg26
I00
sg27
I00
sg28
I3277754
sg20
S'10029.8636329'
p2215
sba(igraph
Edge
p2216
(dp2217
g7
I1
sg8
I00
sg9
I5
sg10
(lp2218
g729
ag809
asg26
I00
sg27
I00
sg28
I3277755
sg20
S'10029.8769922'
p2219
sba(igraph
Edge
p2220
(dp2221
g7
I1
sg8
I00
sg9
I5
sg10
(lp2222
g743
ag826
asg26
I00
sg27
I00
sg28
I3277756
sg20
S'10029.9704479'
p2223
sba(igraph
Edge
p2224
(dp2225
g7
I1
sg8
I00
sg9
I5
sg10
(lp2226
g746
ag826
asg26
I00
sg27
I00
sg28
I3277757
sg20
S'10029.9838351'
p2227
sba(igraph
Edge
p2228
(dp2229
g7
I1
sg8
I00
sg9
I5
sg10
(lp2230
g753
ag840
asg26
I00
sg27
I00
sg28
I3277758
sg20
S'10029.9970373'
p2231
sba(igraph
Edge
p2232
(dp2233
g7
I1
sg8
I00
sg9
I5
sg10
(lp2234
g760
ag840
asg26
I00
sg27
I00
sg28
I3277759
sg20
S'10030.010786'
p2235
sba(igraph
Edge
p2236
(dp2237
g7
I1
sg8
I00
sg9
I5
sg10
(lp2238
g767
ag854
asg26
I00
sg27
I00
sg28
I3277760
sg20
S'10030.0242589'
p2239
sba(igraph
Edge
p2240
(dp2241
g7
I1
sg8
I00
sg9
I5
sg10
(lp2242
g774
ag854
asg26
I00
sg27
I00
sg28
I3277761
sg20
S'10030.037766'
p2243
sba(igraph
Edge
p2244
(dp2245
g7
I1
sg8
I00
sg9
I5
sg10
(lp2246
g781
ag868
asg26
I00
sg27
I00
sg28
I3277762
sg20
S'10030.0516057'
p2247
sba(igraph
Edge
p2248
(dp2249
g7
I1
sg8
I00
sg9
I5
sg10
(lp2250
g788
ag868
asg26
I00
sg27
I00
sg28
I3277763
sg20
S'10030.0656785'
p2251
sba(igraph
Edge
p2252
(dp2253
g7
I1
sg8
I00
sg9
I5
sg10
(lp2254
g795
ag882
asg26
I00
sg27
I00
sg28
I3277764
sg20
S'10030.0805706'
p2255
sba(igraph
Edge
p2256
(dp2257
g7
I1
sg8
I00
sg9
I5
sg10
(lp2258
g802
ag882
asg26
I00
sg27
I00
sg28
I3277765
sg20
S'10030.0941338'
p2259
sba(igraph
Edge
p2260
(dp2261
g7
I1
sg8
I00
sg9
I5
sg10
(lp2262
g809
ag896
asg26
I00
sg27
I00
sg28
I3277766
sg20
S'10030.1078461'
p2263
sba(igraph
Edge
p2264
(dp2265
g7
I1
sg8
I00
sg9
I5
sg10
(lp2266
g816
ag896
asg26
I00
sg27
I00
sg28
I3277767
sg20
S'10030.1215152'
p2267
sba(igraph
Edge
p2268
(dp2269
g7
I1
sg8
I00
sg9
I5
sg10
(lp2270
g743
ag823
asg26
I00
sg27
I00
sg28
I3277768
sg20
S'10030.2045956'
p2271
sba(igraph
Edge
p2272
(dp2273
g7
I1
sg8
I00
sg9
I5
sg10
(lp2274
g746
ag833
asg26
I00
sg27
I00
sg28
I3277769
sg20
S'10030.218337'
p2275
sba(igraph
Edge
p2276
(dp2277
g7
I1
sg8
I00
sg9
I5
sg10
(lp2278
g753
ag833
asg26
I00
sg27
I00
sg28
I3277770
sg20
S'10030.2321024'
p2279
sba(igraph
Edge
p2280
(dp2281
g7
I1
sg8
I00
sg9
I5
sg10
(lp2282
g760
ag847
asg26
I00
sg27
I00
sg28
I3277771
sg20
S'10030.2460919'
p2283
sba(igraph
Edge
p2284
(dp2285
g7
I1
sg8
I00
sg9
I5
sg10
(lp2286
g767
ag847
asg26
I00
sg27
I00
sg28
I3277772
sg20
S'10030.259964'
p2287
sba(igraph
Edge
p2288
(dp2289
g7
I1
sg8
I00
sg9
I5
sg10
(lp2290
g774
ag861
asg26
I00
sg27
I00
sg28
I3277773
sg20
S'10030.2738569'
p2291
sba(igraph
Edge
p2292
(dp2293
g7
I1
sg8
I00
sg9
I5
sg10
(lp2294
g781
ag861
asg26
I00
sg27
I00
sg28
I3277774
sg20
S'10030.2876583'
p2295
sba(igraph
Edge
p2296
(dp2297
g7
I1
sg8
I00
sg9
I5
sg10
(lp2298
g788
ag875
asg26
I00
sg27
I00
sg28
I3277775
sg20
S'10030.3016043'
p2299
sba(igraph
Edge
p2300
(dp2301
g7
I1
sg8
I00
sg9
I5
sg10
(lp2302
g795
ag875
asg26
I00
sg27
I00
sg28
I3277776
sg20
S'10030.315515'
p2303
sba(igraph
Edge
p2304
(dp2305
g7
I1
sg8
I00
sg9
I5
sg10
(lp2306
g802
ag889
asg26
I00
sg27
I00
sg28
I3277777
sg20
S'10030.3294064'
p2307
sba(igraph
Edge
p2308
(dp2309
g7
I1
sg8
I00
sg9
I5
sg10
(lp2310
g809
ag889
asg26
I00
sg27
I00
sg28
I3277778
sg20
S'10030.3431579'
p2311
sba(igraph
Edge
p2312
(dp2313
g7
I1
sg8
I00
sg9
I5
sg10
(lp2314
g823
ag906
asg26
I00
sg27
I00
sg28
I3277779
sg20
S'10030.4431873'
p2315
sba(igraph
Edge
p2316
(dp2317
g7
I1
sg8
I00
sg9
I5
sg10
(lp2318
g826
ag906
asg26
I00
sg27
I00
sg28
I3277780
sg20
S'10030.457866'
p2319
sba(igraph
Edge
p2320
(dp2321
g7
I1
sg8
I00
sg9
I5
sg10
(lp2322
g833
ag920
asg26
I00
sg27
I00
sg28
I3277781
sg20
S'10030.4723855'
p2323
sba(igraph
Edge
p2324
(dp2325
g7
I1
sg8
I00
sg9
I5
sg10
(lp2326
g840
ag920
asg26
I00
sg27
I00
sg28
I3277782
sg20
S'10030.4867197'
p2327
sba(igraph
Edge
p2328
(dp2329
g7
I1
sg8
I00
sg9
I5
sg10
(lp2330
g847
ag934
asg26
I00
sg27
I00
sg28
I3277783
sg20
S'10030.5008394'
p2331
sba(igraph
Edge
p2332
(dp2333
g7
I1
sg8
I00
sg9
I5
sg10
(lp2334
g854
ag934
asg26
I00
sg27
I00
sg28
I3277784
sg20
S'10030.5149543'
p2335
sba(igraph
Edge
p2336
(dp2337
g7
I1
sg8
I00
sg9
I5
sg10
(lp2338
g861
ag948
asg26
I00
sg27
I00
sg28
I3277785
sg20
S'10030.5290611'
p2339
sba(igraph
Edge
p2340
(dp2341
g7
I1
sg8
I00
sg9
I5
sg10
(lp2342
g868
ag948
asg26
I00
sg27
I00
sg28
I3277786
sg20
S'10030.5433827'
p2343
sba(igraph
Edge
p2344
(dp2345
g7
I1
sg8
I00
sg9
I5
sg10
(lp2346
g875
ag962
asg26
I00
sg27
I00
sg28
I3277787
sg20
S'10030.5575756'
p2347
sba(igraph
Edge
p2348
(dp2349
g7
I1
sg8
I00
sg9
I5
sg10
(lp2350
g882
ag962
asg26
I00
sg27
I00
sg28
I3277788
sg20
S'10030.5728801'
p2351
sba(igraph
Edge
p2352
(dp2353
g7
I1
sg8
I00
sg9
I5
sg10
(lp2354
g889
ag976
asg26
I00
sg27
I00
sg28
I3277789
sg20
S'10030.5881639'
p2355
sba(igraph
Edge
p2356
(dp2357
g7
I1
sg8
I00
sg9
I5
sg10
(lp2358
g896
ag976
asg26
I00
sg27
I00
sg28
I3277790
sg20
S'10030.6027774'
p2359
sba(igraph
Edge
p2360
(dp2361
g7
I1
sg8
I00
sg9
I5
sg10
(lp2362
g823
ag903
asg26
I00
sg27
I00
sg28
I3277791
sg20
S'10030.689667'
p2363
sba(igraph
Edge
p2364
(dp2365
g7
I1
sg8
I00
sg9
I5
sg10
(lp2366
g826
ag913
asg26
I00
sg27
I00
sg28
I3277792
sg20
S'10030.7042107'
p2367
sba(igraph
Edge
p2368
(dp2369
g7
I1
sg8
I00
sg9
I5
sg10
(lp2370
g833
ag913
asg26
I00
sg27
I00
sg28
I3277793
sg20
S'10030.7187137'
p2371
sba(igraph
Edge
p2372
(dp2373
g7
I1
sg8
I00
sg9
I5
sg10
(lp2374
g840
ag927
asg26
I00
sg27
I00
sg28
I3277794
sg20
S'10030.7338357'
p2375
sba(igraph
Edge
p2376
(dp2377
g7
I1
sg8
I00
sg9
I5
sg10
(lp2378
g847
ag927
asg26
I00
sg27
I00
sg28
I3277795
sg20
S'10030.7483236'
p2379
sba(igraph
Edge
p2380
(dp2381
g7
I1
sg8
I00
sg9
I5
sg10
(lp2382
g854
ag941
asg26
I00
sg27
I00
sg28
I3277796
sg20
S'10030.7628869'
p2383
sba(igraph
Edge
p2384
(dp2385
g7
I1
sg8
I00
sg9
I5
sg10
(lp2386
g861
ag941
asg26
I00
sg27
I00
sg28
I3277797
sg20
S'10030.7789454'
p2387
sba(igraph
Edge
p2388
(dp2389
g7
I1
sg8
I00
sg9
I5
sg10
(lp2390
g868
ag955
asg26
I00
sg27
I00
sg28
I3277798
sg20
S'10030.7939425'
p2391
sba(igraph
Edge
p2392
(dp2393
g7
I1
sg8
I00
sg9
I5
sg10
(lp2394
g875
ag955
asg26
I00
sg27
I00
sg28
I3277799
sg20
S'10030.8086581'
p2395
sba(igraph
Edge
p2396
(dp2397
g7
I1
sg8
I00
sg9
I5
sg10
(lp2398
g882
ag969
asg26
I00
sg27
I00
sg28
I3277800
sg20
S'10030.8235021'
p2399
sba(igraph
Edge
p2400
(dp2401
g7
I1
sg8
I00
sg9
I5
sg10
(lp2402
g889
ag969
asg26
I00
sg27
I00
sg28
I3277801
sg20
S'10030.8381616'
p2403
sba(igraph
Edge
p2404
(dp2405
g7
I1
sg8
I00
sg9
I5
sg10
(lp2406
g903
ag986
asg26
I00
sg27
I00
sg28
I3277802
sg20
S'10030.9503431'
p2407
sba(igraph
Edge
p2408
(dp2409
g7
I1
sg8
I00
sg9
I5
sg10
(lp2410
g906
ag986
asg26
I00
sg27
I00
sg28
I3277803
sg20
S'10030.9658135'
p2411
sba(igraph
Edge
p2412
(dp2413
g7
I1
sg8
I00
sg9
I5
sg10
(lp2414
g913
ag1000
asg26
I00
sg27
I00
sg28
I3277804
sg20
S'10030.981415'
p2415
sba(igraph
Edge
p2416
(dp2417
g7
I1
sg8
I00
sg9
I5
sg10
(lp2418
g920
ag1000
asg26
I00
sg27
I00
sg28
I3277805
sg20
S'10030.9966934'
p2419
sba(igraph
Edge
p2420
(dp2421
g7
I1
sg8
I00
sg9
I5
sg10
(lp2422
g927
ag1014
asg26
I00
sg27
I00
sg28
I3277806
sg20
S'10031.0167228'
p2423
sba(igraph
Edge
p2424
(dp2425
g7
I1
sg8
I00
sg9
I5
sg10
(lp2426
g934
ag1014
asg26
I00
sg27
I00
sg28
I3277807
sg20
S'10031.0332593'
p2427
sba(igraph
Edge
p2428
(dp2429
g7
I1
sg8
I00
sg9
I5
sg10
(lp2430
g941
ag1028
asg26
I00
sg27
I00
sg28
I3277808
sg20
S'10031.0487364'
p2431
sba(igraph
Edge
p2432
(dp2433
g7
I1
sg8
I00
sg9
I5
sg10
(lp2434
g948
ag1028
asg26
I00
sg27
I00
sg28
I3277809
sg20
S'10031.0639799'
p2435
sba(igraph
Edge
p2436
(dp2437
g7
I1
sg8
I00
sg9
I5
sg10
(lp2438
g955
ag1042
asg26
I00
sg27
I00
sg28
I3277810
sg20
S'10031.080094'
p2439
sba(igraph
Edge
p2440
(dp2441
g7
I1
sg8
I00
sg9
I5
sg10
(lp2442
g962
ag1042
asg26
I00
sg27
I00
sg28
I3277811
sg20
S'10031.0954264'
p2443
sba(igraph
Edge
p2444
(dp2445
g7
I1
sg8
I00
sg9
I5
sg10
(lp2446
g969
ag1056
asg26
I00
sg27
I00
sg28
I3277812
sg20
S'10031.1107104'
p2447
sba(igraph
Edge
p2448
(dp2449
g7
I1
sg8
I00
sg9
I5
sg10
(lp2450
g976
ag1056
asg26
I00
sg27
I00
sg28
I3277813
sg20
S'10031.1258263'
p2451
sba(igraph
Edge
p2452
(dp2453
g7
I1
sg8
I00
sg9
I5
sg10
(lp2454
g903
ag983
asg26
I00
sg27
I00
sg28
I3277814
sg20
S'10031.2166898'
p2455
sba(igraph
Edge
p2456
(dp2457
g7
I1
sg8
I00
sg9
I5
sg10
(lp2458
g906
ag993
asg26
I00
sg27
I00
sg28
I3277815
sg20
S'10031.2327047'
p2459
sba(igraph
Edge
p2460
(dp2461
g7
I1
sg8
I00
sg9
I5
sg10
(lp2462
g913
ag993
asg26
I00
sg27
I00
sg28
I3277816
sg20
S'10031.2479899'
p2463
sba(igraph
Edge
p2464
(dp2465
g7
I1
sg8
I00
sg9
I5
sg10
(lp2466
g920
ag1007
asg26
I00
sg27
I00
sg28
I3277817
sg20
S'10031.2631779'
p2467
sba(igraph
Edge
p2468
(dp2469
g7
I1
sg8
I00
sg9
I5
sg10
(lp2470
g927
ag1007
asg26
I00
sg27
I00
sg28
I3277818
sg20
S'10031.278463'
p2471
sba(igraph
Edge
p2472
(dp2473
g7
I1
sg8
I00
sg9
I5
sg10
(lp2474
g934
ag1021
asg26
I00
sg27
I00
sg28
I3277819
sg20
S'10031.2940404'
p2475
sba(igraph
Edge
p2476
(dp2477
g7
I1
sg8
I00
sg9
I5
sg10
(lp2478
g941
ag1021
asg26
I00
sg27
I00
sg28
I3277820
sg20
S'10031.3093527'
p2479
sba(igraph
Edge
p2480
(dp2481
g7
I1
sg8
I00
sg9
I5
sg10
(lp2482
g948
ag1035
asg26
I00
sg27
I00
sg28
I3277821
sg20
S'10031.3248497'
p2483
sba(igraph
Edge
p2484
(dp2485
g7
I1
sg8
I00
sg9
I5
sg10
(lp2486
g955
ag1035
asg26
I00
sg27
I00
sg28
I3277822
sg20
S'10031.3403799'
p2487
sba(igraph
Edge
p2488
(dp2489
g7
I1
sg8
I00
sg9
I5
sg10
(lp2490
g962
ag1049
asg26
I00
sg27
I00
sg28
I3277823
sg20
S'10031.3557296'
p2491
sba(igraph
Edge
p2492
(dp2493
g7
I1
sg8
I00
sg9
I5
sg10
(lp2494
g969
ag1049
asg26
I00
sg27
I00
sg28
I3277824
sg20
S'10031.371236'
p2495
sba(igraph
Edge
p2496
(dp2497
g7
I1
sg8
I00
sg9
I5
sg10
(lp2498
g983
ag1066
asg26
I00
sg27
I00
sg28
I3277825
sg20
S'10031.4794146'
p2499
sba(igraph
Edge
p2500
(dp2501
g7
I1
sg8
I00
sg9
I5
sg10
(lp2502
g986
ag1066
asg26
I00
sg27
I00
sg28
I3277826
sg20
S'10031.4949615'
p2503
sba(igraph
Edge
p2504
(dp2505
g7
I1
sg8
I00
sg9
I5
sg10
(lp2506
g993
ag1080
asg26
I00
sg27
I00
sg28
I3277827
sg20
S'10031.5107065'
p2507
sba(igraph
Edge
p2508
(dp2509
g7
I1
sg8
I00
sg9
I5
sg10
(lp2510
g1000
ag1080
asg26
I00
sg27
I00
sg28
I3277828
sg20
S'10031.5263082'
p2511
sba(igraph
Edge
p2512
(dp2513
g7
I1
sg8
I00
sg9
I5
sg10
(lp2514
g1007
ag1094
asg26
I00
sg27
I00
sg28
I3277829
sg20
S'10031.541868'
p2515
sba(igraph
Edge
p2516
(dp2517
g7
I1
sg8
I00
sg9
I5
sg10
(lp2518
g1014
ag1094
asg26
I00
sg27
I00
sg28
I3277830
sg20
S'10031.5575558'
p2519
sba(igraph
Edge
p2520
(dp2521
g7
I1
sg8
I00
sg9
I5
sg10
(lp2522
g1021
ag1108
asg26
I00
sg27
I00
sg28
I3277831
sg20
S'10031.5734382'
p2523
sba(igraph
Edge
p2524
(dp2525
g7
I1
sg8
I00
sg9
I5
sg10
(lp2526
g1028
ag1108
asg26
I00
sg27
I00
sg28
I3277832
sg20
S'10031.5909963'
p2527
sba(igraph
Edge
p2528
(dp2529
g7
I1
sg8
I00
sg9
I5
sg10
(lp2530
g1035
ag1122
asg26
I00
sg27
I00
sg28
I3277833
sg20
S'10031.6066855'
p2531
sba(igraph
Edge
p2532
(dp2533
g7
I1
sg8
I00
sg9
I5
sg10
(lp2534
g1042
ag1122
asg26
I00
sg27
I00
sg28
I3277834
sg20
S'10031.622364'
p2535
sba(igraph
Edge
p2536
(dp2537
g7
I1
sg8
I00
sg9
I5
sg10
(lp2538
g1049
ag1136
asg26
I00
sg27
I00
sg28
I3277835
sg20
S'10031.6380532'
p2539
sba(igraph
Edge
p2540
(dp2541
g7
I1
sg8
I00
sg9
I5
sg10
(lp2542
g1056
ag1136
asg26
I00
sg27
I00
sg28
I3277836
sg20
S'10031.6537895'
p2543
sba(igraph
Edge
p2544
(dp2545
g7
I1
sg8
I00
sg9
I5
sg10
(lp2546
g983
ag1063
asg26
I00
sg27
I00
sg28
I3277837
sg20
S'10031.748886'
p2547
sba(igraph
Edge
p2548
(dp2549
g7
I1
sg8
I00
sg9
I5
sg10
(lp2550
g986
ag1073
asg26
I00
sg27
I00
sg28
I3277838
sg20
S'10031.7651908'
p2551
sba(igraph
Edge
p2552
(dp2553
g7
I1
sg8
I00
sg9
I5
sg10
(lp2554
g993
ag1073
asg26
I00
sg27
I00
sg28
I3277839
sg20
S'10031.7814348'
p2555
sba(igraph
Edge
p2556
(dp2557
g7
I1
sg8
I00
sg9
I5
sg10
(lp2558
g1000
ag1087
asg26
I00
sg27
I00
sg28
I3277840
sg20
S'10031.7977567'
p2559
sba(igraph
Edge
p2560
(dp2561
g7
I1
sg8
I00
sg9
I5
sg10
(lp2562
g1007
ag1087
asg26
I00
sg27
I00
sg28
I3277841
sg20
S'10031.8136526'
p2563
sba(igraph
Edge
p2564
(dp2565
g7
I1
sg8
I00
sg9
I5
sg10
(lp2566
g1014
ag1101
asg26
I00
sg27
I00
sg28
I3277842
sg20
S'10031.8300784'
p2567
sba(igraph
Edge
p2568
(dp2569
g7
I1
sg8
I00
sg9
I5
sg10
(lp2570
g1021
ag1101
asg26
I00
sg27
I00
sg28
I3277843
sg20
S'10031.8459405'
p2571
sba(igraph
Edge
p2572
(dp2573
g7
I1
sg8
I00
sg9
I5
sg10
(lp2574
g1028
ag1115
asg26
I00
sg27
I00
sg28
I3277844
sg20
S'10031.8618838'
p2575
sba(igraph
Edge
p2576
(dp2577
g7
I1
sg8
I00
sg9
I5
sg10
(lp2578
g1035
ag1115
asg26
I00
sg27
I00
sg28
I3277845
sg20
S'10031.87783'
p2579
sba(igraph
Edge
p2580
(dp2581
g7
I1
sg8
I00
sg9
I5
sg10
(lp2582
g1042
ag1129
asg26
I00
sg27
I00
sg28
I3277846
sg20
S'10031.8937974'
p2583
sba(igraph
Edge
p2584
(dp2585
g7
I1
sg8
I00
sg9
I5
sg10
(lp2586
g1049
ag1129
asg26
I00
sg27
I00
sg28
I3277847
sg20
S'10031.9098536'
p2587
sba(igraph
Edge
p2588
(dp2589
g7
I1
sg8
I00
sg9
I5
sg10
(lp2590
g1063
ag1146
asg26
I00
sg27
I00
sg28
I3277848
sg20
S'10032.0236795'
p2591
sba(igraph
Edge
p2592
(dp2593
g7
I1
sg8
I00
sg9
I5
sg10
(lp2594
g1066
ag1146
asg26
I00
sg27
I00
sg28
I3277849
sg20
S'10032.039838'
p2595
sba(igraph
Edge
p2596
(dp2597
g7
I1
sg8
I00
sg9
I5
sg10
(lp2598
g1073
ag1160
asg26
I00
sg27
I00
sg28
I3277850
sg20
S'10032.0568681'
p2599
sba(igraph
Edge
p2600
(dp2601
g7
I1
sg8
I00
sg9
I5
sg10
(lp2602
g1080
ag1160
asg26
I00
sg27
I00
sg28
I3277851
sg20
S'10032.0735515'
p2603
sba(igraph
Edge
p2604
(dp2605
g7
I1
sg8
I00
sg9
I5
sg10
(lp2606
g1087
ag1174
asg26
I00
sg27
I00
sg28
I3277852
sg20
S'10032.0910783'
p2607
sba(igraph
Edge
p2608
(dp2609
g7
I1
sg8
I00
sg9
I5
sg10
(lp2610
g1094
ag1174
asg26
I00
sg27
I00
sg28
I3277853
sg20
S'10032.1074938'
p2611
sba(igraph
Edge
p2612
(dp2613
g7
I1
sg8
I00
sg9
I5
sg10
(lp2614
g1101
ag1188
asg26
I00
sg27
I00
sg28
I3277854
sg20
S'10032.1239423'
p2615
sba(igraph
Edge
p2616
(dp2617
g7
I1
sg8
I00
sg9
I5
sg10
(lp2618
g1108
ag1188
asg26
I00
sg27
I00
sg28
I3277855
sg20
S'10032.1401932'
p2619
sba(igraph
Edge
p2620
(dp2621
g7
I1
sg8
I00
sg9
I5
sg10
(lp2622
g1115
ag1202
asg26
I00
sg27
I00
sg28
I3277856
sg20
S'10032.156381'
p2623
sba(igraph
Edge
p2624
(dp2625
g7
I1
sg8
I00
sg9
I5
sg10
(lp2626
g1122
ag1202
asg26
I00
sg27
I00
sg28
I3277857
sg20
S'10032.1727125'
p2627
sba(igraph
Edge
p2628
(dp2629
g7
I1
sg8
I00
sg9
I5
sg10
(lp2630
g1129
ag1216
asg26
I00
sg27
I00
sg28
I3277858
sg20
S'10032.1890249'
p2631
sba(igraph
Edge
p2632
(dp2633
g7
I1
sg8
I00
sg9
I5
sg10
(lp2634
g1136
ag1216
asg26
I00
sg27
I00
sg28
I3277859
sg20
S'10032.2053551'
p2635
sba(igraph
Edge
p2636
(dp2637
g7
I1
sg8
I00
sg9
I5
sg10
(lp2638
g1063
ag1143
asg26
I00
sg27
I00
sg28
I3277860
sg20
S'10032.308026'
p2639
sba(igraph
Edge
p2640
(dp2641
g7
I1
sg8
I00
sg9
I5
sg10
(lp2642
g1066
ag1153
asg26
I00
sg27
I00
sg28
I3277861
sg20
S'10032.3253587'
p2643
sba(igraph
Edge
p2644
(dp2645
g7
I1
sg8
I00
sg9
I5
sg10
(lp2646
g1073
ag1153
asg26
I00
sg27
I00
sg28
I3277862
sg20
S'10032.3425379'
p2647
sba(igraph
Edge
p2648
(dp2649
g7
I1
sg8
I00
sg9
I5
sg10
(lp2650
g1080
ag1167
asg26
I00
sg27
I00
sg28
I3277863
sg20
S'10032.3590155'
p2651
sba(igraph
Edge
p2652
(dp2653
g7
I1
sg8
I00
sg9
I5
sg10
(lp2654
g1087
ag1167
asg26
I00
sg27
I00
sg28
I3277864
sg20
S'10032.3756723'
p2655
sba(igraph
Edge
p2656
(dp2657
g7
I1
sg8
I00
sg9
I5
sg10
(lp2658
g1094
ag1181
asg26
I00
sg27
I00
sg28
I3277865
sg20
S'10032.3927946'
p2659
sba(igraph
Edge
p2660
(dp2661
g7
I1
sg8
I00
sg9
I5
sg10
(lp2662
g1101
ag1181
asg26
I00
sg27
I00
sg28
I3277866
sg20
S'10032.4094573'
p2663
sba(igraph
Edge
p2664
(dp2665
g7
I1
sg8
I00
sg9
I5
sg10
(lp2666
g1108
ag1195
asg26
I00
sg27
I00
sg28
I3277867
sg20
S'10032.4262341'
p2667
sba(igraph
Edge
p2668
(dp2669
g7
I1
sg8
I00
sg9
I5
sg10
(lp2670
g1115
ag1195
asg26
I00
sg27
I00
sg28
I3277868
sg20
S'10032.4437293'
p2671
sba(igraph
Edge
p2672
(dp2673
g7
I1
sg8
I00
sg9
I5
sg10
(lp2674
g1122
ag1209
asg26
I00
sg27
I00
sg28
I3277869
sg20
S'10032.4613648'
p2675
sba(igraph
Edge
p2676
(dp2677
g7
I1
sg8
I00
sg9
I5
sg10
(lp2678
g1129
ag1209
asg26
I00
sg27
I00
sg28
I3277870
sg20
S'10032.4784924'
p2679
sba(igraph
Edge
p2680
(dp2681
g7
I1
sg8
I00
sg9
I5
sg10
(lp2682
g1143
ag1226
asg26
I00
sg27
I00
sg28
I3277871
sg20
S'10032.6031512'
p2683
sba(igraph
Edge
p2684
(dp2685
g7
I1
sg8
I00
sg9
I5
sg10
(lp2686
g1146
ag1226
asg26
I00
sg27
I00
sg28
I3277872
sg20
S'10032.6205183'
p2687
sba(igraph
Edge
p2688
(dp2689
g7
I1
sg8
I00
sg9
I5
sg10
(lp2690
g1153
ag1240
asg26
I00
sg27
I00
sg28
I3277873
sg20
S'10032.6379529'
p2691
sba(igraph
Edge
p2692
(dp2693
g7
I1
sg8
I00
sg9
I5
sg10
(lp2694
g1160
ag1240
asg26
I00
sg27
I00
sg28
I3277874
sg20
S'10032.6553263'
p2695
sba(igraph
Edge
p2696
(dp2697
g7
I1
sg8
I00
sg9
I5
sg10
(lp2698
g1167
ag1254
asg26
I00
sg27
I00
sg28
I3277875
sg20
S'10032.6728475'
p2699
sba(igraph
Edge
p2700
(dp2701
g7
I1
sg8
I00
sg9
I5
sg10
(lp2702
g1174
ag1254
asg26
I00
sg27
I00
sg28
I3277876
sg20
S'10032.6901768'
p2703
sba(igraph
Edge
p2704
(dp2705
g7
I1
sg8
I00
sg9
I5
sg10
(lp2706
g1181
ag1268
asg26
I00
sg27
I00
sg28
I3277877
sg20
S'10032.7074273'
p2707
sba(igraph
Edge
p2708
(dp2709
g7
I1
sg8
I00
sg9
I5
sg10
(lp2710
g1188
ag1268
asg26
I00
sg27
I00
sg28
I3277878
sg20
S'10032.7248424'
p2711
sba(igraph
Edge
p2712
(dp2713
g7
I1
sg8
I00
sg9
I5
sg10
(lp2714
g1195
ag1282
asg26
I00
sg27
I00
sg28
I3277879
sg20
S'10032.7420826'
p2715
sba(igraph
Edge
p2716
(dp2717
g7
I1
sg8
I00
sg9
I5
sg10
(lp2718
g1202
ag1282
asg26
I00
sg27
I00
sg28
I3277880
sg20
S'10032.759399'
p2719
sba(igraph
Edge
p2720
(dp2721
g7
I1
sg8
I00
sg9
I5
sg10
(lp2722
g1209
ag1296
asg26
I00
sg27
I00
sg28
I3277881
sg20
S'10032.7767395'
p2723
sba(igraph
Edge
p2724
(dp2725
g7
I1
sg8
I00
sg9
I5
sg10
(lp2726
g1216
ag1296
asg26
I00
sg27
I00
sg28
I3277882
sg20
S'10032.7940716'
p2727
sba(igraph
Edge
p2728
(dp2729
g7
I1
sg8
I00
sg9
I5
sg10
(lp2730
g1143
ag1223
asg26
I00
sg27
I00
sg28
I3277883
sg20
S'10032.9014375'
p2731
sba(igraph
Edge
p2732
(dp2733
g7
I1
sg8
I00
sg9
I5
sg10
(lp2734
g1146
ag1233
asg26
I00
sg27
I00
sg28
I3277884
sg20
S'10032.9188604'
p2735
sba(igraph
Edge
p2736
(dp2737
g7
I1
sg8
I00
sg9
I5
sg10
(lp2738
g1153
ag1233
asg26
I00
sg27
I00
sg28
I3277885
sg20
S'10032.9366271'
p2739
sba(igraph
Edge
p2740
(dp2741
g7
I1
sg8
I00
sg9
I5
sg10
(lp2742
g1160
ag1247
asg26
I00
sg27
I00
sg28
I3277886
sg20
S'10032.9543082'
p2743
sba(igraph
Edge
p2744
(dp2745
g7
I1
sg8
I00
sg9
I5
sg10
(lp2746
g1167
ag1247
asg26
I00
sg27
I00
sg28
I3277887
sg20
S'10032.9718671'
p2747
sba(igraph
Edge
p2748
(dp2749
g7
I1
sg8
I00
sg9
I5
sg10
(lp2750
g1174
ag1261
asg26
I00
sg27
I00
sg28
I3277888
sg20
S'10032.9893573'
p2751
sba(igraph
Edge
p2752
(dp2753
g7
I1
sg8
I00
sg9
I5
sg10
(lp2754
g1181
ag1261
asg26
I00
sg27
I00
sg28
I3277889
sg20
S'10033.0069707'
p2755
sba(igraph
Edge
p2756
(dp2757
g7
I1
sg8
I00
sg9
I5
sg10
(lp2758
g1188
ag1275
asg26
I00
sg27
I00
sg28
I3277890
sg20
S'10033.0266232'
p2759
sba(igraph
Edge
p2760
(dp2761
g7
I1
sg8
I00
sg9
I5
sg10
(lp2762
g1195
ag1275
asg26
I00
sg27
I00
sg28
I3277891
sg20
S'10033.0494605'
p2763
sba(igraph
Edge
p2764
(dp2765
g7
I1
sg8
I00
sg9
I5
sg10
(lp2766
g1202
ag1289
asg26
I00
sg27
I00
sg28
I3277892
sg20
S'10033.0694893'
p2767
sba(igraph
Edge
p2768
(dp2769
g7
I1
sg8
I00
sg9
I5
sg10
(lp2770
g1209
ag1289
asg26
I00
sg27
I00
sg28
I3277893
sg20
S'10033.0913999'
p2771
sba(igraph
Edge
p2772
(dp2773
g7
I1
sg8
I00
sg9
I5
sg10
(lp2774
g1296
ag1223
asg26
I00
sg27
I00
sg28
I3277894
sg20
S'10605.8769581'
p2775
sba(igraph
Edge
p2776
(dp2777
g7
I1
sg8
I00
sg9
I5
sg10
(lp2778
g1223
ag1216
asg26
I00
sg27
I00
sg28
I3277895
sg20
S'10608.4299499'
p2779
sba(igraph
Edge
p2780
(dp2781
g7
I1
sg8
I00
sg9
I5
sg10
(lp2782
g1216
ag1143
asg26
I00
sg27
I00
sg28
I3277896
sg20
S'10610.6232879'
p2783
sba(igraph
Edge
p2784
(dp2785
g7
I1
sg8
I00
sg9
I5
sg10
(lp2786
g1143
ag1136
asg26
I00
sg27
I00
sg28
I3277897
sg20
S'10612.6143488'
p2787
sba(igraph
Edge
p2788
(dp2789
g7
I1
sg8
I00
sg9
I5
sg10
(lp2790
g1136
ag1063
asg26
I00
sg27
I00
sg28
I3277898
sg20
S'10614.7708038'
p2791
sba(igraph
Edge
p2792
(dp2793
g7
I1
sg8
I00
sg9
I5
sg10
(lp2794
g1063
ag1056
asg26
I00
sg27
I00
sg28
I3277899
sg20
S'10616.347766'
p2795
sba(igraph
Edge
p2796
(dp2797
g7
I1
sg8
I00
sg9
I5
sg10
(lp2798
g1056
ag983
asg26
I00
sg27
I00
sg28
I3277900
sg20
S'10618.2465489'
p2799
sba(igraph
Edge
p2800
(dp2801
g7
I1
sg8
I00
sg9
I5
sg10
(lp2802
g983
ag976
asg26
I00
sg27
I00
sg28
I3277901
sg20
S'10620.1787546'
p2803
sba(igraph
Edge
p2804
(dp2805
g7
I1
sg8
I00
sg9
I5
sg10
(lp2806
g976
ag903
asg26
I00
sg27
I00
sg28
I3277902
sg20
S'10622.4366873'
p2807
sba(igraph
Edge
p2808
(dp2809
g7
I1
sg8
I00
sg9
I5
sg10
(lp2810
g903
ag896
asg26
I00
sg27
I00
sg28
I3277903
sg20
S'10624.759565'
p2811
sba(igraph
Edge
p2812
(dp2813
g7
I1
sg8
I00
sg9
I5
sg10
(lp2814
g896
ag823
asg26
I00
sg27
I00
sg28
I3277904
sg20
S'10627.4004537'
p2815
sba(igraph
Edge
p2816
(dp2817
g7
I1
sg8
I00
sg9
I5
sg10
(lp2818
g823
ag816
asg26
I00
sg27
I00
sg28
I3277905
sg20
S'10630.0220483'
p2819
sba(igraph
Edge
p2820
(dp2821
g7
I1
sg8
I00
sg9
I5
sg10
(lp2822
g816
ag743
asg26
I00
sg27
I00
sg28
I3277906
sg20
S'10632.2109249'
p2823
sba(igraph
Edge
p2824
(dp2825
g7
I1
sg8
I00
sg9
I5
sg10
(lp2826
g743
ag736
asg26
I00
sg27
I00
sg28
I3277907
sg20
S'10634.8165823'
p2827
sba(igraph
Edge
p2828
(dp2829
g7
I1
sg8
I00
sg9
I5
sg10
(lp2830
g736
ag663
asg26
I00
sg27
I00
sg28
I3277908
sg20
S'10636.9876202'
p2831
sba(igraph
Edge
p2832
(dp2833
g7
I1
sg8
I00
sg9
I5
sg10
(lp2834
g663
ag656
asg26
I00
sg27
I00
sg28
I3277909
sg20
S'10639.1345171'
p2835
sba(igraph
Edge
p2836
(dp2837
g7
I1
sg8
I00
sg9
I5
sg10
(lp2838
g656
ag583
asg26
I00
sg27
I00
sg28
I3277910
sg20
S'10641.7922233'
p2839
sba(igraph
Edge
p2840
(dp2841
g7
I1
sg8
I00
sg9
I5
sg10
(lp2842
g583
ag576
asg26
I00
sg27
I00
sg28
I3277911
sg20
S'10643.5691383'
p2843
sba(igraph
Edge
p2844
(dp2845
g7
I1
sg8
I00
sg9
I5
sg10
(lp2846
g576
ag503
asg26
I00
sg27
I00
sg28
I3277912
sg20
S'10645.8672845'
p2847
sba(igraph
Edge
p2848
(dp2849
g7
I1
sg8
I00
sg9
I5
sg10
(lp2850
g503
ag496
asg26
I00
sg27
I00
sg28
I3277913
sg20
S'10648.1019333'
p2851
sba(igraph
Edge
p2852
(dp2853
g7
I1
sg8
I00
sg9
I5
sg10
(lp2854
g496
ag423
asg26
I00
sg27
I00
sg28
I3277914
sg20
S'10649.9250056'
p2855
sba(igraph
Edge
p2856
(dp2857
g7
I1
sg8
I00
sg9
I5
sg10
(lp2858
g423
ag416
asg26
I00
sg27
I00
sg28
I3277915
sg20
S'10652.0008917'
p2859
sba(igraph
Edge
p2860
(dp2861
g7
I1
sg8
I00
sg9
I5
sg10
(lp2862
g416
ag343
asg26
I00
sg27
I00
sg28
I3277916
sg20
S'10654.0291559'
p2863
sba(igraph
Edge
p2864
(dp2865
g7
I1
sg8
I00
sg9
I5
sg10
(lp2866
g343
ag336
asg26
I00
sg27
I00
sg28
I3277917
sg20
S'10656.4127756'
p2867
sba(igraph
Edge
p2868
(dp2869
g7
I1
sg8
I00
sg9
I5
sg10
(lp2870
g336
ag263
asg26
I00
sg27
I00
sg28
I3277918
sg20
S'10658.2925506'
p2871
sba(igraph
Edge
p2872
(dp2873
g7
I1
sg8
I00
sg9
I5
sg10
(lp2874
g263
ag256
asg26
I00
sg27
I00
sg28
I3277919
sg20
S'10660.0794266'
p2875
sba(igraph
Edge
p2876
(dp2877
g7
I1
sg8
I00
sg9
I5
sg10
(lp2878
g256
ag183
asg26
I00
sg27
I00
sg28
I3277920
sg20
S'10661.8374953'
p2879
sba(igraph
Edge
p2880
(dp2881
g7
I1
sg8
I00
sg9
I5
sg10
(lp2882
g176
ag183
asg26
I00
sg27
I00
sg28
I3277921
sg20
S'10668.0180688'
p2883
sba(igraph
Edge
p2884
(dp2885
g7
I1
sg8
I00
sg9
I5
sg10
(lp2886
g103
ag96
asg26
I00
sg27
I00
sg28
I3277922
sg20
S'10688.8445819'
p2887
sba(igraph
Edge
p2888
(dp2889
g7
I1
sg8
I00
sg9
I5
sg10
(lp2890
g96
ag12
asg26
I00
sg27
I00
sg28
I3277923
sg20
S'10691.2895016'
p2891
sba(igraph
Edge
p2892
(dp2893
g7
I1
sg8
I00
sg9
I5
sg10
(lp2894
g12
ag1296
asg26
I00
sg27
I00
sg28
I3277924
sg20
S'10693.3711983'
p2895
sbasS'vertices'
p2896
(lp2897
g12
ag23
ag33
ag40
ag47
ag54
ag61
ag68
ag75
ag82
ag89
ag96
ag103
ag106
ag113
ag120
ag127
ag134
ag141
ag148
ag155
ag162
ag169
ag176
ag183
ag186
ag193
ag200
ag207
ag214
ag221
ag228
ag235
ag242
ag249
ag256
ag263
ag266
ag273
ag280
ag287
ag294
ag301
ag308
ag315
ag322
ag329
ag336
ag343
ag346
ag353
ag360
ag367
ag374
ag381
ag388
ag395
ag402
ag409
ag416
ag423
ag426
ag433
ag440
ag447
ag454
ag461
ag468
ag475
ag482
ag489
ag496
ag503
ag506
ag513
ag520
ag527
ag534
ag541
ag548
ag555
ag562
ag569
ag576
ag583
ag586
ag593
ag600
ag607
ag614
ag621
ag628
ag635
ag642
ag649
ag656
ag663
ag666
ag673
ag680
ag687
ag694
ag701
ag708
ag715
ag722
ag729
ag736
ag743
ag746
ag753
ag760
ag767
ag774
ag781
ag788
ag795
ag802
ag809
ag816
ag823
ag826
ag833
ag840
ag847
ag854
ag861
ag868
ag875
ag882
ag889
ag896
ag903
ag906
ag913
ag920
ag927
ag934
ag941
ag948
ag955
ag962
ag969
ag976
ag983
ag986
ag993
ag1000
ag1007
ag1014
ag1021
ag1028
ag1035
ag1042
ag1049
ag1056
ag1063
ag1066
ag1073
ag1080
ag1087
ag1094
ag1101
ag1108
ag1115
ag1122
ag1129
ag1136
ag1143
ag1146
ag1153
ag1160
ag1167
ag1174
ag1181
ag1188
ag1195
ag1202
ag1209
ag1216
ag1223
ag1226
ag1233
ag1240
ag1247
ag1254
ag1261
ag1268
ag1275
ag1282
ag1289
ag1296
asS'tags'
p2898
(lp2899
sb.