(igraph
Graph
p0
(dp1
S'labelingConstraints'
p2
I-1
sS'edges'
p3
(lp4
(igraph
Edge
p5
(dp6
S'direction'
p7
I1
sS'selected'
p8
I00
sS'height'
p9
I5
sS'vs'
p10
(lp11
(igraph
Vertex
p12
(dp13
S'xnorm'
p14
F0.4375
sg8
I00
sS'label'
p15
I0
sS'y'
p16
F-310.0
sS'x'
p17
F20.625
sS'circle'
p18
I3402930
sS'id'
p19
S'10025.3280626'
p20
sS'ynorm'
p21
F0.0
sba(igraph
Vertex
p22
(dp23
g14
F0.5
sg8
I00
sg15
S'NULL'
p24
sg16
F-310.0
sg17
F-21.0
sg18
I3402932
sg19
S'10025.3281308'
p25
sg21
F0.0
sbasS'wrap'
p26
I00
sS'curved'
p27
I00
sS'line'
p28
I3402450
sg19
S'10025.7046697'
p29
sba(igraph
Edge
p30
(dp31
g7
I1
sg8
I00
sg9
I5
sg10
(lp32
g22
a(igraph
Vertex
p33
(dp34
g14
F0.5625
sg8
I00
sg15
g24
sg16
F-310.0
sg17
F-62.625
sg18
I3402933
sg19
S'10025.3282068'
p35
sg21
F0.0
sbasg26
I00
sg27
I00
sg28
I3402451
sg19
S'10025.7048751'
p36
sba(igraph
Edge
p37
(dp38
g7
I1
sg8
I00
sg9
I5
sg10
(lp39
g33
a(igraph
Vertex
p40
(dp41
g14
F0.625
sg8
I00
sg15
g24
sg16
F-310.0
sg17
F-104.25
sg18
I3402934
sg19
S'10025.3282928'
p42
sg21
F0.0
sbasg26
I00
sg27
I00
sg28
I3402452
sg19
S'10025.7051019'
p43
sba(igraph
Edge
p44
(dp45
g7
I1
sg8
I00
sg9
I5
sg10
(lp46
g40
a(igraph
Vertex
p47
(dp48
g14
F0.6875
sg8
I00
sg15
g24
sg16
F-310.0
sg17
F-145.875
sg18
I3402935
sg19
S'10025.3283864'
p49
sg21
F0.0
sbasg26
I00
sg27
I00
sg28
I3402453
sg19
S'10025.70535'
p50
sba(igraph
Edge
p51
(dp52
g7
I1
sg8
I00
sg9
I5
sg10
(lp53
g47
a(igraph
Vertex
p54
(dp55
g14
F0.75
sg8
I00
sg15
g24
sg16
F-310.0
sg17
F-187.5
sg18
I3402936
sg19
S'10025.3284906'
p56
sg21
F0.0
sbasg26
I00
sg27
I00
sg28
I3402454
sg19
S'10025.7056201'
p57
sba(igraph
Edge
p58
(dp59
g7
I1
sg8
I00
sg9
I5
sg10
(lp60
g54
a(igraph
Vertex
p61
(dp62
g14
F0.8125
sg8
I00
sg15
g24
sg16
F-310.0
sg17
F-229.125
sg18
I3402937
sg19
S'10025.3286013'
p63
sg21
F0.0
sbasg26
I00
sg27
I00
sg28
I3402455
sg19
S'10025.7059109'
p64
sba(igraph
Edge
p65
(dp66
g7
I1
sg8
I00
sg9
I5
sg10
(lp67
g61
a(igraph
Vertex
p68
(dp69
g14
F0.875
sg8
I00
sg15
g24
sg16
F-310.0
sg17
F-270.75
sg18
I3402938
sg19
S'10025.3287203'
p70
sg21
F0.0
sbasg26
I00
sg27
I00
sg28
I3402456
sg19
S'10025.7062241'
p71
sba(igraph
Edge
p72
(dp73
g7
I1
sg8
I00
sg9
I5
sg10
(lp74
g68
a(igraph
Vertex
p75
(dp76
g14
F0.9375
sg8
I00
sg15
g24
sg16
F-310.0
sg17
F-312.375
sg18
I3402939
sg19
S'10025.3288488'
p77
sg21
F0.0
sbasg26
I00
sg27
I00
sg28
I3402457
sg19
S'10025.7065571'
p78
sba(igraph
Edge
p79
(dp80
g7
I1
sg8
I00
sg9
I5
sg10
(lp81
g75
a(igraph
Vertex
p82
(dp83
g14
F1.0
sg8
I00
sg15
g24
sg16
F-310.0
sg17
F-354.0
sg18
I3402940
sg19
S'10025.328984'
p84
sg21
F0.0
sbasg26
I00
sg27
I00
sg28
I3402458
sg19
S'10025.7069097'
p85
sba(igraph
Edge
p86
(dp87
g7
I1
sg8
I00
sg9
I5
sg10
(lp88
(igraph
Vertex
p89
(dp90
g14
F0.4375
sg8
I00
sg15
g24
sg16
F-271.0
sg17
F20.625
sg18
I3402941
sg19
S'10025.3303794'
p91
sg21
F0.066666666666666652
sba(igraph
Vertex
p92
(dp93
g14
F0.5
sg8
I00
sg15
g24
sg16
F-271.0
sg17
F-21.0
sg18
I3402942
sg19
S'10025.3305906'
p94
sg21
F0.066666666666666652
sbasg26
I00
sg27
I00
sg28
I3402459
sg19
S'10025.7112706'
p95
sba(igraph
Edge
p96
(dp97
g7
I1
sg8
I00
sg9
I5
sg10
(lp98
g92
a(igraph
Vertex
p99
(dp100
g14
F0.5625
sg8
I00
sg15
g24
sg16
F-271.0
sg17
F-62.625
sg18
I3402943
sg19
S'10025.3308113'
p101
sg21
F0.066666666666666652
sbasg26
I00
sg27
I00
sg28
I3402460
sg19
S'10025.7118502'
p102
sba(igraph
Edge
p103
(dp104
g7
I1
sg8
I00
sg9
I5
sg10
(lp105
g99
a(igraph
Vertex
p106
(dp107
g14
F0.625
sg8
I00
sg15
g24
sg16
F-271.0
sg17
F-104.25
sg18
I3402944
sg19
S'10025.3310365'
p108
sg21
F0.066666666666666652
sbasg26
I00
sg27
I00
sg28
I3402461
sg19
S'10025.7124411'
p109
sba(igraph
Edge
p110
(dp111
g7
I1
sg8
I00
sg9
I5
sg10
(lp112
g106
a(igraph
Vertex
p113
(dp114
g14
F0.6875
sg8
I00
sg15
g24
sg16
F-271.0
sg17
F-145.875
sg18
I3402945
sg19
S'10025.3312751'
p115
sg21
F0.066666666666666652
sbasg26
I00
sg27
I00
sg28
I3402462
sg19
S'10025.7130546'
p116
sba(igraph
Edge
p117
(dp118
g7
I1
sg8
I00
sg9
I5
sg10
(lp119
g113
a(igraph
Vertex
p120
(dp121
g14
F0.75
sg8
I00
sg15
g24
sg16
F-271.0
sg17
F-187.5
sg18
I3402946
sg19
S'10025.3315195'
p122
sg21
F0.066666666666666652
sbasg26
I00
sg27
I00
sg28
I3402463
sg19
S'10025.7136913'
p123
sba(igraph
Edge
p124
(dp125
g7
I1
sg8
I00
sg9
I5
sg10
(lp126
g120
a(igraph
Vertex
p127
(dp128
g14
F0.8125
sg8
I00
sg15
g24
sg16
F-271.0
sg17
F-229.125
sg18
I3402947
sg19
S'10025.3317746'
p129
sg21
F0.066666666666666652
sbasg26
I00
sg27
I00
sg28
I3402464
sg19
S'10025.714343'
p130
sba(igraph
Edge
p131
(dp132
g7
I1
sg8
I00
sg9
I5
sg10
(lp133
g127
a(igraph
Vertex
p134
(dp135
g14
F0.875
sg8
I00
sg15
g24
sg16
F-271.0
sg17
F-270.75
sg18
I3402948
sg19
S'10025.332038'
p136
sg21
F0.066666666666666652
sbasg26
I00
sg27
I00
sg28
I3402465
sg19
S'10025.7150196'
p137
sba(igraph
Edge
p138
(dp139
g7
I1
sg8
I00
sg9
I5
sg10
(lp140
g134
a(igraph
Vertex
p141
(dp142
g14
F0.9375
sg8
I00
sg15
g24
sg16
F-271.0
sg17
F-312.375
sg18
I3402949
sg19
S'10025.3323098'
p143
sg21
F0.066666666666666652
sbasg26
I00
sg27
I00
sg28
I3402466
sg19
S'10025.7157203'
p144
sba(igraph
Edge
p145
(dp146
g7
I1
sg8
I00
sg9
I5
sg10
(lp147
g141
a(igraph
Vertex
p148
(dp149
g14
F1.0
sg8
I00
sg15
g24
sg16
F-271.0
sg17
F-354.0
sg18
I3402950
sg19
S'10025.3325903'
p150
sg21
F0.066666666666666652
sbasg26
I00
sg27
I00
sg28
I3402467
sg19
S'10025.7164405'
p151
sba(igraph
Edge
p152
(dp153
g7
I1
sg8
I00
sg9
I5
sg10
(lp154
(igraph
Vertex
p155
(dp156
g14
F0.4375
sg8
I00
sg15
g24
sg16
F-232.0
sg17
F20.625
sg18
I3402951
sg19
S'10025.3351457'
p157
sg21
F0.1333333333333333
sba(igraph
Vertex
p158
(dp159
g14
F0.5
sg8
I00
sg15
I0
sg16
F-232.0
sg17
F-21.0
sg18
I3402952
sg19
S'10025.3355005'
p160
sg21
F0.1333333333333333
sbasg26
I00
sg27
I00
sg28
I3402468
sg19
S'10025.7239007'
p161
sba(igraph
Edge
p162
(dp163
g7
I1
sg8
I00
sg9
I5
sg10
(lp164
g158
a(igraph
Vertex
p165
(dp166
g14
F0.5625
sg8
I00
sg15
g24
sg16
F-232.0
sg17
F-62.625
sg18
I3402954
sg19
S'10025.3358687'
p167
sg21
F0.1333333333333333
sbasg26
I00
sg27
I00
sg28
I3402469
sg19
S'10025.7249064'
p168
sba(igraph
Edge
p169
(dp170
g7
I1
sg8
I00
sg9
I5
sg10
(lp171
g165
a(igraph
Vertex
p172
(dp173
g14
F0.625
sg8
I00
sg15
g24
sg16
F-232.0
sg17
F-104.25
sg18
I3402955
sg19
S'10025.3362469'
p174
sg21
F0.1333333333333333
sbasg26
I00
sg27
I00
sg28
I3402470
sg19
S'10025.7258646'
p175
sba(igraph
Edge
p176
(dp177
g7
I1
sg8
I00
sg9
I5
sg10
(lp178
g172
a(igraph
Vertex
p179
(dp180
g14
F0.6875
sg8
I00
sg15
g24
sg16
F-232.0
sg17
F-145.875
sg18
I3402956
sg19
S'10025.3366364'
p181
sg21
F0.1333333333333333
sbasg26
I00
sg27
I00
sg28
I3402471
sg19
S'10025.7268435'
p182
sba(igraph
Edge
p183
(dp184
g7
I1
sg8
I00
sg9
I5
sg10
(lp185
g179
a(igraph
Vertex
p186
(dp187
g14
F0.75
sg8
I00
sg15
g24
sg16
F-232.0
sg17
F-187.5
sg18
I3402957
sg19
S'10025.3370291'
p188
sg21
F0.1333333333333333
sbasg26
I00
sg27
I00
sg28
I3402472
sg19
S'10025.7278411'
p189
sba(igraph
Edge
p190
(dp191
g7
I1
sg8
I00
sg9
I5
sg10
(lp192
g186
a(igraph
Vertex
p193
(dp194
g14
F0.8125
sg8
I00
sg15
g24
sg16
F-232.0
sg17
F-229.125
sg18
I3402958
sg19
S'10025.3374317'
p195
sg21
F0.1333333333333333
sbasg26
I00
sg27
I00
sg28
I3402473
sg19
S'10025.7288594'
p196
sba(igraph
Edge
p197
(dp198
g7
I1
sg8
I00
sg9
I5
sg10
(lp199
g193
a(igraph
Vertex
p200
(dp201
g14
F0.875
sg8
I00
sg15
g24
sg16
F-232.0
sg17
F-270.75
sg18
I3402959
sg19
S'10025.3378452'
p202
sg21
F0.1333333333333333
sbasg26
I00
sg27
I00
sg28
I3402474
sg19
S'10025.7299025'
p203
sba(igraph
Edge
p204
(dp205
g7
I1
sg8
I00
sg9
I5
sg10
(lp206
g200
a(igraph
Vertex
p207
(dp208
g14
F0.9375
sg8
I00
sg15
g24
sg16
F-232.0
sg17
F-312.375
sg18
I3402960
sg19
S'10025.3382692'
p209
sg21
F0.1333333333333333
sbasg26
I00
sg27
I00
sg28
I3402475
sg19
S'10025.7309652'
p210
sba(igraph
Edge
p211
(dp212
g7
I1
sg8
I00
sg9
I5
sg10
(lp213
g207
a(igraph
Vertex
p214
(dp215
g14
F1.0
sg8
I00
sg15
g24
sg16
F-232.0
sg17
F-354.0
sg18
I3402961
sg19
S'10025.3386967'
p216
sg21
F0.1333333333333333
sbasg26
I00
sg27
I00
sg28
I3402476
sg19
S'10025.7320497'
p217
sba(igraph
Edge
p218
(dp219
g7
I1
sg8
I00
sg9
I5
sg10
(lp220
(igraph
Vertex
p221
(dp222
g14
F0.4375
sg8
I00
sg15
g24
sg16
F-193.0
sg17
F20.625
sg18
I3402962
sg19
S'10025.3424773'
p223
sg21
F0.20000000000000001
sba(igraph
Vertex
p224
(dp225
g14
F0.5
sg8
I00
sg15
g24
sg16
F-193.0
sg17
F-21.0
sg18
I3402963
sg19
S'10025.3429877'
p226
sg21
F0.20000000000000001
sbasg26
I00
sg27
I00
sg28
I3402477
sg19
S'10025.7429687'
p227
sba(igraph
Edge
p228
(dp229
g7
I1
sg8
I00
sg9
I5
sg10
(lp230
g224
a(igraph
Vertex
p231
(dp232
g14
F0.5625
sg8
I00
sg15
g24
sg16
F-193.0
sg17
F-62.625
sg18
I3402964
sg19
S'10025.3435043'
p233
sg21
F0.20000000000000001
sbasg26
I00
sg27
I00
sg28
I3402478
sg19
S'10025.7444055'
p234
sba(igraph
Edge
p235
(dp236
g7
I1
sg8
I00
sg9
I5
sg10
(lp237
g231
a(igraph
Vertex
p238
(dp239
g14
F0.625
sg8
I00
sg15
I0
sg16
F-193.0
sg17
F-104.25
sg18
I3402965
sg19
S'10025.3440281'
p240
sg21
F0.20000000000000001
sbasg26
I00
sg27
I00
sg28
I3402479
sg19
S'10025.7457772'
p241
sba(igraph
Edge
p242
(dp243
g7
I1
sg8
I00
sg9
I5
sg10
(lp244
g238
a(igraph
Vertex
p245
(dp246
g14
F0.6875
sg8
I00
sg15
g24
sg16
F-193.0
sg17
F-145.875
sg18
I3402967
sg19
S'10025.3445611'
p247
sg21
F0.20000000000000001
sbasg26
I00
sg27
I00
sg28
I3402480
sg19
S'10025.747124'
p248
sba(igraph
Edge
p249
(dp250
g7
I1
sg8
I00
sg9
I5
sg10
(lp251
g245
a(igraph
Vertex
p252
(dp253
g14
F0.75
sg8
I00
sg15
g24
sg16
F-193.0
sg17
F-187.5
sg18
I3402968
sg19
S'10025.3451056'
p254
sg21
F0.20000000000000001
sbasg26
I00
sg27
I00
sg28
I3402481
sg19
S'10025.7485636'
p255
sba(igraph
Edge
p256
(dp257
g7
I1
sg8
I00
sg9
I5
sg10
(lp258
g252
a(igraph
Vertex
p259
(dp260
g14
F0.8125
sg8
I00
sg15
g24
sg16
F-193.0
sg17
F-229.125
sg18
I3402969
sg19
S'10025.3460691'
p261
sg21
F0.20000000000000001
sbasg26
I00
sg27
I00
sg28
I3402482
sg19
S'10025.7499551'
p262
sba(igraph
Edge
p263
(dp264
g7
I1
sg8
I00
sg9
I5
sg10
(lp265
g259
a(igraph
Vertex
p266
(dp267
g14
F0.875
sg8
I00
sg15
g24
sg16
F-193.0
sg17
F-270.75
sg18
I3402970
sg19
S'10025.3466368'
p268
sg21
F0.20000000000000001
sbasg26
I00
sg27
I00
sg28
I3402483
sg19
S'10025.7513681'
p269
sba(igraph
Edge
p270
(dp271
g7
I1
sg8
I00
sg9
I5
sg10
(lp272
g266
a(igraph
Vertex
p273
(dp274
g14
F0.9375
sg8
I00
sg15
g24
sg16
F-193.0
sg17
F-312.375
sg18
I3402971
sg19
S'10025.3472087'
p275
sg21
F0.20000000000000001
sbasg26
I00
sg27
I00
sg28
I3402484
sg19
S'10025.7528035'
p276
sba(igraph
Edge
p277
(dp278
g7
I1
sg8
I00
sg9
I5
sg10
(lp279
g273
a(igraph
Vertex
p280
(dp281
g14
F1.0
sg8
I00
sg15
g24
sg16
F-193.0
sg17
F-354.0
sg18
I3402972
sg19
S'10025.3477895'
p282
sg21
F0.20000000000000001
sbasg26
I00
sg27
I00
sg28
I3402485
sg19
S'10025.7542635'
p283
sba(igraph
Edge
p284
(dp285
g7
I1
sg8
I00
sg9
I5
sg10
(lp286
(igraph
Vertex
p287
(dp288
g14
F0.4375
sg8
I00
sg15
g24
sg16
F-154.0
sg17
F20.625
sg18
I3402973
sg19
S'10025.3527297'
p289
sg21
F0.26666666666666666
sba(igraph
Vertex
p290
(dp291
g14
F0.5
sg8
I00
sg15
g24
sg16
F-154.0
sg17
F-21.0
sg18
I3402974
sg19
S'10025.3533865'
p292
sg21
F0.26666666666666666
sbasg26
I00
sg27
I00
sg28
I3402486
sg19
S'10025.7685049'
p293
sba(igraph
Edge
p294
(dp295
g7
I1
sg8
I00
sg9
I5
sg10
(lp296
g290
a(igraph
Vertex
p297
(dp298
g14
F0.5625
sg8
I00
sg15
I0
sg16
F-154.0
sg17
F-62.625
sg18
I3402975
sg19
S'10025.3540548'
p299
sg21
F0.26666666666666666
sbasg26
I00
sg27
I00
sg28
I3402487
sg19
S'10025.7701568'
p300
sba(igraph
Edge
p301
(dp302
g7
I1
sg8
I00
sg9
I5
sg10
(lp303
g297
a(igraph
Vertex
p304
(dp305
g14
F0.625
sg8
I00
sg15
g24
sg16
F-154.0
sg17
F-104.25
sg18
I3402977
sg19
S'10025.3547191'
p306
sg21
F0.26666666666666666
sbasg26
I00
sg27
I00
sg28
I3402488
sg19
S'10025.7718319'
p307
sba(igraph
Edge
p308
(dp309
g7
I1
sg8
I00
sg9
I5
sg10
(lp310
g304
a(igraph
Vertex
p311
(dp312
g14
F0.6875
sg8
I00
sg15
g24
sg16
F-154.0
sg17
F-145.875
sg18
I3402978
sg19
S'10025.3555438'
p313
sg21
F0.26666666666666666
sbasg26
I00
sg27
I00
sg28
I3402489
sg19
S'10025.7735304'
p314
sba(igraph
Edge
p315
(dp316
g7
I1
sg8
I00
sg9
I5
sg10
(lp317
g311
a(igraph
Vertex
p318
(dp319
g14
F0.75
sg8
I00
sg15
g24
sg16
F-154.0
sg17
F-187.5
sg18
I3402979
sg19
S'10025.356806'
p320
sg21
F0.26666666666666666
sbasg26
I00
sg27
I00
sg28
I3402490
sg19
S'10025.7752443'
p321
sba(igraph
Edge
p322
(dp323
g7
I1
sg8
I00
sg9
I5
sg10
(lp324
g318
a(igraph
Vertex
p325
(dp326
g14
F0.8125
sg8
I00
sg15
g24
sg16
F-154.0
sg17
F-229.125
sg18
I3402980
sg19
S'10025.3576787'
p327
sg21
F0.26666666666666666
sbasg26
I00
sg27
I00
sg28
I3402491
sg19
S'10025.7769837'
p328
sba(igraph
Edge
p329
(dp330
g7
I1
sg8
I00
sg9
I5
sg10
(lp331
g325
a(igraph
Vertex
p332
(dp333
g14
F0.875
sg8
I00
sg15
g24
sg16
F-154.0
sg17
F-270.75
sg18
I3402981
sg19
S'10025.3585618'
p334
sg21
F0.26666666666666666
sbasg26
I00
sg27
I00
sg28
I3402492
sg19
S'10025.7788102'
p335
sba(igraph
Edge
p336
(dp337
g7
I1
sg8
I00
sg9
I5
sg10
(lp338
g332
a(igraph
Vertex
p339
(dp340
g14
F0.9375
sg8
I00
sg15
g24
sg16
F-154.0
sg17
F-312.375
sg18
I3402982
sg19
S'10025.3594803'
p341
sg21
F0.26666666666666666
sbasg26
I00
sg27
I00
sg28
I3402493
sg19
S'10025.7805998'
p342
sba(igraph
Edge
p343
(dp344
g7
I1
sg8
I00
sg9
I5
sg10
(lp345
g339
a(igraph
Vertex
p346
(dp347
g14
F1.0
sg8
I00
sg15
g24
sg16
F-154.0
sg17
F-354.0
sg18
I3402983
sg19
S'10025.360212'
p348
sg21
F0.26666666666666666
sbasg26
I00
sg27
I00
sg28
I3402494
sg19
S'10025.782414'
p349
sba(igraph
Edge
p350
(dp351
g7
I1
sg8
I00
sg9
I5
sg10
(lp352
(igraph
Vertex
p353
(dp354
g14
F0.4375
sg8
I00
sg15
g24
sg16
F-115.0
sg17
F20.625
sg18
I3402984
sg19
S'10025.3699205'
p355
sg21
F0.33333333333333331
sba(igraph
Vertex
p356
(dp357
g14
F0.5
sg8
I00
sg15
g24
sg16
F-115.0
sg17
F-21.0
sg18
I3402985
sg19
S'10025.3710684'
p358
sg21
F0.33333333333333331
sbasg26
I00
sg27
I00
sg28
I3402495
sg19
S'10025.7999497'
p359
sba(igraph
Edge
p360
(dp361
g7
I1
sg8
I00
sg9
I5
sg10
(lp362
g356
a(igraph
Vertex
p363
(dp364
g14
F0.5625
sg8
I00
sg15
g24
sg16
F-115.0
sg17
F-62.625
sg18
I3402986
sg19
S'10025.3720671'
p365
sg21
F0.33333333333333331
sbasg26
I00
sg27
I00
sg28
I3402496
sg19
S'10025.801991'
p366
sba(igraph
Edge
p367
(dp368
g7
I1
sg8
I00
sg9
I5
sg10
(lp369
g363
a(igraph
Vertex
p370
(dp371
g14
F0.625
sg8
I00
sg15
g24
sg16
F-115.0
sg17
F-104.25
sg18
I3402987
sg19
S'10025.3728966'
p372
sg21
F0.33333333333333331
sbasg26
I00
sg27
I00
sg28
I3402497
sg19
S'10025.804053'
p373
sba(igraph
Edge
p374
(dp375
g7
I1
sg8
I00
sg9
I5
sg10
(lp376
g370
a(igraph
Vertex
p377
(dp378
g14
F0.6875
sg8
I00
sg15
g24
sg16
F-115.0
sg17
F-145.875
sg18
I3402988
sg19
S'10025.373731'
p379
sg21
F0.33333333333333331
sbasg26
I00
sg27
I00
sg28
I3402498
sg19
S'10025.8061217'
p380
sba(igraph
Edge
p381
(dp382
g7
I1
sg8
I00
sg9
I5
sg10
(lp383
g377
a(igraph
Vertex
p384
(dp385
g14
F0.75
sg8
I00
sg15
g24
sg16
F-115.0
sg17
F-187.5
sg18
I3402989
sg19
S'10025.3747823'
p386
sg21
F0.33333333333333331
sbasg26
I00
sg27
I00
sg28
I3402499
sg19
S'10025.8081974'
p387
sba(igraph
Edge
p388
(dp389
g7
I1
sg8
I00
sg9
I5
sg10
(lp390
g384
a(igraph
Vertex
p391
(dp392
g14
F0.8125
sg8
I00
sg15
g24
sg16
F-115.0
sg17
F-229.125
sg18
I3402990
sg19
S'10025.3756709'
p393
sg21
F0.33333333333333331
sbasg26
I00
sg27
I00
sg28
I3402500
sg19
S'10025.8103617'
p394
sba(igraph
Edge
p395
(dp396
g7
I1
sg8
I00
sg9
I5
sg10
(lp397
g391
a(igraph
Vertex
p398
(dp399
g14
F0.875
sg8
I00
sg15
g24
sg16
F-115.0
sg17
F-270.75
sg18
I3402991
sg19
S'10025.3765909'
p400
sg21
F0.33333333333333331
sbasg26
I00
sg27
I00
sg28
I3402501
sg19
S'10025.8124988'
p401
sba(igraph
Edge
p402
(dp403
g7
I1
sg8
I00
sg9
I5
sg10
(lp404
g398
a(igraph
Vertex
p405
(dp406
g14
F0.9375
sg8
I00
sg15
g24
sg16
F-115.0
sg17
F-312.375
sg18
I3402992
sg19
S'10025.3775198'
p407
sg21
F0.33333333333333331
sbasg26
I00
sg27
I00
sg28
I3402502
sg19
S'10025.8147441'
p408
sba(igraph
Edge
p409
(dp410
g7
I1
sg8
I00
sg9
I5
sg10
(lp411
g405
a(igraph
Vertex
p412
(dp413
g14
F1.0
sg8
I00
sg15
g24
sg16
F-115.0
sg17
F-354.0
sg18
I3402993
sg19
S'10025.3785445'
p414
sg21
F0.33333333333333331
sbasg26
I00
sg27
I00
sg28
I3402503
sg19
S'10025.8169865'
p415
sba(igraph
Edge
p416
(dp417
g7
I1
sg8
I00
sg9
I5
sg10
(lp418
(igraph
Vertex
p419
(dp420
g14
F0.4375
sg8
I00
sg15
g24
sg16
F-76.0
sg17
F20.625
sg18
I3402994
sg19
S'10025.3863745'
p421
sg21
F0.40000000000000002
sba(igraph
Vertex
p422
(dp423
g14
F0.5
sg8
I00
sg15
g24
sg16
F-76.0
sg17
F-21.0
sg18
I3402995
sg19
S'10025.3873417'
p424
sg21
F0.40000000000000002
sbasg26
I00
sg27
I00
sg28
I3402504
sg19
S'10025.8383417'
p425
sba(igraph
Edge
p426
(dp427
g7
I1
sg8
I00
sg9
I5
sg10
(lp428
g422
a(igraph
Vertex
p429
(dp430
g14
F0.5625
sg8
I00
sg15
g24
sg16
F-76.0
sg17
F-62.625
sg18
I3402996
sg19
S'10025.3883133'
p431
sg21
F0.40000000000000002
sbasg26
I00
sg27
I00
sg28
I3402505
sg19
S'10025.840765'
p432
sba(igraph
Edge
p433
(dp434
g7
I1
sg8
I00
sg9
I5
sg10
(lp435
g429
a(igraph
Vertex
p436
(dp437
g14
F0.625
sg8
I00
sg15
I0
sg16
F-76.0
sg17
F-104.25
sg18
I3402997
sg19
S'10025.3895177'
p438
sg21
F0.40000000000000002
sbasg26
I00
sg27
I00
sg28
I3402506
sg19
S'10025.8432541'
p439
sba(igraph
Edge
p440
(dp441
g7
I1
sg8
I00
sg9
I5
sg10
(lp442
g436
a(igraph
Vertex
p443
(dp444
g14
F0.6875
sg8
I00
sg15
g24
sg16
F-76.0
sg17
F-145.875
sg18
I3402999
sg19
S'10025.390679'
p445
sg21
F0.40000000000000002
sbasg26
I00
sg27
I00
sg28
I3402507
sg19
S'10025.845729'
p446
sba(igraph
Edge
p447
(dp448
g7
I1
sg8
I00
sg9
I5
sg10
(lp449
g443
a(igraph
Vertex
p450
(dp451
g14
F0.75
sg8
I00
sg15
g24
sg16
F-76.0
sg17
F-187.5
sg18
I3403000
sg19
S'10025.3917671'
p452
sg21
F0.40000000000000002
sbasg26
I00
sg27
I00
sg28
I3402508
sg19
S'10025.8482254'
p453
sba(igraph
Edge
p454
(dp455
g7
I1
sg8
I00
sg9
I5
sg10
(lp456
g450
a(igraph
Vertex
p457
(dp458
g14
F0.8125
sg8
I00
sg15
g24
sg16
F-76.0
sg17
F-229.125
sg18
I3403001
sg19
S'10025.3929033'
p459
sg21
F0.40000000000000002
sbasg26
I00
sg27
I00
sg28
I3402509
sg19
S'10025.850743'
p460
sba(igraph
Edge
p461
(dp462
g7
I1
sg8
I00
sg9
I5
sg10
(lp463
g457
a(igraph
Vertex
p464
(dp465
g14
F0.875
sg8
I00
sg15
g24
sg16
F-76.0
sg17
F-270.75
sg18
I3403002
sg19
S'10025.3940302'
p466
sg21
F0.40000000000000002
sbasg26
I00
sg27
I00
sg28
I3402510
sg19
S'10025.8532677'
p467
sba(igraph
Edge
p468
(dp469
g7
I1
sg8
I00
sg9
I5
sg10
(lp470
g464
a(igraph
Vertex
p471
(dp472
g14
F0.9375
sg8
I00
sg15
g24
sg16
F-76.0
sg17
F-312.375
sg18
I3403003
sg19
S'10025.3951128'
p473
sg21
F0.40000000000000002
sbasg26
I00
sg27
I00
sg28
I3402511
sg19
S'10025.8557842'
p474
sba(igraph
Edge
p475
(dp476
g7
I1
sg8
I00
sg9
I5
sg10
(lp477
g471
a(igraph
Vertex
p478
(dp479
g14
F1.0
sg8
I00
sg15
g24
sg16
F-76.0
sg17
F-354.0
sg18
I3403004
sg19
S'10025.3962534'
p480
sg21
F0.40000000000000002
sbasg26
I00
sg27
I00
sg28
I3402512
sg19
S'10025.8583348'
p481
sba(igraph
Edge
p482
(dp483
g7
I1
sg8
I00
sg9
I5
sg10
(lp484
(igraph
Vertex
p485
(dp486
g14
F0.4375
sg8
I00
sg15
g24
sg16
F-37.0
sg17
F20.625
sg18
I3403005
sg19
S'10025.4064441'
p487
sg21
F0.46666666666666667
sba(igraph
Vertex
p488
(dp489
g14
F0.5
sg8
I00
sg15
g24
sg16
F-37.0
sg17
F-21.0
sg18
I3403006
sg19
S'10025.4076256'
p490
sg21
F0.46666666666666667
sbasg26
I00
sg27
I00
sg28
I3402513
sg19
S'10025.8822783'
p491
sba(igraph
Edge
p492
(dp493
g7
I1
sg8
I00
sg9
I5
sg10
(lp494
g488
a(igraph
Vertex
p495
(dp496
g14
F0.5625
sg8
I00
sg15
g24
sg16
F-37.0
sg17
F-62.625
sg18
I3403007
sg19
S'10025.408876'
p497
sg21
F0.46666666666666667
sbasg26
I00
sg27
I00
sg28
I3402514
sg19
S'10025.8850144'
p498
sba(igraph
Edge
p499
(dp500
g7
I1
sg8
I00
sg9
I5
sg10
(lp501
g495
a(igraph
Vertex
p502
(dp503
g14
F0.625
sg8
I00
sg15
g24
sg16
F-37.0
sg17
F-104.25
sg18
I3403008
sg19
S'10025.410144'
p504
sg21
F0.46666666666666667
sbasg26
I00
sg27
I00
sg28
I3402515
sg19
S'10025.8878422'
p505
sba(igraph
Edge
p506
(dp507
g7
I1
sg8
I00
sg9
I5
sg10
(lp508
g502
a(igraph
Vertex
p509
(dp510
g14
F0.6875
sg8
I00
sg15
g24
sg16
F-37.0
sg17
F-145.875
sg18
I3403009
sg19
S'10025.4114397'
p511
sg21
F0.46666666666666667
sbasg26
I00
sg27
I00
sg28
I3402516
sg19
S'10025.890683'
p512
sba(igraph
Edge
p513
(dp514
g7
I1
sg8
I00
sg9
I5
sg10
(lp515
g509
a(igraph
Vertex
p516
(dp517
g14
F0.75
sg8
I00
sg15
g24
sg16
F-37.0
sg17
F-187.5
sg18
I3403010
sg19
S'10025.4126611'
p518
sg21
F0.46666666666666667
sbasg26
I00
sg27
I00
sg28
I3402517
sg19
S'10025.8934795'
p519
sba(igraph
Edge
p520
(dp521
g7
I1
sg8
I00
sg9
I5
sg10
(lp522
g516
a(igraph
Vertex
p523
(dp524
g14
F0.8125
sg8
I00
sg15
g24
sg16
F-37.0
sg17
F-229.125
sg18
I3403011
sg19
S'10025.4139442'
p525
sg21
F0.46666666666666667
sbasg26
I00
sg27
I00
sg28
I3402518
sg19
S'10025.8963075'
p526
sba(igraph
Edge
p527
(dp528
g7
I1
sg8
I00
sg9
I5
sg10
(lp529
g523
a(igraph
Vertex
p530
(dp531
g14
F0.875
sg8
I00
sg15
g24
sg16
F-37.0
sg17
F-270.75
sg18
I3403012
sg19
S'10025.4152405'
p532
sg21
F0.46666666666666667
sbasg26
I00
sg27
I00
sg28
I3402519
sg19
S'10025.8991562'
p533
sba(igraph
Edge
p534
(dp535
g7
I1
sg8
I00
sg9
I5
sg10
(lp536
g530
a(igraph
Vertex
p537
(dp538
g14
F0.9375
sg8
I00
sg15
g24
sg16
F-37.0
sg17
F-312.375
sg18
I3403013
sg19
S'10025.4165641'
p539
sg21
F0.46666666666666667
sbasg26
I00
sg27
I00
sg28
I3402520
sg19
S'10025.9020046'
p540
sba(igraph
Edge
p541
(dp542
g7
I1
sg8
I00
sg9
I5
sg10
(lp543
g537
a(igraph
Vertex
p544
(dp545
g14
F1.0
sg8
I00
sg15
g24
sg16
F-37.0
sg17
F-354.0
sg18
I3403014
sg19
S'10025.417826'
p546
sg21
F0.46666666666666667
sbasg26
I00
sg27
I00
sg28
I3402521
sg19
S'10025.9048896'
p547
sba(igraph
Edge
p548
(dp549
g7
I1
sg8
I00
sg9
I5
sg10
(lp550
(igraph
Vertex
p551
(dp552
g14
F0.4375
sg8
I00
sg15
g24
sg16
F2.0
sg17
F20.625
sg18
I3403015
sg19
S'10025.4290805'
p553
sg21
F0.53333333333333333
sba(igraph
Vertex
p554
(dp555
g14
F0.5
sg8
I00
sg15
g24
sg16
F2.0
sg17
F-21.0
sg18
I3403016
sg19
S'10025.4304176'
p556
sg21
F0.53333333333333333
sbasg26
I00
sg27
I00
sg28
I3402522
sg19
S'10025.9347199'
p557
sba(igraph
Edge
p558
(dp559
g7
I1
sg8
I00
sg9
I5
sg10
(lp560
g554
a(igraph
Vertex
p561
(dp562
g14
F0.5625
sg8
I00
sg15
g24
sg16
F2.0
sg17
F-62.625
sg18
I3403017
sg19
S'10025.4317641'
p563
sg21
F0.53333333333333333
sbasg26
I00
sg27
I00
sg28
I3402523
sg19
S'10025.9379927'
p564
sba(igraph
Edge
p565
(dp566
g7
I1
sg8
I00
sg9
I5
sg10
(lp567
g561
a(igraph
Vertex
p568
(dp569
g14
F0.625
sg8
I00
sg15
g24
sg16
F2.0
sg17
F-104.25
sg18
I3403018
sg19
S'10025.433128'
p570
sg21
F0.53333333333333333
sbasg26
I00
sg27
I00
sg28
I3402524
sg19
S'10025.9413439'
p571
sba(igraph
Edge
p572
(dp573
g7
I1
sg8
I00
sg9
I5
sg10
(lp574
g568
a(igraph
Vertex
p575
(dp576
g14
F0.6875
sg8
I00
sg15
I0
sg16
F2.0
sg17
F-145.875
sg18
I3403019
sg19
S'10025.4345784'
p577
sg21
F0.53333333333333333
sbasg26
I00
sg27
I00
sg28
I3402525
sg19
S'10025.9446818'
p578
sba(igraph
Edge
p579
(dp580
g7
I1
sg8
I00
sg9
I5
sg10
(lp581
g575
a(igraph
Vertex
p582
(dp583
g14
F0.75
sg8
I00
sg15
g24
sg16
F2.0
sg17
F-187.5
sg18
I3403021
sg19
S'10025.4359711'
p584
sg21
F0.53333333333333333
sbasg26
I00
sg27
I00
sg28
I3402526
sg19
S'10025.9480068'
p585
sba(igraph
Edge
p586
(dp587
g7
I1
sg8
I00
sg9
I5
sg10
(lp588
g582
a(igraph
Vertex
p589
(dp590
g14
F0.8125
sg8
I00
sg15
g24
sg16
F2.0
sg17
F-229.125
sg18
I3403022
sg19
S'10025.4373584'
p591
sg21
F0.53333333333333333
sbasg26
I00
sg27
I00
sg28
I3402527
sg19
S'10025.9514092'
p592
sba(igraph
Edge
p593
(dp594
g7
I1
sg8
I00
sg9
I5
sg10
(lp595
g589
a(igraph
Vertex
p596
(dp597
g14
F0.875
sg8
I00
sg15
g24
sg16
F2.0
sg17
F-270.75
sg18
I3403023
sg19
S'10025.4398911'
p598
sg21
F0.53333333333333333
sbasg26
I00
sg27
I00
sg28
I3402528
sg19
S'10025.9547423'
p599
sba(igraph
Edge
p600
(dp601
g7
I1
sg8
I00
sg9
I5
sg10
(lp602
g596
a(igraph
Vertex
p603
(dp604
g14
F0.9375
sg8
I00
sg15
g24
sg16
F2.0
sg17
F-312.375
sg18
I3403024
sg19
S'10025.4413279'
p605
sg21
F0.53333333333333333
sbasg26
I00
sg27
I00
sg28
I3402529
sg19
S'10025.9580584'
p606
sba(igraph
Edge
p607
(dp608
g7
I1
sg8
I00
sg9
I5
sg10
(lp609
g603
a(igraph
Vertex
p610
(dp611
g14
F1.0
sg8
I00
sg15
g24
sg16
F2.0
sg17
F-354.0
sg18
I3403025
sg19
S'10025.4428862'
p612
sg21
F0.53333333333333333
sbasg26
I00
sg27
I00
sg28
I3402530
sg19
S'10025.9614144'
p613
sba(igraph
Edge
p614
(dp615
g7
I1
sg8
I00
sg9
I5
sg10
(lp616
(igraph
Vertex
p617
(dp618
g14
F0.4375
sg8
I00
sg15
g24
sg16
F41.0
sg17
F20.625
sg18
I3403026
sg19
S'10025.4554403'
p619
sg21
F0.59999999999999998
sba(igraph
Vertex
p620
(dp621
g14
F0.5
sg8
I00
sg15
g24
sg16
F41.0
sg17
F-21.0
sg18
I3403027
sg19
S'10025.456976'
p622
sg21
F0.59999999999999998
sbasg26
I00
sg27
I00
sg28
I3402531
sg19
S'10025.9928611'
p623
sba(igraph
Edge
p624
(dp625
g7
I1
sg8
I00
sg9
I5
sg10
(lp626
g620
a(igraph
Vertex
p627
(dp628
g14
F0.5625
sg8
I00
sg15
g24
sg16
F41.0
sg17
F-62.625
sg18
I3403028
sg19
S'10025.4585167'
p629
sg21
F0.59999999999999998
sbasg26
I00
sg27
I00
sg28
I3402532
sg19
S'10025.9963981'
p630
sba(igraph
Edge
p631
(dp632
g7
I1
sg8
I00
sg9
I5
sg10
(lp633
g627
a(igraph
Vertex
p634
(dp635
g14
F0.625
sg8
I00
sg15
g24
sg16
F41.0
sg17
F-104.25
sg18
I3403029
sg19
S'10025.4600797'
p636
sg21
F0.59999999999999998
sbasg26
I00
sg27
I00
sg28
I3402533
sg19
S'10025.9999827'
p637
sba(igraph
Edge
p638
(dp639
g7
I1
sg8
I00
sg9
I5
sg10
(lp640
g634
a(igraph
Vertex
p641
(dp642
g14
F0.6875
sg8
I00
sg15
g24
sg16
F41.0
sg17
F-145.875
sg18
I3403030
sg19
S'10025.4619713'
p643
sg21
F0.59999999999999998
sbasg26
I00
sg27
I00
sg28
I3402534
sg19
S'10026.0035884'
p644
sba(igraph
Edge
p645
(dp646
g7
I1
sg8
I00
sg9
I5
sg10
(lp647
g641
a(igraph
Vertex
p648
(dp649
g14
F0.75
sg8
I00
sg15
g24
sg16
F41.0
sg17
F-187.5
sg18
I3403031
sg19
S'10025.4636078'
p650
sg21
F0.59999999999999998
sbasg26
I00
sg27
I00
sg28
I3402535
sg19
S'10026.0072599'
p651
sba(igraph
Edge
p652
(dp653
g7
I1
sg8
I00
sg9
I5
sg10
(lp654
g648
a(igraph
Vertex
p655
(dp656
g14
F0.8125
sg8
I00
sg15
I0
sg16
F41.0
sg17
F-229.125
sg18
I3403032
sg19
S'10025.465234'
p657
sg21
F0.59999999999999998
sbasg26
I00
sg27
I00
sg28
I3402536
sg19
S'10026.014967'
p658
sba(igraph
Edge
p659
(dp660
g7
I1
sg8
I00
sg9
I5
sg10
(lp661
g655
a(igraph
Vertex
p662
(dp663
g14
F0.875
sg8
I00
sg15
g24
sg16
F41.0
sg17
F-270.75
sg18
I3403034
sg19
S'10025.4669789'
p664
sg21
F0.59999999999999998
sbasg26
I00
sg27
I00
sg28
I3402537
sg19
S'10026.0186677'
p665
sba(igraph
Edge
p666
(dp667
g7
I1
sg8
I00
sg9
I5
sg10
(lp668
g662
a(igraph
Vertex
p669
(dp670
g14
F0.9375
sg8
I00
sg15
g24
sg16
F41.0
sg17
F-312.375
sg18
I3403035
sg19
S'10025.4687844'
p671
sg21
F0.59999999999999998
sbasg26
I00
sg27
I00
sg28
I3402538
sg19
S'10026.0222676'
p672
sba(igraph
Edge
p673
(dp674
g7
I1
sg8
I00
sg9
I5
sg10
(lp675
g669
a(igraph
Vertex
p676
(dp677
g14
F1.0
sg8
I00
sg15
g24
sg16
F41.0
sg17
F-354.0
sg18
I3403036
sg19
S'10025.4703304'
p678
sg21
F0.59999999999999998
sbasg26
I00
sg27
I00
sg28
I3402539
sg19
S'10026.0259016'
p679
sba(igraph
Edge
p680
(dp681
g7
I1
sg8
I00
sg9
I5
sg10
(lp682
(igraph
Vertex
p683
(dp684
g14
F0.4375
sg8
I00
sg15
g24
sg16
F80.0
sg17
F20.625
sg18
I3403037
sg19
S'10025.4833257'
p685
sg21
F0.66666666666666663
sba(igraph
Vertex
p686
(dp687
g14
F0.5
sg8
I00
sg15
g24
sg16
F80.0
sg17
F-21.0
sg18
I3403038
sg19
S'10025.4849474'
p688
sg21
F0.66666666666666663
sbasg26
I00
sg27
I00
sg28
I3402540
sg19
S'10026.0602311'
p689
sba(igraph
Edge
p690
(dp691
g7
I1
sg8
I00
sg9
I5
sg10
(lp692
g686
a(igraph
Vertex
p693
(dp694
g14
F0.5625
sg8
I00
sg15
g24
sg16
F80.0
sg17
F-62.625
sg18
I3403039
sg19
S'10025.4866311'
p695
sg21
F0.66666666666666663
sbasg26
I00
sg27
I00
sg28
I3402541
sg19
S'10026.0644898'
p696
sba(igraph
Edge
p697
(dp698
g7
I1
sg8
I00
sg9
I5
sg10
(lp699
g693
a(igraph
Vertex
p700
(dp701
g14
F0.625
sg8
I00
sg15
g24
sg16
F80.0
sg17
F-104.25
sg18
I3403040
sg19
S'10025.488321'
p702
sg21
F0.66666666666666663
sbasg26
I00
sg27
I00
sg28
I3402542
sg19
S'10026.0683679'
p703
sba(igraph
Edge
p704
(dp705
g7
I1
sg8
I00
sg9
I5
sg10
(lp706
g700
a(igraph
Vertex
p707
(dp708
g14
F0.6875
sg8
I00
sg15
g24
sg16
F80.0
sg17
F-145.875
sg18
I3403041
sg19
S'10025.4899871'
p709
sg21
F0.66666666666666663
sbasg26
I00
sg27
I00
sg28
I3402543
sg19
S'10026.0723813'
p710
sba(igraph
Edge
p711
(dp712
g7
I1
sg8
I00
sg9
I5
sg10
(lp713
g707
a(igraph
Vertex
p714
(dp715
g14
F0.75
sg8
I00
sg15
g24
sg16
F80.0
sg17
F-187.5
sg18
I3403042
sg19
S'10025.4916589'
p716
sg21
F0.66666666666666663
sbasg26
I00
sg27
I00
sg28
I3402544
sg19
S'10026.0763024'
p717
sba(igraph
Edge
p718
(dp719
g7
I1
sg8
I00
sg9
I5
sg10
(lp720
g714
a(igraph
Vertex
p721
(dp722
g14
F0.8125
sg8
I00
sg15
g24
sg16
F80.0
sg17
F-229.125
sg18
I3403043
sg19
S'10025.4933289'
p723
sg21
F0.66666666666666663
sbasg26
I00
sg27
I00
sg28
I3402545
sg19
S'10026.0817797'
p724
sba(igraph
Edge
p725
(dp726
g7
I1
sg8
I00
sg9
I5
sg10
(lp727
g721
a(igraph
Vertex
p728
(dp729
g14
F0.875
sg8
I00
sg15
g24
sg16
F80.0
sg17
F-270.75
sg18
I3403044
sg19
S'10025.4950126'
p730
sg21
F0.66666666666666663
sbasg26
I00
sg27
I00
sg28
I3402546
sg19
S'10026.0858101'
p731
sba(igraph
Edge
p732
(dp733
g7
I1
sg8
I00
sg9
I5
sg10
(lp734
g728
a(igraph
Vertex
p735
(dp736
g14
F0.9375
sg8
I00
sg15
g24
sg16
F80.0
sg17
F-312.375
sg18
I3403045
sg19
S'10025.4967067'
p737
sg21
F0.66666666666666663
sbasg26
I00
sg27
I00
sg28
I3402547
sg19
S'10026.0898463'
p738
sba(igraph
Edge
p739
(dp740
g7
I1
sg8
I00
sg9
I5
sg10
(lp741
g735
a(igraph
Vertex
p742
(dp743
g14
F1.0
sg8
I00
sg15
g24
sg16
F80.0
sg17
F-354.0
sg18
I3403046
sg19
S'10025.4985648'
p744
sg21
F0.66666666666666663
sbasg26
I00
sg27
I00
sg28
I3402548
sg19
S'10026.0939013'
p745
sba(igraph
Edge
p746
(dp747
g7
I1
sg8
I00
sg9
I5
sg10
(lp748
(igraph
Vertex
p749
(dp750
g14
F0.4375
sg8
I00
sg15
g24
sg16
F118.99999999999994
sg17
F20.625
sg18
I3403047
sg19
S'10025.5132697'
p751
sg21
F0.73333333333333328
sba(igraph
Vertex
p752
(dp753
g14
F0.5
sg8
I00
sg15
g24
sg16
F118.99999999999994
sg17
F-21.0
sg18
I3403048
sg19
S'10025.5150884'
p754
sg21
F0.73333333333333328
sbasg26
I00
sg27
I00
sg28
I3402549
sg19
S'10026.1312907'
p755
sba(igraph
Edge
p756
(dp757
g7
I1
sg8
I00
sg9
I5
sg10
(lp758
g752
a(igraph
Vertex
p759
(dp760
g14
F0.5625
sg8
I00
sg15
g24
sg16
F118.99999999999994
sg17
F-62.625
sg18
I3403049
sg19
S'10025.5169087'
p761
sg21
F0.73333333333333328
sbasg26
I00
sg27
I00
sg28
I3402550
sg19
S'10026.1355264'
p762
sba(igraph
Edge
p763
(dp764
g7
I1
sg8
I00
sg9
I5
sg10
(lp765
g759
a(igraph
Vertex
p766
(dp767
g14
F0.625
sg8
I00
sg15
g24
sg16
F118.99999999999994
sg17
F-104.25
sg18
I3403050
sg19
S'10025.5188009'
p768
sg21
F0.73333333333333328
sbasg26
I00
sg27
I00
sg28
I3402551
sg19
S'10026.139818'
p769
sba(igraph
Edge
p770
(dp771
g7
I1
sg8
I00
sg9
I5
sg10
(lp772
g766
a(igraph
Vertex
p773
(dp774
g14
F0.6875
sg8
I00
sg15
g24
sg16
F118.99999999999994
sg17
F-145.875
sg18
I3403051
sg19
S'10025.5209693'
p775
sg21
F0.73333333333333328
sbasg26
I00
sg27
I00
sg28
I3402552
sg19
S'10026.1440529'
p776
sba(igraph
Edge
p777
(dp778
g7
I1
sg8
I00
sg9
I5
sg10
(lp779
g773
a(igraph
Vertex
p780
(dp781
g14
F0.75
sg8
I00
sg15
g24
sg16
F118.99999999999994
sg17
F-187.5
sg18
I3403052
sg19
S'10025.5228634'
p782
sg21
F0.73333333333333328
sbasg26
I00
sg27
I00
sg28
I3402553
sg19
S'10026.1483264'
p783
sba(igraph
Edge
p784
(dp785
g7
I1
sg8
I00
sg9
I5
sg10
(lp786
g780
a(igraph
Vertex
p787
(dp788
g14
F0.8125
sg8
I00
sg15
g24
sg16
F118.99999999999994
sg17
F-229.125
sg18
I3403053
sg19
S'10025.5248206'
p789
sg21
F0.73333333333333328
sbasg26
I00
sg27
I00
sg28
I3402554
sg19
S'10026.1526183'
p790
sba(igraph
Edge
p791
(dp792
g7
I1
sg8
I00
sg9
I5
sg10
(lp793
g787
a(igraph
Vertex
p794
(dp795
g14
F0.875
sg8
I00
sg15
I0
sg16
F118.99999999999994
sg17
F-270.75
sg18
I3403054
sg19
S'10025.5270273'
p796
sg21
F0.73333333333333328
sbasg26
I00
sg27
I00
sg28
I3402555
sg19
S'10026.1570188'
p797
sba(igraph
Edge
p798
(dp799
g7
I1
sg8
I00
sg9
I5
sg10
(lp800
g794
a(igraph
Vertex
p801
(dp802
g14
F0.9375
sg8
I00
sg15
g24
sg16
F118.99999999999994
sg17
F-312.375
sg18
I3403056
sg19
S'10025.5291687'
p803
sg21
F0.73333333333333328
sbasg26
I00
sg27
I00
sg28
I3402556
sg19
S'10026.1613565'
p804
sba(igraph
Edge
p805
(dp806
g7
I1
sg8
I00
sg9
I5
sg10
(lp807
g801
a(igraph
Vertex
p808
(dp809
g14
F1.0
sg8
I00
sg15
g24
sg16
F118.99999999999994
sg17
F-354.0
sg18
I3403057
sg19
S'10025.5310904'
p810
sg21
F0.73333333333333328
sbasg26
I00
sg27
I00
sg28
I3402557
sg19
S'10026.1657107'
p811
sba(igraph
Edge
p812
(dp813
g7
I1
sg8
I00
sg9
I5
sg10
(lp814
(igraph
Vertex
p815
(dp816
g14
F0.4375
sg8
I00
sg15
g24
sg16
F158.0
sg17
F20.625
sg18
I3403058
sg19
S'10025.5479032'
p817
sg21
F0.80000000000000004
sba(igraph
Vertex
p818
(dp819
g14
F0.5
sg8
I00
sg15
g24
sg16
F158.0
sg17
F-21.0
sg18
I3403059
sg19
S'10025.5499333'
p820
sg21
F0.80000000000000004
sbasg26
I00
sg27
I00
sg28
I3402558
sg19
S'10026.2060393'
p821
sba(igraph
Edge
p822
(dp823
g7
I1
sg8
I00
sg9
I5
sg10
(lp824
g818
a(igraph
Vertex
p825
(dp826
g14
F0.5625
sg8
I00
sg15
g24
sg16
F158.0
sg17
F-62.625
sg18
I3403060
sg19
S'10025.5519864'
p827
sg21
F0.80000000000000004
sbasg26
I00
sg27
I00
sg28
I3402559
sg19
S'10026.2105977'
p828
sba(igraph
Edge
p829
(dp830
g7
I1
sg8
I00
sg9
I5
sg10
(lp831
g825
a(igraph
Vertex
p832
(dp833
g14
F0.625
sg8
I00
sg15
g24
sg16
F158.0
sg17
F-104.25
sg18
I3403061
sg19
S'10025.5555206'
p834
sg21
F0.80000000000000004
sbasg26
I00
sg27
I00
sg28
I3402560
sg19
S'10026.215174'
p835
sba(igraph
Edge
p836
(dp837
g7
I1
sg8
I00
sg9
I5
sg10
(lp838
g832
a(igraph
Vertex
p839
(dp840
g14
F0.6875
sg8
I00
sg15
g24
sg16
F158.0
sg17
F-145.875
sg18
I3403062
sg19
S'10025.5576167'
p841
sg21
F0.80000000000000004
sbasg26
I00
sg27
I00
sg28
I3402561
sg19
S'10026.2197684'
p842
sba(igraph
Edge
p843
(dp844
g7
I1
sg8
I00
sg9
I5
sg10
(lp845
g839
a(igraph
Vertex
p846
(dp847
g14
F0.75
sg8
I00
sg15
g24
sg16
F158.0
sg17
F-187.5
sg18
I3403063
sg19
S'10025.5597404'
p848
sg21
F0.80000000000000004
sbasg26
I00
sg27
I00
sg28
I3402562
sg19
S'10026.224481'
p849
sba(igraph
Edge
p850
(dp851
g7
I1
sg8
I00
sg9
I5
sg10
(lp852
g846
a(igraph
Vertex
p853
(dp854
g14
F0.8125
sg8
I00
sg15
I0
sg16
F158.0
sg17
F-229.125
sg18
I3403064
sg19
S'10025.5619932'
p855
sg21
F0.80000000000000004
sbasg26
I00
sg27
I00
sg28
I3402563
sg19
S'10026.2291738'
p856
sba(igraph
Edge
p857
(dp858
g7
I1
sg8
I00
sg9
I5
sg10
(lp859
g853
a(igraph
Vertex
p860
(dp861
g14
F0.875
sg8
I00
sg15
g24
sg16
F158.0
sg17
F-270.75
sg18
I3403066
sg19
S'10025.5641407'
p862
sg21
F0.80000000000000004
sbasg26
I00
sg27
I00
sg28
I3402564
sg19
S'10026.2338817'
p863
sba(igraph
Edge
p864
(dp865
g7
I1
sg8
I00
sg9
I5
sg10
(lp866
g860
a(igraph
Vertex
p867
(dp868
g14
F0.9375
sg8
I00
sg15
g24
sg16
F158.0
sg17
F-312.375
sg18
I3403067
sg19
S'10025.5663675'
p869
sg21
F0.80000000000000004
sbasg26
I00
sg27
I00
sg28
I3402565
sg19
S'10026.2385434'
p870
sba(igraph
Edge
p871
(dp872
g7
I1
sg8
I00
sg9
I5
sg10
(lp873
g867
a(igraph
Vertex
p874
(dp875
g14
F1.0
sg8
I00
sg15
g24
sg16
F158.0
sg17
F-354.0
sg18
I3403068
sg19
S'10025.5684887'
p876
sg21
F0.80000000000000004
sbasg26
I00
sg27
I00
sg28
I3402566
sg19
S'10026.2432605'
p877
sba(igraph
Edge
p878
(dp879
g7
I1
sg8
I00
sg9
I5
sg10
(lp880
(igraph
Vertex
p881
(dp882
g14
F0.4375
sg8
I00
sg15
g24
sg16
F197.00000000000006
sg17
F20.625
sg18
I3403069
sg19
S'10025.5919157'
p883
sg21
F0.86666666666666681
sba(igraph
Vertex
p884
(dp885
g14
F0.5
sg8
I00
sg15
g24
sg16
F197.00000000000006
sg17
F-21.0
sg18
I3403070
sg19
S'10025.5940828'
p886
sg21
F0.86666666666666681
sbasg26
I00
sg27
I00
sg28
I3402567
sg19
S'10026.287068'
p887
sba(igraph
Edge
p888
(dp889
g7
I1
sg8
I00
sg9
I5
sg10
(lp890
g884
a(igraph
Vertex
p891
(dp892
g14
F0.5625
sg8
I00
sg15
g24
sg16
F197.00000000000006
sg17
F-62.625
sg18
I3403071
sg19
S'10025.5962559'
p893
sg21
F0.86666666666666681
sbasg26
I00
sg27
I00
sg28
I3402568
sg19
S'10026.2920785'
p894
sba(igraph
Edge
p895
(dp896
g7
I1
sg8
I00
sg9
I5
sg10
(lp897
g891
a(igraph
Vertex
p898
(dp899
g14
F0.625
sg8
I00
sg15
g24
sg16
F197.00000000000006
sg17
F-104.25
sg18
I3403072
sg19
S'10025.5984347'
p900
sg21
F0.86666666666666681
sbasg26
I00
sg27
I00
sg28
I3402569
sg19
S'10026.297123'
p901
sba(igraph
Edge
p902
(dp903
g7
I1
sg8
I00
sg9
I5
sg10
(lp904
g898
a(igraph
Vertex
p905
(dp906
g14
F0.6875
sg8
I00
sg15
g24
sg16
F197.00000000000006
sg17
F-145.875
sg18
I3403073
sg19
S'10025.6006263'
p907
sg21
F0.86666666666666681
sbasg26
I00
sg27
I00
sg28
I3402570
sg19
S'10026.3021021'
p908
sba(igraph
Edge
p909
(dp910
g7
I1
sg8
I00
sg9
I5
sg10
(lp911
g905
a(igraph
Vertex
p912
(dp913
g14
F0.75
sg8
I00
sg15
g24
sg16
F197.00000000000006
sg17
F-187.5
sg18
I3403074
sg19
S'10025.6030786'
p914
sg21
F0.86666666666666681
sbasg26
I00
sg27
I00
sg28
I3402571
sg19
S'10026.3071041'
p915
sba(igraph
Edge
p916
(dp917
g7
I1
sg8
I00
sg9
I5
sg10
(lp918
g912
a(igraph
Vertex
p919
(dp920
g14
F0.8125
sg8
I00
sg15
g24
sg16
F197.00000000000006
sg17
F-229.125
sg18
I3403075
sg19
S'10025.6053018'
p921
sg21
F0.86666666666666681
sbasg26
I00
sg27
I00
sg28
I3402572
sg19
S'10026.3121263'
p922
sba(igraph
Edge
p923
(dp924
g7
I1
sg8
I00
sg9
I5
sg10
(lp925
g919
a(igraph
Vertex
p926
(dp927
g14
F0.875
sg8
I00
sg15
g24
sg16
F197.00000000000006
sg17
F-270.75
sg18
I3403076
sg19
S'10025.6075311'
p928
sg21
F0.86666666666666681
sbasg26
I00
sg27
I00
sg28
I3402573
sg19
S'10026.3172261'
p929
sba(igraph
Edge
p930
(dp931
g7
I1
sg8
I00
sg9
I5
sg10
(lp932
g926
a(igraph
Vertex
p933
(dp934
g14
F0.9375
sg8
I00
sg15
I0
sg16
F197.00000000000006
sg17
F-312.375
sg18
I3403077
sg19
S'10025.60977'
p935
sg21
F0.86666666666666681
sbasg26
I00
sg27
I00
sg28
I3402574
sg19
S'10026.3222491'
p936
sba(igraph
Edge
p937
(dp938
g7
I1
sg8
I00
sg9
I5
sg10
(lp939
g933
a(igraph
Vertex
p940
(dp941
g14
F1.0
sg8
I00
sg15
g24
sg16
F197.00000000000006
sg17
F-354.0
sg18
I3403079
sg19
S'10025.6120202'
p942
sg21
F0.86666666666666681
sbasg26
I00
sg27
I00
sg28
I3402575
sg19
S'10026.3273709'
p943
sba(igraph
Edge
p944
(dp945
g7
I1
sg8
I00
sg9
I5
sg10
(lp946
(igraph
Vertex
p947
(dp948
g14
F0.4375
sg8
I00
sg15
g24
sg16
F236.0
sg17
F20.625
sg18
I3403080
sg19
S'10025.6313062'
p949
sg21
F0.93333333333333335
sba(igraph
Vertex
p950
(dp951
g14
F0.5
sg8
I00
sg15
g24
sg16
F236.0
sg17
F-21.0
sg18
I3403081
sg19
S'10025.6336601'
p952
sg21
F0.93333333333333335
sbasg26
I00
sg27
I00
sg28
I3402576
sg19
S'10026.3747225'
p953
sba(igraph
Edge
p954
(dp955
g7
I1
sg8
I00
sg9
I5
sg10
(lp956
g950
a(igraph
Vertex
p957
(dp958
g14
F0.5625
sg8
I00
sg15
g24
sg16
F236.0
sg17
F-62.625
sg18
I3403082
sg19
S'10025.6365016'
p959
sg21
F0.93333333333333335
sbasg26
I00
sg27
I00
sg28
I3402577
sg19
S'10026.3800044'
p960
sba(igraph
Edge
p961
(dp962
g7
I1
sg8
I00
sg9
I5
sg10
(lp963
g957
a(igraph
Vertex
p964
(dp965
g14
F0.625
sg8
I00
sg15
g24
sg16
F236.0
sg17
F-104.25
sg18
I3403083
sg19
S'10025.6389918'
p966
sg21
F0.93333333333333335
sbasg26
I00
sg27
I00
sg28
I3402578
sg19
S'10026.3853333'
p967
sba(igraph
Edge
p968
(dp969
g7
I1
sg8
I00
sg9
I5
sg10
(lp970
g964
a(igraph
Vertex
p971
(dp972
g14
F0.6875
sg8
I00
sg15
g24
sg16
F236.0
sg17
F-145.875
sg18
I3403084
sg19
S'10025.6427342'
p973
sg21
F0.93333333333333335
sbasg26
I00
sg27
I00
sg28
I3402579
sg19
S'10026.3907075'
p974
sba(igraph
Edge
p975
(dp976
g7
I1
sg8
I00
sg9
I5
sg10
(lp977
g971
a(igraph
Vertex
p978
(dp979
g14
F0.75
sg8
I00
sg15
g24
sg16
F236.0
sg17
F-187.5
sg18
I3403085
sg19
S'10025.645306'
p980
sg21
F0.93333333333333335
sbasg26
I00
sg27
I00
sg28
I3402580
sg19
S'10026.396064'
p981
sba(igraph
Edge
p982
(dp983
g7
I1
sg8
I00
sg9
I5
sg10
(lp984
g978
a(igraph
Vertex
p985
(dp986
g14
F0.8125
sg8
I00
sg15
g24
sg16
F236.0
sg17
F-229.125
sg18
I3403086
sg19
S'10025.6479234'
p987
sg21
F0.93333333333333335
sbasg26
I00
sg27
I00
sg28
I3402581
sg19
S'10026.4014404'
p988
sba(igraph
Edge
p989
(dp990
g7
I1
sg8
I00
sg9
I5
sg10
(lp991
g985
a(igraph
Vertex
p992
(dp993
g14
F0.875
sg8
I00
sg15
g24
sg16
F236.0
sg17
F-270.75
sg18
I3403087
sg19
S'10025.6503799'
p994
sg21
F0.93333333333333335
sbasg26
I00
sg27
I00
sg28
I3402582
sg19
S'10026.4068249'
p995
sba(igraph
Edge
p996
(dp997
g7
I1
sg8
I00
sg9
I5
sg10
(lp998
g992
a(igraph
Vertex
p999
(dp1000
g14
F0.9375
sg8
I00
sg15
g24
sg16
F236.0
sg17
F-312.375
sg18
I3403088
sg19
S'10025.6531978'
p1001
sg21
F0.93333333333333335
sbasg26
I00
sg27
I00
sg28
I3402583
sg19
S'10026.4123175'
p1002
sba(igraph
Edge
p1003
(dp1004
g7
I1
sg8
I00
sg9
I5
sg10
(lp1005
g999
a(igraph
Vertex
p1006
(dp1007
g14
F1.0
sg8
I00
sg15
g24
sg16
F236.0
sg17
F-354.0
sg18
I3403089
sg19
S'10025.6558909'
p1008
sg21
F0.93333333333333335
sbasg26
I00
sg27
I00
sg28
I3402584
sg19
S'10026.4177654'
p1009
sba(igraph
Edge
p1010
(dp1011
g7
I1
sg8
I00
sg9
I5
sg10
(lp1012
(igraph
Vertex
p1013
(dp1014
g14
F0.4375
sg8
I00
sg15
g24
sg16
F275.0
sg17
F20.625
sg18
I3403090
sg19
S'10025.6775825'
p1015
sg21
F1.0
sba(igraph
Vertex
p1016
(dp1017
g14
F0.5
sg8
I00
sg15
g24
sg16
F275.0
sg17
F-21.0
sg18
I3403091
sg19
S'10025.6802267'
p1018
sg21
F1.0
sbasg26
I00
sg27
I00
sg28
I3402585
sg19
S'10026.4687599'
p1019
sba(igraph
Edge
p1020
(dp1021
g7
I1
sg8
I00
sg9
I5
sg10
(lp1022
g1016
a(igraph
Vertex
p1023
(dp1024
g14
F0.5625
sg8
I00
sg15
g24
sg16
F275.0
sg17
F-62.625
sg18
I3403092
sg19
S'10025.6830161'
p1025
sg21
F1.0
sbasg26
I00
sg27
I00
sg28
I3402586
sg19
S'10026.4744106'
p1026
sba(igraph
Edge
p1027
(dp1028
g7
I1
sg8
I00
sg9
I5
sg10
(lp1029
g1023
a(igraph
Vertex
p1030
(dp1031
g14
F0.625
sg8
I00
sg15
g24
sg16
F275.0
sg17
F-104.25
sg18
I3403093
sg19
S'10025.6858008'
p1032
sg21
F1.0
sbasg26
I00
sg27
I00
sg28
I3402587
sg19
S'10026.4801987'
p1033
sba(igraph
Edge
p1034
(dp1035
g7
I1
sg8
I00
sg9
I5
sg10
(lp1036
g1030
a(igraph
Vertex
p1037
(dp1038
g14
F0.6875
sg8
I00
sg15
g24
sg16
F275.0
sg17
F-145.875
sg18
I3403094
sg19
S'10025.6886501'
p1039
sg21
F1.0
sbasg26
I00
sg27
I00
sg28
I3402588
sg19
S'10026.4859824'
p1040
sba(igraph
Edge
p1041
(dp1042
g7
I1
sg8
I00
sg9
I5
sg10
(lp1043
g1037
a(igraph
Vertex
p1044
(dp1045
g14
F0.75
sg8
I00
sg15
g24
sg16
F275.0
sg17
F-187.5
sg18
I3403095
sg19
S'10025.6911303'
p1046
sg21
F1.0
sbasg26
I00
sg27
I00
sg28
I3402589
sg19
S'10026.4916896'
p1047
sba(igraph
Edge
p1048
(dp1049
g7
I1
sg8
I00
sg9
I5
sg10
(lp1050
g1044
a(igraph
Vertex
p1051
(dp1052
g14
F0.8125
sg8
I00
sg15
g24
sg16
F275.0
sg17
F-229.125
sg18
I3403096
sg19
S'10025.6936982'
p1053
sg21
F1.0
sbasg26
I00
sg27
I00
sg28
I3402590
sg19
S'10026.4975333'
p1054
sba(igraph
Edge
p1055
(dp1056
g7
I1
sg8
I00
sg9
I5
sg10
(lp1057
g1051
a(igraph
Vertex
p1058
(dp1059
g14
F0.875
sg8
I00
sg15
g24
sg16
F275.0
sg17
F-270.75
sg18
I3403097
sg19
S'10025.6961829'
p1060
sg21
F1.0
sbasg26
I00
sg27
I00
sg28
I3402591
sg19
S'10026.5033039'
p1061
sba(igraph
Edge
p1062
(dp1063
g7
I1
sg8
I00
sg9
I5
sg10
(lp1064
g1058
a(igraph
Vertex
p1065
(dp1066
g14
F0.9375
sg8
I00
sg15
g24
sg16
F275.0
sg17
F-312.375
sg18
I3403098
sg19
S'10025.6986698'
p1067
sg21
F1.0
sbasg26
I00
sg27
I00
sg28
I3402592
sg19
S'10026.5090552'
p1068
sba(igraph
Edge
p1069
(dp1070
g7
I1
sg8
I00
sg9
I5
sg10
(lp1071
g1065
a(igraph
Vertex
p1072
(dp1073
g14
F1.0
sg8
I00
sg15
I0
sg16
F275.0
sg17
F-354.0
sg18
I3403099
sg19
S'10025.7011981'
p1074
sg21
F1.0
sbasg26
I00
sg27
I00
sg28
I3402593
sg19
S'10026.5150389'
p1075
sba(igraph
Edge
p1076
(dp1077
g7
I1
sg8
I00
sg9
I5
sg10
(lp1078
g12
ag92
asg26
I00
sg27
I00
sg28
I3402594
sg19
S'10026.5685876'
p1079
sba(igraph
Edge
p1080
(dp1081
g7
I1
sg8
I00
sg9
I5
sg10
(lp1082
g22
ag92
asg26
I00
sg27
I00
sg28
I3402595
sg19
S'10026.5745691'
p1083
sba(igraph
Edge
p1084
(dp1085
g7
I1
sg8
I00
sg9
I5
sg10
(lp1086
g33
ag106
asg26
I00
sg27
I00
sg28
I3402596
sg19
S'10026.5829565'
p1087
sba(igraph
Edge
p1088
(dp1089
g7
I1
sg8
I00
sg9
I5
sg10
(lp1090
g40
ag106
asg26
I00
sg27
I00
sg28
I3402597
sg19
S'10026.589169'
p1091
sba(igraph
Edge
p1092
(dp1093
g7
I1
sg8
I00
sg9
I5
sg10
(lp1094
g47
ag120
asg26
I00
sg27
I00
sg28
I3402598
sg19
S'10026.5954246'
p1095
sba(igraph
Edge
p1096
(dp1097
g7
I1
sg8
I00
sg9
I5
sg10
(lp1098
g54
ag120
asg26
I00
sg27
I00
sg28
I3402599
sg19
S'10026.6015494'
p1099
sba(igraph
Edge
p1100
(dp1101
g7
I1
sg8
I00
sg9
I5
sg10
(lp1102
g61
ag134
asg26
I00
sg27
I00
sg28
I3402600
sg19
S'10026.6077029'
p1103
sba(igraph
Edge
p1104
(dp1105
g7
I1
sg8
I00
sg9
I5
sg10
(lp1106
g68
ag134
asg26
I00
sg27
I00
sg28
I3402601
sg19
S'10026.6138565'
p1107
sba(igraph
Edge
p1108
(dp1109
g7
I1
sg8
I00
sg9
I5
sg10
(lp1110
g75
ag148
asg26
I00
sg27
I00
sg28
I3402602
sg19
S'10026.6200112'
p1111
sba(igraph
Edge
p1112
(dp1113
g7
I1
sg8
I00
sg9
I5
sg10
(lp1114
g82
ag148
asg26
I00
sg27
I00
sg28
I3402603
sg19
S'10026.6269314'
p1115
sba(igraph
Edge
p1116
(dp1117
g7
I1
sg8
I00
sg9
I5
sg10
(lp1118
g12
ag89
asg26
I00
sg27
I00
sg28
I3402604
sg19
S'10026.6776222'
p1119
sba(igraph
Edge
p1120
(dp1121
g7
I1
sg8
I00
sg9
I5
sg10
(lp1122
g22
ag99
asg26
I00
sg27
I00
sg28
I3402605
sg19
S'10026.6839774'
p1123
sba(igraph
Edge
p1124
(dp1125
g7
I1
sg8
I00
sg9
I5
sg10
(lp1126
g33
ag99
asg26
I00
sg27
I00
sg28
I3402606
sg19
S'10026.6903576'
p1127
sba(igraph
Edge
p1128
(dp1129
g7
I1
sg8
I00
sg9
I5
sg10
(lp1130
g40
ag113
asg26
I00
sg27
I00
sg28
I3402607
sg19
S'10026.6969347'
p1131
sba(igraph
Edge
p1132
(dp1133
g7
I1
sg8
I00
sg9
I5
sg10
(lp1134
g47
ag113
asg26
I00
sg27
I00
sg28
I3402608
sg19
S'10026.7035182'
p1135
sba(igraph
Edge
p1136
(dp1137
g7
I1
sg8
I00
sg9
I5
sg10
(lp1138
g54
ag127
asg26
I00
sg27
I00
sg28
I3402609
sg19
S'10026.7100104'
p1139
sba(igraph
Edge
p1140
(dp1141
g7
I1
sg8
I00
sg9
I5
sg10
(lp1142
g61
ag127
asg26
I00
sg27
I00
sg28
I3402610
sg19
S'10026.7165263'
p1143
sba(igraph
Edge
p1144
(dp1145
g7
I1
sg8
I00
sg9
I5
sg10
(lp1146
g68
ag141
asg26
I00
sg27
I00
sg28
I3402611
sg19
S'10026.7230455'
p1147
sba(igraph
Edge
p1148
(dp1149
g7
I1
sg8
I00
sg9
I5
sg10
(lp1150
g75
ag141
asg26
I00
sg27
I00
sg28
I3402612
sg19
S'10026.7296494'
p1151
sba(igraph
Edge
p1152
(dp1153
g7
I1
sg8
I00
sg9
I5
sg10
(lp1154
g22
ag1016
asg26
I00
sg27
I00
sg28
I3402613
sg19
S'10026.7967937'
p1155
sba(igraph
Edge
p1156
(dp1157
g7
I1
sg8
I00
sg9
I5
sg10
(lp1158
g33
ag1016
asg26
I00
sg27
I00
sg28
I3402614
sg19
S'10026.8035253'
p1159
sba(igraph
Edge
p1160
(dp1161
g7
I1
sg8
I00
sg9
I5
sg10
(lp1162
g40
ag1030
asg26
I00
sg27
I00
sg28
I3402615
sg19
S'10026.8104206'
p1163
sba(igraph
Edge
p1164
(dp1165
g7
I1
sg8
I00
sg9
I5
sg10
(lp1166
g47
ag1030
asg26
I00
sg27
I00
sg28
I3402616
sg19
S'10026.8172324'
p1167
sba(igraph
Edge
p1168
(dp1169
g7
I1
sg8
I00
sg9
I5
sg10
(lp1170
g54
ag1044
asg26
I00
sg27
I00
sg28
I3402617
sg19
S'10026.8240704'
p1171
sba(igraph
Edge
p1172
(dp1173
g7
I1
sg8
I00
sg9
I5
sg10
(lp1174
g61
ag1044
asg26
I00
sg27
I00
sg28
I3402618
sg19
S'10026.8310408'
p1175
sba(igraph
Edge
p1176
(dp1177
g7
I1
sg8
I00
sg9
I5
sg10
(lp1178
g68
ag1058
asg26
I00
sg27
I00
sg28
I3402619
sg19
S'10026.8379328'
p1179
sba(igraph
Edge
p1180
(dp1181
g7
I1
sg8
I00
sg9
I5
sg10
(lp1182
g75
ag1058
asg26
I00
sg27
I00
sg28
I3402620
sg19
S'10026.8449512'
p1183
sba(igraph
Edge
p1184
(dp1185
g7
I1
sg8
I00
sg9
I5
sg10
(lp1186
g82
ag1072
asg26
I00
sg27
I00
sg28
I3402621
sg19
S'10026.8518256'
p1187
sba(igraph
Edge
p1188
(dp1189
g7
I1
sg8
I00
sg9
I5
sg10
(lp1190
g12
ag1013
asg26
I00
sg27
I00
sg28
I3402622
sg19
S'10026.9098436'
p1191
sba(igraph
Edge
p1192
(dp1193
g7
I1
sg8
I00
sg9
I5
sg10
(lp1194
g22
ag1013
asg26
I00
sg27
I00
sg28
I3402623
sg19
S'10026.9170135'
p1195
sba(igraph
Edge
p1196
(dp1197
g7
I1
sg8
I00
sg9
I5
sg10
(lp1198
g33
ag1023
asg26
I00
sg27
I00
sg28
I3402624
sg19
S'10026.9241848'
p1199
sba(igraph
Edge
p1200
(dp1201
g7
I1
sg8
I00
sg9
I5
sg10
(lp1202
g40
ag1023
asg26
I00
sg27
I00
sg28
I3402625
sg19
S'10026.93127'
p1203
sba(igraph
Edge
p1204
(dp1205
g7
I1
sg8
I00
sg9
I5
sg10
(lp1206
g47
ag1037
asg26
I00
sg27
I00
sg28
I3402626
sg19
S'10026.9384327'
p1207
sba(igraph
Edge
p1208
(dp1209
g7
I1
sg8
I00
sg9
I5
sg10
(lp1210
g54
ag1037
asg26
I00
sg27
I00
sg28
I3402627
sg19
S'10026.9456347'
p1211
sba(igraph
Edge
p1212
(dp1213
g7
I1
sg8
I00
sg9
I5
sg10
(lp1214
g61
ag1051
asg26
I00
sg27
I00
sg28
I3402628
sg19
S'10026.9529091'
p1215
sba(igraph
Edge
p1216
(dp1217
g7
I1
sg8
I00
sg9
I5
sg10
(lp1218
g68
ag1051
asg26
I00
sg27
I00
sg28
I3402629
sg19
S'10026.9604212'
p1219
sba(igraph
Edge
p1220
(dp1221
g7
I1
sg8
I00
sg9
I5
sg10
(lp1222
g75
ag1065
asg26
I00
sg27
I00
sg28
I3402630
sg19
S'10026.9676635'
p1223
sba(igraph
Edge
p1224
(dp1225
g7
I1
sg8
I00
sg9
I5
sg10
(lp1226
g82
ag1065
asg26
I00
sg27
I00
sg28
I3402631
sg19
S'10026.9750407'
p1227
sba(igraph
Edge
p1228
(dp1229
g7
I1
sg8
I00
sg9
I5
sg10
(lp1230
g89
ag158
asg26
I00
sg27
I00
sg28
I3402632
sg19
S'10027.0371723'
p1231
sba(igraph
Edge
p1232
(dp1233
g7
I1
sg8
I00
sg9
I5
sg10
(lp1234
g92
ag158
asg26
I00
sg27
I00
sg28
I3402633
sg19
S'10027.0446632'
p1235
sba(igraph
Edge
p1236
(dp1237
g7
I1
sg8
I00
sg9
I5
sg10
(lp1238
g99
ag172
asg26
I00
sg27
I00
sg28
I3402634
sg19
S'10027.052836'
p1239
sba(igraph
Edge
p1240
(dp1241
g7
I1
sg8
I00
sg9
I5
sg10
(lp1242
g106
ag172
asg26
I00
sg27
I00
sg28
I3402635
sg19
S'10027.0606004'
p1243
sba(igraph
Edge
p1244
(dp1245
g7
I1
sg8
I00
sg9
I5
sg10
(lp1246
g113
ag186
asg26
I00
sg27
I00
sg28
I3402636
sg19
S'10027.0681559'
p1247
sba(igraph
Edge
p1248
(dp1249
g7
I1
sg8
I00
sg9
I5
sg10
(lp1250
g120
ag186
asg26
I00
sg27
I00
sg28
I3402637
sg19
S'10027.0769665'
p1251
sba(igraph
Edge
p1252
(dp1253
g7
I1
sg8
I00
sg9
I5
sg10
(lp1254
g127
ag200
asg26
I00
sg27
I00
sg28
I3402638
sg19
S'10027.0847988'
p1255
sba(igraph
Edge
p1256
(dp1257
g7
I1
sg8
I00
sg9
I5
sg10
(lp1258
g134
ag200
asg26
I00
sg27
I00
sg28
I3402639
sg19
S'10027.0929062'
p1259
sba(igraph
Edge
p1260
(dp1261
g7
I1
sg8
I00
sg9
I5
sg10
(lp1262
g141
ag214
asg26
I00
sg27
I00
sg28
I3402640
sg19
S'10027.1007304'
p1263
sba(igraph
Edge
p1264
(dp1265
g7
I1
sg8
I00
sg9
I5
sg10
(lp1266
g148
ag214
asg26
I00
sg27
I00
sg28
I3402641
sg19
S'10027.1085029'
p1267
sba(igraph
Edge
p1268
(dp1269
g7
I1
sg8
I00
sg9
I5
sg10
(lp1270
g89
ag155
asg26
I00
sg27
I00
sg28
I3402642
sg19
S'10027.1709974'
p1271
sba(igraph
Edge
p1272
(dp1273
g7
I1
sg8
I00
sg9
I5
sg10
(lp1274
g92
ag165
asg26
I00
sg27
I00
sg28
I3402643
sg19
S'10027.1789736'
p1275
sba(igraph
Edge
p1276
(dp1277
g7
I1
sg8
I00
sg9
I5
sg10
(lp1278
g99
ag165
asg26
I00
sg27
I00
sg28
I3402644
sg19
S'10027.1871034'
p1279
sba(igraph
Edge
p1280
(dp1281
g7
I1
sg8
I00
sg9
I5
sg10
(lp1282
g106
ag179
asg26
I00
sg27
I00
sg28
I3402645
sg19
S'10027.1950991'
p1283
sba(igraph
Edge
p1284
(dp1285
g7
I1
sg8
I00
sg9
I5
sg10
(lp1286
g113
ag179
asg26
I00
sg27
I00
sg28
I3402646
sg19
S'10027.2031862'
p1287
sba(igraph
Edge
p1288
(dp1289
g7
I1
sg8
I00
sg9
I5
sg10
(lp1290
g120
ag193
asg26
I00
sg27
I00
sg28
I3402647
sg19
S'10027.2113573'
p1291
sba(igraph
Edge
p1292
(dp1293
g7
I1
sg8
I00
sg9
I5
sg10
(lp1294
g127
ag193
asg26
I00
sg27
I00
sg28
I3402648
sg19
S'10027.2193843'
p1295
sba(igraph
Edge
p1296
(dp1297
g7
I1
sg8
I00
sg9
I5
sg10
(lp1298
g134
ag207
asg26
I00
sg27
I00
sg28
I3402649
sg19
S'10027.2274373'
p1299
sba(igraph
Edge
p1300
(dp1301
g7
I1
sg8
I00
sg9
I5
sg10
(lp1302
g141
ag207
asg26
I00
sg27
I00
sg28
I3402650
sg19
S'10027.2354584'
p1303
sba(igraph
Edge
p1304
(dp1305
g7
I1
sg8
I00
sg9
I5
sg10
(lp1306
g155
ag224
asg26
I00
sg27
I00
sg28
I3402651
sg19
S'10027.3092642'
p1307
sba(igraph
Edge
p1308
(dp1309
g7
I1
sg8
I00
sg9
I5
sg10
(lp1310
g158
ag224
asg26
I00
sg27
I00
sg28
I3402652
sg19
S'10027.3176446'
p1311
sba(igraph
Edge
p1312
(dp1313
g7
I1
sg8
I00
sg9
I5
sg10
(lp1314
g165
ag238
asg26
I00
sg27
I00
sg28
I3402653
sg19
S'10027.3259867'
p1315
sba(igraph
Edge
p1316
(dp1317
g7
I1
sg8
I00
sg9
I5
sg10
(lp1318
g172
ag238
asg26
I00
sg27
I00
sg28
I3402654
sg19
S'10027.3343967'
p1319
sba(igraph
Edge
p1320
(dp1321
g7
I1
sg8
I00
sg9
I5
sg10
(lp1322
g179
ag252
asg26
I00
sg27
I00
sg28
I3402655
sg19
S'10027.342586'
p1323
sba(igraph
Edge
p1324
(dp1325
g7
I1
sg8
I00
sg9
I5
sg10
(lp1326
g186
ag252
asg26
I00
sg27
I00
sg28
I3402656
sg19
S'10027.3508904'
p1327
sba(igraph
Edge
p1328
(dp1329
g7
I1
sg8
I00
sg9
I5
sg10
(lp1330
g193
ag266
asg26
I00
sg27
I00
sg28
I3402657
sg19
S'10027.3591141'
p1331
sba(igraph
Edge
p1332
(dp1333
g7
I1
sg8
I00
sg9
I5
sg10
(lp1334
g200
ag266
asg26
I00
sg27
I00
sg28
I3402658
sg19
S'10027.3675467'
p1335
sba(igraph
Edge
p1336
(dp1337
g7
I1
sg8
I00
sg9
I5
sg10
(lp1338
g207
ag280
asg26
I00
sg27
I00
sg28
I3402659
sg19
S'10027.3759668'
p1339
sba(igraph
Edge
p1340
(dp1341
g7
I1
sg8
I00
sg9
I5
sg10
(lp1342
g214
ag280
asg26
I00
sg27
I00
sg28
I3402660
sg19
S'10027.3842835'
p1343
sba(igraph
Edge
p1344
(dp1345
g7
I1
sg8
I00
sg9
I5
sg10
(lp1346
g155
ag221
asg26
I00
sg27
I00
sg28
I3402661
sg19
S'10027.4534814'
p1347
sba(igraph
Edge
p1348
(dp1349
g7
I1
sg8
I00
sg9
I5
sg10
(lp1350
g158
ag231
asg26
I00
sg27
I00
sg28
I3402662
sg19
S'10027.4620372'
p1351
sba(igraph
Edge
p1352
(dp1353
g7
I1
sg8
I00
sg9
I5
sg10
(lp1354
g165
ag231
asg26
I00
sg27
I00
sg28
I3402663
sg19
S'10027.4708325'
p1355
sba(igraph
Edge
p1356
(dp1357
g7
I1
sg8
I00
sg9
I5
sg10
(lp1358
g172
ag245
asg26
I00
sg27
I00
sg28
I3402664
sg19
S'10027.479764'
p1359
sba(igraph
Edge
p1360
(dp1361
g7
I1
sg8
I00
sg9
I5
sg10
(lp1362
g179
ag245
asg26
I00
sg27
I00
sg28
I3402665
sg19
S'10027.4885646'
p1363
sba(igraph
Edge
p1364
(dp1365
g7
I1
sg8
I00
sg9
I5
sg10
(lp1366
g186
ag259
asg26
I00
sg27
I00
sg28
I3402666
sg19
S'10027.4973372'
p1367
sba(igraph
Edge
p1368
(dp1369
g7
I1
sg8
I00
sg9
I5
sg10
(lp1370
g193
ag259
asg26
I00
sg27
I00
sg28
I3402667
sg19
S'10027.5059509'
p1371
sba(igraph
Edge
p1372
(dp1373
g7
I1
sg8
I00
sg9
I5
sg10
(lp1374
g200
ag273
asg26
I00
sg27
I00
sg28
I3402668
sg19
S'10027.5149115'
p1375
sba(igraph
Edge
p1376
(dp1377
g7
I1
sg8
I00
sg9
I5
sg10
(lp1378
g207
ag273
asg26
I00
sg27
I00
sg28
I3402669
sg19
S'10027.5236635'
p1379
sba(igraph
Edge
p1380
(dp1381
g7
I1
sg8
I00
sg9
I5
sg10
(lp1382
g221
ag290
asg26
I00
sg27
I00
sg28
I3402670
sg19
S'10027.6041575'
p1383
sba(igraph
Edge
p1384
(dp1385
g7
I1
sg8
I00
sg9
I5
sg10
(lp1386
g224
ag290
asg26
I00
sg27
I00
sg28
I3402671
sg19
S'10027.6134213'
p1387
sba(igraph
Edge
p1388
(dp1389
g7
I1
sg8
I00
sg9
I5
sg10
(lp1390
g231
ag304
asg26
I00
sg27
I00
sg28
I3402672
sg19
S'10027.6226224'
p1391
sba(igraph
Edge
p1392
(dp1393
g7
I1
sg8
I00
sg9
I5
sg10
(lp1394
g238
ag304
asg26
I00
sg27
I00
sg28
I3402673
sg19
S'10027.6316275'
p1395
sba(igraph
Edge
p1396
(dp1397
g7
I1
sg8
I00
sg9
I5
sg10
(lp1398
g245
ag318
asg26
I00
sg27
I00
sg28
I3402674
sg19
S'10027.640701'
p1399
sba(igraph
Edge
p1400
(dp1401
g7
I1
sg8
I00
sg9
I5
sg10
(lp1402
g252
ag318
asg26
I00
sg27
I00
sg28
I3402675
sg19
S'10027.6497979'
p1403
sba(igraph
Edge
p1404
(dp1405
g7
I1
sg8
I00
sg9
I5
sg10
(lp1406
g259
ag332
asg26
I00
sg27
I00
sg28
I3402676
sg19
S'10027.6589519'
p1407
sba(igraph
Edge
p1408
(dp1409
g7
I1
sg8
I00
sg9
I5
sg10
(lp1410
g266
ag332
asg26
I00
sg27
I00
sg28
I3402677
sg19
S'10027.6680343'
p1411
sba(igraph
Edge
p1412
(dp1413
g7
I1
sg8
I00
sg9
I5
sg10
(lp1414
g273
ag346
asg26
I00
sg27
I00
sg28
I3402678
sg19
S'10027.6771749'
p1415
sba(igraph
Edge
p1416
(dp1417
g7
I1
sg8
I00
sg9
I5
sg10
(lp1418
g280
ag346
asg26
I00
sg27
I00
sg28
I3402679
sg19
S'10027.6862389'
p1419
sba(igraph
Edge
p1420
(dp1421
g7
I1
sg8
I00
sg9
I5
sg10
(lp1422
g221
ag287
asg26
I00
sg27
I00
sg28
I3402680
sg19
S'10027.7611534'
p1423
sba(igraph
Edge
p1424
(dp1425
g7
I1
sg8
I00
sg9
I5
sg10
(lp1426
g224
ag297
asg26
I00
sg27
I00
sg28
I3402681
sg19
S'10027.7705653'
p1427
sba(igraph
Edge
p1428
(dp1429
g7
I1
sg8
I00
sg9
I5
sg10
(lp1430
g231
ag297
asg26
I00
sg27
I00
sg28
I3402682
sg19
S'10027.7800592'
p1431
sba(igraph
Edge
p1432
(dp1433
g7
I1
sg8
I00
sg9
I5
sg10
(lp1434
g238
ag311
asg26
I00
sg27
I00
sg28
I3402683
sg19
S'10027.7894453'
p1435
sba(igraph
Edge
p1436
(dp1437
g7
I1
sg8
I00
sg9
I5
sg10
(lp1438
g245
ag311
asg26
I00
sg27
I00
sg28
I3402684
sg19
S'10027.7988367'
p1439
sba(igraph
Edge
p1440
(dp1441
g7
I1
sg8
I00
sg9
I5
sg10
(lp1442
g252
ag325
asg26
I00
sg27
I00
sg28
I3402685
sg19
S'10027.8083709'
p1443
sba(igraph
Edge
p1444
(dp1445
g7
I1
sg8
I00
sg9
I5
sg10
(lp1446
g259
ag325
asg26
I00
sg27
I00
sg28
I3402686
sg19
S'10027.8178696'
p1447
sba(igraph
Edge
p1448
(dp1449
g7
I1
sg8
I00
sg9
I5
sg10
(lp1450
g266
ag339
asg26
I00
sg27
I00
sg28
I3402687
sg19
S'10027.8273825'
p1451
sba(igraph
Edge
p1452
(dp1453
g7
I1
sg8
I00
sg9
I5
sg10
(lp1454
g273
ag339
asg26
I00
sg27
I00
sg28
I3402688
sg19
S'10027.8368279'
p1455
sba(igraph
Edge
p1456
(dp1457
g7
I1
sg8
I00
sg9
I5
sg10
(lp1458
g287
ag356
asg26
I00
sg27
I00
sg28
I3402689
sg19
S'10027.9243828'
p1459
sba(igraph
Edge
p1460
(dp1461
g7
I1
sg8
I00
sg9
I5
sg10
(lp1462
g290
ag356
asg26
I00
sg27
I00
sg28
I3402690
sg19
S'10027.9339447'
p1463
sba(igraph
Edge
p1464
(dp1465
g7
I1
sg8
I00
sg9
I5
sg10
(lp1466
g297
ag370
asg26
I00
sg27
I00
sg28
I3402691
sg19
S'10027.9437758'
p1467
sba(igraph
Edge
p1468
(dp1469
g7
I1
sg8
I00
sg9
I5
sg10
(lp1470
g304
ag370
asg26
I00
sg27
I00
sg28
I3402692
sg19
S'10027.9534745'
p1471
sba(igraph
Edge
p1472
(dp1473
g7
I1
sg8
I00
sg9
I5
sg10
(lp1474
g311
ag384
asg26
I00
sg27
I00
sg28
I3402693
sg19
S'10027.9631182'
p1475
sba(igraph
Edge
p1476
(dp1477
g7
I1
sg8
I00
sg9
I5
sg10
(lp1478
g318
ag384
asg26
I00
sg27
I00
sg28
I3402694
sg19
S'10027.972882'
p1479
sba(igraph
Edge
p1480
(dp1481
g7
I1
sg8
I00
sg9
I5
sg10
(lp1482
g325
ag398
asg26
I00
sg27
I00
sg28
I3402695
sg19
S'10027.9825891'
p1483
sba(igraph
Edge
p1484
(dp1485
g7
I1
sg8
I00
sg9
I5
sg10
(lp1486
g332
ag398
asg26
I00
sg27
I00
sg28
I3402696
sg19
S'10027.9922605'
p1487
sba(igraph
Edge
p1488
(dp1489
g7
I1
sg8
I00
sg9
I5
sg10
(lp1490
g339
ag412
asg26
I00
sg27
I00
sg28
I3402697
sg19
S'10028.0020142'
p1491
sba(igraph
Edge
p1492
(dp1493
g7
I1
sg8
I00
sg9
I5
sg10
(lp1494
g346
ag412
asg26
I00
sg27
I00
sg28
I3402698
sg19
S'10028.0118049'
p1495
sba(igraph
Edge
p1496
(dp1497
g7
I1
sg8
I00
sg9
I5
sg10
(lp1498
g287
ag353
asg26
I00
sg27
I00
sg28
I3402699
sg19
S'10028.0949095'
p1499
sba(igraph
Edge
p1500
(dp1501
g7
I1
sg8
I00
sg9
I5
sg10
(lp1502
g290
ag363
asg26
I00
sg27
I00
sg28
I3402700
sg19
S'10028.1050223'
p1503
sba(igraph
Edge
p1504
(dp1505
g7
I1
sg8
I00
sg9
I5
sg10
(lp1506
g297
ag363
asg26
I00
sg27
I00
sg28
I3402701
sg19
S'10028.1151205'
p1507
sba(igraph
Edge
p1508
(dp1509
g7
I1
sg8
I00
sg9
I5
sg10
(lp1510
g304
ag377
asg26
I00
sg27
I00
sg28
I3402702
sg19
S'10028.1251793'
p1511
sba(igraph
Edge
p1512
(dp1513
g7
I1
sg8
I00
sg9
I5
sg10
(lp1514
g311
ag377
asg26
I00
sg27
I00
sg28
I3402703
sg19
S'10028.1352759'
p1515
sba(igraph
Edge
p1516
(dp1517
g7
I1
sg8
I00
sg9
I5
sg10
(lp1518
g318
ag391
asg26
I00
sg27
I00
sg28
I3402704
sg19
S'10028.1456459'
p1519
sba(igraph
Edge
p1520
(dp1521
g7
I1
sg8
I00
sg9
I5
sg10
(lp1522
g325
ag391
asg26
I00
sg27
I00
sg28
I3402705
sg19
S'10028.1557662'
p1523
sba(igraph
Edge
p1524
(dp1525
g7
I1
sg8
I00
sg9
I5
sg10
(lp1526
g332
ag405
asg26
I00
sg27
I00
sg28
I3402706
sg19
S'10028.1663371'
p1527
sba(igraph
Edge
p1528
(dp1529
g7
I1
sg8
I00
sg9
I5
sg10
(lp1530
g339
ag405
asg26
I00
sg27
I00
sg28
I3402707
sg19
S'10028.1764073'
p1531
sba(igraph
Edge
p1532
(dp1533
g7
I1
sg8
I00
sg9
I5
sg10
(lp1534
g353
ag422
asg26
I00
sg27
I00
sg28
I3402708
sg19
S'10028.2699751'
p1535
sba(igraph
Edge
p1536
(dp1537
g7
I1
sg8
I00
sg9
I5
sg10
(lp1538
g356
ag422
asg26
I00
sg27
I00
sg28
I3402709
sg19
S'10028.2803731'
p1539
sba(igraph
Edge
p1540
(dp1541
g7
I1
sg8
I00
sg9
I5
sg10
(lp1542
g363
ag436
asg26
I00
sg27
I00
sg28
I3402710
sg19
S'10028.2909132'
p1543
sba(igraph
Edge
p1544
(dp1545
g7
I1
sg8
I00
sg9
I5
sg10
(lp1546
g370
ag436
asg26
I00
sg27
I00
sg28
I3402711
sg19
S'10028.3015436'
p1547
sba(igraph
Edge
p1548
(dp1549
g7
I1
sg8
I00
sg9
I5
sg10
(lp1550
g377
ag450
asg26
I00
sg27
I00
sg28
I3402712
sg19
S'10028.3122659'
p1551
sba(igraph
Edge
p1552
(dp1553
g7
I1
sg8
I00
sg9
I5
sg10
(lp1554
g384
ag450
asg26
I00
sg27
I00
sg28
I3402713
sg19
S'10028.3227988'
p1555
sba(igraph
Edge
p1556
(dp1557
g7
I1
sg8
I00
sg9
I5
sg10
(lp1558
g391
ag464
asg26
I00
sg27
I00
sg28
I3402714
sg19
S'10028.3333236'
p1559
sba(igraph
Edge
p1560
(dp1561
g7
I1
sg8
I00
sg9
I5
sg10
(lp1562
g398
ag464
asg26
I00
sg27
I00
sg28
I3402715
sg19
S'10028.3438102'
p1563
sba(igraph
Edge
p1564
(dp1565
g7
I1
sg8
I00
sg9
I5
sg10
(lp1566
g405
ag478
asg26
I00
sg27
I00
sg28
I3402716
sg19
S'10028.3543436'
p1567
sba(igraph
Edge
p1568
(dp1569
g7
I1
sg8
I00
sg9
I5
sg10
(lp1570
g412
ag478
asg26
I00
sg27
I00
sg28
I3402717
sg19
S'10028.3649562'
p1571
sba(igraph
Edge
p1572
(dp1573
g7
I1
sg8
I00
sg9
I5
sg10
(lp1574
g353
ag419
asg26
I00
sg27
I00
sg28
I3402718
sg19
S'10028.4594947'
p1575
sba(igraph
Edge
p1576
(dp1577
g7
I1
sg8
I00
sg9
I5
sg10
(lp1578
g356
ag429
asg26
I00
sg27
I00
sg28
I3402719
sg19
S'10028.4711001'
p1579
sba(igraph
Edge
p1580
(dp1581
g7
I1
sg8
I00
sg9
I5
sg10
(lp1582
g363
ag429
asg26
I00
sg27
I00
sg28
I3402720
sg19
S'10028.4824225'
p1583
sba(igraph
Edge
p1584
(dp1585
g7
I1
sg8
I00
sg9
I5
sg10
(lp1586
g370
ag443
asg26
I00
sg27
I00
sg28
I3402721
sg19
S'10028.4936801'
p1587
sba(igraph
Edge
p1588
(dp1589
g7
I1
sg8
I00
sg9
I5
sg10
(lp1590
g377
ag443
asg26
I00
sg27
I00
sg28
I3402722
sg19
S'10028.5056006'
p1591
sba(igraph
Edge
p1592
(dp1593
g7
I1
sg8
I00
sg9
I5
sg10
(lp1594
g384
ag457
asg26
I00
sg27
I00
sg28
I3402723
sg19
S'10028.5169752'
p1595
sba(igraph
Edge
p1596
(dp1597
g7
I1
sg8
I00
sg9
I5
sg10
(lp1598
g391
ag457
asg26
I00
sg27
I00
sg28
I3402724
sg19
S'10028.5281814'
p1599
sba(igraph
Edge
p1600
(dp1601
g7
I1
sg8
I00
sg9
I5
sg10
(lp1602
g398
ag471
asg26
I00
sg27
I00
sg28
I3402725
sg19
S'10028.5400298'
p1603
sba(igraph
Edge
p1604
(dp1605
g7
I1
sg8
I00
sg9
I5
sg10
(lp1606
g405
ag471
asg26
I00
sg27
I00
sg28
I3402726
sg19
S'10028.5521389'
p1607
sba(igraph
Edge
p1608
(dp1609
g7
I1
sg8
I00
sg9
I5
sg10
(lp1610
g419
ag488
asg26
I00
sg27
I00
sg28
I3402727
sg19
S'10028.6678723'
p1611
sba(igraph
Edge
p1612
(dp1613
g7
I1
sg8
I00
sg9
I5
sg10
(lp1614
g422
ag488
asg26
I00
sg27
I00
sg28
I3402728
sg19
S'10028.6807301'
p1615
sba(igraph
Edge
p1616
(dp1617
g7
I1
sg8
I00
sg9
I5
sg10
(lp1618
g429
ag502
asg26
I00
sg27
I00
sg28
I3402729
sg19
S'10028.6935474'
p1619
sba(igraph
Edge
p1620
(dp1621
g7
I1
sg8
I00
sg9
I5
sg10
(lp1622
g436
ag502
asg26
I00
sg27
I00
sg28
I3402730
sg19
S'10028.707115'
p1623
sba(igraph
Edge
p1624
(dp1625
g7
I1
sg8
I00
sg9
I5
sg10
(lp1626
g443
ag516
asg26
I00
sg27
I00
sg28
I3402731
sg19
S'10028.7188861'
p1627
sba(igraph
Edge
p1628
(dp1629
g7
I1
sg8
I00
sg9
I5
sg10
(lp1630
g450
ag516
asg26
I00
sg27
I00
sg28
I3402732
sg19
S'10028.730896'
p1631
sba(igraph
Edge
p1632
(dp1633
g7
I1
sg8
I00
sg9
I5
sg10
(lp1634
g457
ag530
asg26
I00
sg27
I00
sg28
I3402733
sg19
S'10028.7426927'
p1635
sba(igraph
Edge
p1636
(dp1637
g7
I1
sg8
I00
sg9
I5
sg10
(lp1638
g464
ag530
asg26
I00
sg27
I00
sg28
I3402734
sg19
S'10028.7546115'
p1639
sba(igraph
Edge
p1640
(dp1641
g7
I1
sg8
I00
sg9
I5
sg10
(lp1642
g471
ag544
asg26
I00
sg27
I00
sg28
I3402735
sg19
S'10028.766358'
p1643
sba(igraph
Edge
p1644
(dp1645
g7
I1
sg8
I00
sg9
I5
sg10
(lp1646
g478
ag544
asg26
I00
sg27
I00
sg28
I3402736
sg19
S'10028.7786409'
p1647
sba(igraph
Edge
p1648
(dp1649
g7
I1
sg8
I00
sg9
I5
sg10
(lp1650
g419
ag485
asg26
I00
sg27
I00
sg28
I3402737
sg19
S'10028.8776942'
p1651
sba(igraph
Edge
p1652
(dp1653
g7
I1
sg8
I00
sg9
I5
sg10
(lp1654
g422
ag495
asg26
I00
sg27
I00
sg28
I3402738
sg19
S'10028.8904847'
p1655
sba(igraph
Edge
p1656
(dp1657
g7
I1
sg8
I00
sg9
I5
sg10
(lp1658
g429
ag495
asg26
I00
sg27
I00
sg28
I3402739
sg19
S'10028.903374'
p1659
sba(igraph
Edge
p1660
(dp1661
g7
I1
sg8
I00
sg9
I5
sg10
(lp1662
g436
ag509
asg26
I00
sg27
I00
sg28
I3402740
sg19
S'10028.9153018'
p1663
sba(igraph
Edge
p1664
(dp1665
g7
I1
sg8
I00
sg9
I5
sg10
(lp1666
g443
ag509
asg26
I00
sg27
I00
sg28
I3402741
sg19
S'10028.9272637'
p1667
sba(igraph
Edge
p1668
(dp1669
g7
I1
sg8
I00
sg9
I5
sg10
(lp1670
g450
ag523
asg26
I00
sg27
I00
sg28
I3402742
sg19
S'10028.9389517'
p1671
sba(igraph
Edge
p1672
(dp1673
g7
I1
sg8
I00
sg9
I5
sg10
(lp1674
g457
ag523
asg26
I00
sg27
I00
sg28
I3402743
sg19
S'10028.9505811'
p1675
sba(igraph
Edge
p1676
(dp1677
g7
I1
sg8
I00
sg9
I5
sg10
(lp1678
g464
ag537
asg26
I00
sg27
I00
sg28
I3402744
sg19
S'10028.9622284'
p1679
sba(igraph
Edge
p1680
(dp1681
g7
I1
sg8
I00
sg9
I5
sg10
(lp1682
g471
ag537
asg26
I00
sg27
I00
sg28
I3402745
sg19
S'10028.9741691'
p1683
sba(igraph
Edge
p1684
(dp1685
g7
I1
sg8
I00
sg9
I5
sg10
(lp1686
g485
ag554
asg26
I00
sg27
I00
sg28
I3402746
sg19
S'10029.0949808'
p1687
sba(igraph
Edge
p1688
(dp1689
g7
I1
sg8
I00
sg9
I5
sg10
(lp1690
g488
ag554
asg26
I00
sg27
I00
sg28
I3402747
sg19
S'10029.1074746'
p1691
sba(igraph
Edge
p1692
(dp1693
g7
I1
sg8
I00
sg9
I5
sg10
(lp1694
g495
ag568
asg26
I00
sg27
I00
sg28
I3402748
sg19
S'10029.1200544'
p1695
sba(igraph
Edge
p1696
(dp1697
g7
I1
sg8
I00
sg9
I5
sg10
(lp1698
g502
ag568
asg26
I00
sg27
I00
sg28
I3402749
sg19
S'10029.1323428'
p1699
sba(igraph
Edge
p1700
(dp1701
g7
I1
sg8
I00
sg9
I5
sg10
(lp1702
g509
ag582
asg26
I00
sg27
I00
sg28
I3402750
sg19
S'10029.1448665'
p1703
sba(igraph
Edge
p1704
(dp1705
g7
I1
sg8
I00
sg9
I5
sg10
(lp1706
g516
ag582
asg26
I00
sg27
I00
sg28
I3402751
sg19
S'10029.1572247'
p1707
sba(igraph
Edge
p1708
(dp1709
g7
I1
sg8
I00
sg9
I5
sg10
(lp1710
g523
ag596
asg26
I00
sg27
I00
sg28
I3402752
sg19
S'10029.1709033'
p1711
sba(igraph
Edge
p1712
(dp1713
g7
I1
sg8
I00
sg9
I5
sg10
(lp1714
g530
ag596
asg26
I00
sg27
I00
sg28
I3402753
sg19
S'10029.1839684'
p1715
sba(igraph
Edge
p1716
(dp1717
g7
I1
sg8
I00
sg9
I5
sg10
(lp1718
g537
ag610
asg26
I00
sg27
I00
sg28
I3402754
sg19
S'10029.1973717'
p1719
sba(igraph
Edge
p1720
(dp1721
g7
I1
sg8
I00
sg9
I5
sg10
(lp1722
g544
ag610
asg26
I00
sg27
I00
sg28
I3402755
sg19
S'10029.2104267'
p1723
sba(igraph
Edge
p1724
(dp1725
g7
I1
sg8
I00
sg9
I5
sg10
(lp1726
g485
ag551
asg26
I00
sg27
I00
sg28
I3402756
sg19
S'10029.314481'
p1727
sba(igraph
Edge
p1728
(dp1729
g7
I1
sg8
I00
sg9
I5
sg10
(lp1730
g488
ag561
asg26
I00
sg27
I00
sg28
I3402757
sg19
S'10029.3276872'
p1731
sba(igraph
Edge
p1732
(dp1733
g7
I1
sg8
I00
sg9
I5
sg10
(lp1734
g495
ag561
asg26
I00
sg27
I00
sg28
I3402758
sg19
S'10029.3411448'
p1735
sba(igraph
Edge
p1736
(dp1737
g7
I1
sg8
I00
sg9
I5
sg10
(lp1738
g502
ag575
asg26
I00
sg27
I00
sg28
I3402759
sg19
S'10029.3551091'
p1739
sba(igraph
Edge
p1740
(dp1741
g7
I1
sg8
I00
sg9
I5
sg10
(lp1742
g509
ag575
asg26
I00
sg27
I00
sg28
I3402760
sg19
S'10029.3708295'
p1743
sba(igraph
Edge
p1744
(dp1745
g7
I1
sg8
I00
sg9
I5
sg10
(lp1746
g516
ag589
asg26
I00
sg27
I00
sg28
I3402761
sg19
S'10029.3837345'
p1747
sba(igraph
Edge
p1748
(dp1749
g7
I1
sg8
I00
sg9
I5
sg10
(lp1750
g523
ag589
asg26
I00
sg27
I00
sg28
I3402762
sg19
S'10029.3965398'
p1751
sba(igraph
Edge
p1752
(dp1753
g7
I1
sg8
I00
sg9
I5
sg10
(lp1754
g530
ag603
asg26
I00
sg27
I00
sg28
I3402763
sg19
S'10029.4093252'
p1755
sba(igraph
Edge
p1756
(dp1757
g7
I1
sg8
I00
sg9
I5
sg10
(lp1758
g537
ag603
asg26
I00
sg27
I00
sg28
I3402764
sg19
S'10029.4225353'
p1759
sba(igraph
Edge
p1760
(dp1761
g7
I1
sg8
I00
sg9
I5
sg10
(lp1762
g551
ag620
asg26
I00
sg27
I00
sg28
I3402765
sg19
S'10029.5460029'
p1763
sba(igraph
Edge
p1764
(dp1765
g7
I1
sg8
I00
sg9
I5
sg10
(lp1766
g554
ag620
asg26
I00
sg27
I00
sg28
I3402766
sg19
S'10029.5610152'
p1767
sba(igraph
Edge
p1768
(dp1769
g7
I1
sg8
I00
sg9
I5
sg10
(lp1770
g561
ag634
asg26
I00
sg27
I00
sg28
I3402767
sg19
S'10029.5748013'
p1771
sba(igraph
Edge
p1772
(dp1773
g7
I1
sg8
I00
sg9
I5
sg10
(lp1774
g568
ag634
asg26
I00
sg27
I00
sg28
I3402768
sg19
S'10029.5899579'
p1775
sba(igraph
Edge
p1776
(dp1777
g7
I1
sg8
I00
sg9
I5
sg10
(lp1778
g575
ag648
asg26
I00
sg27
I00
sg28
I3402769
sg19
S'10029.6027422'
p1779
sba(igraph
Edge
p1780
(dp1781
g7
I1
sg8
I00
sg9
I5
sg10
(lp1782
g582
ag648
asg26
I00
sg27
I00
sg28
I3402770
sg19
S'10029.6155159'
p1783
sba(igraph
Edge
p1784
(dp1785
g7
I1
sg8
I00
sg9
I5
sg10
(lp1786
g589
ag662
asg26
I00
sg27
I00
sg28
I3402771
sg19
S'10029.6283354'
p1787
sba(igraph
Edge
p1788
(dp1789
g7
I1
sg8
I00
sg9
I5
sg10
(lp1790
g596
ag662
asg26
I00
sg27
I00
sg28
I3402772
sg19
S'10029.641243'
p1791
sba(igraph
Edge
p1792
(dp1793
g7
I1
sg8
I00
sg9
I5
sg10
(lp1794
g603
ag676
asg26
I00
sg27
I00
sg28
I3402773
sg19
S'10029.6540767'
p1795
sba(igraph
Edge
p1796
(dp1797
g7
I1
sg8
I00
sg9
I5
sg10
(lp1798
g610
ag676
asg26
I00
sg27
I00
sg28
I3402774
sg19
S'10029.666989'
p1799
sba(igraph
Edge
p1800
(dp1801
g7
I1
sg8
I00
sg9
I5
sg10
(lp1802
g551
ag617
asg26
I00
sg27
I00
sg28
I3402775
sg19
S'10029.7716185'
p1803
sba(igraph
Edge
p1804
(dp1805
g7
I1
sg8
I00
sg9
I5
sg10
(lp1806
g554
ag627
asg26
I00
sg27
I00
sg28
I3402776
sg19
S'10029.7846251'
p1807
sba(igraph
Edge
p1808
(dp1809
g7
I1
sg8
I00
sg9
I5
sg10
(lp1810
g561
ag627
asg26
I00
sg27
I00
sg28
I3402777
sg19
S'10029.7977486'
p1811
sba(igraph
Edge
p1812
(dp1813
g7
I1
sg8
I00
sg9
I5
sg10
(lp1814
g568
ag641
asg26
I00
sg27
I00
sg28
I3402778
sg19
S'10029.8108413'
p1815
sba(igraph
Edge
p1816
(dp1817
g7
I1
sg8
I00
sg9
I5
sg10
(lp1818
g575
ag641
asg26
I00
sg27
I00
sg28
I3402779
sg19
S'10029.8238782'
p1819
sba(igraph
Edge
p1820
(dp1821
g7
I1
sg8
I00
sg9
I5
sg10
(lp1822
g582
ag655
asg26
I00
sg27
I00
sg28
I3402780
sg19
S'10029.8369318'
p1823
sba(igraph
Edge
p1824
(dp1825
g7
I1
sg8
I00
sg9
I5
sg10
(lp1826
g589
ag655
asg26
I00
sg27
I00
sg28
I3402781
sg19
S'10029.8502491'
p1827
sba(igraph
Edge
p1828
(dp1829
g7
I1
sg8
I00
sg9
I5
sg10
(lp1830
g596
ag669
asg26
I00
sg27
I00
sg28
I3402782
sg19
S'10029.8636329'
p1831
sba(igraph
Edge
p1832
(dp1833
g7
I1
sg8
I00
sg9
I5
sg10
(lp1834
g603
ag669
asg26
I00
sg27
I00
sg28
I3402783
sg19
S'10029.8769922'
p1835
sba(igraph
Edge
p1836
(dp1837
g7
I1
sg8
I00
sg9
I5
sg10
(lp1838
g617
ag686
asg26
I00
sg27
I00
sg28
I3402784
sg19
S'10029.9970373'
p1839
sba(igraph
Edge
p1840
(dp1841
g7
I1
sg8
I00
sg9
I5
sg10
(lp1842
g620
ag686
asg26
I00
sg27
I00
sg28
I3402785
sg19
S'10030.010786'
p1843
sba(igraph
Edge
p1844
(dp1845
g7
I1
sg8
I00
sg9
I5
sg10
(lp1846
g627
ag700
asg26
I00
sg27
I00
sg28
I3402786
sg19
S'10030.0242589'
p1847
sba(igraph
Edge
p1848
(dp1849
g7
I1
sg8
I00
sg9
I5
sg10
(lp1850
g634
ag700
asg26
I00
sg27
I00
sg28
I3402787
sg19
S'10030.037766'
p1851
sba(igraph
Edge
p1852
(dp1853
g7
I1
sg8
I00
sg9
I5
sg10
(lp1854
g641
ag714
asg26
I00
sg27
I00
sg28
I3402788
sg19
S'10030.0516057'
p1855
sba(igraph
Edge
p1856
(dp1857
g7
I1
sg8
I00
sg9
I5
sg10
(lp1858
g648
ag714
asg26
I00
sg27
I00
sg28
I3402789
sg19
S'10030.0656785'
p1859
sba(igraph
Edge
p1860
(dp1861
g7
I1
sg8
I00
sg9
I5
sg10
(lp1862
g655
ag728
asg26
I00
sg27
I00
sg28
I3402790
sg19
S'10030.0805706'
p1863
sba(igraph
Edge
p1864
(dp1865
g7
I1
sg8
I00
sg9
I5
sg10
(lp1866
g662
ag728
asg26
I00
sg27
I00
sg28
I3402791
sg19
S'10030.0941338'
p1867
sba(igraph
Edge
p1868
(dp1869
g7
I1
sg8
I00
sg9
I5
sg10
(lp1870
g669
ag742
asg26
I00
sg27
I00
sg28
I3402792
sg19
S'10030.1078461'
p1871
sba(igraph
Edge
p1872
(dp1873
g7
I1
sg8
I00
sg9
I5
sg10
(lp1874
g676
ag742
asg26
I00
sg27
I00
sg28
I3402793
sg19
S'10030.1215152'
p1875
sba(igraph
Edge
p1876
(dp1877
g7
I1
sg8
I00
sg9
I5
sg10
(lp1878
g617
ag683
asg26
I00
sg27
I00
sg28
I3402794
sg19
S'10030.2321024'
p1879
sba(igraph
Edge
p1880
(dp1881
g7
I1
sg8
I00
sg9
I5
sg10
(lp1882
g620
ag693
asg26
I00
sg27
I00
sg28
I3402795
sg19
S'10030.2460919'
p1883
sba(igraph
Edge
p1884
(dp1885
g7
I1
sg8
I00
sg9
I5
sg10
(lp1886
g627
ag693
asg26
I00
sg27
I00
sg28
I3402796
sg19
S'10030.259964'
p1887
sba(igraph
Edge
p1888
(dp1889
g7
I1
sg8
I00
sg9
I5
sg10
(lp1890
g634
ag707
asg26
I00
sg27
I00
sg28
I3402797
sg19
S'10030.2738569'
p1891
sba(igraph
Edge
p1892
(dp1893
g7
I1
sg8
I00
sg9
I5
sg10
(lp1894
g641
ag707
asg26
I00
sg27
I00
sg28
I3402798
sg19
S'10030.2876583'
p1895
sba(igraph
Edge
p1896
(dp1897
g7
I1
sg8
I00
sg9
I5
sg10
(lp1898
g648
ag721
asg26
I00
sg27
I00
sg28
I3402799
sg19
S'10030.3016043'
p1899
sba(igraph
Edge
p1900
(dp1901
g7
I1
sg8
I00
sg9
I5
sg10
(lp1902
g655
ag721
asg26
I00
sg27
I00
sg28
I3402800
sg19
S'10030.315515'
p1903
sba(igraph
Edge
p1904
(dp1905
g7
I1
sg8
I00
sg9
I5
sg10
(lp1906
g662
ag735
asg26
I00
sg27
I00
sg28
I3402801
sg19
S'10030.3294064'
p1907
sba(igraph
Edge
p1908
(dp1909
g7
I1
sg8
I00
sg9
I5
sg10
(lp1910
g669
ag735
asg26
I00
sg27
I00
sg28
I3402802
sg19
S'10030.3431579'
p1911
sba(igraph
Edge
p1912
(dp1913
g7
I1
sg8
I00
sg9
I5
sg10
(lp1914
g683
ag752
asg26
I00
sg27
I00
sg28
I3402803
sg19
S'10030.4723855'
p1915
sba(igraph
Edge
p1916
(dp1917
g7
I1
sg8
I00
sg9
I5
sg10
(lp1918
g686
ag752
asg26
I00
sg27
I00
sg28
I3402804
sg19
S'10030.4867197'
p1919
sba(igraph
Edge
p1920
(dp1921
g7
I1
sg8
I00
sg9
I5
sg10
(lp1922
g693
ag766
asg26
I00
sg27
I00
sg28
I3402805
sg19
S'10030.5008394'
p1923
sba(igraph
Edge
p1924
(dp1925
g7
I1
sg8
I00
sg9
I5
sg10
(lp1926
g700
ag766
asg26
I00
sg27
I00
sg28
I3402806
sg19
S'10030.5149543'
p1927
sba(igraph
Edge
p1928
(dp1929
g7
I1
sg8
I00
sg9
I5
sg10
(lp1930
g707
ag780
asg26
I00
sg27
I00
sg28
I3402807
sg19
S'10030.5290611'
p1931
sba(igraph
Edge
p1932
(dp1933
g7
I1
sg8
I00
sg9
I5
sg10
(lp1934
g714
ag780
asg26
I00
sg27
I00
sg28
I3402808
sg19
S'10030.5433827'
p1935
sba(igraph
Edge
p1936
(dp1937
g7
I1
sg8
I00
sg9
I5
sg10
(lp1938
g721
ag794
asg26
I00
sg27
I00
sg28
I3402809
sg19
S'10030.5575756'
p1939
sba(igraph
Edge
p1940
(dp1941
g7
I1
sg8
I00
sg9
I5
sg10
(lp1942
g728
ag794
asg26
I00
sg27
I00
sg28
I3402810
sg19
S'10030.5728801'
p1943
sba(igraph
Edge
p1944
(dp1945
g7
I1
sg8
I00
sg9
I5
sg10
(lp1946
g735
ag808
asg26
I00
sg27
I00
sg28
I3402811
sg19
S'10030.5881639'
p1947
sba(igraph
Edge
p1948
(dp1949
g7
I1
sg8
I00
sg9
I5
sg10
(lp1950
g742
ag808
asg26
I00
sg27
I00
sg28
I3402812
sg19
S'10030.6027774'
p1951
sba(igraph
Edge
p1952
(dp1953
g7
I1
sg8
I00
sg9
I5
sg10
(lp1954
g683
ag749
asg26
I00
sg27
I00
sg28
I3402813
sg19
S'10030.7187137'
p1955
sba(igraph
Edge
p1956
(dp1957
g7
I1
sg8
I00
sg9
I5
sg10
(lp1958
g686
ag759
asg26
I00
sg27
I00
sg28
I3402814
sg19
S'10030.7338357'
p1959
sba(igraph
Edge
p1960
(dp1961
g7
I1
sg8
I00
sg9
I5
sg10
(lp1962
g693
ag759
asg26
I00
sg27
I00
sg28
I3402815
sg19
S'10030.7483236'
p1963
sba(igraph
Edge
p1964
(dp1965
g7
I1
sg8
I00
sg9
I5
sg10
(lp1966
g700
ag773
asg26
I00
sg27
I00
sg28
I3402816
sg19
S'10030.7628869'
p1967
sba(igraph
Edge
p1968
(dp1969
g7
I1
sg8
I00
sg9
I5
sg10
(lp1970
g707
ag773
asg26
I00
sg27
I00
sg28
I3402817
sg19
S'10030.7789454'
p1971
sba(igraph
Edge
p1972
(dp1973
g7
I1
sg8
I00
sg9
I5
sg10
(lp1974
g714
ag787
asg26
I00
sg27
I00
sg28
I3402818
sg19
S'10030.7939425'
p1975
sba(igraph
Edge
p1976
(dp1977
g7
I1
sg8
I00
sg9
I5
sg10
(lp1978
g721
ag787
asg26
I00
sg27
I00
sg28
I3402819
sg19
S'10030.8086581'
p1979
sba(igraph
Edge
p1980
(dp1981
g7
I1
sg8
I00
sg9
I5
sg10
(lp1982
g728
ag801
asg26
I00
sg27
I00
sg28
I3402820
sg19
S'10030.8235021'
p1983
sba(igraph
Edge
p1984
(dp1985
g7
I1
sg8
I00
sg9
I5
sg10
(lp1986
g735
ag801
asg26
I00
sg27
I00
sg28
I3402821
sg19
S'10030.8381616'
p1987
sba(igraph
Edge
p1988
(dp1989
g7
I1
sg8
I00
sg9
I5
sg10
(lp1990
g749
ag818
asg26
I00
sg27
I00
sg28
I3402822
sg19
S'10030.981415'
p1991
sba(igraph
Edge
p1992
(dp1993
g7
I1
sg8
I00
sg9
I5
sg10
(lp1994
g752
ag818
asg26
I00
sg27
I00
sg28
I3402823
sg19
S'10030.9966934'
p1995
sba(igraph
Edge
p1996
(dp1997
g7
I1
sg8
I00
sg9
I5
sg10
(lp1998
g759
ag832
asg26
I00
sg27
I00
sg28
I3402824
sg19
S'10031.0167228'
p1999
sba(igraph
Edge
p2000
(dp2001
g7
I1
sg8
I00
sg9
I5
sg10
(lp2002
g766
ag832
asg26
I00
sg27
I00
sg28
I3402825
sg19
S'10031.0332593'
p2003
sba(igraph
Edge
p2004
(dp2005
g7
I1
sg8
I00
sg9
I5
sg10
(lp2006
g773
ag846
asg26
I00
sg27
I00
sg28
I3402826
sg19
S'10031.0487364'
p2007
sba(igraph
Edge
p2008
(dp2009
g7
I1
sg8
I00
sg9
I5
sg10
(lp2010
g780
ag846
asg26
I00
sg27
I00
sg28
I3402827
sg19
S'10031.0639799'
p2011
sba(igraph
Edge
p2012
(dp2013
g7
I1
sg8
I00
sg9
I5
sg10
(lp2014
g787
ag860
asg26
I00
sg27
I00
sg28
I3402828
sg19
S'10031.080094'
p2015
sba(igraph
Edge
p2016
(dp2017
g7
I1
sg8
I00
sg9
I5
sg10
(lp2018
g794
ag860
asg26
I00
sg27
I00
sg28
I3402829
sg19
S'10031.0954264'
p2019
sba(igraph
Edge
p2020
(dp2021
g7
I1
sg8
I00
sg9
I5
sg10
(lp2022
g801
ag874
asg26
I00
sg27
I00
sg28
I3402830
sg19
S'10031.1107104'
p2023
sba(igraph
Edge
p2024
(dp2025
g7
I1
sg8
I00
sg9
I5
sg10
(lp2026
g808
ag874
asg26
I00
sg27
I00
sg28
I3402831
sg19
S'10031.1258263'
p2027
sba(igraph
Edge
p2028
(dp2029
g7
I1
sg8
I00
sg9
I5
sg10
(lp2030
g749
ag815
asg26
I00
sg27
I00
sg28
I3402832
sg19
S'10031.2479899'
p2031
sba(igraph
Edge
p2032
(dp2033
g7
I1
sg8
I00
sg9
I5
sg10
(lp2034
g752
ag825
asg26
I00
sg27
I00
sg28
I3402833
sg19
S'10031.2631779'
p2035
sba(igraph
Edge
p2036
(dp2037
g7
I1
sg8
I00
sg9
I5
sg10
(lp2038
g759
ag825
asg26
I00
sg27
I00
sg28
I3402834
sg19
S'10031.278463'
p2039
sba(igraph
Edge
p2040
(dp2041
g7
I1
sg8
I00
sg9
I5
sg10
(lp2042
g766
ag839
asg26
I00
sg27
I00
sg28
I3402835
sg19
S'10031.2940404'
p2043
sba(igraph
Edge
p2044
(dp2045
g7
I1
sg8
I00
sg9
I5
sg10
(lp2046
g773
ag839
asg26
I00
sg27
I00
sg28
I3402836
sg19
S'10031.3093527'
p2047
sba(igraph
Edge
p2048
(dp2049
g7
I1
sg8
I00
sg9
I5
sg10
(lp2050
g780
ag853
asg26
I00
sg27
I00
sg28
I3402837
sg19
S'10031.3248497'
p2051
sba(igraph
Edge
p2052
(dp2053
g7
I1
sg8
I00
sg9
I5
sg10
(lp2054
g787
ag853
asg26
I00
sg27
I00
sg28
I3402838
sg19
S'10031.3403799'
p2055
sba(igraph
Edge
p2056
(dp2057
g7
I1
sg8
I00
sg9
I5
sg10
(lp2058
g794
ag867
asg26
I00
sg27
I00
sg28
I3402839
sg19
S'10031.3557296'
p2059
sba(igraph
Edge
p2060
(dp2061
g7
I1
sg8
I00
sg9
I5
sg10
(lp2062
g801
ag867
asg26
I00
sg27
I00
sg28
I3402840
sg19
S'10031.371236'
p2063
sba(igraph
Edge
p2064
(dp2065
g7
I1
sg8
I00
sg9
I5
sg10
(lp2066
g815
ag884
asg26
I00
sg27
I00
sg28
I3402841
sg19
S'10031.5107065'
p2067
sba(igraph
Edge
p2068
(dp2069
g7
I1
sg8
I00
sg9
I5
sg10
(lp2070
g818
ag884
asg26
I00
sg27
I00
sg28
I3402842
sg19
S'10031.5263082'
p2071
sba(igraph
Edge
p2072
(dp2073
g7
I1
sg8
I00
sg9
I5
sg10
(lp2074
g825
ag898
asg26
I00
sg27
I00
sg28
I3402843
sg19
S'10031.541868'
p2075
sba(igraph
Edge
p2076
(dp2077
g7
I1
sg8
I00
sg9
I5
sg10
(lp2078
g832
ag898
asg26
I00
sg27
I00
sg28
I3402844
sg19
S'10031.5575558'
p2079
sba(igraph
Edge
p2080
(dp2081
g7
I1
sg8
I00
sg9
I5
sg10
(lp2082
g839
ag912
asg26
I00
sg27
I00
sg28
I3402845
sg19
S'10031.5734382'
p2083
sba(igraph
Edge
p2084
(dp2085
g7
I1
sg8
I00
sg9
I5
sg10
(lp2086
g846
ag912
asg26
I00
sg27
I00
sg28
I3402846
sg19
S'10031.5909963'
p2087
sba(igraph
Edge
p2088
(dp2089
g7
I1
sg8
I00
sg9
I5
sg10
(lp2090
g853
ag926
asg26
I00
sg27
I00
sg28
I3402847
sg19
S'10031.6066855'
p2091
sba(igraph
Edge
p2092
(dp2093
g7
I1
sg8
I00
sg9
I5
sg10
(lp2094
g860
ag926
asg26
I00
sg27
I00
sg28
I3402848
sg19
S'10031.622364'
p2095
sba(igraph
Edge
p2096
(dp2097
g7
I1
sg8
I00
sg9
I5
sg10
(lp2098
g867
ag940
asg26
I00
sg27
I00
sg28
I3402849
sg19
S'10031.6380532'
p2099
sba(igraph
Edge
p2100
(dp2101
g7
I1
sg8
I00
sg9
I5
sg10
(lp2102
g874
ag940
asg26
I00
sg27
I00
sg28
I3402850
sg19
S'10031.6537895'
p2103
sba(igraph
Edge
p2104
(dp2105
g7
I1
sg8
I00
sg9
I5
sg10
(lp2106
g815
ag881
asg26
I00
sg27
I00
sg28
I3402851
sg19
S'10031.7814348'
p2107
sba(igraph
Edge
p2108
(dp2109
g7
I1
sg8
I00
sg9
I5
sg10
(lp2110
g818
ag891
asg26
I00
sg27
I00
sg28
I3402852
sg19
S'10031.7977567'
p2111
sba(igraph
Edge
p2112
(dp2113
g7
I1
sg8
I00
sg9
I5
sg10
(lp2114
g825
ag891
asg26
I00
sg27
I00
sg28
I3402853
sg19
S'10031.8136526'
p2115
sba(igraph
Edge
p2116
(dp2117
g7
I1
sg8
I00
sg9
I5
sg10
(lp2118
g832
ag905
asg26
I00
sg27
I00
sg28
I3402854
sg19
S'10031.8300784'
p2119
sba(igraph
Edge
p2120
(dp2121
g7
I1
sg8
I00
sg9
I5
sg10
(lp2122
g839
ag905
asg26
I00
sg27
I00
sg28
I3402855
sg19
S'10031.8459405'
p2123
sba(igraph
Edge
p2124
(dp2125
g7
I1
sg8
I00
sg9
I5
sg10
(lp2126
g846
ag919
asg26
I00
sg27
I00
sg28
I3402856
sg19
S'10031.8618838'
p2127
sba(igraph
Edge
p2128
(dp2129
g7
I1
sg8
I00
sg9
I5
sg10
(lp2130
g853
ag919
asg26
I00
sg27
I00
sg28
I3402857
sg19
S'10031.87783'
p2131
sba(igraph
Edge
p2132
(dp2133
g7
I1
sg8
I00
sg9
I5
sg10
(lp2134
g860
ag933
asg26
I00
sg27
I00
sg28
I3402858
sg19
S'10031.8937974'
p2135
sba(igraph
Edge
p2136
(dp2137
g7
I1
sg8
I00
sg9
I5
sg10
(lp2138
g867
ag933
asg26
I00
sg27
I00
sg28
I3402859
sg19
S'10031.9098536'
p2139
sba(igraph
Edge
p2140
(dp2141
g7
I1
sg8
I00
sg9
I5
sg10
(lp2142
g881
ag950
asg26
I00
sg27
I00
sg28
I3402860
sg19
S'10032.0568681'
p2143
sba(igraph
Edge
p2144
(dp2145
g7
I1
sg8
I00
sg9
I5
sg10
(lp2146
g884
ag950
asg26
I00
sg27
I00
sg28
I3402861
sg19
S'10032.0735515'
p2147
sba(igraph
Edge
p2148
(dp2149
g7
I1
sg8
I00
sg9
I5
sg10
(lp2150
g891
ag964
asg26
I00
sg27
I00
sg28
I3402862
sg19
S'10032.0910783'
p2151
sba(igraph
Edge
p2152
(dp2153
g7
I1
sg8
I00
sg9
I5
sg10
(lp2154
g898
ag964
asg26
I00
sg27
I00
sg28
I3402863
sg19
S'10032.1074938'
p2155
sba(igraph
Edge
p2156
(dp2157
g7
I1
sg8
I00
sg9
I5
sg10
(lp2158
g905
ag978
asg26
I00
sg27
I00
sg28
I3402864
sg19
S'10032.1239423'
p2159
sba(igraph
Edge
p2160
(dp2161
g7
I1
sg8
I00
sg9
I5
sg10
(lp2162
g912
ag978
asg26
I00
sg27
I00
sg28
I3402865
sg19
S'10032.1401932'
p2163
sba(igraph
Edge
p2164
(dp2165
g7
I1
sg8
I00
sg9
I5
sg10
(lp2166
g919
ag992
asg26
I00
sg27
I00
sg28
I3402866
sg19
S'10032.156381'
p2167
sba(igraph
Edge
p2168
(dp2169
g7
I1
sg8
I00
sg9
I5
sg10
(lp2170
g926
ag992
asg26
I00
sg27
I00
sg28
I3402867
sg19
S'10032.1727125'
p2171
sba(igraph
Edge
p2172
(dp2173
g7
I1
sg8
I00
sg9
I5
sg10
(lp2174
g933
ag1006
asg26
I00
sg27
I00
sg28
I3402868
sg19
S'10032.1890249'
p2175
sba(igraph
Edge
p2176
(dp2177
g7
I1
sg8
I00
sg9
I5
sg10
(lp2178
g940
ag1006
asg26
I00
sg27
I00
sg28
I3402869
sg19
S'10032.2053551'
p2179
sba(igraph
Edge
p2180
(dp2181
g7
I1
sg8
I00
sg9
I5
sg10
(lp2182
g881
ag947
asg26
I00
sg27
I00
sg28
I3402870
sg19
S'10032.3425379'
p2183
sba(igraph
Edge
p2184
(dp2185
g7
I1
sg8
I00
sg9
I5
sg10
(lp2186
g884
ag957
asg26
I00
sg27
I00
sg28
I3402871
sg19
S'10032.3590155'
p2187
sba(igraph
Edge
p2188
(dp2189
g7
I1
sg8
I00
sg9
I5
sg10
(lp2190
g891
ag957
asg26
I00
sg27
I00
sg28
I3402872
sg19
S'10032.3756723'
p2191
sba(igraph
Edge
p2192
(dp2193
g7
I1
sg8
I00
sg9
I5
sg10
(lp2194
g898
ag971
asg26
I00
sg27
I00
sg28
I3402873
sg19
S'10032.3927946'
p2195
sba(igraph
Edge
p2196
(dp2197
g7
I1
sg8
I00
sg9
I5
sg10
(lp2198
g905
ag971
asg26
I00
sg27
I00
sg28
I3402874
sg19
S'10032.4094573'
p2199
sba(igraph
Edge
p2200
(dp2201
g7
I1
sg8
I00
sg9
I5
sg10
(lp2202
g912
ag985
asg26
I00
sg27
I00
sg28
I3402875
sg19
S'10032.4262341'
p2203
sba(igraph
Edge
p2204
(dp2205
g7
I1
sg8
I00
sg9
I5
sg10
(lp2206
g919
ag985
asg26
I00
sg27
I00
sg28
I3402876
sg19
S'10032.4437293'
p2207
sba(igraph
Edge
p2208
(dp2209
g7
I1
sg8
I00
sg9
I5
sg10
(lp2210
g926
ag999
asg26
I00
sg27
I00
sg28
I3402877
sg19
S'10032.4613648'
p2211
sba(igraph
Edge
p2212
(dp2213
g7
I1
sg8
I00
sg9
I5
sg10
(lp2214
g933
ag999
asg26
I00
sg27
I00
sg28
I3402878
sg19
S'10032.4784924'
p2215
sba(igraph
Edge
p2216
(dp2217
g7
I1
sg8
I00
sg9
I5
sg10
(lp2218
g947
ag1016
asg26
I00
sg27
I00
sg28
I3402879
sg19
S'10032.6379529'
p2219
sba(igraph
Edge
p2220
(dp2221
g7
I1
sg8
I00
sg9
I5
sg10
(lp2222
g950
ag1016
asg26
I00
sg27
I00
sg28
I3402880
sg19
S'10032.6553263'
p2223
sba(igraph
Edge
p2224
(dp2225
g7
I1
sg8
I00
sg9
I5
sg10
(lp2226
g957
ag1030
asg26
I00
sg27
I00
sg28
I3402881
sg19
S'10032.6728475'
p2227
sba(igraph
Edge
p2228
(dp2229
g7
I1
sg8
I00
sg9
I5
sg10
(lp2230
g964
ag1030
asg26
I00
sg27
I00
sg28
I3402882
sg19
S'10032.6901768'
p2231
sba(igraph
Edge
p2232
(dp2233
g7
I1
sg8
I00
sg9
I5
sg10
(lp2234
g971
ag1044
asg26
I00
sg27
I00
sg28
I3402883
sg19
S'10032.7074273'
p2235
sba(igraph
Edge
p2236
(dp2237
g7
I1
sg8
I00
sg9
I5
sg10
(lp2238
g978
ag1044
asg26
I00
sg27
I00
sg28
I3402884
sg19
S'10032.7248424'
p2239
sba(igraph
Edge
p2240
(dp2241
g7
I1
sg8
I00
sg9
I5
sg10
(lp2242
g985
ag1058
asg26
I00
sg27
I00
sg28
I3402885
sg19
S'10032.7420826'
p2243
sba(igraph
Edge
p2244
(dp2245
g7
I1
sg8
I00
sg9
I5
sg10
(lp2246
g992
ag1058
asg26
I00
sg27
I00
sg28
I3402886
sg19
S'10032.759399'
p2247
sba(igraph
Edge
p2248
(dp2249
g7
I1
sg8
I00
sg9
I5
sg10
(lp2250
g999
ag1072
asg26
I00
sg27
I00
sg28
I3402887
sg19
S'10032.7767395'
p2251
sba(igraph
Edge
p2252
(dp2253
g7
I1
sg8
I00
sg9
I5
sg10
(lp2254
g1006
ag1072
asg26
I00
sg27
I00
sg28
I3402888
sg19
S'10032.7940716'
p2255
sba(igraph
Edge
p2256
(dp2257
g7
I1
sg8
I00
sg9
I5
sg10
(lp2258
g947
ag1013
asg26
I00
sg27
I00
sg28
I3402889
sg19
S'10032.9366271'
p2259
sba(igraph
Edge
p2260
(dp2261
g7
I1
sg8
I00
sg9
I5
sg10
(lp2262
g950
ag1023
asg26
I00
sg27
I00
sg28
I3402890
sg19
S'10032.9543082'
p2263
sba(igraph
Edge
p2264
(dp2265
g7
I1
sg8
I00
sg9
I5
sg10
(lp2266
g957
ag1023
asg26
I00
sg27
I00
sg28
I3402891
sg19
S'10032.9718671'
p2267
sba(igraph
Edge
p2268
(dp2269
g7
I1
sg8
I00
sg9
I5
sg10
(lp2270
g964
ag1037
asg26
I00
sg27
I00
sg28
I3402892
sg19
S'10032.9893573'
p2271
sba(igraph
Edge
p2272
(dp2273
g7
I1
sg8
I00
sg9
I5
sg10
(lp2274
g971
ag1037
asg26
I00
sg27
I00
sg28
I3402893
sg19
S'10033.0069707'
p2275
sba(igraph
Edge
p2276
(dp2277
g7
I1
sg8
I00
sg9
I5
sg10
(lp2278
g978
ag1051
asg26
I00
sg27
I00
sg28
I3402894
sg19
S'10033.0266232'
p2279
sba(igraph
Edge
p2280
(dp2281
g7
I1
sg8
I00
sg9
I5
sg10
(lp2282
g985
ag1051
asg26
I00
sg27
I00
sg28
I3402895
sg19
S'10033.0494605'
p2283
sba(igraph
Edge
p2284
(dp2285
g7
I1
sg8
I00
sg9
I5
sg10
(lp2286
g992
ag1065
asg26
I00
sg27
I00
sg28
I3402896
sg19
S'10033.0694893'
p2287
sba(igraph
Edge
p2288
(dp2289
g7
I1
sg8
I00
sg9
I5
sg10
(lp2290
g999
ag1065
asg26
I00
sg27
I00
sg28
I3402897
sg19
S'10033.0913999'
p2291
sba(igraph
Edge
p2292
(dp2293
g7
I1
sg8
I00
sg9
I5
sg10
(lp2294
g1072
ag1013
asg26
I00
sg27
I00
sg28
I3402898
sg19
S'10879.1763654'
p2295
sba(igraph
Edge
p2296
(dp2297
g7
I1
sg8
I00
sg9
I5
sg10
(lp2298
g1013
ag1006
asg26
I00
sg27
I00
sg28
I3402899
sg19
S'10881.3029282'
p2299
sba(igraph
Edge
p2300
(dp2301
g7
I1
sg8
I00
sg9
I5
sg10
(lp2302
g1006
ag947
asg26
I00
sg27
I00
sg28
I3402900
sg19
S'10883.9969608'
p2303
sba(igraph
Edge
p2304
(dp2305
g7
I1
sg8
I00
sg9
I5
sg10
(lp2306
g947
ag940
asg26
I00
sg27
I00
sg28
I3402901
sg19
S'10886.1269893'
p2307
sba(igraph
Edge
p2308
(dp2309
g7
I1
sg8
I00
sg9
I5
sg10
(lp2310
g940
ag881
asg26
I00
sg27
I00
sg28
I3402902
sg19
S'10888.6825502'
p2311
sba(igraph
Edge
p2312
(dp2313
g7
I1
sg8
I00
sg9
I5
sg10
(lp2314
g881
ag874
asg26
I00
sg27
I00
sg28
I3402903
sg19
S'10891.1921915'
p2315
sba(igraph
Edge
p2316
(dp2317
g7
I1
sg8
I00
sg9
I5
sg10
(lp2318
g874
ag815
asg26
I00
sg27
I00
sg28
I3402904
sg19
S'10893.7424606'
p2319
sba(igraph
Edge
p2320
(dp2321
g7
I1
sg8
I00
sg9
I5
sg10
(lp2322
g815
ag808
asg26
I00
sg27
I00
sg28
I3402905
sg19
S'10895.8166381'
p2323
sba(igraph
Edge
p2324
(dp2325
g7
I1
sg8
I00
sg9
I5
sg10
(lp2326
g808
ag749
asg26
I00
sg27
I00
sg28
I3402906
sg19
S'10897.9856663'
p2327
sba(igraph
Edge
p2328
(dp2329
g7
I1
sg8
I00
sg9
I5
sg10
(lp2330
g749
ag742
asg26
I00
sg27
I00
sg28
I3402907
sg19
S'10900.2632519'
p2331
sba(igraph
Edge
p2332
(dp2333
g7
I1
sg8
I00
sg9
I5
sg10
(lp2334
g742
ag683
asg26
I00
sg27
I00
sg28
I3402908
sg19
S'10902.9720791'
p2335
sba(igraph
Edge
p2336
(dp2337
g7
I1
sg8
I00
sg9
I5
sg10
(lp2338
g683
ag676
asg26
I00
sg27
I00
sg28
I3402909
sg19
S'10905.4039653'
p2339
sba(igraph
Edge
p2340
(dp2341
g7
I1
sg8
I00
sg9
I5
sg10
(lp2342
g676
ag617
asg26
I00
sg27
I00
sg28
I3402910
sg19
S'10907.7678568'
p2343
sba(igraph
Edge
p2344
(dp2345
g7
I1
sg8
I00
sg9
I5
sg10
(lp2346
g617
ag610
asg26
I00
sg27
I00
sg28
I3402911
sg19
S'10910.3841092'
p2347
sba(igraph
Edge
p2348
(dp2349
g7
I1
sg8
I00
sg9
I5
sg10
(lp2350
g610
ag551
asg26
I00
sg27
I00
sg28
I3402912
sg19
S'10912.7214182'
p2351
sba(igraph
Edge
p2352
(dp2353
g7
I1
sg8
I00
sg9
I5
sg10
(lp2354
g551
ag544
asg26
I00
sg27
I00
sg28
I3402913
sg19
S'10914.4992827'
p2355
sba(igraph
Edge
p2356
(dp2357
g7
I1
sg8
I00
sg9
I5
sg10
(lp2358
g544
ag485
asg26
I00
sg27
I00
sg28
I3402914
sg19
S'10916.6039868'
p2359
sba(igraph
Edge
p2360
(dp2361
g7
I1
sg8
I00
sg9
I5
sg10
(lp2362
g485
ag478
asg26
I00
sg27
I00
sg28
I3402915
sg19
S'10918.3570133'
p2363
sba(igraph
Edge
p2364
(dp2365
g7
I1
sg8
I00
sg9
I5
sg10
(lp2366
g478
ag419
asg26
I00
sg27
I00
sg28
I3402916
sg19
S'10921.1296668'
p2367
sba(igraph
Edge
p2368
(dp2369
g7
I1
sg8
I00
sg9
I5
sg10
(lp2370
g419
ag412
asg26
I00
sg27
I00
sg28
I3402917
sg19
S'10922.9068655'
p2371
sba(igraph
Edge
p2372
(dp2373
g7
I1
sg8
I00
sg9
I5
sg10
(lp2374
g412
ag353
asg26
I00
sg27
I00
sg28
I3402918
sg19
S'10925.8138783'
p2375
sba(igraph
Edge
p2376
(dp2377
g7
I1
sg8
I00
sg9
I5
sg10
(lp2378
g353
ag346
asg26
I00
sg27
I00
sg28
I3402919
sg19
S'10927.8799266'
p2379
sba(igraph
Edge
p2380
(dp2381
g7
I1
sg8
I00
sg9
I5
sg10
(lp2382
g346
ag287
asg26
I00
sg27
I00
sg28
I3402920
sg19
S'10929.9992035'
p2383
sba(igraph
Edge
p2384
(dp2385
g7
I1
sg8
I00
sg9
I5
sg10
(lp2386
g287
ag280
asg26
I00
sg27
I00
sg28
I3402921
sg19
S'10931.9707837'
p2387
sba(igraph
Edge
p2388
(dp2389
g7
I1
sg8
I00
sg9
I5
sg10
(lp2390
g280
ag221
asg26
I00
sg27
I00
sg28
I3402922
sg19
S'10934.0722245'
p2391
sba(igraph
Edge
p2392
(dp2393
g7
I1
sg8
I00
sg9
I5
sg10
(lp2394
g221
ag214
asg26
I00
sg27
I00
sg28
I3402923
sg19
S'10936.4815766'
p2395
sba(igraph
Edge
p2396
(dp2397
g7
I1
sg8
I00
sg9
I5
sg10
(lp2398
g214
ag155
asg26
I00
sg27
I00
sg28
I3402924
sg19
S'10938.4186278'
p2399
sba(igraph
Edge
p2400
(dp2401
g7
I1
sg8
I00
sg9
I5
sg10
(lp2402
g155
ag148
asg26
I00
sg27
I00
sg28
I3402925
sg19
S'10940.3811834'
p2403
sba(igraph
Edge
p2404
(dp2405
g7
I1
sg8
I00
sg9
I5
sg10
(lp2406
g148
ag89
asg26
I00
sg27
I00
sg28
I3402926
sg19
S'10942.9242909'
p2407
sba(igraph
Edge
p2408
(dp2409
g7
I1
sg8
I00
sg9
I5
sg10
(lp2410
g89
ag82
asg26
I00
sg27
I00
sg28
I3402927
sg19
S'10944.9646212'
p2411
sba(igraph
Edge
p2412
(dp2413
g7
I1
sg8
I00
sg9
I5
sg10
(lp2414
g82
ag12
asg26
I00
sg27
I00
sg28
I3402928
sg19
S'10946.8307497'
p2415
sba(igraph
Edge
p2416
(dp2417
g7
I1
sg8
I00
sg9
I5
sg10
(lp2418
g12
ag1072
asg26
I00
sg27
I00
sg28
I3402929
sg19
S'10949.4580104'
p2419
sbasS'vertices'
p2420
(lp2421
g12
ag22
ag33
ag40
ag47
ag54
ag61
ag68
ag75
ag82
ag89
ag92
ag99
ag106
ag113
ag120
ag127
ag134
ag141
ag148
ag155
ag158
ag165
ag172
ag179
ag186
ag193
ag200
ag207
ag214
ag221
ag224
ag231
ag238
ag245
ag252
ag259
ag266
ag273
ag280
ag287
ag290
ag297
ag304
ag311
ag318
ag325
ag332
ag339
ag346
ag353
ag356
ag363
ag370
ag377
ag384
ag391
ag398
ag405
ag412
ag419
ag422
ag429
ag436
ag443
ag450
ag457
ag464
ag471
ag478
ag485
ag488
ag495
ag502
ag509
ag516
ag523
ag530
ag537
ag544
ag551
ag554
ag561
ag568
ag575
ag582
ag589
ag596
ag603
ag610
ag617
ag620
ag627
ag634
ag641
ag648
ag655
ag662
ag669
ag676
ag683
ag686
ag693
ag700
ag707
ag714
ag721
ag728
ag735
ag742
ag749
ag752
ag759
ag766
ag773
ag780
ag787
ag794
ag801
ag808
ag815
ag818
ag825
ag832
ag839
ag846
ag853
ag860
ag867
ag874
ag881
ag884
ag891
ag898
ag905
ag912
ag919
ag926
ag933
ag940
ag947
ag950
ag957
ag964
ag971
ag978
ag985
ag992
ag999
ag1006
ag1013
ag1016
ag1023
ag1030
ag1037
ag1044
ag1051
ag1058
ag1065
ag1072
asS'tags'
p2422
(lp2423
sb.