(igraph
Graph
p0
(dp1
S'labelingConstraints'
p2
I-1
sS'edges'
p3
(lp4
(igraph
Edge
p5
(dp6
S'direction'
p7
I1
sS'selected'
p8
I00
sS'height'
p9
I5
sS'vs'
p10
(lp11
(igraph
Vertex
p12
(dp13
S'xnorm'
p14
F0.0
sg8
I00
sS'label'
p15
S'NULL'
p16
sS'y'
p17
F-278.0
sS'x'
p18
F206.0
sS'circle'
p19
I5054318
sS'id'
p20
S'11971.3809674'
p21
sS'ynorm'
p22
F0.0
sba(igraph
Vertex
p23
(dp24
g14
F0.0625
sg8
I01
sg15
I0
sg17
F-278.0
sg18
F175.1875
sg19
I5054320
sg20
S'11971.3809906'
p25
sg22
F0.0
sbasS'wrap'
p26
I00
sS'curved'
p27
I00
sS'line'
p28
I5053859
sg20
S'11971.4778582'
p29
sba(igraph
Edge
p30
(dp31
g7
I1
sg8
I00
sg9
I5
sg10
(lp32
g23
a(igraph
Vertex
p33
(dp34
g14
F0.125
sg8
I00
sg15
g16
sg17
F-278.0
sg18
F144.375
sg19
I5054322
sg20
S'11971.3810129'
p35
sg22
F0.0
sbasg26
I00
sg27
I00
sg28
I5053860
sg20
S'11971.4779183'
p36
sba(igraph
Edge
p37
(dp38
g7
I1
sg8
I00
sg9
I5
sg10
(lp39
g33
a(igraph
Vertex
p40
(dp41
g14
F0.1875
sg8
I01
sg15
I0
sg17
F-278.0
sg18
F113.5625
sg19
I5054324
sg20
S'11971.3810389'
p42
sg22
F0.0
sbasg26
I00
sg27
I00
sg28
I5053861
sg20
S'11971.4779968'
p43
sba(igraph
Edge
p44
(dp45
g7
I1
sg8
I00
sg9
I5
sg10
(lp46
g40
a(igraph
Vertex
p47
(dp48
g14
F0.25
sg8
I00
sg15
g16
sg17
F-278.0
sg18
F82.75
sg19
I5054326
sg20
S'11971.3810725'
p49
sg22
F0.0
sbasg26
I00
sg27
I00
sg28
I5053862
sg20
S'11971.4780971'
p50
sba(igraph
Edge
p51
(dp52
g7
I1
sg8
I00
sg9
I5
sg10
(lp53
g47
a(igraph
Vertex
p54
(dp55
g14
F0.3125
sg8
I00
sg15
g16
sg17
F-278.0
sg18
F51.9375
sg19
I5054327
sg20
S'11971.381113'
p56
sg22
F0.0
sbasg26
I00
sg27
I00
sg28
I5053863
sg20
S'11971.4782186'
p57
sba(igraph
Edge
p58
(dp59
g7
I1
sg8
I00
sg9
I5
sg10
(lp60
g54
a(igraph
Vertex
p61
(dp62
g14
F0.375
sg8
I00
sg15
g16
sg17
F-278.0
sg18
F21.125
sg19
I5054328
sg20
S'11971.381163'
p63
sg22
F0.0
sbasg26
I00
sg27
I00
sg28
I5053864
sg20
S'11971.4783622'
p64
sba(igraph
Edge
p65
(dp66
g7
I1
sg8
I00
sg9
I5
sg10
(lp67
g61
a(igraph
Vertex
p68
(dp69
g14
F0.4375
sg8
I00
sg15
g16
sg17
F-278.0
sg18
F-9.6875
sg19
I5054329
sg20
S'11971.3812191'
p70
sg22
F0.0
sbasg26
I00
sg27
I00
sg28
I5053865
sg20
S'11971.4785276'
p71
sba(igraph
Edge
p72
(dp73
g7
I1
sg8
I00
sg9
I5
sg10
(lp74
g68
a(igraph
Vertex
p75
(dp76
g14
F0.5
sg8
I00
sg15
g16
sg17
F-278.0
sg18
F-40.5
sg19
I5054330
sg20
S'11971.3812828'
p77
sg22
F0.0
sbasg26
I00
sg27
I00
sg28
I5053866
sg20
S'11971.4787136'
p78
sba(igraph
Edge
p79
(dp80
g7
I1
sg8
I00
sg9
I5
sg10
(lp81
g75
a(igraph
Vertex
p82
(dp83
g14
F0.5625
sg8
I00
sg15
g16
sg17
F-278.0
sg18
F-71.3125
sg19
I5054331
sg20
S'11971.3813812'
p84
sg22
F0.0
sbasg26
I00
sg27
I00
sg28
I5053867
sg20
S'11971.4789218'
p85
sba(igraph
Edge
p86
(dp87
g7
I1
sg8
I00
sg9
I5
sg10
(lp88
g82
a(igraph
Vertex
p89
(dp90
g14
F0.625
sg8
I00
sg15
g16
sg17
F-278.0
sg18
F-102.125
sg19
I5054332
sg20
S'11971.3814624'
p91
sg22
F0.0
sbasg26
I00
sg27
I00
sg28
I5053868
sg20
S'11971.4791548'
p92
sba(igraph
Edge
p93
(dp94
g7
I1
sg8
I00
sg9
I5
sg10
(lp95
g89
a(igraph
Vertex
p96
(dp97
g14
F0.6875
sg8
I00
sg15
g16
sg17
F-278.0
sg18
F-132.9375
sg19
I5054333
sg20
S'11971.3815502'
p98
sg22
F0.0
sbasg26
I00
sg27
I00
sg28
I5053869
sg20
S'11971.4794081'
p99
sba(igraph
Edge
p100
(dp101
g7
I1
sg8
I00
sg9
I5
sg10
(lp102
g96
a(igraph
Vertex
p103
(dp104
g14
F0.75
sg8
I00
sg15
g16
sg17
F-278.0
sg18
F-163.75
sg19
I5054334
sg20
S'11971.3816513'
p105
sg22
F0.0
sbasg26
I00
sg27
I00
sg28
I5053870
sg20
S'11971.4796833'
p106
sba(igraph
Edge
p107
(dp108
g7
I1
sg8
I00
sg9
I5
sg10
(lp109
g103
a(igraph
Vertex
p110
(dp111
g14
F0.8125
sg8
I00
sg15
g16
sg17
F-278.0
sg18
F-194.5625
sg19
I5054335
sg20
S'11971.3817533'
p112
sg22
F0.0
sbasg26
I00
sg27
I00
sg28
I5053871
sg20
S'11971.4799803'
p113
sba(igraph
Edge
p114
(dp115
g7
I1
sg8
I00
sg9
I5
sg10
(lp116
g110
a(igraph
Vertex
p117
(dp118
g14
F0.875
sg8
I00
sg15
g16
sg17
F-278.0
sg18
F-225.375
sg19
I5054336
sg20
S'11971.3818633'
p119
sg22
F0.0
sbasg26
I00
sg27
I00
sg28
I5053872
sg20
S'11971.4802993'
p120
sba(igraph
Edge
p121
(dp122
g7
I1
sg8
I00
sg9
I5
sg10
(lp123
g117
a(igraph
Vertex
p124
(dp125
g14
F0.9375
sg8
I00
sg15
g16
sg17
F-278.0
sg18
F-256.1875
sg19
I5054337
sg20
S'11971.3819812'
p126
sg22
F0.0
sbasg26
I00
sg27
I00
sg28
I5053873
sg20
S'11971.4806407'
p127
sba(igraph
Edge
p128
(dp129
g7
I1
sg8
I00
sg9
I5
sg10
(lp130
g124
a(igraph
Vertex
p131
(dp132
g14
F1.0
sg8
I00
sg15
g16
sg17
F-278.0
sg18
F-287.0
sg19
I5054338
sg20
S'11971.3821067'
p133
sg22
F0.0
sbasg26
I00
sg27
I00
sg28
I5053874
sg20
S'11971.4810014'
p134
sba(igraph
Edge
p135
(dp136
g7
I1
sg8
I00
sg9
I5
sg10
(lp137
g131
ag12
asg26
I00
sg27
I00
sg28
I5053875
sg20
S'11971.4813821'
p138
sba(igraph
Edge
p139
(dp140
g7
I1
sg8
I00
sg9
I5
sg10
(lp141
(igraph
Vertex
p142
(dp143
g14
F0.0
sg8
I00
sg15
g16
sg17
F-220.125
sg18
F206.0
sg19
I5054339
sg20
S'11971.3822391'
p144
sg22
F0.125
sba(igraph
Vertex
p145
(dp146
g14
F0.0625
sg8
I00
sg15
g16
sg17
F-220.125
sg18
F175.1875
sg19
I5054340
sg20
S'11971.3823855'
p147
sg22
F0.125
sbasg26
I00
sg27
I00
sg28
I5053876
sg20
S'11971.4817883'
p148
sba(igraph
Edge
p149
(dp150
g7
I1
sg8
I00
sg9
I5
sg10
(lp151
g145
a(igraph
Vertex
p152
(dp153
g14
F0.125
sg8
I00
sg15
g16
sg17
F-220.125
sg18
F144.375
sg19
I5054341
sg20
S'11971.3825363'
p154
sg22
F0.125
sbasg26
I00
sg27
I00
sg28
I5053877
sg20
S'11971.4822138'
p155
sba(igraph
Edge
p156
(dp157
g7
I1
sg8
I00
sg9
I5
sg10
(lp158
g152
a(igraph
Vertex
p159
(dp160
g14
F0.1875
sg8
I00
sg15
g16
sg17
F-220.125
sg18
F113.5625
sg19
I5054342
sg20
S'11971.3826936'
p161
sg22
F0.125
sbasg26
I00
sg27
I00
sg28
I5053878
sg20
S'11971.4826608'
p162
sba(igraph
Edge
p163
(dp164
g7
I1
sg8
I00
sg9
I5
sg10
(lp165
g159
a(igraph
Vertex
p166
(dp167
g14
F0.25
sg8
I00
sg15
g16
sg17
F-220.125
sg18
F82.75
sg19
I5054343
sg20
S'11971.3828671'
p168
sg22
F0.125
sbasg26
I00
sg27
I00
sg28
I5053879
sg20
S'11971.483165'
p169
sba(igraph
Edge
p170
(dp171
g7
I1
sg8
I00
sg9
I5
sg10
(lp172
g166
a(igraph
Vertex
p173
(dp174
g14
F0.3125
sg8
I00
sg15
g16
sg17
F-220.125
sg18
F51.9375
sg19
I5054344
sg20
S'11971.3830423'
p175
sg22
F0.125
sbasg26
I00
sg27
I00
sg28
I5053880
sg20
S'11971.4836576'
p176
sba(igraph
Edge
p177
(dp178
g7
I1
sg8
I00
sg9
I5
sg10
(lp179
g173
a(igraph
Vertex
p180
(dp181
g14
F0.375
sg8
I00
sg15
g16
sg17
F-220.125
sg18
F21.125
sg19
I5054345
sg20
S'11971.3832241'
p182
sg22
F0.125
sbasg26
I00
sg27
I00
sg28
I5053881
sg20
S'11971.4841694'
p183
sba(igraph
Edge
p184
(dp185
g7
I1
sg8
I00
sg9
I5
sg10
(lp186
g180
a(igraph
Vertex
p187
(dp188
g14
F0.4375
sg8
I00
sg15
g16
sg17
F-220.125
sg18
F-9.6875
sg19
I5054346
sg20
S'11971.3834499'
p189
sg22
F0.125
sbasg26
I00
sg27
I00
sg28
I5053882
sg20
S'11971.4847046'
p190
sba(igraph
Edge
p191
(dp192
g7
I1
sg8
I00
sg9
I5
sg10
(lp193
g187
a(igraph
Vertex
p194
(dp195
g14
F0.5
sg8
I00
sg15
g16
sg17
F-220.125
sg18
F-40.5
sg19
I5054347
sg20
S'11971.3836532'
p196
sg22
F0.125
sbasg26
I00
sg27
I00
sg28
I5053883
sg20
S'11971.4852608'
p197
sba(igraph
Edge
p198
(dp199
g7
I1
sg8
I00
sg9
I5
sg10
(lp200
g194
a(igraph
Vertex
p201
(dp202
g14
F0.5625
sg8
I00
sg15
g16
sg17
F-220.125
sg18
F-71.3125
sg19
I5054348
sg20
S'11971.3838608'
p203
sg22
F0.125
sbasg26
I00
sg27
I00
sg28
I5053884
sg20
S'11971.4858374'
p204
sba(igraph
Edge
p205
(dp206
g7
I1
sg8
I00
sg9
I5
sg10
(lp207
g201
a(igraph
Vertex
p208
(dp209
g14
F0.625
sg8
I00
sg15
g16
sg17
F-220.125
sg18
F-102.125
sg19
I5054349
sg20
S'11971.3840756'
p210
sg22
F0.125
sbasg26
I00
sg27
I00
sg28
I5053885
sg20
S'11971.4864389'
p211
sba(igraph
Edge
p212
(dp213
g7
I1
sg8
I00
sg9
I5
sg10
(lp214
g208
a(igraph
Vertex
p215
(dp216
g14
F0.6875
sg8
I00
sg15
g16
sg17
F-220.125
sg18
F-132.9375
sg19
I5054350
sg20
S'11971.384298'
p217
sg22
F0.125
sbasg26
I00
sg27
I00
sg28
I5053886
sg20
S'11971.4870613'
p218
sba(igraph
Edge
p219
(dp220
g7
I1
sg8
I00
sg9
I5
sg10
(lp221
g215
a(igraph
Vertex
p222
(dp223
g14
F0.75
sg8
I00
sg15
g16
sg17
F-220.125
sg18
F-163.75
sg19
I5054351
sg20
S'11971.384526'
p224
sg22
F0.125
sbasg26
I00
sg27
I00
sg28
I5053887
sg20
S'11971.4877042'
p225
sba(igraph
Edge
p226
(dp227
g7
I1
sg8
I00
sg9
I5
sg10
(lp228
g222
a(igraph
Vertex
p229
(dp230
g14
F0.8125
sg8
I00
sg15
g16
sg17
F-220.125
sg18
F-194.5625
sg19
I5054352
sg20
S'11971.3847615'
p231
sg22
F0.125
sbasg26
I00
sg27
I00
sg28
I5053888
sg20
S'11971.4883704'
p232
sba(igraph
Edge
p233
(dp234
g7
I1
sg8
I00
sg9
I5
sg10
(lp235
g229
a(igraph
Vertex
p236
(dp237
g14
F0.875
sg8
I00
sg15
g16
sg17
F-220.125
sg18
F-225.375
sg19
I5054353
sg20
S'11971.3850062'
p238
sg22
F0.125
sbasg26
I00
sg27
I00
sg28
I5053889
sg20
S'11971.4890574'
p239
sba(igraph
Edge
p240
(dp241
g7
I1
sg8
I00
sg9
I5
sg10
(lp242
g236
a(igraph
Vertex
p243
(dp244
g14
F0.9375
sg8
I00
sg15
g16
sg17
F-220.125
sg18
F-256.1875
sg19
I5054354
sg20
S'11971.3852585'
p245
sg22
F0.125
sbasg26
I00
sg27
I00
sg28
I5053890
sg20
S'11971.4897667'
p246
sba(igraph
Edge
p247
(dp248
g7
I1
sg8
I00
sg9
I5
sg10
(lp249
g243
a(igraph
Vertex
p250
(dp251
g14
F1.0
sg8
I00
sg15
g16
sg17
F-220.125
sg18
F-287.0
sg19
I5054355
sg20
S'11971.3855211'
p252
sg22
F0.125
sbasg26
I00
sg27
I00
sg28
I5053891
sg20
S'11971.4904975'
p253
sba(igraph
Edge
p254
(dp255
g7
I1
sg8
I00
sg9
I5
sg10
(lp256
g250
ag142
asg26
I00
sg27
I00
sg28
I5053892
sg20
S'11971.4912487'
p257
sba(igraph
Edge
p258
(dp259
g7
I1
sg8
I00
sg9
I5
sg10
(lp260
(igraph
Vertex
p261
(dp262
g14
F0.0
sg8
I00
sg15
g16
sg17
F-162.25
sg18
F206.0
sg19
I5054356
sg20
S'11971.3857851'
p263
sg22
F0.25
sba(igraph
Vertex
p264
(dp265
g14
F0.0625
sg8
I00
sg15
g16
sg17
F-162.25
sg18
F175.1875
sg19
I5054357
sg20
S'11971.3860586'
p266
sg22
F0.25
sbasg26
I00
sg27
I00
sg28
I5053893
sg20
S'11971.4920229'
p267
sba(igraph
Edge
p268
(dp269
g7
I1
sg8
I00
sg9
I5
sg10
(lp270
g264
a(igraph
Vertex
p271
(dp272
g14
F0.125
sg8
I00
sg15
g16
sg17
F-162.25
sg18
F144.375
sg19
I5054358
sg20
S'11971.3863393'
p273
sg22
F0.25
sbasg26
I00
sg27
I00
sg28
I5053894
sg20
S'11971.4928188'
p274
sba(igraph
Edge
p275
(dp276
g7
I1
sg8
I00
sg9
I5
sg10
(lp277
g271
a(igraph
Vertex
p278
(dp279
g14
F0.1875
sg8
I00
sg15
g16
sg17
F-162.25
sg18
F113.5625
sg19
I5054359
sg20
S'11971.3866285'
p280
sg22
F0.25
sbasg26
I00
sg27
I00
sg28
I5053895
sg20
S'11971.493637'
p281
sba(igraph
Edge
p282
(dp283
g7
I1
sg8
I00
sg9
I5
sg10
(lp284
g278
a(igraph
Vertex
p285
(dp286
g14
F0.25
sg8
I00
sg15
I0
sg17
F-162.25
sg18
F82.75
sg19
I5054360
sg20
S'11971.3869257'
p287
sg22
F0.25
sbasg26
I00
sg27
I00
sg28
I5053896
sg20
S'11971.4945165'
p288
sba(igraph
Edge
p289
(dp290
g7
I1
sg8
I00
sg9
I5
sg10
(lp291
g285
a(igraph
Vertex
p292
(dp293
g14
F0.3125
sg8
I00
sg15
g16
sg17
F-162.25
sg18
F51.9375
sg19
I5054362
sg20
S'11971.3872311'
p294
sg22
F0.25
sbasg26
I00
sg27
I00
sg28
I5053897
sg20
S'11971.4953811'
p295
sba(igraph
Edge
p296
(dp297
g7
I1
sg8
I00
sg9
I5
sg10
(lp298
g292
a(igraph
Vertex
p299
(dp300
g14
F0.375
sg8
I00
sg15
g16
sg17
F-162.25
sg18
F21.125
sg19
I5054363
sg20
S'11971.3875439'
p301
sg22
F0.25
sbasg26
I00
sg27
I00
sg28
I5053898
sg20
S'11971.4962636'
p302
sba(igraph
Edge
p303
(dp304
g7
I1
sg8
I00
sg9
I5
sg10
(lp305
g299
a(igraph
Vertex
p306
(dp307
g14
F0.4375
sg8
I00
sg15
g16
sg17
F-162.25
sg18
F-9.6875
sg19
I5054364
sg20
S'11971.3878666'
p308
sg22
F0.25
sbasg26
I00
sg27
I00
sg28
I5053899
sg20
S'11971.4971691'
p309
sba(igraph
Edge
p310
(dp311
g7
I1
sg8
I00
sg9
I5
sg10
(lp312
g306
a(igraph
Vertex
p313
(dp314
g14
F0.5
sg8
I00
sg15
g16
sg17
F-162.25
sg18
F-40.5
sg19
I5054365
sg20
S'11971.3881988'
p315
sg22
F0.25
sbasg26
I00
sg27
I00
sg28
I5053900
sg20
S'11971.4980935'
p316
sba(igraph
Edge
p317
(dp318
g7
I1
sg8
I00
sg9
I5
sg10
(lp319
g313
a(igraph
Vertex
p320
(dp321
g14
F0.5625
sg8
I00
sg15
g16
sg17
F-162.25
sg18
F-71.3125
sg19
I5054366
sg20
S'11971.3885444'
p322
sg22
F0.25
sbasg26
I00
sg27
I00
sg28
I5053901
sg20
S'11971.4990436'
p323
sba(igraph
Edge
p324
(dp325
g7
I1
sg8
I00
sg9
I5
sg10
(lp326
g320
a(igraph
Vertex
p327
(dp328
g14
F0.625
sg8
I00
sg15
g16
sg17
F-162.25
sg18
F-102.125
sg19
I5054367
sg20
S'11971.3888924'
p329
sg22
F0.25
sbasg26
I00
sg27
I00
sg28
I5053902
sg20
S'11971.5000124'
p330
sba(igraph
Edge
p331
(dp332
g7
I1
sg8
I00
sg9
I5
sg10
(lp333
g327
a(igraph
Vertex
p334
(dp335
g14
F0.6875
sg8
I00
sg15
g16
sg17
F-162.25
sg18
F-132.9375
sg19
I5054368
sg20
S'11971.3892456'
p336
sg22
F0.25
sbasg26
I00
sg27
I00
sg28
I5053903
sg20
S'11971.5009994'
p337
sba(igraph
Edge
p338
(dp339
g7
I1
sg8
I00
sg9
I5
sg10
(lp340
g334
a(igraph
Vertex
p341
(dp342
g14
F0.75
sg8
I00
sg15
g16
sg17
F-162.25
sg18
F-163.75
sg19
I5054369
sg20
S'11971.3896071'
p343
sg22
F0.25
sbasg26
I00
sg27
I00
sg28
I5053904
sg20
S'11971.5020068'
p344
sba(igraph
Edge
p345
(dp346
g7
I1
sg8
I00
sg9
I5
sg10
(lp347
g341
a(igraph
Vertex
p348
(dp349
g14
F0.8125
sg8
I00
sg15
g16
sg17
F-162.25
sg18
F-194.5625
sg19
I5054370
sg20
S'11971.3899783'
p350
sg22
F0.25
sbasg26
I00
sg27
I00
sg28
I5053905
sg20
S'11971.5030368'
p351
sba(igraph
Edge
p352
(dp353
g7
I1
sg8
I00
sg9
I5
sg10
(lp354
g348
a(igraph
Vertex
p355
(dp356
g14
F0.875
sg8
I00
sg15
g16
sg17
F-162.25
sg18
F-225.375
sg19
I5054371
sg20
S'11971.3903611'
p357
sg22
F0.25
sbasg26
I00
sg27
I00
sg28
I5053906
sg20
S'11971.504092'
p358
sba(igraph
Edge
p359
(dp360
g7
I1
sg8
I00
sg9
I5
sg10
(lp361
g355
a(igraph
Vertex
p362
(dp363
g14
F0.9375
sg8
I00
sg15
g16
sg17
F-162.25
sg18
F-256.1875
sg19
I5054372
sg20
S'11971.3907471'
p364
sg22
F0.25
sbasg26
I00
sg27
I00
sg28
I5053907
sg20
S'11971.5051664'
p365
sba(igraph
Edge
p366
(dp367
g7
I1
sg8
I00
sg9
I5
sg10
(lp368
g362
a(igraph
Vertex
p369
(dp370
g14
F1.0
sg8
I00
sg15
g16
sg17
F-162.25
sg18
F-287.0
sg19
I5054373
sg20
S'11971.3911408'
p371
sg22
F0.25
sbasg26
I00
sg27
I00
sg28
I5053908
sg20
S'11971.5063294'
p372
sba(igraph
Edge
p373
(dp374
g7
I1
sg8
I00
sg9
I5
sg10
(lp375
g369
ag261
asg26
I00
sg27
I00
sg28
I5053909
sg20
S'11971.5074681'
p376
sba(igraph
Edge
p377
(dp378
g7
I1
sg8
I00
sg9
I5
sg10
(lp379
(igraph
Vertex
p380
(dp381
g14
F0.0
sg8
I00
sg15
g16
sg17
F-104.375
sg18
F206.0
sg19
I5054374
sg20
S'11971.3915453'
p382
sg22
F0.375
sba(igraph
Vertex
p383
(dp384
g14
F0.0625
sg8
I00
sg15
g16
sg17
F-104.375
sg18
F175.1875
sg19
I5054375
sg20
S'11971.3919565'
p385
sg22
F0.375
sbasg26
I00
sg27
I00
sg28
I5053910
sg20
S'11971.5086219'
p386
sba(igraph
Edge
p387
(dp388
g7
I1
sg8
I00
sg9
I5
sg10
(lp389
g383
a(igraph
Vertex
p390
(dp391
g14
F0.125
sg8
I00
sg15
g16
sg17
F-104.375
sg18
F144.375
sg19
I5054376
sg20
S'11971.3923812'
p392
sg22
F0.375
sbasg26
I00
sg27
I00
sg28
I5053911
sg20
S'11971.5097916'
p393
sba(igraph
Edge
p394
(dp395
g7
I1
sg8
I00
sg9
I5
sg10
(lp396
g390
a(igraph
Vertex
p397
(dp398
g14
F0.1875
sg8
I00
sg15
g16
sg17
F-104.375
sg18
F113.5625
sg19
I5054377
sg20
S'11971.392805'
p399
sg22
F0.375
sbasg26
I00
sg27
I00
sg28
I5053912
sg20
S'11971.511006'
p400
sba(igraph
Edge
p401
(dp402
g7
I1
sg8
I00
sg9
I5
sg10
(lp403
g397
a(igraph
Vertex
p404
(dp405
g14
F0.25
sg8
I00
sg15
g16
sg17
F-104.375
sg18
F82.75
sg19
I5054378
sg20
S'11971.393243'
p406
sg22
F0.375
sbasg26
I00
sg27
I00
sg28
I5053913
sg20
S'11971.5122045'
p407
sba(igraph
Edge
p408
(dp409
g7
I1
sg8
I00
sg9
I5
sg10
(lp410
g404
a(igraph
Vertex
p411
(dp412
g14
F0.3125
sg8
I00
sg15
g16
sg17
F-104.375
sg18
F51.9375
sg19
I5054379
sg20
S'11971.3936836'
p413
sg22
F0.375
sbasg26
I00
sg27
I00
sg28
I5053914
sg20
S'11971.5134245'
p414
sba(igraph
Edge
p415
(dp416
g7
I1
sg8
I00
sg9
I5
sg10
(lp417
g411
a(igraph
Vertex
p418
(dp419
g14
F0.375
sg8
I00
sg15
I0
sg17
F-104.375
sg18
F21.125
sg19
I5054380
sg20
S'11971.3941347'
p420
sg22
F0.375
sbasg26
I00
sg27
I00
sg28
I5053915
sg20
S'11971.5146621'
p421
sba(igraph
Edge
p422
(dp423
g7
I1
sg8
I00
sg9
I5
sg10
(lp424
g418
a(igraph
Vertex
p425
(dp426
g14
F0.4375
sg8
I00
sg15
g16
sg17
F-104.375
sg18
F-9.6875
sg19
I5054382
sg20
S'11971.3945934'
p427
sg22
F0.375
sbasg26
I00
sg27
I00
sg28
I5053916
sg20
S'11971.5159253'
p428
sba(igraph
Edge
p429
(dp430
g7
I1
sg8
I00
sg9
I5
sg10
(lp431
g425
a(igraph
Vertex
p432
(dp433
g14
F0.5
sg8
I00
sg15
g16
sg17
F-104.375
sg18
F-40.5
sg19
I5054383
sg20
S'11971.3950597'
p434
sg22
F0.375
sbasg26
I00
sg27
I00
sg28
I5053917
sg20
S'11971.5172085'
p435
sba(igraph
Edge
p436
(dp437
g7
I1
sg8
I00
sg9
I5
sg10
(lp438
g432
a(igraph
Vertex
p439
(dp440
g14
F0.5625
sg8
I00
sg15
g16
sg17
F-104.375
sg18
F-71.3125
sg19
I5054384
sg20
S'11971.3955355'
p441
sg22
F0.375
sbasg26
I00
sg27
I00
sg28
I5053918
sg20
S'11971.5185156'
p442
sba(igraph
Edge
p443
(dp444
g7
I1
sg8
I00
sg9
I5
sg10
(lp445
g439
a(igraph
Vertex
p446
(dp447
g14
F0.625
sg8
I00
sg15
g16
sg17
F-104.375
sg18
F-102.125
sg19
I5054385
sg20
S'11971.3960204'
p448
sg22
F0.375
sbasg26
I00
sg27
I00
sg28
I5053919
sg20
S'11971.519842'
p449
sba(igraph
Edge
p450
(dp451
g7
I1
sg8
I00
sg9
I5
sg10
(lp452
g446
a(igraph
Vertex
p453
(dp454
g14
F0.6875
sg8
I00
sg15
g16
sg17
F-104.375
sg18
F-132.9375
sg19
I5054386
sg20
S'11971.3965085'
p455
sg22
F0.375
sbasg26
I00
sg27
I00
sg28
I5053920
sg20
S'11971.5211903'
p456
sba(igraph
Edge
p457
(dp458
g7
I1
sg8
I00
sg9
I5
sg10
(lp459
g453
a(igraph
Vertex
p460
(dp461
g14
F0.75
sg8
I00
sg15
g16
sg17
F-104.375
sg18
F-163.75
sg19
I5054387
sg20
S'11971.3970094'
p462
sg22
F0.375
sbasg26
I00
sg27
I00
sg28
I5053921
sg20
S'11971.52256'
p463
sba(igraph
Edge
p464
(dp465
g7
I1
sg8
I00
sg9
I5
sg10
(lp466
g460
a(igraph
Vertex
p467
(dp468
g14
F0.8125
sg8
I00
sg15
g16
sg17
F-104.375
sg18
F-194.5625
sg19
I5054388
sg20
S'11971.3975181'
p469
sg22
F0.375
sbasg26
I00
sg27
I00
sg28
I5053922
sg20
S'11971.523949'
p470
sba(igraph
Edge
p471
(dp472
g7
I1
sg8
I00
sg9
I5
sg10
(lp473
g467
a(igraph
Vertex
p474
(dp475
g14
F0.875
sg8
I00
sg15
g16
sg17
F-104.375
sg18
F-225.375
sg19
I5054389
sg20
S'11971.3980389'
p476
sg22
F0.375
sbasg26
I00
sg27
I00
sg28
I5053923
sg20
S'11971.5253601'
p477
sba(igraph
Edge
p478
(dp479
g7
I1
sg8
I00
sg9
I5
sg10
(lp480
g474
a(igraph
Vertex
p481
(dp482
g14
F0.9375
sg8
I00
sg15
g16
sg17
F-104.375
sg18
F-256.1875
sg19
I5054390
sg20
S'11971.398559'
p483
sg22
F0.375
sbasg26
I00
sg27
I00
sg28
I5053924
sg20
S'11971.5267904'
p484
sba(igraph
Edge
p485
(dp486
g7
I1
sg8
I00
sg9
I5
sg10
(lp487
g481
a(igraph
Vertex
p488
(dp489
g14
F1.0
sg8
I00
sg15
g16
sg17
F-104.375
sg18
F-287.0
sg19
I5054391
sg20
S'11971.3990884'
p490
sg22
F0.375
sbasg26
I00
sg27
I00
sg28
I5053925
sg20
S'11971.5282708'
p491
sba(igraph
Edge
p492
(dp493
g7
I1
sg8
I00
sg9
I5
sg10
(lp494
g488
ag380
asg26
I00
sg27
I00
sg28
I5053926
sg20
S'11971.5297455'
p495
sba(igraph
Edge
p496
(dp497
g7
I1
sg8
I00
sg9
I5
sg10
(lp498
(igraph
Vertex
p499
(dp500
g14
F0.0
sg8
I00
sg15
g16
sg17
F-46.5
sg18
F206.0
sg19
I5054392
sg20
S'11971.3996262'
p501
sg22
F0.5
sba(igraph
Vertex
p502
(dp503
g14
F0.0625
sg8
I00
sg15
g16
sg17
F-46.5
sg18
F175.1875
sg19
I5054393
sg20
S'11971.4001749'
p504
sg22
F0.5
sbasg26
I00
sg27
I00
sg28
I5053927
sg20
S'11971.5312399'
p505
sba(igraph
Edge
p506
(dp507
g7
I1
sg8
I00
sg9
I5
sg10
(lp508
g502
a(igraph
Vertex
p509
(dp510
g14
F0.125
sg8
I00
sg15
g16
sg17
F-46.5
sg18
F144.375
sg19
I5054394
sg20
S'11971.4007297'
p511
sg22
F0.5
sbasg26
I00
sg27
I00
sg28
I5053928
sg20
S'11971.5327568'
p512
sba(igraph
Edge
p513
(dp514
g7
I1
sg8
I00
sg9
I5
sg10
(lp515
g509
a(igraph
Vertex
p516
(dp517
g14
F0.1875
sg8
I00
sg15
g16
sg17
F-46.5
sg18
F113.5625
sg19
I5054395
sg20
S'11971.4012949'
p518
sg22
F0.5
sbasg26
I00
sg27
I00
sg28
I5053929
sg20
S'11971.5342942'
p519
sba(igraph
Edge
p520
(dp521
g7
I1
sg8
I00
sg9
I5
sg10
(lp522
g516
a(igraph
Vertex
p523
(dp524
g14
F0.25
sg8
I00
sg15
g16
sg17
F-46.5
sg18
F82.75
sg19
I5054396
sg20
S'11971.401953'
p525
sg22
F0.5
sbasg26
I00
sg27
I00
sg28
I5053930
sg20
S'11971.5358516'
p526
sba(igraph
Edge
p527
(dp528
g7
I1
sg8
I00
sg9
I5
sg10
(lp529
g523
a(igraph
Vertex
p530
(dp531
g14
F0.3125
sg8
I00
sg15
g16
sg17
F-46.5
sg18
F51.9375
sg19
I5054397
sg20
S'11971.4025509'
p532
sg22
F0.5
sbasg26
I00
sg27
I00
sg28
I5053931
sg20
S'11971.5374326'
p533
sba(igraph
Edge
p534
(dp535
g7
I1
sg8
I00
sg9
I5
sg10
(lp536
g530
a(igraph
Vertex
p537
(dp538
g14
F0.375
sg8
I00
sg15
g16
sg17
F-46.5
sg18
F21.125
sg19
I5054398
sg20
S'11971.4031406'
p539
sg22
F0.5
sbasg26
I00
sg27
I00
sg28
I5053932
sg20
S'11971.5393582'
p540
sba(igraph
Edge
p541
(dp542
g7
I1
sg8
I00
sg9
I5
sg10
(lp543
g537
a(igraph
Vertex
p544
(dp545
g14
F0.4375
sg8
I00
sg15
g16
sg17
F-46.5
sg18
F-9.6875
sg19
I5054399
sg20
S'11971.4037379'
p546
sg22
F0.5
sbasg26
I00
sg27
I00
sg28
I5053933
sg20
S'11971.5411353'
p547
sba(igraph
Edge
p548
(dp549
g7
I1
sg8
I00
sg9
I5
sg10
(lp550
g544
a(igraph
Vertex
p551
(dp552
g14
F0.5
sg8
I00
sg15
I0
sg17
F-46.5
sg18
F-40.5
sg19
I5054400
sg20
S'11971.4043455'
p553
sg22
F0.5
sbasg26
I00
sg27
I00
sg28
I5053934
sg20
S'11971.5429841'
p554
sba(igraph
Edge
p555
(dp556
g7
I1
sg8
I00
sg9
I5
sg10
(lp557
g551
a(igraph
Vertex
p558
(dp559
g14
F0.5625
sg8
I00
sg15
g16
sg17
F-46.5
sg18
F-71.3125
sg19
I5054402
sg20
S'11971.4049618'
p560
sg22
F0.5
sbasg26
I00
sg27
I00
sg28
I5053935
sg20
S'11971.5447553'
p561
sba(igraph
Edge
p562
(dp563
g7
I1
sg8
I00
sg9
I5
sg10
(lp564
g558
a(igraph
Vertex
p565
(dp566
g14
F0.625
sg8
I00
sg15
g16
sg17
F-46.5
sg18
F-102.125
sg19
I5054403
sg20
S'11971.4055884'
p567
sg22
F0.5
sbasg26
I00
sg27
I00
sg28
I5053936
sg20
S'11971.5465301'
p568
sba(igraph
Edge
p569
(dp570
g7
I1
sg8
I00
sg9
I5
sg10
(lp571
g565
a(igraph
Vertex
p572
(dp573
g14
F0.6875
sg8
I00
sg15
g16
sg17
F-46.5
sg18
F-132.9375
sg19
I5054404
sg20
S'11971.4062237'
p574
sg22
F0.5
sbasg26
I00
sg27
I00
sg28
I5053937
sg20
S'11971.5482758'
p575
sba(igraph
Edge
p576
(dp577
g7
I1
sg8
I00
sg9
I5
sg10
(lp578
g572
a(igraph
Vertex
p579
(dp580
g14
F0.75
sg8
I00
sg15
g16
sg17
F-46.5
sg18
F-163.75
sg19
I5054405
sg20
S'11971.4068668'
p581
sg22
F0.5
sbasg26
I00
sg27
I00
sg28
I5053938
sg20
S'11971.5500322'
p582
sba(igraph
Edge
p583
(dp584
g7
I1
sg8
I00
sg9
I5
sg10
(lp585
g579
a(igraph
Vertex
p586
(dp587
g14
F0.8125
sg8
I00
sg15
g16
sg17
F-46.5
sg18
F-194.5625
sg19
I5054406
sg20
S'11971.4075144'
p588
sg22
F0.5
sbasg26
I00
sg27
I00
sg28
I5053939
sg20
S'11971.5518081'
p589
sba(igraph
Edge
p590
(dp591
g7
I1
sg8
I00
sg9
I5
sg10
(lp592
g586
a(igraph
Vertex
p593
(dp594
g14
F0.875
sg8
I00
sg15
g16
sg17
F-46.5
sg18
F-225.375
sg19
I5054407
sg20
S'11971.408177'
p595
sg22
F0.5
sbasg26
I00
sg27
I00
sg28
I5053940
sg20
S'11971.5536058'
p596
sba(igraph
Edge
p597
(dp598
g7
I1
sg8
I00
sg9
I5
sg10
(lp599
g593
a(igraph
Vertex
p600
(dp601
g14
F0.9375
sg8
I00
sg15
g16
sg17
F-46.5
sg18
F-256.1875
sg19
I5054408
sg20
S'11971.4088455'
p602
sg22
F0.5
sbasg26
I00
sg27
I00
sg28
I5053941
sg20
S'11971.5558603'
p603
sba(igraph
Edge
p604
(dp605
g7
I1
sg8
I00
sg9
I5
sg10
(lp606
g600
a(igraph
Vertex
p607
(dp608
g14
F1.0
sg8
I00
sg15
g16
sg17
F-46.5
sg18
F-287.0
sg19
I5054409
sg20
S'11971.4095191'
p609
sg22
F0.5
sbasg26
I00
sg27
I00
sg28
I5053942
sg20
S'11971.5577533'
p610
sba(igraph
Edge
p611
(dp612
g7
I1
sg8
I00
sg9
I5
sg10
(lp613
g607
ag499
asg26
I00
sg27
I00
sg28
I5053943
sg20
S'11971.5596479'
p614
sba(igraph
Edge
p615
(dp616
g7
I1
sg8
I00
sg9
I5
sg10
(lp617
(igraph
Vertex
p618
(dp619
g14
F0.0
sg8
I00
sg15
g16
sg17
F11.375
sg18
F206.0
sg19
I5054410
sg20
S'11971.4102052'
p620
sg22
F0.625
sba(igraph
Vertex
p621
(dp622
g14
F0.0625
sg8
I00
sg15
g16
sg17
F11.375
sg18
F175.1875
sg19
I5054411
sg20
S'11971.4108986'
p623
sg22
F0.625
sbasg26
I00
sg27
I00
sg28
I5053944
sg20
S'11971.5615395'
p624
sba(igraph
Edge
p625
(dp626
g7
I1
sg8
I00
sg9
I5
sg10
(lp627
g621
a(igraph
Vertex
p628
(dp629
g14
F0.125
sg8
I00
sg15
g16
sg17
F11.375
sg18
F144.375
sg19
I5054412
sg20
S'11971.4116012'
p630
sg22
F0.625
sbasg26
I00
sg27
I00
sg28
I5053945
sg20
S'11971.5634275'
p631
sba(igraph
Edge
p632
(dp633
g7
I1
sg8
I00
sg9
I5
sg10
(lp634
g628
a(igraph
Vertex
p635
(dp636
g14
F0.1875
sg8
I00
sg15
g16
sg17
F11.375
sg18
F113.5625
sg19
I5054413
sg20
S'11971.4123091'
p637
sg22
F0.625
sbasg26
I00
sg27
I00
sg28
I5053946
sg20
S'11971.5653403'
p638
sba(igraph
Edge
p639
(dp640
g7
I1
sg8
I00
sg9
I5
sg10
(lp641
g635
a(igraph
Vertex
p642
(dp643
g14
F0.25
sg8
I00
sg15
g16
sg17
F11.375
sg18
F82.75
sg19
I5054414
sg20
S'11971.4130642'
p644
sg22
F0.625
sbasg26
I00
sg27
I00
sg28
I5053947
sg20
S'11971.5672668'
p645
sba(igraph
Edge
p646
(dp647
g7
I1
sg8
I00
sg9
I5
sg10
(lp648
g642
a(igraph
Vertex
p649
(dp650
g14
F0.3125
sg8
I00
sg15
g16
sg17
F11.375
sg18
F51.9375
sg19
I5054415
sg20
S'11971.4137937'
p651
sg22
F0.625
sbasg26
I00
sg27
I00
sg28
I5053948
sg20
S'11971.5692927'
p652
sba(igraph
Edge
p653
(dp654
g7
I1
sg8
I00
sg9
I5
sg10
(lp655
g649
a(igraph
Vertex
p656
(dp657
g14
F0.375
sg8
I00
sg15
g16
sg17
F11.375
sg18
F21.125
sg19
I5054416
sg20
S'11971.4145303'
p658
sg22
F0.625
sbasg26
I00
sg27
I00
sg28
I5053949
sg20
S'11971.5712782'
p659
sba(igraph
Edge
p660
(dp661
g7
I1
sg8
I00
sg9
I5
sg10
(lp662
g656
a(igraph
Vertex
p663
(dp664
g14
F0.4375
sg8
I00
sg15
I0
sg17
F11.375
sg18
F-9.6875
sg19
I5054417
sg20
S'11971.4152788'
p665
sg22
F0.625
sbasg26
I00
sg27
I00
sg28
I5053950
sg20
S'11971.5732798'
p666
sba(igraph
Edge
p667
(dp668
g7
I1
sg8
I00
sg9
I5
sg10
(lp669
g663
a(igraph
Vertex
p670
(dp671
g14
F0.5
sg8
I00
sg15
g16
sg17
F11.375
sg18
F-40.5
sg19
I5054419
sg20
S'11971.4160347'
p672
sg22
F0.625
sbasg26
I00
sg27
I00
sg28
I5053951
sg20
S'11971.5753036'
p673
sba(igraph
Edge
p674
(dp675
g7
I1
sg8
I00
sg9
I5
sg10
(lp676
g670
a(igraph
Vertex
p677
(dp678
g14
F0.5625
sg8
I00
sg15
g16
sg17
F11.375
sg18
F-71.3125
sg19
I5054420
sg20
S'11971.4167982'
p679
sg22
F0.625
sbasg26
I00
sg27
I00
sg28
I5053952
sg20
S'11971.5773491'
p680
sba(igraph
Edge
p681
(dp682
g7
I1
sg8
I00
sg9
I5
sg10
(lp683
g677
a(igraph
Vertex
p684
(dp685
g14
F0.625
sg8
I00
sg15
I0
sg17
F11.375
sg18
F-102.125
sg19
I5054421
sg20
S'11971.417574'
p686
sg22
F0.625
sbasg26
I00
sg27
I00
sg28
I5053953
sg20
S'11971.5794133'
p687
sba(igraph
Edge
p688
(dp689
g7
I1
sg8
I00
sg9
I5
sg10
(lp690
g684
a(igraph
Vertex
p691
(dp692
g14
F0.6875
sg8
I00
sg15
g16
sg17
F11.375
sg18
F-132.9375
sg19
I5054423
sg20
S'11971.4183515'
p693
sg22
F0.625
sbasg26
I00
sg27
I00
sg28
I5053954
sg20
S'11971.5815004'
p694
sba(igraph
Edge
p695
(dp696
g7
I1
sg8
I00
sg9
I5
sg10
(lp697
g691
a(igraph
Vertex
p698
(dp699
g14
F0.75
sg8
I00
sg15
g16
sg17
F11.375
sg18
F-163.75
sg19
I5054424
sg20
S'11971.4191441'
p700
sg22
F0.625
sbasg26
I00
sg27
I00
sg28
I5053955
sg20
S'11971.5838885'
p701
sba(igraph
Edge
p702
(dp703
g7
I1
sg8
I00
sg9
I5
sg10
(lp704
g698
a(igraph
Vertex
p705
(dp706
g14
F0.8125
sg8
I00
sg15
g16
sg17
F11.375
sg18
F-194.5625
sg19
I5054425
sg20
S'11971.4199428'
p707
sg22
F0.625
sbasg26
I00
sg27
I00
sg28
I5053956
sg20
S'11971.5860105'
p708
sba(igraph
Edge
p709
(dp710
g7
I1
sg8
I00
sg9
I5
sg10
(lp711
g705
a(igraph
Vertex
p712
(dp713
g14
F0.875
sg8
I00
sg15
g16
sg17
F11.375
sg18
F-225.375
sg19
I5054426
sg20
S'11971.4207479'
p714
sg22
F0.625
sbasg26
I00
sg27
I00
sg28
I5053957
sg20
S'11971.5881608'
p715
sba(igraph
Edge
p716
(dp717
g7
I1
sg8
I00
sg9
I5
sg10
(lp718
g712
a(igraph
Vertex
p719
(dp720
g14
F0.9375
sg8
I00
sg15
g16
sg17
F11.375
sg18
F-256.1875
sg19
I5054427
sg20
S'11971.4216541'
p721
sg22
F0.625
sbasg26
I00
sg27
I00
sg28
I5053958
sg20
S'11971.5903359'
p722
sba(igraph
Edge
p723
(dp724
g7
I1
sg8
I00
sg9
I5
sg10
(lp725
g719
a(igraph
Vertex
p726
(dp727
g14
F1.0
sg8
I00
sg15
g16
sg17
F11.375
sg18
F-287.0
sg19
I5054428
sg20
S'11971.422473'
p728
sg22
F0.625
sbasg26
I00
sg27
I00
sg28
I5053959
sg20
S'11971.5926446'
p729
sba(igraph
Edge
p730
(dp731
g7
I1
sg8
I00
sg9
I5
sg10
(lp732
g726
ag618
asg26
I00
sg27
I00
sg28
I5053960
sg20
S'11971.5949698'
p733
sba(igraph
Edge
p734
(dp735
g7
I1
sg8
I00
sg9
I5
sg10
(lp736
(igraph
Vertex
p737
(dp738
g14
F0.0
sg8
I00
sg15
g16
sg17
F69.25
sg18
F206.0
sg19
I5054429
sg20
S'11971.4232943'
p739
sg22
F0.75
sba(igraph
Vertex
p740
(dp741
g14
F0.0625
sg8
I00
sg15
g16
sg17
F69.25
sg18
F175.1875
sg19
I5054430
sg20
S'11971.424126'
p742
sg22
F0.75
sbasg26
I00
sg27
I00
sg28
I5053961
sg20
S'11971.5972209'
p743
sba(igraph
Edge
p744
(dp745
g7
I1
sg8
I00
sg9
I5
sg10
(lp746
g740
a(igraph
Vertex
p747
(dp748
g14
F0.125
sg8
I00
sg15
g16
sg17
F69.25
sg18
F144.375
sg19
I5054431
sg20
S'11971.4249733'
p749
sg22
F0.75
sbasg26
I00
sg27
I00
sg28
I5053962
sg20
S'11971.599474'
p750
sba(igraph
Edge
p751
(dp752
g7
I1
sg8
I00
sg9
I5
sg10
(lp753
g747
a(igraph
Vertex
p754
(dp755
g14
F0.1875
sg8
I00
sg15
g16
sg17
F69.25
sg18
F113.5625
sg19
I5054432
sg20
S'11971.4258231'
p756
sg22
F0.75
sbasg26
I00
sg27
I00
sg28
I5053963
sg20
S'11971.6017742'
p757
sba(igraph
Edge
p758
(dp759
g7
I1
sg8
I00
sg9
I5
sg10
(lp760
g754
a(igraph
Vertex
p761
(dp762
g14
F0.25
sg8
I00
sg15
g16
sg17
F69.25
sg18
F82.75
sg19
I5054433
sg20
S'11971.4266847'
p763
sg22
F0.75
sbasg26
I00
sg27
I00
sg28
I5053964
sg20
S'11971.6040843'
p764
sba(igraph
Edge
p765
(dp766
g7
I1
sg8
I00
sg9
I5
sg10
(lp767
g761
a(igraph
Vertex
p768
(dp769
g14
F0.3125
sg8
I00
sg15
g16
sg17
F69.25
sg18
F51.9375
sg19
I5054434
sg20
S'11971.4275583'
p770
sg22
F0.75
sbasg26
I00
sg27
I00
sg28
I5053965
sg20
S'11971.60641'
p771
sba(igraph
Edge
p772
(dp773
g7
I1
sg8
I00
sg9
I5
sg10
(lp774
g768
a(igraph
Vertex
p775
(dp776
g14
F0.375
sg8
I00
sg15
g16
sg17
F69.25
sg18
F21.125
sg19
I5054435
sg20
S'11971.428436'
p777
sg22
F0.75
sbasg26
I00
sg27
I00
sg28
I5053966
sg20
S'11971.6087606'
p778
sba(igraph
Edge
p779
(dp780
g7
I1
sg8
I00
sg9
I5
sg10
(lp781
g775
a(igraph
Vertex
p782
(dp783
g14
F0.4375
sg8
I00
sg15
g16
sg17
F69.25
sg18
F-9.6875
sg19
I5054436
sg20
S'11971.4293241'
p784
sg22
F0.75
sbasg26
I00
sg27
I00
sg28
I5053967
sg20
S'11971.6111274'
p785
sba(igraph
Edge
p786
(dp787
g7
I1
sg8
I00
sg9
I5
sg10
(lp788
g782
a(igraph
Vertex
p789
(dp790
g14
F0.5
sg8
I00
sg15
g16
sg17
F69.25
sg18
F-40.5
sg19
I5054437
sg20
S'11971.4302161'
p791
sg22
F0.75
sbasg26
I00
sg27
I00
sg28
I5053968
sg20
S'11971.6135204'
p792
sba(igraph
Edge
p793
(dp794
g7
I1
sg8
I00
sg9
I5
sg10
(lp795
g789
a(igraph
Vertex
p796
(dp797
g14
F0.5625
sg8
I00
sg15
g16
sg17
F69.25
sg18
F-71.3125
sg19
I5054438
sg20
S'11971.4311266'
p798
sg22
F0.75
sbasg26
I00
sg27
I00
sg28
I5053969
sg20
S'11971.6159339'
p799
sba(igraph
Edge
p800
(dp801
g7
I1
sg8
I00
sg9
I5
sg10
(lp802
g796
a(igraph
Vertex
p803
(dp804
g14
F0.625
sg8
I00
sg15
g16
sg17
F69.25
sg18
F-102.125
sg19
I5054439
sg20
S'11971.432037'
p805
sg22
F0.75
sbasg26
I00
sg27
I00
sg28
I5053970
sg20
S'11971.618368'
p806
sba(igraph
Edge
p807
(dp808
g7
I1
sg8
I00
sg9
I5
sg10
(lp809
g803
a(igraph
Vertex
p810
(dp811
g14
F0.6875
sg8
I00
sg15
g16
sg17
F69.25
sg18
F-132.9375
sg19
I5054440
sg20
S'11971.4329575'
p812
sg22
F0.75
sbasg26
I00
sg27
I00
sg28
I5053971
sg20
S'11971.6208272'
p813
sba(igraph
Edge
p814
(dp815
g7
I1
sg8
I00
sg9
I5
sg10
(lp816
g810
a(igraph
Vertex
p817
(dp818
g14
F0.75
sg8
I00
sg15
I0
sg17
F69.25
sg18
F-163.75
sg19
I5054441
sg20
S'11971.4338822'
p819
sg22
F0.75
sbasg26
I00
sg27
I00
sg28
I5053972
sg20
S'11971.623325'
p820
sba(igraph
Edge
p821
(dp822
g7
I1
sg8
I00
sg9
I5
sg10
(lp823
g817
a(igraph
Vertex
p824
(dp825
g14
F0.8125
sg8
I00
sg15
g16
sg17
F69.25
sg18
F-194.5625
sg19
I5054443
sg20
S'11971.4350399'
p826
sg22
F0.75
sbasg26
I00
sg27
I00
sg28
I5053973
sg20
S'11971.6258061'
p827
sba(igraph
Edge
p828
(dp829
g7
I1
sg8
I00
sg9
I5
sg10
(lp830
g824
a(igraph
Vertex
p831
(dp832
g14
F0.875
sg8
I00
sg15
g16
sg17
F69.25
sg18
F-225.375
sg19
I5054444
sg20
S'11971.4359909'
p833
sg22
F0.75
sbasg26
I00
sg27
I00
sg28
I5053974
sg20
S'11971.6283162'
p834
sba(igraph
Edge
p835
(dp836
g7
I1
sg8
I00
sg9
I5
sg10
(lp837
g831
a(igraph
Vertex
p838
(dp839
g14
F0.9375
sg8
I00
sg15
g16
sg17
F69.25
sg18
F-256.1875
sg19
I5054445
sg20
S'11971.4369424'
p840
sg22
F0.75
sbasg26
I00
sg27
I00
sg28
I5053975
sg20
S'11971.6309042'
p841
sba(igraph
Edge
p842
(dp843
g7
I1
sg8
I00
sg9
I5
sg10
(lp844
g838
a(igraph
Vertex
p845
(dp846
g14
F1.0
sg8
I00
sg15
g16
sg17
F69.25
sg18
F-287.0
sg19
I5054446
sg20
S'11971.4379048'
p847
sg22
F0.75
sbasg26
I00
sg27
I00
sg28
I5053976
sg20
S'11971.6334853'
p848
sba(igraph
Edge
p849
(dp850
g7
I1
sg8
I00
sg9
I5
sg10
(lp851
g845
ag737
asg26
I00
sg27
I00
sg28
I5053977
sg20
S'11971.6360878'
p852
sba(igraph
Edge
p853
(dp854
g7
I1
sg8
I00
sg9
I5
sg10
(lp855
(igraph
Vertex
p856
(dp857
g14
F0.0
sg8
I00
sg15
g16
sg17
F127.125
sg18
F206.0
sg19
I5054447
sg20
S'11971.438877'
p858
sg22
F0.875
sba(igraph
Vertex
p859
(dp860
g14
F0.0625
sg8
I00
sg15
g16
sg17
F127.125
sg18
F175.1875
sg19
I5054448
sg20
S'11971.4398534'
p861
sg22
F0.875
sbasg26
I00
sg27
I00
sg28
I5053978
sg20
S'11971.6387301'
p862
sba(igraph
Edge
p863
(dp864
g7
I1
sg8
I00
sg9
I5
sg10
(lp865
g859
a(igraph
Vertex
p866
(dp867
g14
F0.125
sg8
I00
sg15
g16
sg17
F127.125
sg18
F144.375
sg19
I5054449
sg20
S'11971.4408337'
p868
sg22
F0.875
sbasg26
I00
sg27
I00
sg28
I5053979
sg20
S'11971.6413885'
p869
sba(igraph
Edge
p870
(dp871
g7
I1
sg8
I00
sg9
I5
sg10
(lp872
g866
a(igraph
Vertex
p873
(dp874
g14
F0.1875
sg8
I00
sg15
g16
sg17
F127.125
sg18
F113.5625
sg19
I5054450
sg20
S'11971.4418352'
p875
sg22
F0.875
sbasg26
I00
sg27
I00
sg28
I5053980
sg20
S'11971.6440715'
p876
sba(igraph
Edge
p877
(dp878
g7
I1
sg8
I00
sg9
I5
sg10
(lp879
g873
a(igraph
Vertex
p880
(dp881
g14
F0.25
sg8
I00
sg15
g16
sg17
F127.125
sg18
F82.75
sg19
I5054451
sg20
S'11971.4428454'
p882
sg22
F0.875
sbasg26
I00
sg27
I00
sg28
I5053981
sg20
S'11971.646747'
p883
sba(igraph
Edge
p884
(dp885
g7
I1
sg8
I00
sg9
I5
sg10
(lp886
g880
a(igraph
Vertex
p887
(dp888
g14
F0.3125
sg8
I00
sg15
g16
sg17
F127.125
sg18
F51.9375
sg19
I5054452
sg20
S'11971.4438871'
p889
sg22
F0.875
sbasg26
I00
sg27
I00
sg28
I5053982
sg20
S'11971.6494423'
p890
sba(igraph
Edge
p891
(dp892
g7
I1
sg8
I00
sg9
I5
sg10
(lp893
g887
a(igraph
Vertex
p894
(dp895
g14
F0.375
sg8
I00
sg15
g16
sg17
F127.125
sg18
F21.125
sg19
I5054453
sg20
S'11971.4449607'
p896
sg22
F0.875
sbasg26
I00
sg27
I00
sg28
I5053983
sg20
S'11971.6522245'
p897
sba(igraph
Edge
p898
(dp899
g7
I1
sg8
I00
sg9
I5
sg10
(lp900
g894
a(igraph
Vertex
p901
(dp902
g14
F0.4375
sg8
I00
sg15
g16
sg17
F127.125
sg18
F-9.6875
sg19
I5054454
sg20
S'11971.446019'
p903
sg22
F0.875
sbasg26
I00
sg27
I00
sg28
I5053984
sg20
S'11971.6549617'
p904
sba(igraph
Edge
p905
(dp906
g7
I1
sg8
I00
sg9
I5
sg10
(lp907
g901
a(igraph
Vertex
p908
(dp909
g14
F0.5
sg8
I00
sg15
g16
sg17
F127.125
sg18
F-40.5
sg19
I5054455
sg20
S'11971.4471099'
p910
sg22
F0.875
sbasg26
I00
sg27
I00
sg28
I5053985
sg20
S'11971.6577227'
p911
sba(igraph
Edge
p912
(dp913
g7
I1
sg8
I00
sg9
I5
sg10
(lp914
g908
a(igraph
Vertex
p915
(dp916
g14
F0.5625
sg8
I00
sg15
g16
sg17
F127.125
sg18
F-71.3125
sg19
I5054456
sg20
S'11971.4481916'
p917
sg22
F0.875
sbasg26
I00
sg27
I00
sg28
I5053986
sg20
S'11971.660508'
p918
sba(igraph
Edge
p919
(dp920
g7
I1
sg8
I00
sg9
I5
sg10
(lp921
g915
a(igraph
Vertex
p922
(dp923
g14
F0.625
sg8
I00
sg15
g16
sg17
F127.125
sg18
F-102.125
sg19
I5054457
sg20
S'11971.4492543'
p924
sg22
F0.875
sbasg26
I00
sg27
I00
sg28
I5053987
sg20
S'11971.6633111'
p925
sba(igraph
Edge
p926
(dp927
g7
I1
sg8
I00
sg9
I5
sg10
(lp928
g922
a(igraph
Vertex
p929
(dp930
g14
F0.6875
sg8
I00
sg15
g16
sg17
F127.125
sg18
F-132.9375
sg19
I5054458
sg20
S'11971.4503287'
p931
sg22
F0.875
sbasg26
I00
sg27
I00
sg28
I5053988
sg20
S'11971.6661366'
p932
sba(igraph
Edge
p933
(dp934
g7
I1
sg8
I00
sg9
I5
sg10
(lp935
g929
a(igraph
Vertex
p936
(dp937
g14
F0.75
sg8
I00
sg15
g16
sg17
F127.125
sg18
F-163.75
sg19
I5054459
sg20
S'11971.4514071'
p938
sg22
F0.875
sbasg26
I00
sg27
I00
sg28
I5053989
sg20
S'11971.6689833'
p939
sba(igraph
Edge
p940
(dp941
g7
I1
sg8
I00
sg9
I5
sg10
(lp942
g936
a(igraph
Vertex
p943
(dp944
g14
F0.8125
sg8
I00
sg15
g16
sg17
F127.125
sg18
F-194.5625
sg19
I5054460
sg20
S'11971.4524947'
p945
sg22
F0.875
sbasg26
I00
sg27
I00
sg28
I5053990
sg20
S'11971.6719128'
p946
sba(igraph
Edge
p947
(dp948
g7
I1
sg8
I00
sg9
I5
sg10
(lp949
g943
a(igraph
Vertex
p950
(dp951
g14
F0.875
sg8
I00
sg15
I0
sg17
F127.125
sg18
F-225.375
sg19
I5054461
sg20
S'11971.4535892'
p952
sg22
F0.875
sbasg26
I00
sg27
I00
sg28
I5053991
sg20
S'11971.6748062'
p953
sba(igraph
Edge
p954
(dp955
g7
I1
sg8
I00
sg9
I5
sg10
(lp956
g950
a(igraph
Vertex
p957
(dp958
g14
F0.9375
sg8
I00
sg15
g16
sg17
F127.125
sg18
F-256.1875
sg19
I5054463
sg20
S'11971.4546916'
p959
sg22
F0.875
sbasg26
I00
sg27
I00
sg28
I5053992
sg20
S'11971.6778278'
p960
sba(igraph
Edge
p961
(dp962
g7
I1
sg8
I00
sg9
I5
sg10
(lp963
g957
a(igraph
Vertex
p964
(dp965
g14
F1.0
sg8
I00
sg15
g16
sg17
F127.125
sg18
F-287.0
sg19
I5054464
sg20
S'11971.4557979'
p966
sg22
F0.875
sbasg26
I00
sg27
I00
sg28
I5053993
sg20
S'11971.6807642'
p967
sba(igraph
Edge
p968
(dp969
g7
I1
sg8
I00
sg9
I5
sg10
(lp970
g964
ag856
asg26
I00
sg27
I00
sg28
I5053994
sg20
S'11971.6837146'
p971
sba(igraph
Edge
p972
(dp973
g7
I1
sg8
I00
sg9
I5
sg10
(lp974
(igraph
Vertex
p975
(dp976
g14
F0.0
sg8
I00
sg15
g16
sg17
F185.0
sg18
F206.0
sg19
I5054465
sg20
S'11971.4569184'
p977
sg22
F1.0
sba(igraph
Vertex
p978
(dp979
g14
F0.0625
sg8
I00
sg15
g16
sg17
F185.0
sg18
F175.1875
sg19
I5054466
sg20
S'11971.45808'
p980
sg22
F1.0
sbasg26
I00
sg27
I00
sg28
I5053995
sg20
S'11971.6867035'
p981
sba(igraph
Edge
p982
(dp983
g7
I1
sg8
I00
sg9
I5
sg10
(lp984
g978
a(igraph
Vertex
p985
(dp986
g14
F0.125
sg8
I00
sg15
g16
sg17
F185.0
sg18
F144.375
sg19
I5054467
sg20
S'11971.4592137'
p987
sg22
F1.0
sbasg26
I00
sg27
I00
sg28
I5053996
sg20
S'11971.689722'
p988
sba(igraph
Edge
p989
(dp990
g7
I1
sg8
I00
sg9
I5
sg10
(lp991
g985
a(igraph
Vertex
p992
(dp993
g14
F0.1875
sg8
I00
sg15
g16
sg17
F185.0
sg18
F113.5625
sg19
I5054468
sg20
S'11971.4603624'
p994
sg22
F1.0
sbasg26
I00
sg27
I00
sg28
I5053997
sg20
S'11971.6927411'
p995
sba(igraph
Edge
p996
(dp997
g7
I1
sg8
I00
sg9
I5
sg10
(lp998
g992
a(igraph
Vertex
p999
(dp1000
g14
F0.25
sg8
I00
sg15
g16
sg17
F185.0
sg18
F82.75
sg19
I5054469
sg20
S'11971.461728'
p1001
sg22
F1.0
sbasg26
I00
sg27
I00
sg28
I5053998
sg20
S'11971.6957823'
p1002
sba(igraph
Edge
p1003
(dp1004
g7
I1
sg8
I00
sg9
I5
sg10
(lp1005
g999
a(igraph
Vertex
p1006
(dp1007
g14
F0.3125
sg8
I00
sg15
g16
sg17
F185.0
sg18
F51.9375
sg19
I5054470
sg20
S'11971.4629211'
p1008
sg22
F1.0
sbasg26
I00
sg27
I00
sg28
I5053999
sg20
S'11971.6988966'
p1009
sba(igraph
Edge
p1010
(dp1011
g7
I1
sg8
I00
sg9
I5
sg10
(lp1012
g1006
a(igraph
Vertex
p1013
(dp1014
g14
F0.375
sg8
I00
sg15
g16
sg17
F185.0
sg18
F21.125
sg19
I5054471
sg20
S'11971.4641109'
p1015
sg22
F1.0
sbasg26
I00
sg27
I00
sg28
I5054000
sg20
S'11971.7019803'
p1016
sba(igraph
Edge
p1017
(dp1018
g7
I1
sg8
I00
sg9
I5
sg10
(lp1019
g1013
a(igraph
Vertex
p1020
(dp1021
g14
F0.4375
sg8
I00
sg15
g16
sg17
F185.0
sg18
F-9.6875
sg19
I5054472
sg20
S'11971.4653044'
p1022
sg22
F1.0
sbasg26
I00
sg27
I00
sg28
I5054001
sg20
S'11971.7051072'
p1023
sba(igraph
Edge
p1024
(dp1025
g7
I1
sg8
I00
sg9
I5
sg10
(lp1026
g1020
a(igraph
Vertex
p1027
(dp1028
g14
F0.5
sg8
I00
sg15
g16
sg17
F185.0
sg18
F-40.5
sg19
I5054473
sg20
S'11971.4665104'
p1029
sg22
F1.0
sbasg26
I00
sg27
I00
sg28
I5054002
sg20
S'11971.7083029'
p1030
sba(igraph
Edge
p1031
(dp1032
g7
I1
sg8
I00
sg9
I5
sg10
(lp1033
g1027
a(igraph
Vertex
p1034
(dp1035
g14
F0.5625
sg8
I00
sg15
g16
sg17
F185.0
sg18
F-71.3125
sg19
I5054474
sg20
S'11971.467724'
p1036
sg22
F1.0
sbasg26
I00
sg27
I00
sg28
I5054003
sg20
S'11971.7116201'
p1037
sba(igraph
Edge
p1038
(dp1039
g7
I1
sg8
I00
sg9
I5
sg10
(lp1040
g1034
a(igraph
Vertex
p1041
(dp1042
g14
F0.625
sg8
I00
sg15
g16
sg17
F185.0
sg18
F-102.125
sg19
I5054475
sg20
S'11971.4689847'
p1043
sg22
F1.0
sbasg26
I00
sg27
I00
sg28
I5054004
sg20
S'11971.7148277'
p1044
sba(igraph
Edge
p1045
(dp1046
g7
I1
sg8
I00
sg9
I5
sg10
(lp1047
g1041
a(igraph
Vertex
p1048
(dp1049
g14
F0.6875
sg8
I00
sg15
g16
sg17
F185.0
sg18
F-132.9375
sg19
I5054476
sg20
S'11971.4702207'
p1050
sg22
F1.0
sbasg26
I00
sg27
I00
sg28
I5054005
sg20
S'11971.7180077'
p1051
sba(igraph
Edge
p1052
(dp1053
g7
I1
sg8
I00
sg9
I5
sg10
(lp1054
g1048
a(igraph
Vertex
p1055
(dp1056
g14
F0.75
sg8
I00
sg15
g16
sg17
F185.0
sg18
F-163.75
sg19
I5054477
sg20
S'11971.4714555'
p1057
sg22
F1.0
sbasg26
I00
sg27
I00
sg28
I5054006
sg20
S'11971.7212844'
p1058
sba(igraph
Edge
p1059
(dp1060
g7
I1
sg8
I00
sg9
I5
sg10
(lp1061
g1055
a(igraph
Vertex
p1062
(dp1063
g14
F0.8125
sg8
I00
sg15
I0
sg17
F185.0
sg18
F-194.5625
sg19
I5054478
sg20
S'11971.4727025'
p1064
sg22
F1.0
sbasg26
I00
sg27
I00
sg28
I5054007
sg20
S'11971.724527'
p1065
sba(igraph
Edge
p1066
(dp1067
g7
I1
sg8
I00
sg9
I5
sg10
(lp1068
g1062
a(igraph
Vertex
p1069
(dp1070
g14
F0.875
sg8
I00
sg15
g16
sg17
F185.0
sg18
F-225.375
sg19
I5054480
sg20
S'11971.4739614'
p1071
sg22
F1.0
sbasg26
I00
sg27
I00
sg28
I5054008
sg20
S'11971.7277939'
p1072
sba(igraph
Edge
p1073
(dp1074
g7
I1
sg8
I00
sg9
I5
sg10
(lp1075
g1069
a(igraph
Vertex
p1076
(dp1077
g14
F0.9375
sg8
I00
sg15
g16
sg17
F185.0
sg18
F-256.1875
sg19
I5054481
sg20
S'11971.4752464'
p1078
sg22
F1.0
sbasg26
I00
sg27
I00
sg28
I5054009
sg20
S'11971.7311038'
p1079
sba(igraph
Edge
p1080
(dp1081
g7
I1
sg8
I00
sg9
I5
sg10
(lp1082
g1076
a(igraph
Vertex
p1083
(dp1084
g14
F1.0
sg8
I00
sg15
I0
sg17
F185.0
sg18
F-287.0
sg19
I5054482
sg20
S'11971.4765276'
p1085
sg22
F1.0
sbasg26
I00
sg27
I00
sg28
I5054010
sg20
S'11971.7344123'
p1086
sba(igraph
Edge
p1087
(dp1088
g7
I1
sg8
I00
sg9
I5
sg10
(lp1089
g1083
ag975
asg26
I00
sg27
I00
sg28
I5054011
sg20
S'11971.737739'
p1090
sba(igraph
Edge
p1091
(dp1092
g7
I1
sg8
I00
sg9
I5
sg10
(lp1093
g12
ag142
asg26
I00
sg27
I00
sg28
I5054012
sg20
S'11971.7411853'
p1094
sba(igraph
Edge
p1095
(dp1096
g7
I1
sg8
I00
sg9
I5
sg10
(lp1097
g23
ag152
asg26
I00
sg27
I00
sg28
I5054013
sg20
S'11971.7445393'
p1098
sba(igraph
Edge
p1099
(dp1100
g7
I1
sg8
I00
sg9
I5
sg10
(lp1101
g33
ag152
asg26
I00
sg27
I00
sg28
I5054014
sg20
S'11971.7479168'
p1102
sba(igraph
Edge
p1103
(dp1104
g7
I1
sg8
I00
sg9
I5
sg10
(lp1105
g40
ag166
asg26
I00
sg27
I00
sg28
I5054015
sg20
S'11971.7513159'
p1106
sba(igraph
Edge
p1107
(dp1108
g7
I1
sg8
I00
sg9
I5
sg10
(lp1109
g47
ag166
asg26
I00
sg27
I00
sg28
I5054016
sg20
S'11971.7547378'
p1110
sba(igraph
Edge
p1111
(dp1112
g7
I1
sg8
I00
sg9
I5
sg10
(lp1113
g54
ag180
asg26
I00
sg27
I00
sg28
I5054017
sg20
S'11971.7582332'
p1114
sba(igraph
Edge
p1115
(dp1116
g7
I1
sg8
I00
sg9
I5
sg10
(lp1117
g61
ag180
asg26
I00
sg27
I00
sg28
I5054018
sg20
S'11971.7617189'
p1118
sba(igraph
Edge
p1119
(dp1120
g7
I1
sg8
I00
sg9
I5
sg10
(lp1121
g68
ag194
asg26
I00
sg27
I00
sg28
I5054019
sg20
S'11971.7652506'
p1122
sba(igraph
Edge
p1123
(dp1124
g7
I1
sg8
I00
sg9
I5
sg10
(lp1125
g75
ag194
asg26
I00
sg27
I00
sg28
I5054020
sg20
S'11971.7687977'
p1126
sba(igraph
Edge
p1127
(dp1128
g7
I1
sg8
I00
sg9
I5
sg10
(lp1129
g82
ag208
asg26
I00
sg27
I00
sg28
I5054021
sg20
S'11971.7723518'
p1130
sba(igraph
Edge
p1131
(dp1132
g7
I1
sg8
I00
sg9
I5
sg10
(lp1133
g89
ag208
asg26
I00
sg27
I00
sg28
I5054022
sg20
S'11971.7759249'
p1134
sba(igraph
Edge
p1135
(dp1136
g7
I1
sg8
I00
sg9
I5
sg10
(lp1137
g96
ag222
asg26
I00
sg27
I00
sg28
I5054023
sg20
S'11971.7795686'
p1138
sba(igraph
Edge
p1139
(dp1140
g7
I1
sg8
I00
sg9
I5
sg10
(lp1141
g103
ag222
asg26
I00
sg27
I00
sg28
I5054024
sg20
S'11971.7831674'
p1142
sba(igraph
Edge
p1143
(dp1144
g7
I1
sg8
I00
sg9
I5
sg10
(lp1145
g110
ag236
asg26
I00
sg27
I00
sg28
I5054025
sg20
S'11971.7867849'
p1146
sba(igraph
Edge
p1147
(dp1148
g7
I1
sg8
I00
sg9
I5
sg10
(lp1149
g117
ag236
asg26
I00
sg27
I00
sg28
I5054026
sg20
S'11971.790425'
p1150
sba(igraph
Edge
p1151
(dp1152
g7
I1
sg8
I00
sg9
I5
sg10
(lp1153
g124
ag250
asg26
I00
sg27
I00
sg28
I5054027
sg20
S'11971.7942018'
p1154
sba(igraph
Edge
p1155
(dp1156
g7
I1
sg8
I00
sg9
I5
sg10
(lp1157
g131
ag250
asg26
I00
sg27
I00
sg28
I5054028
sg20
S'11971.7979319'
p1158
sba(igraph
Edge
p1159
(dp1160
g7
I1
sg8
I00
sg9
I5
sg10
(lp1161
g12
ag145
asg26
I00
sg27
I00
sg28
I5054029
sg20
S'11971.8016365'
p1162
sba(igraph
Edge
p1163
(dp1164
g7
I1
sg8
I00
sg9
I5
sg10
(lp1165
g23
ag145
asg26
I00
sg27
I00
sg28
I5054030
sg20
S'11971.8054563'
p1166
sba(igraph
Edge
p1167
(dp1168
g7
I1
sg8
I00
sg9
I5
sg10
(lp1169
g33
ag159
asg26
I00
sg27
I00
sg28
I5054031
sg20
S'11971.8092875'
p1170
sba(igraph
Edge
p1171
(dp1172
g7
I1
sg8
I00
sg9
I5
sg10
(lp1173
g40
ag159
asg26
I00
sg27
I00
sg28
I5054032
sg20
S'11971.8131028'
p1174
sba(igraph
Edge
p1175
(dp1176
g7
I1
sg8
I00
sg9
I5
sg10
(lp1177
g47
ag173
asg26
I00
sg27
I00
sg28
I5054033
sg20
S'11971.8169362'
p1178
sba(igraph
Edge
p1179
(dp1180
g7
I1
sg8
I00
sg9
I5
sg10
(lp1181
g54
ag173
asg26
I00
sg27
I00
sg28
I5054034
sg20
S'11971.8207965'
p1182
sba(igraph
Edge
p1183
(dp1184
g7
I1
sg8
I00
sg9
I5
sg10
(lp1185
g61
ag187
asg26
I00
sg27
I00
sg28
I5054035
sg20
S'11971.8247459'
p1186
sba(igraph
Edge
p1187
(dp1188
g7
I1
sg8
I00
sg9
I5
sg10
(lp1189
g68
ag187
asg26
I00
sg27
I00
sg28
I5054036
sg20
S'11971.8286481'
p1190
sba(igraph
Edge
p1191
(dp1192
g7
I1
sg8
I00
sg9
I5
sg10
(lp1193
g75
ag201
asg26
I00
sg27
I00
sg28
I5054037
sg20
S'11971.832586'
p1194
sba(igraph
Edge
p1195
(dp1196
g7
I1
sg8
I00
sg9
I5
sg10
(lp1197
g82
ag201
asg26
I00
sg27
I00
sg28
I5054038
sg20
S'11971.8370631'
p1198
sba(igraph
Edge
p1199
(dp1200
g7
I1
sg8
I00
sg9
I5
sg10
(lp1201
g89
ag215
asg26
I00
sg27
I00
sg28
I5054039
sg20
S'11971.8410667'
p1202
sba(igraph
Edge
p1203
(dp1204
g7
I1
sg8
I00
sg9
I5
sg10
(lp1205
g96
ag215
asg26
I00
sg27
I00
sg28
I5054040
sg20
S'11971.8450859'
p1206
sba(igraph
Edge
p1207
(dp1208
g7
I1
sg8
I00
sg9
I5
sg10
(lp1209
g103
ag229
asg26
I00
sg27
I00
sg28
I5054041
sg20
S'11971.8490652'
p1210
sba(igraph
Edge
p1211
(dp1212
g7
I1
sg8
I00
sg9
I5
sg10
(lp1213
g110
ag229
asg26
I00
sg27
I00
sg28
I5054042
sg20
S'11971.8558708'
p1214
sba(igraph
Edge
p1215
(dp1216
g7
I1
sg8
I00
sg9
I5
sg10
(lp1217
g117
ag243
asg26
I00
sg27
I00
sg28
I5054043
sg20
S'11971.8600453'
p1218
sba(igraph
Edge
p1219
(dp1220
g7
I1
sg8
I00
sg9
I5
sg10
(lp1221
g124
ag243
asg26
I00
sg27
I00
sg28
I5054044
sg20
S'11971.8640889'
p1222
sba(igraph
Edge
p1223
(dp1224
g7
I1
sg8
I00
sg9
I5
sg10
(lp1225
g131
ag142
asg26
I00
sg27
I00
sg28
I5054045
sg20
S'11971.8681684'
p1226
sba(igraph
Edge
p1227
(dp1228
g7
I1
sg8
I00
sg9
I5
sg10
(lp1229
g12
ag975
asg26
I00
sg27
I00
sg28
I5054046
sg20
S'11971.8722338'
p1230
sba(igraph
Edge
p1231
(dp1232
g7
I1
sg8
I00
sg9
I5
sg10
(lp1233
g23
ag975
asg26
I00
sg27
I00
sg28
I5054047
sg20
S'11971.8763214'
p1234
sba(igraph
Edge
p1235
(dp1236
g7
I1
sg8
I00
sg9
I5
sg10
(lp1237
g33
ag985
asg26
I00
sg27
I00
sg28
I5054048
sg20
S'11971.880432'
p1238
sba(igraph
Edge
p1239
(dp1240
g7
I1
sg8
I00
sg9
I5
sg10
(lp1241
g40
ag985
asg26
I00
sg27
I00
sg28
I5054049
sg20
S'11971.8846281'
p1242
sba(igraph
Edge
p1243
(dp1244
g7
I1
sg8
I00
sg9
I5
sg10
(lp1245
g47
ag999
asg26
I00
sg27
I00
sg28
I5054050
sg20
S'11971.8887811'
p1246
sba(igraph
Edge
p1247
(dp1248
g7
I1
sg8
I00
sg9
I5
sg10
(lp1249
g54
ag999
asg26
I00
sg27
I00
sg28
I5054051
sg20
S'11971.8929523'
p1250
sba(igraph
Edge
p1251
(dp1252
g7
I1
sg8
I00
sg9
I5
sg10
(lp1253
g61
ag1013
asg26
I00
sg27
I00
sg28
I5054052
sg20
S'11971.897126'
p1254
sba(igraph
Edge
p1255
(dp1256
g7
I1
sg8
I00
sg9
I5
sg10
(lp1257
g68
ag1013
asg26
I00
sg27
I00
sg28
I5054053
sg20
S'11971.9013369'
p1258
sba(igraph
Edge
p1259
(dp1260
g7
I1
sg8
I00
sg9
I5
sg10
(lp1261
g75
ag1027
asg26
I00
sg27
I00
sg28
I5054054
sg20
S'11971.9056489'
p1262
sba(igraph
Edge
p1263
(dp1264
g7
I1
sg8
I00
sg9
I5
sg10
(lp1265
g82
ag1027
asg26
I00
sg27
I00
sg28
I5054055
sg20
S'11971.9099123'
p1266
sba(igraph
Edge
p1267
(dp1268
g7
I1
sg8
I00
sg9
I5
sg10
(lp1269
g89
ag1041
asg26
I00
sg27
I00
sg28
I5054056
sg20
S'11971.9142145'
p1270
sba(igraph
Edge
p1271
(dp1272
g7
I1
sg8
I00
sg9
I5
sg10
(lp1273
g96
ag1041
asg26
I00
sg27
I00
sg28
I5054057
sg20
S'11971.9185008'
p1274
sba(igraph
Edge
p1275
(dp1276
g7
I1
sg8
I00
sg9
I5
sg10
(lp1277
g103
ag1055
asg26
I00
sg27
I00
sg28
I5054058
sg20
S'11971.9228089'
p1278
sba(igraph
Edge
p1279
(dp1280
g7
I1
sg8
I00
sg9
I5
sg10
(lp1281
g110
ag1055
asg26
I00
sg27
I00
sg28
I5054059
sg20
S'11971.9271486'
p1282
sba(igraph
Edge
p1283
(dp1284
g7
I1
sg8
I00
sg9
I5
sg10
(lp1285
g117
ag1069
asg26
I00
sg27
I00
sg28
I5054060
sg20
S'11971.9326593'
p1286
sba(igraph
Edge
p1287
(dp1288
g7
I1
sg8
I00
sg9
I5
sg10
(lp1289
g124
ag1069
asg26
I00
sg27
I00
sg28
I5054061
sg20
S'11971.9371255'
p1290
sba(igraph
Edge
p1291
(dp1292
g7
I1
sg8
I00
sg9
I5
sg10
(lp1293
g131
ag1083
asg26
I00
sg27
I00
sg28
I5054062
sg20
S'11971.9415697'
p1294
sba(igraph
Edge
p1295
(dp1296
g7
I1
sg8
I00
sg9
I5
sg10
(lp1297
g12
ag1083
asg26
I00
sg27
I00
sg28
I5054063
sg20
S'11971.9461046'
p1298
sba(igraph
Edge
p1299
(dp1300
g7
I1
sg8
I00
sg9
I5
sg10
(lp1301
g23
ag978
asg26
I00
sg27
I00
sg28
I5054064
sg20
S'11971.9506099'
p1302
sba(igraph
Edge
p1303
(dp1304
g7
I1
sg8
I00
sg9
I5
sg10
(lp1305
g33
ag978
asg26
I00
sg27
I00
sg28
I5054065
sg20
S'11971.955134'
p1306
sba(igraph
Edge
p1307
(dp1308
g7
I1
sg8
I00
sg9
I5
sg10
(lp1309
g40
ag992
asg26
I00
sg27
I00
sg28
I5054066
sg20
S'11971.9597055'
p1310
sba(igraph
Edge
p1311
(dp1312
g7
I1
sg8
I00
sg9
I5
sg10
(lp1313
g47
ag992
asg26
I00
sg27
I00
sg28
I5054067
sg20
S'11971.9643133'
p1314
sba(igraph
Edge
p1315
(dp1316
g7
I1
sg8
I00
sg9
I5
sg10
(lp1317
g54
ag1006
asg26
I00
sg27
I00
sg28
I5054068
sg20
S'11971.969019'
p1318
sba(igraph
Edge
p1319
(dp1320
g7
I1
sg8
I00
sg9
I5
sg10
(lp1321
g61
ag1006
asg26
I00
sg27
I00
sg28
I5054069
sg20
S'11971.9736204'
p1322
sba(igraph
Edge
p1323
(dp1324
g7
I1
sg8
I00
sg9
I5
sg10
(lp1325
g68
ag1020
asg26
I00
sg27
I00
sg28
I5054070
sg20
S'11971.9782394'
p1326
sba(igraph
Edge
p1327
(dp1328
g7
I1
sg8
I00
sg9
I5
sg10
(lp1329
g75
ag1020
asg26
I00
sg27
I00
sg28
I5054071
sg20
S'11971.9828763'
p1330
sba(igraph
Edge
p1331
(dp1332
g7
I1
sg8
I00
sg9
I5
sg10
(lp1333
g82
ag1034
asg26
I00
sg27
I00
sg28
I5054072
sg20
S'11971.9875789'
p1334
sba(igraph
Edge
p1335
(dp1336
g7
I1
sg8
I00
sg9
I5
sg10
(lp1337
g89
ag1034
asg26
I00
sg27
I00
sg28
I5054073
sg20
S'11971.9922702'
p1338
sba(igraph
Edge
p1339
(dp1340
g7
I1
sg8
I00
sg9
I5
sg10
(lp1341
g96
ag1048
asg26
I00
sg27
I00
sg28
I5054074
sg20
S'11971.996975'
p1342
sba(igraph
Edge
p1343
(dp1344
g7
I1
sg8
I00
sg9
I5
sg10
(lp1345
g103
ag1048
asg26
I00
sg27
I00
sg28
I5054075
sg20
S'11972.0017125'
p1346
sba(igraph
Edge
p1347
(dp1348
g7
I1
sg8
I00
sg9
I5
sg10
(lp1349
g110
ag1062
asg26
I00
sg27
I00
sg28
I5054076
sg20
S'11972.0064947'
p1350
sba(igraph
Edge
p1351
(dp1352
g7
I1
sg8
I00
sg9
I5
sg10
(lp1353
g117
ag1062
asg26
I00
sg27
I00
sg28
I5054077
sg20
S'11972.0112523'
p1354
sba(igraph
Edge
p1355
(dp1356
g7
I1
sg8
I00
sg9
I5
sg10
(lp1357
g124
ag1076
asg26
I00
sg27
I00
sg28
I5054078
sg20
S'11972.0160124'
p1358
sba(igraph
Edge
p1359
(dp1360
g7
I1
sg8
I00
sg9
I5
sg10
(lp1361
g131
ag1076
asg26
I00
sg27
I00
sg28
I5054079
sg20
S'11972.0207652'
p1362
sba(igraph
Edge
p1363
(dp1364
g7
I1
sg8
I00
sg9
I5
sg10
(lp1365
g142
ag261
asg26
I00
sg27
I00
sg28
I5054080
sg20
S'11972.0257309'
p1366
sba(igraph
Edge
p1367
(dp1368
g7
I1
sg8
I00
sg9
I5
sg10
(lp1369
g145
ag271
asg26
I00
sg27
I00
sg28
I5054081
sg20
S'11972.0305287'
p1370
sba(igraph
Edge
p1371
(dp1372
g7
I1
sg8
I00
sg9
I5
sg10
(lp1373
g152
ag271
asg26
I00
sg27
I00
sg28
I5054082
sg20
S'11972.035343'
p1374
sba(igraph
Edge
p1375
(dp1376
g7
I1
sg8
I00
sg9
I5
sg10
(lp1377
g159
ag285
asg26
I00
sg27
I00
sg28
I5054083
sg20
S'11972.0401724'
p1378
sba(igraph
Edge
p1379
(dp1380
g7
I1
sg8
I00
sg9
I5
sg10
(lp1381
g166
ag285
asg26
I00
sg27
I00
sg28
I5054084
sg20
S'11972.0450448'
p1382
sba(igraph
Edge
p1383
(dp1384
g7
I1
sg8
I00
sg9
I5
sg10
(lp1385
g173
ag299
asg26
I00
sg27
I00
sg28
I5054085
sg20
S'11972.0500541'
p1386
sba(igraph
Edge
p1387
(dp1388
g7
I1
sg8
I00
sg9
I5
sg10
(lp1389
g180
ag299
asg26
I00
sg27
I00
sg28
I5054086
sg20
S'11972.0549461'
p1390
sba(igraph
Edge
p1391
(dp1392
g7
I1
sg8
I00
sg9
I5
sg10
(lp1393
g187
ag313
asg26
I00
sg27
I00
sg28
I5054087
sg20
S'11972.059883'
p1394
sba(igraph
Edge
p1395
(dp1396
g7
I1
sg8
I00
sg9
I5
sg10
(lp1397
g194
ag313
asg26
I00
sg27
I00
sg28
I5054088
sg20
S'11972.0648096'
p1398
sba(igraph
Edge
p1399
(dp1400
g7
I1
sg8
I00
sg9
I5
sg10
(lp1401
g201
ag327
asg26
I00
sg27
I00
sg28
I5054089
sg20
S'11972.0697429'
p1402
sba(igraph
Edge
p1403
(dp1404
g7
I1
sg8
I00
sg9
I5
sg10
(lp1405
g208
ag327
asg26
I00
sg27
I00
sg28
I5054090
sg20
S'11972.0752017'
p1406
sba(igraph
Edge
p1407
(dp1408
g7
I1
sg8
I00
sg9
I5
sg10
(lp1409
g215
ag341
asg26
I00
sg27
I00
sg28
I5054091
sg20
S'11972.0802471'
p1410
sba(igraph
Edge
p1411
(dp1412
g7
I1
sg8
I00
sg9
I5
sg10
(lp1413
g222
ag341
asg26
I00
sg27
I00
sg28
I5054092
sg20
S'11972.0852893'
p1414
sba(igraph
Edge
p1415
(dp1416
g7
I1
sg8
I00
sg9
I5
sg10
(lp1417
g229
ag355
asg26
I00
sg27
I00
sg28
I5054093
sg20
S'11972.0904263'
p1418
sba(igraph
Edge
p1419
(dp1420
g7
I1
sg8
I00
sg9
I5
sg10
(lp1421
g236
ag355
asg26
I00
sg27
I00
sg28
I5054094
sg20
S'11972.0956328'
p1422
sba(igraph
Edge
p1423
(dp1424
g7
I1
sg8
I00
sg9
I5
sg10
(lp1425
g243
ag369
asg26
I00
sg27
I00
sg28
I5054095
sg20
S'11972.1008307'
p1426
sba(igraph
Edge
p1427
(dp1428
g7
I1
sg8
I00
sg9
I5
sg10
(lp1429
g250
ag369
asg26
I00
sg27
I00
sg28
I5054096
sg20
S'11972.1060886'
p1430
sba(igraph
Edge
p1431
(dp1432
g7
I1
sg8
I00
sg9
I5
sg10
(lp1433
g142
ag264
asg26
I00
sg27
I00
sg28
I5054097
sg20
S'11972.1113317'
p1434
sba(igraph
Edge
p1435
(dp1436
g7
I1
sg8
I00
sg9
I5
sg10
(lp1437
g145
ag264
asg26
I00
sg27
I00
sg28
I5054098
sg20
S'11972.1169034'
p1438
sba(igraph
Edge
p1439
(dp1440
g7
I1
sg8
I00
sg9
I5
sg10
(lp1441
g152
ag278
asg26
I00
sg27
I00
sg28
I5054099
sg20
S'11972.122144'
p1442
sba(igraph
Edge
p1443
(dp1444
g7
I1
sg8
I00
sg9
I5
sg10
(lp1445
g159
ag278
asg26
I00
sg27
I00
sg28
I5054100
sg20
S'11972.1274067'
p1446
sba(igraph
Edge
p1447
(dp1448
g7
I1
sg8
I00
sg9
I5
sg10
(lp1449
g166
ag292
asg26
I00
sg27
I00
sg28
I5054101
sg20
S'11972.1327378'
p1450
sba(igraph
Edge
p1451
(dp1452
g7
I1
sg8
I00
sg9
I5
sg10
(lp1453
g173
ag292
asg26
I00
sg27
I00
sg28
I5054102
sg20
S'11972.1380237'
p1454
sba(igraph
Edge
p1455
(dp1456
g7
I1
sg8
I00
sg9
I5
sg10
(lp1457
g180
ag306
asg26
I00
sg27
I00
sg28
I5054103
sg20
S'11972.1433364'
p1458
sba(igraph
Edge
p1459
(dp1460
g7
I1
sg8
I00
sg9
I5
sg10
(lp1461
g187
ag306
asg26
I00
sg27
I00
sg28
I5054104
sg20
S'11972.1486753'
p1462
sba(igraph
Edge
p1463
(dp1464
g7
I1
sg8
I00
sg9
I5
sg10
(lp1465
g194
ag320
asg26
I00
sg27
I00
sg28
I5054105
sg20
S'11972.1540749'
p1466
sba(igraph
Edge
p1467
(dp1468
g7
I1
sg8
I00
sg9
I5
sg10
(lp1469
g201
ag320
asg26
I00
sg27
I00
sg28
I5054106
sg20
S'11972.1594764'
p1470
sba(igraph
Edge
p1471
(dp1472
g7
I1
sg8
I00
sg9
I5
sg10
(lp1473
g208
ag334
asg26
I00
sg27
I00
sg28
I5054107
sg20
S'11972.1649545'
p1474
sba(igraph
Edge
p1475
(dp1476
g7
I1
sg8
I00
sg9
I5
sg10
(lp1477
g215
ag334
asg26
I00
sg27
I00
sg28
I5054108
sg20
S'11972.1703968'
p1478
sba(igraph
Edge
p1479
(dp1480
g7
I1
sg8
I00
sg9
I5
sg10
(lp1481
g222
ag348
asg26
I00
sg27
I00
sg28
I5054109
sg20
S'11972.1758743'
p1482
sba(igraph
Edge
p1483
(dp1484
g7
I1
sg8
I00
sg9
I5
sg10
(lp1485
g229
ag348
asg26
I00
sg27
I00
sg28
I5054110
sg20
S'11972.1813504'
p1486
sba(igraph
Edge
p1487
(dp1488
g7
I1
sg8
I00
sg9
I5
sg10
(lp1489
g236
ag362
asg26
I00
sg27
I00
sg28
I5054111
sg20
S'11972.1869062'
p1490
sba(igraph
Edge
p1491
(dp1492
g7
I1
sg8
I00
sg9
I5
sg10
(lp1493
g243
ag362
asg26
I00
sg27
I00
sg28
I5054112
sg20
S'11972.1924393'
p1494
sba(igraph
Edge
p1495
(dp1496
g7
I1
sg8
I00
sg9
I5
sg10
(lp1497
g250
ag261
asg26
I00
sg27
I00
sg28
I5054113
sg20
S'11972.1980361'
p1498
sba(igraph
Edge
p1499
(dp1500
g7
I1
sg8
I00
sg9
I5
sg10
(lp1501
g261
ag380
asg26
I00
sg27
I00
sg28
I5054114
sg20
S'11972.2036281'
p1502
sba(igraph
Edge
p1503
(dp1504
g7
I1
sg8
I00
sg9
I5
sg10
(lp1505
g264
ag390
asg26
I00
sg27
I00
sg28
I5054115
sg20
S'11972.2092526'
p1506
sba(igraph
Edge
p1507
(dp1508
g7
I1
sg8
I00
sg9
I5
sg10
(lp1509
g271
ag390
asg26
I00
sg27
I00
sg28
I5054116
sg20
S'11972.2149058'
p1510
sba(igraph
Edge
p1511
(dp1512
g7
I1
sg8
I00
sg9
I5
sg10
(lp1513
g278
ag404
asg26
I00
sg27
I00
sg28
I5054117
sg20
S'11972.2205442'
p1514
sba(igraph
Edge
p1515
(dp1516
g7
I1
sg8
I00
sg9
I5
sg10
(lp1517
g285
ag404
asg26
I00
sg27
I00
sg28
I5054118
sg20
S'11972.2263221'
p1518
sba(igraph
Edge
p1519
(dp1520
g7
I1
sg8
I00
sg9
I5
sg10
(lp1521
g292
ag418
asg26
I00
sg27
I00
sg28
I5054119
sg20
S'11972.2320259'
p1522
sba(igraph
Edge
p1523
(dp1524
g7
I1
sg8
I00
sg9
I5
sg10
(lp1525
g299
ag418
asg26
I00
sg27
I00
sg28
I5054120
sg20
S'11972.2377378'
p1526
sba(igraph
Edge
p1527
(dp1528
g7
I1
sg8
I00
sg9
I5
sg10
(lp1529
g306
ag432
asg26
I00
sg27
I00
sg28
I5054121
sg20
S'11972.2434745'
p1530
sba(igraph
Edge
p1531
(dp1532
g7
I1
sg8
I00
sg9
I5
sg10
(lp1533
g313
ag432
asg26
I00
sg27
I00
sg28
I5054122
sg20
S'11972.249304'
p1534
sba(igraph
Edge
p1535
(dp1536
g7
I1
sg8
I00
sg9
I5
sg10
(lp1537
g320
ag446
asg26
I00
sg27
I00
sg28
I5054123
sg20
S'11972.2550679'
p1538
sba(igraph
Edge
p1539
(dp1540
g7
I1
sg8
I00
sg9
I5
sg10
(lp1541
g327
ag446
asg26
I00
sg27
I00
sg28
I5054124
sg20
S'11972.2608968'
p1542
sba(igraph
Edge
p1543
(dp1544
g7
I1
sg8
I00
sg9
I5
sg10
(lp1545
g334
ag460
asg26
I00
sg27
I00
sg28
I5054125
sg20
S'11972.2666959'
p1546
sba(igraph
Edge
p1547
(dp1548
g7
I1
sg8
I00
sg9
I5
sg10
(lp1549
g341
ag460
asg26
I00
sg27
I00
sg28
I5054126
sg20
S'11972.2725087'
p1550
sba(igraph
Edge
p1551
(dp1552
g7
I1
sg8
I00
sg9
I5
sg10
(lp1553
g348
ag474
asg26
I00
sg27
I00
sg28
I5054127
sg20
S'11972.2784776'
p1554
sba(igraph
Edge
p1555
(dp1556
g7
I1
sg8
I00
sg9
I5
sg10
(lp1557
g355
ag474
asg26
I00
sg27
I00
sg28
I5054128
sg20
S'11972.2843993'
p1558
sba(igraph
Edge
p1559
(dp1560
g7
I1
sg8
I00
sg9
I5
sg10
(lp1561
g362
ag488
asg26
I00
sg27
I00
sg28
I5054129
sg20
S'11972.2902464'
p1562
sba(igraph
Edge
p1563
(dp1564
g7
I1
sg8
I00
sg9
I5
sg10
(lp1565
g369
ag488
asg26
I00
sg27
I00
sg28
I5054130
sg20
S'11972.2961921'
p1566
sba(igraph
Edge
p1567
(dp1568
g7
I1
sg8
I00
sg9
I5
sg10
(lp1569
g261
ag383
asg26
I00
sg27
I00
sg28
I5054131
sg20
S'11972.3020996'
p1570
sba(igraph
Edge
p1571
(dp1572
g7
I1
sg8
I00
sg9
I5
sg10
(lp1573
g264
ag383
asg26
I00
sg27
I00
sg28
I5054132
sg20
S'11972.3080721'
p1574
sba(igraph
Edge
p1575
(dp1576
g7
I1
sg8
I00
sg9
I5
sg10
(lp1577
g271
ag397
asg26
I00
sg27
I00
sg28
I5054133
sg20
S'11972.3139821'
p1578
sba(igraph
Edge
p1579
(dp1580
g7
I1
sg8
I00
sg9
I5
sg10
(lp1581
g278
ag397
asg26
I00
sg27
I00
sg28
I5054134
sg20
S'11972.3199574'
p1582
sba(igraph
Edge
p1583
(dp1584
g7
I1
sg8
I00
sg9
I5
sg10
(lp1585
g285
ag411
asg26
I00
sg27
I00
sg28
I5054135
sg20
S'11972.3261529'
p1586
sba(igraph
Edge
p1587
(dp1588
g7
I1
sg8
I00
sg9
I5
sg10
(lp1589
g292
ag411
asg26
I00
sg27
I00
sg28
I5054136
sg20
S'11972.3322243'
p1590
sba(igraph
Edge
p1591
(dp1592
g7
I1
sg8
I00
sg9
I5
sg10
(lp1593
g299
ag425
asg26
I00
sg27
I00
sg28
I5054137
sg20
S'11972.3390171'
p1594
sba(igraph
Edge
p1595
(dp1596
g7
I1
sg8
I00
sg9
I5
sg10
(lp1597
g306
ag425
asg26
I00
sg27
I00
sg28
I5054138
sg20
S'11972.3450662'
p1598
sba(igraph
Edge
p1599
(dp1600
g7
I1
sg8
I00
sg9
I5
sg10
(lp1601
g313
ag439
asg26
I00
sg27
I00
sg28
I5054139
sg20
S'11972.3511281'
p1602
sba(igraph
Edge
p1603
(dp1604
g7
I1
sg8
I00
sg9
I5
sg10
(lp1605
g320
ag439
asg26
I00
sg27
I00
sg28
I5054140
sg20
S'11972.3572518'
p1606
sba(igraph
Edge
p1607
(dp1608
g7
I1
sg8
I00
sg9
I5
sg10
(lp1609
g327
ag453
asg26
I00
sg27
I00
sg28
I5054141
sg20
S'11972.3634713'
p1610
sba(igraph
Edge
p1611
(dp1612
g7
I1
sg8
I00
sg9
I5
sg10
(lp1613
g334
ag453
asg26
I00
sg27
I00
sg28
I5054142
sg20
S'11972.3697249'
p1614
sba(igraph
Edge
p1615
(dp1616
g7
I1
sg8
I00
sg9
I5
sg10
(lp1617
g341
ag467
asg26
I00
sg27
I00
sg28
I5054143
sg20
S'11972.3759293'
p1618
sba(igraph
Edge
p1619
(dp1620
g7
I1
sg8
I00
sg9
I5
sg10
(lp1621
g348
ag467
asg26
I00
sg27
I00
sg28
I5054144
sg20
S'11972.3820916'
p1622
sba(igraph
Edge
p1623
(dp1624
g7
I1
sg8
I00
sg9
I5
sg10
(lp1625
g355
ag481
asg26
I00
sg27
I00
sg28
I5054145
sg20
S'11972.3883935'
p1626
sba(igraph
Edge
p1627
(dp1628
g7
I1
sg8
I00
sg9
I5
sg10
(lp1629
g362
ag481
asg26
I00
sg27
I00
sg28
I5054146
sg20
S'11972.3946728'
p1630
sba(igraph
Edge
p1631
(dp1632
g7
I1
sg8
I00
sg9
I5
sg10
(lp1633
g369
ag380
asg26
I00
sg27
I00
sg28
I5054147
sg20
S'11972.4010239'
p1634
sba(igraph
Edge
p1635
(dp1636
g7
I1
sg8
I00
sg9
I5
sg10
(lp1637
g380
ag499
asg26
I00
sg27
I00
sg28
I5054148
sg20
S'11972.4073353'
p1638
sba(igraph
Edge
p1639
(dp1640
g7
I1
sg8
I00
sg9
I5
sg10
(lp1641
g383
ag509
asg26
I00
sg27
I00
sg28
I5054149
sg20
S'11972.4136607'
p1642
sba(igraph
Edge
p1643
(dp1644
g7
I1
sg8
I00
sg9
I5
sg10
(lp1645
g390
ag509
asg26
I00
sg27
I00
sg28
I5054150
sg20
S'11972.4200302'
p1646
sba(igraph
Edge
p1647
(dp1648
g7
I1
sg8
I00
sg9
I5
sg10
(lp1649
g397
ag523
asg26
I00
sg27
I00
sg28
I5054151
sg20
S'11972.4265327'
p1650
sba(igraph
Edge
p1651
(dp1652
g7
I1
sg8
I00
sg9
I5
sg10
(lp1653
g404
ag523
asg26
I00
sg27
I00
sg28
I5054152
sg20
S'11972.4331165'
p1654
sba(igraph
Edge
p1655
(dp1656
g7
I1
sg8
I00
sg9
I5
sg10
(lp1657
g411
ag537
asg26
I00
sg27
I00
sg28
I5054153
sg20
S'11972.439593'
p1658
sba(igraph
Edge
p1659
(dp1660
g7
I1
sg8
I00
sg9
I5
sg10
(lp1661
g418
ag537
asg26
I00
sg27
I00
sg28
I5054154
sg20
S'11972.4460905'
p1662
sba(igraph
Edge
p1663
(dp1664
g7
I1
sg8
I00
sg9
I5
sg10
(lp1665
g425
ag551
asg26
I00
sg27
I00
sg28
I5054155
sg20
S'11972.4526628'
p1666
sba(igraph
Edge
p1667
(dp1668
g7
I1
sg8
I00
sg9
I5
sg10
(lp1669
g432
ag551
asg26
I00
sg27
I00
sg28
I5054156
sg20
S'11972.4591542'
p1670
sba(igraph
Edge
p1671
(dp1672
g7
I1
sg8
I00
sg9
I5
sg10
(lp1673
g439
ag565
asg26
I00
sg27
I00
sg28
I5054157
sg20
S'11972.4655564'
p1674
sba(igraph
Edge
p1675
(dp1676
g7
I1
sg8
I00
sg9
I5
sg10
(lp1677
g446
ag565
asg26
I00
sg27
I00
sg28
I5054158
sg20
S'11972.4722'
p1678
sba(igraph
Edge
p1679
(dp1680
g7
I1
sg8
I00
sg9
I5
sg10
(lp1681
g453
ag579
asg26
I00
sg27
I00
sg28
I5054159
sg20
S'11972.4787553'
p1682
sba(igraph
Edge
p1683
(dp1684
g7
I1
sg8
I00
sg9
I5
sg10
(lp1685
g460
ag579
asg26
I00
sg27
I00
sg28
I5054160
sg20
S'11972.485355'
p1686
sba(igraph
Edge
p1687
(dp1688
g7
I1
sg8
I00
sg9
I5
sg10
(lp1689
g467
ag593
asg26
I00
sg27
I00
sg28
I5054161
sg20
S'11972.4919854'
p1690
sba(igraph
Edge
p1691
(dp1692
g7
I1
sg8
I00
sg9
I5
sg10
(lp1693
g474
ag593
asg26
I00
sg27
I00
sg28
I5054162
sg20
S'11972.4986681'
p1694
sba(igraph
Edge
p1695
(dp1696
g7
I1
sg8
I00
sg9
I5
sg10
(lp1697
g481
ag607
asg26
I00
sg27
I00
sg28
I5054163
sg20
S'11972.505374'
p1698
sba(igraph
Edge
p1699
(dp1700
g7
I1
sg8
I00
sg9
I5
sg10
(lp1701
g488
ag607
asg26
I00
sg27
I00
sg28
I5054164
sg20
S'11972.5122148'
p1702
sba(igraph
Edge
p1703
(dp1704
g7
I1
sg8
I00
sg9
I5
sg10
(lp1705
g380
ag502
asg26
I00
sg27
I00
sg28
I5054165
sg20
S'11972.5189199'
p1706
sba(igraph
Edge
p1707
(dp1708
g7
I1
sg8
I00
sg9
I5
sg10
(lp1709
g383
ag502
asg26
I00
sg27
I00
sg28
I5054166
sg20
S'11972.5256308'
p1710
sba(igraph
Edge
p1711
(dp1712
g7
I1
sg8
I00
sg9
I5
sg10
(lp1713
g390
ag516
asg26
I00
sg27
I00
sg28
I5054167
sg20
S'11972.5324733'
p1714
sba(igraph
Edge
p1715
(dp1716
g7
I1
sg8
I00
sg9
I5
sg10
(lp1717
g397
ag516
asg26
I00
sg27
I00
sg28
I5054168
sg20
S'11972.5409816'
p1718
sba(igraph
Edge
p1719
(dp1720
g7
I1
sg8
I00
sg9
I5
sg10
(lp1721
g404
ag530
asg26
I00
sg27
I00
sg28
I5054169
sg20
S'11972.5486801'
p1722
sba(igraph
Edge
p1723
(dp1724
g7
I1
sg8
I00
sg9
I5
sg10
(lp1725
g411
ag530
asg26
I00
sg27
I00
sg28
I5054170
sg20
S'11972.5565707'
p1726
sba(igraph
Edge
p1727
(dp1728
g7
I1
sg8
I00
sg9
I5
sg10
(lp1729
g418
ag544
asg26
I00
sg27
I00
sg28
I5054171
sg20
S'11972.5636845'
p1730
sba(igraph
Edge
p1731
(dp1732
g7
I1
sg8
I00
sg9
I5
sg10
(lp1733
g425
ag544
asg26
I00
sg27
I00
sg28
I5054172
sg20
S'11972.5705625'
p1734
sba(igraph
Edge
p1735
(dp1736
g7
I1
sg8
I00
sg9
I5
sg10
(lp1737
g432
ag558
asg26
I00
sg27
I00
sg28
I5054173
sg20
S'11972.5775497'
p1738
sba(igraph
Edge
p1739
(dp1740
g7
I1
sg8
I00
sg9
I5
sg10
(lp1741
g439
ag558
asg26
I00
sg27
I00
sg28
I5054174
sg20
S'11972.5848335'
p1742
sba(igraph
Edge
p1743
(dp1744
g7
I1
sg8
I00
sg9
I5
sg10
(lp1745
g446
ag572
asg26
I00
sg27
I00
sg28
I5054175
sg20
S'11972.5919467'
p1746
sba(igraph
Edge
p1747
(dp1748
g7
I1
sg8
I00
sg9
I5
sg10
(lp1749
g453
ag572
asg26
I00
sg27
I00
sg28
I5054176
sg20
S'11972.5988549'
p1750
sba(igraph
Edge
p1751
(dp1752
g7
I1
sg8
I00
sg9
I5
sg10
(lp1753
g460
ag586
asg26
I00
sg27
I00
sg28
I5054177
sg20
S'11972.6057745'
p1754
sba(igraph
Edge
p1755
(dp1756
g7
I1
sg8
I00
sg9
I5
sg10
(lp1757
g467
ag586
asg26
I00
sg27
I00
sg28
I5054178
sg20
S'11972.6127636'
p1758
sba(igraph
Edge
p1759
(dp1760
g7
I1
sg8
I00
sg9
I5
sg10
(lp1761
g474
ag600
asg26
I00
sg27
I00
sg28
I5054179
sg20
S'11972.6197676'
p1762
sba(igraph
Edge
p1763
(dp1764
g7
I1
sg8
I00
sg9
I5
sg10
(lp1765
g481
ag600
asg26
I00
sg27
I00
sg28
I5054180
sg20
S'11972.6267481'
p1766
sba(igraph
Edge
p1767
(dp1768
g7
I1
sg8
I00
sg9
I5
sg10
(lp1769
g488
ag499
asg26
I00
sg27
I00
sg28
I5054181
sg20
S'11972.6337892'
p1770
sba(igraph
Edge
p1771
(dp1772
g7
I1
sg8
I00
sg9
I5
sg10
(lp1773
g499
ag618
asg26
I00
sg27
I00
sg28
I5054182
sg20
S'11972.6408102'
p1774
sba(igraph
Edge
p1775
(dp1776
g7
I1
sg8
I00
sg9
I5
sg10
(lp1777
g502
ag628
asg26
I00
sg27
I00
sg28
I5054183
sg20
S'11972.6478969'
p1778
sba(igraph
Edge
p1779
(dp1780
g7
I1
sg8
I00
sg9
I5
sg10
(lp1781
g509
ag628
asg26
I00
sg27
I00
sg28
I5054184
sg20
S'11972.6549925'
p1782
sba(igraph
Edge
p1783
(dp1784
g7
I1
sg8
I00
sg9
I5
sg10
(lp1785
g516
ag642
asg26
I00
sg27
I00
sg28
I5054185
sg20
S'11972.6622428'
p1786
sba(igraph
Edge
p1787
(dp1788
g7
I1
sg8
I00
sg9
I5
sg10
(lp1789
g523
ag642
asg26
I00
sg27
I00
sg28
I5054186
sg20
S'11972.6696737'
p1790
sba(igraph
Edge
p1791
(dp1792
g7
I1
sg8
I00
sg9
I5
sg10
(lp1793
g530
ag656
asg26
I00
sg27
I00
sg28
I5054187
sg20
S'11972.6769877'
p1794
sba(igraph
Edge
p1795
(dp1796
g7
I1
sg8
I00
sg9
I5
sg10
(lp1797
g537
ag656
asg26
I00
sg27
I00
sg28
I5054188
sg20
S'11972.6842585'
p1798
sba(igraph
Edge
p1799
(dp1800
g7
I1
sg8
I00
sg9
I5
sg10
(lp1801
g544
ag670
asg26
I00
sg27
I00
sg28
I5054189
sg20
S'11972.6915072'
p1802
sba(igraph
Edge
p1803
(dp1804
g7
I1
sg8
I00
sg9
I5
sg10
(lp1805
g551
ag670
asg26
I00
sg27
I00
sg28
I5054190
sg20
S'11972.6988816'
p1806
sba(igraph
Edge
p1807
(dp1808
g7
I1
sg8
I00
sg9
I5
sg10
(lp1809
g558
ag684
asg26
I00
sg27
I00
sg28
I5054191
sg20
S'11972.7061381'
p1810
sba(igraph
Edge
p1811
(dp1812
g7
I1
sg8
I00
sg9
I5
sg10
(lp1813
g565
ag684
asg26
I00
sg27
I00
sg28
I5054192
sg20
S'11972.7134125'
p1814
sba(igraph
Edge
p1815
(dp1816
g7
I1
sg8
I00
sg9
I5
sg10
(lp1817
g572
ag698
asg26
I00
sg27
I00
sg28
I5054193
sg20
S'11972.7208416'
p1818
sba(igraph
Edge
p1819
(dp1820
g7
I1
sg8
I00
sg9
I5
sg10
(lp1821
g579
ag698
asg26
I00
sg27
I00
sg28
I5054194
sg20
S'11972.7281836'
p1822
sba(igraph
Edge
p1823
(dp1824
g7
I1
sg8
I00
sg9
I5
sg10
(lp1825
g586
ag712
asg26
I00
sg27
I00
sg28
I5054195
sg20
S'11972.7355773'
p1826
sba(igraph
Edge
p1827
(dp1828
g7
I1
sg8
I00
sg9
I5
sg10
(lp1829
g593
ag712
asg26
I00
sg27
I00
sg28
I5054196
sg20
S'11972.7428201'
p1830
sba(igraph
Edge
p1831
(dp1832
g7
I1
sg8
I00
sg9
I5
sg10
(lp1833
g600
ag726
asg26
I00
sg27
I00
sg28
I5054197
sg20
S'11972.7501931'
p1834
sba(igraph
Edge
p1835
(dp1836
g7
I1
sg8
I00
sg9
I5
sg10
(lp1837
g607
ag726
asg26
I00
sg27
I00
sg28
I5054198
sg20
S'11972.7575563'
p1838
sba(igraph
Edge
p1839
(dp1840
g7
I1
sg8
I00
sg9
I5
sg10
(lp1841
g499
ag621
asg26
I00
sg27
I00
sg28
I5054199
sg20
S'11972.764981'
p1842
sba(igraph
Edge
p1843
(dp1844
g7
I1
sg8
I00
sg9
I5
sg10
(lp1845
g502
ag621
asg26
I00
sg27
I00
sg28
I5054200
sg20
S'11972.7723772'
p1846
sba(igraph
Edge
p1847
(dp1848
g7
I1
sg8
I00
sg9
I5
sg10
(lp1849
g509
ag635
asg26
I00
sg27
I00
sg28
I5054201
sg20
S'11972.7799354'
p1850
sba(igraph
Edge
p1851
(dp1852
g7
I1
sg8
I00
sg9
I5
sg10
(lp1853
g516
ag635
asg26
I00
sg27
I00
sg28
I5054202
sg20
S'11972.7873875'
p1854
sba(igraph
Edge
p1855
(dp1856
g7
I1
sg8
I00
sg9
I5
sg10
(lp1857
g523
ag649
asg26
I00
sg27
I00
sg28
I5054203
sg20
S'11972.7948963'
p1858
sba(igraph
Edge
p1859
(dp1860
g7
I1
sg8
I00
sg9
I5
sg10
(lp1861
g530
ag649
asg26
I00
sg27
I00
sg28
I5054204
sg20
S'11972.8024682'
p1862
sba(igraph
Edge
p1863
(dp1864
g7
I1
sg8
I00
sg9
I5
sg10
(lp1865
g537
ag663
asg26
I00
sg27
I00
sg28
I5054205
sg20
S'11972.8099767'
p1866
sba(igraph
Edge
p1867
(dp1868
g7
I1
sg8
I00
sg9
I5
sg10
(lp1869
g544
ag663
asg26
I00
sg27
I00
sg28
I5054206
sg20
S'11972.8174318'
p1870
sba(igraph
Edge
p1871
(dp1872
g7
I1
sg8
I00
sg9
I5
sg10
(lp1873
g551
ag677
asg26
I00
sg27
I00
sg28
I5054207
sg20
S'11972.8250434'
p1874
sba(igraph
Edge
p1875
(dp1876
g7
I1
sg8
I00
sg9
I5
sg10
(lp1877
g558
ag677
asg26
I00
sg27
I00
sg28
I5054208
sg20
S'11972.8326245'
p1878
sba(igraph
Edge
p1879
(dp1880
g7
I1
sg8
I00
sg9
I5
sg10
(lp1881
g565
ag691
asg26
I00
sg27
I00
sg28
I5054209
sg20
S'11972.8402006'
p1882
sba(igraph
Edge
p1883
(dp1884
g7
I1
sg8
I00
sg9
I5
sg10
(lp1885
g572
ag691
asg26
I00
sg27
I00
sg28
I5054210
sg20
S'11972.8478871'
p1886
sba(igraph
Edge
p1887
(dp1888
g7
I1
sg8
I00
sg9
I5
sg10
(lp1889
g579
ag705
asg26
I00
sg27
I00
sg28
I5054211
sg20
S'11972.8556487'
p1890
sba(igraph
Edge
p1891
(dp1892
g7
I1
sg8
I00
sg9
I5
sg10
(lp1893
g586
ag705
asg26
I00
sg27
I00
sg28
I5054212
sg20
S'11972.8633041'
p1894
sba(igraph
Edge
p1895
(dp1896
g7
I1
sg8
I00
sg9
I5
sg10
(lp1897
g593
ag719
asg26
I00
sg27
I00
sg28
I5054213
sg20
S'11972.8710275'
p1898
sba(igraph
Edge
p1899
(dp1900
g7
I1
sg8
I00
sg9
I5
sg10
(lp1901
g600
ag719
asg26
I00
sg27
I00
sg28
I5054214
sg20
S'11972.8786857'
p1902
sba(igraph
Edge
p1903
(dp1904
g7
I1
sg8
I00
sg9
I5
sg10
(lp1905
g607
ag618
asg26
I00
sg27
I00
sg28
I5054215
sg20
S'11972.8863917'
p1906
sba(igraph
Edge
p1907
(dp1908
g7
I1
sg8
I00
sg9
I5
sg10
(lp1909
g618
ag737
asg26
I00
sg27
I00
sg28
I5054216
sg20
S'11972.8940701'
p1910
sba(igraph
Edge
p1911
(dp1912
g7
I1
sg8
I00
sg9
I5
sg10
(lp1913
g621
ag747
asg26
I00
sg27
I00
sg28
I5054217
sg20
S'11972.9017557'
p1914
sba(igraph
Edge
p1915
(dp1916
g7
I1
sg8
I00
sg9
I5
sg10
(lp1917
g628
ag747
asg26
I00
sg27
I00
sg28
I5054218
sg20
S'11972.9095259'
p1918
sba(igraph
Edge
p1919
(dp1920
g7
I1
sg8
I00
sg9
I5
sg10
(lp1921
g635
ag761
asg26
I00
sg27
I00
sg28
I5054219
sg20
S'11972.9174811'
p1922
sba(igraph
Edge
p1923
(dp1924
g7
I1
sg8
I00
sg9
I5
sg10
(lp1925
g642
ag761
asg26
I00
sg27
I00
sg28
I5054220
sg20
S'11972.9254187'
p1926
sba(igraph
Edge
p1927
(dp1928
g7
I1
sg8
I00
sg9
I5
sg10
(lp1929
g649
ag775
asg26
I00
sg27
I00
sg28
I5054221
sg20
S'11972.933372'
p1930
sba(igraph
Edge
p1931
(dp1932
g7
I1
sg8
I00
sg9
I5
sg10
(lp1933
g656
ag775
asg26
I00
sg27
I00
sg28
I5054222
sg20
S'11972.941511'
p1934
sba(igraph
Edge
p1935
(dp1936
g7
I1
sg8
I00
sg9
I5
sg10
(lp1937
g663
ag789
asg26
I00
sg27
I00
sg28
I5054223
sg20
S'11972.9495888'
p1938
sba(igraph
Edge
p1939
(dp1940
g7
I1
sg8
I00
sg9
I5
sg10
(lp1941
g670
ag789
asg26
I00
sg27
I00
sg28
I5054224
sg20
S'11972.9575276'
p1942
sba(igraph
Edge
p1943
(dp1944
g7
I1
sg8
I00
sg9
I5
sg10
(lp1945
g677
ag803
asg26
I00
sg27
I00
sg28
I5054225
sg20
S'11972.9659289'
p1946
sba(igraph
Edge
p1947
(dp1948
g7
I1
sg8
I00
sg9
I5
sg10
(lp1949
g684
ag803
asg26
I00
sg27
I00
sg28
I5054226
sg20
S'11972.9740135'
p1950
sba(igraph
Edge
p1951
(dp1952
g7
I1
sg8
I00
sg9
I5
sg10
(lp1953
g691
ag817
asg26
I00
sg27
I00
sg28
I5054227
sg20
S'11972.9821136'
p1954
sba(igraph
Edge
p1955
(dp1956
g7
I1
sg8
I00
sg9
I5
sg10
(lp1957
g698
ag817
asg26
I00
sg27
I00
sg28
I5054228
sg20
S'11972.9903113'
p1958
sba(igraph
Edge
p1959
(dp1960
g7
I1
sg8
I00
sg9
I5
sg10
(lp1961
g705
ag831
asg26
I00
sg27
I00
sg28
I5054229
sg20
S'11972.9995734'
p1962
sba(igraph
Edge
p1963
(dp1964
g7
I1
sg8
I00
sg9
I5
sg10
(lp1965
g712
ag831
asg26
I00
sg27
I00
sg28
I5054230
sg20
S'11973.0079345'
p1966
sba(igraph
Edge
p1967
(dp1968
g7
I1
sg8
I00
sg9
I5
sg10
(lp1969
g719
ag845
asg26
I00
sg27
I00
sg28
I5054231
sg20
S'11973.0161942'
p1970
sba(igraph
Edge
p1971
(dp1972
g7
I1
sg8
I00
sg9
I5
sg10
(lp1973
g726
ag845
asg26
I00
sg27
I00
sg28
I5054232
sg20
S'11973.0244447'
p1974
sba(igraph
Edge
p1975
(dp1976
g7
I1
sg8
I00
sg9
I5
sg10
(lp1977
g618
ag740
asg26
I00
sg27
I00
sg28
I5054233
sg20
S'11973.0327178'
p1978
sba(igraph
Edge
p1979
(dp1980
g7
I1
sg8
I00
sg9
I5
sg10
(lp1981
g621
ag740
asg26
I00
sg27
I00
sg28
I5054234
sg20
S'11973.041129'
p1982
sba(igraph
Edge
p1983
(dp1984
g7
I1
sg8
I00
sg9
I5
sg10
(lp1985
g628
ag754
asg26
I00
sg27
I00
sg28
I5054235
sg20
S'11973.0494856'
p1986
sba(igraph
Edge
p1987
(dp1988
g7
I1
sg8
I00
sg9
I5
sg10
(lp1989
g635
ag754
asg26
I00
sg27
I00
sg28
I5054236
sg20
S'11973.0579222'
p1990
sba(igraph
Edge
p1991
(dp1992
g7
I1
sg8
I00
sg9
I5
sg10
(lp1993
g642
ag768
asg26
I00
sg27
I00
sg28
I5054237
sg20
S'11973.066376'
p1994
sba(igraph
Edge
p1995
(dp1996
g7
I1
sg8
I00
sg9
I5
sg10
(lp1997
g649
ag768
asg26
I00
sg27
I00
sg28
I5054238
sg20
S'11973.074743'
p1998
sba(igraph
Edge
p1999
(dp2000
g7
I1
sg8
I00
sg9
I5
sg10
(lp2001
g656
ag782
asg26
I00
sg27
I00
sg28
I5054239
sg20
S'11973.0830695'
p2002
sba(igraph
Edge
p2003
(dp2004
g7
I1
sg8
I00
sg9
I5
sg10
(lp2005
g663
ag782
asg26
I00
sg27
I00
sg28
I5054240
sg20
S'11973.0914826'
p2006
sba(igraph
Edge
p2007
(dp2008
g7
I1
sg8
I00
sg9
I5
sg10
(lp2009
g670
ag796
asg26
I00
sg27
I00
sg28
I5054241
sg20
S'11973.0998764'
p2010
sba(igraph
Edge
p2011
(dp2012
g7
I1
sg8
I00
sg9
I5
sg10
(lp2013
g677
ag796
asg26
I00
sg27
I00
sg28
I5054242
sg20
S'11973.1086674'
p2014
sba(igraph
Edge
p2015
(dp2016
g7
I1
sg8
I00
sg9
I5
sg10
(lp2017
g684
ag810
asg26
I00
sg27
I00
sg28
I5054243
sg20
S'11973.1171163'
p2018
sba(igraph
Edge
p2019
(dp2020
g7
I1
sg8
I00
sg9
I5
sg10
(lp2021
g691
ag810
asg26
I00
sg27
I00
sg28
I5054244
sg20
S'11973.1257319'
p2022
sba(igraph
Edge
p2023
(dp2024
g7
I1
sg8
I00
sg9
I5
sg10
(lp2025
g698
ag824
asg26
I00
sg27
I00
sg28
I5054245
sg20
S'11973.1342131'
p2026
sba(igraph
Edge
p2027
(dp2028
g7
I1
sg8
I00
sg9
I5
sg10
(lp2029
g705
ag824
asg26
I00
sg27
I00
sg28
I5054246
sg20
S'11973.1427184'
p2030
sba(igraph
Edge
p2031
(dp2032
g7
I1
sg8
I00
sg9
I5
sg10
(lp2033
g712
ag838
asg26
I00
sg27
I00
sg28
I5054247
sg20
S'11973.1512865'
p2034
sba(igraph
Edge
p2035
(dp2036
g7
I1
sg8
I00
sg9
I5
sg10
(lp2037
g719
ag838
asg26
I00
sg27
I00
sg28
I5054248
sg20
S'11973.1598429'
p2038
sba(igraph
Edge
p2039
(dp2040
g7
I1
sg8
I00
sg9
I5
sg10
(lp2041
g726
ag737
asg26
I00
sg27
I00
sg28
I5054249
sg20
S'11973.1684016'
p2042
sba(igraph
Edge
p2043
(dp2044
g7
I1
sg8
I00
sg9
I5
sg10
(lp2045
g737
ag856
asg26
I00
sg27
I00
sg28
I5054250
sg20
S'11973.1770557'
p2046
sba(igraph
Edge
p2047
(dp2048
g7
I1
sg8
I00
sg9
I5
sg10
(lp2049
g740
ag866
asg26
I00
sg27
I00
sg28
I5054251
sg20
S'11973.1858462'
p2050
sba(igraph
Edge
p2051
(dp2052
g7
I1
sg8
I00
sg9
I5
sg10
(lp2053
g747
ag866
asg26
I00
sg27
I00
sg28
I5054252
sg20
S'11973.1945901'
p2054
sba(igraph
Edge
p2055
(dp2056
g7
I1
sg8
I00
sg9
I5
sg10
(lp2057
g754
ag880
asg26
I00
sg27
I00
sg28
I5054253
sg20
S'11973.2033063'
p2058
sba(igraph
Edge
p2059
(dp2060
g7
I1
sg8
I00
sg9
I5
sg10
(lp2061
g761
ag880
asg26
I00
sg27
I00
sg28
I5054254
sg20
S'11973.2120635'
p2062
sba(igraph
Edge
p2063
(dp2064
g7
I1
sg8
I00
sg9
I5
sg10
(lp2065
g768
ag894
asg26
I00
sg27
I00
sg28
I5054255
sg20
S'11973.2206797'
p2066
sba(igraph
Edge
p2067
(dp2068
g7
I1
sg8
I00
sg9
I5
sg10
(lp2069
g775
ag894
asg26
I00
sg27
I00
sg28
I5054256
sg20
S'11973.229306'
p2070
sba(igraph
Edge
p2071
(dp2072
g7
I1
sg8
I00
sg9
I5
sg10
(lp2073
g782
ag908
asg26
I00
sg27
I00
sg28
I5054257
sg20
S'11973.2380425'
p2074
sba(igraph
Edge
p2075
(dp2076
g7
I1
sg8
I00
sg9
I5
sg10
(lp2077
g789
ag908
asg26
I00
sg27
I00
sg28
I5054258
sg20
S'11973.2468289'
p2078
sba(igraph
Edge
p2079
(dp2080
g7
I1
sg8
I00
sg9
I5
sg10
(lp2081
g796
ag922
asg26
I00
sg27
I00
sg28
I5054259
sg20
S'11973.2556445'
p2082
sba(igraph
Edge
p2083
(dp2084
g7
I1
sg8
I00
sg9
I5
sg10
(lp2085
g803
ag922
asg26
I00
sg27
I00
sg28
I5054260
sg20
S'11973.2645509'
p2086
sba(igraph
Edge
p2087
(dp2088
g7
I1
sg8
I00
sg9
I5
sg10
(lp2089
g810
ag936
asg26
I00
sg27
I00
sg28
I5054261
sg20
S'11973.2733185'
p2090
sba(igraph
Edge
p2091
(dp2092
g7
I1
sg8
I00
sg9
I5
sg10
(lp2093
g817
ag936
asg26
I00
sg27
I00
sg28
I5054262
sg20
S'11973.2821275'
p2094
sba(igraph
Edge
p2095
(dp2096
g7
I1
sg8
I00
sg9
I5
sg10
(lp2097
g824
ag950
asg26
I00
sg27
I00
sg28
I5054263
sg20
S'11973.2909392'
p2098
sba(igraph
Edge
p2099
(dp2100
g7
I1
sg8
I00
sg9
I5
sg10
(lp2101
g831
ag950
asg26
I00
sg27
I00
sg28
I5054264
sg20
S'11973.2997035'
p2102
sba(igraph
Edge
p2103
(dp2104
g7
I1
sg8
I00
sg9
I5
sg10
(lp2105
g838
ag964
asg26
I00
sg27
I00
sg28
I5054265
sg20
S'11973.3085141'
p2106
sba(igraph
Edge
p2107
(dp2108
g7
I1
sg8
I00
sg9
I5
sg10
(lp2109
g845
ag964
asg26
I00
sg27
I00
sg28
I5054266
sg20
S'11973.3173842'
p2110
sba(igraph
Edge
p2111
(dp2112
g7
I1
sg8
I00
sg9
I5
sg10
(lp2113
g737
ag859
asg26
I00
sg27
I00
sg28
I5054267
sg20
S'11973.3263543'
p2114
sba(igraph
Edge
p2115
(dp2116
g7
I1
sg8
I00
sg9
I5
sg10
(lp2117
g740
ag859
asg26
I00
sg27
I00
sg28
I5054268
sg20
S'11973.3353122'
p2118
sba(igraph
Edge
p2119
(dp2120
g7
I1
sg8
I00
sg9
I5
sg10
(lp2121
g747
ag873
asg26
I00
sg27
I00
sg28
I5054269
sg20
S'11973.3443351'
p2122
sba(igraph
Edge
p2123
(dp2124
g7
I1
sg8
I00
sg9
I5
sg10
(lp2125
g754
ag873
asg26
I00
sg27
I00
sg28
I5054270
sg20
S'11973.353246'
p2126
sba(igraph
Edge
p2127
(dp2128
g7
I1
sg8
I00
sg9
I5
sg10
(lp2129
g761
ag887
asg26
I00
sg27
I00
sg28
I5054271
sg20
S'11973.3622519'
p2130
sba(igraph
Edge
p2131
(dp2132
g7
I1
sg8
I00
sg9
I5
sg10
(lp2133
g768
ag887
asg26
I00
sg27
I00
sg28
I5054272
sg20
S'11973.3712461'
p2134
sba(igraph
Edge
p2135
(dp2136
g7
I1
sg8
I00
sg9
I5
sg10
(lp2137
g775
ag901
asg26
I00
sg27
I00
sg28
I5054273
sg20
S'11973.3802095'
p2138
sba(igraph
Edge
p2139
(dp2140
g7
I1
sg8
I00
sg9
I5
sg10
(lp2141
g782
ag901
asg26
I00
sg27
I00
sg28
I5054274
sg20
S'11973.3892958'
p2142
sba(igraph
Edge
p2143
(dp2144
g7
I1
sg8
I00
sg9
I5
sg10
(lp2145
g789
ag915
asg26
I00
sg27
I00
sg28
I5054275
sg20
S'11973.3983249'
p2146
sba(igraph
Edge
p2147
(dp2148
g7
I1
sg8
I00
sg9
I5
sg10
(lp2149
g796
ag915
asg26
I00
sg27
I00
sg28
I5054276
sg20
S'11973.4075714'
p2150
sba(igraph
Edge
p2151
(dp2152
g7
I1
sg8
I00
sg9
I5
sg10
(lp2153
g803
ag929
asg26
I00
sg27
I00
sg28
I5054277
sg20
S'11973.4166549'
p2154
sba(igraph
Edge
p2155
(dp2156
g7
I1
sg8
I00
sg9
I5
sg10
(lp2157
g810
ag929
asg26
I00
sg27
I00
sg28
I5054278
sg20
S'11973.4257474'
p2158
sba(igraph
Edge
p2159
(dp2160
g7
I1
sg8
I00
sg9
I5
sg10
(lp2161
g817
ag943
asg26
I00
sg27
I00
sg28
I5054279
sg20
S'11973.4356671'
p2162
sba(igraph
Edge
p2163
(dp2164
g7
I1
sg8
I00
sg9
I5
sg10
(lp2165
g824
ag943
asg26
I00
sg27
I00
sg28
I5054280
sg20
S'11973.4449909'
p2166
sba(igraph
Edge
p2167
(dp2168
g7
I1
sg8
I00
sg9
I5
sg10
(lp2169
g831
ag957
asg26
I00
sg27
I00
sg28
I5054281
sg20
S'11973.4544988'
p2170
sba(igraph
Edge
p2171
(dp2172
g7
I1
sg8
I00
sg9
I5
sg10
(lp2173
g838
ag957
asg26
I00
sg27
I00
sg28
I5054282
sg20
S'11973.4638517'
p2174
sba(igraph
Edge
p2175
(dp2176
g7
I1
sg8
I00
sg9
I5
sg10
(lp2177
g845
ag856
asg26
I00
sg27
I00
sg28
I5054283
sg20
S'11973.4731453'
p2178
sba(igraph
Edge
p2179
(dp2180
g7
I1
sg8
I00
sg9
I5
sg10
(lp2181
g856
ag975
asg26
I00
sg27
I00
sg28
I5054284
sg20
S'11973.4824149'
p2182
sba(igraph
Edge
p2183
(dp2184
g7
I1
sg8
I00
sg9
I5
sg10
(lp2185
g859
ag985
asg26
I00
sg27
I00
sg28
I5054285
sg20
S'11973.491684'
p2186
sba(igraph
Edge
p2187
(dp2188
g7
I1
sg8
I00
sg9
I5
sg10
(lp2189
g866
ag985
asg26
I00
sg27
I00
sg28
I5054286
sg20
S'11973.501062'
p2190
sba(igraph
Edge
p2191
(dp2192
g7
I1
sg8
I00
sg9
I5
sg10
(lp2193
g873
ag999
asg26
I00
sg27
I00
sg28
I5054287
sg20
S'11973.510402'
p2194
sba(igraph
Edge
p2195
(dp2196
g7
I1
sg8
I00
sg9
I5
sg10
(lp2197
g880
ag999
asg26
I00
sg27
I00
sg28
I5054288
sg20
S'11973.5196965'
p2198
sba(igraph
Edge
p2199
(dp2200
g7
I1
sg8
I00
sg9
I5
sg10
(lp2201
g887
ag1013
asg26
I00
sg27
I00
sg28
I5054289
sg20
S'11973.5293142'
p2202
sba(igraph
Edge
p2203
(dp2204
g7
I1
sg8
I00
sg9
I5
sg10
(lp2205
g894
ag1013
asg26
I00
sg27
I00
sg28
I5054290
sg20
S'11973.5423893'
p2206
sba(igraph
Edge
p2207
(dp2208
g7
I1
sg8
I00
sg9
I5
sg10
(lp2209
g901
ag1027
asg26
I00
sg27
I00
sg28
I5054291
sg20
S'11973.5522193'
p2210
sba(igraph
Edge
p2211
(dp2212
g7
I1
sg8
I00
sg9
I5
sg10
(lp2213
g908
ag1027
asg26
I00
sg27
I00
sg28
I5054292
sg20
S'11973.5617513'
p2214
sba(igraph
Edge
p2215
(dp2216
g7
I1
sg8
I00
sg9
I5
sg10
(lp2217
g915
ag1041
asg26
I00
sg27
I00
sg28
I5054293
sg20
S'11973.5713888'
p2218
sba(igraph
Edge
p2219
(dp2220
g7
I1
sg8
I00
sg9
I5
sg10
(lp2221
g922
ag1041
asg26
I00
sg27
I00
sg28
I5054294
sg20
S'11973.5810722'
p2222
sba(igraph
Edge
p2223
(dp2224
g7
I1
sg8
I00
sg9
I5
sg10
(lp2225
g929
ag1055
asg26
I00
sg27
I00
sg28
I5054295
sg20
S'11973.5906572'
p2226
sba(igraph
Edge
p2227
(dp2228
g7
I1
sg8
I00
sg9
I5
sg10
(lp2229
g936
ag1055
asg26
I00
sg27
I00
sg28
I5054296
sg20
S'11973.6003802'
p2230
sba(igraph
Edge
p2231
(dp2232
g7
I1
sg8
I00
sg9
I5
sg10
(lp2233
g943
ag1069
asg26
I00
sg27
I00
sg28
I5054297
sg20
S'11973.6100395'
p2234
sba(igraph
Edge
p2235
(dp2236
g7
I1
sg8
I00
sg9
I5
sg10
(lp2237
g950
ag1069
asg26
I00
sg27
I00
sg28
I5054298
sg20
S'11973.6196788'
p2238
sba(igraph
Edge
p2239
(dp2240
g7
I1
sg8
I00
sg9
I5
sg10
(lp2241
g957
ag1083
asg26
I00
sg27
I00
sg28
I5054299
sg20
S'11973.6293766'
p2242
sba(igraph
Edge
p2243
(dp2244
g7
I1
sg8
I00
sg9
I5
sg10
(lp2245
g964
ag1083
asg26
I00
sg27
I00
sg28
I5054300
sg20
S'11973.6389874'
p2246
sba(igraph
Edge
p2247
(dp2248
g7
I1
sg8
I00
sg9
I5
sg10
(lp2249
g856
ag978
asg26
I00
sg27
I00
sg28
I5054301
sg20
S'11973.648647'
p2250
sba(igraph
Edge
p2251
(dp2252
g7
I1
sg8
I00
sg9
I5
sg10
(lp2253
g859
ag978
asg26
I00
sg27
I00
sg28
I5054302
sg20
S'11973.6583457'
p2254
sba(igraph
Edge
p2255
(dp2256
g7
I1
sg8
I00
sg9
I5
sg10
(lp2257
g866
ag992
asg26
I00
sg27
I00
sg28
I5054303
sg20
S'11973.6680151'
p2258
sba(igraph
Edge
p2259
(dp2260
g7
I1
sg8
I00
sg9
I5
sg10
(lp2261
g873
ag992
asg26
I00
sg27
I00
sg28
I5054304
sg20
S'11973.6776688'
p2262
sba(igraph
Edge
p2263
(dp2264
g7
I1
sg8
I00
sg9
I5
sg10
(lp2265
g880
ag1006
asg26
I00
sg27
I00
sg28
I5054305
sg20
S'11973.6873941'
p2266
sba(igraph
Edge
p2267
(dp2268
g7
I1
sg8
I00
sg9
I5
sg10
(lp2269
g887
ag1006
asg26
I00
sg27
I00
sg28
I5054306
sg20
S'11973.6971657'
p2270
sba(igraph
Edge
p2271
(dp2272
g7
I1
sg8
I00
sg9
I5
sg10
(lp2273
g894
ag1020
asg26
I00
sg27
I00
sg28
I5054307
sg20
S'11973.7069105'
p2274
sba(igraph
Edge
p2275
(dp2276
g7
I1
sg8
I00
sg9
I5
sg10
(lp2277
g901
ag1020
asg26
I00
sg27
I00
sg28
I5054308
sg20
S'11973.7167844'
p2278
sba(igraph
Edge
p2279
(dp2280
g7
I1
sg8
I00
sg9
I5
sg10
(lp2281
g908
ag1034
asg26
I00
sg27
I00
sg28
I5054309
sg20
S'11973.7266055'
p2282
sba(igraph
Edge
p2283
(dp2284
g7
I1
sg8
I00
sg9
I5
sg10
(lp2285
g915
ag1034
asg26
I00
sg27
I00
sg28
I5054310
sg20
S'11973.7370412'
p2286
sba(igraph
Edge
p2287
(dp2288
g7
I1
sg8
I00
sg9
I5
sg10
(lp2289
g922
ag1048
asg26
I00
sg27
I00
sg28
I5054311
sg20
S'11973.7486063'
p2290
sba(igraph
Edge
p2291
(dp2292
g7
I1
sg8
I00
sg9
I5
sg10
(lp2293
g929
ag1048
asg26
I00
sg27
I00
sg28
I5054312
sg20
S'11973.7596574'
p2294
sba(igraph
Edge
p2295
(dp2296
g7
I1
sg8
I00
sg9
I5
sg10
(lp2297
g936
ag1062
asg26
I00
sg27
I00
sg28
I5054313
sg20
S'11973.7705046'
p2298
sba(igraph
Edge
p2299
(dp2300
g7
I1
sg8
I00
sg9
I5
sg10
(lp2301
g943
ag1062
asg26
I00
sg27
I00
sg28
I5054314
sg20
S'11973.7812985'
p2302
sba(igraph
Edge
p2303
(dp2304
g7
I1
sg8
I00
sg9
I5
sg10
(lp2305
g950
ag1076
asg26
I00
sg27
I00
sg28
I5054315
sg20
S'11973.7919886'
p2306
sba(igraph
Edge
p2307
(dp2308
g7
I1
sg8
I00
sg9
I5
sg10
(lp2309
g957
ag1076
asg26
I00
sg27
I00
sg28
I5054316
sg20
S'11973.8030549'
p2310
sba(igraph
Edge
p2311
(dp2312
g7
I1
sg8
I00
sg9
I5
sg10
(lp2313
g964
ag975
asg26
I00
sg27
I00
sg28
I5054317
sg20
S'11973.8144437'
p2314
sbasS'vertices'
p2315
(lp2316
g12
ag23
ag33
ag40
ag47
ag54
ag61
ag68
ag75
ag82
ag89
ag96
ag103
ag110
ag117
ag124
ag131
ag142
ag145
ag152
ag159
ag166
ag173
ag180
ag187
ag194
ag201
ag208
ag215
ag222
ag229
ag236
ag243
ag250
ag261
ag264
ag271
ag278
ag285
ag292
ag299
ag306
ag313
ag320
ag327
ag334
ag341
ag348
ag355
ag362
ag369
ag380
ag383
ag390
ag397
ag404
ag411
ag418
ag425
ag432
ag439
ag446
ag453
ag460
ag467
ag474
ag481
ag488
ag499
ag502
ag509
ag516
ag523
ag530
ag537
ag544
ag551
ag558
ag565
ag572
ag579
ag586
ag593
ag600
ag607
ag618
ag621
ag628
ag635
ag642
ag649
ag656
ag663
ag670
ag677
ag684
ag691
ag698
ag705
ag712
ag719
ag726
ag737
ag740
ag747
ag754
ag761
ag768
ag775
ag782
ag789
ag796
ag803
ag810
ag817
ag824
ag831
ag838
ag845
ag856
ag859
ag866
ag873
ag880
ag887
ag894
ag901
ag908
ag915
ag922
ag929
ag936
ag943
ag950
ag957
ag964
ag975
ag978
ag985
ag992
ag999
ag1006
ag1013
ag1020
ag1027
ag1034
ag1041
ag1048
ag1055
ag1062
ag1069
ag1076
ag1083
asS'tags'
p2317
(lp2318
sb.