(igraph
Graph
p0
(dp1
S'labelingConstraints'
p2
I-1
sS'edges'
p3
(lp4
(igraph
Edge
p5
(dp6
S'direction'
p7
I1
sS'selected'
p8
I00
sS'height'
p9
I5
sS'vs'
p10
(lp11
(igraph
Vertex
p12
(dp13
S'xnorm'
p14
F0.0
sg8
I00
sS'label'
p15
S'NULL'
p16
sS'y'
p17
F-302.0
sS'x'
p18
F273.0
sS'circle'
p19
I3948131
sS'id'
p20
S'9992.421315'
p21
sS'ynorm'
p22
F0.0
sba(igraph
Vertex
p23
(dp24
g14
F0.0625
sg8
I00
sg15
g16
sg17
F-302.0
sg18
F230.875
sg19
I3948132
sg20
S'9992.42133707'
p25
sg22
F0.0
sbasS'wrap'
p26
I00
sS'curved'
p27
I00
sS'line'
p28
I3947264
sg20
S'9992.78796858'
p29
sba(igraph
Edge
p30
(dp31
g7
I1
sg8
I00
sg9
I5
sg10
(lp32
g23
a(igraph
Vertex
p33
(dp34
g14
F0.125
sg8
I00
sg15
g16
sg17
F-302.0
sg18
F188.75
sg19
I3948133
sg20
S'9992.42135942'
p35
sg22
F0.0
sbasg26
I00
sg27
I00
sg28
I3947265
sg20
S'9992.78802865'
p36
sba(igraph
Edge
p37
(dp38
g7
I1
sg8
I00
sg9
I5
sg10
(lp39
g33
a(igraph
Vertex
p40
(dp41
g14
F0.1875
sg8
I00
sg15
g16
sg17
F-302.0
sg18
F146.625
sg19
I3948134
sg20
S'9992.42138568'
p42
sg22
F0.0
sbasg26
I00
sg27
I00
sg28
I3947266
sg20
S'9992.78810771'
p43
sba(igraph
Edge
p44
(dp45
g7
I1
sg8
I00
sg9
I5
sg10
(lp46
g40
a(igraph
Vertex
p47
(dp48
g14
F0.25
sg8
I00
sg15
g16
sg17
F-302.0
sg18
F104.5
sg19
I3948135
sg20
S'9992.42141976'
p49
sg22
F0.0
sbasg26
I00
sg27
I00
sg28
I3947267
sg20
S'9992.78820716'
p50
sba(igraph
Edge
p51
(dp52
g7
I1
sg8
I00
sg9
I5
sg10
(lp53
g47
a(igraph
Vertex
p54
(dp55
g14
F0.3125
sg8
I00
sg15
g16
sg17
F-302.0
sg18
F62.375
sg19
I3948136
sg20
S'9992.42147703'
p56
sg22
F0.0
sbasg26
I00
sg27
I00
sg28
I3947268
sg20
S'9992.78832868'
p57
sba(igraph
Edge
p58
(dp59
g7
I1
sg8
I00
sg9
I5
sg10
(lp60
g54
a(igraph
Vertex
p61
(dp62
g14
F0.375
sg8
I00
sg15
g16
sg17
F-302.0
sg18
F20.25
sg19
I3948137
sg20
S'9992.42152648'
p63
sg22
F0.0
sbasg26
I00
sg27
I00
sg28
I3947269
sg20
S'9992.78847284'
p64
sba(igraph
Edge
p65
(dp66
g7
I1
sg8
I00
sg9
I5
sg10
(lp67
g61
a(igraph
Vertex
p68
(dp69
g14
F0.4375
sg8
I00
sg15
g16
sg17
F-302.0
sg18
F-21.875
sg19
I3948138
sg20
S'9992.42158291'
p70
sg22
F0.0
sbasg26
I00
sg27
I00
sg28
I3947270
sg20
S'9992.78863766'
p71
sba(igraph
Edge
p72
(dp73
g7
I1
sg8
I00
sg9
I5
sg10
(lp74
g68
a(igraph
Vertex
p75
(dp76
g14
F0.5
sg8
I00
sg15
I0
sg17
F-302.0
sg18
F-64.0
sg19
I3948139
sg20
S'9992.42164605'
p77
sg22
F0.0
sbasg26
I00
sg27
I00
sg28
I3947271
sg20
S'9992.788824'
p78
sba(igraph
Edge
p79
(dp80
g7
I1
sg8
I00
sg9
I5
sg10
(lp81
g75
a(igraph
Vertex
p82
(dp83
g14
F0.5625
sg8
I00
sg15
g16
sg17
F-302.0
sg18
F-106.125
sg19
I3948141
sg20
S'9992.42171784'
p84
sg22
F0.0
sbasg26
I00
sg27
I00
sg28
I3947272
sg20
S'9992.78903324'
p85
sba(igraph
Edge
p86
(dp87
g7
I1
sg8
I00
sg9
I5
sg10
(lp88
g82
a(igraph
Vertex
p89
(dp90
g14
F0.625
sg8
I00
sg15
g16
sg17
F-302.0
sg18
F-148.25
sg19
I3948142
sg20
S'9992.42179746'
p91
sg22
F0.0
sbasg26
I00
sg27
I00
sg28
I3947273
sg20
S'9992.7892654'
p92
sba(igraph
Edge
p93
(dp94
g7
I1
sg8
I00
sg9
I5
sg10
(lp95
g89
a(igraph
Vertex
p96
(dp97
g14
F0.6875
sg8
I00
sg15
g16
sg17
F-302.0
sg18
F-190.375
sg19
I3948143
sg20
S'9992.42188435'
p98
sg22
F0.0
sbasg26
I00
sg27
I00
sg28
I3947274
sg20
S'9992.7895171'
p99
sba(igraph
Edge
p100
(dp101
g7
I1
sg8
I00
sg9
I5
sg10
(lp102
g96
a(igraph
Vertex
p103
(dp104
g14
F0.75
sg8
I00
sg15
g16
sg17
F-302.0
sg18
F-232.5
sg19
I3948144
sg20
S'9992.42198603'
p105
sg22
F0.0
sbasg26
I00
sg27
I00
sg28
I3947275
sg20
S'9992.78979004'
p106
sba(igraph
Edge
p107
(dp108
g7
I1
sg8
I00
sg9
I5
sg10
(lp109
g103
a(igraph
Vertex
p110
(dp111
g14
F0.8125
sg8
I00
sg15
g16
sg17
F-302.0
sg18
F-274.625
sg19
I3948145
sg20
S'9992.42208828'
p112
sg22
F0.0
sbasg26
I00
sg27
I00
sg28
I3947276
sg20
S'9992.79008477'
p113
sba(igraph
Edge
p114
(dp115
g7
I1
sg8
I00
sg9
I5
sg10
(lp116
g110
a(igraph
Vertex
p117
(dp118
g14
F0.875
sg8
I00
sg15
g16
sg17
F-302.0
sg18
F-316.75
sg19
I3948146
sg20
S'9992.42219947'
p119
sg22
F0.0
sbasg26
I00
sg27
I00
sg28
I3947277
sg20
S'9992.79040074'
p120
sba(igraph
Edge
p121
(dp122
g7
I1
sg8
I00
sg9
I5
sg10
(lp123
g117
a(igraph
Vertex
p124
(dp125
g14
F0.9375
sg8
I00
sg15
g16
sg17
F-302.0
sg18
F-358.875
sg19
I3948147
sg20
S'9992.42231764'
p126
sg22
F0.0
sbasg26
I00
sg27
I00
sg28
I3947278
sg20
S'9992.79073905'
p127
sba(igraph
Edge
p128
(dp129
g7
I1
sg8
I00
sg9
I5
sg10
(lp130
g124
a(igraph
Vertex
p131
(dp132
g14
F1.0
sg8
I00
sg15
g16
sg17
F-302.0
sg18
F-401.0
sg19
I3948148
sg20
S'9992.42245537'
p133
sg22
F0.0
sbasg26
I00
sg27
I00
sg28
I3947279
sg20
S'9992.79109915'
p134
sba(igraph
Edge
p135
(dp136
g7
I1
sg8
I00
sg9
I5
sg10
(lp137
g131
ag12
asg26
I00
sg27
I00
sg28
I3947280
sg20
S'9992.79147853'
p138
sba(igraph
Edge
p139
(dp140
g7
I1
sg8
I00
sg9
I5
sg10
(lp141
(igraph
Vertex
p142
(dp143
g14
F0.0
sg8
I00
sg15
g16
sg17
F-265.125
sg18
F273.0
sg19
I3948149
sg20
S'9992.42258946'
p144
sg22
F0.0625
sba(igraph
Vertex
p145
(dp146
g14
F0.0625
sg8
I00
sg15
g16
sg17
F-265.125
sg18
F230.875
sg19
I3948150
sg20
S'9992.4227311'
p147
sg22
F0.0625
sbasg26
I00
sg27
I00
sg28
I3947281
sg20
S'9992.79188472'
p148
sba(igraph
Edge
p149
(dp150
g7
I1
sg8
I00
sg9
I5
sg10
(lp151
g145
a(igraph
Vertex
p152
(dp153
g14
F0.125
sg8
I00
sg15
g16
sg17
F-265.125
sg18
F188.75
sg19
I3948151
sg20
S'9992.4228814'
p154
sg22
F0.0625
sbasg26
I00
sg27
I00
sg28
I3947282
sg20
S'9992.79230852'
p155
sba(igraph
Edge
p156
(dp157
g7
I1
sg8
I00
sg9
I5
sg10
(lp158
g152
a(igraph
Vertex
p159
(dp160
g14
F0.1875
sg8
I00
sg15
g16
sg17
F-265.125
sg18
F146.625
sg19
I3948152
sg20
S'9992.42303952'
p161
sg22
F0.0625
sbasg26
I00
sg27
I00
sg28
I3947283
sg20
S'9992.79275411'
p162
sba(igraph
Edge
p163
(dp164
g7
I1
sg8
I00
sg9
I5
sg10
(lp165
g159
a(igraph
Vertex
p166
(dp167
g14
F0.25
sg8
I00
sg15
g16
sg17
F-265.125
sg18
F104.5
sg19
I3948153
sg20
S'9992.42326888'
p168
sg22
F0.0625
sbasg26
I00
sg27
I00
sg28
I3947284
sg20
S'9992.79321981'
p169
sba(igraph
Edge
p170
(dp171
g7
I1
sg8
I00
sg9
I5
sg10
(lp172
g166
a(igraph
Vertex
p173
(dp174
g14
F0.3125
sg8
I00
sg15
g16
sg17
F-265.125
sg18
F62.375
sg19
I3948154
sg20
S'9992.42354042'
p175
sg22
F0.0625
sbasg26
I00
sg27
I00
sg28
I3947285
sg20
S'9992.79370814'
p176
sba(igraph
Edge
p177
(dp178
g7
I1
sg8
I00
sg9
I5
sg10
(lp179
g173
a(igraph
Vertex
p180
(dp181
g14
F0.375
sg8
I00
sg15
g16
sg17
F-265.125
sg18
F20.25
sg19
I3948155
sg20
S'9992.4237262'
p182
sg22
F0.0625
sbasg26
I00
sg27
I00
sg28
I3947286
sg20
S'9992.79421714'
p183
sba(igraph
Edge
p184
(dp185
g7
I1
sg8
I00
sg9
I5
sg10
(lp186
g180
a(igraph
Vertex
p187
(dp188
g14
F0.4375
sg8
I00
sg15
g16
sg17
F-265.125
sg18
F-21.875
sg19
I3948156
sg20
S'9992.42394131'
p189
sg22
F0.0625
sbasg26
I00
sg27
I00
sg28
I3947287
sg20
S'9992.79477392'
p190
sba(igraph
Edge
p191
(dp192
g7
I1
sg8
I00
sg9
I5
sg10
(lp193
g187
a(igraph
Vertex
p194
(dp195
g14
F0.5
sg8
I00
sg15
g16
sg17
F-265.125
sg18
F-64.0
sg19
I3948157
sg20
S'9992.42418017'
p196
sg22
F0.0625
sbasg26
I00
sg27
I00
sg28
I3947288
sg20
S'9992.79534075'
p197
sba(igraph
Edge
p198
(dp199
g7
I1
sg8
I00
sg9
I5
sg10
(lp200
g194
a(igraph
Vertex
p201
(dp202
g14
F0.5625
sg8
I00
sg15
g16
sg17
F-265.125
sg18
F-106.125
sg19
I3948158
sg20
S'9992.42438997'
p203
sg22
F0.0625
sbasg26
I00
sg27
I00
sg28
I3947289
sg20
S'9992.79600033'
p204
sba(igraph
Edge
p205
(dp206
g7
I1
sg8
I00
sg9
I5
sg10
(lp207
g201
a(igraph
Vertex
p208
(dp209
g14
F0.625
sg8
I00
sg15
g16
sg17
F-265.125
sg18
F-148.25
sg19
I3948159
sg20
S'9992.42459977'
p210
sg22
F0.0625
sbasg26
I00
sg27
I00
sg28
I3947290
sg20
S'9992.79661158'
p211
sba(igraph
Edge
p212
(dp213
g7
I1
sg8
I00
sg9
I5
sg10
(lp214
g208
a(igraph
Vertex
p215
(dp216
g14
F0.6875
sg8
I00
sg15
g16
sg17
F-265.125
sg18
F-190.375
sg19
I3948160
sg20
S'9992.42481796'
p217
sg22
F0.0625
sbasg26
I00
sg27
I00
sg28
I3947291
sg20
S'9992.79724769'
p218
sba(igraph
Edge
p219
(dp220
g7
I1
sg8
I00
sg9
I5
sg10
(lp221
g215
a(igraph
Vertex
p222
(dp223
g14
F0.75
sg8
I00
sg15
g16
sg17
F-265.125
sg18
F-232.5
sg19
I3948161
sg20
S'9992.42504592'
p224
sg22
F0.0625
sbasg26
I00
sg27
I00
sg28
I3947292
sg20
S'9992.79789275'
p225
sba(igraph
Edge
p226
(dp227
g7
I1
sg8
I00
sg9
I5
sg10
(lp228
g222
a(igraph
Vertex
p229
(dp230
g14
F0.8125
sg8
I00
sg15
g16
sg17
F-265.125
sg18
F-274.625
sg19
I3948162
sg20
S'9992.42527919'
p231
sg22
F0.0625
sbasg26
I00
sg27
I00
sg28
I3947293
sg20
S'9992.79855876'
p232
sba(igraph
Edge
p233
(dp234
g7
I1
sg8
I00
sg9
I5
sg10
(lp235
g229
a(igraph
Vertex
p236
(dp237
g14
F0.875
sg8
I00
sg15
g16
sg17
F-265.125
sg18
F-316.75
sg19
I3948163
sg20
S'9992.42552699'
p238
sg22
F0.0625
sbasg26
I00
sg27
I00
sg28
I3947294
sg20
S'9992.79925102'
p239
sba(igraph
Edge
p240
(dp241
g7
I1
sg8
I00
sg9
I5
sg10
(lp242
g236
a(igraph
Vertex
p243
(dp244
g14
F0.9375
sg8
I00
sg15
g16
sg17
F-265.125
sg18
F-358.875
sg19
I3948164
sg20
S'9992.42577674'
p245
sg22
F0.0625
sbasg26
I00
sg27
I00
sg28
I3947295
sg20
S'9992.7999581'
p246
sba(igraph
Edge
p247
(dp248
g7
I1
sg8
I00
sg9
I5
sg10
(lp249
g243
a(igraph
Vertex
p250
(dp251
g14
F1.0
sg8
I00
sg15
g16
sg17
F-265.125
sg18
F-401.0
sg19
I3948165
sg20
S'9992.42603376'
p252
sg22
F0.0625
sbasg26
I00
sg27
I00
sg28
I3947296
sg20
S'9992.80072467'
p253
sba(igraph
Edge
p254
(dp255
g7
I1
sg8
I00
sg9
I5
sg10
(lp256
g250
ag142
asg26
I00
sg27
I00
sg28
I3947297
sg20
S'9992.80148427'
p257
sba(igraph
Edge
p258
(dp259
g7
I1
sg8
I00
sg9
I5
sg10
(lp260
(igraph
Vertex
p261
(dp262
g14
F0.0
sg8
I00
sg15
g16
sg17
F-228.25
sg18
F273.0
sg19
I3948166
sg20
S'9992.42630027'
p263
sg22
F0.125
sba(igraph
Vertex
p264
(dp265
g14
F0.0625
sg8
I00
sg15
g16
sg17
F-228.25
sg18
F230.875
sg19
I3948167
sg20
S'9992.42657656'
p266
sg22
F0.125
sbasg26
I00
sg27
I00
sg28
I3947298
sg20
S'9992.8022637'
p267
sba(igraph
Edge
p268
(dp269
g7
I1
sg8
I00
sg9
I5
sg10
(lp270
g264
a(igraph
Vertex
p271
(dp272
g14
F0.125
sg8
I00
sg15
g16
sg17
F-228.25
sg18
F188.75
sg19
I3948168
sg20
S'9992.42685984'
p273
sg22
F0.125
sbasg26
I00
sg27
I00
sg28
I3947299
sg20
S'9992.80306687'
p274
sba(igraph
Edge
p275
(dp276
g7
I1
sg8
I00
sg9
I5
sg10
(lp277
g271
a(igraph
Vertex
p278
(dp279
g14
F0.1875
sg8
I00
sg15
g16
sg17
F-228.25
sg18
F146.625
sg19
I3948169
sg20
S'9992.42714954'
p280
sg22
F0.125
sbasg26
I00
sg27
I00
sg28
I3947300
sg20
S'9992.80389211'
p281
sba(igraph
Edge
p282
(dp283
g7
I1
sg8
I00
sg9
I5
sg10
(lp284
g278
a(igraph
Vertex
p285
(dp286
g14
F0.25
sg8
I00
sg15
g16
sg17
F-228.25
sg18
F104.5
sg19
I3948170
sg20
S'9992.42744706'
p287
sg22
F0.125
sbasg26
I00
sg27
I00
sg28
I3947301
sg20
S'9992.80473915'
p288
sba(igraph
Edge
p289
(dp290
g7
I1
sg8
I00
sg9
I5
sg10
(lp291
g285
a(igraph
Vertex
p292
(dp293
g14
F0.3125
sg8
I00
sg15
g16
sg17
F-228.25
sg18
F62.375
sg19
I3948171
sg20
S'9992.42775157'
p294
sg22
F0.125
sbasg26
I00
sg27
I00
sg28
I3947302
sg20
S'9992.80560714'
p295
sba(igraph
Edge
p296
(dp297
g7
I1
sg8
I00
sg9
I5
sg10
(lp298
g292
a(igraph
Vertex
p299
(dp300
g14
F0.375
sg8
I00
sg15
g16
sg17
F-228.25
sg18
F20.25
sg19
I3948172
sg20
S'9992.42806362'
p301
sg22
F0.125
sbasg26
I00
sg27
I00
sg28
I3947303
sg20
S'9992.80649831'
p302
sba(igraph
Edge
p303
(dp304
g7
I1
sg8
I00
sg9
I5
sg10
(lp305
g299
a(igraph
Vertex
p306
(dp307
g14
F0.4375
sg8
I00
sg15
g16
sg17
F-228.25
sg18
F-21.875
sg19
I3948173
sg20
S'9992.42838657'
p308
sg22
F0.125
sbasg26
I00
sg27
I00
sg28
I3947304
sg20
S'9992.80741379'
p309
sba(igraph
Edge
p310
(dp311
g7
I1
sg8
I00
sg9
I5
sg10
(lp312
g306
a(igraph
Vertex
p313
(dp314
g14
F0.5
sg8
I00
sg15
g16
sg17
F-228.25
sg18
F-64.0
sg19
I3948174
sg20
S'9992.4287165'
p315
sg22
F0.125
sbasg26
I00
sg27
I00
sg28
I3947305
sg20
S'9992.80834966'
p316
sba(igraph
Edge
p317
(dp318
g7
I1
sg8
I00
sg9
I5
sg10
(lp319
g313
a(igraph
Vertex
p320
(dp321
g14
F0.5625
sg8
I00
sg15
I0
sg17
F-228.25
sg18
F-106.125
sg19
I3948175
sg20
S'9992.42905174'
p322
sg22
F0.125
sbasg26
I00
sg27
I00
sg28
I3947306
sg20
S'9992.80936655'
p323
sba(igraph
Edge
p324
(dp325
g7
I1
sg8
I00
sg9
I5
sg10
(lp326
g320
a(igraph
Vertex
p327
(dp328
g14
F0.625
sg8
I00
sg15
g16
sg17
F-228.25
sg18
F-148.25
sg19
I3948177
sg20
S'9992.42940346'
p329
sg22
F0.125
sbasg26
I00
sg27
I00
sg28
I3947307
sg20
S'9992.81034657'
p330
sba(igraph
Edge
p331
(dp332
g7
I1
sg8
I00
sg9
I5
sg10
(lp333
g327
a(igraph
Vertex
p334
(dp335
g14
F0.6875
sg8
I00
sg15
g16
sg17
F-228.25
sg18
F-190.375
sg19
I3948178
sg20
S'9992.42975741'
p336
sg22
F0.125
sbasg26
I00
sg27
I00
sg28
I3947308
sg20
S'9992.81134753'
p337
sba(igraph
Edge
p338
(dp339
g7
I1
sg8
I00
sg9
I5
sg10
(lp340
g334
a(igraph
Vertex
p341
(dp342
g14
F0.75
sg8
I00
sg15
g16
sg17
F-228.25
sg18
F-232.5
sg19
I3948179
sg20
S'9992.43012198'
p343
sg22
F0.125
sbasg26
I00
sg27
I00
sg28
I3947309
sg20
S'9992.81236917'
p344
sba(igraph
Edge
p345
(dp346
g7
I1
sg8
I00
sg9
I5
sg10
(lp347
g341
a(igraph
Vertex
p348
(dp349
g14
F0.8125
sg8
I00
sg15
g16
sg17
F-228.25
sg18
F-274.625
sg19
I3948180
sg20
S'9992.43049354'
p350
sg22
F0.125
sbasg26
I00
sg27
I00
sg28
I3947310
sg20
S'9992.81342573'
p351
sba(igraph
Edge
p352
(dp353
g7
I1
sg8
I00
sg9
I5
sg10
(lp354
g348
a(igraph
Vertex
p355
(dp356
g14
F0.875
sg8
I00
sg15
g16
sg17
F-228.25
sg18
F-316.75
sg19
I3948181
sg20
S'9992.4308704'
p357
sg22
F0.125
sbasg26
I00
sg27
I00
sg28
I3947311
sg20
S'9992.81448704'
p358
sba(igraph
Edge
p359
(dp360
g7
I1
sg8
I00
sg9
I5
sg10
(lp361
g355
a(igraph
Vertex
p362
(dp363
g14
F0.9375
sg8
I00
sg15
g16
sg17
F-228.25
sg18
F-358.875
sg19
I3948182
sg20
S'9992.4312576'
p364
sg22
F0.125
sbasg26
I00
sg27
I00
sg28
I3947312
sg20
S'9992.81556706'
p365
sba(igraph
Edge
p366
(dp367
g7
I1
sg8
I00
sg9
I5
sg10
(lp368
g362
a(igraph
Vertex
p369
(dp370
g14
F1.0
sg8
I00
sg15
g16
sg17
F-228.25
sg18
F-401.0
sg19
I3948183
sg20
S'9992.43164872'
p371
sg22
F0.125
sbasg26
I00
sg27
I00
sg28
I3947313
sg20
S'9992.81669486'
p372
sba(igraph
Edge
p373
(dp374
g7
I1
sg8
I00
sg9
I5
sg10
(lp375
g369
ag261
asg26
I00
sg27
I00
sg28
I3947314
sg20
S'9992.81781344'
p376
sba(igraph
Edge
p377
(dp378
g7
I1
sg8
I00
sg9
I5
sg10
(lp379
(igraph
Vertex
p380
(dp381
g14
F0.0
sg8
I00
sg15
g16
sg17
F-191.375
sg18
F273.0
sg19
I3948184
sg20
S'9992.43205016'
p382
sg22
F0.1875
sba(igraph
Vertex
p383
(dp384
g14
F0.0625
sg8
I00
sg15
g16
sg17
F-191.375
sg18
F230.875
sg19
I3948185
sg20
S'9992.43246083'
p385
sg22
F0.1875
sbasg26
I00
sg27
I00
sg28
I3947315
sg20
S'9992.81895073'
p386
sba(igraph
Edge
p387
(dp388
g7
I1
sg8
I00
sg9
I5
sg10
(lp389
g383
a(igraph
Vertex
p390
(dp391
g14
F0.125
sg8
I00
sg15
g16
sg17
F-191.375
sg18
F188.75
sg19
I3948186
sg20
S'9992.43287932'
p392
sg22
F0.1875
sbasg26
I00
sg27
I00
sg28
I3947316
sg20
S'9992.82011233'
p393
sba(igraph
Edge
p394
(dp395
g7
I1
sg8
I00
sg9
I5
sg10
(lp396
g390
a(igraph
Vertex
p397
(dp398
g14
F0.1875
sg8
I00
sg15
g16
sg17
F-191.375
sg18
F146.625
sg19
I3948187
sg20
S'9992.43331094'
p399
sg22
F0.1875
sbasg26
I00
sg27
I00
sg28
I3947317
sg20
S'9992.82129293'
p400
sba(igraph
Edge
p401
(dp402
g7
I1
sg8
I00
sg9
I5
sg10
(lp403
g397
a(igraph
Vertex
p404
(dp405
g14
F0.25
sg8
I00
sg15
g16
sg17
F-191.375
sg18
F104.5
sg19
I3948188
sg20
S'9992.43377552'
p406
sg22
F0.1875
sbasg26
I00
sg27
I00
sg28
I3947318
sg20
S'9992.82249727'
p407
sba(igraph
Edge
p408
(dp409
g7
I1
sg8
I00
sg9
I5
sg10
(lp410
g404
a(igraph
Vertex
p411
(dp412
g14
F0.3125
sg8
I00
sg15
g16
sg17
F-191.375
sg18
F62.375
sg19
I3948189
sg20
S'9992.43427475'
p413
sg22
F0.1875
sbasg26
I00
sg27
I00
sg28
I3947319
sg20
S'9992.82372396'
p414
sba(igraph
Edge
p415
(dp416
g7
I1
sg8
I00
sg9
I5
sg10
(lp417
g411
a(igraph
Vertex
p418
(dp419
g14
F0.375
sg8
I00
sg15
g16
sg17
F-191.375
sg18
F20.25
sg19
I3948190
sg20
S'9992.43473039'
p420
sg22
F0.1875
sbasg26
I00
sg27
I00
sg28
I3947320
sg20
S'9992.82497077'
p421
sba(igraph
Edge
p422
(dp423
g7
I1
sg8
I00
sg9
I5
sg10
(lp424
g418
a(igraph
Vertex
p425
(dp426
g14
F0.4375
sg8
I00
sg15
g16
sg17
F-191.375
sg18
F-21.875
sg19
I3948191
sg20
S'9992.43518967'
p427
sg22
F0.1875
sbasg26
I00
sg27
I00
sg28
I3947321
sg20
S'9992.82623602'
p428
sba(igraph
Edge
p429
(dp430
g7
I1
sg8
I00
sg9
I5
sg10
(lp431
g425
a(igraph
Vertex
p432
(dp433
g14
F0.5
sg8
I00
sg15
g16
sg17
F-191.375
sg18
F-64.0
sg19
I3948192
sg20
S'9992.43565509'
p434
sg22
F0.1875
sbasg26
I00
sg27
I00
sg28
I3947322
sg20
S'9992.82753674'
p435
sba(igraph
Edge
p436
(dp437
g7
I1
sg8
I00
sg9
I5
sg10
(lp438
g432
a(igraph
Vertex
p439
(dp440
g14
F0.5625
sg8
I00
sg15
g16
sg17
F-191.375
sg18
F-106.125
sg19
I3948193
sg20
S'9992.43613169'
p441
sg22
F0.1875
sbasg26
I00
sg27
I00
sg28
I3947323
sg20
S'9992.82887238'
p442
sba(igraph
Edge
p443
(dp444
g7
I1
sg8
I00
sg9
I5
sg10
(lp445
g439
a(igraph
Vertex
p446
(dp447
g14
F0.625
sg8
I00
sg15
g16
sg17
F-191.375
sg18
F-148.25
sg19
I3948194
sg20
S'9992.43661834'
p448
sg22
F0.1875
sbasg26
I00
sg27
I00
sg28
I3947324
sg20
S'9992.83022088'
p449
sba(igraph
Edge
p450
(dp451
g7
I1
sg8
I00
sg9
I5
sg10
(lp452
g446
a(igraph
Vertex
p453
(dp454
g14
F0.6875
sg8
I00
sg15
g16
sg17
F-191.375
sg18
F-190.375
sg19
I3948195
sg20
S'9992.43711114'
p455
sg22
F0.1875
sbasg26
I00
sg27
I00
sg28
I3947325
sg20
S'9992.83166101'
p456
sba(igraph
Edge
p457
(dp458
g7
I1
sg8
I00
sg9
I5
sg10
(lp459
g453
a(igraph
Vertex
p460
(dp461
g14
F0.75
sg8
I00
sg15
g16
sg17
F-191.375
sg18
F-232.5
sg19
I3948196
sg20
S'9992.43760813'
p462
sg22
F0.1875
sbasg26
I00
sg27
I00
sg28
I3947326
sg20
S'9992.83308102'
p463
sba(igraph
Edge
p464
(dp465
g7
I1
sg8
I00
sg9
I5
sg10
(lp466
g460
a(igraph
Vertex
p467
(dp468
g14
F0.8125
sg8
I00
sg15
g16
sg17
F-191.375
sg18
F-274.625
sg19
I3948197
sg20
S'9992.43811406'
p469
sg22
F0.1875
sbasg26
I00
sg27
I00
sg28
I3947327
sg20
S'9992.83448148'
p470
sba(igraph
Edge
p471
(dp472
g7
I1
sg8
I00
sg9
I5
sg10
(lp473
g467
a(igraph
Vertex
p474
(dp475
g14
F0.875
sg8
I00
sg15
g16
sg17
F-191.375
sg18
F-316.75
sg19
I3948198
sg20
S'9992.43862781'
p476
sg22
F0.1875
sbasg26
I00
sg27
I00
sg28
I3947328
sg20
S'9992.83590289'
p477
sba(igraph
Edge
p478
(dp479
g7
I1
sg8
I00
sg9
I5
sg10
(lp480
g474
a(igraph
Vertex
p481
(dp482
g14
F0.9375
sg8
I00
sg15
g16
sg17
F-191.375
sg18
F-358.875
sg19
I3948199
sg20
S'9992.43915051'
p483
sg22
F0.1875
sbasg26
I00
sg27
I00
sg28
I3947329
sg20
S'9992.83734385'
p484
sba(igraph
Edge
p485
(dp486
g7
I1
sg8
I00
sg9
I5
sg10
(lp487
g481
a(igraph
Vertex
p488
(dp489
g14
F1.0
sg8
I00
sg15
g16
sg17
F-191.375
sg18
F-401.0
sg19
I3948200
sg20
S'9992.43967879'
p490
sg22
F0.1875
sbasg26
I00
sg27
I00
sg28
I3947330
sg20
S'9992.83880717'
p491
sba(igraph
Edge
p492
(dp493
g7
I1
sg8
I00
sg9
I5
sg10
(lp494
g488
ag380
asg26
I00
sg27
I00
sg28
I3947331
sg20
S'9992.84029143'
p495
sba(igraph
Edge
p496
(dp497
g7
I1
sg8
I00
sg9
I5
sg10
(lp498
(igraph
Vertex
p499
(dp500
g14
F0.0
sg8
I00
sg15
g16
sg17
F-154.5
sg18
F273.0
sg19
I3948201
sg20
S'9992.44022159'
p501
sg22
F0.25
sba(igraph
Vertex
p502
(dp503
g14
F0.0625
sg8
I00
sg15
g16
sg17
F-154.5
sg18
F230.875
sg19
I3948202
sg20
S'9992.44077166'
p504
sg22
F0.25
sbasg26
I00
sg27
I00
sg28
I3947332
sg20
S'9992.84180224'
p505
sba(igraph
Edge
p506
(dp507
g7
I1
sg8
I00
sg9
I5
sg10
(lp508
g502
a(igraph
Vertex
p509
(dp510
g14
F0.125
sg8
I00
sg15
g16
sg17
F-154.5
sg18
F188.75
sg19
I3948203
sg20
S'9992.44133151'
p511
sg22
F0.25
sbasg26
I00
sg27
I00
sg28
I3947333
sg20
S'9992.84341027'
p512
sba(igraph
Edge
p513
(dp514
g7
I1
sg8
I00
sg9
I5
sg10
(lp515
g509
a(igraph
Vertex
p516
(dp517
g14
F0.1875
sg8
I00
sg15
g16
sg17
F-154.5
sg18
F146.625
sg19
I3948204
sg20
S'9992.44189639'
p518
sg22
F0.25
sbasg26
I00
sg27
I00
sg28
I3947334
sg20
S'9992.84499902'
p519
sba(igraph
Edge
p520
(dp521
g7
I1
sg8
I00
sg9
I5
sg10
(lp522
g516
a(igraph
Vertex
p523
(dp524
g14
F0.25
sg8
I00
sg15
g16
sg17
F-154.5
sg18
F104.5
sg19
I3948205
sg20
S'9992.44247104'
p525
sg22
F0.25
sbasg26
I00
sg27
I00
sg28
I3947335
sg20
S'9992.84657882'
p526
sba(igraph
Edge
p527
(dp528
g7
I1
sg8
I00
sg9
I5
sg10
(lp529
g523
a(igraph
Vertex
p530
(dp531
g14
F0.3125
sg8
I00
sg15
g16
sg17
F-154.5
sg18
F62.375
sg19
I3948206
sg20
S'9992.44305128'
p532
sg22
F0.25
sbasg26
I00
sg27
I00
sg28
I3947336
sg20
S'9992.84817288'
p533
sba(igraph
Edge
p534
(dp535
g7
I1
sg8
I00
sg9
I5
sg10
(lp536
g530
a(igraph
Vertex
p537
(dp538
g14
F0.375
sg8
I00
sg15
g16
sg17
F-154.5
sg18
F20.25
sg19
I3948207
sg20
S'9992.44364689'
p539
sg22
F0.25
sbasg26
I00
sg27
I00
sg28
I3947337
sg20
S'9992.84983902'
p540
sba(igraph
Edge
p541
(dp542
g7
I1
sg8
I00
sg9
I5
sg10
(lp543
g537
a(igraph
Vertex
p544
(dp545
g14
F0.4375
sg8
I00
sg15
g16
sg17
F-154.5
sg18
F-21.875
sg19
I3948208
sg20
S'9992.4442492'
p546
sg22
F0.25
sbasg26
I00
sg27
I00
sg28
I3947338
sg20
S'9992.85148029'
p547
sba(igraph
Edge
p548
(dp549
g7
I1
sg8
I00
sg9
I5
sg10
(lp550
g544
a(igraph
Vertex
p551
(dp552
g14
F0.5
sg8
I00
sg15
g16
sg17
F-154.5
sg18
F-64.0
sg19
I3948209
sg20
S'9992.44485682'
p553
sg22
F0.25
sbasg26
I00
sg27
I00
sg28
I3947339
sg20
S'9992.85314335'
p554
sba(igraph
Edge
p555
(dp556
g7
I1
sg8
I00
sg9
I5
sg10
(lp557
g551
a(igraph
Vertex
p558
(dp559
g14
F0.5625
sg8
I00
sg15
g16
sg17
F-154.5
sg18
F-106.125
sg19
I3948210
sg20
S'9992.44546695'
p560
sg22
F0.25
sbasg26
I00
sg27
I00
sg28
I3947340
sg20
S'9992.8548254'
p561
sba(igraph
Edge
p562
(dp563
g7
I1
sg8
I00
sg9
I5
sg10
(lp564
g558
a(igraph
Vertex
p565
(dp566
g14
F0.625
sg8
I00
sg15
I0
sg17
F-154.5
sg18
F-148.25
sg19
I3948211
sg20
S'9992.44608407'
p567
sg22
F0.25
sbasg26
I00
sg27
I00
sg28
I3947341
sg20
S'9992.85652534'
p568
sba(igraph
Edge
p569
(dp570
g7
I1
sg8
I00
sg9
I5
sg10
(lp571
g565
a(igraph
Vertex
p572
(dp573
g14
F0.6875
sg8
I00
sg15
g16
sg17
F-154.5
sg18
F-190.375
sg19
I3948213
sg20
S'9992.44671292'
p574
sg22
F0.25
sbasg26
I00
sg27
I00
sg28
I3947342
sg20
S'9992.85829624'
p575
sba(igraph
Edge
p576
(dp577
g7
I1
sg8
I00
sg9
I5
sg10
(lp578
g572
a(igraph
Vertex
p579
(dp580
g14
F0.75
sg8
I00
sg15
g16
sg17
F-154.5
sg18
F-232.5
sg19
I3948214
sg20
S'9992.44735323'
p581
sg22
F0.25
sbasg26
I00
sg27
I00
sg28
I3947343
sg20
S'9992.86014954'
p582
sba(igraph
Edge
p583
(dp584
g7
I1
sg8
I00
sg9
I5
sg10
(lp585
g579
a(igraph
Vertex
p586
(dp587
g14
F0.8125
sg8
I00
sg15
g16
sg17
F-154.5
sg18
F-274.625
sg19
I3948215
sg20
S'9992.44799912'
p588
sg22
F0.25
sbasg26
I00
sg27
I00
sg28
I3947344
sg20
S'9992.8619576'
p589
sba(igraph
Edge
p590
(dp591
g7
I1
sg8
I00
sg9
I5
sg10
(lp592
g586
a(igraph
Vertex
p593
(dp594
g14
F0.875
sg8
I00
sg15
g16
sg17
F-154.5
sg18
F-316.75
sg19
I3948216
sg20
S'9992.44865227'
p595
sg22
F0.25
sbasg26
I00
sg27
I00
sg28
I3947345
sg20
S'9992.86379107'
p596
sba(igraph
Edge
p597
(dp598
g7
I1
sg8
I00
sg9
I5
sg10
(lp599
g593
a(igraph
Vertex
p600
(dp601
g14
F0.9375
sg8
I00
sg15
g16
sg17
F-154.5
sg18
F-358.875
sg19
I3948217
sg20
S'9992.4493166'
p602
sg22
F0.25
sbasg26
I00
sg27
I00
sg28
I3947346
sg20
S'9992.86583854'
p603
sba(igraph
Edge
p604
(dp605
g7
I1
sg8
I00
sg9
I5
sg10
(lp606
g600
a(igraph
Vertex
p607
(dp608
g14
F1.0
sg8
I00
sg15
g16
sg17
F-154.5
sg18
F-401.0
sg19
I3948218
sg20
S'9992.44998568'
p609
sg22
F0.25
sbasg26
I00
sg27
I00
sg28
I3947347
sg20
S'9992.86767341'
p610
sba(igraph
Edge
p611
(dp612
g7
I1
sg8
I00
sg9
I5
sg10
(lp613
g607
ag499
asg26
I00
sg27
I00
sg28
I3947348
sg20
S'9992.86952727'
p614
sba(igraph
Edge
p615
(dp616
g7
I1
sg8
I00
sg9
I5
sg10
(lp617
(igraph
Vertex
p618
(dp619
g14
F0.0
sg8
I00
sg15
g16
sg17
F-117.625
sg18
F273.0
sg19
I3948219
sg20
S'9992.45066398'
p620
sg22
F0.3125
sba(igraph
Vertex
p621
(dp622
g14
F0.0625
sg8
I00
sg15
g16
sg17
F-117.625
sg18
F230.875
sg19
I3948220
sg20
S'9992.45136156'
p623
sg22
F0.3125
sbasg26
I00
sg27
I00
sg28
I3947349
sg20
S'9992.871406'
p624
sba(igraph
Edge
p625
(dp626
g7
I1
sg8
I00
sg9
I5
sg10
(lp627
g621
a(igraph
Vertex
p628
(dp629
g14
F0.125
sg8
I00
sg15
g16
sg17
F-117.625
sg18
F188.75
sg19
I3948221
sg20
S'9992.45205941'
p630
sg22
F0.3125
sbasg26
I00
sg27
I00
sg28
I3947350
sg20
S'9992.87330485'
p631
sba(igraph
Edge
p632
(dp633
g7
I1
sg8
I00
sg9
I5
sg10
(lp634
g628
a(igraph
Vertex
p635
(dp636
g14
F0.1875
sg8
I00
sg15
g16
sg17
F-117.625
sg18
F146.625
sg19
I3948222
sg20
S'9992.45276537'
p637
sg22
F0.3125
sbasg26
I00
sg27
I00
sg28
I3947351
sg20
S'9992.87526264'
p638
sba(igraph
Edge
p639
(dp640
g7
I1
sg8
I00
sg9
I5
sg10
(lp641
g635
a(igraph
Vertex
p642
(dp643
g14
F0.25
sg8
I00
sg15
g16
sg17
F-117.625
sg18
F104.5
sg19
I3948223
sg20
S'9992.45347886'
p644
sg22
F0.3125
sbasg26
I00
sg27
I00
sg28
I3947352
sg20
S'9992.87728189'
p645
sba(igraph
Edge
p646
(dp647
g7
I1
sg8
I00
sg9
I5
sg10
(lp648
g642
a(igraph
Vertex
p649
(dp650
g14
F0.3125
sg8
I00
sg15
g16
sg17
F-117.625
sg18
F62.375
sg19
I3948224
sg20
S'9992.45447927'
p651
sg22
F0.3125
sbasg26
I00
sg27
I00
sg28
I3947353
sg20
S'9992.87926119'
p652
sba(igraph
Edge
p653
(dp654
g7
I1
sg8
I00
sg9
I5
sg10
(lp655
g649
a(igraph
Vertex
p656
(dp657
g14
F0.375
sg8
I00
sg15
g16
sg17
F-117.625
sg18
F20.25
sg19
I3948225
sg20
S'9992.45522601'
p658
sg22
F0.3125
sbasg26
I00
sg27
I00
sg28
I3947354
sg20
S'9992.88125642'
p659
sba(igraph
Edge
p660
(dp661
g7
I1
sg8
I00
sg9
I5
sg10
(lp662
g656
a(igraph
Vertex
p663
(dp664
g14
F0.4375
sg8
I00
sg15
g16
sg17
F-117.625
sg18
F-21.875
sg19
I3948226
sg20
S'9992.45599846'
p665
sg22
F0.3125
sbasg26
I00
sg27
I00
sg28
I3947355
sg20
S'9992.88329718'
p666
sba(igraph
Edge
p667
(dp668
g7
I1
sg8
I00
sg9
I5
sg10
(lp669
g663
a(igraph
Vertex
p670
(dp671
g14
F0.5
sg8
I00
sg15
g16
sg17
F-117.625
sg18
F-64.0
sg19
I3948227
sg20
S'9992.45678599'
p672
sg22
F0.3125
sbasg26
I00
sg27
I00
sg28
I3947356
sg20
S'9992.88595087'
p673
sba(igraph
Edge
p674
(dp675
g7
I1
sg8
I00
sg9
I5
sg10
(lp676
g670
a(igraph
Vertex
p677
(dp678
g14
F0.5625
sg8
I00
sg15
g16
sg17
F-117.625
sg18
F-106.125
sg19
I3948228
sg20
S'9992.45756765'
p679
sg22
F0.3125
sbasg26
I00
sg27
I00
sg28
I3947357
sg20
S'9992.88799135'
p680
sba(igraph
Edge
p681
(dp682
g7
I1
sg8
I00
sg9
I5
sg10
(lp683
g677
a(igraph
Vertex
p684
(dp685
g14
F0.625
sg8
I00
sg15
g16
sg17
F-117.625
sg18
F-148.25
sg19
I3948229
sg20
S'9992.45837725'
p686
sg22
F0.3125
sbasg26
I00
sg27
I00
sg28
I3947358
sg20
S'9992.89006256'
p687
sba(igraph
Edge
p688
(dp689
g7
I1
sg8
I00
sg9
I5
sg10
(lp690
g684
a(igraph
Vertex
p691
(dp692
g14
F0.6875
sg8
I00
sg15
g16
sg17
F-117.625
sg18
F-190.375
sg19
I3948230
sg20
S'9992.45915975'
p693
sg22
F0.3125
sbasg26
I00
sg27
I00
sg28
I3947359
sg20
S'9992.89215613'
p694
sba(igraph
Edge
p695
(dp696
g7
I1
sg8
I00
sg9
I5
sg10
(lp697
g691
a(igraph
Vertex
p698
(dp699
g14
F0.75
sg8
I00
sg15
g16
sg17
F-117.625
sg18
F-232.5
sg19
I3948231
sg20
S'9992.45995064'
p700
sg22
F0.3125
sbasg26
I00
sg27
I00
sg28
I3947360
sg20
S'9992.89454833'
p701
sba(igraph
Edge
p702
(dp703
g7
I1
sg8
I00
sg9
I5
sg10
(lp704
g698
a(igraph
Vertex
p705
(dp706
g14
F0.8125
sg8
I00
sg15
g16
sg17
F-117.625
sg18
F-274.625
sg19
I3948232
sg20
S'9992.46074431'
p707
sg22
F0.3125
sbasg26
I00
sg27
I00
sg28
I3947361
sg20
S'9992.89671089'
p708
sba(igraph
Edge
p709
(dp710
g7
I1
sg8
I00
sg9
I5
sg10
(lp711
g705
a(igraph
Vertex
p712
(dp713
g14
F0.875
sg8
I00
sg15
g16
sg17
F-117.625
sg18
F-316.75
sg19
I3948233
sg20
S'9992.4615486'
p714
sg22
F0.3125
sbasg26
I00
sg27
I00
sg28
I3947362
sg20
S'9992.89891509'
p715
sba(igraph
Edge
p716
(dp717
g7
I1
sg8
I00
sg9
I5
sg10
(lp718
g712
a(igraph
Vertex
p719
(dp720
g14
F0.9375
sg8
I00
sg15
g16
sg17
F-117.625
sg18
F-358.875
sg19
I3948234
sg20
S'9992.46236128'
p721
sg22
F0.3125
sbasg26
I00
sg27
I00
sg28
I3947363
sg20
S'9992.90112347'
p722
sba(igraph
Edge
p723
(dp724
g7
I1
sg8
I00
sg9
I5
sg10
(lp725
g719
a(igraph
Vertex
p726
(dp727
g14
F1.0
sg8
I00
sg15
g16
sg17
F-117.625
sg18
F-401.0
sg19
I3948235
sg20
S'9992.46318652'
p728
sg22
F0.3125
sbasg26
I00
sg27
I00
sg28
I3947364
sg20
S'9992.90339638'
p729
sba(igraph
Edge
p730
(dp731
g7
I1
sg8
I00
sg9
I5
sg10
(lp732
g726
ag618
asg26
I00
sg27
I00
sg28
I3947365
sg20
S'9992.90562544'
p733
sba(igraph
Edge
p734
(dp735
g7
I1
sg8
I00
sg9
I5
sg10
(lp736
(igraph
Vertex
p737
(dp738
g14
F0.0
sg8
I00
sg15
g16
sg17
F-80.75
sg18
F273.0
sg19
I3948236
sg20
S'9992.46401288'
p739
sg22
F0.375
sba(igraph
Vertex
p740
(dp741
g14
F0.0625
sg8
I00
sg15
g16
sg17
F-80.75
sg18
F230.875
sg19
I3948237
sg20
S'9992.46484986'
p742
sg22
F0.375
sbasg26
I00
sg27
I00
sg28
I3947366
sg20
S'9992.90792852'
p743
sba(igraph
Edge
p744
(dp745
g7
I1
sg8
I00
sg9
I5
sg10
(lp746
g740
a(igraph
Vertex
p747
(dp748
g14
F0.125
sg8
I00
sg15
g16
sg17
F-80.75
sg18
F188.75
sg19
I3948238
sg20
S'9992.46569494'
p749
sg22
F0.375
sbasg26
I00
sg27
I00
sg28
I3947367
sg20
S'9992.91030732'
p750
sba(igraph
Edge
p751
(dp752
g7
I1
sg8
I00
sg9
I5
sg10
(lp753
g747
a(igraph
Vertex
p754
(dp755
g14
F0.1875
sg8
I00
sg15
g16
sg17
F-80.75
sg18
F146.625
sg19
I3948239
sg20
S'9992.46661405'
p756
sg22
F0.375
sbasg26
I00
sg27
I00
sg28
I3947368
sg20
S'9992.91273835'
p757
sba(igraph
Edge
p758
(dp759
g7
I1
sg8
I00
sg9
I5
sg10
(lp760
g754
a(igraph
Vertex
p761
(dp762
g14
F0.25
sg8
I00
sg15
g16
sg17
F-80.75
sg18
F104.5
sg19
I3948240
sg20
S'9992.46750998'
p763
sg22
F0.375
sbasg26
I00
sg27
I00
sg28
I3947369
sg20
S'9992.91515877'
p764
sba(igraph
Edge
p765
(dp766
g7
I1
sg8
I00
sg9
I5
sg10
(lp767
g761
a(igraph
Vertex
p768
(dp769
g14
F0.3125
sg8
I00
sg15
g16
sg17
F-80.75
sg18
F62.375
sg19
I3948241
sg20
S'9992.4683978'
p770
sg22
F0.375
sbasg26
I00
sg27
I00
sg28
I3947370
sg20
S'9992.91753645'
p771
sba(igraph
Edge
p772
(dp773
g7
I1
sg8
I00
sg9
I5
sg10
(lp774
g768
a(igraph
Vertex
p775
(dp776
g14
F0.375
sg8
I00
sg15
g16
sg17
F-80.75
sg18
F20.25
sg19
I3948242
sg20
S'9992.46928842'
p777
sg22
F0.375
sbasg26
I00
sg27
I00
sg28
I3947371
sg20
S'9992.91991971'
p778
sba(igraph
Edge
p779
(dp780
g7
I1
sg8
I00
sg9
I5
sg10
(lp781
g775
a(igraph
Vertex
p782
(dp783
g14
F0.4375
sg8
I00
sg15
g16
sg17
F-80.75
sg18
F-21.875
sg19
I3948243
sg20
S'9992.47018741'
p784
sg22
F0.375
sbasg26
I00
sg27
I00
sg28
I3947372
sg20
S'9992.92227224'
p785
sba(igraph
Edge
p786
(dp787
g7
I1
sg8
I00
sg9
I5
sg10
(lp788
g782
a(igraph
Vertex
p789
(dp790
g14
F0.5
sg8
I00
sg15
g16
sg17
F-80.75
sg18
F-64.0
sg19
I3948244
sg20
S'9992.47109172'
p791
sg22
F0.375
sbasg26
I00
sg27
I00
sg28
I3947373
sg20
S'9992.92516758'
p792
sba(igraph
Edge
p793
(dp794
g7
I1
sg8
I00
sg9
I5
sg10
(lp795
g789
a(igraph
Vertex
p796
(dp797
g14
F0.5625
sg8
I00
sg15
g16
sg17
F-80.75
sg18
F-106.125
sg19
I3948245
sg20
S'9992.47202927'
p798
sg22
F0.375
sbasg26
I00
sg27
I00
sg28
I3947374
sg20
S'9992.92761035'
p799
sba(igraph
Edge
p800
(dp801
g7
I1
sg8
I00
sg9
I5
sg10
(lp802
g796
a(igraph
Vertex
p803
(dp804
g14
F0.625
sg8
I00
sg15
g16
sg17
F-80.75
sg18
F-148.25
sg19
I3948246
sg20
S'9992.47300313'
p805
sg22
F0.375
sbasg26
I00
sg27
I00
sg28
I3947375
sg20
S'9992.93004055'
p806
sba(igraph
Edge
p807
(dp808
g7
I1
sg8
I00
sg9
I5
sg10
(lp809
g803
a(igraph
Vertex
p810
(dp811
g14
F0.6875
sg8
I00
sg15
I0
sg17
F-80.75
sg18
F-190.375
sg19
I3948247
sg20
S'9992.47393537'
p812
sg22
F0.375
sbasg26
I00
sg27
I00
sg28
I3947376
sg20
S'9992.93255484'
p813
sba(igraph
Edge
p814
(dp815
g7
I1
sg8
I00
sg9
I5
sg10
(lp816
g810
a(igraph
Vertex
p817
(dp818
g14
F0.75
sg8
I00
sg15
g16
sg17
F-80.75
sg18
F-232.5
sg19
I3948249
sg20
S'9992.47487209'
p819
sg22
F0.375
sbasg26
I00
sg27
I00
sg28
I3947377
sg20
S'9992.93508616'
p820
sba(igraph
Edge
p821
(dp822
g7
I1
sg8
I00
sg9
I5
sg10
(lp823
g817
a(igraph
Vertex
p824
(dp825
g14
F0.8125
sg8
I00
sg15
g16
sg17
F-80.75
sg18
F-274.625
sg19
I3948250
sg20
S'9992.47583534'
p826
sg22
F0.375
sbasg26
I00
sg27
I00
sg28
I3947378
sg20
S'9992.93761414'
p827
sba(igraph
Edge
p828
(dp829
g7
I1
sg8
I00
sg9
I5
sg10
(lp830
g824
a(igraph
Vertex
p831
(dp832
g14
F0.875
sg8
I00
sg15
g16
sg17
F-80.75
sg18
F-316.75
sg19
I3948251
sg20
S'9992.47680138'
p833
sg22
F0.375
sbasg26
I00
sg27
I00
sg28
I3947379
sg20
S'9992.94016111'
p834
sba(igraph
Edge
p835
(dp836
g7
I1
sg8
I00
sg9
I5
sg10
(lp837
g831
a(igraph
Vertex
p838
(dp839
g14
F0.9375
sg8
I00
sg15
g16
sg17
F-80.75
sg18
F-358.875
sg19
I3948252
sg20
S'9992.47778754'
p840
sg22
F0.375
sbasg26
I00
sg27
I00
sg28
I3947380
sg20
S'9992.94273211'
p841
sba(igraph
Edge
p842
(dp843
g7
I1
sg8
I00
sg9
I5
sg10
(lp844
g838
a(igraph
Vertex
p845
(dp846
g14
F1.0
sg8
I00
sg15
g16
sg17
F-80.75
sg18
F-401.0
sg19
I3948253
sg20
S'9992.47876085'
p847
sg22
F0.375
sbasg26
I00
sg27
I00
sg28
I3947381
sg20
S'9992.94542575'
p848
sba(igraph
Edge
p849
(dp850
g7
I1
sg8
I00
sg9
I5
sg10
(lp851
g845
ag737
asg26
I00
sg27
I00
sg28
I3947382
sg20
S'9992.94807329'
p852
sba(igraph
Edge
p853
(dp854
g7
I1
sg8
I00
sg9
I5
sg10
(lp855
(igraph
Vertex
p856
(dp857
g14
F0.0
sg8
I00
sg15
g16
sg17
F-43.875
sg18
F273.0
sg19
I3948254
sg20
S'9992.47974589'
p858
sg22
F0.4375
sba(igraph
Vertex
p859
(dp860
g14
F0.0625
sg8
I00
sg15
g16
sg17
F-43.875
sg18
F230.875
sg19
I3948255
sg20
S'9992.48073736'
p861
sg22
F0.4375
sbasg26
I00
sg27
I00
sg28
I3947383
sg20
S'9992.95069066'
p862
sba(igraph
Edge
p863
(dp864
g7
I1
sg8
I00
sg9
I5
sg10
(lp865
g859
a(igraph
Vertex
p866
(dp867
g14
F0.125
sg8
I00
sg15
g16
sg17
F-43.875
sg18
F188.75
sg19
I3948256
sg20
S'9992.48173748'
p868
sg22
F0.4375
sbasg26
I00
sg27
I00
sg28
I3947384
sg20
S'9992.95331111'
p869
sba(igraph
Edge
p870
(dp871
g7
I1
sg8
I00
sg9
I5
sg10
(lp872
g866
a(igraph
Vertex
p873
(dp874
g14
F0.1875
sg8
I00
sg15
g16
sg17
F-43.875
sg18
F146.625
sg19
I3948257
sg20
S'9992.48273593'
p875
sg22
F0.4375
sbasg26
I00
sg27
I00
sg28
I3947385
sg20
S'9992.95622516'
p876
sba(igraph
Edge
p877
(dp878
g7
I1
sg8
I00
sg9
I5
sg10
(lp879
g873
a(igraph
Vertex
p880
(dp881
g14
F0.25
sg8
I00
sg15
g16
sg17
F-43.875
sg18
F104.5
sg19
I3948258
sg20
S'9992.4837788'
p882
sg22
F0.4375
sbasg26
I00
sg27
I00
sg28
I3947386
sg20
S'9992.95922387'
p883
sba(igraph
Edge
p884
(dp885
g7
I1
sg8
I00
sg9
I5
sg10
(lp886
g880
a(igraph
Vertex
p887
(dp888
g14
F0.3125
sg8
I00
sg15
g16
sg17
F-43.875
sg18
F62.375
sg19
I3948259
sg20
S'9992.48480631'
p889
sg22
F0.4375
sbasg26
I00
sg27
I00
sg28
I3947387
sg20
S'9992.96211809'
p890
sba(igraph
Edge
p891
(dp892
g7
I1
sg8
I00
sg9
I5
sg10
(lp893
g887
a(igraph
Vertex
p894
(dp895
g14
F0.375
sg8
I00
sg15
g16
sg17
F-43.875
sg18
F20.25
sg19
I3948260
sg20
S'9992.48585868'
p896
sg22
F0.4375
sbasg26
I00
sg27
I00
sg28
I3947388
sg20
S'9992.96498354'
p897
sba(igraph
Edge
p898
(dp899
g7
I1
sg8
I00
sg9
I5
sg10
(lp900
g894
a(igraph
Vertex
p901
(dp902
g14
F0.4375
sg8
I00
sg15
g16
sg17
F-43.875
sg18
F-21.875
sg19
I3948261
sg20
S'9992.48699877'
p903
sg22
F0.4375
sbasg26
I00
sg27
I00
sg28
I3947389
sg20
S'9992.96781854'
p904
sba(igraph
Edge
p905
(dp906
g7
I1
sg8
I00
sg9
I5
sg10
(lp907
g901
a(igraph
Vertex
p908
(dp909
g14
F0.5
sg8
I00
sg15
g16
sg17
F-43.875
sg18
F-64.0
sg19
I3948262
sg20
S'9992.48810952'
p910
sg22
F0.4375
sbasg26
I00
sg27
I00
sg28
I3947390
sg20
S'9992.97061861'
p911
sba(igraph
Edge
p912
(dp913
g7
I1
sg8
I00
sg9
I5
sg10
(lp914
g908
a(igraph
Vertex
p915
(dp916
g14
F0.5625
sg8
I00
sg15
g16
sg17
F-43.875
sg18
F-106.125
sg19
I3948263
sg20
S'9992.48918899'
p917
sg22
F0.4375
sbasg26
I00
sg27
I00
sg28
I3947391
sg20
S'9992.97343769'
p918
sba(igraph
Edge
p919
(dp920
g7
I1
sg8
I00
sg9
I5
sg10
(lp921
g915
a(igraph
Vertex
p922
(dp923
g14
F0.625
sg8
I00
sg15
g16
sg17
F-43.875
sg18
F-148.25
sg19
I3948264
sg20
S'9992.49031846'
p924
sg22
F0.4375
sbasg26
I00
sg27
I00
sg28
I3947392
sg20
S'9992.97641292'
p925
sba(igraph
Edge
p926
(dp927
g7
I1
sg8
I00
sg9
I5
sg10
(lp928
g922
a(igraph
Vertex
p929
(dp930
g14
F0.6875
sg8
I00
sg15
g16
sg17
F-43.875
sg18
F-190.375
sg19
I3948265
sg20
S'9992.49145017'
p931
sg22
F0.4375
sbasg26
I00
sg27
I00
sg28
I3947393
sg20
S'9992.97927558'
p932
sba(igraph
Edge
p933
(dp934
g7
I1
sg8
I00
sg9
I5
sg10
(lp935
g929
a(igraph
Vertex
p936
(dp937
g14
F0.75
sg8
I00
sg15
g16
sg17
F-43.875
sg18
F-232.5
sg19
I3948266
sg20
S'9992.49253439'
p938
sg22
F0.4375
sbasg26
I00
sg27
I00
sg28
I3947394
sg20
S'9992.98276345'
p939
sba(igraph
Edge
p940
(dp941
g7
I1
sg8
I00
sg9
I5
sg10
(lp942
g936
a(igraph
Vertex
p943
(dp944
g14
F0.8125
sg8
I00
sg15
g16
sg17
F-43.875
sg18
F-274.625
sg19
I3948267
sg20
S'9992.49362615'
p945
sg22
F0.4375
sbasg26
I00
sg27
I00
sg28
I3947395
sg20
S'9992.98567807'
p946
sba(igraph
Edge
p947
(dp948
g7
I1
sg8
I00
sg9
I5
sg10
(lp949
g943
a(igraph
Vertex
p950
(dp951
g14
F0.875
sg8
I00
sg15
g16
sg17
F-43.875
sg18
F-316.75
sg19
I3948268
sg20
S'9992.49472377'
p952
sg22
F0.4375
sbasg26
I00
sg27
I00
sg28
I3947396
sg20
S'9992.98864632'
p953
sba(igraph
Edge
p954
(dp955
g7
I1
sg8
I00
sg9
I5
sg10
(lp956
g950
a(igraph
Vertex
p957
(dp958
g14
F0.9375
sg8
I00
sg15
g16
sg17
F-43.875
sg18
F-358.875
sg19
I3948269
sg20
S'9992.49582531'
p959
sg22
F0.4375
sbasg26
I00
sg27
I00
sg28
I3947397
sg20
S'9992.99160759'
p960
sba(igraph
Edge
p961
(dp962
g7
I1
sg8
I00
sg9
I5
sg10
(lp963
g957
a(igraph
Vertex
p964
(dp965
g14
F1.0
sg8
I00
sg15
g16
sg17
F-43.875
sg18
F-401.0
sg19
I3948270
sg20
S'9992.49693914'
p966
sg22
F0.4375
sbasg26
I00
sg27
I00
sg28
I3947398
sg20
S'9992.99459289'
p967
sba(igraph
Edge
p968
(dp969
g7
I1
sg8
I00
sg9
I5
sg10
(lp970
g964
ag856
asg26
I00
sg27
I00
sg28
I3947399
sg20
S'9992.99759746'
p971
sba(igraph
Edge
p972
(dp973
g7
I1
sg8
I00
sg9
I5
sg10
(lp974
(igraph
Vertex
p975
(dp976
g14
F0.0
sg8
I01
sg15
I0
sg17
F-7.0
sg18
F273.0
sg19
I3948272
sg20
S'9992.49806302'
p977
sg22
F0.5
sba(igraph
Vertex
p978
(dp979
g14
F0.0625
sg8
I00
sg15
g16
sg17
F-7.0
sg18
F230.875
sg19
I3948274
sg20
S'9992.50055915'
p980
sg22
F0.5
sbasg26
I00
sg27
I00
sg28
I3947400
sg20
S'9993.00076909'
p981
sba(igraph
Edge
p982
(dp983
g7
I1
sg8
I00
sg9
I5
sg10
(lp984
g978
a(igraph
Vertex
p985
(dp986
g14
F0.125
sg8
I00
sg15
g16
sg17
F-7.0
sg18
F188.75
sg19
I3948275
sg20
S'9992.50182104'
p987
sg22
F0.5
sbasg26
I00
sg27
I00
sg28
I3947401
sg20
S'9993.00386809'
p988
sba(igraph
Edge
p989
(dp990
g7
I1
sg8
I00
sg9
I5
sg10
(lp991
g985
a(igraph
Vertex
p992
(dp993
g14
F0.1875
sg8
I00
sg15
g16
sg17
F-7.0
sg18
F146.625
sg19
I3948276
sg20
S'9992.50311702'
p994
sg22
F0.5
sbasg26
I00
sg27
I00
sg28
I3947402
sg20
S'9993.00696513'
p995
sba(igraph
Edge
p996
(dp997
g7
I1
sg8
I00
sg9
I5
sg10
(lp998
g992
a(igraph
Vertex
p999
(dp1000
g14
F0.25
sg8
I00
sg15
g16
sg17
F-7.0
sg18
F104.5
sg19
I3948277
sg20
S'9992.50441495'
p1001
sg22
F0.5
sbasg26
I00
sg27
I00
sg28
I3947403
sg20
S'9993.0100239'
p1002
sba(igraph
Edge
p1003
(dp1004
g7
I1
sg8
I00
sg9
I5
sg10
(lp1005
g999
a(igraph
Vertex
p1006
(dp1007
g14
F0.3125
sg8
I00
sg15
g16
sg17
F-7.0
sg18
F62.375
sg19
I3948278
sg20
S'9992.50577238'
p1008
sg22
F0.5
sbasg26
I00
sg27
I00
sg28
I3947404
sg20
S'9993.01315'
p1009
sba(igraph
Edge
p1010
(dp1011
g7
I1
sg8
I00
sg9
I5
sg10
(lp1012
g1006
a(igraph
Vertex
p1013
(dp1014
g14
F0.375
sg8
I00
sg15
g16
sg17
F-7.0
sg18
F20.25
sg19
I3948279
sg20
S'9992.50713401'
p1015
sg22
F0.5
sbasg26
I00
sg27
I00
sg28
I3947405
sg20
S'9993.01629704'
p1016
sba(igraph
Edge
p1017
(dp1018
g7
I1
sg8
I00
sg9
I5
sg10
(lp1019
g1013
a(igraph
Vertex
p1020
(dp1021
g14
F0.4375
sg8
I00
sg15
g16
sg17
F-7.0
sg18
F-21.875
sg19
I3948280
sg20
S'9992.50846323'
p1022
sg22
F0.5
sbasg26
I00
sg27
I00
sg28
I3947406
sg20
S'9993.01941951'
p1023
sba(igraph
Edge
p1024
(dp1025
g7
I1
sg8
I00
sg9
I5
sg10
(lp1026
g1020
a(igraph
Vertex
p1027
(dp1028
g14
F0.5
sg8
I00
sg15
g16
sg17
F-7.0
sg18
F-64.0
sg19
I3948281
sg20
S'9992.50988827'
p1029
sg22
F0.5
sbasg26
I00
sg27
I00
sg28
I3947407
sg20
S'9993.02257354'
p1030
sba(igraph
Edge
p1031
(dp1032
g7
I1
sg8
I00
sg9
I5
sg10
(lp1033
g1027
a(igraph
Vertex
p1034
(dp1035
g14
F0.5625
sg8
I00
sg15
g16
sg17
F-7.0
sg18
F-106.125
sg19
I3948282
sg20
S'9992.51121609'
p1036
sg22
F0.5
sbasg26
I00
sg27
I00
sg28
I3947408
sg20
S'9993.02574601'
p1037
sba(igraph
Edge
p1038
(dp1039
g7
I1
sg8
I00
sg9
I5
sg10
(lp1040
g1034
a(igraph
Vertex
p1041
(dp1042
g14
F0.625
sg8
I00
sg15
g16
sg17
F-7.0
sg18
F-148.25
sg19
I3948283
sg20
S'9992.51253693'
p1043
sg22
F0.5
sbasg26
I00
sg27
I00
sg28
I3947409
sg20
S'9993.02893692'
p1044
sba(igraph
Edge
p1045
(dp1046
g7
I1
sg8
I00
sg9
I5
sg10
(lp1047
g1041
a(igraph
Vertex
p1048
(dp1049
g14
F0.6875
sg8
I00
sg15
g16
sg17
F-7.0
sg18
F-190.375
sg19
I3948284
sg20
S'9992.51396784'
p1050
sg22
F0.5
sbasg26
I00
sg27
I00
sg28
I3947410
sg20
S'9993.03219432'
p1051
sba(igraph
Edge
p1052
(dp1053
g7
I1
sg8
I00
sg9
I5
sg10
(lp1054
g1048
a(igraph
Vertex
p1055
(dp1056
g14
F0.75
sg8
I00
sg15
I0
sg17
F-7.0
sg18
F-232.5
sg19
I3948285
sg20
S'9992.51533868'
p1057
sg22
F0.5
sbasg26
I00
sg27
I00
sg28
I3947411
sg20
S'9993.03543607'
p1058
sba(igraph
Edge
p1059
(dp1060
g7
I1
sg8
I00
sg9
I5
sg10
(lp1061
g1055
a(igraph
Vertex
p1062
(dp1063
g14
F0.8125
sg8
I00
sg15
g16
sg17
F-7.0
sg18
F-274.625
sg19
I3948287
sg20
S'9992.51682742'
p1064
sg22
F0.5
sbasg26
I00
sg27
I00
sg28
I3947412
sg20
S'9993.03866329'
p1065
sba(igraph
Edge
p1066
(dp1067
g7
I1
sg8
I00
sg9
I5
sg10
(lp1068
g1062
a(igraph
Vertex
p1069
(dp1070
g14
F0.875
sg8
I00
sg15
g16
sg17
F-7.0
sg18
F-316.75
sg19
I3948288
sg20
S'9992.51827034'
p1071
sg22
F0.5
sbasg26
I00
sg27
I00
sg28
I3947413
sg20
S'9993.04188661'
p1072
sba(igraph
Edge
p1073
(dp1074
g7
I1
sg8
I00
sg9
I5
sg10
(lp1075
g1069
a(igraph
Vertex
p1076
(dp1077
g14
F0.9375
sg8
I00
sg15
g16
sg17
F-7.0
sg18
F-358.875
sg19
I3948289
sg20
S'9992.51954396'
p1078
sg22
F0.5
sbasg26
I00
sg27
I00
sg28
I3947414
sg20
S'9993.04522558'
p1079
sba(igraph
Edge
p1080
(dp1081
g7
I1
sg8
I00
sg9
I5
sg10
(lp1082
g1076
a(igraph
Vertex
p1083
(dp1084
g14
F1.0
sg8
I00
sg15
g16
sg17
F-7.0
sg18
F-401.0
sg19
I3948290
sg20
S'9992.52080669'
p1085
sg22
F0.5
sbasg26
I00
sg27
I00
sg28
I3947415
sg20
S'9993.04861009'
p1086
sba(igraph
Edge
p1087
(dp1088
g7
I1
sg8
I00
sg9
I5
sg10
(lp1089
g1083
ag975
asg26
I00
sg27
I00
sg28
I3947416
sg20
S'9993.05197281'
p1090
sba(igraph
Edge
p1091
(dp1092
g7
I1
sg8
I00
sg9
I5
sg10
(lp1093
(igraph
Vertex
p1094
(dp1095
g14
F0.0
sg8
I00
sg15
g16
sg17
F29.875
sg18
F273.0
sg19
I3948291
sg20
S'9992.52208367'
p1096
sg22
F0.5625
sba(igraph
Vertex
p1097
(dp1098
g14
F0.0625
sg8
I00
sg15
g16
sg17
F29.875
sg18
F230.875
sg19
I3948292
sg20
S'9992.52336233'
p1099
sg22
F0.5625
sbasg26
I00
sg27
I00
sg28
I3947417
sg20
S'9993.05539447'
p1100
sba(igraph
Edge
p1101
(dp1102
g7
I1
sg8
I00
sg9
I5
sg10
(lp1103
g1097
a(igraph
Vertex
p1104
(dp1105
g14
F0.125
sg8
I00
sg15
I0
sg17
F29.875
sg18
F188.75
sg19
I3948293
sg20
S'9992.52464405'
p1106
sg22
F0.5625
sbasg26
I00
sg27
I00
sg28
I3947418
sg20
S'9993.05881865'
p1107
sba(igraph
Edge
p1108
(dp1109
g7
I1
sg8
I00
sg9
I5
sg10
(lp1110
g1104
a(igraph
Vertex
p1111
(dp1112
g14
F0.1875
sg8
I00
sg15
g16
sg17
F29.875
sg18
F146.625
sg19
I3948295
sg20
S'9992.52596992'
p1113
sg22
F0.5625
sbasg26
I00
sg27
I00
sg28
I3947419
sg20
S'9993.06223221'
p1114
sba(igraph
Edge
p1115
(dp1116
g7
I1
sg8
I00
sg9
I5
sg10
(lp1117
g1111
a(igraph
Vertex
p1118
(dp1119
g14
F0.25
sg8
I00
sg15
g16
sg17
F29.875
sg18
F104.5
sg19
I3948296
sg20
S'9992.52727986'
p1120
sg22
F0.5625
sbasg26
I00
sg27
I00
sg28
I3947420
sg20
S'9993.06564494'
p1121
sba(igraph
Edge
p1122
(dp1123
g7
I1
sg8
I00
sg9
I5
sg10
(lp1124
g1118
a(igraph
Vertex
p1125
(dp1126
g14
F0.3125
sg8
I00
sg15
g16
sg17
F29.875
sg18
F62.375
sg19
I3948297
sg20
S'9992.5286021'
p1127
sg22
F0.5625
sbasg26
I00
sg27
I00
sg28
I3947421
sg20
S'9993.06906269'
p1128
sba(igraph
Edge
p1129
(dp1130
g7
I1
sg8
I00
sg9
I5
sg10
(lp1131
g1125
a(igraph
Vertex
p1132
(dp1133
g14
F0.375
sg8
I00
sg15
g16
sg17
F29.875
sg18
F20.25
sg19
I3948298
sg20
S'9992.52992517'
p1134
sg22
F0.5625
sbasg26
I00
sg27
I00
sg28
I3947422
sg20
S'9993.07250335'
p1135
sba(igraph
Edge
p1136
(dp1137
g7
I1
sg8
I00
sg9
I5
sg10
(lp1138
g1132
a(igraph
Vertex
p1139
(dp1140
g14
F0.4375
sg8
I00
sg15
g16
sg17
F29.875
sg18
F-21.875
sg19
I3948299
sg20
S'9992.53133094'
p1141
sg22
F0.5625
sbasg26
I00
sg27
I00
sg28
I3947423
sg20
S'9993.07596552'
p1142
sba(igraph
Edge
p1143
(dp1144
g7
I1
sg8
I00
sg9
I5
sg10
(lp1145
g1139
a(igraph
Vertex
p1146
(dp1147
g14
F0.5
sg8
I00
sg15
g16
sg17
F29.875
sg18
F-64.0
sg19
I3948300
sg20
S'9992.53274816'
p1148
sg22
F0.5625
sbasg26
I00
sg27
I00
sg28
I3947424
sg20
S'9993.07954028'
p1149
sba(igraph
Edge
p1150
(dp1151
g7
I1
sg8
I00
sg9
I5
sg10
(lp1152
g1146
a(igraph
Vertex
p1153
(dp1154
g14
F0.5625
sg8
I00
sg15
g16
sg17
F29.875
sg18
F-106.125
sg19
I3948301
sg20
S'9992.53423606'
p1155
sg22
F0.5625
sbasg26
I00
sg27
I00
sg28
I3947425
sg20
S'9993.08320164'
p1156
sba(igraph
Edge
p1157
(dp1158
g7
I1
sg8
I00
sg9
I5
sg10
(lp1159
g1153
a(igraph
Vertex
p1160
(dp1161
g14
F0.625
sg8
I00
sg15
g16
sg17
F29.875
sg18
F-148.25
sg19
I3948302
sg20
S'9992.53560047'
p1162
sg22
F0.5625
sbasg26
I00
sg27
I00
sg28
I3947426
sg20
S'9993.08678924'
p1163
sba(igraph
Edge
p1164
(dp1165
g7
I1
sg8
I00
sg9
I5
sg10
(lp1166
g1160
a(igraph
Vertex
p1167
(dp1168
g14
F0.6875
sg8
I00
sg15
g16
sg17
F29.875
sg18
F-190.375
sg19
I3948303
sg20
S'9992.53697663'
p1169
sg22
F0.5625
sbasg26
I00
sg27
I00
sg28
I3947427
sg20
S'9993.0903978'
p1170
sba(igraph
Edge
p1171
(dp1172
g7
I1
sg8
I00
sg9
I5
sg10
(lp1173
g1167
a(igraph
Vertex
p1174
(dp1175
g14
F0.75
sg8
I00
sg15
g16
sg17
F29.875
sg18
F-232.5
sg19
I3948304
sg20
S'9992.5383634'
p1176
sg22
F0.5625
sbasg26
I00
sg27
I00
sg28
I3947428
sg20
S'9993.0940681'
p1177
sba(igraph
Edge
p1178
(dp1179
g7
I1
sg8
I00
sg9
I5
sg10
(lp1180
g1174
a(igraph
Vertex
p1181
(dp1182
g14
F0.8125
sg8
I00
sg15
g16
sg17
F29.875
sg18
F-274.625
sg19
I3948305
sg20
S'9992.53975491'
p1183
sg22
F0.5625
sbasg26
I00
sg27
I00
sg28
I3947429
sg20
S'9993.09770795'
p1184
sba(igraph
Edge
p1185
(dp1186
g7
I1
sg8
I00
sg9
I5
sg10
(lp1187
g1181
a(igraph
Vertex
p1188
(dp1189
g14
F0.875
sg8
I00
sg15
g16
sg17
F29.875
sg18
F-316.75
sg19
I3948306
sg20
S'9992.54115314'
p1190
sg22
F0.5625
sbasg26
I00
sg27
I00
sg28
I3947430
sg20
S'9993.10133718'
p1191
sba(igraph
Edge
p1192
(dp1193
g7
I1
sg8
I00
sg9
I5
sg10
(lp1194
g1188
a(igraph
Vertex
p1195
(dp1196
g14
F0.9375
sg8
I00
sg15
g16
sg17
F29.875
sg18
F-358.875
sg19
I3948307
sg20
S'9992.54258851'
p1197
sg22
F0.5625
sbasg26
I00
sg27
I00
sg28
I3947431
sg20
S'9993.10497228'
p1198
sba(igraph
Edge
p1199
(dp1200
g7
I1
sg8
I00
sg9
I5
sg10
(lp1201
g1195
a(igraph
Vertex
p1202
(dp1203
g14
F1.0
sg8
I00
sg15
g16
sg17
F29.875
sg18
F-401.0
sg19
I3948308
sg20
S'9992.54400908'
p1204
sg22
F0.5625
sbasg26
I00
sg27
I00
sg28
I3947432
sg20
S'9993.10880405'
p1205
sba(igraph
Edge
p1206
(dp1207
g7
I1
sg8
I00
sg9
I5
sg10
(lp1208
g1202
ag1094
asg26
I00
sg27
I00
sg28
I3947433
sg20
S'9993.11251793'
p1209
sba(igraph
Edge
p1210
(dp1211
g7
I1
sg8
I00
sg9
I5
sg10
(lp1212
(igraph
Vertex
p1213
(dp1214
g14
F0.0
sg8
I00
sg15
g16
sg17
F66.75
sg18
F273.0
sg19
I3948309
sg20
S'9992.54544279'
p1215
sg22
F0.625
sba(igraph
Vertex
p1216
(dp1217
g14
F0.0625
sg8
I00
sg15
g16
sg17
F66.75
sg18
F230.875
sg19
I3948310
sg20
S'9992.54692147'
p1218
sg22
F0.625
sbasg26
I00
sg27
I00
sg28
I3947434
sg20
S'9993.11624718'
p1219
sba(igraph
Edge
p1220
(dp1221
g7
I1
sg8
I00
sg9
I5
sg10
(lp1222
g1216
a(igraph
Vertex
p1223
(dp1224
g14
F0.125
sg8
I00
sg15
g16
sg17
F66.75
sg18
F188.75
sg19
I3948311
sg20
S'9992.54836467'
p1225
sg22
F0.625
sbasg26
I00
sg27
I00
sg28
I3947435
sg20
S'9993.12001162'
p1226
sba(igraph
Edge
p1227
(dp1228
g7
I1
sg8
I00
sg9
I5
sg10
(lp1229
g1223
a(igraph
Vertex
p1230
(dp1231
g14
F0.1875
sg8
I00
sg15
g16
sg17
F66.75
sg18
F146.625
sg19
I3948312
sg20
S'9992.54982491'
p1232
sg22
F0.625
sbasg26
I00
sg27
I00
sg28
I3947436
sg20
S'9993.12377718'
p1233
sba(igraph
Edge
p1234
(dp1235
g7
I1
sg8
I00
sg9
I5
sg10
(lp1236
g1230
a(igraph
Vertex
p1237
(dp1238
g14
F0.25
sg8
I00
sg15
I0
sg17
F66.75
sg18
F104.5
sg19
I3948313
sg20
S'9992.551298'
p1239
sg22
F0.625
sbasg26
I00
sg27
I00
sg28
I3947437
sg20
S'9993.12756202'
p1240
sba(igraph
Edge
p1241
(dp1242
g7
I1
sg8
I00
sg9
I5
sg10
(lp1243
g1237
a(igraph
Vertex
p1244
(dp1245
g14
F0.3125
sg8
I00
sg15
g16
sg17
F66.75
sg18
F62.375
sg19
I3948315
sg20
S'9992.55284764'
p1246
sg22
F0.625
sbasg26
I00
sg27
I00
sg28
I3947438
sg20
S'9993.13144129'
p1247
sba(igraph
Edge
p1248
(dp1249
g7
I1
sg8
I00
sg9
I5
sg10
(lp1250
g1244
a(igraph
Vertex
p1251
(dp1252
g14
F0.375
sg8
I00
sg15
g16
sg17
F66.75
sg18
F20.25
sg19
I3948316
sg20
S'9992.55433023'
p1253
sg22
F0.625
sbasg26
I00
sg27
I00
sg28
I3947439
sg20
S'9993.13530295'
p1254
sba(igraph
Edge
p1255
(dp1256
g7
I1
sg8
I00
sg9
I5
sg10
(lp1257
g1251
a(igraph
Vertex
p1258
(dp1259
g14
F0.4375
sg8
I00
sg15
g16
sg17
F66.75
sg18
F-21.875
sg19
I3948317
sg20
S'9992.55583154'
p1260
sg22
F0.625
sbasg26
I00
sg27
I00
sg28
I3947440
sg20
S'9993.13920428'
p1261
sba(igraph
Edge
p1262
(dp1263
g7
I1
sg8
I00
sg9
I5
sg10
(lp1264
g1258
a(igraph
Vertex
p1265
(dp1266
g14
F0.5
sg8
I00
sg15
g16
sg17
F66.75
sg18
F-64.0
sg19
I3948318
sg20
S'9992.55733033'
p1267
sg22
F0.625
sbasg26
I00
sg27
I00
sg28
I3947441
sg20
S'9993.14308802'
p1268
sba(igraph
Edge
p1269
(dp1270
g7
I1
sg8
I00
sg9
I5
sg10
(lp1271
g1265
a(igraph
Vertex
p1272
(dp1273
g14
F0.5625
sg8
I00
sg15
g16
sg17
F66.75
sg18
F-106.125
sg19
I3948319
sg20
S'9992.55883024'
p1274
sg22
F0.625
sbasg26
I00
sg27
I00
sg28
I3947442
sg20
S'9993.14697427'
p1275
sba(igraph
Edge
p1276
(dp1277
g7
I1
sg8
I00
sg9
I5
sg10
(lp1278
g1272
a(igraph
Vertex
p1279
(dp1280
g14
F0.625
sg8
I00
sg15
g16
sg17
F66.75
sg18
F-148.25
sg19
I3948320
sg20
S'9992.56044693'
p1281
sg22
F0.625
sbasg26
I00
sg27
I00
sg28
I3947443
sg20
S'9993.15086834'
p1282
sba(igraph
Edge
p1283
(dp1284
g7
I1
sg8
I00
sg9
I5
sg10
(lp1285
g1279
a(igraph
Vertex
p1286
(dp1287
g14
F0.6875
sg8
I00
sg15
g16
sg17
F66.75
sg18
F-190.375
sg19
I3948321
sg20
S'9992.56197645'
p1288
sg22
F0.625
sbasg26
I00
sg27
I00
sg28
I3947444
sg20
S'9993.15497249'
p1289
sba(igraph
Edge
p1290
(dp1291
g7
I1
sg8
I00
sg9
I5
sg10
(lp1292
g1286
a(igraph
Vertex
p1293
(dp1294
g14
F0.75
sg8
I00
sg15
g16
sg17
F66.75
sg18
F-232.5
sg19
I3948322
sg20
S'9992.56350598'
p1295
sg22
F0.625
sbasg26
I00
sg27
I00
sg28
I3947445
sg20
S'9993.15897104'
p1296
sba(igraph
Edge
p1297
(dp1298
g7
I1
sg8
I00
sg9
I5
sg10
(lp1299
g1293
a(igraph
Vertex
p1300
(dp1301
g14
F0.8125
sg8
I00
sg15
I0
sg17
F66.75
sg18
F-274.625
sg19
I3948323
sg20
S'9992.56505198'
p1302
sg22
F0.625
sbasg26
I00
sg27
I00
sg28
I3947446
sg20
S'9993.16293998'
p1303
sba(igraph
Edge
p1304
(dp1305
g7
I1
sg8
I00
sg9
I5
sg10
(lp1306
g1300
a(igraph
Vertex
p1307
(dp1308
g14
F0.875
sg8
I00
sg15
g16
sg17
F66.75
sg18
F-316.75
sg19
I3948325
sg20
S'9992.5666019'
p1309
sg22
F0.625
sbasg26
I00
sg27
I00
sg28
I3947447
sg20
S'9993.1669824'
p1310
sba(igraph
Edge
p1311
(dp1312
g7
I1
sg8
I00
sg9
I5
sg10
(lp1313
g1307
a(igraph
Vertex
p1314
(dp1315
g14
F0.9375
sg8
I00
sg15
g16
sg17
F66.75
sg18
F-358.875
sg19
I3948326
sg20
S'9992.56815936'
p1316
sg22
F0.625
sbasg26
I00
sg27
I00
sg28
I3947448
sg20
S'9993.17116086'
p1317
sba(igraph
Edge
p1318
(dp1319
g7
I1
sg8
I00
sg9
I5
sg10
(lp1320
g1314
a(igraph
Vertex
p1321
(dp1322
g14
F1.0
sg8
I00
sg15
g16
sg17
F66.75
sg18
F-401.0
sg19
I3948327
sg20
S'9992.56971878'
p1323
sg22
F0.625
sbasg26
I00
sg27
I00
sg28
I3947449
sg20
S'9993.17526529'
p1324
sba(igraph
Edge
p1325
(dp1326
g7
I1
sg8
I00
sg9
I5
sg10
(lp1327
g1321
ag1213
asg26
I00
sg27
I00
sg28
I3947450
sg20
S'9993.17937391'
p1328
sba(igraph
Edge
p1329
(dp1330
g7
I1
sg8
I00
sg9
I5
sg10
(lp1331
(igraph
Vertex
p1332
(dp1333
g14
F0.0
sg8
I00
sg15
g16
sg17
F103.625
sg18
F273.0
sg19
I3948328
sg20
S'9992.57129496'
p1334
sg22
F0.6875
sba(igraph
Vertex
p1335
(dp1336
g14
F0.0625
sg8
I00
sg15
g16
sg17
F103.625
sg18
F230.875
sg19
I3948329
sg20
S'9992.57287532'
p1337
sg22
F0.6875
sbasg26
I00
sg27
I00
sg28
I3947451
sg20
S'9993.18350321'
p1338
sba(igraph
Edge
p1339
(dp1340
g7
I1
sg8
I00
sg9
I5
sg10
(lp1341
g1335
a(igraph
Vertex
p1342
(dp1343
g14
F0.125
sg8
I00
sg15
g16
sg17
F103.625
sg18
F188.75
sg19
I3948330
sg20
S'9992.57447609'
p1344
sg22
F0.6875
sbasg26
I00
sg27
I00
sg28
I3947452
sg20
S'9993.18765458'
p1345
sba(igraph
Edge
p1346
(dp1347
g7
I1
sg8
I00
sg9
I5
sg10
(lp1348
g1342
a(igraph
Vertex
p1349
(dp1350
g14
F0.1875
sg8
I00
sg15
g16
sg17
F103.625
sg18
F146.625
sg19
I3948331
sg20
S'9992.57607713'
p1351
sg22
F0.6875
sbasg26
I00
sg27
I00
sg28
I3947453
sg20
S'9993.19176795'
p1352
sba(igraph
Edge
p1353
(dp1354
g7
I1
sg8
I00
sg9
I5
sg10
(lp1355
g1349
a(igraph
Vertex
p1356
(dp1357
g14
F0.25
sg8
I00
sg15
g16
sg17
F103.625
sg18
F104.5
sg19
I3948332
sg20
S'9992.57768627'
p1358
sg22
F0.6875
sbasg26
I00
sg27
I00
sg28
I3947454
sg20
S'9993.19604698'
p1359
sba(igraph
Edge
p1360
(dp1361
g7
I1
sg8
I00
sg9
I5
sg10
(lp1362
g1356
a(igraph
Vertex
p1363
(dp1364
g14
F0.3125
sg8
I00
sg15
g16
sg17
F103.625
sg18
F62.375
sg19
I3948333
sg20
S'9992.57930798'
p1365
sg22
F0.6875
sbasg26
I00
sg27
I00
sg28
I3947455
sg20
S'9993.20020226'
p1366
sba(igraph
Edge
p1367
(dp1368
g7
I1
sg8
I00
sg9
I5
sg10
(lp1369
g1363
a(igraph
Vertex
p1370
(dp1371
g14
F0.375
sg8
I00
sg15
I0
sg17
F103.625
sg18
F20.25
sg19
I3948334
sg20
S'9992.58098529'
p1372
sg22
F0.6875
sbasg26
I00
sg27
I00
sg28
I3947456
sg20
S'9993.20442766'
p1373
sba(igraph
Edge
p1374
(dp1375
g7
I1
sg8
I00
sg9
I5
sg10
(lp1376
g1370
a(igraph
Vertex
p1377
(dp1378
g14
F0.4375
sg8
I00
sg15
g16
sg17
F103.625
sg18
F-21.875
sg19
I3948336
sg20
S'9992.5826531'
p1379
sg22
F0.6875
sbasg26
I00
sg27
I00
sg28
I3947457
sg20
S'9993.20867876'
p1380
sba(igraph
Edge
p1381
(dp1382
g7
I1
sg8
I00
sg9
I5
sg10
(lp1383
g1377
a(igraph
Vertex
p1384
(dp1385
g14
F0.5
sg8
I00
sg15
g16
sg17
F103.625
sg18
F-64.0
sg19
I3948337
sg20
S'9992.58433265'
p1386
sg22
F0.6875
sbasg26
I00
sg27
I00
sg28
I3947458
sg20
S'9993.21291198'
p1387
sba(igraph
Edge
p1388
(dp1389
g7
I1
sg8
I00
sg9
I5
sg10
(lp1390
g1384
a(igraph
Vertex
p1391
(dp1392
g14
F0.5625
sg8
I00
sg15
g16
sg17
F103.625
sg18
F-106.125
sg19
I3948338
sg20
S'9992.58603426'
p1393
sg22
F0.6875
sbasg26
I00
sg27
I00
sg28
I3947459
sg20
S'9993.21715358'
p1394
sba(igraph
Edge
p1395
(dp1396
g7
I1
sg8
I00
sg9
I5
sg10
(lp1397
g1391
a(igraph
Vertex
p1398
(dp1399
g14
F0.625
sg8
I00
sg15
g16
sg17
F103.625
sg18
F-148.25
sg19
I3948339
sg20
S'9992.58771073'
p1400
sg22
F0.6875
sbasg26
I00
sg27
I00
sg28
I3947460
sg20
S'9993.22160777'
p1401
sba(igraph
Edge
p1402
(dp1403
g7
I1
sg8
I00
sg9
I5
sg10
(lp1404
g1398
a(igraph
Vertex
p1405
(dp1406
g14
F0.6875
sg8
I00
sg15
g16
sg17
F103.625
sg18
F-190.375
sg19
I3948340
sg20
S'9992.58939502'
p1407
sg22
F0.6875
sbasg26
I00
sg27
I00
sg28
I3947461
sg20
S'9993.22586865'
p1408
sba(igraph
Edge
p1409
(dp1410
g7
I1
sg8
I00
sg9
I5
sg10
(lp1411
g1405
a(igraph
Vertex
p1412
(dp1413
g14
F0.75
sg8
I00
sg15
g16
sg17
F103.625
sg18
F-232.5
sg19
I3948341
sg20
S'9992.59108741'
p1414
sg22
F0.6875
sbasg26
I00
sg27
I00
sg28
I3947462
sg20
S'9993.23014378'
p1415
sba(igraph
Edge
p1416
(dp1417
g7
I1
sg8
I00
sg9
I5
sg10
(lp1418
g1412
a(igraph
Vertex
p1419
(dp1420
g14
F0.8125
sg8
I00
sg15
g16
sg17
F103.625
sg18
F-274.625
sg19
I3948342
sg20
S'9992.59285077'
p1421
sg22
F0.6875
sbasg26
I00
sg27
I00
sg28
I3947463
sg20
S'9993.23467871'
p1422
sba(igraph
Edge
p1423
(dp1424
g7
I1
sg8
I00
sg9
I5
sg10
(lp1425
g1419
a(igraph
Vertex
p1426
(dp1427
g14
F0.875
sg8
I00
sg15
g16
sg17
F103.625
sg18
F-316.75
sg19
I3948343
sg20
S'9992.59460322'
p1428
sg22
F0.6875
sbasg26
I00
sg27
I00
sg28
I3947464
sg20
S'9993.23919325'
p1429
sba(igraph
Edge
p1430
(dp1431
g7
I1
sg8
I00
sg9
I5
sg10
(lp1432
g1426
a(igraph
Vertex
p1433
(dp1434
g14
F0.9375
sg8
I00
sg15
g16
sg17
F103.625
sg18
F-358.875
sg19
I3948344
sg20
S'9992.59638446'
p1435
sg22
F0.6875
sbasg26
I00
sg27
I00
sg28
I3947465
sg20
S'9993.24364018'
p1436
sba(igraph
Edge
p1437
(dp1438
g7
I1
sg8
I00
sg9
I5
sg10
(lp1439
g1433
a(igraph
Vertex
p1440
(dp1441
g14
F1.0
sg8
I00
sg15
g16
sg17
F103.625
sg18
F-401.0
sg19
I3948345
sg20
S'9992.59812127'
p1442
sg22
F0.6875
sbasg26
I00
sg27
I00
sg28
I3947466
sg20
S'9993.24802622'
p1443
sba(igraph
Edge
p1444
(dp1445
g7
I1
sg8
I00
sg9
I5
sg10
(lp1446
g1440
ag1332
asg26
I00
sg27
I00
sg28
I3947467
sg20
S'9993.25243795'
p1447
sba(igraph
Edge
p1448
(dp1449
g7
I1
sg8
I00
sg9
I5
sg10
(lp1450
(igraph
Vertex
p1451
(dp1452
g14
F0.0
sg8
I00
sg15
g16
sg17
F140.5
sg18
F273.0
sg19
I3948346
sg20
S'9992.59986227'
p1453
sg22
F0.75
sba(igraph
Vertex
p1454
(dp1455
g14
F0.0625
sg8
I00
sg15
g16
sg17
F140.5
sg18
F230.875
sg19
I3948347
sg20
S'9992.60166697'
p1456
sg22
F0.75
sbasg26
I00
sg27
I00
sg28
I3947468
sg20
S'9993.2569659'
p1457
sba(igraph
Edge
p1458
(dp1459
g7
I1
sg8
I00
sg9
I5
sg10
(lp1460
g1454
a(igraph
Vertex
p1461
(dp1462
g14
F0.125
sg8
I00
sg15
g16
sg17
F140.5
sg18
F188.75
sg19
I3948348
sg20
S'9992.60348257'
p1463
sg22
F0.75
sbasg26
I00
sg27
I00
sg28
I3947469
sg20
S'9993.26143714'
p1464
sba(igraph
Edge
p1465
(dp1466
g7
I1
sg8
I00
sg9
I5
sg10
(lp1467
g1461
a(igraph
Vertex
p1468
(dp1469
g14
F0.1875
sg8
I00
sg15
g16
sg17
F140.5
sg18
F146.625
sg19
I3948349
sg20
S'9992.60530794'
p1470
sg22
F0.75
sbasg26
I00
sg27
I00
sg28
I3947470
sg20
S'9993.26603214'
p1471
sba(igraph
Edge
p1472
(dp1473
g7
I1
sg8
I00
sg9
I5
sg10
(lp1474
g1468
a(igraph
Vertex
p1475
(dp1476
g14
F0.25
sg8
I00
sg15
g16
sg17
F140.5
sg18
F104.5
sg19
I3948350
sg20
S'9992.60708805'
p1477
sg22
F0.75
sbasg26
I00
sg27
I00
sg28
I3947471
sg20
S'9993.27064557'
p1478
sba(igraph
Edge
p1479
(dp1480
g7
I1
sg8
I00
sg9
I5
sg10
(lp1481
g1475
a(igraph
Vertex
p1482
(dp1483
g14
F0.3125
sg8
I00
sg15
g16
sg17
F140.5
sg18
F62.375
sg19
I3948351
sg20
S'9992.60914446'
p1484
sg22
F0.75
sbasg26
I00
sg27
I00
sg28
I3947472
sg20
S'9993.27516458'
p1485
sba(igraph
Edge
p1486
(dp1487
g7
I1
sg8
I00
sg9
I5
sg10
(lp1488
g1482
a(igraph
Vertex
p1489
(dp1490
g14
F0.375
sg8
I00
sg15
g16
sg17
F140.5
sg18
F20.25
sg19
I3948352
sg20
S'9992.61102235'
p1491
sg22
F0.75
sbasg26
I00
sg27
I00
sg28
I3947473
sg20
S'9993.27986602'
p1492
sba(igraph
Edge
p1493
(dp1494
g7
I1
sg8
I00
sg9
I5
sg10
(lp1495
g1489
a(igraph
Vertex
p1496
(dp1497
g14
F0.4375
sg8
I00
sg15
g16
sg17
F140.5
sg18
F-21.875
sg19
I3948353
sg20
S'9992.6129455'
p1498
sg22
F0.75
sbasg26
I00
sg27
I00
sg28
I3947474
sg20
S'9993.28455879'
p1499
sba(igraph
Edge
p1500
(dp1501
g7
I1
sg8
I00
sg9
I5
sg10
(lp1502
g1496
a(igraph
Vertex
p1503
(dp1504
g14
F0.5
sg8
I00
sg15
I0
sg17
F140.5
sg18
F-64.0
sg19
I3948354
sg20
S'9992.61478372'
p1505
sg22
F0.75
sbasg26
I00
sg27
I00
sg28
I3947475
sg20
S'9993.28919458'
p1506
sba(igraph
Edge
p1507
(dp1508
g7
I1
sg8
I00
sg9
I5
sg10
(lp1509
g1503
a(igraph
Vertex
p1510
(dp1511
g14
F0.5625
sg8
I00
sg15
g16
sg17
F140.5
sg18
F-106.125
sg19
I3948356
sg20
S'9992.61662362'
p1512
sg22
F0.75
sbasg26
I00
sg27
I00
sg28
I3947476
sg20
S'9993.29379293'
p1513
sba(igraph
Edge
p1514
(dp1515
g7
I1
sg8
I00
sg9
I5
sg10
(lp1516
g1510
a(igraph
Vertex
p1517
(dp1518
g14
F0.625
sg8
I00
sg15
g16
sg17
F140.5
sg18
F-148.25
sg19
I3948357
sg20
S'9992.61847302'
p1519
sg22
F0.75
sbasg26
I00
sg27
I00
sg28
I3947477
sg20
S'9993.2985223'
p1520
sba(igraph
Edge
p1521
(dp1522
g7
I1
sg8
I00
sg9
I5
sg10
(lp1523
g1517
a(igraph
Vertex
p1524
(dp1525
g14
F0.6875
sg8
I00
sg15
g16
sg17
F140.5
sg18
F-190.375
sg19
I3948358
sg20
S'9992.62037633'
p1526
sg22
F0.75
sbasg26
I00
sg27
I00
sg28
I3947478
sg20
S'9993.30330754'
p1527
sba(igraph
Edge
p1528
(dp1529
g7
I1
sg8
I00
sg9
I5
sg10
(lp1530
g1524
a(igraph
Vertex
p1531
(dp1532
g14
F0.75
sg8
I00
sg15
g16
sg17
F140.5
sg18
F-232.5
sg19
I3948359
sg20
S'9992.62226316'
p1533
sg22
F0.75
sbasg26
I00
sg27
I00
sg28
I3947479
sg20
S'9993.30802155'
p1534
sba(igraph
Edge
p1535
(dp1536
g7
I1
sg8
I00
sg9
I5
sg10
(lp1537
g1531
a(igraph
Vertex
p1538
(dp1539
g14
F0.8125
sg8
I00
sg15
g16
sg17
F140.5
sg18
F-274.625
sg19
I3948360
sg20
S'9992.62413463'
p1540
sg22
F0.75
sbasg26
I00
sg27
I00
sg28
I3947480
sg20
S'9993.31280763'
p1541
sba(igraph
Edge
p1542
(dp1543
g7
I1
sg8
I00
sg9
I5
sg10
(lp1544
g1538
a(igraph
Vertex
p1545
(dp1546
g14
F0.875
sg8
I00
sg15
I0
sg17
F140.5
sg18
F-316.75
sg19
I3948361
sg20
S'9992.62603096'
p1547
sg22
F0.75
sbasg26
I00
sg27
I00
sg28
I3947481
sg20
S'9993.31758841'
p1548
sba(igraph
Edge
p1549
(dp1550
g7
I1
sg8
I00
sg9
I5
sg10
(lp1551
g1545
a(igraph
Vertex
p1552
(dp1553
g14
F0.9375
sg8
I00
sg15
g16
sg17
F140.5
sg18
F-358.875
sg19
I3948363
sg20
S'9992.6279245'
p1554
sg22
F0.75
sbasg26
I00
sg27
I00
sg28
I3947482
sg20
S'9993.32233343'
p1555
sba(igraph
Edge
p1556
(dp1557
g7
I1
sg8
I00
sg9
I5
sg10
(lp1558
g1552
a(igraph
Vertex
p1559
(dp1560
g14
F1.0
sg8
I00
sg15
g16
sg17
F140.5
sg18
F-401.0
sg19
I3948364
sg20
S'9992.6298415'
p1561
sg22
F0.75
sbasg26
I00
sg27
I00
sg28
I3947483
sg20
S'9993.32719969'
p1562
sba(igraph
Edge
p1563
(dp1564
g7
I1
sg8
I00
sg9
I5
sg10
(lp1565
g1559
ag1451
asg26
I00
sg27
I00
sg28
I3947484
sg20
S'9993.33200952'
p1566
sba(igraph
Edge
p1567
(dp1568
g7
I1
sg8
I00
sg9
I5
sg10
(lp1569
(igraph
Vertex
p1570
(dp1571
g14
F0.0
sg8
I00
sg15
g16
sg17
F177.375
sg18
F273.0
sg19
I3948365
sg20
S'9992.63182276'
p1572
sg22
F0.8125
sba(igraph
Vertex
p1573
(dp1574
g14
F0.0625
sg8
I00
sg15
g16
sg17
F177.375
sg18
F230.875
sg19
I3948366
sg20
S'9992.63372859'
p1575
sg22
F0.8125
sbasg26
I00
sg27
I00
sg28
I3947485
sg20
S'9993.33683359'
p1576
sba(igraph
Edge
p1577
(dp1578
g7
I1
sg8
I00
sg9
I5
sg10
(lp1579
g1573
a(igraph
Vertex
p1580
(dp1581
g14
F0.125
sg8
I00
sg15
g16
sg17
F177.375
sg18
F188.75
sg19
I3948367
sg20
S'9992.63565705'
p1582
sg22
F0.8125
sbasg26
I00
sg27
I00
sg28
I3947486
sg20
S'9993.34172555'
p1583
sba(igraph
Edge
p1584
(dp1585
g7
I1
sg8
I00
sg9
I5
sg10
(lp1586
g1580
a(igraph
Vertex
p1587
(dp1588
g14
F0.1875
sg8
I00
sg15
g16
sg17
F177.375
sg18
F146.625
sg19
I3948368
sg20
S'9992.6375802'
p1589
sg22
F0.8125
sbasg26
I00
sg27
I00
sg28
I3947487
sg20
S'9993.34659545'
p1590
sba(igraph
Edge
p1591
(dp1592
g7
I1
sg8
I00
sg9
I5
sg10
(lp1593
g1587
a(igraph
Vertex
p1594
(dp1595
g14
F0.25
sg8
I00
sg15
g16
sg17
F177.375
sg18
F104.5
sg19
I3948369
sg20
S'9992.63951815'
p1596
sg22
F0.8125
sbasg26
I00
sg27
I00
sg28
I3947488
sg20
S'9993.35156815'
p1597
sba(igraph
Edge
p1598
(dp1599
g7
I1
sg8
I00
sg9
I5
sg10
(lp1600
g1594
a(igraph
Vertex
p1601
(dp1602
g14
F0.3125
sg8
I00
sg15
g16
sg17
F177.375
sg18
F62.375
sg19
I3948370
sg20
S'9992.64146281'
p1603
sg22
F0.8125
sbasg26
I00
sg27
I00
sg28
I3947489
sg20
S'9993.35698867'
p1604
sba(igraph
Edge
p1605
(dp1606
g7
I1
sg8
I00
sg9
I5
sg10
(lp1607
g1601
a(igraph
Vertex
p1608
(dp1609
g14
F0.375
sg8
I00
sg15
g16
sg17
F177.375
sg18
F20.25
sg19
I3948371
sg20
S'9992.64355973'
p1610
sg22
F0.8125
sbasg26
I00
sg27
I00
sg28
I3947490
sg20
S'9993.36203707'
p1611
sba(igraph
Edge
p1612
(dp1613
g7
I1
sg8
I00
sg9
I5
sg10
(lp1614
g1608
a(igraph
Vertex
p1615
(dp1616
g14
F0.4375
sg8
I00
sg15
g16
sg17
F177.375
sg18
F-21.875
sg19
I3948372
sg20
S'9992.64551863'
p1617
sg22
F0.8125
sbasg26
I00
sg27
I00
sg28
I3947491
sg20
S'9993.36706481'
p1618
sba(igraph
Edge
p1619
(dp1620
g7
I1
sg8
I00
sg9
I5
sg10
(lp1621
g1615
a(igraph
Vertex
p1622
(dp1623
g14
F0.5
sg8
I00
sg15
g16
sg17
F177.375
sg18
F-64.0
sg19
I3948373
sg20
S'9992.64751079'
p1624
sg22
F0.8125
sbasg26
I00
sg27
I00
sg28
I3947492
sg20
S'9993.37215009'
p1625
sba(igraph
Edge
p1626
(dp1627
g7
I1
sg8
I00
sg9
I5
sg10
(lp1628
g1622
a(igraph
Vertex
p1629
(dp1630
g14
F0.5625
sg8
I00
sg15
g16
sg17
F177.375
sg18
F-106.125
sg19
I3948374
sg20
S'9992.6495102'
p1631
sg22
F0.8125
sbasg26
I00
sg27
I00
sg28
I3947493
sg20
S'9993.37724292'
p1632
sba(igraph
Edge
p1633
(dp1634
g7
I1
sg8
I00
sg9
I5
sg10
(lp1635
g1629
a(igraph
Vertex
p1636
(dp1637
g14
F0.625
sg8
I00
sg15
I0
sg17
F177.375
sg18
F-148.25
sg19
I3948375
sg20
S'9992.65151074'
p1638
sg22
F0.8125
sbasg26
I00
sg27
I00
sg28
I3947494
sg20
S'9993.38237988'
p1639
sba(igraph
Edge
p1640
(dp1641
g7
I1
sg8
I00
sg9
I5
sg10
(lp1642
g1636
a(igraph
Vertex
p1643
(dp1644
g14
F0.6875
sg8
I00
sg15
g16
sg17
F177.375
sg18
F-190.375
sg19
I3948377
sg20
S'9992.65353083'
p1645
sg22
F0.8125
sbasg26
I00
sg27
I00
sg28
I3947495
sg20
S'9993.38749059'
p1646
sba(igraph
Edge
p1647
(dp1648
g7
I1
sg8
I00
sg9
I5
sg10
(lp1649
g1643
a(igraph
Vertex
p1650
(dp1651
g14
F0.75
sg8
I00
sg15
g16
sg17
F177.375
sg18
F-232.5
sg19
I3948378
sg20
S'9992.65555958'
p1652
sg22
F0.8125
sbasg26
I00
sg27
I00
sg28
I3947496
sg20
S'9993.39262951'
p1653
sba(igraph
Edge
p1654
(dp1655
g7
I1
sg8
I00
sg9
I5
sg10
(lp1656
g1650
a(igraph
Vertex
p1657
(dp1658
g14
F0.8125
sg8
I00
sg15
g16
sg17
F177.375
sg18
F-274.625
sg19
I3948379
sg20
S'9992.65763945'
p1659
sg22
F0.8125
sbasg26
I00
sg27
I00
sg28
I3947497
sg20
S'9993.39776089'
p1660
sba(igraph
Edge
p1661
(dp1662
g7
I1
sg8
I00
sg9
I5
sg10
(lp1663
g1657
a(igraph
Vertex
p1664
(dp1665
g14
F0.875
sg8
I00
sg15
g16
sg17
F177.375
sg18
F-316.75
sg19
I3948380
sg20
S'9992.65967071'
p1666
sg22
F0.8125
sbasg26
I00
sg27
I00
sg28
I3947498
sg20
S'9993.40291434'
p1667
sba(igraph
Edge
p1668
(dp1669
g7
I1
sg8
I00
sg9
I5
sg10
(lp1670
g1664
a(igraph
Vertex
p1671
(dp1672
g14
F0.9375
sg8
I00
sg15
g16
sg17
F177.375
sg18
F-358.875
sg19
I3948381
sg20
S'9992.66171315'
p1673
sg22
F0.8125
sbasg26
I00
sg27
I00
sg28
I3947499
sg20
S'9993.40811276'
p1674
sba(igraph
Edge
p1675
(dp1676
g7
I1
sg8
I00
sg9
I5
sg10
(lp1677
g1671
a(igraph
Vertex
p1678
(dp1679
g14
F1.0
sg8
I00
sg15
g16
sg17
F177.375
sg18
F-401.0
sg19
I3948382
sg20
S'9992.66376788'
p1680
sg22
F0.8125
sbasg26
I00
sg27
I00
sg28
I3947500
sg20
S'9993.41332879'
p1681
sba(igraph
Edge
p1682
(dp1683
g7
I1
sg8
I00
sg9
I5
sg10
(lp1684
g1678
ag1570
asg26
I00
sg27
I00
sg28
I3947501
sg20
S'9993.41862471'
p1685
sba(igraph
Edge
p1686
(dp1687
g7
I1
sg8
I00
sg9
I5
sg10
(lp1688
(igraph
Vertex
p1689
(dp1690
g14
F0.0
sg8
I00
sg15
g16
sg17
F214.25
sg18
F273.0
sg19
I3948383
sg20
S'9992.66583099'
p1691
sg22
F0.875
sba(igraph
Vertex
p1692
(dp1693
g14
F0.0625
sg8
I00
sg15
g16
sg17
F214.25
sg18
F230.875
sg19
I3948384
sg20
S'9992.6679293'
p1694
sg22
F0.875
sbasg26
I00
sg27
I00
sg28
I3947502
sg20
S'9993.42384716'
p1695
sba(igraph
Edge
p1696
(dp1697
g7
I1
sg8
I00
sg9
I5
sg10
(lp1698
g1692
a(igraph
Vertex
p1699
(dp1700
g14
F0.125
sg8
I00
sg15
g16
sg17
F214.25
sg18
F188.75
sg19
I3948385
sg20
S'9992.67012847'
p1701
sg22
F0.875
sbasg26
I00
sg27
I00
sg28
I3947503
sg20
S'9993.4290685'
p1702
sba(igraph
Edge
p1703
(dp1704
g7
I1
sg8
I00
sg9
I5
sg10
(lp1705
g1699
a(igraph
Vertex
p1706
(dp1707
g14
F0.1875
sg8
I00
sg15
g16
sg17
F214.25
sg18
F146.625
sg19
I3948386
sg20
S'9992.67357276'
p1708
sg22
F0.875
sbasg26
I00
sg27
I00
sg28
I3947504
sg20
S'9993.43432671'
p1709
sba(igraph
Edge
p1710
(dp1711
g7
I1
sg8
I00
sg9
I5
sg10
(lp1712
g1706
a(igraph
Vertex
p1713
(dp1714
g14
F0.25
sg8
I00
sg15
g16
sg17
F214.25
sg18
F104.5
sg19
I3948387
sg20
S'9992.67571353'
p1715
sg22
F0.875
sbasg26
I00
sg27
I00
sg28
I3947505
sg20
S'9993.44153014'
p1716
sba(igraph
Edge
p1717
(dp1718
g7
I1
sg8
I00
sg9
I5
sg10
(lp1719
g1713
a(igraph
Vertex
p1720
(dp1721
g14
F0.3125
sg8
I00
sg15
g16
sg17
F214.25
sg18
F62.375
sg19
I3948388
sg20
S'9992.67784816'
p1722
sg22
F0.875
sbasg26
I00
sg27
I00
sg28
I3947506
sg20
S'9993.44702274'
p1723
sba(igraph
Edge
p1724
(dp1725
g7
I1
sg8
I00
sg9
I5
sg10
(lp1726
g1720
a(igraph
Vertex
p1727
(dp1728
g14
F0.375
sg8
I00
sg15
g16
sg17
F214.25
sg18
F20.25
sg19
I3948389
sg20
S'9992.67998111'
p1729
sg22
F0.875
sbasg26
I00
sg27
I00
sg28
I3947507
sg20
S'9993.45244074'
p1730
sba(igraph
Edge
p1731
(dp1732
g7
I1
sg8
I00
sg9
I5
sg10
(lp1733
g1727
a(igraph
Vertex
p1734
(dp1735
g14
F0.4375
sg8
I00
sg15
g16
sg17
F214.25
sg18
F-21.875
sg19
I3948390
sg20
S'9992.68212608'
p1736
sg22
F0.875
sbasg26
I00
sg27
I00
sg28
I3947508
sg20
S'9993.45772354'
p1737
sba(igraph
Edge
p1738
(dp1739
g7
I1
sg8
I00
sg9
I5
sg10
(lp1740
g1734
a(igraph
Vertex
p1741
(dp1742
g14
F0.5
sg8
I00
sg15
g16
sg17
F214.25
sg18
F-64.0
sg19
I3948391
sg20
S'9992.68429284'
p1743
sg22
F0.875
sbasg26
I00
sg27
I00
sg28
I3947509
sg20
S'9993.46302226'
p1744
sba(igraph
Edge
p1745
(dp1746
g7
I1
sg8
I00
sg9
I5
sg10
(lp1747
g1741
a(igraph
Vertex
p1748
(dp1749
g14
F0.5625
sg8
I00
sg15
g16
sg17
F214.25
sg18
F-106.125
sg19
I3948392
sg20
S'9992.68654843'
p1750
sg22
F0.875
sbasg26
I00
sg27
I00
sg28
I3947510
sg20
S'9993.46844445'
p1751
sba(igraph
Edge
p1752
(dp1753
g7
I1
sg8
I00
sg9
I5
sg10
(lp1754
g1748
a(igraph
Vertex
p1755
(dp1756
g14
F0.625
sg8
I00
sg15
g16
sg17
F214.25
sg18
F-148.25
sg19
I3948393
sg20
S'9992.68884425'
p1757
sg22
F0.875
sbasg26
I00
sg27
I00
sg28
I3947511
sg20
S'9993.47387559'
p1758
sba(igraph
Edge
p1759
(dp1760
g7
I1
sg8
I00
sg9
I5
sg10
(lp1761
g1755
a(igraph
Vertex
p1762
(dp1763
g14
F0.6875
sg8
I00
sg15
g16
sg17
F214.25
sg18
F-190.375
sg19
I3948394
sg20
S'9992.69107722'
p1764
sg22
F0.875
sbasg26
I00
sg27
I00
sg28
I3947512
sg20
S'9993.47935338'
p1765
sba(igraph
Edge
p1766
(dp1767
g7
I1
sg8
I00
sg9
I5
sg10
(lp1768
g1762
a(igraph
Vertex
p1769
(dp1770
g14
F0.75
sg8
I00
sg15
I0
sg17
F214.25
sg18
F-232.5
sg19
I3948395
sg20
S'9992.6932775'
p1771
sg22
F0.875
sbasg26
I00
sg27
I00
sg28
I3947513
sg20
S'9993.48480044'
p1772
sba(igraph
Edge
p1773
(dp1774
g7
I1
sg8
I00
sg9
I5
sg10
(lp1775
g1769
a(igraph
Vertex
p1776
(dp1777
g14
F0.8125
sg8
I00
sg15
g16
sg17
F214.25
sg18
F-274.625
sg19
I3948397
sg20
S'9992.69548364'
p1778
sg22
F0.875
sbasg26
I00
sg27
I00
sg28
I3947514
sg20
S'9993.49039138'
p1779
sba(igraph
Edge
p1780
(dp1781
g7
I1
sg8
I00
sg9
I5
sg10
(lp1782
g1776
a(igraph
Vertex
p1783
(dp1784
g14
F0.875
sg8
I00
sg15
g16
sg17
F214.25
sg18
F-316.75
sg19
I3948398
sg20
S'9992.69770907'
p1785
sg22
F0.875
sbasg26
I00
sg27
I00
sg28
I3947515
sg20
S'9993.49607031'
p1786
sba(igraph
Edge
p1787
(dp1788
g7
I1
sg8
I00
sg9
I5
sg10
(lp1789
g1783
a(igraph
Vertex
p1790
(dp1791
g14
F0.9375
sg8
I00
sg15
I0
sg17
F214.25
sg18
F-358.875
sg19
I3948399
sg20
S'9992.69992499'
p1792
sg22
F0.875
sbasg26
I00
sg27
I00
sg28
I3947516
sg20
S'9993.50527595'
p1793
sba(igraph
Edge
p1794
(dp1795
g7
I1
sg8
I00
sg9
I5
sg10
(lp1796
g1790
a(igraph
Vertex
p1797
(dp1798
g14
F1.0
sg8
I00
sg15
g16
sg17
F214.25
sg18
F-401.0
sg19
I3948401
sg20
S'9992.70215209'
p1799
sg22
F0.875
sbasg26
I00
sg27
I00
sg28
I3947517
sg20
S'9993.51091633'
p1800
sba(igraph
Edge
p1801
(dp1802
g7
I1
sg8
I00
sg9
I5
sg10
(lp1803
g1797
ag1689
asg26
I00
sg27
I00
sg28
I3947518
sg20
S'9993.51651062'
p1804
sba(igraph
Edge
p1805
(dp1806
g7
I1
sg8
I00
sg9
I5
sg10
(lp1807
(igraph
Vertex
p1808
(dp1809
g14
F0.0
sg8
I00
sg15
g16
sg17
F251.125
sg18
F273.0
sg19
I3948402
sg20
S'9992.70452585'
p1810
sg22
F0.9375
sba(igraph
Vertex
p1811
(dp1812
g14
F0.0625
sg8
I00
sg15
g16
sg17
F251.125
sg18
F230.875
sg19
I3948403
sg20
S'9992.7068038'
p1813
sg22
F0.9375
sbasg26
I00
sg27
I00
sg28
I3947519
sg20
S'9993.52220603'
p1814
sba(igraph
Edge
p1815
(dp1816
g7
I1
sg8
I00
sg9
I5
sg10
(lp1817
g1811
a(igraph
Vertex
p1818
(dp1819
g14
F0.125
sg8
I00
sg15
g16
sg17
F251.125
sg18
F188.75
sg19
I3948404
sg20
S'9992.70906191'
p1820
sg22
F0.9375
sbasg26
I00
sg27
I00
sg28
I3947520
sg20
S'9993.52781233'
p1821
sba(igraph
Edge
p1822
(dp1823
g7
I1
sg8
I00
sg9
I5
sg10
(lp1824
g1818
a(igraph
Vertex
p1825
(dp1826
g14
F0.1875
sg8
I00
sg15
g16
sg17
F251.125
sg18
F146.625
sg19
I3948405
sg20
S'9992.71132225'
p1827
sg22
F0.9375
sbasg26
I00
sg27
I00
sg28
I3947521
sg20
S'9993.53345746'
p1828
sba(igraph
Edge
p1829
(dp1830
g7
I1
sg8
I00
sg9
I5
sg10
(lp1831
g1825
a(igraph
Vertex
p1832
(dp1833
g14
F0.25
sg8
I00
sg15
g16
sg17
F251.125
sg18
F104.5
sg19
I3948406
sg20
S'9992.71359321'
p1834
sg22
F0.9375
sbasg26
I00
sg27
I00
sg28
I3947522
sg20
S'9993.53916741'
p1835
sba(igraph
Edge
p1836
(dp1837
g7
I1
sg8
I00
sg9
I5
sg10
(lp1838
g1832
a(igraph
Vertex
p1839
(dp1840
g14
F0.3125
sg8
I00
sg15
g16
sg17
F251.125
sg18
F62.375
sg19
I3948407
sg20
S'9992.71599714'
p1841
sg22
F0.9375
sbasg26
I00
sg27
I00
sg28
I3947523
sg20
S'9993.54485333'
p1842
sba(igraph
Edge
p1843
(dp1844
g7
I1
sg8
I00
sg9
I5
sg10
(lp1845
g1839
a(igraph
Vertex
p1846
(dp1847
g14
F0.375
sg8
I00
sg15
g16
sg17
F251.125
sg18
F20.25
sg19
I3948408
sg20
S'9992.71830889'
p1848
sg22
F0.9375
sbasg26
I00
sg27
I00
sg28
I3947524
sg20
S'9993.5509569'
p1849
sba(igraph
Edge
p1850
(dp1851
g7
I1
sg8
I00
sg9
I5
sg10
(lp1852
g1846
a(igraph
Vertex
p1853
(dp1854
g14
F0.4375
sg8
I00
sg15
g16
sg17
F251.125
sg18
F-21.875
sg19
I3948409
sg20
S'9992.72064718'
p1855
sg22
F0.9375
sbasg26
I00
sg27
I00
sg28
I3947525
sg20
S'9993.55662382'
p1856
sba(igraph
Edge
p1857
(dp1858
g7
I1
sg8
I00
sg9
I5
sg10
(lp1859
g1853
a(igraph
Vertex
p1860
(dp1861
g14
F0.5
sg8
I00
sg15
g16
sg17
F251.125
sg18
F-64.0
sg19
I3948410
sg20
S'9992.72295948'
p1862
sg22
F0.9375
sbasg26
I00
sg27
I00
sg28
I3947526
sg20
S'9993.56232929'
p1863
sba(igraph
Edge
p1864
(dp1865
g7
I1
sg8
I00
sg9
I5
sg10
(lp1866
g1860
a(igraph
Vertex
p1867
(dp1868
g14
F0.5625
sg8
I00
sg15
g16
sg17
F251.125
sg18
F-106.125
sg19
I3948411
sg20
S'9992.72529805'
p1869
sg22
F0.9375
sbasg26
I00
sg27
I00
sg28
I3947527
sg20
S'9993.56803895'
p1870
sba(igraph
Edge
p1871
(dp1872
g7
I1
sg8
I00
sg9
I5
sg10
(lp1873
g1867
a(igraph
Vertex
p1874
(dp1875
g14
F0.625
sg8
I00
sg15
g16
sg17
F251.125
sg18
F-148.25
sg19
I3948412
sg20
S'9992.72761762'
p1876
sg22
F0.9375
sbasg26
I00
sg27
I00
sg28
I3947528
sg20
S'9993.57410146'
p1877
sba(igraph
Edge
p1878
(dp1879
g7
I1
sg8
I00
sg9
I5
sg10
(lp1880
g1874
a(igraph
Vertex
p1881
(dp1882
g14
F0.6875
sg8
I00
sg15
g16
sg17
F251.125
sg18
F-190.375
sg19
I3948413
sg20
S'9992.72996903'
p1883
sg22
F0.9375
sbasg26
I00
sg27
I00
sg28
I3947529
sg20
S'9993.57999019'
p1884
sba(igraph
Edge
p1885
(dp1886
g7
I1
sg8
I00
sg9
I5
sg10
(lp1887
g1881
a(igraph
Vertex
p1888
(dp1889
g14
F0.75
sg8
I00
sg15
g16
sg17
F251.125
sg18
F-232.5
sg19
I3948414
sg20
S'9992.73254981'
p1890
sg22
F0.9375
sbasg26
I00
sg27
I00
sg28
I3947530
sg20
S'9993.5858848'
p1891
sba(igraph
Edge
p1892
(dp1893
g7
I1
sg8
I00
sg9
I5
sg10
(lp1894
g1888
a(igraph
Vertex
p1895
(dp1896
g14
F0.8125
sg8
I00
sg15
g16
sg17
F251.125
sg18
F-274.625
sg19
I3948415
sg20
S'9992.73502861'
p1897
sg22
F0.9375
sbasg26
I00
sg27
I00
sg28
I3947531
sg20
S'9993.59174728'
p1898
sba(igraph
Edge
p1899
(dp1900
g7
I1
sg8
I00
sg9
I5
sg10
(lp1901
g1895
a(igraph
Vertex
p1902
(dp1903
g14
F0.875
sg8
I00
sg15
I0
sg17
F251.125
sg18
F-316.75
sg19
I3948416
sg20
S'9992.73749345'
p1904
sg22
F0.9375
sbasg26
I00
sg27
I00
sg28
I3947532
sg20
S'9993.59758154'
p1905
sba(igraph
Edge
p1906
(dp1907
g7
I1
sg8
I00
sg9
I5
sg10
(lp1908
g1902
a(igraph
Vertex
p1909
(dp1910
g14
F0.9375
sg8
I00
sg15
g16
sg17
F251.125
sg18
F-358.875
sg19
I3948418
sg20
S'9992.73985967'
p1911
sg22
F0.9375
sbasg26
I00
sg27
I00
sg28
I3947533
sg20
S'9993.60351302'
p1912
sba(igraph
Edge
p1913
(dp1914
g7
I1
sg8
I00
sg9
I5
sg10
(lp1915
g1909
a(igraph
Vertex
p1916
(dp1917
g14
F1.0
sg8
I00
sg15
g16
sg17
F251.125
sg18
F-401.0
sg19
I3948419
sg20
S'9992.74224517'
p1918
sg22
F0.9375
sbasg26
I00
sg27
I00
sg28
I3947534
sg20
S'9993.60954451'
p1919
sba(igraph
Edge
p1920
(dp1921
g7
I1
sg8
I00
sg9
I5
sg10
(lp1922
g1916
ag1808
asg26
I00
sg27
I00
sg28
I3947535
sg20
S'9993.61557349'
p1923
sba(igraph
Edge
p1924
(dp1925
g7
I1
sg8
I00
sg9
I5
sg10
(lp1926
(igraph
Vertex
p1927
(dp1928
g14
F0.0
sg8
I00
sg15
g16
sg17
F288.0
sg18
F273.0
sg19
I3948420
sg20
S'9992.74466587'
p1929
sg22
F1.0
sba(igraph
Vertex
p1930
(dp1931
g14
F0.0625
sg8
I00
sg15
g16
sg17
F288.0
sg18
F230.875
sg19
I3948421
sg20
S'9992.74707344'
p1932
sg22
F1.0
sbasg26
I00
sg27
I00
sg28
I3947536
sg20
S'9993.62154352'
p1933
sba(igraph
Edge
p1934
(dp1935
g7
I1
sg8
I00
sg9
I5
sg10
(lp1936
g1930
a(igraph
Vertex
p1937
(dp1938
g14
F0.125
sg8
I00
sg15
g16
sg17
F288.0
sg18
F188.75
sg19
I3948422
sg20
S'9992.74955141'
p1939
sg22
F1.0
sbasg26
I00
sg27
I00
sg28
I3947537
sg20
S'9993.62754596'
p1940
sba(igraph
Edge
p1941
(dp1942
g7
I1
sg8
I00
sg9
I5
sg10
(lp1943
g1937
a(igraph
Vertex
p1944
(dp1945
g14
F0.1875
sg8
I00
sg15
g16
sg17
F288.0
sg18
F146.625
sg19
I3948423
sg20
S'9992.75203552'
p1946
sg22
F1.0
sbasg26
I00
sg27
I00
sg28
I3947538
sg20
S'9993.63358583'
p1947
sba(igraph
Edge
p1948
(dp1949
g7
I1
sg8
I00
sg9
I5
sg10
(lp1950
g1944
a(igraph
Vertex
p1951
(dp1952
g14
F0.25
sg8
I00
sg15
g16
sg17
F288.0
sg18
F104.5
sg19
I3948424
sg20
S'9992.75447662'
p1953
sg22
F1.0
sbasg26
I00
sg27
I00
sg28
I3947539
sg20
S'9993.63963912'
p1954
sba(igraph
Edge
p1955
(dp1956
g7
I1
sg8
I00
sg9
I5
sg10
(lp1957
g1951
a(igraph
Vertex
p1958
(dp1959
g14
F0.3125
sg8
I00
sg15
g16
sg17
F288.0
sg18
F62.375
sg19
I3948425
sg20
S'9992.75692749'
p1960
sg22
F1.0
sbasg26
I00
sg27
I00
sg28
I3947540
sg20
S'9993.64585359'
p1961
sba(igraph
Edge
p1962
(dp1963
g7
I1
sg8
I00
sg9
I5
sg10
(lp1964
g1958
a(igraph
Vertex
p1965
(dp1966
g14
F0.375
sg8
I00
sg15
g16
sg17
F288.0
sg18
F20.25
sg19
I3948426
sg20
S'9992.75938534'
p1967
sg22
F1.0
sbasg26
I00
sg27
I00
sg28
I3947541
sg20
S'9993.65193314'
p1968
sba(igraph
Edge
p1969
(dp1970
g7
I1
sg8
I00
sg9
I5
sg10
(lp1971
g1965
a(igraph
Vertex
p1972
(dp1973
g14
F0.4375
sg8
I00
sg15
g16
sg17
F288.0
sg18
F-21.875
sg19
I3948427
sg20
S'9992.76186052'
p1974
sg22
F1.0
sbasg26
I00
sg27
I00
sg28
I3947542
sg20
S'9993.65812359'
p1975
sba(igraph
Edge
p1976
(dp1977
g7
I1
sg8
I00
sg9
I5
sg10
(lp1978
g1972
a(igraph
Vertex
p1979
(dp1980
g14
F0.5
sg8
I00
sg15
g16
sg17
F288.0
sg18
F-64.0
sg19
I3948428
sg20
S'9992.76445219'
p1981
sg22
F1.0
sbasg26
I00
sg27
I00
sg28
I3947543
sg20
S'9993.66425733'
p1982
sba(igraph
Edge
p1983
(dp1984
g7
I1
sg8
I00
sg9
I5
sg10
(lp1985
g1979
a(igraph
Vertex
p1986
(dp1987
g14
F0.5625
sg8
I00
sg15
g16
sg17
F288.0
sg18
F-106.125
sg19
I3948429
sg20
S'9992.76706984'
p1988
sg22
F1.0
sbasg26
I00
sg27
I00
sg28
I3947544
sg20
S'9993.67046007'
p1989
sba(igraph
Edge
p1990
(dp1991
g7
I1
sg8
I00
sg9
I5
sg10
(lp1992
g1986
a(igraph
Vertex
p1993
(dp1994
g14
F0.625
sg8
I00
sg15
g16
sg17
F288.0
sg18
F-148.25
sg19
I3948430
sg20
S'9992.76959669'
p1995
sg22
F1.0
sbasg26
I00
sg27
I00
sg28
I3947545
sg20
S'9993.67669718'
p1996
sba(igraph
Edge
p1997
(dp1998
g7
I1
sg8
I00
sg9
I5
sg10
(lp1999
g1993
a(igraph
Vertex
p2000
(dp2001
g14
F0.6875
sg8
I00
sg15
g16
sg17
F288.0
sg18
F-190.375
sg19
I3948431
sg20
S'9992.77224061'
p2002
sg22
F1.0
sbasg26
I00
sg27
I00
sg28
I3947546
sg20
S'9993.68287087'
p2003
sba(igraph
Edge
p2004
(dp2005
g7
I1
sg8
I00
sg9
I5
sg10
(lp2006
g2000
a(igraph
Vertex
p2007
(dp2008
g14
F0.75
sg8
I00
sg15
g16
sg17
F288.0
sg18
F-232.5
sg19
I3948432
sg20
S'9992.77482054'
p2009
sg22
F1.0
sbasg26
I00
sg27
I00
sg28
I3947547
sg20
S'9993.68905238'
p2010
sba(igraph
Edge
p2011
(dp2012
g7
I1
sg8
I00
sg9
I5
sg10
(lp2013
g2007
a(igraph
Vertex
p2014
(dp2015
g14
F0.8125
sg8
I00
sg15
g16
sg17
F288.0
sg18
F-274.625
sg19
I3948433
sg20
S'9992.77736724'
p2016
sg22
F1.0
sbasg26
I00
sg27
I00
sg28
I3947548
sg20
S'9993.69526015'
p2017
sba(igraph
Edge
p2018
(dp2019
g7
I1
sg8
I00
sg9
I5
sg10
(lp2020
g2014
a(igraph
Vertex
p2021
(dp2022
g14
F0.875
sg8
I00
sg15
g16
sg17
F288.0
sg18
F-316.75
sg19
I3948434
sg20
S'9992.78005221'
p2023
sg22
F1.0
sbasg26
I00
sg27
I00
sg28
I3947549
sg20
S'9993.70149139'
p2024
sba(igraph
Edge
p2025
(dp2026
g7
I1
sg8
I00
sg9
I5
sg10
(lp2027
g2021
a(igraph
Vertex
p2028
(dp2029
g14
F0.9375
sg8
I00
sg15
g16
sg17
F288.0
sg18
F-358.875
sg19
I3948435
sg20
S'9992.78262852'
p2030
sg22
F1.0
sbasg26
I00
sg27
I00
sg28
I3947550
sg20
S'9993.70781873'
p2031
sba(igraph
Edge
p2032
(dp2033
g7
I1
sg8
I00
sg9
I5
sg10
(lp2034
g2028
a(igraph
Vertex
p2035
(dp2036
g14
F1.0
sg8
I00
sg15
I0
sg17
F288.0
sg18
F-401.0
sg19
I3948436
sg20
S'9992.78532299'
p2037
sg22
F1.0
sbasg26
I00
sg27
I00
sg28
I3947551
sg20
S'9993.71421005'
p2038
sba(igraph
Edge
p2039
(dp2040
g7
I1
sg8
I00
sg9
I5
sg10
(lp2041
g2035
ag1927
asg26
I00
sg27
I00
sg28
I3947552
sg20
S'9993.72059466'
p2042
sba(igraph
Edge
p2043
(dp2044
g7
I1
sg8
I00
sg9
I5
sg10
(lp2045
g12
ag142
asg26
I00
sg27
I00
sg28
I3947553
sg20
S'9993.72695496'
p2046
sba(igraph
Edge
p2047
(dp2048
g7
I1
sg8
I00
sg9
I5
sg10
(lp2049
g23
ag152
asg26
I00
sg27
I00
sg28
I3947554
sg20
S'9993.73350803'
p2050
sba(igraph
Edge
p2051
(dp2052
g7
I1
sg8
I00
sg9
I5
sg10
(lp2053
g33
ag152
asg26
I00
sg27
I00
sg28
I3947555
sg20
S'9993.73988705'
p2054
sba(igraph
Edge
p2055
(dp2056
g7
I1
sg8
I00
sg9
I5
sg10
(lp2057
g40
ag166
asg26
I00
sg27
I00
sg28
I3947556
sg20
S'9993.74631552'
p2058
sba(igraph
Edge
p2059
(dp2060
g7
I1
sg8
I00
sg9
I5
sg10
(lp2061
g47
ag166
asg26
I00
sg27
I00
sg28
I3947557
sg20
S'9993.75267276'
p2062
sba(igraph
Edge
p2063
(dp2064
g7
I1
sg8
I00
sg9
I5
sg10
(lp2065
g54
ag180
asg26
I00
sg27
I00
sg28
I3947558
sg20
S'9993.75912609'
p2066
sba(igraph
Edge
p2067
(dp2068
g7
I1
sg8
I00
sg9
I5
sg10
(lp2069
g61
ag180
asg26
I00
sg27
I00
sg28
I3947559
sg20
S'9993.76553221'
p2070
sba(igraph
Edge
p2071
(dp2072
g7
I1
sg8
I00
sg9
I5
sg10
(lp2073
g68
ag194
asg26
I00
sg27
I00
sg28
I3947560
sg20
S'9993.77211042'
p2074
sba(igraph
Edge
p2075
(dp2076
g7
I1
sg8
I00
sg9
I5
sg10
(lp2077
g75
ag194
asg26
I00
sg27
I00
sg28
I3947561
sg20
S'9993.77868221'
p2078
sba(igraph
Edge
p2079
(dp2080
g7
I1
sg8
I00
sg9
I5
sg10
(lp2081
g82
ag208
asg26
I00
sg27
I00
sg28
I3947562
sg20
S'9993.78510341'
p2082
sba(igraph
Edge
p2083
(dp2084
g7
I1
sg8
I00
sg9
I5
sg10
(lp2085
g89
ag208
asg26
I00
sg27
I00
sg28
I3947563
sg20
S'9993.7915587'
p2086
sba(igraph
Edge
p2087
(dp2088
g7
I1
sg8
I00
sg9
I5
sg10
(lp2089
g96
ag222
asg26
I00
sg27
I00
sg28
I3947564
sg20
S'9993.79803634'
p2090
sba(igraph
Edge
p2091
(dp2092
g7
I1
sg8
I00
sg9
I5
sg10
(lp2093
g103
ag222
asg26
I00
sg27
I00
sg28
I3947565
sg20
S'9993.80459807'
p2094
sba(igraph
Edge
p2095
(dp2096
g7
I1
sg8
I00
sg9
I5
sg10
(lp2097
g110
ag236
asg26
I00
sg27
I00
sg28
I3947566
sg20
S'9993.81122713'
p2098
sba(igraph
Edge
p2099
(dp2100
g7
I1
sg8
I00
sg9
I5
sg10
(lp2101
g117
ag236
asg26
I00
sg27
I00
sg28
I3947567
sg20
S'9993.81794977'
p2102
sba(igraph
Edge
p2103
(dp2104
g7
I1
sg8
I00
sg9
I5
sg10
(lp2105
g124
ag250
asg26
I00
sg27
I00
sg28
I3947568
sg20
S'9993.82467213'
p2106
sba(igraph
Edge
p2107
(dp2108
g7
I1
sg8
I00
sg9
I5
sg10
(lp2109
g131
ag250
asg26
I00
sg27
I00
sg28
I3947569
sg20
S'9993.83151685'
p2110
sba(igraph
Edge
p2111
(dp2112
g7
I1
sg8
I00
sg9
I5
sg10
(lp2113
g12
ag145
asg26
I00
sg27
I00
sg28
I3947570
sg20
S'9993.83831884'
p2114
sba(igraph
Edge
p2115
(dp2116
g7
I1
sg8
I00
sg9
I5
sg10
(lp2117
g23
ag145
asg26
I00
sg27
I00
sg28
I3947571
sg20
S'9993.84513786'
p2118
sba(igraph
Edge
p2119
(dp2120
g7
I1
sg8
I00
sg9
I5
sg10
(lp2121
g33
ag159
asg26
I00
sg27
I00
sg28
I3947572
sg20
S'9993.8518876'
p2122
sba(igraph
Edge
p2123
(dp2124
g7
I1
sg8
I00
sg9
I5
sg10
(lp2125
g40
ag159
asg26
I00
sg27
I00
sg28
I3947573
sg20
S'9993.85867338'
p2126
sba(igraph
Edge
p2127
(dp2128
g7
I1
sg8
I00
sg9
I5
sg10
(lp2129
g47
ag173
asg26
I00
sg27
I00
sg28
I3947574
sg20
S'9993.86574383'
p2130
sba(igraph
Edge
p2131
(dp2132
g7
I1
sg8
I00
sg9
I5
sg10
(lp2133
g54
ag173
asg26
I00
sg27
I00
sg28
I3947575
sg20
S'9993.87261342'
p2134
sba(igraph
Edge
p2135
(dp2136
g7
I1
sg8
I00
sg9
I5
sg10
(lp2137
g61
ag187
asg26
I00
sg27
I00
sg28
I3947576
sg20
S'9993.87948161'
p2138
sba(igraph
Edge
p2139
(dp2140
g7
I1
sg8
I00
sg9
I5
sg10
(lp2141
g68
ag187
asg26
I00
sg27
I00
sg28
I3947577
sg20
S'9993.88630929'
p2142
sba(igraph
Edge
p2143
(dp2144
g7
I1
sg8
I00
sg9
I5
sg10
(lp2145
g75
ag201
asg26
I00
sg27
I00
sg28
I3947578
sg20
S'9993.89320961'
p2146
sba(igraph
Edge
p2147
(dp2148
g7
I1
sg8
I00
sg9
I5
sg10
(lp2149
g82
ag201
asg26
I00
sg27
I00
sg28
I3947579
sg20
S'9993.90009764'
p2150
sba(igraph
Edge
p2151
(dp2152
g7
I1
sg8
I00
sg9
I5
sg10
(lp2153
g89
ag215
asg26
I00
sg27
I00
sg28
I3947580
sg20
S'9993.90704489'
p2154
sba(igraph
Edge
p2155
(dp2156
g7
I1
sg8
I00
sg9
I5
sg10
(lp2157
g96
ag215
asg26
I00
sg27
I00
sg28
I3947581
sg20
S'9993.91412093'
p2158
sba(igraph
Edge
p2159
(dp2160
g7
I1
sg8
I00
sg9
I5
sg10
(lp2161
g103
ag229
asg26
I00
sg27
I00
sg28
I3947582
sg20
S'9993.92119445'
p2162
sba(igraph
Edge
p2163
(dp2164
g7
I1
sg8
I00
sg9
I5
sg10
(lp2165
g110
ag229
asg26
I00
sg27
I00
sg28
I3947583
sg20
S'9993.92826379'
p2166
sba(igraph
Edge
p2167
(dp2168
g7
I1
sg8
I00
sg9
I5
sg10
(lp2169
g117
ag243
asg26
I00
sg27
I00
sg28
I3947584
sg20
S'9993.93529345'
p2170
sba(igraph
Edge
p2171
(dp2172
g7
I1
sg8
I00
sg9
I5
sg10
(lp2173
g124
ag243
asg26
I00
sg27
I00
sg28
I3947585
sg20
S'9993.94238486'
p2174
sba(igraph
Edge
p2175
(dp2176
g7
I1
sg8
I00
sg9
I5
sg10
(lp2177
g131
ag142
asg26
I00
sg27
I00
sg28
I3947586
sg20
S'9993.94942178'
p2178
sba(igraph
Edge
p2179
(dp2180
g7
I1
sg8
I00
sg9
I5
sg10
(lp2181
g12
ag1927
asg26
I00
sg27
I00
sg28
I3947587
sg20
S'9993.95657772'
p2182
sba(igraph
Edge
p2183
(dp2184
g7
I1
sg8
I00
sg9
I5
sg10
(lp2185
g23
ag1927
asg26
I00
sg27
I00
sg28
I3947588
sg20
S'9993.96368589'
p2186
sba(igraph
Edge
p2187
(dp2188
g7
I1
sg8
I00
sg9
I5
sg10
(lp2189
g33
ag1937
asg26
I00
sg27
I00
sg28
I3947589
sg20
S'9993.97086557'
p2190
sba(igraph
Edge
p2191
(dp2192
g7
I1
sg8
I00
sg9
I5
sg10
(lp2193
g40
ag1937
asg26
I00
sg27
I00
sg28
I3947590
sg20
S'9993.9782207'
p2194
sba(igraph
Edge
p2195
(dp2196
g7
I1
sg8
I00
sg9
I5
sg10
(lp2197
g47
ag1951
asg26
I00
sg27
I00
sg28
I3947591
sg20
S'9993.98549592'
p2198
sba(igraph
Edge
p2199
(dp2200
g7
I1
sg8
I00
sg9
I5
sg10
(lp2201
g54
ag1951
asg26
I00
sg27
I00
sg28
I3947592
sg20
S'9993.99286055'
p2202
sba(igraph
Edge
p2203
(dp2204
g7
I1
sg8
I00
sg9
I5
sg10
(lp2205
g61
ag1965
asg26
I00
sg27
I00
sg28
I3947593
sg20
S'9993.99998156'
p2206
sba(igraph
Edge
p2207
(dp2208
g7
I1
sg8
I00
sg9
I5
sg10
(lp2209
g68
ag1965
asg26
I00
sg27
I00
sg28
I3947594
sg20
S'9994.00730177'
p2210
sba(igraph
Edge
p2211
(dp2212
g7
I1
sg8
I00
sg9
I5
sg10
(lp2213
g75
ag1979
asg26
I00
sg27
I00
sg28
I3947595
sg20
S'9994.01465885'
p2214
sba(igraph
Edge
p2215
(dp2216
g7
I1
sg8
I00
sg9
I5
sg10
(lp2217
g82
ag1979
asg26
I00
sg27
I00
sg28
I3947596
sg20
S'9994.02207767'
p2218
sba(igraph
Edge
p2219
(dp2220
g7
I1
sg8
I00
sg9
I5
sg10
(lp2221
g89
ag1993
asg26
I00
sg27
I00
sg28
I3947597
sg20
S'9994.02944257'
p2222
sba(igraph
Edge
p2223
(dp2224
g7
I1
sg8
I00
sg9
I5
sg10
(lp2225
g96
ag1993
asg26
I00
sg27
I00
sg28
I3947598
sg20
S'9994.03686698'
p2226
sba(igraph
Edge
p2227
(dp2228
g7
I1
sg8
I00
sg9
I5
sg10
(lp2229
g103
ag2007
asg26
I00
sg27
I00
sg28
I3947599
sg20
S'9994.04409331'
p2230
sba(igraph
Edge
p2231
(dp2232
g7
I1
sg8
I00
sg9
I5
sg10
(lp2233
g110
ag2007
asg26
I00
sg27
I00
sg28
I3947600
sg20
S'9994.05151074'
p2234
sba(igraph
Edge
p2235
(dp2236
g7
I1
sg8
I00
sg9
I5
sg10
(lp2237
g117
ag2021
asg26
I00
sg27
I00
sg28
I3947601
sg20
S'9994.05936509'
p2238
sba(igraph
Edge
p2239
(dp2240
g7
I1
sg8
I00
sg9
I5
sg10
(lp2241
g124
ag2021
asg26
I00
sg27
I00
sg28
I3947602
sg20
S'9994.06732196'
p2242
sba(igraph
Edge
p2243
(dp2244
g7
I1
sg8
I00
sg9
I5
sg10
(lp2245
g131
ag2035
asg26
I00
sg27
I00
sg28
I3947603
sg20
S'9994.07528862'
p2246
sba(igraph
Edge
p2247
(dp2248
g7
I1
sg8
I00
sg9
I5
sg10
(lp2249
g12
ag2035
asg26
I00
sg27
I00
sg28
I3947604
sg20
S'9994.0833497'
p2250
sba(igraph
Edge
p2251
(dp2252
g7
I1
sg8
I00
sg9
I5
sg10
(lp2253
g23
ag1930
asg26
I00
sg27
I00
sg28
I3947605
sg20
S'9994.09160829'
p2254
sba(igraph
Edge
p2255
(dp2256
g7
I1
sg8
I00
sg9
I5
sg10
(lp2257
g33
ag1930
asg26
I00
sg27
I00
sg28
I3947606
sg20
S'9994.09962663'
p2258
sba(igraph
Edge
p2259
(dp2260
g7
I1
sg8
I00
sg9
I5
sg10
(lp2261
g40
ag1944
asg26
I00
sg27
I00
sg28
I3947607
sg20
S'9994.10810005'
p2262
sba(igraph
Edge
p2263
(dp2264
g7
I1
sg8
I00
sg9
I5
sg10
(lp2265
g47
ag1944
asg26
I00
sg27
I00
sg28
I3947608
sg20
S'9994.11615638'
p2266
sba(igraph
Edge
p2267
(dp2268
g7
I1
sg8
I00
sg9
I5
sg10
(lp2269
g54
ag1958
asg26
I00
sg27
I00
sg28
I3947609
sg20
S'9994.12436134'
p2270
sba(igraph
Edge
p2271
(dp2272
g7
I1
sg8
I00
sg9
I5
sg10
(lp2273
g61
ag1958
asg26
I00
sg27
I00
sg28
I3947610
sg20
S'9994.13240342'
p2274
sba(igraph
Edge
p2275
(dp2276
g7
I1
sg8
I00
sg9
I5
sg10
(lp2277
g68
ag1972
asg26
I00
sg27
I00
sg28
I3947611
sg20
S'9994.14045361'
p2278
sba(igraph
Edge
p2279
(dp2280
g7
I1
sg8
I00
sg9
I5
sg10
(lp2281
g75
ag1972
asg26
I00
sg27
I00
sg28
I3947612
sg20
S'9994.14846161'
p2282
sba(igraph
Edge
p2283
(dp2284
g7
I1
sg8
I00
sg9
I5
sg10
(lp2285
g82
ag1986
asg26
I00
sg27
I00
sg28
I3947613
sg20
S'9994.15658806'
p2286
sba(igraph
Edge
p2287
(dp2288
g7
I1
sg8
I00
sg9
I5
sg10
(lp2289
g89
ag1986
asg26
I00
sg27
I00
sg28
I3947614
sg20
S'9994.16568335'
p2290
sba(igraph
Edge
p2291
(dp2292
g7
I1
sg8
I00
sg9
I5
sg10
(lp2293
g96
ag2000
asg26
I00
sg27
I00
sg28
I3947615
sg20
S'9994.17385506'
p2294
sba(igraph
Edge
p2295
(dp2296
g7
I1
sg8
I00
sg9
I5
sg10
(lp2297
g103
ag2000
asg26
I00
sg27
I00
sg28
I3947616
sg20
S'9994.18189546'
p2298
sba(igraph
Edge
p2299
(dp2300
g7
I1
sg8
I00
sg9
I5
sg10
(lp2301
g110
ag2014
asg26
I00
sg27
I00
sg28
I3947617
sg20
S'9994.19006745'
p2302
sba(igraph
Edge
p2303
(dp2304
g7
I1
sg8
I00
sg9
I5
sg10
(lp2305
g117
ag2014
asg26
I00
sg27
I00
sg28
I3947618
sg20
S'9994.19798047'
p2306
sba(igraph
Edge
p2307
(dp2308
g7
I1
sg8
I00
sg9
I5
sg10
(lp2309
g124
ag2028
asg26
I00
sg27
I00
sg28
I3947619
sg20
S'9994.20644747'
p2310
sba(igraph
Edge
p2311
(dp2312
g7
I1
sg8
I00
sg9
I5
sg10
(lp2313
g131
ag2028
asg26
I00
sg27
I00
sg28
I3947620
sg20
S'9994.21462057'
p2314
sba(igraph
Edge
p2315
(dp2316
g7
I1
sg8
I00
sg9
I5
sg10
(lp2317
g142
ag261
asg26
I00
sg27
I00
sg28
I3947621
sg20
S'9994.22314652'
p2318
sba(igraph
Edge
p2319
(dp2320
g7
I1
sg8
I00
sg9
I5
sg10
(lp2321
g145
ag271
asg26
I00
sg27
I00
sg28
I3947622
sg20
S'9994.23143277'
p2322
sba(igraph
Edge
p2323
(dp2324
g7
I1
sg8
I00
sg9
I5
sg10
(lp2325
g152
ag271
asg26
I00
sg27
I00
sg28
I3947623
sg20
S'9994.24026406'
p2326
sba(igraph
Edge
p2327
(dp2328
g7
I1
sg8
I00
sg9
I5
sg10
(lp2329
g159
ag285
asg26
I00
sg27
I00
sg28
I3947624
sg20
S'9994.24874586'
p2330
sba(igraph
Edge
p2331
(dp2332
g7
I1
sg8
I00
sg9
I5
sg10
(lp2333
g166
ag285
asg26
I00
sg27
I00
sg28
I3947625
sg20
S'9994.25756625'
p2334
sba(igraph
Edge
p2335
(dp2336
g7
I1
sg8
I00
sg9
I5
sg10
(lp2337
g173
ag299
asg26
I00
sg27
I00
sg28
I3947626
sg20
S'9994.26611287'
p2338
sba(igraph
Edge
p2339
(dp2340
g7
I1
sg8
I00
sg9
I5
sg10
(lp2341
g180
ag299
asg26
I00
sg27
I00
sg28
I3947627
sg20
S'9994.2750411'
p2342
sba(igraph
Edge
p2343
(dp2344
g7
I1
sg8
I00
sg9
I5
sg10
(lp2345
g187
ag313
asg26
I00
sg27
I00
sg28
I3947628
sg20
S'9994.28334691'
p2346
sba(igraph
Edge
p2347
(dp2348
g7
I1
sg8
I00
sg9
I5
sg10
(lp2349
g194
ag313
asg26
I00
sg27
I00
sg28
I3947629
sg20
S'9994.29177032'
p2350
sba(igraph
Edge
p2351
(dp2352
g7
I1
sg8
I00
sg9
I5
sg10
(lp2353
g201
ag327
asg26
I00
sg27
I00
sg28
I3947630
sg20
S'9994.30023229'
p2354
sba(igraph
Edge
p2355
(dp2356
g7
I1
sg8
I00
sg9
I5
sg10
(lp2357
g208
ag327
asg26
I00
sg27
I00
sg28
I3947631
sg20
S'9994.30858671'
p2358
sba(igraph
Edge
p2359
(dp2360
g7
I1
sg8
I00
sg9
I5
sg10
(lp2361
g215
ag341
asg26
I00
sg27
I00
sg28
I3947632
sg20
S'9994.31691542'
p2362
sba(igraph
Edge
p2363
(dp2364
g7
I1
sg8
I00
sg9
I5
sg10
(lp2365
g222
ag341
asg26
I00
sg27
I00
sg28
I3947633
sg20
S'9994.32522569'
p2366
sba(igraph
Edge
p2367
(dp2368
g7
I1
sg8
I00
sg9
I5
sg10
(lp2369
g229
ag355
asg26
I00
sg27
I00
sg28
I3947634
sg20
S'9994.33380527'
p2370
sba(igraph
Edge
p2371
(dp2372
g7
I1
sg8
I00
sg9
I5
sg10
(lp2373
g236
ag355
asg26
I00
sg27
I00
sg28
I3947635
sg20
S'9994.34308914'
p2374
sba(igraph
Edge
p2375
(dp2376
g7
I1
sg8
I00
sg9
I5
sg10
(lp2377
g243
ag369
asg26
I00
sg27
I00
sg28
I3947636
sg20
S'9994.352071'
p2378
sba(igraph
Edge
p2379
(dp2380
g7
I1
sg8
I00
sg9
I5
sg10
(lp2381
g250
ag369
asg26
I00
sg27
I00
sg28
I3947637
sg20
S'9994.36091151'
p2382
sba(igraph
Edge
p2383
(dp2384
g7
I1
sg8
I00
sg9
I5
sg10
(lp2385
g142
ag264
asg26
I00
sg27
I00
sg28
I3947638
sg20
S'9994.37169389'
p2386
sba(igraph
Edge
p2387
(dp2388
g7
I1
sg8
I00
sg9
I5
sg10
(lp2389
g145
ag264
asg26
I00
sg27
I00
sg28
I3947639
sg20
S'9994.38055367'
p2390
sba(igraph
Edge
p2391
(dp2392
g7
I1
sg8
I00
sg9
I5
sg10
(lp2393
g152
ag278
asg26
I00
sg27
I00
sg28
I3947640
sg20
S'9994.38929836'
p2394
sba(igraph
Edge
p2395
(dp2396
g7
I1
sg8
I00
sg9
I5
sg10
(lp2397
g159
ag278
asg26
I00
sg27
I00
sg28
I3947641
sg20
S'9994.39891942'
p2398
sba(igraph
Edge
p2399
(dp2400
g7
I1
sg8
I00
sg9
I5
sg10
(lp2401
g166
ag292
asg26
I00
sg27
I00
sg28
I3947642
sg20
S'9994.40752554'
p2402
sba(igraph
Edge
p2403
(dp2404
g7
I1
sg8
I00
sg9
I5
sg10
(lp2405
g173
ag292
asg26
I00
sg27
I00
sg28
I3947643
sg20
S'9994.41621575'
p2406
sba(igraph
Edge
p2407
(dp2408
g7
I1
sg8
I00
sg9
I5
sg10
(lp2409
g180
ag306
asg26
I00
sg27
I00
sg28
I3947644
sg20
S'9994.42481656'
p2410
sba(igraph
Edge
p2411
(dp2412
g7
I1
sg8
I00
sg9
I5
sg10
(lp2413
g187
ag306
asg26
I00
sg27
I00
sg28
I3947645
sg20
S'9994.43332519'
p2414
sba(igraph
Edge
p2415
(dp2416
g7
I1
sg8
I00
sg9
I5
sg10
(lp2417
g194
ag320
asg26
I00
sg27
I00
sg28
I3947646
sg20
S'9994.44184526'
p2418
sba(igraph
Edge
p2419
(dp2420
g7
I1
sg8
I00
sg9
I5
sg10
(lp2421
g201
ag320
asg26
I00
sg27
I00
sg28
I3947647
sg20
S'9994.45057403'
p2422
sba(igraph
Edge
p2423
(dp2424
g7
I1
sg8
I00
sg9
I5
sg10
(lp2425
g208
ag334
asg26
I00
sg27
I00
sg28
I3947648
sg20
S'9994.46012273'
p2426
sba(igraph
Edge
p2427
(dp2428
g7
I1
sg8
I00
sg9
I5
sg10
(lp2429
g215
ag334
asg26
I00
sg27
I00
sg28
I3947649
sg20
S'9994.46980133'
p2430
sba(igraph
Edge
p2431
(dp2432
g7
I1
sg8
I00
sg9
I5
sg10
(lp2433
g222
ag348
asg26
I00
sg27
I00
sg28
I3947650
sg20
S'9994.47873738'
p2434
sba(igraph
Edge
p2435
(dp2436
g7
I1
sg8
I00
sg9
I5
sg10
(lp2437
g229
ag348
asg26
I00
sg27
I00
sg28
I3947651
sg20
S'9994.4882411'
p2438
sba(igraph
Edge
p2439
(dp2440
g7
I1
sg8
I00
sg9
I5
sg10
(lp2441
g236
ag362
asg26
I00
sg27
I00
sg28
I3947652
sg20
S'9994.49753865'
p2442
sba(igraph
Edge
p2443
(dp2444
g7
I1
sg8
I00
sg9
I5
sg10
(lp2445
g243
ag362
asg26
I00
sg27
I00
sg28
I3947653
sg20
S'9994.51226287'
p2446
sba(igraph
Edge
p2447
(dp2448
g7
I1
sg8
I00
sg9
I5
sg10
(lp2449
g250
ag261
asg26
I00
sg27
I00
sg28
I3947654
sg20
S'9994.52181716'
p2450
sba(igraph
Edge
p2451
(dp2452
g7
I1
sg8
I00
sg9
I5
sg10
(lp2453
g261
ag380
asg26
I00
sg27
I00
sg28
I3947655
sg20
S'9994.53213942'
p2454
sba(igraph
Edge
p2455
(dp2456
g7
I1
sg8
I00
sg9
I5
sg10
(lp2457
g264
ag390
asg26
I00
sg27
I00
sg28
I3947656
sg20
S'9994.54203174'
p2458
sba(igraph
Edge
p2459
(dp2460
g7
I1
sg8
I00
sg9
I5
sg10
(lp2461
g271
ag390
asg26
I00
sg27
I00
sg28
I3947657
sg20
S'9994.55093203'
p2462
sba(igraph
Edge
p2463
(dp2464
g7
I1
sg8
I00
sg9
I5
sg10
(lp2465
g278
ag404
asg26
I00
sg27
I00
sg28
I3947658
sg20
S'9994.56043519'
p2466
sba(igraph
Edge
p2467
(dp2468
g7
I1
sg8
I00
sg9
I5
sg10
(lp2469
g285
ag404
asg26
I00
sg27
I00
sg28
I3947659
sg20
S'9994.56981488'
p2470
sba(igraph
Edge
p2471
(dp2472
g7
I1
sg8
I00
sg9
I5
sg10
(lp2473
g292
ag418
asg26
I00
sg27
I00
sg28
I3947660
sg20
S'9994.58046679'
p2474
sba(igraph
Edge
p2475
(dp2476
g7
I1
sg8
I00
sg9
I5
sg10
(lp2477
g299
ag418
asg26
I00
sg27
I00
sg28
I3947661
sg20
S'9994.59040074'
p2478
sba(igraph
Edge
p2479
(dp2480
g7
I1
sg8
I00
sg9
I5
sg10
(lp2481
g306
ag432
asg26
I00
sg27
I00
sg28
I3947662
sg20
S'9994.60017153'
p2482
sba(igraph
Edge
p2483
(dp2484
g7
I1
sg8
I00
sg9
I5
sg10
(lp2485
g313
ag432
asg26
I00
sg27
I00
sg28
I3947663
sg20
S'9994.61024907'
p2486
sba(igraph
Edge
p2487
(dp2488
g7
I1
sg8
I00
sg9
I5
sg10
(lp2489
g320
ag446
asg26
I00
sg27
I00
sg28
I3947664
sg20
S'9994.61979358'
p2490
sba(igraph
Edge
p2491
(dp2492
g7
I1
sg8
I00
sg9
I5
sg10
(lp2493
g327
ag446
asg26
I00
sg27
I00
sg28
I3947665
sg20
S'9994.62925344'
p2494
sba(igraph
Edge
p2495
(dp2496
g7
I1
sg8
I00
sg9
I5
sg10
(lp2497
g334
ag460
asg26
I00
sg27
I00
sg28
I3947666
sg20
S'9994.64197377'
p2498
sba(igraph
Edge
p2499
(dp2500
g7
I1
sg8
I00
sg9
I5
sg10
(lp2501
g341
ag460
asg26
I00
sg27
I00
sg28
I3947667
sg20
S'9994.65200577'
p2502
sba(igraph
Edge
p2503
(dp2504
g7
I1
sg8
I00
sg9
I5
sg10
(lp2505
g348
ag474
asg26
I00
sg27
I00
sg28
I3947668
sg20
S'9994.6616137'
p2506
sba(igraph
Edge
p2507
(dp2508
g7
I1
sg8
I00
sg9
I5
sg10
(lp2509
g355
ag474
asg26
I00
sg27
I00
sg28
I3947669
sg20
S'9994.67116687'
p2510
sba(igraph
Edge
p2511
(dp2512
g7
I1
sg8
I00
sg9
I5
sg10
(lp2513
g362
ag488
asg26
I00
sg27
I00
sg28
I3947670
sg20
S'9994.68049431'
p2514
sba(igraph
Edge
p2515
(dp2516
g7
I1
sg8
I00
sg9
I5
sg10
(lp2517
g369
ag488
asg26
I00
sg27
I00
sg28
I3947671
sg20
S'9994.68974772'
p2518
sba(igraph
Edge
p2519
(dp2520
g7
I1
sg8
I00
sg9
I5
sg10
(lp2521
g261
ag383
asg26
I00
sg27
I00
sg28
I3947672
sg20
S'9994.69893492'
p2522
sba(igraph
Edge
p2523
(dp2524
g7
I1
sg8
I00
sg9
I5
sg10
(lp2525
g264
ag383
asg26
I00
sg27
I00
sg28
I3947673
sg20
S'9994.70822856'
p2526
sba(igraph
Edge
p2527
(dp2528
g7
I1
sg8
I00
sg9
I5
sg10
(lp2529
g271
ag397
asg26
I00
sg27
I00
sg28
I3947674
sg20
S'9994.71798175'
p2530
sba(igraph
Edge
p2531
(dp2532
g7
I1
sg8
I00
sg9
I5
sg10
(lp2533
g278
ag397
asg26
I00
sg27
I00
sg28
I3947675
sg20
S'9994.7278819'
p2534
sba(igraph
Edge
p2535
(dp2536
g7
I1
sg8
I00
sg9
I5
sg10
(lp2537
g285
ag411
asg26
I00
sg27
I00
sg28
I3947676
sg20
S'9994.73782701'
p2538
sba(igraph
Edge
p2539
(dp2540
g7
I1
sg8
I00
sg9
I5
sg10
(lp2541
g292
ag411
asg26
I00
sg27
I00
sg28
I3947677
sg20
S'9994.74767743'
p2542
sba(igraph
Edge
p2543
(dp2544
g7
I1
sg8
I00
sg9
I5
sg10
(lp2545
g299
ag425
asg26
I00
sg27
I00
sg28
I3947678
sg20
S'9994.75977897'
p2546
sba(igraph
Edge
p2547
(dp2548
g7
I1
sg8
I00
sg9
I5
sg10
(lp2549
g306
ag425
asg26
I00
sg27
I00
sg28
I3947679
sg20
S'9994.77418108'
p2550
sba(igraph
Edge
p2551
(dp2552
g7
I1
sg8
I00
sg9
I5
sg10
(lp2553
g313
ag439
asg26
I00
sg27
I00
sg28
I3947680
sg20
S'9994.78415273'
p2554
sba(igraph
Edge
p2555
(dp2556
g7
I1
sg8
I00
sg9
I5
sg10
(lp2557
g320
ag439
asg26
I00
sg27
I00
sg28
I3947681
sg20
S'9994.79400399'
p2558
sba(igraph
Edge
p2559
(dp2560
g7
I1
sg8
I00
sg9
I5
sg10
(lp2561
g327
ag453
asg26
I00
sg27
I00
sg28
I3947682
sg20
S'9994.80372505'
p2562
sba(igraph
Edge
p2563
(dp2564
g7
I1
sg8
I00
sg9
I5
sg10
(lp2565
g334
ag453
asg26
I00
sg27
I00
sg28
I3947683
sg20
S'9994.81321146'
p2566
sba(igraph
Edge
p2567
(dp2568
g7
I1
sg8
I00
sg9
I5
sg10
(lp2569
g341
ag467
asg26
I00
sg27
I00
sg28
I3947684
sg20
S'9994.82269199'
p2570
sba(igraph
Edge
p2571
(dp2572
g7
I1
sg8
I00
sg9
I5
sg10
(lp2573
g348
ag467
asg26
I00
sg27
I00
sg28
I3947685
sg20
S'9994.83232925'
p2574
sba(igraph
Edge
p2575
(dp2576
g7
I1
sg8
I00
sg9
I5
sg10
(lp2577
g355
ag481
asg26
I00
sg27
I00
sg28
I3947686
sg20
S'9994.84237187'
p2578
sba(igraph
Edge
p2579
(dp2580
g7
I1
sg8
I00
sg9
I5
sg10
(lp2581
g362
ag481
asg26
I00
sg27
I00
sg28
I3947687
sg20
S'9994.85264859'
p2582
sba(igraph
Edge
p2583
(dp2584
g7
I1
sg8
I00
sg9
I5
sg10
(lp2585
g369
ag380
asg26
I00
sg27
I00
sg28
I3947688
sg20
S'9994.86335386'
p2586
sba(igraph
Edge
p2587
(dp2588
g7
I1
sg8
I00
sg9
I5
sg10
(lp2589
g380
ag499
asg26
I00
sg27
I00
sg28
I3947689
sg20
S'9994.8732649'
p2590
sba(igraph
Edge
p2591
(dp2592
g7
I1
sg8
I00
sg9
I5
sg10
(lp2593
g383
ag509
asg26
I00
sg27
I00
sg28
I3947690
sg20
S'9994.88339607'
p2594
sba(igraph
Edge
p2595
(dp2596
g7
I1
sg8
I00
sg9
I5
sg10
(lp2597
g390
ag509
asg26
I00
sg27
I00
sg28
I3947691
sg20
S'9994.89347026'
p2598
sba(igraph
Edge
p2599
(dp2600
g7
I1
sg8
I00
sg9
I5
sg10
(lp2601
g397
ag523
asg26
I00
sg27
I00
sg28
I3947692
sg20
S'9994.90431605'
p2602
sba(igraph
Edge
p2603
(dp2604
g7
I1
sg8
I00
sg9
I5
sg10
(lp2605
g404
ag523
asg26
I00
sg27
I00
sg28
I3947693
sg20
S'9994.91445505'
p2606
sba(igraph
Edge
p2607
(dp2608
g7
I1
sg8
I00
sg9
I5
sg10
(lp2609
g411
ag537
asg26
I00
sg27
I00
sg28
I3947694
sg20
S'9994.92454544'
p2610
sba(igraph
Edge
p2611
(dp2612
g7
I1
sg8
I00
sg9
I5
sg10
(lp2613
g418
ag537
asg26
I00
sg27
I00
sg28
I3947695
sg20
S'9994.93426818'
p2614
sba(igraph
Edge
p2615
(dp2616
g7
I1
sg8
I00
sg9
I5
sg10
(lp2617
g425
ag551
asg26
I00
sg27
I00
sg28
I3947696
sg20
S'9994.94422839'
p2618
sba(igraph
Edge
p2619
(dp2620
g7
I1
sg8
I00
sg9
I5
sg10
(lp2621
g432
ag551
asg26
I00
sg27
I00
sg28
I3947697
sg20
S'9994.95399974'
p2622
sba(igraph
Edge
p2623
(dp2624
g7
I1
sg8
I00
sg9
I5
sg10
(lp2625
g439
ag565
asg26
I00
sg27
I00
sg28
I3947698
sg20
S'9994.96369567'
p2626
sba(igraph
Edge
p2627
(dp2628
g7
I1
sg8
I00
sg9
I5
sg10
(lp2629
g446
ag565
asg26
I00
sg27
I00
sg28
I3947699
sg20
S'9994.97418499'
p2630
sba(igraph
Edge
p2631
(dp2632
g7
I1
sg8
I00
sg9
I5
sg10
(lp2633
g453
ag579
asg26
I00
sg27
I00
sg28
I3947700
sg20
S'9994.98504307'
p2634
sba(igraph
Edge
p2635
(dp2636
g7
I1
sg8
I00
sg9
I5
sg10
(lp2637
g460
ag579
asg26
I00
sg27
I00
sg28
I3947701
sg20
S'9994.99559385'
p2638
sba(igraph
Edge
p2639
(dp2640
g7
I1
sg8
I00
sg9
I5
sg10
(lp2641
g467
ag593
asg26
I00
sg27
I00
sg28
I3947702
sg20
S'9995.00581973'
p2642
sba(igraph
Edge
p2643
(dp2644
g7
I1
sg8
I00
sg9
I5
sg10
(lp2645
g474
ag593
asg26
I00
sg27
I00
sg28
I3947703
sg20
S'9995.01593108'
p2646
sba(igraph
Edge
p2647
(dp2648
g7
I1
sg8
I00
sg9
I5
sg10
(lp2649
g481
ag607
asg26
I00
sg27
I00
sg28
I3947704
sg20
S'9995.02611924'
p2650
sba(igraph
Edge
p2651
(dp2652
g7
I1
sg8
I00
sg9
I5
sg10
(lp2653
g488
ag607
asg26
I00
sg27
I00
sg28
I3947705
sg20
S'9995.03705667'
p2654
sba(igraph
Edge
p2655
(dp2656
g7
I1
sg8
I00
sg9
I5
sg10
(lp2657
g380
ag502
asg26
I00
sg27
I00
sg28
I3947706
sg20
S'9995.04739653'
p2658
sba(igraph
Edge
p2659
(dp2660
g7
I1
sg8
I00
sg9
I5
sg10
(lp2661
g383
ag502
asg26
I00
sg27
I00
sg28
I3947707
sg20
S'9995.05744892'
p2662
sba(igraph
Edge
p2663
(dp2664
g7
I1
sg8
I00
sg9
I5
sg10
(lp2665
g390
ag516
asg26
I00
sg27
I00
sg28
I3947708
sg20
S'9995.06740577'
p2666
sba(igraph
Edge
p2667
(dp2668
g7
I1
sg8
I00
sg9
I5
sg10
(lp2669
g397
ag516
asg26
I00
sg27
I00
sg28
I3947709
sg20
S'9995.07803897'
p2670
sba(igraph
Edge
p2671
(dp2672
g7
I1
sg8
I00
sg9
I5
sg10
(lp2673
g404
ag530
asg26
I00
sg27
I00
sg28
I3947710
sg20
S'9995.0882073'
p2674
sba(igraph
Edge
p2675
(dp2676
g7
I1
sg8
I00
sg9
I5
sg10
(lp2677
g411
ag530
asg26
I00
sg27
I00
sg28
I3947711
sg20
S'9995.09892039'
p2678
sba(igraph
Edge
p2679
(dp2680
g7
I1
sg8
I00
sg9
I5
sg10
(lp2681
g418
ag544
asg26
I00
sg27
I00
sg28
I3947712
sg20
S'9995.10970584'
p2682
sba(igraph
Edge
p2683
(dp2684
g7
I1
sg8
I00
sg9
I5
sg10
(lp2685
g425
ag544
asg26
I00
sg27
I00
sg28
I3947713
sg20
S'9995.12036614'
p2686
sba(igraph
Edge
p2687
(dp2688
g7
I1
sg8
I00
sg9
I5
sg10
(lp2689
g432
ag558
asg26
I00
sg27
I00
sg28
I3947714
sg20
S'9995.1309605'
p2690
sba(igraph
Edge
p2691
(dp2692
g7
I1
sg8
I00
sg9
I5
sg10
(lp2693
g439
ag558
asg26
I00
sg27
I00
sg28
I3947715
sg20
S'9995.14081846'
p2694
sba(igraph
Edge
p2695
(dp2696
g7
I1
sg8
I00
sg9
I5
sg10
(lp2697
g446
ag572
asg26
I00
sg27
I00
sg28
I3947716
sg20
S'9995.15078369'
p2698
sba(igraph
Edge
p2699
(dp2700
g7
I1
sg8
I00
sg9
I5
sg10
(lp2701
g453
ag572
asg26
I00
sg27
I00
sg28
I3947717
sg20
S'9995.16084055'
p2702
sba(igraph
Edge
p2703
(dp2704
g7
I1
sg8
I00
sg9
I5
sg10
(lp2705
g460
ag586
asg26
I00
sg27
I00
sg28
I3947718
sg20
S'9995.1708544'
p2706
sba(igraph
Edge
p2707
(dp2708
g7
I1
sg8
I00
sg9
I5
sg10
(lp2709
g467
ag586
asg26
I00
sg27
I00
sg28
I3947719
sg20
S'9995.18097579'
p2710
sba(igraph
Edge
p2711
(dp2712
g7
I1
sg8
I00
sg9
I5
sg10
(lp2713
g474
ag600
asg26
I00
sg27
I00
sg28
I3947720
sg20
S'9995.19111004'
p2714
sba(igraph
Edge
p2715
(dp2716
g7
I1
sg8
I00
sg9
I5
sg10
(lp2717
g481
ag600
asg26
I00
sg27
I00
sg28
I3947721
sg20
S'9995.20117892'
p2718
sba(igraph
Edge
p2719
(dp2720
g7
I1
sg8
I00
sg9
I5
sg10
(lp2721
g488
ag499
asg26
I00
sg27
I00
sg28
I3947722
sg20
S'9995.21151264'
p2722
sba(igraph
Edge
p2723
(dp2724
g7
I1
sg8
I00
sg9
I5
sg10
(lp2725
g499
ag618
asg26
I00
sg27
I00
sg28
I3947723
sg20
S'9995.22261991'
p2726
sba(igraph
Edge
p2727
(dp2728
g7
I1
sg8
I00
sg9
I5
sg10
(lp2729
g502
ag628
asg26
I00
sg27
I00
sg28
I3947724
sg20
S'9995.23367467'
p2730
sba(igraph
Edge
p2731
(dp2732
g7
I1
sg8
I00
sg9
I5
sg10
(lp2733
g509
ag628
asg26
I00
sg27
I00
sg28
I3947725
sg20
S'9995.24440732'
p2734
sba(igraph
Edge
p2735
(dp2736
g7
I1
sg8
I00
sg9
I5
sg10
(lp2737
g516
ag642
asg26
I00
sg27
I00
sg28
I3947726
sg20
S'9995.25516064'
p2738
sba(igraph
Edge
p2739
(dp2740
g7
I1
sg8
I00
sg9
I5
sg10
(lp2741
g523
ag642
asg26
I00
sg27
I00
sg28
I3947727
sg20
S'9995.26567734'
p2742
sba(igraph
Edge
p2743
(dp2744
g7
I1
sg8
I00
sg9
I5
sg10
(lp2745
g530
ag656
asg26
I00
sg27
I00
sg28
I3947728
sg20
S'9995.27600687'
p2746
sba(igraph
Edge
p2747
(dp2748
g7
I1
sg8
I00
sg9
I5
sg10
(lp2749
g537
ag656
asg26
I00
sg27
I00
sg28
I3947729
sg20
S'9995.28653474'
p2750
sba(igraph
Edge
p2751
(dp2752
g7
I1
sg8
I00
sg9
I5
sg10
(lp2753
g544
ag670
asg26
I00
sg27
I00
sg28
I3947730
sg20
S'9995.29702574'
p2754
sba(igraph
Edge
p2755
(dp2756
g7
I1
sg8
I00
sg9
I5
sg10
(lp2757
g551
ag670
asg26
I00
sg27
I00
sg28
I3947731
sg20
S'9995.31270036'
p2758
sba(igraph
Edge
p2759
(dp2760
g7
I1
sg8
I00
sg9
I5
sg10
(lp2761
g558
ag684
asg26
I00
sg27
I00
sg28
I3947732
sg20
S'9995.32313269'
p2762
sba(igraph
Edge
p2763
(dp2764
g7
I1
sg8
I00
sg9
I5
sg10
(lp2765
g565
ag684
asg26
I00
sg27
I00
sg28
I3947733
sg20
S'9995.33364715'
p2766
sba(igraph
Edge
p2767
(dp2768
g7
I1
sg8
I00
sg9
I5
sg10
(lp2769
g572
ag698
asg26
I00
sg27
I00
sg28
I3947734
sg20
S'9995.34401802'
p2770
sba(igraph
Edge
p2771
(dp2772
g7
I1
sg8
I00
sg9
I5
sg10
(lp2773
g579
ag698
asg26
I00
sg27
I00
sg28
I3947735
sg20
S'9995.35499428'
p2774
sba(igraph
Edge
p2775
(dp2776
g7
I1
sg8
I00
sg9
I5
sg10
(lp2777
g586
ag712
asg26
I00
sg27
I00
sg28
I3947736
sg20
S'9995.36580348'
p2778
sba(igraph
Edge
p2779
(dp2780
g7
I1
sg8
I00
sg9
I5
sg10
(lp2781
g593
ag712
asg26
I00
sg27
I00
sg28
I3947737
sg20
S'9995.37630565'
p2782
sba(igraph
Edge
p2783
(dp2784
g7
I1
sg8
I00
sg9
I5
sg10
(lp2785
g600
ag726
asg26
I00
sg27
I00
sg28
I3947738
sg20
S'9995.3867187'
p2786
sba(igraph
Edge
p2787
(dp2788
g7
I1
sg8
I00
sg9
I5
sg10
(lp2789
g607
ag726
asg26
I00
sg27
I00
sg28
I3947739
sg20
S'9995.39708902'
p2790
sba(igraph
Edge
p2791
(dp2792
g7
I1
sg8
I00
sg9
I5
sg10
(lp2793
g499
ag621
asg26
I00
sg27
I00
sg28
I3947740
sg20
S'9995.40762332'
p2794
sba(igraph
Edge
p2795
(dp2796
g7
I1
sg8
I00
sg9
I5
sg10
(lp2797
g502
ag621
asg26
I00
sg27
I00
sg28
I3947741
sg20
S'9995.41829953'
p2798
sba(igraph
Edge
p2799
(dp2800
g7
I1
sg8
I00
sg9
I5
sg10
(lp2801
g509
ag635
asg26
I00
sg27
I00
sg28
I3947742
sg20
S'9995.42879779'
p2802
sba(igraph
Edge
p2803
(dp2804
g7
I1
sg8
I00
sg9
I5
sg10
(lp2805
g516
ag635
asg26
I00
sg27
I00
sg28
I3947743
sg20
S'9995.43930555'
p2806
sba(igraph
Edge
p2807
(dp2808
g7
I1
sg8
I00
sg9
I5
sg10
(lp2809
g523
ag649
asg26
I00
sg27
I00
sg28
I3947744
sg20
S'9995.44983846'
p2810
sba(igraph
Edge
p2811
(dp2812
g7
I1
sg8
I00
sg9
I5
sg10
(lp2813
g530
ag649
asg26
I00
sg27
I00
sg28
I3947745
sg20
S'9995.46051467'
p2814
sba(igraph
Edge
p2815
(dp2816
g7
I1
sg8
I00
sg9
I5
sg10
(lp2817
g537
ag663
asg26
I00
sg27
I00
sg28
I3947746
sg20
S'9995.4711339'
p2818
sba(igraph
Edge
p2819
(dp2820
g7
I1
sg8
I00
sg9
I5
sg10
(lp2821
g544
ag663
asg26
I00
sg27
I00
sg28
I3947747
sg20
S'9995.48177073'
p2822
sba(igraph
Edge
p2823
(dp2824
g7
I1
sg8
I00
sg9
I5
sg10
(lp2825
g551
ag677
asg26
I00
sg27
I00
sg28
I3947748
sg20
S'9995.49253774'
p2826
sba(igraph
Edge
p2827
(dp2828
g7
I1
sg8
I00
sg9
I5
sg10
(lp2829
g558
ag677
asg26
I00
sg27
I00
sg28
I3947749
sg20
S'9995.50384337'
p2830
sba(igraph
Edge
p2831
(dp2832
g7
I1
sg8
I00
sg9
I5
sg10
(lp2833
g565
ag691
asg26
I00
sg27
I00
sg28
I3947750
sg20
S'9995.51462881'
p2834
sba(igraph
Edge
p2835
(dp2836
g7
I1
sg8
I00
sg9
I5
sg10
(lp2837
g572
ag691
asg26
I00
sg27
I00
sg28
I3947751
sg20
S'9995.52567407'
p2838
sba(igraph
Edge
p2839
(dp2840
g7
I1
sg8
I00
sg9
I5
sg10
(lp2841
g579
ag705
asg26
I00
sg27
I00
sg28
I3947752
sg20
S'9995.53642516'
p2842
sba(igraph
Edge
p2843
(dp2844
g7
I1
sg8
I00
sg9
I5
sg10
(lp2845
g586
ag705
asg26
I00
sg27
I00
sg28
I3947753
sg20
S'9995.54700947'
p2846
sba(igraph
Edge
p2847
(dp2848
g7
I1
sg8
I00
sg9
I5
sg10
(lp2849
g593
ag719
asg26
I00
sg27
I00
sg28
I3947754
sg20
S'9995.55778989'
p2850
sba(igraph
Edge
p2851
(dp2852
g7
I1
sg8
I00
sg9
I5
sg10
(lp2853
g600
ag719
asg26
I00
sg27
I00
sg28
I3947755
sg20
S'9995.56865356'
p2854
sba(igraph
Edge
p2855
(dp2856
g7
I1
sg8
I00
sg9
I5
sg10
(lp2857
g607
ag618
asg26
I00
sg27
I00
sg28
I3947756
sg20
S'9995.57944096'
p2858
sba(igraph
Edge
p2859
(dp2860
g7
I1
sg8
I00
sg9
I5
sg10
(lp2861
g618
ag737
asg26
I00
sg27
I00
sg28
I3947757
sg20
S'9995.59028005'
p2862
sba(igraph
Edge
p2863
(dp2864
g7
I1
sg8
I00
sg9
I5
sg10
(lp2865
g621
ag747
asg26
I00
sg27
I00
sg28
I3947758
sg20
S'9995.60110377'
p2866
sba(igraph
Edge
p2867
(dp2868
g7
I1
sg8
I00
sg9
I5
sg10
(lp2869
g628
ag747
asg26
I00
sg27
I00
sg28
I3947759
sg20
S'9995.61205768'
p2870
sba(igraph
Edge
p2871
(dp2872
g7
I1
sg8
I00
sg9
I5
sg10
(lp2873
g635
ag761
asg26
I00
sg27
I00
sg28
I3947760
sg20
S'9995.62287916'
p2874
sba(igraph
Edge
p2875
(dp2876
g7
I1
sg8
I00
sg9
I5
sg10
(lp2877
g642
ag761
asg26
I00
sg27
I00
sg28
I3947761
sg20
S'9995.63380905'
p2878
sba(igraph
Edge
p2879
(dp2880
g7
I1
sg8
I00
sg9
I5
sg10
(lp2881
g649
ag775
asg26
I00
sg27
I00
sg28
I3947762
sg20
S'9995.64472803'
p2882
sba(igraph
Edge
p2883
(dp2884
g7
I1
sg8
I00
sg9
I5
sg10
(lp2885
g656
ag775
asg26
I00
sg27
I00
sg28
I3947763
sg20
S'9995.65576351'
p2886
sba(igraph
Edge
p2887
(dp2888
g7
I1
sg8
I00
sg9
I5
sg10
(lp2889
g663
ag789
asg26
I00
sg27
I00
sg28
I3947764
sg20
S'9995.66670429'
p2890
sba(igraph
Edge
p2891
(dp2892
g7
I1
sg8
I00
sg9
I5
sg10
(lp2893
g670
ag789
asg26
I00
sg27
I00
sg28
I3947765
sg20
S'9995.67756405'
p2894
sba(igraph
Edge
p2895
(dp2896
g7
I1
sg8
I00
sg9
I5
sg10
(lp2897
g677
ag803
asg26
I00
sg27
I00
sg28
I3947766
sg20
S'9995.68859003'
p2898
sba(igraph
Edge
p2899
(dp2900
g7
I1
sg8
I00
sg9
I5
sg10
(lp2901
g684
ag803
asg26
I00
sg27
I00
sg28
I3947767
sg20
S'9995.6995445'
p2902
sba(igraph
Edge
p2903
(dp2904
g7
I1
sg8
I00
sg9
I5
sg10
(lp2905
g691
ag817
asg26
I00
sg27
I00
sg28
I3947768
sg20
S'9995.71054254'
p2906
sba(igraph
Edge
p2907
(dp2908
g7
I1
sg8
I00
sg9
I5
sg10
(lp2909
g698
ag817
asg26
I00
sg27
I00
sg28
I3947769
sg20
S'9995.7215445'
p2910
sba(igraph
Edge
p2911
(dp2912
g7
I1
sg8
I00
sg9
I5
sg10
(lp2913
g705
ag831
asg26
I00
sg27
I00
sg28
I3947770
sg20
S'9995.732516'
p2914
sba(igraph
Edge
p2915
(dp2916
g7
I1
sg8
I00
sg9
I5
sg10
(lp2917
g712
ag831
asg26
I00
sg27
I00
sg28
I3947771
sg20
S'9995.74375319'
p2918
sba(igraph
Edge
p2919
(dp2920
g7
I1
sg8
I00
sg9
I5
sg10
(lp2921
g719
ag845
asg26
I00
sg27
I00
sg28
I3947772
sg20
S'9995.75511022'
p2922
sba(igraph
Edge
p2923
(dp2924
g7
I1
sg8
I00
sg9
I5
sg10
(lp2925
g726
ag845
asg26
I00
sg27
I00
sg28
I3947773
sg20
S'9995.7662594'
p2926
sba(igraph
Edge
p2927
(dp2928
g7
I1
sg8
I00
sg9
I5
sg10
(lp2929
g618
ag740
asg26
I00
sg27
I00
sg28
I3947774
sg20
S'9995.77747228'
p2930
sba(igraph
Edge
p2931
(dp2932
g7
I1
sg8
I00
sg9
I5
sg10
(lp2933
g621
ag740
asg26
I00
sg27
I00
sg28
I3947775
sg20
S'9995.78864856'
p2934
sba(igraph
Edge
p2935
(dp2936
g7
I1
sg8
I00
sg9
I5
sg10
(lp2937
g628
ag754
asg26
I00
sg27
I00
sg28
I3947776
sg20
S'9995.7999715'
p2938
sba(igraph
Edge
p2939
(dp2940
g7
I1
sg8
I00
sg9
I5
sg10
(lp2941
g635
ag754
asg26
I00
sg27
I00
sg28
I3947777
sg20
S'9995.81150481'
p2942
sba(igraph
Edge
p2943
(dp2944
g7
I1
sg8
I00
sg9
I5
sg10
(lp2945
g642
ag768
asg26
I00
sg27
I00
sg28
I3947778
sg20
S'9995.82278362'
p2946
sba(igraph
Edge
p2947
(dp2948
g7
I1
sg8
I00
sg9
I5
sg10
(lp2949
g649
ag768
asg26
I00
sg27
I00
sg28
I3947779
sg20
S'9995.83418675'
p2950
sba(igraph
Edge
p2951
(dp2952
g7
I1
sg8
I00
sg9
I5
sg10
(lp2953
g656
ag782
asg26
I00
sg27
I00
sg28
I3947780
sg20
S'9995.84558429'
p2954
sba(igraph
Edge
p2955
(dp2956
g7
I1
sg8
I00
sg9
I5
sg10
(lp2957
g663
ag782
asg26
I00
sg27
I00
sg28
I3947781
sg20
S'9995.85675582'
p2958
sba(igraph
Edge
p2959
(dp2960
g7
I1
sg8
I00
sg9
I5
sg10
(lp2961
g670
ag796
asg26
I00
sg27
I00
sg28
I3947782
sg20
S'9995.86822012'
p2962
sba(igraph
Edge
p2963
(dp2964
g7
I1
sg8
I00
sg9
I5
sg10
(lp2965
g677
ag796
asg26
I00
sg27
I00
sg28
I3947783
sg20
S'9995.87970231'
p2966
sba(igraph
Edge
p2967
(dp2968
g7
I1
sg8
I00
sg9
I5
sg10
(lp2969
g684
ag810
asg26
I00
sg27
I00
sg28
I3947784
sg20
S'9995.89108029'
p2970
sba(igraph
Edge
p2971
(dp2972
g7
I1
sg8
I00
sg9
I5
sg10
(lp2973
g691
ag810
asg26
I00
sg27
I00
sg28
I3947785
sg20
S'9995.90246833'
p2974
sba(igraph
Edge
p2975
(dp2976
g7
I1
sg8
I00
sg9
I5
sg10
(lp2977
g698
ag824
asg26
I00
sg27
I00
sg28
I3947786
sg20
S'9995.91390274'
p2978
sba(igraph
Edge
p2979
(dp2980
g7
I1
sg8
I00
sg9
I5
sg10
(lp2981
g705
ag824
asg26
I00
sg27
I00
sg28
I3947787
sg20
S'9995.92560982'
p2982
sba(igraph
Edge
p2983
(dp2984
g7
I1
sg8
I00
sg9
I5
sg10
(lp2985
g712
ag838
asg26
I00
sg27
I00
sg28
I3947788
sg20
S'9995.9374658'
p2986
sba(igraph
Edge
p2987
(dp2988
g7
I1
sg8
I00
sg9
I5
sg10
(lp2989
g719
ag838
asg26
I00
sg27
I00
sg28
I3947789
sg20
S'9995.94891166'
p2990
sba(igraph
Edge
p2991
(dp2992
g7
I1
sg8
I00
sg9
I5
sg10
(lp2993
g726
ag737
asg26
I00
sg27
I00
sg28
I3947790
sg20
S'9995.96054806'
p2994
sba(igraph
Edge
p2995
(dp2996
g7
I1
sg8
I00
sg9
I5
sg10
(lp2997
g737
ag856
asg26
I00
sg27
I00
sg28
I3947791
sg20
S'9995.972085'
p2998
sba(igraph
Edge
p2999
(dp3000
g7
I1
sg8
I00
sg9
I5
sg10
(lp3001
g740
ag866
asg26
I00
sg27
I00
sg28
I3947792
sg20
S'9995.98340292'
p3002
sba(igraph
Edge
p3003
(dp3004
g7
I1
sg8
I00
sg9
I5
sg10
(lp3005
g747
ag866
asg26
I00
sg27
I00
sg28
I3947793
sg20
S'9995.99483202'
p3006
sba(igraph
Edge
p3007
(dp3008
g7
I1
sg8
I00
sg9
I5
sg10
(lp3009
g754
ag880
asg26
I00
sg27
I00
sg28
I3947794
sg20
S'9996.00669135'
p3010
sba(igraph
Edge
p3011
(dp3012
g7
I1
sg8
I00
sg9
I5
sg10
(lp3013
g761
ag880
asg26
I00
sg27
I00
sg28
I3947795
sg20
S'9996.01839284'
p3014
sba(igraph
Edge
p3015
(dp3016
g7
I1
sg8
I00
sg9
I5
sg10
(lp3017
g768
ag894
asg26
I00
sg27
I00
sg28
I3947796
sg20
S'9996.0301136'
p3018
sba(igraph
Edge
p3019
(dp3020
g7
I1
sg8
I00
sg9
I5
sg10
(lp3021
g775
ag894
asg26
I00
sg27
I00
sg28
I3947797
sg20
S'9996.04185029'
p3022
sba(igraph
Edge
p3023
(dp3024
g7
I1
sg8
I00
sg9
I5
sg10
(lp3025
g782
ag908
asg26
I00
sg27
I00
sg28
I3947798
sg20
S'9996.05360961'
p3026
sba(igraph
Edge
p3027
(dp3028
g7
I1
sg8
I00
sg9
I5
sg10
(lp3029
g789
ag908
asg26
I00
sg27
I00
sg28
I3947799
sg20
S'9996.06551112'
p3030
sba(igraph
Edge
p3031
(dp3032
g7
I1
sg8
I00
sg9
I5
sg10
(lp3033
g796
ag922
asg26
I00
sg27
I00
sg28
I3947800
sg20
S'9996.07724054'
p3034
sba(igraph
Edge
p3035
(dp3036
g7
I1
sg8
I00
sg9
I5
sg10
(lp3037
g803
ag922
asg26
I00
sg27
I00
sg28
I3947801
sg20
S'9996.08902724'
p3038
sba(igraph
Edge
p3039
(dp3040
g7
I1
sg8
I00
sg9
I5
sg10
(lp3041
g810
ag936
asg26
I00
sg27
I00
sg28
I3947802
sg20
S'9996.10079326'
p3042
sba(igraph
Edge
p3043
(dp3044
g7
I1
sg8
I00
sg9
I5
sg10
(lp3045
g817
ag936
asg26
I00
sg27
I00
sg28
I3947803
sg20
S'9996.11253805'
p3046
sba(igraph
Edge
p3047
(dp3048
g7
I1
sg8
I00
sg9
I5
sg10
(lp3049
g824
ag950
asg26
I00
sg27
I00
sg28
I3947804
sg20
S'9996.12456583'
p3050
sba(igraph
Edge
p3051
(dp3052
g7
I1
sg8
I00
sg9
I5
sg10
(lp3053
g831
ag950
asg26
I00
sg27
I00
sg28
I3947805
sg20
S'9996.1367048'
p3054
sba(igraph
Edge
p3055
(dp3056
g7
I1
sg8
I00
sg9
I5
sg10
(lp3057
g838
ag964
asg26
I00
sg27
I00
sg28
I3947806
sg20
S'9996.14870661'
p3058
sba(igraph
Edge
p3059
(dp3060
g7
I1
sg8
I00
sg9
I5
sg10
(lp3061
g845
ag964
asg26
I00
sg27
I00
sg28
I3947807
sg20
S'9996.16054806'
p3062
sba(igraph
Edge
p3063
(dp3064
g7
I1
sg8
I00
sg9
I5
sg10
(lp3065
g737
ag859
asg26
I00
sg27
I00
sg28
I3947808
sg20
S'9996.17262138'
p3066
sba(igraph
Edge
p3067
(dp3068
g7
I1
sg8
I00
sg9
I5
sg10
(lp3069
g740
ag859
asg26
I00
sg27
I00
sg28
I3947809
sg20
S'9996.18492797'
p3070
sba(igraph
Edge
p3071
(dp3072
g7
I1
sg8
I00
sg9
I5
sg10
(lp3073
g747
ag873
asg26
I00
sg27
I00
sg28
I3947810
sg20
S'9996.19692251'
p3074
sba(igraph
Edge
p3075
(dp3076
g7
I1
sg8
I00
sg9
I5
sg10
(lp3077
g754
ag873
asg26
I00
sg27
I00
sg28
I3947811
sg20
S'9996.2090654'
p3078
sba(igraph
Edge
p3079
(dp3080
g7
I1
sg8
I00
sg9
I5
sg10
(lp3081
g761
ag887
asg26
I00
sg27
I00
sg28
I3947812
sg20
S'9996.22119683'
p3082
sba(igraph
Edge
p3083
(dp3084
g7
I1
sg8
I00
sg9
I5
sg10
(lp3085
g768
ag887
asg26
I00
sg27
I00
sg28
I3947813
sg20
S'9996.23322741'
p3086
sba(igraph
Edge
p3087
(dp3088
g7
I1
sg8
I00
sg9
I5
sg10
(lp3089
g775
ag901
asg26
I00
sg27
I00
sg28
I3947814
sg20
S'9996.24534906'
p3090
sba(igraph
Edge
p3091
(dp3092
g7
I1
sg8
I00
sg9
I5
sg10
(lp3093
g782
ag901
asg26
I00
sg27
I00
sg28
I3947815
sg20
S'9996.25805486'
p3094
sba(igraph
Edge
p3095
(dp3096
g7
I1
sg8
I00
sg9
I5
sg10
(lp3097
g789
ag915
asg26
I00
sg27
I00
sg28
I3947816
sg20
S'9996.27056036'
p3098
sba(igraph
Edge
p3099
(dp3100
g7
I1
sg8
I00
sg9
I5
sg10
(lp3101
g796
ag915
asg26
I00
sg27
I00
sg28
I3947817
sg20
S'9996.28287757'
p3102
sba(igraph
Edge
p3103
(dp3104
g7
I1
sg8
I00
sg9
I5
sg10
(lp3105
g803
ag929
asg26
I00
sg27
I00
sg28
I3947818
sg20
S'9996.29515818'
p3106
sba(igraph
Edge
p3107
(dp3108
g7
I1
sg8
I00
sg9
I5
sg10
(lp3109
g810
ag929
asg26
I00
sg27
I00
sg28
I3947819
sg20
S'9996.30747288'
p3110
sba(igraph
Edge
p3111
(dp3112
g7
I1
sg8
I00
sg9
I5
sg10
(lp3113
g817
ag943
asg26
I00
sg27
I00
sg28
I3947820
sg20
S'9996.31971829'
p3114
sba(igraph
Edge
p3115
(dp3116
g7
I1
sg8
I00
sg9
I5
sg10
(lp3117
g824
ag943
asg26
I00
sg27
I00
sg28
I3947821
sg20
S'9996.33187682'
p3118
sba(igraph
Edge
p3119
(dp3120
g7
I1
sg8
I00
sg9
I5
sg10
(lp3121
g831
ag957
asg26
I00
sg27
I00
sg28
I3947822
sg20
S'9996.34423705'
p3122
sba(igraph
Edge
p3123
(dp3124
g7
I1
sg8
I00
sg9
I5
sg10
(lp3125
g838
ag957
asg26
I00
sg27
I00
sg28
I3947823
sg20
S'9996.35677831'
p3126
sba(igraph
Edge
p3127
(dp3128
g7
I1
sg8
I00
sg9
I5
sg10
(lp3129
g845
ag856
asg26
I00
sg27
I00
sg28
I3947824
sg20
S'9996.36973358'
p3130
sba(igraph
Edge
p3131
(dp3132
g7
I1
sg8
I00
sg9
I5
sg10
(lp3133
g856
ag975
asg26
I00
sg27
I00
sg28
I3947825
sg20
S'9996.38207761'
p3134
sba(igraph
Edge
p3135
(dp3136
g7
I1
sg8
I00
sg9
I5
sg10
(lp3137
g859
ag985
asg26
I00
sg27
I00
sg28
I3947826
sg20
S'9996.39437862'
p3138
sba(igraph
Edge
p3139
(dp3140
g7
I1
sg8
I00
sg9
I5
sg10
(lp3141
g866
ag985
asg26
I00
sg27
I00
sg28
I3947827
sg20
S'9996.40674052'
p3142
sba(igraph
Edge
p3143
(dp3144
g7
I1
sg8
I00
sg9
I5
sg10
(lp3145
g873
ag999
asg26
I00
sg27
I00
sg28
I3947828
sg20
S'9996.41918484'
p3146
sba(igraph
Edge
p3147
(dp3148
g7
I1
sg8
I00
sg9
I5
sg10
(lp3149
g880
ag999
asg26
I00
sg27
I00
sg28
I3947829
sg20
S'9996.43151266'
p3150
sba(igraph
Edge
p3151
(dp3152
g7
I1
sg8
I00
sg9
I5
sg10
(lp3153
g887
ag1013
asg26
I00
sg27
I00
sg28
I3947830
sg20
S'9996.44394776'
p3154
sba(igraph
Edge
p3155
(dp3156
g7
I1
sg8
I00
sg9
I5
sg10
(lp3157
g894
ag1013
asg26
I00
sg27
I00
sg28
I3947831
sg20
S'9996.45641304'
p3158
sba(igraph
Edge
p3159
(dp3160
g7
I1
sg8
I00
sg9
I5
sg10
(lp3161
g901
ag1027
asg26
I00
sg27
I00
sg28
I3947832
sg20
S'9996.469049'
p3162
sba(igraph
Edge
p3163
(dp3164
g7
I1
sg8
I00
sg9
I5
sg10
(lp3165
g908
ag1027
asg26
I00
sg27
I00
sg28
I3947833
sg20
S'9996.48154863'
p3166
sba(igraph
Edge
p3167
(dp3168
g7
I1
sg8
I00
sg9
I5
sg10
(lp3169
g915
ag1041
asg26
I00
sg27
I00
sg28
I3947834
sg20
S'9996.49395188'
p3170
sba(igraph
Edge
p3171
(dp3172
g7
I1
sg8
I00
sg9
I5
sg10
(lp3173
g922
ag1041
asg26
I00
sg27
I00
sg28
I3947835
sg20
S'9996.51031653'
p3174
sba(igraph
Edge
p3175
(dp3176
g7
I1
sg8
I00
sg9
I5
sg10
(lp3177
g929
ag1055
asg26
I00
sg27
I00
sg28
I3947836
sg20
S'9996.52454237'
p3178
sba(igraph
Edge
p3179
(dp3180
g7
I1
sg8
I00
sg9
I5
sg10
(lp3181
g936
ag1055
asg26
I00
sg27
I00
sg28
I3947837
sg20
S'9996.5372546'
p3182
sba(igraph
Edge
p3183
(dp3184
g7
I1
sg8
I00
sg9
I5
sg10
(lp3185
g943
ag1069
asg26
I00
sg27
I00
sg28
I3947838
sg20
S'9996.55031128'
p3186
sba(igraph
Edge
p3187
(dp3188
g7
I1
sg8
I00
sg9
I5
sg10
(lp3189
g950
ag1069
asg26
I00
sg27
I00
sg28
I3947839
sg20
S'9996.56301793'
p3190
sba(igraph
Edge
p3191
(dp3192
g7
I1
sg8
I00
sg9
I5
sg10
(lp3193
g957
ag1083
asg26
I00
sg27
I00
sg28
I3947840
sg20
S'9996.57557008'
p3194
sba(igraph
Edge
p3195
(dp3196
g7
I1
sg8
I00
sg9
I5
sg10
(lp3197
g964
ag1083
asg26
I00
sg27
I00
sg28
I3947841
sg20
S'9996.58826862'
p3198
sba(igraph
Edge
p3199
(dp3200
g7
I1
sg8
I00
sg9
I5
sg10
(lp3201
g856
ag978
asg26
I00
sg27
I00
sg28
I3947842
sg20
S'9996.60097024'
p3202
sba(igraph
Edge
p3203
(dp3204
g7
I1
sg8
I00
sg9
I5
sg10
(lp3205
g859
ag978
asg26
I00
sg27
I00
sg28
I3947843
sg20
S'9996.61366291'
p3206
sba(igraph
Edge
p3207
(dp3208
g7
I1
sg8
I00
sg9
I5
sg10
(lp3209
g866
ag992
asg26
I00
sg27
I00
sg28
I3947844
sg20
S'9996.62640671'
p3210
sba(igraph
Edge
p3211
(dp3212
g7
I1
sg8
I00
sg9
I5
sg10
(lp3213
g873
ag992
asg26
I00
sg27
I00
sg28
I3947845
sg20
S'9996.63906809'
p3214
sba(igraph
Edge
p3215
(dp3216
g7
I1
sg8
I00
sg9
I5
sg10
(lp3217
g880
ag1006
asg26
I00
sg27
I00
sg28
I3947846
sg20
S'9996.65164316'
p3218
sba(igraph
Edge
p3219
(dp3220
g7
I1
sg8
I00
sg9
I5
sg10
(lp3221
g887
ag1006
asg26
I00
sg27
I00
sg28
I3947847
sg20
S'9996.6644716'
p3222
sba(igraph
Edge
p3223
(dp3224
g7
I1
sg8
I00
sg9
I5
sg10
(lp3225
g894
ag1020
asg26
I00
sg27
I00
sg28
I3947848
sg20
S'9996.6771626'
p3226
sba(igraph
Edge
p3227
(dp3228
g7
I1
sg8
I00
sg9
I5
sg10
(lp3229
g901
ag1020
asg26
I00
sg27
I00
sg28
I3947849
sg20
S'9996.68987762'
p3230
sba(igraph
Edge
p3231
(dp3232
g7
I1
sg8
I00
sg9
I5
sg10
(lp3233
g908
ag1034
asg26
I00
sg27
I00
sg28
I3947850
sg20
S'9996.70253538'
p3234
sba(igraph
Edge
p3235
(dp3236
g7
I1
sg8
I00
sg9
I5
sg10
(lp3237
g915
ag1034
asg26
I00
sg27
I00
sg28
I3947851
sg20
S'9996.71536662'
p3238
sba(igraph
Edge
p3239
(dp3240
g7
I1
sg8
I00
sg9
I5
sg10
(lp3241
g922
ag1048
asg26
I00
sg27
I00
sg28
I3947852
sg20
S'9996.72824339'
p3242
sba(igraph
Edge
p3243
(dp3244
g7
I1
sg8
I00
sg9
I5
sg10
(lp3245
g929
ag1048
asg26
I00
sg27
I00
sg28
I3947853
sg20
S'9996.74109754'
p3246
sba(igraph
Edge
p3247
(dp3248
g7
I1
sg8
I00
sg9
I5
sg10
(lp3249
g936
ag1062
asg26
I00
sg27
I00
sg28
I3947854
sg20
S'9996.75394219'
p3250
sba(igraph
Edge
p3251
(dp3252
g7
I1
sg8
I00
sg9
I5
sg10
(lp3253
g943
ag1062
asg26
I00
sg27
I00
sg28
I3947855
sg20
S'9996.76678991'
p3254
sba(igraph
Edge
p3255
(dp3256
g7
I1
sg8
I00
sg9
I5
sg10
(lp3257
g950
ag1076
asg26
I00
sg27
I00
sg28
I3947856
sg20
S'9996.77966781'
p3258
sba(igraph
Edge
p3259
(dp3260
g7
I1
sg8
I00
sg9
I5
sg10
(lp3261
g957
ag1076
asg26
I00
sg27
I00
sg28
I3947857
sg20
S'9996.79263454'
p3262
sba(igraph
Edge
p3263
(dp3264
g7
I1
sg8
I00
sg9
I5
sg10
(lp3265
g964
ag975
asg26
I00
sg27
I00
sg28
I3947858
sg20
S'9996.80575185'
p3266
sba(igraph
Edge
p3267
(dp3268
g7
I1
sg8
I00
sg9
I5
sg10
(lp3269
g975
ag1094
asg26
I00
sg27
I00
sg28
I3947859
sg20
S'9996.81889737'
p3270
sba(igraph
Edge
p3271
(dp3272
g7
I1
sg8
I00
sg9
I5
sg10
(lp3273
g978
ag1104
asg26
I00
sg27
I00
sg28
I3947860
sg20
S'9996.83213313'
p3274
sba(igraph
Edge
p3275
(dp3276
g7
I1
sg8
I00
sg9
I5
sg10
(lp3277
g985
ag1104
asg26
I00
sg27
I00
sg28
I3947861
sg20
S'9996.84537281'
p3278
sba(igraph
Edge
p3279
(dp3280
g7
I1
sg8
I00
sg9
I5
sg10
(lp3281
g992
ag1118
asg26
I00
sg27
I00
sg28
I3947862
sg20
S'9996.85836524'
p3282
sba(igraph
Edge
p3283
(dp3284
g7
I1
sg8
I00
sg9
I5
sg10
(lp3285
g999
ag1118
asg26
I00
sg27
I00
sg28
I3947863
sg20
S'9996.87151775'
p3286
sba(igraph
Edge
p3287
(dp3288
g7
I1
sg8
I00
sg9
I5
sg10
(lp3289
g1006
ag1132
asg26
I00
sg27
I00
sg28
I3947864
sg20
S'9996.88478759'
p3290
sba(igraph
Edge
p3291
(dp3292
g7
I1
sg8
I00
sg9
I5
sg10
(lp3293
g1013
ag1132
asg26
I00
sg27
I00
sg28
I3947865
sg20
S'9996.89794764'
p3294
sba(igraph
Edge
p3295
(dp3296
g7
I1
sg8
I00
sg9
I5
sg10
(lp3297
g1020
ag1146
asg26
I00
sg27
I00
sg28
I3947866
sg20
S'9996.91108395'
p3298
sba(igraph
Edge
p3299
(dp3300
g7
I1
sg8
I00
sg9
I5
sg10
(lp3301
g1027
ag1146
asg26
I00
sg27
I00
sg28
I3947867
sg20
S'9996.92420014'
p3302
sba(igraph
Edge
p3303
(dp3304
g7
I1
sg8
I00
sg9
I5
sg10
(lp3305
g1034
ag1160
asg26
I00
sg27
I00
sg28
I3947868
sg20
S'9996.93826506'
p3306
sba(igraph
Edge
p3307
(dp3308
g7
I1
sg8
I00
sg9
I5
sg10
(lp3309
g1041
ag1160
asg26
I00
sg27
I00
sg28
I3947869
sg20
S'9996.95158547'
p3310
sba(igraph
Edge
p3311
(dp3312
g7
I1
sg8
I00
sg9
I5
sg10
(lp3313
g1048
ag1174
asg26
I00
sg27
I00
sg28
I3947870
sg20
S'9996.96477066'
p3314
sba(igraph
Edge
p3315
(dp3316
g7
I1
sg8
I00
sg9
I5
sg10
(lp3317
g1055
ag1174
asg26
I00
sg27
I00
sg28
I3947871
sg20
S'9996.97794105'
p3318
sba(igraph
Edge
p3319
(dp3320
g7
I1
sg8
I00
sg9
I5
sg10
(lp3321
g1062
ag1188
asg26
I00
sg27
I00
sg28
I3947872
sg20
S'9996.99114608'
p3322
sba(igraph
Edge
p3323
(dp3324
g7
I1
sg8
I00
sg9
I5
sg10
(lp3325
g1069
ag1188
asg26
I00
sg27
I00
sg28
I3947873
sg20
S'9997.0043838'
p3326
sba(igraph
Edge
p3327
(dp3328
g7
I1
sg8
I00
sg9
I5
sg10
(lp3329
g1076
ag1202
asg26
I00
sg27
I00
sg28
I3947874
sg20
S'9997.01767431'
p3330
sba(igraph
Edge
p3331
(dp3332
g7
I1
sg8
I00
sg9
I5
sg10
(lp3333
g1083
ag1202
asg26
I00
sg27
I00
sg28
I3947875
sg20
S'9997.03089247'
p3334
sba(igraph
Edge
p3335
(dp3336
g7
I1
sg8
I00
sg9
I5
sg10
(lp3337
g975
ag1097
asg26
I00
sg27
I00
sg28
I3947876
sg20
S'9997.04445034'
p3338
sba(igraph
Edge
p3339
(dp3340
g7
I1
sg8
I00
sg9
I5
sg10
(lp3341
g978
ag1097
asg26
I00
sg27
I00
sg28
I3947877
sg20
S'9997.05806129'
p3342
sba(igraph
Edge
p3343
(dp3344
g7
I1
sg8
I00
sg9
I5
sg10
(lp3345
g985
ag1111
asg26
I00
sg27
I00
sg28
I3947878
sg20
S'9997.07155071'
p3346
sba(igraph
Edge
p3347
(dp3348
g7
I1
sg8
I00
sg9
I5
sg10
(lp3349
g992
ag1111
asg26
I00
sg27
I00
sg28
I3947879
sg20
S'9997.08492057'
p3350
sba(igraph
Edge
p3351
(dp3352
g7
I1
sg8
I00
sg9
I5
sg10
(lp3353
g999
ag1125
asg26
I00
sg27
I00
sg28
I3947880
sg20
S'9997.09828707'
p3354
sba(igraph
Edge
p3355
(dp3356
g7
I1
sg8
I00
sg9
I5
sg10
(lp3357
g1006
ag1125
asg26
I00
sg27
I00
sg28
I3947881
sg20
S'9997.1118279'
p3358
sba(igraph
Edge
p3359
(dp3360
g7
I1
sg8
I00
sg9
I5
sg10
(lp3361
g1013
ag1139
asg26
I00
sg27
I00
sg28
I3947882
sg20
S'9997.12535029'
p3362
sba(igraph
Edge
p3363
(dp3364
g7
I1
sg8
I00
sg9
I5
sg10
(lp3365
g1020
ag1139
asg26
I00
sg27
I00
sg28
I3947883
sg20
S'9997.13880619'
p3366
sba(igraph
Edge
p3367
(dp3368
g7
I1
sg8
I00
sg9
I5
sg10
(lp3369
g1027
ag1153
asg26
I00
sg27
I00
sg28
I3947884
sg20
S'9997.15227187'
p3370
sba(igraph
Edge
p3371
(dp3372
g7
I1
sg8
I00
sg9
I5
sg10
(lp3373
g1034
ag1153
asg26
I00
sg27
I00
sg28
I3947885
sg20
S'9997.16602753'
p3374
sba(igraph
Edge
p3375
(dp3376
g7
I1
sg8
I00
sg9
I5
sg10
(lp3377
g1041
ag1167
asg26
I00
sg27
I00
sg28
I3947886
sg20
S'9997.17978151'
p3378
sba(igraph
Edge
p3379
(dp3380
g7
I1
sg8
I00
sg9
I5
sg10
(lp3381
g1048
ag1167
asg26
I00
sg27
I00
sg28
I3947887
sg20
S'9997.19336871'
p3382
sba(igraph
Edge
p3383
(dp3384
g7
I1
sg8
I00
sg9
I5
sg10
(lp3385
g1055
ag1181
asg26
I00
sg27
I00
sg28
I3947888
sg20
S'9997.20703721'
p3386
sba(igraph
Edge
p3387
(dp3388
g7
I1
sg8
I00
sg9
I5
sg10
(lp3389
g1062
ag1181
asg26
I00
sg27
I00
sg28
I3947889
sg20
S'9997.22068671'
p3390
sba(igraph
Edge
p3391
(dp3392
g7
I1
sg8
I00
sg9
I5
sg10
(lp3393
g1069
ag1195
asg26
I00
sg27
I00
sg28
I3947890
sg20
S'9997.23440521'
p3394
sba(igraph
Edge
p3395
(dp3396
g7
I1
sg8
I00
sg9
I5
sg10
(lp3397
g1076
ag1195
asg26
I00
sg27
I00
sg28
I3947891
sg20
S'9997.248017'
p3398
sba(igraph
Edge
p3399
(dp3400
g7
I1
sg8
I00
sg9
I5
sg10
(lp3401
g1083
ag1094
asg26
I00
sg27
I00
sg28
I3947892
sg20
S'9997.26166957'
p3402
sba(igraph
Edge
p3403
(dp3404
g7
I1
sg8
I00
sg9
I5
sg10
(lp3405
g1094
ag1213
asg26
I00
sg27
I00
sg28
I3947893
sg20
S'9997.27543193'
p3406
sba(igraph
Edge
p3407
(dp3408
g7
I1
sg8
I00
sg9
I5
sg10
(lp3409
g1097
ag1223
asg26
I00
sg27
I00
sg28
I3947894
sg20
S'9997.28926637'
p3410
sba(igraph
Edge
p3411
(dp3412
g7
I1
sg8
I00
sg9
I5
sg10
(lp3413
g1104
ag1223
asg26
I00
sg27
I00
sg28
I3947895
sg20
S'9997.30323798'
p3414
sba(igraph
Edge
p3415
(dp3416
g7
I1
sg8
I00
sg9
I5
sg10
(lp3417
g1111
ag1237
asg26
I00
sg27
I00
sg28
I3947896
sg20
S'9997.31748085'
p3418
sba(igraph
Edge
p3419
(dp3420
g7
I1
sg8
I00
sg9
I5
sg10
(lp3421
g1118
ag1237
asg26
I00
sg27
I00
sg28
I3947897
sg20
S'9997.33121696'
p3422
sba(igraph
Edge
p3423
(dp3424
g7
I1
sg8
I00
sg9
I5
sg10
(lp3425
g1125
ag1251
asg26
I00
sg27
I00
sg28
I3947898
sg20
S'9997.34501983'
p3426
sba(igraph
Edge
p3427
(dp3428
g7
I1
sg8
I00
sg9
I5
sg10
(lp3429
g1132
ag1251
asg26
I00
sg27
I00
sg28
I3947899
sg20
S'9997.35907552'
p3430
sba(igraph
Edge
p3431
(dp3432
g7
I1
sg8
I00
sg9
I5
sg10
(lp3433
g1139
ag1265
asg26
I00
sg27
I00
sg28
I3947900
sg20
S'9997.37350948'
p3434
sba(igraph
Edge
p3435
(dp3436
g7
I1
sg8
I00
sg9
I5
sg10
(lp3437
g1146
ag1265
asg26
I00
sg27
I00
sg28
I3947901
sg20
S'9997.38735314'
p3438
sba(igraph
Edge
p3439
(dp3440
g7
I1
sg8
I00
sg9
I5
sg10
(lp3441
g1153
ag1279
asg26
I00
sg27
I00
sg28
I3947902
sg20
S'9997.40129095'
p3442
sba(igraph
Edge
p3443
(dp3444
g7
I1
sg8
I00
sg9
I5
sg10
(lp3445
g1160
ag1279
asg26
I00
sg27
I00
sg28
I3947903
sg20
S'9997.41533128'
p3446
sba(igraph
Edge
p3447
(dp3448
g7
I1
sg8
I00
sg9
I5
sg10
(lp3449
g1167
ag1293
asg26
I00
sg27
I00
sg28
I3947904
sg20
S'9997.42950822'
p3450
sba(igraph
Edge
p3451
(dp3452
g7
I1
sg8
I00
sg9
I5
sg10
(lp3453
g1174
ag1293
asg26
I00
sg27
I00
sg28
I3947905
sg20
S'9997.44368432'
p3454
sba(igraph
Edge
p3455
(dp3456
g7
I1
sg8
I00
sg9
I5
sg10
(lp3457
g1181
ag1307
asg26
I00
sg27
I00
sg28
I3947906
sg20
S'9997.45768554'
p3458
sba(igraph
Edge
p3459
(dp3460
g7
I1
sg8
I00
sg9
I5
sg10
(lp3461
g1188
ag1307
asg26
I00
sg27
I00
sg28
I3947907
sg20
S'9997.47166469'
p3462
sba(igraph
Edge
p3463
(dp3464
g7
I1
sg8
I00
sg9
I5
sg10
(lp3465
g1195
ag1321
asg26
I00
sg27
I00
sg28
I3947908
sg20
S'9997.48585644'
p3466
sba(igraph
Edge
p3467
(dp3468
g7
I1
sg8
I00
sg9
I5
sg10
(lp3469
g1202
ag1321
asg26
I00
sg27
I00
sg28
I3947909
sg20
S'9997.49993589'
p3470
sba(igraph
Edge
p3471
(dp3472
g7
I1
sg8
I00
sg9
I5
sg10
(lp3473
g1094
ag1216
asg26
I00
sg27
I00
sg28
I3947910
sg20
S'9997.51478694'
p3474
sba(igraph
Edge
p3475
(dp3476
g7
I1
sg8
I00
sg9
I5
sg10
(lp3477
g1097
ag1216
asg26
I00
sg27
I00
sg28
I3947911
sg20
S'9997.5291396'
p3478
sba(igraph
Edge
p3479
(dp3480
g7
I1
sg8
I00
sg9
I5
sg10
(lp3481
g1104
ag1230
asg26
I00
sg27
I00
sg28
I3947912
sg20
S'9997.54325955'
p3482
sba(igraph
Edge
p3483
(dp3484
g7
I1
sg8
I00
sg9
I5
sg10
(lp3485
g1111
ag1230
asg26
I00
sg27
I00
sg28
I3947913
sg20
S'9997.55740241'
p3486
sba(igraph
Edge
p3487
(dp3488
g7
I1
sg8
I00
sg9
I5
sg10
(lp3489
g1118
ag1244
asg26
I00
sg27
I00
sg28
I3947914
sg20
S'9997.57162405'
p3490
sba(igraph
Edge
p3491
(dp3492
g7
I1
sg8
I00
sg9
I5
sg10
(lp3493
g1125
ag1244
asg26
I00
sg27
I00
sg28
I3947915
sg20
S'9997.5858929'
p3494
sba(igraph
Edge
p3495
(dp3496
g7
I1
sg8
I00
sg9
I5
sg10
(lp3497
g1132
ag1258
asg26
I00
sg27
I00
sg28
I3947916
sg20
S'9997.60002542'
p3498
sba(igraph
Edge
p3499
(dp3500
g7
I1
sg8
I00
sg9
I5
sg10
(lp3501
g1139
ag1258
asg26
I00
sg27
I00
sg28
I3947917
sg20
S'9997.61439345'
p3502
sba(igraph
Edge
p3503
(dp3504
g7
I1
sg8
I00
sg9
I5
sg10
(lp3505
g1146
ag1272
asg26
I00
sg27
I00
sg28
I3947918
sg20
S'9997.62880785'
p3506
sba(igraph
Edge
p3507
(dp3508
g7
I1
sg8
I00
sg9
I5
sg10
(lp3509
g1153
ag1272
asg26
I00
sg27
I00
sg28
I3947919
sg20
S'9997.64319739'
p3510
sba(igraph
Edge
p3511
(dp3512
g7
I1
sg8
I00
sg9
I5
sg10
(lp3513
g1160
ag1286
asg26
I00
sg27
I00
sg28
I3947920
sg20
S'9997.65780399'
p3514
sba(igraph
Edge
p3515
(dp3516
g7
I1
sg8
I00
sg9
I5
sg10
(lp3517
g1167
ag1286
asg26
I00
sg27
I00
sg28
I3947921
sg20
S'9997.67217342'
p3518
sba(igraph
Edge
p3519
(dp3520
g7
I1
sg8
I00
sg9
I5
sg10
(lp3521
g1174
ag1300
asg26
I00
sg27
I00
sg28
I3947922
sg20
S'9997.68654536'
p3522
sba(igraph
Edge
p3523
(dp3524
g7
I1
sg8
I00
sg9
I5
sg10
(lp3525
g1181
ag1300
asg26
I00
sg27
I00
sg28
I3947923
sg20
S'9997.70095417'
p3526
sba(igraph
Edge
p3527
(dp3528
g7
I1
sg8
I00
sg9
I5
sg10
(lp3529
g1188
ag1314
asg26
I00
sg27
I00
sg28
I3947924
sg20
S'9997.71555491'
p3530
sba(igraph
Edge
p3531
(dp3532
g7
I1
sg8
I00
sg9
I5
sg10
(lp3533
g1195
ag1314
asg26
I00
sg27
I00
sg28
I3947925
sg20
S'9997.73023443'
p3534
sba(igraph
Edge
p3535
(dp3536
g7
I1
sg8
I00
sg9
I5
sg10
(lp3537
g1202
ag1213
asg26
I00
sg27
I00
sg28
I3947926
sg20
S'9997.74483712'
p3538
sba(igraph
Edge
p3539
(dp3540
g7
I1
sg8
I00
sg9
I5
sg10
(lp3541
g1213
ag1332
asg26
I00
sg27
I00
sg28
I3947927
sg20
S'9997.75937361'
p3542
sba(igraph
Edge
p3543
(dp3544
g7
I1
sg8
I00
sg9
I5
sg10
(lp3545
g1216
ag1342
asg26
I00
sg27
I00
sg28
I3947928
sg20
S'9997.7739858'
p3546
sba(igraph
Edge
p3547
(dp3548
g7
I1
sg8
I00
sg9
I5
sg10
(lp3549
g1223
ag1342
asg26
I00
sg27
I00
sg28
I3947929
sg20
S'9997.78860889'
p3550
sba(igraph
Edge
p3551
(dp3552
g7
I1
sg8
I00
sg9
I5
sg10
(lp3553
g1230
ag1356
asg26
I00
sg27
I00
sg28
I3947930
sg20
S'9997.80315096'
p3554
sba(igraph
Edge
p3555
(dp3556
g7
I1
sg8
I00
sg9
I5
sg10
(lp3557
g1237
ag1356
asg26
I00
sg27
I00
sg28
I3947931
sg20
S'9997.81781623'
p3558
sba(igraph
Edge
p3559
(dp3560
g7
I1
sg8
I00
sg9
I5
sg10
(lp3561
g1244
ag1370
asg26
I00
sg27
I00
sg28
I3947932
sg20
S'9997.83238149'
p3562
sba(igraph
Edge
p3563
(dp3564
g7
I1
sg8
I00
sg9
I5
sg10
(lp3565
g1251
ag1370
asg26
I00
sg27
I00
sg28
I3947933
sg20
S'9997.8469258'
p3566
sba(igraph
Edge
p3567
(dp3568
g7
I1
sg8
I00
sg9
I5
sg10
(lp3569
g1258
ag1384
asg26
I00
sg27
I00
sg28
I3947934
sg20
S'9997.86183272'
p3570
sba(igraph
Edge
p3571
(dp3572
g7
I1
sg8
I00
sg9
I5
sg10
(lp3573
g1265
ag1384
asg26
I00
sg27
I00
sg28
I3947935
sg20
S'9997.87646307'
p3574
sba(igraph
Edge
p3575
(dp3576
g7
I1
sg8
I00
sg9
I5
sg10
(lp3577
g1272
ag1398
asg26
I00
sg27
I00
sg28
I3947936
sg20
S'9997.89116885'
p3578
sba(igraph
Edge
p3579
(dp3580
g7
I1
sg8
I00
sg9
I5
sg10
(lp3581
g1279
ag1398
asg26
I00
sg27
I00
sg28
I3947937
sg20
S'9997.90600705'
p3582
sba(igraph
Edge
p3583
(dp3584
g7
I1
sg8
I00
sg9
I5
sg10
(lp3585
g1286
ag1412
asg26
I00
sg27
I00
sg28
I3947938
sg20
S'9997.92085838'
p3586
sba(igraph
Edge
p3587
(dp3588
g7
I1
sg8
I00
sg9
I5
sg10
(lp3589
g1293
ag1412
asg26
I00
sg27
I00
sg28
I3947939
sg20
S'9997.93582006'
p3590
sba(igraph
Edge
p3591
(dp3592
g7
I1
sg8
I00
sg9
I5
sg10
(lp3593
g1300
ag1426
asg26
I00
sg27
I00
sg28
I3947940
sg20
S'9997.95052891'
p3594
sba(igraph
Edge
p3595
(dp3596
g7
I1
sg8
I00
sg9
I5
sg10
(lp3597
g1307
ag1426
asg26
I00
sg27
I00
sg28
I3947941
sg20
S'9997.96516708'
p3598
sba(igraph
Edge
p3599
(dp3600
g7
I1
sg8
I00
sg9
I5
sg10
(lp3601
g1314
ag1440
asg26
I00
sg27
I00
sg28
I3947942
sg20
S'9997.97991085'
p3602
sba(igraph
Edge
p3603
(dp3604
g7
I1
sg8
I00
sg9
I5
sg10
(lp3605
g1321
ag1440
asg26
I00
sg27
I00
sg28
I3947943
sg20
S'9997.99476079'
p3606
sba(igraph
Edge
p3607
(dp3608
g7
I1
sg8
I00
sg9
I5
sg10
(lp3609
g1213
ag1335
asg26
I00
sg27
I00
sg28
I3947944
sg20
S'9998.0098222'
p3610
sba(igraph
Edge
p3611
(dp3612
g7
I1
sg8
I00
sg9
I5
sg10
(lp3613
g1216
ag1335
asg26
I00
sg27
I00
sg28
I3947945
sg20
S'9998.02484673'
p3614
sba(igraph
Edge
p3615
(dp3616
g7
I1
sg8
I00
sg9
I5
sg10
(lp3617
g1223
ag1349
asg26
I00
sg27
I00
sg28
I3947946
sg20
S'9998.03992323'
p3618
sba(igraph
Edge
p3619
(dp3620
g7
I1
sg8
I00
sg9
I5
sg10
(lp3621
g1230
ag1349
asg26
I00
sg27
I00
sg28
I3947947
sg20
S'9998.05535257'
p3622
sba(igraph
Edge
p3623
(dp3624
g7
I1
sg8
I00
sg9
I5
sg10
(lp3625
g1237
ag1363
asg26
I00
sg27
I00
sg28
I3947948
sg20
S'9998.07033436'
p3626
sba(igraph
Edge
p3627
(dp3628
g7
I1
sg8
I00
sg9
I5
sg10
(lp3629
g1244
ag1363
asg26
I00
sg27
I00
sg28
I3947949
sg20
S'9998.08529296'
p3630
sba(igraph
Edge
p3631
(dp3632
g7
I1
sg8
I00
sg9
I5
sg10
(lp3633
g1251
ag1377
asg26
I00
sg27
I00
sg28
I3947950
sg20
S'9998.10019989'
p3634
sba(igraph
Edge
p3635
(dp3636
g7
I1
sg8
I00
sg9
I5
sg10
(lp3637
g1258
ag1377
asg26
I00
sg27
I00
sg28
I3947951
sg20
S'9998.11513726'
p3638
sba(igraph
Edge
p3639
(dp3640
g7
I1
sg8
I00
sg9
I5
sg10
(lp3641
g1265
ag1391
asg26
I00
sg27
I00
sg28
I3947952
sg20
S'9998.13022577'
p3642
sba(igraph
Edge
p3643
(dp3644
g7
I1
sg8
I00
sg9
I5
sg10
(lp3645
g1272
ag1391
asg26
I00
sg27
I00
sg28
I3947953
sg20
S'9998.14560985'
p3646
sba(igraph
Edge
p3647
(dp3648
g7
I1
sg8
I00
sg9
I5
sg10
(lp3649
g1279
ag1405
asg26
I00
sg27
I00
sg28
I3947954
sg20
S'9998.16078831'
p3650
sba(igraph
Edge
p3651
(dp3652
g7
I1
sg8
I00
sg9
I5
sg10
(lp3653
g1286
ag1405
asg26
I00
sg27
I00
sg28
I3947955
sg20
S'9998.17612043'
p3654
sba(igraph
Edge
p3655
(dp3656
g7
I1
sg8
I00
sg9
I5
sg10
(lp3657
g1293
ag1419
asg26
I00
sg27
I00
sg28
I3947956
sg20
S'9998.19143606'
p3658
sba(igraph
Edge
p3659
(dp3660
g7
I1
sg8
I00
sg9
I5
sg10
(lp3661
g1300
ag1419
asg26
I00
sg27
I00
sg28
I3947957
sg20
S'9998.20663464'
p3662
sba(igraph
Edge
p3663
(dp3664
g7
I1
sg8
I00
sg9
I5
sg10
(lp3665
g1307
ag1433
asg26
I00
sg27
I00
sg28
I3947958
sg20
S'9998.22200419'
p3666
sba(igraph
Edge
p3667
(dp3668
g7
I1
sg8
I00
sg9
I5
sg10
(lp3669
g1314
ag1433
asg26
I00
sg27
I00
sg28
I3947959
sg20
S'9998.23716366'
p3670
sba(igraph
Edge
p3671
(dp3672
g7
I1
sg8
I00
sg9
I5
sg10
(lp3673
g1321
ag1332
asg26
I00
sg27
I00
sg28
I3947960
sg20
S'9998.25242035'
p3674
sba(igraph
Edge
p3675
(dp3676
g7
I1
sg8
I00
sg9
I5
sg10
(lp3677
g1332
ag1451
asg26
I00
sg27
I00
sg28
I3947961
sg20
S'9998.26754406'
p3678
sba(igraph
Edge
p3679
(dp3680
g7
I1
sg8
I00
sg9
I5
sg10
(lp3681
g1335
ag1461
asg26
I00
sg27
I00
sg28
I3947962
sg20
S'9998.28311531'
p3682
sba(igraph
Edge
p3683
(dp3684
g7
I1
sg8
I00
sg9
I5
sg10
(lp3685
g1342
ag1461
asg26
I00
sg27
I00
sg28
I3947963
sg20
S'9998.29830104'
p3686
sba(igraph
Edge
p3687
(dp3688
g7
I1
sg8
I00
sg9
I5
sg10
(lp3689
g1349
ag1475
asg26
I00
sg27
I00
sg28
I3947964
sg20
S'9998.31367199'
p3690
sba(igraph
Edge
p3691
(dp3692
g7
I1
sg8
I00
sg9
I5
sg10
(lp3693
g1356
ag1475
asg26
I00
sg27
I00
sg28
I3947965
sg20
S'9998.32874513'
p3694
sba(igraph
Edge
p3695
(dp3696
g7
I1
sg8
I00
sg9
I5
sg10
(lp3697
g1363
ag1489
asg26
I00
sg27
I00
sg28
I3947966
sg20
S'9998.34702707'
p3698
sba(igraph
Edge
p3699
(dp3700
g7
I1
sg8
I00
sg9
I5
sg10
(lp3701
g1370
ag1489
asg26
I00
sg27
I00
sg28
I3947967
sg20
S'9998.3632484'
p3702
sba(igraph
Edge
p3703
(dp3704
g7
I1
sg8
I00
sg9
I5
sg10
(lp3705
g1377
ag1503
asg26
I00
sg27
I00
sg28
I3947968
sg20
S'9998.37896269'
p3706
sba(igraph
Edge
p3707
(dp3708
g7
I1
sg8
I00
sg9
I5
sg10
(lp3709
g1384
ag1503
asg26
I00
sg27
I00
sg28
I3947969
sg20
S'9998.39446522'
p3710
sba(igraph
Edge
p3711
(dp3712
g7
I1
sg8
I00
sg9
I5
sg10
(lp3713
g1391
ag1517
asg26
I00
sg27
I00
sg28
I3947970
sg20
S'9998.40993059'
p3714
sba(igraph
Edge
p3715
(dp3716
g7
I1
sg8
I00
sg9
I5
sg10
(lp3717
g1398
ag1517
asg26
I00
sg27
I00
sg28
I3947971
sg20
S'9998.42549821'
p3718
sba(igraph
Edge
p3719
(dp3720
g7
I1
sg8
I00
sg9
I5
sg10
(lp3721
g1405
ag1531
asg26
I00
sg27
I00
sg28
I3947972
sg20
S'9998.44098538'
p3722
sba(igraph
Edge
p3723
(dp3724
g7
I1
sg8
I00
sg9
I5
sg10
(lp3725
g1412
ag1531
asg26
I00
sg27
I00
sg28
I3947973
sg20
S'9998.45681784'
p3726
sba(igraph
Edge
p3727
(dp3728
g7
I1
sg8
I00
sg9
I5
sg10
(lp3729
g1419
ag1545
asg26
I00
sg27
I00
sg28
I3947974
sg20
S'9998.47252933'
p3730
sba(igraph
Edge
p3731
(dp3732
g7
I1
sg8
I00
sg9
I5
sg10
(lp3733
g1426
ag1545
asg26
I00
sg27
I00
sg28
I3947975
sg20
S'9998.48805505'
p3734
sba(igraph
Edge
p3735
(dp3736
g7
I1
sg8
I00
sg9
I5
sg10
(lp3737
g1433
ag1559
asg26
I00
sg27
I00
sg28
I3947976
sg20
S'9998.50606404'
p3738
sba(igraph
Edge
p3739
(dp3740
g7
I1
sg8
I00
sg9
I5
sg10
(lp3741
g1440
ag1559
asg26
I00
sg27
I00
sg28
I3947977
sg20
S'9998.52301033'
p3742
sba(igraph
Edge
p3743
(dp3744
g7
I1
sg8
I00
sg9
I5
sg10
(lp3745
g1332
ag1454
asg26
I00
sg27
I00
sg28
I3947978
sg20
S'9998.5401829'
p3746
sba(igraph
Edge
p3747
(dp3748
g7
I1
sg8
I00
sg9
I5
sg10
(lp3749
g1335
ag1454
asg26
I00
sg27
I00
sg28
I3947979
sg20
S'9998.55826034'
p3750
sba(igraph
Edge
p3751
(dp3752
g7
I1
sg8
I00
sg9
I5
sg10
(lp3753
g1342
ag1468
asg26
I00
sg27
I00
sg28
I3947980
sg20
S'9998.57561925'
p3754
sba(igraph
Edge
p3755
(dp3756
g7
I1
sg8
I00
sg9
I5
sg10
(lp3757
g1349
ag1468
asg26
I00
sg27
I00
sg28
I3947981
sg20
S'9998.59533265'
p3758
sba(igraph
Edge
p3759
(dp3760
g7
I1
sg8
I00
sg9
I5
sg10
(lp3761
g1356
ag1482
asg26
I00
sg27
I00
sg28
I3947982
sg20
S'9998.61238761'
p3762
sba(igraph
Edge
p3763
(dp3764
g7
I1
sg8
I00
sg9
I5
sg10
(lp3765
g1363
ag1482
asg26
I00
sg27
I00
sg28
I3947983
sg20
S'9998.62888468'
p3766
sba(igraph
Edge
p3767
(dp3768
g7
I1
sg8
I00
sg9
I5
sg10
(lp3769
g1370
ag1496
asg26
I00
sg27
I00
sg28
I3947984
sg20
S'9998.64608295'
p3770
sba(igraph
Edge
p3771
(dp3772
g7
I1
sg8
I00
sg9
I5
sg10
(lp3773
g1377
ag1496
asg26
I00
sg27
I00
sg28
I3947985
sg20
S'9998.6657578'
p3774
sba(igraph
Edge
p3775
(dp3776
g7
I1
sg8
I00
sg9
I5
sg10
(lp3777
g1384
ag1510
asg26
I00
sg27
I00
sg28
I3947986
sg20
S'9998.68419254'
p3778
sba(igraph
Edge
p3779
(dp3780
g7
I1
sg8
I00
sg9
I5
sg10
(lp3781
g1391
ag1510
asg26
I00
sg27
I00
sg28
I3947987
sg20
S'9998.70461274'
p3782
sba(igraph
Edge
p3783
(dp3784
g7
I1
sg8
I00
sg9
I5
sg10
(lp3785
g1398
ag1524
asg26
I00
sg27
I00
sg28
I3947988
sg20
S'9998.72203897'
p3786
sba(igraph
Edge
p3787
(dp3788
g7
I1
sg8
I00
sg9
I5
sg10
(lp3789
g1405
ag1524
asg26
I00
sg27
I00
sg28
I3947989
sg20
S'9998.73842514'
p3790
sba(igraph
Edge
p3791
(dp3792
g7
I1
sg8
I00
sg9
I5
sg10
(lp3793
g1412
ag1538
asg26
I00
sg27
I00
sg28
I3947990
sg20
S'9998.75499568'
p3794
sba(igraph
Edge
p3795
(dp3796
g7
I1
sg8
I00
sg9
I5
sg10
(lp3797
g1419
ag1538
asg26
I00
sg27
I00
sg28
I3947991
sg20
S'9998.77197661'
p3798
sba(igraph
Edge
p3799
(dp3800
g7
I1
sg8
I00
sg9
I5
sg10
(lp3801
g1426
ag1552
asg26
I00
sg27
I00
sg28
I3947992
sg20
S'9998.79001856'
p3802
sba(igraph
Edge
p3803
(dp3804
g7
I1
sg8
I00
sg9
I5
sg10
(lp3805
g1433
ag1552
asg26
I00
sg27
I00
sg28
I3947993
sg20
S'9998.80819853'
p3806
sba(igraph
Edge
p3807
(dp3808
g7
I1
sg8
I00
sg9
I5
sg10
(lp3809
g1440
ag1451
asg26
I00
sg27
I00
sg28
I3947994
sg20
S'9998.82584798'
p3810
sba(igraph
Edge
p3811
(dp3812
g7
I1
sg8
I00
sg9
I5
sg10
(lp3813
g1451
ag1570
asg26
I00
sg27
I00
sg28
I3947995
sg20
S'9998.8449951'
p3814
sba(igraph
Edge
p3815
(dp3816
g7
I1
sg8
I00
sg9
I5
sg10
(lp3817
g1454
ag1580
asg26
I00
sg27
I00
sg28
I3947996
sg20
S'9998.86270406'
p3818
sba(igraph
Edge
p3819
(dp3820
g7
I1
sg8
I00
sg9
I5
sg10
(lp3821
g1461
ag1580
asg26
I00
sg27
I00
sg28
I3947997
sg20
S'9998.87950675'
p3822
sba(igraph
Edge
p3823
(dp3824
g7
I1
sg8
I00
sg9
I5
sg10
(lp3825
g1468
ag1594
asg26
I00
sg27
I00
sg28
I3947998
sg20
S'9998.89637342'
p3826
sba(igraph
Edge
p3827
(dp3828
g7
I1
sg8
I00
sg9
I5
sg10
(lp3829
g1475
ag1594
asg26
I00
sg27
I00
sg28
I3947999
sg20
S'9998.91381698'
p3830
sba(igraph
Edge
p3831
(dp3832
g7
I1
sg8
I00
sg9
I5
sg10
(lp3833
g1482
ag1608
asg26
I00
sg27
I00
sg28
I3948000
sg20
S'9998.9320341'
p3834
sba(igraph
Edge
p3835
(dp3836
g7
I1
sg8
I00
sg9
I5
sg10
(lp3837
g1489
ag1608
asg26
I00
sg27
I00
sg28
I3948001
sg20
S'9998.9514307'
p3838
sba(igraph
Edge
p3839
(dp3840
g7
I1
sg8
I00
sg9
I5
sg10
(lp3841
g1496
ag1622
asg26
I00
sg27
I00
sg28
I3948002
sg20
S'9998.96936454'
p3842
sba(igraph
Edge
p3843
(dp3844
g7
I1
sg8
I00
sg9
I5
sg10
(lp3845
g1503
ag1622
asg26
I00
sg27
I00
sg28
I3948003
sg20
S'9998.98659187'
p3846
sba(igraph
Edge
p3847
(dp3848
g7
I1
sg8
I00
sg9
I5
sg10
(lp3849
g1510
ag1636
asg26
I00
sg27
I00
sg28
I3948004
sg20
S'9999.00328226'
p3850
sba(igraph
Edge
p3851
(dp3852
g7
I1
sg8
I00
sg9
I5
sg10
(lp3853
g1517
ag1636
asg26
I00
sg27
I00
sg28
I3948005
sg20
S'9999.02046936'
p3854
sba(igraph
Edge
p3855
(dp3856
g7
I1
sg8
I00
sg9
I5
sg10
(lp3857
g1524
ag1650
asg26
I00
sg27
I00
sg28
I3948006
sg20
S'9999.03833141'
p3858
sba(igraph
Edge
p3859
(dp3860
g7
I1
sg8
I00
sg9
I5
sg10
(lp3861
g1531
ag1650
asg26
I00
sg27
I00
sg28
I3948007
sg20
S'9999.05660049'
p3862
sba(igraph
Edge
p3863
(dp3864
g7
I1
sg8
I00
sg9
I5
sg10
(lp3865
g1538
ag1664
asg26
I00
sg27
I00
sg28
I3948008
sg20
S'9999.07403148'
p3866
sba(igraph
Edge
p3867
(dp3868
g7
I1
sg8
I00
sg9
I5
sg10
(lp3869
g1545
ag1664
asg26
I00
sg27
I00
sg28
I3948009
sg20
S'9999.09090178'
p3870
sba(igraph
Edge
p3871
(dp3872
g7
I1
sg8
I00
sg9
I5
sg10
(lp3873
g1552
ag1678
asg26
I00
sg27
I00
sg28
I3948010
sg20
S'9999.10735973'
p3874
sba(igraph
Edge
p3875
(dp3876
g7
I1
sg8
I00
sg9
I5
sg10
(lp3877
g1559
ag1678
asg26
I00
sg27
I00
sg28
I3948011
sg20
S'9999.12368024'
p3878
sba(igraph
Edge
p3879
(dp3880
g7
I1
sg8
I00
sg9
I5
sg10
(lp3881
g1451
ag1573
asg26
I00
sg27
I00
sg28
I3948012
sg20
S'9999.13994348'
p3882
sba(igraph
Edge
p3883
(dp3884
g7
I1
sg8
I00
sg9
I5
sg10
(lp3885
g1454
ag1573
asg26
I00
sg27
I00
sg28
I3948013
sg20
S'9999.15627712'
p3886
sba(igraph
Edge
p3887
(dp3888
g7
I1
sg8
I00
sg9
I5
sg10
(lp3889
g1461
ag1587
asg26
I00
sg27
I00
sg28
I3948014
sg20
S'9999.17288482'
p3890
sba(igraph
Edge
p3891
(dp3892
g7
I1
sg8
I00
sg9
I5
sg10
(lp3893
g1468
ag1587
asg26
I00
sg27
I00
sg28
I3948015
sg20
S'9999.18923467'
p3894
sba(igraph
Edge
p3895
(dp3896
g7
I1
sg8
I00
sg9
I5
sg10
(lp3897
g1475
ag1601
asg26
I00
sg27
I00
sg28
I3948016
sg20
S'9999.20601669'
p3898
sba(igraph
Edge
p3899
(dp3900
g7
I1
sg8
I00
sg9
I5
sg10
(lp3901
g1482
ag1601
asg26
I00
sg27
I00
sg28
I3948017
sg20
S'9999.22273501'
p3902
sba(igraph
Edge
p3903
(dp3904
g7
I1
sg8
I00
sg9
I5
sg10
(lp3905
g1489
ag1615
asg26
I00
sg27
I00
sg28
I3948018
sg20
S'9999.23932371'
p3906
sba(igraph
Edge
p3907
(dp3908
g7
I1
sg8
I00
sg9
I5
sg10
(lp3909
g1496
ag1615
asg26
I00
sg27
I00
sg28
I3948019
sg20
S'9999.25607752'
p3910
sba(igraph
Edge
p3911
(dp3912
g7
I1
sg8
I00
sg9
I5
sg10
(lp3913
g1503
ag1629
asg26
I00
sg27
I00
sg28
I3948020
sg20
S'9999.27277182'
p3914
sba(igraph
Edge
p3915
(dp3916
g7
I1
sg8
I00
sg9
I5
sg10
(lp3917
g1510
ag1629
asg26
I00
sg27
I00
sg28
I3948021
sg20
S'9999.28938929'
p3918
sba(igraph
Edge
p3919
(dp3920
g7
I1
sg8
I00
sg9
I5
sg10
(lp3921
g1517
ag1643
asg26
I00
sg27
I00
sg28
I3948022
sg20
S'9999.30585144'
p3922
sba(igraph
Edge
p3923
(dp3924
g7
I1
sg8
I00
sg9
I5
sg10
(lp3925
g1524
ag1643
asg26
I00
sg27
I00
sg28
I3948023
sg20
S'9999.32234013'
p3926
sba(igraph
Edge
p3927
(dp3928
g7
I1
sg8
I00
sg9
I5
sg10
(lp3929
g1531
ag1657
asg26
I00
sg27
I00
sg28
I3948024
sg20
S'9999.33882016'
p3930
sba(igraph
Edge
p3931
(dp3932
g7
I1
sg8
I00
sg9
I5
sg10
(lp3933
g1538
ag1657
asg26
I00
sg27
I00
sg28
I3948025
sg20
S'9999.35594189'
p3934
sba(igraph
Edge
p3935
(dp3936
g7
I1
sg8
I00
sg9
I5
sg10
(lp3937
g1545
ag1671
asg26
I00
sg27
I00
sg28
I3948026
sg20
S'9999.3732452'
p3938
sba(igraph
Edge
p3939
(dp3940
g7
I1
sg8
I00
sg9
I5
sg10
(lp3941
g1552
ag1671
asg26
I00
sg27
I00
sg28
I3948027
sg20
S'9999.39018898'
p3942
sba(igraph
Edge
p3943
(dp3944
g7
I1
sg8
I00
sg9
I5
sg10
(lp3945
g1559
ag1570
asg26
I00
sg27
I00
sg28
I3948028
sg20
S'9999.40717801'
p3946
sba(igraph
Edge
p3947
(dp3948
g7
I1
sg8
I00
sg9
I5
sg10
(lp3949
g1570
ag1689
asg26
I00
sg27
I00
sg28
I3948029
sg20
S'9999.42422347'
p3950
sba(igraph
Edge
p3951
(dp3952
g7
I1
sg8
I00
sg9
I5
sg10
(lp3953
g1573
ag1699
asg26
I00
sg27
I00
sg28
I3948030
sg20
S'9999.44128793'
p3954
sba(igraph
Edge
p3955
(dp3956
g7
I1
sg8
I00
sg9
I5
sg10
(lp3957
g1580
ag1699
asg26
I00
sg27
I00
sg28
I3948031
sg20
S'9999.45818812'
p3958
sba(igraph
Edge
p3959
(dp3960
g7
I1
sg8
I00
sg9
I5
sg10
(lp3961
g1587
ag1713
asg26
I00
sg27
I00
sg28
I3948032
sg20
S'9999.47511485'
p3962
sba(igraph
Edge
p3963
(dp3964
g7
I1
sg8
I00
sg9
I5
sg10
(lp3965
g1594
ag1713
asg26
I00
sg27
I00
sg28
I3948033
sg20
S'9999.49195666'
p3966
sba(igraph
Edge
p3967
(dp3968
g7
I1
sg8
I00
sg9
I5
sg10
(lp3969
g1601
ag1727
asg26
I00
sg27
I00
sg28
I3948034
sg20
S'9999.51016121'
p3970
sba(igraph
Edge
p3971
(dp3972
g7
I1
sg8
I00
sg9
I5
sg10
(lp3973
g1608
ag1727
asg26
I00
sg27
I00
sg28
I3948035
sg20
S'9999.52718823'
p3974
sba(igraph
Edge
p3975
(dp3976
g7
I1
sg8
I00
sg9
I5
sg10
(lp3977
g1615
ag1741
asg26
I00
sg27
I00
sg28
I3948036
sg20
S'9999.54399093'
p3978
sba(igraph
Edge
p3979
(dp3980
g7
I1
sg8
I00
sg9
I5
sg10
(lp3981
g1622
ag1741
asg26
I00
sg27
I00
sg28
I3948037
sg20
S'9999.5614708'
p3982
sba(igraph
Edge
p3983
(dp3984
g7
I1
sg8
I00
sg9
I5
sg10
(lp3985
g1629
ag1755
asg26
I00
sg27
I00
sg28
I3948038
sg20
S'9999.57829277'
p3986
sba(igraph
Edge
p3987
(dp3988
g7
I1
sg8
I00
sg9
I5
sg10
(lp3989
g1636
ag1755
asg26
I00
sg27
I00
sg28
I3948039
sg20
S'9999.59534047'
p3990
sba(igraph
Edge
p3991
(dp3992
g7
I1
sg8
I00
sg9
I5
sg10
(lp3993
g1643
ag1769
asg26
I00
sg27
I00
sg28
I3948040
sg20
S'9999.61223703'
p3994
sba(igraph
Edge
p3995
(dp3996
g7
I1
sg8
I00
sg9
I5
sg10
(lp3997
g1650
ag1769
asg26
I00
sg27
I00
sg28
I3948041
sg20
S'9999.62924282'
p3998
sba(igraph
Edge
p3999
(dp4000
g7
I1
sg8
I00
sg9
I5
sg10
(lp4001
g1657
ag1783
asg26
I00
sg27
I00
sg28
I3948042
sg20
S'9999.64645283'
p4002
sba(igraph
Edge
p4003
(dp4004
g7
I1
sg8
I00
sg9
I5
sg10
(lp4005
g1664
ag1783
asg26
I00
sg27
I00
sg28
I3948043
sg20
S'9999.66369636'
p4006
sba(igraph
Edge
p4007
(dp4008
g7
I1
sg8
I00
sg9
I5
sg10
(lp4009
g1671
ag1797
asg26
I00
sg27
I00
sg28
I3948044
sg20
S'9999.68088765'
p4010
sba(igraph
Edge
p4011
(dp4012
g7
I1
sg8
I00
sg9
I5
sg10
(lp4013
g1678
ag1797
asg26
I00
sg27
I00
sg28
I3948045
sg20
S'9999.69800771'
p4014
sba(igraph
Edge
p4015
(dp4016
g7
I1
sg8
I00
sg9
I5
sg10
(lp4017
g1570
ag1692
asg26
I00
sg27
I00
sg28
I3948046
sg20
S'9999.71505764'
p4018
sba(igraph
Edge
p4019
(dp4020
g7
I1
sg8
I00
sg9
I5
sg10
(lp4021
g1573
ag1692
asg26
I00
sg27
I00
sg28
I3948047
sg20
S'9999.73238666'
p4022
sba(igraph
Edge
p4023
(dp4024
g7
I1
sg8
I00
sg9
I5
sg10
(lp4025
g1580
ag1706
asg26
I00
sg27
I00
sg28
I3948048
sg20
S'9999.74943743'
p4026
sba(igraph
Edge
p4027
(dp4028
g7
I1
sg8
I00
sg9
I5
sg10
(lp4029
g1587
ag1706
asg26
I00
sg27
I00
sg28
I3948049
sg20
S'9999.76652563'
p4030
sba(igraph
Edge
p4031
(dp4032
g7
I1
sg8
I00
sg9
I5
sg10
(lp4033
g1594
ag1720
asg26
I00
sg27
I00
sg28
I3948050
sg20
S'9999.78378453'
p4034
sba(igraph
Edge
p4035
(dp4036
g7
I1
sg8
I00
sg9
I5
sg10
(lp4037
g1601
ag1720
asg26
I00
sg27
I00
sg28
I3948051
sg20
S'9999.80081407'
p4038
sba(igraph
Edge
p4039
(dp4040
g7
I1
sg8
I00
sg9
I5
sg10
(lp4041
g1608
ag1734
asg26
I00
sg27
I00
sg28
I3948052
sg20
S'9999.81839424'
p4042
sba(igraph
Edge
p4043
(dp4044
g7
I1
sg8
I00
sg9
I5
sg10
(lp4045
g1615
ag1734
asg26
I00
sg27
I00
sg28
I3948053
sg20
S'9999.83598837'
p4046
sba(igraph
Edge
p4047
(dp4048
g7
I1
sg8
I00
sg9
I5
sg10
(lp4049
g1622
ag1748
asg26
I00
sg27
I00
sg28
I3948054
sg20
S'9999.85351155'
p4050
sba(igraph
Edge
p4051
(dp4052
g7
I1
sg8
I00
sg9
I5
sg10
(lp4053
g1629
ag1748
asg26
I00
sg27
I00
sg28
I3948055
sg20
S'9999.87089449'
p4054
sba(igraph
Edge
p4055
(dp4056
g7
I1
sg8
I00
sg9
I5
sg10
(lp4057
g1636
ag1762
asg26
I00
sg27
I00
sg28
I3948056
sg20
S'9999.88833972'
p4058
sba(igraph
Edge
p4059
(dp4060
g7
I1
sg8
I00
sg9
I5
sg10
(lp4061
g1643
ag1762
asg26
I00
sg27
I00
sg28
I3948057
sg20
S'9999.90586234'
p4062
sba(igraph
Edge
p4063
(dp4064
g7
I1
sg8
I00
sg9
I5
sg10
(lp4065
g1650
ag1776
asg26
I00
sg27
I00
sg28
I3948058
sg20
S'9999.92342211'
p4066
sba(igraph
Edge
p4067
(dp4068
g7
I1
sg8
I00
sg9
I5
sg10
(lp4069
g1657
ag1776
asg26
I00
sg27
I00
sg28
I3948059
sg20
S'9999.94073632'
p4070
sba(igraph
Edge
p4071
(dp4072
g7
I1
sg8
I00
sg9
I5
sg10
(lp4073
g1664
ag1790
asg26
I00
sg27
I00
sg28
I3948060
sg20
S'9999.95797147'
p4074
sba(igraph
Edge
p4075
(dp4076
g7
I1
sg8
I00
sg9
I5
sg10
(lp4077
g1671
ag1790
asg26
I00
sg27
I00
sg28
I3948061
sg20
S'9999.975253'
p4078
sba(igraph
Edge
p4079
(dp4080
g7
I1
sg8
I00
sg9
I5
sg10
(lp4081
g1678
ag1689
asg26
I00
sg27
I00
sg28
I3948062
sg20
S'9999.99267756'
p4082
sba(igraph
Edge
p4083
(dp4084
g7
I1
sg8
I00
sg9
I5
sg10
(lp4085
g1689
ag1808
asg26
I00
sg27
I00
sg28
I3948063
sg20
S'10000.0101248'
p4086
sba(igraph
Edge
p4087
(dp4088
g7
I1
sg8
I00
sg9
I5
sg10
(lp4089
g1692
ag1818
asg26
I00
sg27
I00
sg28
I3948064
sg20
S'10000.0277935'
p4090
sba(igraph
Edge
p4091
(dp4092
g7
I1
sg8
I00
sg9
I5
sg10
(lp4093
g1699
ag1818
asg26
I00
sg27
I00
sg28
I3948065
sg20
S'10000.0456536'
p4094
sba(igraph
Edge
p4095
(dp4096
g7
I1
sg8
I00
sg9
I5
sg10
(lp4097
g1706
ag1832
asg26
I00
sg27
I00
sg28
I3948066
sg20
S'10000.0631463'
p4098
sba(igraph
Edge
p4099
(dp4100
g7
I1
sg8
I00
sg9
I5
sg10
(lp4101
g1713
ag1832
asg26
I00
sg27
I00
sg28
I3948067
sg20
S'10000.0803996'
p4102
sba(igraph
Edge
p4103
(dp4104
g7
I1
sg8
I00
sg9
I5
sg10
(lp4105
g1720
ag1846
asg26
I00
sg27
I00
sg28
I3948068
sg20
S'10000.0979996'
p4106
sba(igraph
Edge
p4107
(dp4108
g7
I1
sg8
I00
sg9
I5
sg10
(lp4109
g1727
ag1846
asg26
I00
sg27
I00
sg28
I3948069
sg20
S'10000.1158977'
p4110
sba(igraph
Edge
p4111
(dp4112
g7
I1
sg8
I00
sg9
I5
sg10
(lp4113
g1734
ag1860
asg26
I00
sg27
I00
sg28
I3948070
sg20
S'10000.1336242'
p4114
sba(igraph
Edge
p4115
(dp4116
g7
I1
sg8
I00
sg9
I5
sg10
(lp4117
g1741
ag1860
asg26
I00
sg27
I00
sg28
I3948071
sg20
S'10000.1511762'
p4118
sba(igraph
Edge
p4119
(dp4120
g7
I1
sg8
I00
sg9
I5
sg10
(lp4121
g1748
ag1874
asg26
I00
sg27
I00
sg28
I3948072
sg20
S'10000.1690335'
p4122
sba(igraph
Edge
p4123
(dp4124
g7
I1
sg8
I00
sg9
I5
sg10
(lp4125
g1755
ag1874
asg26
I00
sg27
I00
sg28
I3948073
sg20
S'10000.1869014'
p4126
sba(igraph
Edge
p4127
(dp4128
g7
I1
sg8
I00
sg9
I5
sg10
(lp4129
g1762
ag1888
asg26
I00
sg27
I00
sg28
I3948074
sg20
S'10000.2047026'
p4130
sba(igraph
Edge
p4131
(dp4132
g7
I1
sg8
I00
sg9
I5
sg10
(lp4133
g1769
ag1888
asg26
I00
sg27
I00
sg28
I3948075
sg20
S'10000.2278862'
p4134
sba(igraph
Edge
p4135
(dp4136
g7
I1
sg8
I00
sg9
I5
sg10
(lp4137
g1776
ag1902
asg26
I00
sg27
I00
sg28
I3948076
sg20
S'10000.2471839'
p4138
sba(igraph
Edge
p4139
(dp4140
g7
I1
sg8
I00
sg9
I5
sg10
(lp4141
g1783
ag1902
asg26
I00
sg27
I00
sg28
I3948077
sg20
S'10000.2655857'
p4142
sba(igraph
Edge
p4143
(dp4144
g7
I1
sg8
I00
sg9
I5
sg10
(lp4145
g1790
ag1916
asg26
I00
sg27
I00
sg28
I3948078
sg20
S'10000.2840626'
p4146
sba(igraph
Edge
p4147
(dp4148
g7
I1
sg8
I00
sg9
I5
sg10
(lp4149
g1797
ag1916
asg26
I00
sg27
I00
sg28
I3948079
sg20
S'10000.3025452'
p4150
sba(igraph
Edge
p4151
(dp4152
g7
I1
sg8
I00
sg9
I5
sg10
(lp4153
g1689
ag1811
asg26
I00
sg27
I00
sg28
I3948080
sg20
S'10000.3269698'
p4154
sba(igraph
Edge
p4155
(dp4156
g7
I1
sg8
I00
sg9
I5
sg10
(lp4157
g1692
ag1811
asg26
I00
sg27
I00
sg28
I3948081
sg20
S'10000.3454383'
p4158
sba(igraph
Edge
p4159
(dp4160
g7
I1
sg8
I00
sg9
I5
sg10
(lp4161
g1699
ag1825
asg26
I00
sg27
I00
sg28
I3948082
sg20
S'10000.3634314'
p4162
sba(igraph
Edge
p4163
(dp4164
g7
I1
sg8
I00
sg9
I5
sg10
(lp4165
g1706
ag1825
asg26
I00
sg27
I00
sg28
I3948083
sg20
S'10000.3817139'
p4166
sba(igraph
Edge
p4167
(dp4168
g7
I1
sg8
I00
sg9
I5
sg10
(lp4169
g1713
ag1839
asg26
I00
sg27
I00
sg28
I3948084
sg20
S'10000.3999106'
p4170
sba(igraph
Edge
p4171
(dp4172
g7
I1
sg8
I00
sg9
I5
sg10
(lp4173
g1720
ag1839
asg26
I00
sg27
I00
sg28
I3948085
sg20
S'10000.4182557'
p4174
sba(igraph
Edge
p4175
(dp4176
g7
I1
sg8
I00
sg9
I5
sg10
(lp4177
g1727
ag1853
asg26
I00
sg27
I00
sg28
I3948086
sg20
S'10000.4364834'
p4178
sba(igraph
Edge
p4179
(dp4180
g7
I1
sg8
I00
sg9
I5
sg10
(lp4181
g1734
ag1853
asg26
I00
sg27
I00
sg28
I3948087
sg20
S'10000.4545681'
p4182
sba(igraph
Edge
p4183
(dp4184
g7
I1
sg8
I00
sg9
I5
sg10
(lp4185
g1741
ag1867
asg26
I00
sg27
I00
sg28
I3948088
sg20
S'10000.4728126'
p4186
sba(igraph
Edge
p4187
(dp4188
g7
I1
sg8
I00
sg9
I5
sg10
(lp4189
g1748
ag1867
asg26
I00
sg27
I00
sg28
I3948089
sg20
S'10000.4910278'
p4190
sba(igraph
Edge
p4191
(dp4192
g7
I1
sg8
I00
sg9
I5
sg10
(lp4193
g1755
ag1881
asg26
I00
sg27
I00
sg28
I3948090
sg20
S'10000.511377'
p4194
sba(igraph
Edge
p4195
(dp4196
g7
I1
sg8
I00
sg9
I5
sg10
(lp4197
g1762
ag1881
asg26
I00
sg27
I00
sg28
I3948091
sg20
S'10000.5310636'
p4198
sba(igraph
Edge
p4199
(dp4200
g7
I1
sg8
I00
sg9
I5
sg10
(lp4201
g1769
ag1895
asg26
I00
sg27
I00
sg28
I3948092
sg20
S'10000.5494391'
p4202
sba(igraph
Edge
p4203
(dp4204
g7
I1
sg8
I00
sg9
I5
sg10
(lp4205
g1776
ag1895
asg26
I00
sg27
I00
sg28
I3948093
sg20
S'10000.5675981'
p4206
sba(igraph
Edge
p4207
(dp4208
g7
I1
sg8
I00
sg9
I5
sg10
(lp4209
g1783
ag1909
asg26
I00
sg27
I00
sg28
I3948094
sg20
S'10000.5856686'
p4210
sba(igraph
Edge
p4211
(dp4212
g7
I1
sg8
I00
sg9
I5
sg10
(lp4213
g1790
ag1909
asg26
I00
sg27
I00
sg28
I3948095
sg20
S'10000.6038463'
p4214
sba(igraph
Edge
p4215
(dp4216
g7
I1
sg8
I00
sg9
I5
sg10
(lp4217
g1797
ag1808
asg26
I00
sg27
I00
sg28
I3948096
sg20
S'10000.6222087'
p4218
sba(igraph
Edge
p4219
(dp4220
g7
I1
sg8
I00
sg9
I5
sg10
(lp4221
g1808
ag1927
asg26
I00
sg27
I00
sg28
I3948097
sg20
S'10000.6406219'
p4222
sba(igraph
Edge
p4223
(dp4224
g7
I1
sg8
I00
sg9
I5
sg10
(lp4225
g1811
ag1937
asg26
I00
sg27
I00
sg28
I3948098
sg20
S'10000.6591391'
p4226
sba(igraph
Edge
p4227
(dp4228
g7
I1
sg8
I00
sg9
I5
sg10
(lp4229
g1818
ag1937
asg26
I00
sg27
I00
sg28
I3948099
sg20
S'10000.6780965'
p4230
sba(igraph
Edge
p4231
(dp4232
g7
I1
sg8
I00
sg9
I5
sg10
(lp4233
g1825
ag1951
asg26
I00
sg27
I00
sg28
I3948100
sg20
S'10000.6962131'
p4234
sba(igraph
Edge
p4235
(dp4236
g7
I1
sg8
I00
sg9
I5
sg10
(lp4237
g1832
ag1951
asg26
I00
sg27
I00
sg28
I3948101
sg20
S'10000.7150328'
p4238
sba(igraph
Edge
p4239
(dp4240
g7
I1
sg8
I00
sg9
I5
sg10
(lp4241
g1839
ag1965
asg26
I00
sg27
I00
sg28
I3948102
sg20
S'10000.7338592'
p4242
sba(igraph
Edge
p4243
(dp4244
g7
I1
sg8
I00
sg9
I5
sg10
(lp4245
g1846
ag1965
asg26
I00
sg27
I00
sg28
I3948103
sg20
S'10000.7523655'
p4246
sba(igraph
Edge
p4247
(dp4248
g7
I1
sg8
I00
sg9
I5
sg10
(lp4249
g1853
ag1979
asg26
I00
sg27
I00
sg28
I3948104
sg20
S'10000.7711941'
p4250
sba(igraph
Edge
p4251
(dp4252
g7
I1
sg8
I00
sg9
I5
sg10
(lp4253
g1860
ag1979
asg26
I00
sg27
I00
sg28
I3948105
sg20
S'10000.7901627'
p4254
sba(igraph
Edge
p4255
(dp4256
g7
I1
sg8
I00
sg9
I5
sg10
(lp4257
g1867
ag1993
asg26
I00
sg27
I00
sg28
I3948106
sg20
S'10000.8087721'
p4258
sba(igraph
Edge
p4259
(dp4260
g7
I1
sg8
I00
sg9
I5
sg10
(lp4261
g1874
ag1993
asg26
I00
sg27
I00
sg28
I3948107
sg20
S'10000.8270523'
p4262
sba(igraph
Edge
p4263
(dp4264
g7
I1
sg8
I00
sg9
I5
sg10
(lp4265
g1881
ag2007
asg26
I00
sg27
I00
sg28
I3948108
sg20
S'10000.8456346'
p4266
sba(igraph
Edge
p4267
(dp4268
g7
I1
sg8
I00
sg9
I5
sg10
(lp4269
g1888
ag2007
asg26
I00
sg27
I00
sg28
I3948109
sg20
S'10000.8648744'
p4270
sba(igraph
Edge
p4271
(dp4272
g7
I1
sg8
I00
sg9
I5
sg10
(lp4273
g1895
ag2021
asg26
I00
sg27
I00
sg28
I3948110
sg20
S'10000.8835042'
p4274
sba(igraph
Edge
p4275
(dp4276
g7
I1
sg8
I00
sg9
I5
sg10
(lp4277
g1902
ag2021
asg26
I00
sg27
I00
sg28
I3948111
sg20
S'10000.901954'
p4278
sba(igraph
Edge
p4279
(dp4280
g7
I1
sg8
I00
sg9
I5
sg10
(lp4281
g1909
ag2035
asg26
I00
sg27
I00
sg28
I3948112
sg20
S'10000.9207265'
p4282
sba(igraph
Edge
p4283
(dp4284
g7
I1
sg8
I00
sg9
I5
sg10
(lp4285
g1916
ag2035
asg26
I00
sg27
I00
sg28
I3948113
sg20
S'10000.9394728'
p4286
sba(igraph
Edge
p4287
(dp4288
g7
I1
sg8
I00
sg9
I5
sg10
(lp4289
g1808
ag1930
asg26
I00
sg27
I00
sg28
I3948114
sg20
S'10000.9580455'
p4290
sba(igraph
Edge
p4291
(dp4292
g7
I1
sg8
I00
sg9
I5
sg10
(lp4293
g1811
ag1930
asg26
I00
sg27
I00
sg28
I3948115
sg20
S'10000.9768451'
p4294
sba(igraph
Edge
p4295
(dp4296
g7
I1
sg8
I00
sg9
I5
sg10
(lp4297
g1818
ag1944
asg26
I00
sg27
I00
sg28
I3948116
sg20
S'10000.9955039'
p4298
sba(igraph
Edge
p4299
(dp4300
g7
I1
sg8
I00
sg9
I5
sg10
(lp4301
g1825
ag1944
asg26
I00
sg27
I00
sg28
I3948117
sg20
S'10001.014434'
p4302
sba(igraph
Edge
p4303
(dp4304
g7
I1
sg8
I00
sg9
I5
sg10
(lp4305
g1832
ag1958
asg26
I00
sg27
I00
sg28
I3948118
sg20
S'10001.0334322'
p4306
sba(igraph
Edge
p4307
(dp4308
g7
I1
sg8
I00
sg9
I5
sg10
(lp4309
g1839
ag1958
asg26
I00
sg27
I00
sg28
I3948119
sg20
S'10001.0523022'
p4310
sba(igraph
Edge
p4311
(dp4312
g7
I1
sg8
I00
sg9
I5
sg10
(lp4313
g1846
ag1972
asg26
I00
sg27
I00
sg28
I3948120
sg20
S'10001.0712459'
p4314
sba(igraph
Edge
p4315
(dp4316
g7
I1
sg8
I00
sg9
I5
sg10
(lp4317
g1853
ag1972
asg26
I00
sg27
I00
sg28
I3948121
sg20
S'10001.0900698'
p4318
sba(igraph
Edge
p4319
(dp4320
g7
I1
sg8
I00
sg9
I5
sg10
(lp4321
g1860
ag1986
asg26
I00
sg27
I00
sg28
I3948122
sg20
S'10001.1090834'
p4322
sba(igraph
Edge
p4323
(dp4324
g7
I1
sg8
I00
sg9
I5
sg10
(lp4325
g1867
ag1986
asg26
I00
sg27
I00
sg28
I3948123
sg20
S'10001.1281397'
p4326
sba(igraph
Edge
p4327
(dp4328
g7
I1
sg8
I00
sg9
I5
sg10
(lp4329
g1874
ag2000
asg26
I00
sg27
I00
sg28
I3948124
sg20
S'10001.1470963'
p4330
sba(igraph
Edge
p4331
(dp4332
g7
I1
sg8
I00
sg9
I5
sg10
(lp4333
g1881
ag2000
asg26
I00
sg27
I00
sg28
I3948125
sg20
S'10001.1660465'
p4334
sba(igraph
Edge
p4335
(dp4336
g7
I1
sg8
I00
sg9
I5
sg10
(lp4337
g1888
ag2014
asg26
I00
sg27
I00
sg28
I3948126
sg20
S'10001.1847511'
p4338
sba(igraph
Edge
p4339
(dp4340
g7
I1
sg8
I00
sg9
I5
sg10
(lp4341
g1895
ag2014
asg26
I00
sg27
I00
sg28
I3948127
sg20
S'10001.2036753'
p4342
sba(igraph
Edge
p4343
(dp4344
g7
I1
sg8
I00
sg9
I5
sg10
(lp4345
g1902
ag2028
asg26
I00
sg27
I00
sg28
I3948128
sg20
S'10001.2227392'
p4346
sba(igraph
Edge
p4347
(dp4348
g7
I1
sg8
I00
sg9
I5
sg10
(lp4349
g1909
ag2028
asg26
I00
sg27
I00
sg28
I3948129
sg20
S'10001.2415033'
p4350
sba(igraph
Edge
p4351
(dp4352
g7
I1
sg8
I00
sg9
I5
sg10
(lp4353
g1916
ag1927
asg26
I00
sg27
I00
sg28
I3948130
sg20
S'10001.2604932'
p4354
sbasS'vertices'
p4355
(lp4356
g12
ag23
ag33
ag40
ag47
ag54
ag61
ag68
ag75
ag82
ag89
ag96
ag103
ag110
ag117
ag124
ag131
ag142
ag145
ag152
ag159
ag166
ag173
ag180
ag187
ag194
ag201
ag208
ag215
ag222
ag229
ag236
ag243
ag250
ag261
ag264
ag271
ag278
ag285
ag292
ag299
ag306
ag313
ag320
ag327
ag334
ag341
ag348
ag355
ag362
ag369
ag380
ag383
ag390
ag397
ag404
ag411
ag418
ag425
ag432
ag439
ag446
ag453
ag460
ag467
ag474
ag481
ag488
ag499
ag502
ag509
ag516
ag523
ag530
ag537
ag544
ag551
ag558
ag565
ag572
ag579
ag586
ag593
ag600
ag607
ag618
ag621
ag628
ag635
ag642
ag649
ag656
ag663
ag670
ag677
ag684
ag691
ag698
ag705
ag712
ag719
ag726
ag737
ag740
ag747
ag754
ag761
ag768
ag775
ag782
ag789
ag796
ag803
ag810
ag817
ag824
ag831
ag838
ag845
ag856
ag859
ag866
ag873
ag880
ag887
ag894
ag901
ag908
ag915
ag922
ag929
ag936
ag943
ag950
ag957
ag964
ag975
ag978
ag985
ag992
ag999
ag1006
ag1013
ag1020
ag1027
ag1034
ag1041
ag1048
ag1055
ag1062
ag1069
ag1076
ag1083
ag1094
ag1097
ag1104
ag1111
ag1118
ag1125
ag1132
ag1139
ag1146
ag1153
ag1160
ag1167
ag1174
ag1181
ag1188
ag1195
ag1202
ag1213
ag1216
ag1223
ag1230
ag1237
ag1244
ag1251
ag1258
ag1265
ag1272
ag1279
ag1286
ag1293
ag1300
ag1307
ag1314
ag1321
ag1332
ag1335
ag1342
ag1349
ag1356
ag1363
ag1370
ag1377
ag1384
ag1391
ag1398
ag1405
ag1412
ag1419
ag1426
ag1433
ag1440
ag1451
ag1454
ag1461
ag1468
ag1475
ag1482
ag1489
ag1496
ag1503
ag1510
ag1517
ag1524
ag1531
ag1538
ag1545
ag1552
ag1559
ag1570
ag1573
ag1580
ag1587
ag1594
ag1601
ag1608
ag1615
ag1622
ag1629
ag1636
ag1643
ag1650
ag1657
ag1664
ag1671
ag1678
ag1689
ag1692
ag1699
ag1706
ag1713
ag1720
ag1727
ag1734
ag1741
ag1748
ag1755
ag1762
ag1769
ag1776
ag1783
ag1790
ag1797
ag1808
ag1811
ag1818
ag1825
ag1832
ag1839
ag1846
ag1853
ag1860
ag1867
ag1874
ag1881
ag1888
ag1895
ag1902
ag1909
ag1916
ag1927
ag1930
ag1937
ag1944
ag1951
ag1958
ag1965
ag1972
ag1979
ag1986
ag1993
ag2000
ag2007
ag2014
ag2021
ag2028
ag2035
asS'tags'
p4357
(lp4358
sb.