(igraph
Graph
p0
(dp1
S'labelingConstraints'
p2
I-1
sS'edges'
p3
(lp4
(igraph
Edge
p5
(dp6
S'direction'
p7
I1
sS'selected'
p8
I00
sS'height'
p9
I5
sS'vs'
p10
(lp11
(igraph
Vertex
p12
(dp13
S'xnorm'
p14
F0.0
sg8
I00
sS'label'
p15
S'NULL'
p16
sS'y'
p17
F-294.0
sS'x'
p18
F217.0
sS'circle'
p19
I4807719
sS'id'
p20
S'11316.5513156'
p21
sS'ynorm'
p22
F0.0
sba(igraph
Vertex
p23
(dp24
g14
F0.0625
sg8
I00
sg15
g16
sg17
F-294.0
sg18
F180.5625
sg19
I4807720
sg20
S'11316.5513441'
p25
sg22
F0.0
sbasS'wrap'
p26
I00
sS'curved'
p27
I00
sS'line'
p28
I4807158
sg20
S'11316.7179086'
p29
sba(igraph
Edge
p30
(dp31
g7
I1
sg8
I00
sg9
I5
sg10
(lp32
g23
a(igraph
Vertex
p33
(dp34
g14
F0.125
sg8
I01
sg15
I0
sg17
F-294.0
sg18
F144.125
sg19
I4807722
sg20
S'11316.5513676'
p35
sg22
F0.0
sbasg26
I00
sg27
I00
sg28
I4807159
sg20
S'11316.7179717'
p36
sba(igraph
Edge
p37
(dp38
g7
I1
sg8
I00
sg9
I5
sg10
(lp39
g33
a(igraph
Vertex
p40
(dp41
g14
F0.1875
sg8
I00
sg15
g16
sg17
F-294.0
sg18
F107.6875
sg19
I4807724
sg20
S'11316.5513941'
p42
sg22
F0.0
sbasg26
I00
sg27
I00
sg28
I4807160
sg20
S'11316.7180555'
p43
sba(igraph
Edge
p44
(dp45
g7
I1
sg8
I00
sg9
I5
sg10
(lp46
g40
a(igraph
Vertex
p47
(dp48
g14
F0.25
sg8
I00
sg15
g16
sg17
F-294.0
sg18
F71.25
sg19
I4807725
sg20
S'11316.5514287'
p49
sg22
F0.0
sbasg26
I00
sg27
I00
sg28
I4807161
sg20
S'11316.7181642'
p50
sba(igraph
Edge
p51
(dp52
g7
I1
sg8
I00
sg9
I5
sg10
(lp53
g47
a(igraph
Vertex
p54
(dp55
g14
F0.3125
sg8
I00
sg15
g16
sg17
F-294.0
sg18
F34.8125
sg19
I4807726
sg20
S'11316.551472'
p56
sg22
F0.0
sbasg26
I00
sg27
I00
sg28
I4807162
sg20
S'11316.7183'
p57
sba(igraph
Edge
p58
(dp59
g7
I1
sg8
I00
sg9
I5
sg10
(lp60
g54
a(igraph
Vertex
p61
(dp62
g14
F0.375
sg8
I00
sg15
g16
sg17
F-294.0
sg18
F-1.625
sg19
I4807727
sg20
S'11316.5515223'
p63
sg22
F0.0
sbasg26
I00
sg27
I00
sg28
I4807163
sg20
S'11316.7184539'
p64
sba(igraph
Edge
p65
(dp66
g7
I1
sg8
I00
sg9
I5
sg10
(lp67
g61
a(igraph
Vertex
p68
(dp69
g14
F0.4375
sg8
I00
sg15
g16
sg17
F-294.0
sg18
F-38.0625
sg19
I4807728
sg20
S'11316.5515776'
p70
sg22
F0.0
sbasg26
I00
sg27
I00
sg28
I4807164
sg20
S'11316.7186293'
p71
sba(igraph
Edge
p72
(dp73
g7
I1
sg8
I00
sg9
I5
sg10
(lp74
g68
a(igraph
Vertex
p75
(dp76
g14
F0.5
sg8
I00
sg15
g16
sg17
F-294.0
sg18
F-74.5
sg19
I4807729
sg20
S'11316.5516413'
p77
sg22
F0.0
sbasg26
I00
sg27
I00
sg28
I4807165
sg20
S'11316.7188266'
p78
sba(igraph
Edge
p79
(dp80
g7
I1
sg8
I00
sg9
I5
sg10
(lp81
g75
a(igraph
Vertex
p82
(dp83
g14
F0.5625
sg8
I00
sg15
g16
sg17
F-294.0
sg18
F-110.9375
sg19
I4807730
sg20
S'11316.5517143'
p84
sg22
F0.0
sbasg26
I00
sg27
I00
sg28
I4807166
sg20
S'11316.7190447'
p85
sba(igraph
Edge
p86
(dp87
g7
I1
sg8
I00
sg9
I5
sg10
(lp88
g82
a(igraph
Vertex
p89
(dp90
g14
F0.625
sg8
I00
sg15
g16
sg17
F-294.0
sg18
F-147.375
sg19
I4807731
sg20
S'11316.5517944'
p91
sg22
F0.0
sbasg26
I00
sg27
I00
sg28
I4807167
sg20
S'11316.7192956'
p92
sba(igraph
Edge
p93
(dp94
g7
I1
sg8
I00
sg9
I5
sg10
(lp95
g89
a(igraph
Vertex
p96
(dp97
g14
F0.6875
sg8
I00
sg15
g16
sg17
F-294.0
sg18
F-183.8125
sg19
I4807732
sg20
S'11316.5519344'
p98
sg22
F0.0
sbasg26
I00
sg27
I00
sg28
I4807168
sg20
S'11316.7195658'
p99
sba(igraph
Edge
p100
(dp101
g7
I1
sg8
I00
sg9
I5
sg10
(lp102
g96
a(igraph
Vertex
p103
(dp104
g14
F0.75
sg8
I00
sg15
g16
sg17
F-294.0
sg18
F-220.25
sg19
I4807733
sg20
S'11316.5520327'
p105
sg22
F0.0
sbasg26
I00
sg27
I00
sg28
I4807169
sg20
S'11316.7198557'
p106
sba(igraph
Edge
p107
(dp108
g7
I1
sg8
I00
sg9
I5
sg10
(lp109
g103
a(igraph
Vertex
p110
(dp111
g14
F0.8125
sg8
I00
sg15
g16
sg17
F-294.0
sg18
F-256.6875
sg19
I4807734
sg20
S'11316.5521372'
p112
sg22
F0.0
sbasg26
I00
sg27
I00
sg28
I4807170
sg20
S'11316.7201681'
p113
sba(igraph
Edge
p114
(dp115
g7
I1
sg8
I00
sg9
I5
sg10
(lp116
g110
a(igraph
Vertex
p117
(dp118
g14
F0.875
sg8
I00
sg15
g16
sg17
F-294.0
sg18
F-293.125
sg19
I4807735
sg20
S'11316.5522501'
p119
sg22
F0.0
sbasg26
I00
sg27
I00
sg28
I4807171
sg20
S'11316.7215495'
p120
sba(igraph
Edge
p121
(dp122
g7
I1
sg8
I00
sg9
I5
sg10
(lp123
g117
a(igraph
Vertex
p124
(dp125
g14
F0.9375
sg8
I00
sg15
g16
sg17
F-294.0
sg18
F-329.5625
sg19
I4807736
sg20
S'11316.5523794'
p126
sg22
F0.0
sbasg26
I00
sg27
I00
sg28
I4807172
sg20
S'11316.7219124'
p127
sba(igraph
Edge
p128
(dp129
g7
I1
sg8
I00
sg9
I5
sg10
(lp130
g124
a(igraph
Vertex
p131
(dp132
g14
F1.0
sg8
I00
sg15
g16
sg17
F-294.0
sg18
F-366.0
sg19
I4807737
sg20
S'11316.5525554'
p133
sg22
F0.0
sbasg26
I00
sg27
I00
sg28
I4807173
sg20
S'11316.7223019'
p134
sba(igraph
Edge
p135
(dp136
g7
I1
sg8
I00
sg9
I5
sg10
(lp137
g131
ag12
asg26
I00
sg27
I00
sg28
I4807174
sg20
S'11316.7227027'
p138
sba(igraph
Edge
p139
(dp140
g7
I1
sg8
I00
sg9
I5
sg10
(lp141
(igraph
Vertex
p142
(dp143
g14
F0.0
sg8
I00
sg15
g16
sg17
F-239.0
sg18
F217.0
sg19
I4807738
sg20
S'11316.5526931'
p144
sg22
F0.10000000000000001
sba(igraph
Vertex
p145
(dp146
g14
F0.0625
sg8
I00
sg15
g16
sg17
F-239.0
sg18
F180.5625
sg19
I4807739
sg20
S'11316.5528373'
p147
sg22
F0.10000000000000001
sbasg26
I00
sg27
I00
sg28
I4807175
sg20
S'11316.7231268'
p148
sba(igraph
Edge
p149
(dp150
g7
I1
sg8
I00
sg9
I5
sg10
(lp151
g145
a(igraph
Vertex
p152
(dp153
g14
F0.125
sg8
I00
sg15
g16
sg17
F-239.0
sg18
F144.125
sg19
I4807740
sg20
S'11316.5530127'
p154
sg22
F0.10000000000000001
sbasg26
I00
sg27
I00
sg28
I4807176
sg20
S'11316.7238062'
p155
sba(igraph
Edge
p156
(dp157
g7
I1
sg8
I00
sg9
I5
sg10
(lp158
g152
a(igraph
Vertex
p159
(dp160
g14
F0.1875
sg8
I00
sg15
g16
sg17
F-239.0
sg18
F107.6875
sg19
I4807741
sg20
S'11316.5531985'
p161
sg22
F0.10000000000000001
sbasg26
I00
sg27
I00
sg28
I4807177
sg20
S'11316.7242954'
p162
sba(igraph
Edge
p163
(dp164
g7
I1
sg8
I00
sg9
I5
sg10
(lp165
g159
a(igraph
Vertex
p166
(dp167
g14
F0.25
sg8
I01
sg15
I0
sg17
F-239.0
sg18
F71.25
sg19
I4807743
sg20
S'11316.5533692'
p168
sg22
F0.10000000000000001
sbasg26
I00
sg27
I00
sg28
I4807178
sg20
S'11316.7248709'
p169
sba(igraph
Edge
p170
(dp171
g7
I1
sg8
I00
sg9
I5
sg10
(lp172
g166
a(igraph
Vertex
p173
(dp174
g14
F0.3125
sg8
I00
sg15
g16
sg17
F-239.0
sg18
F34.8125
sg19
I4807745
sg20
S'11316.5535463'
p175
sg22
F0.10000000000000001
sbasg26
I00
sg27
I00
sg28
I4807179
sg20
S'11316.7254064'
p176
sba(igraph
Edge
p177
(dp178
g7
I1
sg8
I00
sg9
I5
sg10
(lp179
g173
a(igraph
Vertex
p180
(dp181
g14
F0.375
sg8
I00
sg15
g16
sg17
F-239.0
sg18
F-1.625
sg19
I4807746
sg20
S'11316.5537271'
p182
sg22
F0.10000000000000001
sbasg26
I00
sg27
I00
sg28
I4807180
sg20
S'11316.7259618'
p183
sba(igraph
Edge
p184
(dp185
g7
I1
sg8
I00
sg9
I5
sg10
(lp186
g180
a(igraph
Vertex
p187
(dp188
g14
F0.4375
sg8
I00
sg15
g16
sg17
F-239.0
sg18
F-38.0625
sg19
I4807747
sg20
S'11316.5539148'
p189
sg22
F0.10000000000000001
sbasg26
I00
sg27
I00
sg28
I4807181
sg20
S'11316.7273265'
p190
sba(igraph
Edge
p191
(dp192
g7
I1
sg8
I00
sg9
I5
sg10
(lp193
g187
a(igraph
Vertex
p194
(dp195
g14
F0.5
sg8
I00
sg15
g16
sg17
F-239.0
sg18
F-74.5
sg19
I4807748
sg20
S'11316.5541534'
p196
sg22
F0.10000000000000001
sbasg26
I00
sg27
I00
sg28
I4807182
sg20
S'11316.7279285'
p197
sba(igraph
Edge
p198
(dp199
g7
I1
sg8
I00
sg9
I5
sg10
(lp200
g194
a(igraph
Vertex
p201
(dp202
g14
F0.5625
sg8
I00
sg15
g16
sg17
F-239.0
sg18
F-110.9375
sg19
I4807749
sg20
S'11316.5543981'
p203
sg22
F0.10000000000000001
sbasg26
I00
sg27
I00
sg28
I4807183
sg20
S'11316.7285476'
p204
sba(igraph
Edge
p205
(dp206
g7
I1
sg8
I00
sg9
I5
sg10
(lp207
g201
a(igraph
Vertex
p208
(dp209
g14
F0.625
sg8
I00
sg15
g16
sg17
F-239.0
sg18
F-147.375
sg19
I4807750
sg20
S'11316.5546359'
p210
sg22
F0.10000000000000001
sbasg26
I00
sg27
I00
sg28
I4807184
sg20
S'11316.7292092'
p211
sba(igraph
Edge
p212
(dp213
g7
I1
sg8
I00
sg9
I5
sg10
(lp214
g208
a(igraph
Vertex
p215
(dp216
g14
F0.6875
sg8
I00
sg15
g16
sg17
F-239.0
sg18
F-183.8125
sg19
I4807751
sg20
S'11316.5549054'
p217
sg22
F0.10000000000000001
sbasg26
I00
sg27
I00
sg28
I4807185
sg20
S'11316.7299042'
p218
sba(igraph
Edge
p219
(dp220
g7
I1
sg8
I00
sg9
I5
sg10
(lp221
g215
a(igraph
Vertex
p222
(dp223
g14
F0.75
sg8
I00
sg15
g16
sg17
F-239.0
sg18
F-220.25
sg19
I4807752
sg20
S'11316.5551373'
p224
sg22
F0.10000000000000001
sbasg26
I00
sg27
I00
sg28
I4807186
sg20
S'11316.7305948'
p225
sba(igraph
Edge
p226
(dp227
g7
I1
sg8
I00
sg9
I5
sg10
(lp228
g222
a(igraph
Vertex
p229
(dp230
g14
F0.8125
sg8
I00
sg15
g16
sg17
F-239.0
sg18
F-256.6875
sg19
I4807753
sg20
S'11316.5555276'
p231
sg22
F0.10000000000000001
sbasg26
I00
sg27
I00
sg28
I4807187
sg20
S'11316.7341293'
p232
sba(igraph
Edge
p233
(dp234
g7
I1
sg8
I00
sg9
I5
sg10
(lp235
g229
a(igraph
Vertex
p236
(dp237
g14
F0.875
sg8
I00
sg15
g16
sg17
F-239.0
sg18
F-293.125
sg19
I4807754
sg20
S'11316.5557773'
p238
sg22
F0.10000000000000001
sbasg26
I00
sg27
I00
sg28
I4807188
sg20
S'11316.7348861'
p239
sba(igraph
Edge
p240
(dp241
g7
I1
sg8
I00
sg9
I5
sg10
(lp242
g236
a(igraph
Vertex
p243
(dp244
g14
F0.9375
sg8
I00
sg15
g16
sg17
F-239.0
sg18
F-329.5625
sg19
I4807755
sg20
S'11316.5560352'
p245
sg22
F0.10000000000000001
sbasg26
I00
sg27
I00
sg28
I4807189
sg20
S'11316.7357279'
p246
sba(igraph
Edge
p247
(dp248
g7
I1
sg8
I00
sg9
I5
sg10
(lp249
g243
a(igraph
Vertex
p250
(dp251
g14
F1.0
sg8
I00
sg15
g16
sg17
F-239.0
sg18
F-366.0
sg19
I4807756
sg20
S'11316.556312'
p252
sg22
F0.10000000000000001
sbasg26
I00
sg27
I00
sg28
I4807190
sg20
S'11316.7365104'
p253
sba(igraph
Edge
p254
(dp255
g7
I1
sg8
I00
sg9
I5
sg10
(lp256
g250
ag142
asg26
I00
sg27
I00
sg28
I4807191
sg20
S'11316.7373105'
p257
sba(igraph
Edge
p258
(dp259
g7
I1
sg8
I00
sg9
I5
sg10
(lp260
(igraph
Vertex
p261
(dp262
g14
F0.0
sg8
I00
sg15
g16
sg17
F-184.0
sg18
F217.0
sg19
I4807757
sg20
S'11316.5566305'
p263
sg22
F0.20000000000000001
sba(igraph
Vertex
p264
(dp265
g14
F0.0625
sg8
I00
sg15
g16
sg17
F-184.0
sg18
F180.5625
sg19
I4807758
sg20
S'11316.5569917'
p266
sg22
F0.20000000000000001
sbasg26
I00
sg27
I00
sg28
I4807192
sg20
S'11316.7381731'
p267
sba(igraph
Edge
p268
(dp269
g7
I1
sg8
I00
sg9
I5
sg10
(lp270
g264
a(igraph
Vertex
p271
(dp272
g14
F0.125
sg8
I00
sg15
g16
sg17
F-184.0
sg18
F144.125
sg19
I4807759
sg20
S'11316.5574309'
p273
sg22
F0.20000000000000001
sbasg26
I00
sg27
I00
sg28
I4807193
sg20
S'11316.7390395'
p274
sba(igraph
Edge
p275
(dp276
g7
I1
sg8
I00
sg9
I5
sg10
(lp277
g271
a(igraph
Vertex
p278
(dp279
g14
F0.1875
sg8
I01
sg15
I0
sg17
F-184.0
sg18
F107.6875
sg19
I4807761
sg20
S'11316.5577709'
p280
sg22
F0.20000000000000001
sbasg26
I00
sg27
I00
sg28
I4807194
sg20
S'11316.7399136'
p281
sba(igraph
Edge
p282
(dp283
g7
I1
sg8
I00
sg9
I5
sg10
(lp284
g278
a(igraph
Vertex
p285
(dp286
g14
F0.25
sg8
I00
sg15
g16
sg17
F-184.0
sg18
F71.25
sg19
I4807763
sg20
S'11316.5580762'
p287
sg22
F0.20000000000000001
sbasg26
I00
sg27
I00
sg28
I4807195
sg20
S'11316.7408101'
p288
sba(igraph
Edge
p289
(dp290
g7
I1
sg8
I00
sg9
I5
sg10
(lp291
g285
a(igraph
Vertex
p292
(dp293
g14
F0.3125
sg8
I00
sg15
g16
sg17
F-184.0
sg18
F34.8125
sg19
I4807764
sg20
S'11316.5584204'
p294
sg22
F0.20000000000000001
sbasg26
I00
sg27
I00
sg28
I4807196
sg20
S'11316.741792'
p295
sba(igraph
Edge
p296
(dp297
g7
I1
sg8
I00
sg9
I5
sg10
(lp298
g292
a(igraph
Vertex
p299
(dp300
g14
F0.375
sg8
I01
sg15
I0
sg17
F-184.0
sg18
F-1.625
sg19
I4807766
sg20
S'11316.5588135'
p301
sg22
F0.20000000000000001
sbasg26
I00
sg27
I00
sg28
I4807197
sg20
S'11316.7429388'
p302
sba(igraph
Edge
p303
(dp304
g7
I1
sg8
I00
sg9
I5
sg10
(lp305
g299
a(igraph
Vertex
p306
(dp307
g14
F0.4375
sg8
I00
sg15
g16
sg17
F-184.0
sg18
F-38.0625
sg19
I4807768
sg20
S'11316.5591697'
p308
sg22
F0.20000000000000001
sbasg26
I00
sg27
I00
sg28
I4807198
sg20
S'11316.744008'
p309
sba(igraph
Edge
p310
(dp311
g7
I1
sg8
I00
sg9
I5
sg10
(lp312
g306
a(igraph
Vertex
p313
(dp314
g14
F0.5
sg8
I00
sg15
g16
sg17
F-184.0
sg18
F-74.5
sg19
I4807769
sg20
S'11316.5595619'
p315
sg22
F0.20000000000000001
sbasg26
I00
sg27
I00
sg28
I4807199
sg20
S'11316.7451075'
p316
sba(igraph
Edge
p317
(dp318
g7
I1
sg8
I00
sg9
I5
sg10
(lp319
g313
a(igraph
Vertex
p320
(dp321
g14
F0.5625
sg8
I00
sg15
g16
sg17
F-184.0
sg18
F-110.9375
sg19
I4807770
sg20
S'11316.5599675'
p322
sg22
F0.20000000000000001
sbasg26
I00
sg27
I00
sg28
I4807200
sg20
S'11316.7461247'
p323
sba(igraph
Edge
p324
(dp325
g7
I1
sg8
I00
sg9
I5
sg10
(lp326
g320
a(igraph
Vertex
p327
(dp328
g14
F0.625
sg8
I00
sg15
g16
sg17
F-184.0
sg18
F-147.375
sg19
I4807771
sg20
S'11316.56035'
p329
sg22
F0.20000000000000001
sbasg26
I00
sg27
I00
sg28
I4807201
sg20
S'11316.7472251'
p330
sba(igraph
Edge
p331
(dp332
g7
I1
sg8
I00
sg9
I5
sg10
(lp333
g327
a(igraph
Vertex
p334
(dp335
g14
F0.6875
sg8
I00
sg15
g16
sg17
F-184.0
sg18
F-183.8125
sg19
I4807772
sg20
S'11316.5607447'
p336
sg22
F0.20000000000000001
sbasg26
I00
sg27
I00
sg28
I4807202
sg20
S'11316.7483331'
p337
sba(igraph
Edge
p338
(dp339
g7
I1
sg8
I00
sg9
I5
sg10
(lp340
g334
a(igraph
Vertex
p341
(dp342
g14
F0.75
sg8
I00
sg15
g16
sg17
F-184.0
sg18
F-220.25
sg19
I4807773
sg20
S'11316.5611465'
p343
sg22
F0.20000000000000001
sbasg26
I00
sg27
I00
sg28
I4807203
sg20
S'11316.7505211'
p344
sba(igraph
Edge
p345
(dp346
g7
I1
sg8
I00
sg9
I5
sg10
(lp347
g341
a(igraph
Vertex
p348
(dp349
g14
F0.8125
sg8
I00
sg15
g16
sg17
F-184.0
sg18
F-256.6875
sg19
I4807774
sg20
S'11316.5615825'
p350
sg22
F0.20000000000000001
sbasg26
I00
sg27
I00
sg28
I4807204
sg20
S'11316.7515966'
p351
sba(igraph
Edge
p352
(dp353
g7
I1
sg8
I00
sg9
I5
sg10
(lp354
g348
a(igraph
Vertex
p355
(dp356
g14
F0.875
sg8
I00
sg15
g16
sg17
F-184.0
sg18
F-293.125
sg19
I4807775
sg20
S'11316.5619954'
p357
sg22
F0.20000000000000001
sbasg26
I00
sg27
I00
sg28
I4807205
sg20
S'11316.7526918'
p358
sba(igraph
Edge
p359
(dp360
g7
I1
sg8
I00
sg9
I5
sg10
(lp361
g355
a(igraph
Vertex
p362
(dp363
g14
F0.9375
sg8
I00
sg15
g16
sg17
F-184.0
sg18
F-329.5625
sg19
I4807776
sg20
S'11316.5624226'
p364
sg22
F0.20000000000000001
sbasg26
I00
sg27
I00
sg28
I4807206
sg20
S'11316.7538173'
p365
sba(igraph
Edge
p366
(dp367
g7
I1
sg8
I00
sg9
I5
sg10
(lp368
g362
a(igraph
Vertex
p369
(dp370
g14
F1.0
sg8
I00
sg15
g16
sg17
F-184.0
sg18
F-366.0
sg19
I4807777
sg20
S'11316.562838'
p371
sg22
F0.20000000000000001
sbasg26
I00
sg27
I00
sg28
I4807207
sg20
S'11316.7549585'
p372
sba(igraph
Edge
p373
(dp374
g7
I1
sg8
I00
sg9
I5
sg10
(lp375
g369
ag261
asg26
I00
sg27
I00
sg28
I4807208
sg20
S'11316.7561196'
p376
sba(igraph
Edge
p377
(dp378
g7
I1
sg8
I00
sg9
I5
sg10
(lp379
(igraph
Vertex
p380
(dp381
g14
F0.0
sg8
I00
sg15
g16
sg17
F-129.0
sg18
F217.0
sg19
I4807778
sg20
S'11316.5632914'
p382
sg22
F0.29999999999999999
sba(igraph
Vertex
p383
(dp384
g14
F0.0625
sg8
I00
sg15
g16
sg17
F-129.0
sg18
F180.5625
sg19
I4807779
sg20
S'11316.563775'
p385
sg22
F0.29999999999999999
sbasg26
I00
sg27
I00
sg28
I4807209
sg20
S'11316.757308'
p386
sba(igraph
Edge
p387
(dp388
g7
I1
sg8
I00
sg9
I5
sg10
(lp389
g383
a(igraph
Vertex
p390
(dp391
g14
F0.125
sg8
I00
sg15
g16
sg17
F-129.0
sg18
F144.125
sg19
I4807780
sg20
S'11316.5642399'
p392
sg22
F0.29999999999999999
sbasg26
I00
sg27
I00
sg28
I4807210
sg20
S'11316.7585045'
p393
sba(igraph
Edge
p394
(dp395
g7
I1
sg8
I00
sg9
I5
sg10
(lp396
g390
a(igraph
Vertex
p397
(dp398
g14
F0.1875
sg8
I00
sg15
g16
sg17
F-129.0
sg18
F107.6875
sg19
I4807781
sg20
S'11316.5646919'
p399
sg22
F0.29999999999999999
sbasg26
I00
sg27
I00
sg28
I4807211
sg20
S'11316.7597304'
p400
sba(igraph
Edge
p401
(dp402
g7
I1
sg8
I00
sg9
I5
sg10
(lp403
g397
a(igraph
Vertex
p404
(dp405
g14
F0.25
sg8
I00
sg15
g16
sg17
F-129.0
sg18
F71.25
sg19
I4807782
sg20
S'11316.5651785'
p406
sg22
F0.29999999999999999
sbasg26
I00
sg27
I00
sg28
I4807212
sg20
S'11316.760971'
p407
sba(igraph
Edge
p408
(dp409
g7
I1
sg8
I00
sg9
I5
sg10
(lp410
g404
a(igraph
Vertex
p411
(dp412
g14
F0.3125
sg8
I00
sg15
g16
sg17
F-129.0
sg18
F34.8125
sg19
I4807783
sg20
S'11316.5656859'
p413
sg22
F0.29999999999999999
sbasg26
I00
sg27
I00
sg28
I4807213
sg20
S'11316.7622321'
p414
sba(igraph
Edge
p415
(dp416
g7
I1
sg8
I00
sg9
I5
sg10
(lp417
g411
a(igraph
Vertex
p418
(dp419
g14
F0.375
sg8
I00
sg15
g16
sg17
F-129.0
sg18
F-1.625
sg19
I4807784
sg20
S'11316.5662038'
p420
sg22
F0.29999999999999999
sbasg26
I00
sg27
I00
sg28
I4807214
sg20
S'11316.7637317'
p421
sba(igraph
Edge
p422
(dp423
g7
I1
sg8
I00
sg9
I5
sg10
(lp424
g418
a(igraph
Vertex
p425
(dp426
g14
F0.4375
sg8
I00
sg15
g16
sg17
F-129.0
sg18
F-38.0625
sg19
I4807785
sg20
S'11316.5667262'
p427
sg22
F0.29999999999999999
sbasg26
I00
sg27
I00
sg28
I4807215
sg20
S'11316.7650824'
p428
sba(igraph
Edge
p429
(dp430
g7
I1
sg8
I00
sg9
I5
sg10
(lp431
g425
a(igraph
Vertex
p432
(dp433
g14
F0.5
sg8
I00
sg15
g16
sg17
F-129.0
sg18
F-74.5
sg19
I4807786
sg20
S'11316.5672433'
p434
sg22
F0.29999999999999999
sbasg26
I00
sg27
I00
sg28
I4807216
sg20
S'11316.7664022'
p435
sba(igraph
Edge
p436
(dp437
g7
I1
sg8
I00
sg9
I5
sg10
(lp438
g432
a(igraph
Vertex
p439
(dp440
g14
F0.5625
sg8
I00
sg15
g16
sg17
F-129.0
sg18
F-110.9375
sg19
I4807787
sg20
S'11316.5678163'
p441
sg22
F0.29999999999999999
sbasg26
I00
sg27
I00
sg28
I4807217
sg20
S'11316.7677481'
p442
sba(igraph
Edge
p443
(dp444
g7
I1
sg8
I00
sg9
I5
sg10
(lp445
g439
a(igraph
Vertex
p446
(dp447
g14
F0.625
sg8
I00
sg15
g16
sg17
F-129.0
sg18
F-147.375
sg19
I4807788
sg20
S'11316.5683415'
p448
sg22
F0.29999999999999999
sbasg26
I00
sg27
I00
sg28
I4807218
sg20
S'11316.7691204'
p449
sba(igraph
Edge
p450
(dp451
g7
I1
sg8
I00
sg9
I5
sg10
(lp452
g446
a(igraph
Vertex
p453
(dp454
g14
F0.6875
sg8
I00
sg15
g16
sg17
F-129.0
sg18
F-183.8125
sg19
I4807789
sg20
S'11316.5691123'
p455
sg22
F0.29999999999999999
sbasg26
I00
sg27
I00
sg28
I4807219
sg20
S'11316.7705169'
p456
sba(igraph
Edge
p457
(dp458
g7
I1
sg8
I00
sg9
I5
sg10
(lp459
g453
a(igraph
Vertex
p460
(dp461
g14
F0.75
sg8
I00
sg15
g16
sg17
F-129.0
sg18
F-220.25
sg19
I4807790
sg20
S'11316.5696302'
p462
sg22
F0.29999999999999999
sbasg26
I00
sg27
I00
sg28
I4807220
sg20
S'11316.7719355'
p463
sba(igraph
Edge
p464
(dp465
g7
I1
sg8
I00
sg9
I5
sg10
(lp466
g460
a(igraph
Vertex
p467
(dp468
g14
F0.8125
sg8
I00
sg15
g16
sg17
F-129.0
sg18
F-256.6875
sg19
I4807791
sg20
S'11316.5702121'
p469
sg22
F0.29999999999999999
sbasg26
I00
sg27
I00
sg28
I4807221
sg20
S'11316.7733793'
p470
sba(igraph
Edge
p471
(dp472
g7
I1
sg8
I00
sg9
I5
sg10
(lp473
g467
a(igraph
Vertex
p474
(dp475
g14
F0.875
sg8
I00
sg15
g16
sg17
F-129.0
sg18
F-293.125
sg19
I4807792
sg20
S'11316.5708027'
p476
sg22
F0.29999999999999999
sbasg26
I00
sg27
I00
sg28
I4807222
sg20
S'11316.7750055'
p477
sba(igraph
Edge
p478
(dp479
g7
I1
sg8
I00
sg9
I5
sg10
(lp480
g474
a(igraph
Vertex
p481
(dp482
g14
F0.9375
sg8
I00
sg15
g16
sg17
F-129.0
sg18
F-329.5625
sg19
I4807793
sg20
S'11316.5714008'
p483
sg22
F0.29999999999999999
sbasg26
I00
sg27
I00
sg28
I4807223
sg20
S'11316.7764844'
p484
sba(igraph
Edge
p485
(dp486
g7
I1
sg8
I00
sg9
I5
sg10
(lp487
g481
a(igraph
Vertex
p488
(dp489
g14
F1.0
sg8
I00
sg15
g16
sg17
F-129.0
sg18
F-366.0
sg19
I4807794
sg20
S'11316.5723585'
p490
sg22
F0.29999999999999999
sbasg26
I00
sg27
I00
sg28
I4807224
sg20
S'11316.7779933'
p491
sba(igraph
Edge
p492
(dp493
g7
I1
sg8
I00
sg9
I5
sg10
(lp494
g488
ag380
asg26
I00
sg27
I00
sg28
I4807225
sg20
S'11316.779827'
p495
sba(igraph
Edge
p496
(dp497
g7
I1
sg8
I00
sg9
I5
sg10
(lp498
(igraph
Vertex
p499
(dp500
g14
F0.0
sg8
I00
sg15
g16
sg17
F-74.0
sg18
F217.0
sg19
I4807795
sg20
S'11316.5731189'
p501
sg22
F0.40000000000000002
sba(igraph
Vertex
p502
(dp503
g14
F0.0625
sg8
I00
sg15
g16
sg17
F-74.0
sg18
F180.5625
sg19
I4807796
sg20
S'11316.5737687'
p504
sg22
F0.40000000000000002
sbasg26
I00
sg27
I00
sg28
I4807226
sg20
S'11316.7813865'
p505
sba(igraph
Edge
p506
(dp507
g7
I1
sg8
I00
sg9
I5
sg10
(lp508
g502
a(igraph
Vertex
p509
(dp510
g14
F0.125
sg8
I00
sg15
g16
sg17
F-74.0
sg18
F144.125
sg19
I4807797
sg20
S'11316.574406'
p511
sg22
F0.40000000000000002
sbasg26
I00
sg27
I00
sg28
I4807227
sg20
S'11316.7829646'
p512
sba(igraph
Edge
p513
(dp514
g7
I1
sg8
I00
sg9
I5
sg10
(lp515
g509
a(igraph
Vertex
p516
(dp517
g14
F0.1875
sg8
I00
sg15
g16
sg17
F-74.0
sg18
F107.6875
sg19
I4807798
sg20
S'11316.5751362'
p518
sg22
F0.40000000000000002
sbasg26
I00
sg27
I00
sg28
I4807228
sg20
S'11316.7845668'
p519
sba(igraph
Edge
p520
(dp521
g7
I1
sg8
I00
sg9
I5
sg10
(lp522
g516
a(igraph
Vertex
p523
(dp524
g14
F0.25
sg8
I00
sg15
g16
sg17
F-74.0
sg18
F71.25
sg19
I4807799
sg20
S'11316.5757888'
p525
sg22
F0.40000000000000002
sbasg26
I00
sg27
I00
sg28
I4807229
sg20
S'11316.7861924'
p526
sba(igraph
Edge
p527
(dp528
g7
I1
sg8
I00
sg9
I5
sg10
(lp529
g523
a(igraph
Vertex
p530
(dp531
g14
F0.3125
sg8
I00
sg15
g16
sg17
F-74.0
sg18
F34.8125
sg19
I4807800
sg20
S'11316.5764677'
p532
sg22
F0.40000000000000002
sbasg26
I00
sg27
I00
sg28
I4807230
sg20
S'11316.7878431'
p533
sba(igraph
Edge
p534
(dp535
g7
I1
sg8
I00
sg9
I5
sg10
(lp536
g530
a(igraph
Vertex
p537
(dp538
g14
F0.375
sg8
I00
sg15
g16
sg17
F-74.0
sg18
F-1.625
sg19
I4807801
sg20
S'11316.5772234'
p539
sg22
F0.40000000000000002
sbasg26
I00
sg27
I00
sg28
I4807231
sg20
S'11316.7895124'
p540
sba(igraph
Edge
p541
(dp542
g7
I1
sg8
I00
sg9
I5
sg10
(lp543
g537
a(igraph
Vertex
p544
(dp545
g14
F0.4375
sg8
I01
sg15
I0
sg17
F-74.0
sg18
F-38.0625
sg19
I4807803
sg20
S'11316.5779589'
p546
sg22
F0.40000000000000002
sbasg26
I00
sg27
I00
sg28
I4807232
sg20
S'11316.7911818'
p547
sba(igraph
Edge
p548
(dp549
g7
I1
sg8
I00
sg9
I5
sg10
(lp550
g544
a(igraph
Vertex
p551
(dp552
g14
F0.5
sg8
I00
sg15
g16
sg17
F-74.0
sg18
F-74.5
sg19
I4807805
sg20
S'11316.5786411'
p553
sg22
F0.40000000000000002
sbasg26
I00
sg27
I00
sg28
I4807233
sg20
S'11316.7928787'
p554
sba(igraph
Edge
p555
(dp556
g7
I1
sg8
I00
sg9
I5
sg10
(lp557
g551
a(igraph
Vertex
p558
(dp559
g14
F0.5625
sg8
I00
sg15
g16
sg17
F-74.0
sg18
F-110.9375
sg19
I4807806
sg20
S'11316.5793284'
p560
sg22
F0.40000000000000002
sbasg26
I00
sg27
I00
sg28
I4807234
sg20
S'11316.794599'
p561
sba(igraph
Edge
p562
(dp563
g7
I1
sg8
I00
sg9
I5
sg10
(lp564
g558
a(igraph
Vertex
p565
(dp566
g14
F0.625
sg8
I00
sg15
g16
sg17
F-74.0
sg18
F-147.375
sg19
I4807807
sg20
S'11316.5800156'
p567
sg22
F0.40000000000000002
sbasg26
I00
sg27
I00
sg28
I4807235
sg20
S'11316.7965688'
p568
sba(igraph
Edge
p569
(dp570
g7
I1
sg8
I00
sg9
I5
sg10
(lp571
g565
a(igraph
Vertex
p572
(dp573
g14
F0.6875
sg8
I00
sg15
g16
sg17
F-74.0
sg18
F-183.8125
sg19
I4807808
sg20
S'11316.5808682'
p574
sg22
F0.40000000000000002
sbasg26
I00
sg27
I00
sg28
I4807236
sg20
S'11316.7983308'
p575
sba(igraph
Edge
p576
(dp577
g7
I1
sg8
I00
sg9
I5
sg10
(lp578
g572
a(igraph
Vertex
p579
(dp580
g14
F0.75
sg8
I00
sg15
g16
sg17
F-74.0
sg18
F-220.25
sg19
I4807809
sg20
S'11316.5815569'
p581
sg22
F0.40000000000000002
sbasg26
I00
sg27
I00
sg28
I4807237
sg20
S'11316.800107'
p582
sba(igraph
Edge
p583
(dp584
g7
I1
sg8
I00
sg9
I5
sg10
(lp585
g579
a(igraph
Vertex
p586
(dp587
g14
F0.8125
sg8
I00
sg15
g16
sg17
F-74.0
sg18
F-256.6875
sg19
I4807810
sg20
S'11316.5822586'
p588
sg22
F0.40000000000000002
sbasg26
I00
sg27
I00
sg28
I4807238
sg20
S'11316.8019287'
p589
sba(igraph
Edge
p590
(dp591
g7
I1
sg8
I00
sg9
I5
sg10
(lp592
g586
a(igraph
Vertex
p593
(dp594
g14
F0.875
sg8
I00
sg15
g16
sg17
F-74.0
sg18
F-293.125
sg19
I4807811
sg20
S'11316.582978'
p595
sg22
F0.40000000000000002
sbasg26
I00
sg27
I00
sg28
I4807239
sg20
S'11316.8037617'
p596
sba(igraph
Edge
p597
(dp598
g7
I1
sg8
I00
sg9
I5
sg10
(lp599
g593
a(igraph
Vertex
p600
(dp601
g14
F0.9375
sg8
I00
sg15
g16
sg17
F-74.0
sg18
F-329.5625
sg19
I4807812
sg20
S'11316.5837239'
p602
sg22
F0.40000000000000002
sbasg26
I00
sg27
I00
sg28
I4807240
sg20
S'11316.8057175'
p603
sba(igraph
Edge
p604
(dp605
g7
I1
sg8
I00
sg9
I5
sg10
(lp606
g600
a(igraph
Vertex
p607
(dp608
g14
F1.0
sg8
I00
sg15
g16
sg17
F-74.0
sg18
F-366.0
sg19
I4807813
sg20
S'11316.584514'
p609
sg22
F0.40000000000000002
sbasg26
I00
sg27
I00
sg28
I4807241
sg20
S'11316.8076043'
p610
sba(igraph
Edge
p611
(dp612
g7
I1
sg8
I00
sg9
I5
sg10
(lp613
g607
ag499
asg26
I00
sg27
I00
sg28
I4807242
sg20
S'11316.809499'
p614
sba(igraph
Edge
p615
(dp616
g7
I1
sg8
I00
sg9
I5
sg10
(lp617
(igraph
Vertex
p618
(dp619
g14
F0.0
sg8
I00
sg15
g16
sg17
F-19.0
sg18
F217.0
sg19
I4807814
sg20
S'11316.5852696'
p620
sg22
F0.5
sba(igraph
Vertex
p621
(dp622
g14
F0.0625
sg8
I00
sg15
g16
sg17
F-19.0
sg18
F180.5625
sg19
I4807815
sg20
S'11316.5860692'
p623
sg22
F0.5
sbasg26
I00
sg27
I00
sg28
I4807243
sg20
S'11316.8115428'
p624
sba(igraph
Edge
p625
(dp626
g7
I1
sg8
I00
sg9
I5
sg10
(lp627
g621
a(igraph
Vertex
p628
(dp629
g14
F0.125
sg8
I00
sg15
g16
sg17
F-19.0
sg18
F144.125
sg19
I4807816
sg20
S'11316.5868503'
p630
sg22
F0.5
sbasg26
I00
sg27
I00
sg28
I4807244
sg20
S'11316.8136397'
p631
sba(igraph
Edge
p632
(dp633
g7
I1
sg8
I00
sg9
I5
sg10
(lp634
g628
a(igraph
Vertex
p635
(dp636
g14
F0.1875
sg8
I00
sg15
g16
sg17
F-19.0
sg18
F107.6875
sg19
I4807817
sg20
S'11316.5876965'
p637
sg22
F0.5
sbasg26
I00
sg27
I00
sg28
I4807245
sg20
S'11316.8157338'
p638
sba(igraph
Edge
p639
(dp640
g7
I1
sg8
I00
sg9
I5
sg10
(lp641
g635
a(igraph
Vertex
p642
(dp643
g14
F0.25
sg8
I00
sg15
g16
sg17
F-19.0
sg18
F71.25
sg19
I4807818
sg20
S'11316.588508'
p644
sg22
F0.5
sbasg26
I00
sg27
I00
sg28
I4807246
sg20
S'11316.8177835'
p645
sba(igraph
Edge
p646
(dp647
g7
I1
sg8
I00
sg9
I5
sg10
(lp648
g642
a(igraph
Vertex
p649
(dp650
g14
F0.3125
sg8
I00
sg15
g16
sg17
F-19.0
sg18
F34.8125
sg19
I4807819
sg20
S'11316.5892852'
p651
sg22
F0.5
sbasg26
I00
sg27
I00
sg28
I4807247
sg20
S'11316.8198022'
p652
sba(igraph
Edge
p653
(dp654
g7
I1
sg8
I00
sg9
I5
sg10
(lp655
g649
a(igraph
Vertex
p656
(dp657
g14
F0.375
sg8
I00
sg15
g16
sg17
F-19.0
sg18
F-1.625
sg19
I4807820
sg20
S'11316.5900638'
p658
sg22
F0.5
sbasg26
I00
sg27
I00
sg28
I4807248
sg20
S'11316.8221439'
p659
sba(igraph
Edge
p660
(dp661
g7
I1
sg8
I00
sg9
I5
sg10
(lp662
g656
a(igraph
Vertex
p663
(dp664
g14
F0.4375
sg8
I00
sg15
g16
sg17
F-19.0
sg18
F-38.0625
sg19
I4807821
sg20
S'11316.5910098'
p665
sg22
F0.5
sbasg26
I00
sg27
I00
sg28
I4807249
sg20
S'11316.8242645'
p666
sba(igraph
Edge
p667
(dp668
g7
I1
sg8
I00
sg9
I5
sg10
(lp669
g663
a(igraph
Vertex
p670
(dp671
g14
F0.5
sg8
I00
sg15
g16
sg17
F-19.0
sg18
F-74.5
sg19
I4807822
sg20
S'11316.5918227'
p672
sg22
F0.5
sbasg26
I00
sg27
I00
sg28
I4807250
sg20
S'11316.8266931'
p673
sba(igraph
Edge
p674
(dp675
g7
I1
sg8
I00
sg9
I5
sg10
(lp676
g670
a(igraph
Vertex
p677
(dp678
g14
F0.5625
sg8
I01
sg15
I0
sg17
F-19.0
sg18
F-110.9375
sg19
I4807824
sg20
S'11316.5926507'
p679
sg22
F0.5
sbasg26
I00
sg27
I00
sg28
I4807251
sg20
S'11316.8291084'
p680
sba(igraph
Edge
p681
(dp682
g7
I1
sg8
I00
sg9
I5
sg10
(lp683
g677
a(igraph
Vertex
p684
(dp685
g14
F0.625
sg8
I00
sg15
g16
sg17
F-19.0
sg18
F-147.375
sg19
I4807826
sg20
S'11316.5934897'
p686
sg22
F0.5
sbasg26
I00
sg27
I00
sg28
I4807252
sg20
S'11316.8317496'
p687
sba(igraph
Edge
p688
(dp689
g7
I1
sg8
I00
sg9
I5
sg10
(lp690
g684
a(igraph
Vertex
p691
(dp692
g14
F0.6875
sg8
I00
sg15
g16
sg17
F-19.0
sg18
F-183.8125
sg19
I4807827
sg20
S'11316.5943367'
p693
sg22
F0.5
sbasg26
I00
sg27
I00
sg28
I4807253
sg20
S'11316.8338842'
p694
sba(igraph
Edge
p695
(dp696
g7
I1
sg8
I00
sg9
I5
sg10
(lp697
g691
a(igraph
Vertex
p698
(dp699
g14
F0.75
sg8
I00
sg15
g16
sg17
F-19.0
sg18
F-220.25
sg19
I4807828
sg20
S'11316.5951857'
p700
sg22
F0.5
sbasg26
I00
sg27
I00
sg28
I4807254
sg20
S'11316.8360155'
p701
sba(igraph
Edge
p702
(dp703
g7
I1
sg8
I00
sg9
I5
sg10
(lp704
g698
a(igraph
Vertex
p705
(dp706
g14
F0.8125
sg8
I00
sg15
g16
sg17
F-19.0
sg18
F-256.6875
sg19
I4807829
sg20
S'11316.5960459'
p707
sg22
F0.5
sbasg26
I00
sg27
I00
sg28
I4807255
sg20
S'11316.8386326'
p708
sba(igraph
Edge
p709
(dp710
g7
I1
sg8
I00
sg9
I5
sg10
(lp711
g705
a(igraph
Vertex
p712
(dp713
g14
F0.875
sg8
I00
sg15
g16
sg17
F-19.0
sg18
F-293.125
sg19
I4807830
sg20
S'11316.5969136'
p714
sg22
F0.5
sbasg26
I00
sg27
I00
sg28
I4807256
sg20
S'11316.8412656'
p715
sba(igraph
Edge
p716
(dp717
g7
I1
sg8
I00
sg9
I5
sg10
(lp718
g712
a(igraph
Vertex
p719
(dp720
g14
F0.9375
sg8
I00
sg15
g16
sg17
F-19.0
sg18
F-329.5625
sg19
I4807831
sg20
S'11316.597795'
p721
sg22
F0.5
sbasg26
I00
sg27
I00
sg28
I4807257
sg20
S'11316.843605'
p722
sba(igraph
Edge
p723
(dp724
g7
I1
sg8
I00
sg9
I5
sg10
(lp725
g719
a(igraph
Vertex
p726
(dp727
g14
F1.0
sg8
I00
sg15
g16
sg17
F-19.0
sg18
F-366.0
sg19
I4807832
sg20
S'11316.5986845'
p728
sg22
F0.5
sbasg26
I00
sg27
I00
sg28
I4807258
sg20
S'11316.8460564'
p729
sba(igraph
Edge
p730
(dp731
g7
I1
sg8
I00
sg9
I5
sg10
(lp732
g726
ag618
asg26
I00
sg27
I00
sg28
I4807259
sg20
S'11316.8484802'
p733
sba(igraph
Edge
p734
(dp735
g7
I1
sg8
I00
sg9
I5
sg10
(lp736
(igraph
Vertex
p737
(dp738
g14
F0.0
sg8
I00
sg15
g16
sg17
F36.0
sg18
F217.0
sg19
I4807833
sg20
S'11316.5995854'
p739
sg22
F0.59999999999999998
sba(igraph
Vertex
p740
(dp741
g14
F0.0625
sg8
I00
sg15
g16
sg17
F36.0
sg18
F180.5625
sg19
I4807834
sg20
S'11316.600497'
p742
sg22
F0.59999999999999998
sbasg26
I00
sg27
I00
sg28
I4807260
sg20
S'11316.8507827'
p743
sba(igraph
Edge
p744
(dp745
g7
I1
sg8
I00
sg9
I5
sg10
(lp746
g740
a(igraph
Vertex
p747
(dp748
g14
F0.125
sg8
I00
sg15
g16
sg17
F36.0
sg18
F144.125
sg19
I4807835
sg20
S'11316.6014136'
p749
sg22
F0.59999999999999998
sbasg26
I00
sg27
I00
sg28
I4807261
sg20
S'11316.8534297'
p750
sba(igraph
Edge
p751
(dp752
g7
I1
sg8
I00
sg9
I5
sg10
(lp753
g747
a(igraph
Vertex
p754
(dp755
g14
F0.1875
sg8
I00
sg15
g16
sg17
F36.0
sg18
F107.6875
sg19
I4807836
sg20
S'11316.6023377'
p756
sg22
F0.59999999999999998
sbasg26
I00
sg27
I00
sg28
I4807262
sg20
S'11316.8563907'
p757
sba(igraph
Edge
p758
(dp759
g7
I1
sg8
I00
sg9
I5
sg10
(lp760
g754
a(igraph
Vertex
p761
(dp762
g14
F0.25
sg8
I00
sg15
g16
sg17
F36.0
sg18
F71.25
sg19
I4807837
sg20
S'11316.6032702'
p763
sg22
F0.59999999999999998
sbasg26
I00
sg27
I00
sg28
I4807263
sg20
S'11316.8593114'
p764
sba(igraph
Edge
p765
(dp766
g7
I1
sg8
I00
sg9
I5
sg10
(lp767
g761
a(igraph
Vertex
p768
(dp769
g14
F0.3125
sg8
I00
sg15
g16
sg17
F36.0
sg18
F34.8125
sg19
I4807838
sg20
S'11316.6043'
p770
sg22
F0.59999999999999998
sbasg26
I00
sg27
I00
sg28
I4807264
sg20
S'11316.8619442'
p771
sba(igraph
Edge
p772
(dp773
g7
I1
sg8
I00
sg9
I5
sg10
(lp774
g768
a(igraph
Vertex
p775
(dp776
g14
F0.375
sg8
I00
sg15
g16
sg17
F36.0
sg18
F-1.625
sg19
I4807839
sg20
S'11316.6052317'
p777
sg22
F0.59999999999999998
sbasg26
I00
sg27
I00
sg28
I4807265
sg20
S'11316.8644847'
p778
sba(igraph
Edge
p779
(dp780
g7
I1
sg8
I00
sg9
I5
sg10
(lp781
g775
a(igraph
Vertex
p782
(dp783
g14
F0.4375
sg8
I00
sg15
g16
sg17
F36.0
sg18
F-38.0625
sg19
I4807840
sg20
S'11316.6061818'
p784
sg22
F0.59999999999999998
sbasg26
I00
sg27
I00
sg28
I4807266
sg20
S'11316.8672161'
p785
sba(igraph
Edge
p786
(dp787
g7
I1
sg8
I00
sg9
I5
sg10
(lp788
g782
a(igraph
Vertex
p789
(dp790
g14
F0.5
sg8
I00
sg15
g16
sg17
F36.0
sg18
F-74.5
sg19
I4807841
sg20
S'11316.6071445'
p791
sg22
F0.59999999999999998
sbasg26
I00
sg27
I00
sg28
I4807267
sg20
S'11316.8696826'
p792
sba(igraph
Edge
p793
(dp794
g7
I1
sg8
I00
sg9
I5
sg10
(lp795
g789
a(igraph
Vertex
p796
(dp797
g14
F0.5625
sg8
I00
sg15
g16
sg17
F36.0
sg18
F-110.9375
sg19
I4807842
sg20
S'11316.6081049'
p798
sg22
F0.59999999999999998
sbasg26
I00
sg27
I00
sg28
I4807268
sg20
S'11316.8723533'
p799
sba(igraph
Edge
p800
(dp801
g7
I1
sg8
I00
sg9
I5
sg10
(lp802
g796
a(igraph
Vertex
p803
(dp804
g14
F0.625
sg8
I00
sg15
g16
sg17
F36.0
sg18
F-147.375
sg19
I4807843
sg20
S'11316.6091771'
p805
sg22
F0.59999999999999998
sbasg26
I00
sg27
I00
sg28
I4807269
sg20
S'11316.8752967'
p806
sba(igraph
Edge
p807
(dp808
g7
I1
sg8
I00
sg9
I5
sg10
(lp809
g803
a(igraph
Vertex
p810
(dp811
g14
F0.6875
sg8
I01
sg15
I0
sg17
F36.0
sg18
F-183.8125
sg19
I4807845
sg20
S'11316.610187'
p812
sg22
F0.59999999999999998
sbasg26
I00
sg27
I00
sg28
I4807270
sg20
S'11316.878275'
p813
sba(igraph
Edge
p814
(dp815
g7
I1
sg8
I00
sg9
I5
sg10
(lp816
g810
a(igraph
Vertex
p817
(dp818
g14
F0.75
sg8
I00
sg15
g16
sg17
F36.0
sg18
F-220.25
sg19
I4807847
sg20
S'11316.6112998'
p819
sg22
F0.59999999999999998
sbasg26
I00
sg27
I00
sg28
I4807271
sg20
S'11316.8818825'
p820
sba(igraph
Edge
p821
(dp822
g7
I1
sg8
I00
sg9
I5
sg10
(lp823
g817
a(igraph
Vertex
p824
(dp825
g14
F0.8125
sg8
I00
sg15
g16
sg17
F36.0
sg18
F-256.6875
sg19
I4807848
sg20
S'11316.6123658'
p826
sg22
F0.59999999999999998
sbasg26
I00
sg27
I00
sg28
I4807272
sg20
S'11316.8847309'
p827
sba(igraph
Edge
p828
(dp829
g7
I1
sg8
I00
sg9
I5
sg10
(lp830
g824
a(igraph
Vertex
p831
(dp832
g14
F0.875
sg8
I00
sg15
g16
sg17
F36.0
sg18
F-293.125
sg19
I4807849
sg20
S'11316.6134841'
p833
sg22
F0.59999999999999998
sbasg26
I00
sg27
I00
sg28
I4807273
sg20
S'11316.8877662'
p834
sba(igraph
Edge
p835
(dp836
g7
I1
sg8
I00
sg9
I5
sg10
(lp837
g831
a(igraph
Vertex
p838
(dp839
g14
F0.9375
sg8
I00
sg15
g16
sg17
F36.0
sg18
F-329.5625
sg19
I4807850
sg20
S'11316.6147242'
p840
sg22
F0.59999999999999998
sbasg26
I00
sg27
I00
sg28
I4807274
sg20
S'11316.8928671'
p841
sba(igraph
Edge
p842
(dp843
g7
I1
sg8
I00
sg9
I5
sg10
(lp844
g838
a(igraph
Vertex
p845
(dp846
g14
F1.0
sg8
I00
sg15
g16
sg17
F36.0
sg18
F-366.0
sg19
I4807851
sg20
S'11316.6157721'
p847
sg22
F0.59999999999999998
sbasg26
I00
sg27
I00
sg28
I4807275
sg20
S'11316.8956535'
p848
sba(igraph
Edge
p849
(dp850
g7
I1
sg8
I00
sg9
I5
sg10
(lp851
g845
ag737
asg26
I00
sg27
I00
sg28
I4807276
sg20
S'11316.8984192'
p852
sba(igraph
Edge
p853
(dp854
g7
I1
sg8
I00
sg9
I5
sg10
(lp855
(igraph
Vertex
p856
(dp857
g14
F0.0
sg8
I00
sg15
g16
sg17
F91.0
sg18
F217.0
sg19
I4807852
sg20
S'11316.6214927'
p858
sg22
F0.69999999999999996
sba(igraph
Vertex
p859
(dp860
g14
F0.0625
sg8
I00
sg15
g16
sg17
F91.0
sg18
F180.5625
sg19
I4807853
sg20
S'11316.6226596'
p861
sg22
F0.69999999999999996
sbasg26
I00
sg27
I00
sg28
I4807277
sg20
S'11316.9015894'
p862
sba(igraph
Edge
p863
(dp864
g7
I1
sg8
I00
sg9
I5
sg10
(lp865
g859
a(igraph
Vertex
p866
(dp867
g14
F0.125
sg8
I00
sg15
g16
sg17
F91.0
sg18
F144.125
sg19
I4807854
sg20
S'11316.6237553'
p868
sg22
F0.69999999999999996
sbasg26
I00
sg27
I00
sg28
I4807278
sg20
S'11316.9044376'
p869
sba(igraph
Edge
p870
(dp871
g7
I1
sg8
I00
sg9
I5
sg10
(lp872
g866
a(igraph
Vertex
p873
(dp874
g14
F0.1875
sg8
I00
sg15
g16
sg17
F91.0
sg18
F107.6875
sg19
I4807855
sg20
S'11316.6249202'
p875
sg22
F0.69999999999999996
sbasg26
I00
sg27
I00
sg28
I4807279
sg20
S'11316.9076478'
p876
sba(igraph
Edge
p877
(dp878
g7
I1
sg8
I00
sg9
I5
sg10
(lp879
g873
a(igraph
Vertex
p880
(dp881
g14
F0.25
sg8
I00
sg15
g16
sg17
F91.0
sg18
F71.25
sg19
I4807856
sg20
S'11316.6260293'
p882
sg22
F0.69999999999999996
sbasg26
I00
sg27
I00
sg28
I4807280
sg20
S'11316.9106241'
p883
sba(igraph
Edge
p884
(dp885
g7
I1
sg8
I00
sg9
I5
sg10
(lp886
g880
a(igraph
Vertex
p887
(dp888
g14
F0.3125
sg8
I00
sg15
g16
sg17
F91.0
sg18
F34.8125
sg19
I4807857
sg20
S'11316.6272663'
p889
sg22
F0.69999999999999996
sbasg26
I00
sg27
I00
sg28
I4807281
sg20
S'11316.9134968'
p890
sba(igraph
Edge
p891
(dp892
g7
I1
sg8
I00
sg9
I5
sg10
(lp893
g887
a(igraph
Vertex
p894
(dp895
g14
F0.375
sg8
I00
sg15
g16
sg17
F91.0
sg18
F-1.625
sg19
I4807858
sg20
S'11316.6285561'
p896
sg22
F0.69999999999999996
sbasg26
I00
sg27
I00
sg28
I4807282
sg20
S'11316.9163908'
p897
sba(igraph
Edge
p898
(dp899
g7
I1
sg8
I00
sg9
I5
sg10
(lp900
g894
a(igraph
Vertex
p901
(dp902
g14
F0.4375
sg8
I00
sg15
g16
sg17
F91.0
sg18
F-38.0625
sg19
I4807859
sg20
S'11316.6296876'
p903
sg22
F0.69999999999999996
sbasg26
I00
sg27
I00
sg28
I4807283
sg20
S'11316.91928'
p904
sba(igraph
Edge
p905
(dp906
g7
I1
sg8
I00
sg9
I5
sg10
(lp907
g901
a(igraph
Vertex
p908
(dp909
g14
F0.5
sg8
I00
sg15
g16
sg17
F91.0
sg18
F-74.5
sg19
I4807860
sg20
S'11316.6308285'
p910
sg22
F0.69999999999999996
sbasg26
I00
sg27
I00
sg28
I4807284
sg20
S'11316.9226818'
p911
sba(igraph
Edge
p912
(dp913
g7
I1
sg8
I00
sg9
I5
sg10
(lp914
g908
a(igraph
Vertex
p915
(dp916
g14
F0.5625
sg8
I00
sg15
g16
sg17
F91.0
sg18
F-110.9375
sg19
I4807861
sg20
S'11316.6321169'
p917
sg22
F0.69999999999999996
sbasg26
I00
sg27
I00
sg28
I4807285
sg20
S'11316.9256858'
p918
sba(igraph
Edge
p919
(dp920
g7
I1
sg8
I00
sg9
I5
sg10
(lp921
g915
a(igraph
Vertex
p922
(dp923
g14
F0.625
sg8
I01
sg15
I0
sg17
F91.0
sg18
F-147.375
sg19
I4807863
sg20
S'11316.6334671'
p924
sg22
F0.69999999999999996
sbasg26
I00
sg27
I00
sg28
I4807286
sg20
S'11316.9290214'
p925
sba(igraph
Edge
p926
(dp927
g7
I1
sg8
I00
sg9
I5
sg10
(lp928
g922
a(igraph
Vertex
p929
(dp930
g14
F0.6875
sg8
I00
sg15
g16
sg17
F91.0
sg18
F-183.8125
sg19
I4807865
sg20
S'11316.6345893'
p931
sg22
F0.69999999999999996
sbasg26
I00
sg27
I00
sg28
I4807287
sg20
S'11316.9359826'
p932
sba(igraph
Edge
p933
(dp934
g7
I1
sg8
I00
sg9
I5
sg10
(lp935
g929
a(igraph
Vertex
p936
(dp937
g14
F0.75
sg8
I00
sg15
g16
sg17
F91.0
sg18
F-220.25
sg19
I4807866
sg20
S'11316.6357149'
p938
sg22
F0.69999999999999996
sbasg26
I00
sg27
I00
sg28
I4807288
sg20
S'11316.9389928'
p939
sba(igraph
Edge
p940
(dp941
g7
I1
sg8
I00
sg9
I5
sg10
(lp942
g936
a(igraph
Vertex
p943
(dp944
g14
F0.8125
sg8
I00
sg15
g16
sg17
F91.0
sg18
F-256.6875
sg19
I4807867
sg20
S'11316.6368402'
p945
sg22
F0.69999999999999996
sbasg26
I00
sg27
I00
sg28
I4807289
sg20
S'11316.9423494'
p946
sba(igraph
Edge
p947
(dp948
g7
I1
sg8
I00
sg9
I5
sg10
(lp949
g943
a(igraph
Vertex
p950
(dp951
g14
F0.875
sg8
I00
sg15
g16
sg17
F91.0
sg18
F-293.125
sg19
I4807868
sg20
S'11316.637978'
p952
sg22
F0.69999999999999996
sbasg26
I00
sg27
I00
sg28
I4807290
sg20
S'11316.9456978'
p953
sba(igraph
Edge
p954
(dp955
g7
I1
sg8
I00
sg9
I5
sg10
(lp956
g950
a(igraph
Vertex
p957
(dp958
g14
F0.9375
sg8
I00
sg15
g16
sg17
F91.0
sg18
F-329.5625
sg19
I4807869
sg20
S'11316.6391301'
p959
sg22
F0.69999999999999996
sbasg26
I00
sg27
I00
sg28
I4807291
sg20
S'11316.9487211'
p960
sba(igraph
Edge
p961
(dp962
g7
I1
sg8
I00
sg9
I5
sg10
(lp963
g957
a(igraph
Vertex
p964
(dp965
g14
F1.0
sg8
I00
sg15
g16
sg17
F91.0
sg18
F-366.0
sg19
I4807870
sg20
S'11316.6402951'
p966
sg22
F0.69999999999999996
sbasg26
I00
sg27
I00
sg28
I4807292
sg20
S'11316.9517517'
p967
sba(igraph
Edge
p968
(dp969
g7
I1
sg8
I00
sg9
I5
sg10
(lp970
g964
ag856
asg26
I00
sg27
I00
sg28
I4807293
sg20
S'11316.9548188'
p971
sba(igraph
Edge
p972
(dp973
g7
I1
sg8
I00
sg9
I5
sg10
(lp974
(igraph
Vertex
p975
(dp976
g14
F0.0
sg8
I00
sg15
g16
sg17
F146.0
sg18
F217.0
sg19
I4807871
sg20
S'11316.6414634'
p977
sg22
F0.80000000000000004
sba(igraph
Vertex
p978
(dp979
g14
F0.0625
sg8
I00
sg15
g16
sg17
F146.0
sg18
F180.5625
sg19
I4807872
sg20
S'11316.6427599'
p980
sg22
F0.80000000000000004
sbasg26
I00
sg27
I00
sg28
I4807294
sg20
S'11316.9579374'
p981
sba(igraph
Edge
p982
(dp983
g7
I1
sg8
I00
sg9
I5
sg10
(lp984
g978
a(igraph
Vertex
p985
(dp986
g14
F0.125
sg8
I00
sg15
g16
sg17
F146.0
sg18
F144.125
sg19
I4807873
sg20
S'11316.6439441'
p987
sg22
F0.80000000000000004
sbasg26
I00
sg27
I00
sg28
I4807295
sg20
S'11316.9613945'
p988
sba(igraph
Edge
p989
(dp990
g7
I1
sg8
I00
sg9
I5
sg10
(lp991
g985
a(igraph
Vertex
p992
(dp993
g14
F0.1875
sg8
I00
sg15
g16
sg17
F146.0
sg18
F107.6875
sg19
I4807874
sg20
S'11316.6451398'
p994
sg22
F0.80000000000000004
sbasg26
I00
sg27
I00
sg28
I4807296
sg20
S'11316.9645488'
p995
sba(igraph
Edge
p996
(dp997
g7
I1
sg8
I00
sg9
I5
sg10
(lp998
g992
a(igraph
Vertex
p999
(dp1000
g14
F0.25
sg8
I00
sg15
g16
sg17
F146.0
sg18
F71.25
sg19
I4807875
sg20
S'11316.6464062'
p1001
sg22
F0.80000000000000004
sbasg26
I00
sg27
I00
sg28
I4807297
sg20
S'11316.9681345'
p1002
sba(igraph
Edge
p1003
(dp1004
g7
I1
sg8
I00
sg9
I5
sg10
(lp1005
g999
a(igraph
Vertex
p1006
(dp1007
g14
F0.3125
sg8
I00
sg15
g16
sg17
F146.0
sg18
F34.8125
sg19
I4807876
sg20
S'11316.6476133'
p1008
sg22
F0.80000000000000004
sbasg26
I00
sg27
I00
sg28
I4807298
sg20
S'11316.9713167'
p1009
sba(igraph
Edge
p1010
(dp1011
g7
I1
sg8
I00
sg9
I5
sg10
(lp1012
g1006
a(igraph
Vertex
p1013
(dp1014
g14
F0.375
sg8
I00
sg15
g16
sg17
F146.0
sg18
F-1.625
sg19
I4807877
sg20
S'11316.6488322'
p1015
sg22
F0.80000000000000004
sbasg26
I00
sg27
I00
sg28
I4807299
sg20
S'11316.9745253'
p1016
sba(igraph
Edge
p1017
(dp1018
g7
I1
sg8
I00
sg9
I5
sg10
(lp1019
g1013
a(igraph
Vertex
p1020
(dp1021
g14
F0.4375
sg8
I00
sg15
g16
sg17
F146.0
sg18
F-38.0625
sg19
I4807878
sg20
S'11316.6500555'
p1022
sg22
F0.80000000000000004
sbasg26
I00
sg27
I00
sg28
I4807300
sg20
S'11316.9780626'
p1023
sba(igraph
Edge
p1024
(dp1025
g7
I1
sg8
I00
sg9
I5
sg10
(lp1026
g1020
a(igraph
Vertex
p1027
(dp1028
g14
F0.5
sg8
I00
sg15
g16
sg17
F146.0
sg18
F-74.5
sg19
I4807879
sg20
S'11316.6512962'
p1029
sg22
F0.80000000000000004
sbasg26
I00
sg27
I00
sg28
I4807301
sg20
S'11316.9814331'
p1030
sba(igraph
Edge
p1031
(dp1032
g7
I1
sg8
I00
sg9
I5
sg10
(lp1033
g1027
a(igraph
Vertex
p1034
(dp1035
g14
F0.5625
sg8
I00
sg15
g16
sg17
F146.0
sg18
F-110.9375
sg19
I4807880
sg20
S'11316.6525315'
p1036
sg22
F0.80000000000000004
sbasg26
I00
sg27
I00
sg28
I4807302
sg20
S'11316.9846922'
p1037
sba(igraph
Edge
p1038
(dp1039
g7
I1
sg8
I00
sg9
I5
sg10
(lp1040
g1034
a(igraph
Vertex
p1041
(dp1042
g14
F0.625
sg8
I00
sg15
g16
sg17
F146.0
sg18
F-147.375
sg19
I4807881
sg20
S'11316.6539515'
p1043
sg22
F0.80000000000000004
sbasg26
I00
sg27
I00
sg28
I4807303
sg20
S'11316.987994'
p1044
sba(igraph
Edge
p1045
(dp1046
g7
I1
sg8
I00
sg9
I5
sg10
(lp1047
g1041
a(igraph
Vertex
p1048
(dp1049
g14
F0.6875
sg8
I00
sg15
g16
sg17
F146.0
sg18
F-183.8125
sg19
I4807882
sg20
S'11316.6552274'
p1050
sg22
F0.80000000000000004
sbasg26
I00
sg27
I00
sg28
I4807304
sg20
S'11316.9925527'
p1051
sba(igraph
Edge
p1052
(dp1053
g7
I1
sg8
I00
sg9
I5
sg10
(lp1054
g1048
a(igraph
Vertex
p1055
(dp1056
g14
F0.75
sg8
I01
sg15
I0
sg17
F146.0
sg18
F-220.25
sg19
I4807884
sg20
S'11316.6565047'
p1057
sg22
F0.80000000000000004
sbasg26
I00
sg27
I00
sg28
I4807305
sg20
S'11316.9964367'
p1058
sba(igraph
Edge
p1059
(dp1060
g7
I1
sg8
I00
sg9
I5
sg10
(lp1061
g1055
a(igraph
Vertex
p1062
(dp1063
g14
F0.8125
sg8
I00
sg15
g16
sg17
F146.0
sg18
F-256.6875
sg19
I4807886
sg20
S'11316.6577973'
p1064
sg22
F0.80000000000000004
sbasg26
I00
sg27
I00
sg28
I4807306
sg20
S'11317.0023771'
p1065
sba(igraph
Edge
p1066
(dp1067
g7
I1
sg8
I00
sg9
I5
sg10
(lp1068
g1062
a(igraph
Vertex
p1069
(dp1070
g14
F0.875
sg8
I00
sg15
g16
sg17
F146.0
sg18
F-293.125
sg19
I4807887
sg20
S'11316.659091'
p1071
sg22
F0.80000000000000004
sbasg26
I00
sg27
I00
sg28
I4807307
sg20
S'11317.0057605'
p1072
sba(igraph
Edge
p1073
(dp1074
g7
I1
sg8
I00
sg9
I5
sg10
(lp1075
g1069
a(igraph
Vertex
p1076
(dp1077
g14
F0.9375
sg8
I00
sg15
g16
sg17
F146.0
sg18
F-329.5625
sg19
I4807888
sg20
S'11316.6604046'
p1078
sg22
F0.80000000000000004
sbasg26
I00
sg27
I00
sg28
I4807308
sg20
S'11317.0096596'
p1079
sba(igraph
Edge
p1080
(dp1081
g7
I1
sg8
I00
sg9
I5
sg10
(lp1082
g1076
a(igraph
Vertex
p1083
(dp1084
g14
F1.0
sg8
I00
sg15
g16
sg17
F146.0
sg18
F-366.0
sg19
I4807889
sg20
S'11316.6617157'
p1085
sg22
F0.80000000000000004
sbasg26
I00
sg27
I00
sg28
I4807309
sg20
S'11317.0131045'
p1086
sba(igraph
Edge
p1087
(dp1088
g7
I1
sg8
I00
sg9
I5
sg10
(lp1089
g1083
ag975
asg26
I00
sg27
I00
sg28
I4807310
sg20
S'11317.0171184'
p1090
sba(igraph
Edge
p1091
(dp1092
g7
I1
sg8
I00
sg9
I5
sg10
(lp1093
(igraph
Vertex
p1094
(dp1095
g14
F0.0
sg8
I00
sg15
g16
sg17
F201.00000000000006
sg18
F217.0
sg19
I4807890
sg20
S'11316.663039'
p1096
sg22
F0.90000000000000013
sba(igraph
Vertex
p1097
(dp1098
g14
F0.0625
sg8
I01
sg15
I0
sg17
F201.00000000000006
sg18
F180.5625
sg19
I4807892
sg20
S'11316.6645283'
p1099
sg22
F0.90000000000000013
sbasg26
I00
sg27
I00
sg28
I4807311
sg20
S'11317.0207515'
p1100
sba(igraph
Edge
p1101
(dp1102
g7
I1
sg8
I00
sg9
I5
sg10
(lp1103
g1097
a(igraph
Vertex
p1104
(dp1105
g14
F0.125
sg8
I00
sg15
g16
sg17
F201.00000000000006
sg18
F144.125
sg19
I4807894
sg20
S'11316.665879'
p1106
sg22
F0.90000000000000013
sbasg26
I00
sg27
I00
sg28
I4807312
sg20
S'11317.0249266'
p1107
sba(igraph
Edge
p1108
(dp1109
g7
I1
sg8
I00
sg9
I5
sg10
(lp1110
g1104
a(igraph
Vertex
p1111
(dp1112
g14
F0.1875
sg8
I00
sg15
g16
sg17
F201.00000000000006
sg18
F107.6875
sg19
I4807895
sg20
S'11316.6672256'
p1113
sg22
F0.90000000000000013
sbasg26
I00
sg27
I00
sg28
I4807313
sg20
S'11317.0291383'
p1114
sba(igraph
Edge
p1115
(dp1116
g7
I1
sg8
I00
sg9
I5
sg10
(lp1117
g1111
a(igraph
Vertex
p1118
(dp1119
g14
F0.25
sg8
I00
sg15
g16
sg17
F201.00000000000006
sg18
F71.25
sg19
I4807896
sg20
S'11316.6685752'
p1120
sg22
F0.90000000000000013
sbasg26
I00
sg27
I00
sg28
I4807314
sg20
S'11317.032812'
p1121
sba(igraph
Edge
p1122
(dp1123
g7
I1
sg8
I00
sg9
I5
sg10
(lp1124
g1118
a(igraph
Vertex
p1125
(dp1126
g14
F0.3125
sg8
I00
sg15
g16
sg17
F201.00000000000006
sg18
F34.8125
sg19
I4807897
sg20
S'11316.6699307'
p1127
sg22
F0.90000000000000013
sbasg26
I00
sg27
I00
sg28
I4807315
sg20
S'11317.0366804'
p1128
sba(igraph
Edge
p1129
(dp1130
g7
I1
sg8
I00
sg9
I5
sg10
(lp1131
g1125
a(igraph
Vertex
p1132
(dp1133
g14
F0.375
sg8
I00
sg15
g16
sg17
F201.00000000000006
sg18
F-1.625
sg19
I4807898
sg20
S'11316.6713021'
p1134
sg22
F0.90000000000000013
sbasg26
I00
sg27
I00
sg28
I4807316
sg20
S'11317.0427471'
p1135
sba(igraph
Edge
p1136
(dp1137
g7
I1
sg8
I00
sg9
I5
sg10
(lp1138
g1132
a(igraph
Vertex
p1139
(dp1140
g14
F0.4375
sg8
I00
sg15
g16
sg17
F201.00000000000006
sg18
F-38.0625
sg19
I4807899
sg20
S'11316.6726849'
p1141
sg22
F0.90000000000000013
sbasg26
I00
sg27
I00
sg28
I4807317
sg20
S'11317.0464031'
p1142
sba(igraph
Edge
p1143
(dp1144
g7
I1
sg8
I00
sg9
I5
sg10
(lp1145
g1139
a(igraph
Vertex
p1146
(dp1147
g14
F0.5
sg8
I00
sg15
g16
sg17
F201.00000000000006
sg18
F-74.5
sg19
I4807900
sg20
S'11316.6740767'
p1148
sg22
F0.90000000000000013
sbasg26
I00
sg27
I00
sg28
I4807318
sg20
S'11317.050781'
p1149
sba(igraph
Edge
p1150
(dp1151
g7
I1
sg8
I00
sg9
I5
sg10
(lp1152
g1146
a(igraph
Vertex
p1153
(dp1154
g14
F0.5625
sg8
I00
sg15
g16
sg17
F201.00000000000006
sg18
F-110.9375
sg19
I4807901
sg20
S'11316.6754772'
p1155
sg22
F0.90000000000000013
sbasg26
I00
sg27
I00
sg28
I4807319
sg20
S'11317.054515'
p1156
sba(igraph
Edge
p1157
(dp1158
g7
I1
sg8
I00
sg9
I5
sg10
(lp1159
g1153
a(igraph
Vertex
p1160
(dp1161
g14
F0.625
sg8
I00
sg15
g16
sg17
F201.00000000000006
sg18
F-147.375
sg19
I4807902
sg20
S'11316.6768972'
p1162
sg22
F0.90000000000000013
sbasg26
I00
sg27
I00
sg28
I4807320
sg20
S'11317.0605574'
p1163
sba(igraph
Edge
p1164
(dp1165
g7
I1
sg8
I00
sg9
I5
sg10
(lp1166
g1160
a(igraph
Vertex
p1167
(dp1168
g14
F0.6875
sg8
I00
sg15
g16
sg17
F201.00000000000006
sg18
F-183.8125
sg19
I4807903
sg20
S'11316.6783541'
p1169
sg22
F0.90000000000000013
sbasg26
I00
sg27
I00
sg28
I4807321
sg20
S'11317.0644046'
p1170
sba(igraph
Edge
p1171
(dp1172
g7
I1
sg8
I00
sg9
I5
sg10
(lp1173
g1167
a(igraph
Vertex
p1174
(dp1175
g14
F0.75
sg8
I00
sg15
g16
sg17
F201.00000000000006
sg18
F-220.25
sg19
I4807904
sg20
S'11316.6797766'
p1176
sg22
F0.90000000000000013
sbasg26
I00
sg27
I00
sg28
I4807322
sg20
S'11317.0681944'
p1177
sba(igraph
Edge
p1178
(dp1179
g7
I1
sg8
I00
sg9
I5
sg10
(lp1180
g1174
a(igraph
Vertex
p1181
(dp1182
g14
F0.8125
sg8
I00
sg15
g16
sg17
F201.00000000000006
sg18
F-256.6875
sg19
I4807905
sg20
S'11316.6812243'
p1183
sg22
F0.90000000000000013
sbasg26
I00
sg27
I00
sg28
I4807323
sg20
S'11317.0719795'
p1184
sba(igraph
Edge
p1185
(dp1186
g7
I1
sg8
I00
sg9
I5
sg10
(lp1187
g1181
a(igraph
Vertex
p1188
(dp1189
g14
F0.875
sg8
I01
sg15
I0
sg17
F201.00000000000006
sg18
F-293.125
sg19
I4807907
sg20
S'11316.6827921'
p1190
sg22
F0.90000000000000013
sbasg26
I00
sg27
I00
sg28
I4807324
sg20
S'11317.075823'
p1191
sba(igraph
Edge
p1192
(dp1193
g7
I1
sg8
I00
sg9
I5
sg10
(lp1194
g1188
a(igraph
Vertex
p1195
(dp1196
g14
F0.9375
sg8
I00
sg15
g16
sg17
F201.00000000000006
sg18
F-329.5625
sg19
I4807909
sg20
S'11316.6843468'
p1197
sg22
F0.90000000000000013
sbasg26
I00
sg27
I00
sg28
I4807325
sg20
S'11317.0797199'
p1198
sba(igraph
Edge
p1199
(dp1200
g7
I1
sg8
I00
sg9
I5
sg10
(lp1201
g1195
a(igraph
Vertex
p1202
(dp1203
g14
F1.0
sg8
I00
sg15
g16
sg17
F201.00000000000006
sg18
F-366.0
sg19
I4807910
sg20
S'11316.6858324'
p1204
sg22
F0.90000000000000013
sbasg26
I00
sg27
I00
sg28
I4807326
sg20
S'11317.0836503'
p1205
sba(igraph
Edge
p1206
(dp1207
g7
I1
sg8
I00
sg9
I5
sg10
(lp1208
g1202
ag1094
asg26
I00
sg27
I00
sg28
I4807327
sg20
S'11317.087967'
p1209
sba(igraph
Edge
p1210
(dp1211
g7
I1
sg8
I00
sg9
I5
sg10
(lp1212
(igraph
Vertex
p1213
(dp1214
g14
F0.0
sg8
I00
sg15
g16
sg17
F256.0
sg18
F217.0
sg19
I4807911
sg20
S'11316.687305'
p1215
sg22
F1.0
sba(igraph
Vertex
p1216
(dp1217
g14
F0.0625
sg8
I00
sg15
g16
sg17
F256.0
sg18
F180.5625
sg19
I4807912
sg20
S'11316.68888'
p1218
sg22
F1.0
sbasg26
I00
sg27
I00
sg28
I4807328
sg20
S'11317.0957085'
p1219
sba(igraph
Edge
p1220
(dp1221
g7
I1
sg8
I00
sg9
I5
sg10
(lp1222
g1216
a(igraph
Vertex
p1223
(dp1224
g14
F0.125
sg8
I00
sg15
g16
sg17
F256.0
sg18
F144.125
sg19
I4807913
sg20
S'11316.6907275'
p1225
sg22
F1.0
sbasg26
I00
sg27
I00
sg28
I4807329
sg20
S'11317.0998549'
p1226
sba(igraph
Edge
p1227
(dp1228
g7
I1
sg8
I00
sg9
I5
sg10
(lp1229
g1223
a(igraph
Vertex
p1230
(dp1231
g14
F0.1875
sg8
I00
sg15
g16
sg17
F256.0
sg18
F107.6875
sg19
I4807914
sg20
S'11316.6922357'
p1232
sg22
F1.0
sbasg26
I00
sg27
I00
sg28
I4807330
sg20
S'11317.1042199'
p1233
sba(igraph
Edge
p1234
(dp1235
g7
I1
sg8
I00
sg9
I5
sg10
(lp1236
g1230
a(igraph
Vertex
p1237
(dp1238
g14
F0.25
sg8
I00
sg15
g16
sg17
F256.0
sg18
F71.25
sg19
I4807915
sg20
S'11316.6937991'
p1239
sg22
F1.0
sbasg26
I00
sg27
I00
sg28
I4807331
sg20
S'11317.1082766'
p1240
sba(igraph
Edge
p1241
(dp1242
g7
I1
sg8
I00
sg9
I5
sg10
(lp1243
g1237
a(igraph
Vertex
p1244
(dp1245
g14
F0.3125
sg8
I00
sg15
g16
sg17
F256.0
sg18
F34.8125
sg19
I4807916
sg20
S'11316.6954775'
p1246
sg22
F1.0
sbasg26
I00
sg27
I00
sg28
I4807332
sg20
S'11317.1122785'
p1247
sba(igraph
Edge
p1248
(dp1249
g7
I1
sg8
I00
sg9
I5
sg10
(lp1250
g1244
a(igraph
Vertex
p1251
(dp1252
g14
F0.375
sg8
I00
sg15
g16
sg17
F256.0
sg18
F-1.625
sg19
I4807917
sg20
S'11316.6970313'
p1253
sg22
F1.0
sbasg26
I00
sg27
I00
sg28
I4807333
sg20
S'11317.1163145'
p1254
sba(igraph
Edge
p1255
(dp1256
g7
I1
sg8
I00
sg9
I5
sg10
(lp1257
g1251
a(igraph
Vertex
p1258
(dp1259
g14
F0.4375
sg8
I00
sg15
g16
sg17
F256.0
sg18
F-38.0625
sg19
I4807918
sg20
S'11316.6997621'
p1260
sg22
F1.0
sbasg26
I00
sg27
I00
sg28
I4807334
sg20
S'11317.1204539'
p1261
sba(igraph
Edge
p1262
(dp1263
g7
I1
sg8
I00
sg9
I5
sg10
(lp1264
g1258
a(igraph
Vertex
p1265
(dp1266
g14
F0.5
sg8
I00
sg15
g16
sg17
F256.0
sg18
F-74.5
sg19
I4807919
sg20
S'11316.70135'
p1267
sg22
F1.0
sbasg26
I00
sg27
I00
sg28
I4807335
sg20
S'11317.1244988'
p1268
sba(igraph
Edge
p1269
(dp1270
g7
I1
sg8
I00
sg9
I5
sg10
(lp1271
g1265
a(igraph
Vertex
p1272
(dp1273
g14
F0.5625
sg8
I00
sg15
g16
sg17
F256.0
sg18
F-110.9375
sg19
I4807920
sg20
S'11316.7030558'
p1274
sg22
F1.0
sbasg26
I00
sg27
I00
sg28
I4807336
sg20
S'11317.1325814'
p1275
sba(igraph
Edge
p1276
(dp1277
g7
I1
sg8
I00
sg9
I5
sg10
(lp1278
g1272
a(igraph
Vertex
p1279
(dp1280
g14
F0.625
sg8
I00
sg15
g16
sg17
F256.0
sg18
F-147.375
sg19
I4807921
sg20
S'11316.7047292'
p1281
sg22
F1.0
sbasg26
I00
sg27
I00
sg28
I4807337
sg20
S'11317.1370833'
p1282
sba(igraph
Edge
p1283
(dp1284
g7
I1
sg8
I00
sg9
I5
sg10
(lp1285
g1279
a(igraph
Vertex
p1286
(dp1287
g14
F0.6875
sg8
I00
sg15
g16
sg17
F256.0
sg18
F-183.8125
sg19
I4807922
sg20
S'11316.7066596'
p1288
sg22
F1.0
sbasg26
I00
sg27
I00
sg28
I4807338
sg20
S'11317.1422027'
p1289
sba(igraph
Edge
p1290
(dp1291
g7
I1
sg8
I00
sg9
I5
sg10
(lp1292
g1286
a(igraph
Vertex
p1293
(dp1294
g14
F0.75
sg8
I00
sg15
g16
sg17
F256.0
sg18
F-220.25
sg19
I4807923
sg20
S'11316.7084833'
p1295
sg22
F1.0
sbasg26
I00
sg27
I00
sg28
I4807339
sg20
S'11317.1490092'
p1296
sba(igraph
Edge
p1297
(dp1298
g7
I1
sg8
I00
sg9
I5
sg10
(lp1299
g1293
a(igraph
Vertex
p1300
(dp1301
g14
F0.8125
sg8
I00
sg15
g16
sg17
F256.0
sg18
F-256.6875
sg19
I4807924
sg20
S'11316.7101587'
p1302
sg22
F1.0
sbasg26
I00
sg27
I00
sg28
I4807340
sg20
S'11317.1576365'
p1303
sba(igraph
Edge
p1304
(dp1305
g7
I1
sg8
I00
sg9
I5
sg10
(lp1306
g1300
a(igraph
Vertex
p1307
(dp1308
g14
F0.875
sg8
I00
sg15
g16
sg17
F256.0
sg18
F-293.125
sg19
I4807925
sg20
S'11316.7118477'
p1309
sg22
F1.0
sbasg26
I00
sg27
I00
sg28
I4807341
sg20
S'11317.1633054'
p1310
sba(igraph
Edge
p1311
(dp1312
g7
I1
sg8
I00
sg9
I5
sg10
(lp1313
g1307
a(igraph
Vertex
p1314
(dp1315
g14
F0.9375
sg8
I00
sg15
g16
sg17
F256.0
sg18
F-329.5625
sg19
I4807926
sg20
S'11316.7135452'
p1316
sg22
F1.0
sbasg26
I00
sg27
I00
sg28
I4807342
sg20
S'11317.1681233'
p1317
sba(igraph
Edge
p1318
(dp1319
g7
I1
sg8
I00
sg9
I5
sg10
(lp1320
g1314
a(igraph
Vertex
p1321
(dp1322
g14
F1.0
sg8
I01
sg15
I0
sg17
F256.0
sg18
F-366.0
sg19
I4807928
sg20
S'11316.715924'
p1323
sg22
F1.0
sbasg26
I00
sg27
I00
sg28
I4807343
sg20
S'11317.1728264'
p1324
sba(igraph
Edge
p1325
(dp1326
g7
I1
sg8
I00
sg9
I5
sg10
(lp1327
g1321
ag1213
asg26
I00
sg27
I00
sg28
I4807344
sg20
S'11317.1816479'
p1328
sba(igraph
Edge
p1329
(dp1330
g7
I1
sg8
I00
sg9
I5
sg10
(lp1331
g12
ag142
asg26
I00
sg27
I00
sg28
I4807345
sg20
S'11317.1869031'
p1332
sba(igraph
Edge
p1333
(dp1334
g7
I1
sg8
I00
sg9
I5
sg10
(lp1335
g23
ag152
asg26
I00
sg27
I00
sg28
I4807346
sg20
S'11317.1915051'
p1336
sba(igraph
Edge
p1337
(dp1338
g7
I1
sg8
I00
sg9
I5
sg10
(lp1339
g33
ag152
asg26
I00
sg27
I00
sg28
I4807347
sg20
S'11317.1960844'
p1340
sba(igraph
Edge
p1341
(dp1342
g7
I1
sg8
I00
sg9
I5
sg10
(lp1343
g40
ag166
asg26
I00
sg27
I00
sg28
I4807348
sg20
S'11317.2010462'
p1344
sba(igraph
Edge
p1345
(dp1346
g7
I1
sg8
I00
sg9
I5
sg10
(lp1347
g47
ag166
asg26
I00
sg27
I00
sg28
I4807349
sg20
S'11317.20827'
p1348
sba(igraph
Edge
p1349
(dp1350
g7
I1
sg8
I00
sg9
I5
sg10
(lp1351
g54
ag180
asg26
I00
sg27
I00
sg28
I4807350
sg20
S'11317.2149019'
p1352
sba(igraph
Edge
p1353
(dp1354
g7
I1
sg8
I00
sg9
I5
sg10
(lp1355
g61
ag180
asg26
I00
sg27
I00
sg28
I4807351
sg20
S'11317.2210465'
p1356
sba(igraph
Edge
p1357
(dp1358
g7
I1
sg8
I00
sg9
I5
sg10
(lp1359
g68
ag194
asg26
I00
sg27
I00
sg28
I4807352
sg20
S'11317.2255672'
p1360
sba(igraph
Edge
p1361
(dp1362
g7
I1
sg8
I00
sg9
I5
sg10
(lp1363
g75
ag194
asg26
I00
sg27
I00
sg28
I4807353
sg20
S'11317.2303184'
p1364
sba(igraph
Edge
p1365
(dp1366
g7
I1
sg8
I00
sg9
I5
sg10
(lp1367
g82
ag208
asg26
I00
sg27
I00
sg28
I4807354
sg20
S'11317.2351195'
p1368
sba(igraph
Edge
p1369
(dp1370
g7
I1
sg8
I00
sg9
I5
sg10
(lp1371
g89
ag208
asg26
I00
sg27
I00
sg28
I4807355
sg20
S'11317.2398967'
p1372
sba(igraph
Edge
p1373
(dp1374
g7
I1
sg8
I00
sg9
I5
sg10
(lp1375
g96
ag222
asg26
I00
sg27
I00
sg28
I4807356
sg20
S'11317.244521'
p1376
sba(igraph
Edge
p1377
(dp1378
g7
I1
sg8
I00
sg9
I5
sg10
(lp1379
g103
ag222
asg26
I00
sg27
I00
sg28
I4807357
sg20
S'11317.2497046'
p1380
sba(igraph
Edge
p1381
(dp1382
g7
I1
sg8
I00
sg9
I5
sg10
(lp1383
g110
ag236
asg26
I00
sg27
I00
sg28
I4807358
sg20
S'11317.2546243'
p1384
sba(igraph
Edge
p1385
(dp1386
g7
I1
sg8
I00
sg9
I5
sg10
(lp1387
g117
ag236
asg26
I00
sg27
I00
sg28
I4807359
sg20
S'11317.2593249'
p1388
sba(igraph
Edge
p1389
(dp1390
g7
I1
sg8
I00
sg9
I5
sg10
(lp1391
g124
ag250
asg26
I00
sg27
I00
sg28
I4807360
sg20
S'11317.2640338'
p1392
sba(igraph
Edge
p1393
(dp1394
g7
I1
sg8
I00
sg9
I5
sg10
(lp1395
g131
ag250
asg26
I00
sg27
I00
sg28
I4807361
sg20
S'11317.2687328'
p1396
sba(igraph
Edge
p1397
(dp1398
g7
I1
sg8
I00
sg9
I5
sg10
(lp1399
g12
ag145
asg26
I00
sg27
I00
sg28
I4807362
sg20
S'11317.2734563'
p1400
sba(igraph
Edge
p1401
(dp1402
g7
I1
sg8
I00
sg9
I5
sg10
(lp1403
g23
ag145
asg26
I00
sg27
I00
sg28
I4807363
sg20
S'11317.2804636'
p1404
sba(igraph
Edge
p1405
(dp1406
g7
I1
sg8
I00
sg9
I5
sg10
(lp1407
g33
ag159
asg26
I00
sg27
I00
sg28
I4807364
sg20
S'11317.28522'
p1408
sba(igraph
Edge
p1409
(dp1410
g7
I1
sg8
I00
sg9
I5
sg10
(lp1411
g40
ag159
asg26
I00
sg27
I00
sg28
I4807365
sg20
S'11317.2900008'
p1412
sba(igraph
Edge
p1413
(dp1414
g7
I1
sg8
I00
sg9
I5
sg10
(lp1415
g47
ag173
asg26
I00
sg27
I00
sg28
I4807366
sg20
S'11317.2947883'
p1416
sba(igraph
Edge
p1417
(dp1418
g7
I1
sg8
I00
sg9
I5
sg10
(lp1419
g54
ag173
asg26
I00
sg27
I00
sg28
I4807367
sg20
S'11317.2996392'
p1420
sba(igraph
Edge
p1421
(dp1422
g7
I1
sg8
I00
sg9
I5
sg10
(lp1423
g61
ag187
asg26
I00
sg27
I00
sg28
I4807368
sg20
S'11317.3043638'
p1424
sba(igraph
Edge
p1425
(dp1426
g7
I1
sg8
I00
sg9
I5
sg10
(lp1427
g68
ag187
asg26
I00
sg27
I00
sg28
I4807369
sg20
S'11317.3091387'
p1428
sba(igraph
Edge
p1429
(dp1430
g7
I1
sg8
I00
sg9
I5
sg10
(lp1431
g75
ag201
asg26
I00
sg27
I00
sg28
I4807370
sg20
S'11317.3138759'
p1432
sba(igraph
Edge
p1433
(dp1434
g7
I1
sg8
I00
sg9
I5
sg10
(lp1435
g82
ag201
asg26
I00
sg27
I00
sg28
I4807371
sg20
S'11317.3186486'
p1436
sba(igraph
Edge
p1437
(dp1438
g7
I1
sg8
I00
sg9
I5
sg10
(lp1439
g89
ag215
asg26
I00
sg27
I00
sg28
I4807372
sg20
S'11317.3237431'
p1440
sba(igraph
Edge
p1441
(dp1442
g7
I1
sg8
I00
sg9
I5
sg10
(lp1443
g96
ag215
asg26
I00
sg27
I00
sg28
I4807373
sg20
S'11317.3286362'
p1444
sba(igraph
Edge
p1445
(dp1446
g7
I1
sg8
I00
sg9
I5
sg10
(lp1447
g103
ag229
asg26
I00
sg27
I00
sg28
I4807374
sg20
S'11317.3334994'
p1448
sba(igraph
Edge
p1449
(dp1450
g7
I1
sg8
I00
sg9
I5
sg10
(lp1451
g110
ag229
asg26
I00
sg27
I00
sg28
I4807375
sg20
S'11317.3383779'
p1452
sba(igraph
Edge
p1453
(dp1454
g7
I1
sg8
I00
sg9
I5
sg10
(lp1455
g117
ag243
asg26
I00
sg27
I00
sg28
I4807376
sg20
S'11317.3432956'
p1456
sba(igraph
Edge
p1457
(dp1458
g7
I1
sg8
I00
sg9
I5
sg10
(lp1459
g124
ag243
asg26
I00
sg27
I00
sg28
I4807377
sg20
S'11317.3482895'
p1460
sba(igraph
Edge
p1461
(dp1462
g7
I1
sg8
I00
sg9
I5
sg10
(lp1463
g131
ag142
asg26
I00
sg27
I00
sg28
I4807378
sg20
S'11317.3534173'
p1464
sba(igraph
Edge
p1465
(dp1466
g7
I1
sg8
I00
sg9
I5
sg10
(lp1467
g12
ag1213
asg26
I00
sg27
I00
sg28
I4807379
sg20
S'11317.3585911'
p1468
sba(igraph
Edge
p1469
(dp1470
g7
I1
sg8
I00
sg9
I5
sg10
(lp1471
g23
ag1213
asg26
I00
sg27
I00
sg28
I4807380
sg20
S'11317.3636395'
p1472
sba(igraph
Edge
p1473
(dp1474
g7
I1
sg8
I00
sg9
I5
sg10
(lp1475
g33
ag1223
asg26
I00
sg27
I00
sg28
I4807381
sg20
S'11317.3688849'
p1476
sba(igraph
Edge
p1477
(dp1478
g7
I1
sg8
I00
sg9
I5
sg10
(lp1479
g40
ag1223
asg26
I00
sg27
I00
sg28
I4807382
sg20
S'11317.3741526'
p1480
sba(igraph
Edge
p1481
(dp1482
g7
I1
sg8
I00
sg9
I5
sg10
(lp1483
g47
ag1237
asg26
I00
sg27
I00
sg28
I4807383
sg20
S'11317.3791356'
p1484
sba(igraph
Edge
p1485
(dp1486
g7
I1
sg8
I00
sg9
I5
sg10
(lp1487
g54
ag1237
asg26
I00
sg27
I00
sg28
I4807384
sg20
S'11317.3840935'
p1488
sba(igraph
Edge
p1489
(dp1490
g7
I1
sg8
I00
sg9
I5
sg10
(lp1491
g61
ag1251
asg26
I00
sg27
I00
sg28
I4807385
sg20
S'11317.3893696'
p1492
sba(igraph
Edge
p1493
(dp1494
g7
I1
sg8
I00
sg9
I5
sg10
(lp1495
g68
ag1251
asg26
I00
sg27
I00
sg28
I4807386
sg20
S'11317.3943795'
p1496
sba(igraph
Edge
p1497
(dp1498
g7
I1
sg8
I00
sg9
I5
sg10
(lp1499
g75
ag1265
asg26
I00
sg27
I00
sg28
I4807387
sg20
S'11317.399389'
p1500
sba(igraph
Edge
p1501
(dp1502
g7
I1
sg8
I00
sg9
I5
sg10
(lp1503
g82
ag1265
asg26
I00
sg27
I00
sg28
I4807388
sg20
S'11317.4045749'
p1504
sba(igraph
Edge
p1505
(dp1506
g7
I1
sg8
I00
sg9
I5
sg10
(lp1507
g89
ag1279
asg26
I00
sg27
I00
sg28
I4807389
sg20
S'11317.4096512'
p1508
sba(igraph
Edge
p1509
(dp1510
g7
I1
sg8
I00
sg9
I5
sg10
(lp1511
g96
ag1279
asg26
I00
sg27
I00
sg28
I4807390
sg20
S'11317.4147767'
p1512
sba(igraph
Edge
p1513
(dp1514
g7
I1
sg8
I00
sg9
I5
sg10
(lp1515
g103
ag1293
asg26
I00
sg27
I00
sg28
I4807391
sg20
S'11317.4199788'
p1516
sba(igraph
Edge
p1517
(dp1518
g7
I1
sg8
I00
sg9
I5
sg10
(lp1519
g110
ag1293
asg26
I00
sg27
I00
sg28
I4807392
sg20
S'11317.4250884'
p1520
sba(igraph
Edge
p1521
(dp1522
g7
I1
sg8
I00
sg9
I5
sg10
(lp1523
g117
ag1307
asg26
I00
sg27
I00
sg28
I4807393
sg20
S'11317.4304511'
p1524
sba(igraph
Edge
p1525
(dp1526
g7
I1
sg8
I00
sg9
I5
sg10
(lp1527
g124
ag1307
asg26
I00
sg27
I00
sg28
I4807394
sg20
S'11317.4359054'
p1528
sba(igraph
Edge
p1529
(dp1530
g7
I1
sg8
I00
sg9
I5
sg10
(lp1531
g131
ag1321
asg26
I00
sg27
I00
sg28
I4807395
sg20
S'11317.4411826'
p1532
sba(igraph
Edge
p1533
(dp1534
g7
I1
sg8
I00
sg9
I5
sg10
(lp1535
g12
ag1321
asg26
I00
sg27
I00
sg28
I4807396
sg20
S'11317.4465361'
p1536
sba(igraph
Edge
p1537
(dp1538
g7
I1
sg8
I00
sg9
I5
sg10
(lp1539
g23
ag1216
asg26
I00
sg27
I00
sg28
I4807397
sg20
S'11317.4518342'
p1540
sba(igraph
Edge
p1541
(dp1542
g7
I1
sg8
I00
sg9
I5
sg10
(lp1543
g33
ag1216
asg26
I00
sg27
I00
sg28
I4807398
sg20
S'11317.4571497'
p1544
sba(igraph
Edge
p1545
(dp1546
g7
I1
sg8
I00
sg9
I5
sg10
(lp1547
g40
ag1230
asg26
I00
sg27
I00
sg28
I4807399
sg20
S'11317.4625918'
p1548
sba(igraph
Edge
p1549
(dp1550
g7
I1
sg8
I00
sg9
I5
sg10
(lp1551
g47
ag1230
asg26
I00
sg27
I00
sg28
I4807400
sg20
S'11317.4679201'
p1552
sba(igraph
Edge
p1553
(dp1554
g7
I1
sg8
I00
sg9
I5
sg10
(lp1555
g54
ag1244
asg26
I00
sg27
I00
sg28
I4807401
sg20
S'11317.4732722'
p1556
sba(igraph
Edge
p1557
(dp1558
g7
I1
sg8
I00
sg9
I5
sg10
(lp1559
g61
ag1244
asg26
I00
sg27
I00
sg28
I4807402
sg20
S'11317.4786821'
p1560
sba(igraph
Edge
p1561
(dp1562
g7
I1
sg8
I00
sg9
I5
sg10
(lp1563
g68
ag1258
asg26
I00
sg27
I00
sg28
I4807403
sg20
S'11317.4842761'
p1564
sba(igraph
Edge
p1565
(dp1566
g7
I1
sg8
I00
sg9
I5
sg10
(lp1567
g75
ag1258
asg26
I00
sg27
I00
sg28
I4807404
sg20
S'11317.4896977'
p1568
sba(igraph
Edge
p1569
(dp1570
g7
I1
sg8
I00
sg9
I5
sg10
(lp1571
g82
ag1272
asg26
I00
sg27
I00
sg28
I4807405
sg20
S'11317.495206'
p1572
sba(igraph
Edge
p1573
(dp1574
g7
I1
sg8
I00
sg9
I5
sg10
(lp1575
g89
ag1272
asg26
I00
sg27
I00
sg28
I4807406
sg20
S'11317.5006295'
p1576
sba(igraph
Edge
p1577
(dp1578
g7
I1
sg8
I00
sg9
I5
sg10
(lp1579
g96
ag1286
asg26
I00
sg27
I00
sg28
I4807407
sg20
S'11317.506071'
p1580
sba(igraph
Edge
p1581
(dp1582
g7
I1
sg8
I00
sg9
I5
sg10
(lp1583
g103
ag1286
asg26
I00
sg27
I00
sg28
I4807408
sg20
S'11317.5115712'
p1584
sba(igraph
Edge
p1585
(dp1586
g7
I1
sg8
I00
sg9
I5
sg10
(lp1587
g110
ag1300
asg26
I00
sg27
I00
sg28
I4807409
sg20
S'11317.5171509'
p1588
sba(igraph
Edge
p1589
(dp1590
g7
I1
sg8
I00
sg9
I5
sg10
(lp1591
g117
ag1300
asg26
I00
sg27
I00
sg28
I4807410
sg20
S'11317.5227561'
p1592
sba(igraph
Edge
p1593
(dp1594
g7
I1
sg8
I00
sg9
I5
sg10
(lp1595
g124
ag1314
asg26
I00
sg27
I00
sg28
I4807411
sg20
S'11317.5289348'
p1596
sba(igraph
Edge
p1597
(dp1598
g7
I1
sg8
I00
sg9
I5
sg10
(lp1599
g131
ag1314
asg26
I00
sg27
I00
sg28
I4807412
sg20
S'11317.5345663'
p1600
sba(igraph
Edge
p1601
(dp1602
g7
I1
sg8
I00
sg9
I5
sg10
(lp1603
g142
ag261
asg26
I00
sg27
I00
sg28
I4807413
sg20
S'11317.5401991'
p1604
sba(igraph
Edge
p1605
(dp1606
g7
I1
sg8
I00
sg9
I5
sg10
(lp1607
g145
ag271
asg26
I00
sg27
I00
sg28
I4807414
sg20
S'11317.545885'
p1608
sba(igraph
Edge
p1609
(dp1610
g7
I1
sg8
I00
sg9
I5
sg10
(lp1611
g152
ag271
asg26
I00
sg27
I00
sg28
I4807415
sg20
S'11317.5515667'
p1612
sba(igraph
Edge
p1613
(dp1614
g7
I1
sg8
I00
sg9
I5
sg10
(lp1615
g159
ag285
asg26
I00
sg27
I00
sg28
I4807416
sg20
S'11317.5573795'
p1616
sba(igraph
Edge
p1617
(dp1618
g7
I1
sg8
I00
sg9
I5
sg10
(lp1619
g166
ag285
asg26
I00
sg27
I00
sg28
I4807417
sg20
S'11317.5631182'
p1620
sba(igraph
Edge
p1621
(dp1622
g7
I1
sg8
I00
sg9
I5
sg10
(lp1623
g173
ag299
asg26
I00
sg27
I00
sg28
I4807418
sg20
S'11317.5687801'
p1624
sba(igraph
Edge
p1625
(dp1626
g7
I1
sg8
I00
sg9
I5
sg10
(lp1627
g180
ag299
asg26
I00
sg27
I00
sg28
I4807419
sg20
S'11317.574449'
p1628
sba(igraph
Edge
p1629
(dp1630
g7
I1
sg8
I00
sg9
I5
sg10
(lp1631
g187
ag313
asg26
I00
sg27
I00
sg28
I4807420
sg20
S'11317.5802478'
p1632
sba(igraph
Edge
p1633
(dp1634
g7
I1
sg8
I00
sg9
I5
sg10
(lp1635
g194
ag313
asg26
I00
sg27
I00
sg28
I4807421
sg20
S'11317.5859359'
p1636
sba(igraph
Edge
p1637
(dp1638
g7
I1
sg8
I00
sg9
I5
sg10
(lp1639
g201
ag327
asg26
I00
sg27
I00
sg28
I4807422
sg20
S'11317.5916847'
p1640
sba(igraph
Edge
p1641
(dp1642
g7
I1
sg8
I00
sg9
I5
sg10
(lp1643
g208
ag327
asg26
I00
sg27
I00
sg28
I4807423
sg20
S'11317.5974192'
p1644
sba(igraph
Edge
p1645
(dp1646
g7
I1
sg8
I00
sg9
I5
sg10
(lp1647
g215
ag341
asg26
I00
sg27
I00
sg28
I4807424
sg20
S'11317.603163'
p1648
sba(igraph
Edge
p1649
(dp1650
g7
I1
sg8
I00
sg9
I5
sg10
(lp1651
g222
ag341
asg26
I00
sg27
I00
sg28
I4807425
sg20
S'11317.6090978'
p1652
sba(igraph
Edge
p1653
(dp1654
g7
I1
sg8
I00
sg9
I5
sg10
(lp1655
g229
ag355
asg26
I00
sg27
I00
sg28
I4807426
sg20
S'11317.6149463'
p1656
sba(igraph
Edge
p1657
(dp1658
g7
I1
sg8
I00
sg9
I5
sg10
(lp1659
g236
ag355
asg26
I00
sg27
I00
sg28
I4807427
sg20
S'11317.6208306'
p1660
sba(igraph
Edge
p1661
(dp1662
g7
I1
sg8
I00
sg9
I5
sg10
(lp1663
g243
ag369
asg26
I00
sg27
I00
sg28
I4807428
sg20
S'11317.6266947'
p1664
sba(igraph
Edge
p1665
(dp1666
g7
I1
sg8
I00
sg9
I5
sg10
(lp1667
g250
ag369
asg26
I00
sg27
I00
sg28
I4807429
sg20
S'11317.6327894'
p1668
sba(igraph
Edge
p1669
(dp1670
g7
I1
sg8
I00
sg9
I5
sg10
(lp1671
g142
ag264
asg26
I00
sg27
I00
sg28
I4807430
sg20
S'11317.6389365'
p1672
sba(igraph
Edge
p1673
(dp1674
g7
I1
sg8
I00
sg9
I5
sg10
(lp1675
g145
ag264
asg26
I00
sg27
I00
sg28
I4807431
sg20
S'11317.6450471'
p1676
sba(igraph
Edge
p1677
(dp1678
g7
I1
sg8
I00
sg9
I5
sg10
(lp1679
g152
ag278
asg26
I00
sg27
I00
sg28
I4807432
sg20
S'11317.6510945'
p1680
sba(igraph
Edge
p1681
(dp1682
g7
I1
sg8
I00
sg9
I5
sg10
(lp1683
g159
ag278
asg26
I00
sg27
I00
sg28
I4807433
sg20
S'11317.6570458'
p1684
sba(igraph
Edge
p1685
(dp1686
g7
I1
sg8
I00
sg9
I5
sg10
(lp1687
g166
ag292
asg26
I00
sg27
I00
sg28
I4807434
sg20
S'11317.6630125'
p1688
sba(igraph
Edge
p1689
(dp1690
g7
I1
sg8
I00
sg9
I5
sg10
(lp1691
g173
ag292
asg26
I00
sg27
I00
sg28
I4807435
sg20
S'11317.6689973'
p1692
sba(igraph
Edge
p1693
(dp1694
g7
I1
sg8
I00
sg9
I5
sg10
(lp1695
g180
ag306
asg26
I00
sg27
I00
sg28
I4807436
sg20
S'11317.6750995'
p1696
sba(igraph
Edge
p1697
(dp1698
g7
I1
sg8
I00
sg9
I5
sg10
(lp1699
g187
ag306
asg26
I00
sg27
I00
sg28
I4807437
sg20
S'11317.6821317'
p1700
sba(igraph
Edge
p1701
(dp1702
g7
I1
sg8
I00
sg9
I5
sg10
(lp1703
g194
ag320
asg26
I00
sg27
I00
sg28
I4807438
sg20
S'11317.6889691'
p1704
sba(igraph
Edge
p1705
(dp1706
g7
I1
sg8
I00
sg9
I5
sg10
(lp1707
g201
ag320
asg26
I00
sg27
I00
sg28
I4807439
sg20
S'11317.6954546'
p1708
sba(igraph
Edge
p1709
(dp1710
g7
I1
sg8
I00
sg9
I5
sg10
(lp1711
g208
ag334
asg26
I00
sg27
I00
sg28
I4807440
sg20
S'11317.7020507'
p1712
sba(igraph
Edge
p1713
(dp1714
g7
I1
sg8
I00
sg9
I5
sg10
(lp1715
g215
ag334
asg26
I00
sg27
I00
sg28
I4807441
sg20
S'11317.708694'
p1716
sba(igraph
Edge
p1717
(dp1718
g7
I1
sg8
I00
sg9
I5
sg10
(lp1719
g222
ag348
asg26
I00
sg27
I00
sg28
I4807442
sg20
S'11317.7200725'
p1720
sba(igraph
Edge
p1721
(dp1722
g7
I1
sg8
I00
sg9
I5
sg10
(lp1723
g229
ag348
asg26
I00
sg27
I00
sg28
I4807443
sg20
S'11317.7271852'
p1724
sba(igraph
Edge
p1725
(dp1726
g7
I1
sg8
I00
sg9
I5
sg10
(lp1727
g236
ag362
asg26
I00
sg27
I00
sg28
I4807444
sg20
S'11317.734414'
p1728
sba(igraph
Edge
p1729
(dp1730
g7
I1
sg8
I00
sg9
I5
sg10
(lp1731
g243
ag362
asg26
I00
sg27
I00
sg28
I4807445
sg20
S'11317.7410841'
p1732
sba(igraph
Edge
p1733
(dp1734
g7
I1
sg8
I00
sg9
I5
sg10
(lp1735
g250
ag261
asg26
I00
sg27
I00
sg28
I4807446
sg20
S'11317.7479082'
p1736
sba(igraph
Edge
p1737
(dp1738
g7
I1
sg8
I00
sg9
I5
sg10
(lp1739
g261
ag380
asg26
I00
sg27
I00
sg28
I4807447
sg20
S'11317.7544906'
p1740
sba(igraph
Edge
p1741
(dp1742
g7
I1
sg8
I00
sg9
I5
sg10
(lp1743
g264
ag390
asg26
I00
sg27
I00
sg28
I4807448
sg20
S'11317.7611018'
p1744
sba(igraph
Edge
p1745
(dp1746
g7
I1
sg8
I00
sg9
I5
sg10
(lp1747
g271
ag390
asg26
I00
sg27
I00
sg28
I4807449
sg20
S'11317.7679926'
p1748
sba(igraph
Edge
p1749
(dp1750
g7
I1
sg8
I00
sg9
I5
sg10
(lp1751
g278
ag404
asg26
I00
sg27
I00
sg28
I4807450
sg20
S'11317.774744'
p1752
sba(igraph
Edge
p1753
(dp1754
g7
I1
sg8
I00
sg9
I5
sg10
(lp1755
g285
ag404
asg26
I00
sg27
I00
sg28
I4807451
sg20
S'11317.7818086'
p1756
sba(igraph
Edge
p1757
(dp1758
g7
I1
sg8
I00
sg9
I5
sg10
(lp1759
g292
ag418
asg26
I00
sg27
I00
sg28
I4807452
sg20
S'11317.7885578'
p1760
sba(igraph
Edge
p1761
(dp1762
g7
I1
sg8
I00
sg9
I5
sg10
(lp1763
g299
ag418
asg26
I00
sg27
I00
sg28
I4807453
sg20
S'11317.7954072'
p1764
sba(igraph
Edge
p1765
(dp1766
g7
I1
sg8
I00
sg9
I5
sg10
(lp1767
g306
ag432
asg26
I00
sg27
I00
sg28
I4807454
sg20
S'11317.8023031'
p1768
sba(igraph
Edge
p1769
(dp1770
g7
I1
sg8
I00
sg9
I5
sg10
(lp1771
g313
ag432
asg26
I00
sg27
I00
sg28
I4807455
sg20
S'11317.8093498'
p1772
sba(igraph
Edge
p1773
(dp1774
g7
I1
sg8
I00
sg9
I5
sg10
(lp1775
g320
ag446
asg26
I00
sg27
I00
sg28
I4807456
sg20
S'11317.8165703'
p1776
sba(igraph
Edge
p1777
(dp1778
g7
I1
sg8
I00
sg9
I5
sg10
(lp1779
g327
ag446
asg26
I00
sg27
I00
sg28
I4807457
sg20
S'11317.8251753'
p1780
sba(igraph
Edge
p1781
(dp1782
g7
I1
sg8
I00
sg9
I5
sg10
(lp1783
g334
ag460
asg26
I00
sg27
I00
sg28
I4807458
sg20
S'11317.8323807'
p1784
sba(igraph
Edge
p1785
(dp1786
g7
I1
sg8
I00
sg9
I5
sg10
(lp1787
g341
ag460
asg26
I00
sg27
I00
sg28
I4807459
sg20
S'11317.8450811'
p1788
sba(igraph
Edge
p1789
(dp1790
g7
I1
sg8
I00
sg9
I5
sg10
(lp1791
g348
ag474
asg26
I00
sg27
I00
sg28
I4807460
sg20
S'11317.852738'
p1792
sba(igraph
Edge
p1793
(dp1794
g7
I1
sg8
I00
sg9
I5
sg10
(lp1795
g355
ag474
asg26
I00
sg27
I00
sg28
I4807461
sg20
S'11317.8600202'
p1796
sba(igraph
Edge
p1797
(dp1798
g7
I1
sg8
I00
sg9
I5
sg10
(lp1799
g362
ag488
asg26
I00
sg27
I00
sg28
I4807462
sg20
S'11317.8673608'
p1800
sba(igraph
Edge
p1801
(dp1802
g7
I1
sg8
I00
sg9
I5
sg10
(lp1803
g369
ag488
asg26
I00
sg27
I00
sg28
I4807463
sg20
S'11317.876971'
p1804
sba(igraph
Edge
p1805
(dp1806
g7
I1
sg8
I00
sg9
I5
sg10
(lp1807
g261
ag383
asg26
I00
sg27
I00
sg28
I4807464
sg20
S'11317.8839271'
p1808
sba(igraph
Edge
p1809
(dp1810
g7
I1
sg8
I00
sg9
I5
sg10
(lp1811
g264
ag383
asg26
I00
sg27
I00
sg28
I4807465
sg20
S'11317.891151'
p1812
sba(igraph
Edge
p1813
(dp1814
g7
I1
sg8
I00
sg9
I5
sg10
(lp1815
g271
ag397
asg26
I00
sg27
I00
sg28
I4807466
sg20
S'11317.8981181'
p1816
sba(igraph
Edge
p1817
(dp1818
g7
I1
sg8
I00
sg9
I5
sg10
(lp1819
g278
ag397
asg26
I00
sg27
I00
sg28
I4807467
sg20
S'11317.9050692'
p1820
sba(igraph
Edge
p1821
(dp1822
g7
I1
sg8
I00
sg9
I5
sg10
(lp1823
g285
ag411
asg26
I00
sg27
I00
sg28
I4807468
sg20
S'11317.9121257'
p1824
sba(igraph
Edge
p1825
(dp1826
g7
I1
sg8
I00
sg9
I5
sg10
(lp1827
g292
ag411
asg26
I00
sg27
I00
sg28
I4807469
sg20
S'11317.9191288'
p1828
sba(igraph
Edge
p1829
(dp1830
g7
I1
sg8
I00
sg9
I5
sg10
(lp1831
g299
ag425
asg26
I00
sg27
I00
sg28
I4807470
sg20
S'11317.9267885'
p1832
sba(igraph
Edge
p1833
(dp1834
g7
I1
sg8
I00
sg9
I5
sg10
(lp1835
g306
ag425
asg26
I00
sg27
I00
sg28
I4807471
sg20
S'11317.9370219'
p1836
sba(igraph
Edge
p1837
(dp1838
g7
I1
sg8
I00
sg9
I5
sg10
(lp1839
g313
ag439
asg26
I00
sg27
I00
sg28
I4807472
sg20
S'11317.945052'
p1840
sba(igraph
Edge
p1841
(dp1842
g7
I1
sg8
I00
sg9
I5
sg10
(lp1843
g320
ag439
asg26
I00
sg27
I00
sg28
I4807473
sg20
S'11317.9524853'
p1844
sba(igraph
Edge
p1845
(dp1846
g7
I1
sg8
I00
sg9
I5
sg10
(lp1847
g327
ag453
asg26
I00
sg27
I00
sg28
I4807474
sg20
S'11317.9594007'
p1848
sba(igraph
Edge
p1849
(dp1850
g7
I1
sg8
I00
sg9
I5
sg10
(lp1851
g334
ag453
asg26
I00
sg27
I00
sg28
I4807475
sg20
S'11317.9662787'
p1852
sba(igraph
Edge
p1853
(dp1854
g7
I1
sg8
I00
sg9
I5
sg10
(lp1855
g341
ag467
asg26
I00
sg27
I00
sg28
I4807476
sg20
S'11317.9732254'
p1856
sba(igraph
Edge
p1857
(dp1858
g7
I1
sg8
I00
sg9
I5
sg10
(lp1859
g348
ag467
asg26
I00
sg27
I00
sg28
I4807477
sg20
S'11317.9802243'
p1860
sba(igraph
Edge
p1861
(dp1862
g7
I1
sg8
I00
sg9
I5
sg10
(lp1863
g355
ag481
asg26
I00
sg27
I00
sg28
I4807478
sg20
S'11317.9873093'
p1864
sba(igraph
Edge
p1865
(dp1866
g7
I1
sg8
I00
sg9
I5
sg10
(lp1867
g362
ag481
asg26
I00
sg27
I00
sg28
I4807479
sg20
S'11317.9943959'
p1868
sba(igraph
Edge
p1869
(dp1870
g7
I1
sg8
I00
sg9
I5
sg10
(lp1871
g369
ag380
asg26
I00
sg27
I00
sg28
I4807480
sg20
S'11318.0014105'
p1872
sba(igraph
Edge
p1873
(dp1874
g7
I1
sg8
I00
sg9
I5
sg10
(lp1875
g380
ag499
asg26
I00
sg27
I00
sg28
I4807481
sg20
S'11318.0084254'
p1876
sba(igraph
Edge
p1877
(dp1878
g7
I1
sg8
I00
sg9
I5
sg10
(lp1879
g383
ag509
asg26
I00
sg27
I00
sg28
I4807482
sg20
S'11318.0155098'
p1880
sba(igraph
Edge
p1881
(dp1882
g7
I1
sg8
I00
sg9
I5
sg10
(lp1883
g390
ag509
asg26
I00
sg27
I00
sg28
I4807483
sg20
S'11318.0225791'
p1884
sba(igraph
Edge
p1885
(dp1886
g7
I1
sg8
I00
sg9
I5
sg10
(lp1887
g397
ag523
asg26
I00
sg27
I00
sg28
I4807484
sg20
S'11318.029813'
p1888
sba(igraph
Edge
p1889
(dp1890
g7
I1
sg8
I00
sg9
I5
sg10
(lp1891
g404
ag523
asg26
I00
sg27
I00
sg28
I4807485
sg20
S'11318.0368946'
p1892
sba(igraph
Edge
p1893
(dp1894
g7
I1
sg8
I00
sg9
I5
sg10
(lp1895
g411
ag537
asg26
I00
sg27
I00
sg28
I4807486
sg20
S'11318.0441229'
p1896
sba(igraph
Edge
p1897
(dp1898
g7
I1
sg8
I00
sg9
I5
sg10
(lp1899
g418
ag537
asg26
I00
sg27
I00
sg28
I4807487
sg20
S'11318.051273'
p1900
sba(igraph
Edge
p1901
(dp1902
g7
I1
sg8
I00
sg9
I5
sg10
(lp1903
g425
ag551
asg26
I00
sg27
I00
sg28
I4807488
sg20
S'11318.0585214'
p1904
sba(igraph
Edge
p1905
(dp1906
g7
I1
sg8
I00
sg9
I5
sg10
(lp1907
g432
ag551
asg26
I00
sg27
I00
sg28
I4807489
sg20
S'11318.0656757'
p1908
sba(igraph
Edge
p1909
(dp1910
g7
I1
sg8
I00
sg9
I5
sg10
(lp1911
g439
ag565
asg26
I00
sg27
I00
sg28
I4807490
sg20
S'11318.0728785'
p1912
sba(igraph
Edge
p1913
(dp1914
g7
I1
sg8
I00
sg9
I5
sg10
(lp1915
g446
ag565
asg26
I00
sg27
I00
sg28
I4807491
sg20
S'11318.0802443'
p1916
sba(igraph
Edge
p1917
(dp1918
g7
I1
sg8
I00
sg9
I5
sg10
(lp1919
g453
ag579
asg26
I00
sg27
I00
sg28
I4807492
sg20
S'11318.0876424'
p1920
sba(igraph
Edge
p1921
(dp1922
g7
I1
sg8
I00
sg9
I5
sg10
(lp1923
g460
ag579
asg26
I00
sg27
I00
sg28
I4807493
sg20
S'11318.0949023'
p1924
sba(igraph
Edge
p1925
(dp1926
g7
I1
sg8
I00
sg9
I5
sg10
(lp1927
g467
ag593
asg26
I00
sg27
I00
sg28
I4807494
sg20
S'11318.1022636'
p1928
sba(igraph
Edge
p1929
(dp1930
g7
I1
sg8
I00
sg9
I5
sg10
(lp1931
g474
ag593
asg26
I00
sg27
I00
sg28
I4807495
sg20
S'11318.1097151'
p1932
sba(igraph
Edge
p1933
(dp1934
g7
I1
sg8
I00
sg9
I5
sg10
(lp1935
g481
ag607
asg26
I00
sg27
I00
sg28
I4807496
sg20
S'11318.1171076'
p1936
sba(igraph
Edge
p1937
(dp1938
g7
I1
sg8
I00
sg9
I5
sg10
(lp1939
g488
ag607
asg26
I00
sg27
I00
sg28
I4807497
sg20
S'11318.1244035'
p1940
sba(igraph
Edge
p1941
(dp1942
g7
I1
sg8
I00
sg9
I5
sg10
(lp1943
g380
ag502
asg26
I00
sg27
I00
sg28
I4807498
sg20
S'11318.1316936'
p1944
sba(igraph
Edge
p1945
(dp1946
g7
I1
sg8
I00
sg9
I5
sg10
(lp1947
g383
ag502
asg26
I00
sg27
I00
sg28
I4807499
sg20
S'11318.1390579'
p1948
sba(igraph
Edge
p1949
(dp1950
g7
I1
sg8
I00
sg9
I5
sg10
(lp1951
g390
ag516
asg26
I00
sg27
I00
sg28
I4807500
sg20
S'11318.146515'
p1952
sba(igraph
Edge
p1953
(dp1954
g7
I1
sg8
I00
sg9
I5
sg10
(lp1955
g397
ag516
asg26
I00
sg27
I00
sg28
I4807501
sg20
S'11318.1540025'
p1956
sba(igraph
Edge
p1957
(dp1958
g7
I1
sg8
I00
sg9
I5
sg10
(lp1959
g404
ag530
asg26
I00
sg27
I00
sg28
I4807502
sg20
S'11318.1615029'
p1960
sba(igraph
Edge
p1961
(dp1962
g7
I1
sg8
I00
sg9
I5
sg10
(lp1963
g411
ag530
asg26
I00
sg27
I00
sg28
I4807503
sg20
S'11318.1689854'
p1964
sba(igraph
Edge
p1965
(dp1966
g7
I1
sg8
I00
sg9
I5
sg10
(lp1967
g418
ag544
asg26
I00
sg27
I00
sg28
I4807504
sg20
S'11318.1765423'
p1968
sba(igraph
Edge
p1969
(dp1970
g7
I1
sg8
I00
sg9
I5
sg10
(lp1971
g425
ag544
asg26
I00
sg27
I00
sg28
I4807505
sg20
S'11318.1848157'
p1972
sba(igraph
Edge
p1973
(dp1974
g7
I1
sg8
I00
sg9
I5
sg10
(lp1975
g432
ag558
asg26
I00
sg27
I00
sg28
I4807506
sg20
S'11318.1924893'
p1976
sba(igraph
Edge
p1977
(dp1978
g7
I1
sg8
I00
sg9
I5
sg10
(lp1979
g439
ag558
asg26
I00
sg27
I00
sg28
I4807507
sg20
S'11318.2000528'
p1980
sba(igraph
Edge
p1981
(dp1982
g7
I1
sg8
I00
sg9
I5
sg10
(lp1983
g446
ag572
asg26
I00
sg27
I00
sg28
I4807508
sg20
S'11318.2077242'
p1984
sba(igraph
Edge
p1985
(dp1986
g7
I1
sg8
I00
sg9
I5
sg10
(lp1987
g453
ag572
asg26
I00
sg27
I00
sg28
I4807509
sg20
S'11318.2154595'
p1988
sba(igraph
Edge
p1989
(dp1990
g7
I1
sg8
I00
sg9
I5
sg10
(lp1991
g460
ag586
asg26
I00
sg27
I00
sg28
I4807510
sg20
S'11318.2231295'
p1992
sba(igraph
Edge
p1993
(dp1994
g7
I1
sg8
I00
sg9
I5
sg10
(lp1995
g467
ag586
asg26
I00
sg27
I00
sg28
I4807511
sg20
S'11318.2308313'
p1996
sba(igraph
Edge
p1997
(dp1998
g7
I1
sg8
I00
sg9
I5
sg10
(lp1999
g474
ag600
asg26
I00
sg27
I00
sg28
I4807512
sg20
S'11318.2386932'
p2000
sba(igraph
Edge
p2001
(dp2002
g7
I1
sg8
I00
sg9
I5
sg10
(lp2003
g481
ag600
asg26
I00
sg27
I00
sg28
I4807513
sg20
S'11318.2466503'
p2004
sba(igraph
Edge
p2005
(dp2006
g7
I1
sg8
I00
sg9
I5
sg10
(lp2007
g488
ag499
asg26
I00
sg27
I00
sg28
I4807514
sg20
S'11318.254572'
p2008
sba(igraph
Edge
p2009
(dp2010
g7
I1
sg8
I00
sg9
I5
sg10
(lp2011
g499
ag618
asg26
I00
sg27
I00
sg28
I4807515
sg20
S'11318.2627194'
p2012
sba(igraph
Edge
p2013
(dp2014
g7
I1
sg8
I00
sg9
I5
sg10
(lp2015
g502
ag628
asg26
I00
sg27
I00
sg28
I4807516
sg20
S'11318.2705998'
p2016
sba(igraph
Edge
p2017
(dp2018
g7
I1
sg8
I00
sg9
I5
sg10
(lp2019
g509
ag628
asg26
I00
sg27
I00
sg28
I4807517
sg20
S'11318.2784658'
p2020
sba(igraph
Edge
p2021
(dp2022
g7
I1
sg8
I00
sg9
I5
sg10
(lp2023
g516
ag642
asg26
I00
sg27
I00
sg28
I4807518
sg20
S'11318.2862277'
p2024
sba(igraph
Edge
p2025
(dp2026
g7
I1
sg8
I00
sg9
I5
sg10
(lp2027
g523
ag642
asg26
I00
sg27
I00
sg28
I4807519
sg20
S'11318.2940393'
p2028
sba(igraph
Edge
p2029
(dp2030
g7
I1
sg8
I00
sg9
I5
sg10
(lp2031
g530
ag656
asg26
I00
sg27
I00
sg28
I4807520
sg20
S'11318.3019462'
p2032
sba(igraph
Edge
p2033
(dp2034
g7
I1
sg8
I00
sg9
I5
sg10
(lp2035
g537
ag656
asg26
I00
sg27
I00
sg28
I4807521
sg20
S'11318.3100791'
p2036
sba(igraph
Edge
p2037
(dp2038
g7
I1
sg8
I00
sg9
I5
sg10
(lp2039
g544
ag670
asg26
I00
sg27
I00
sg28
I4807522
sg20
S'11318.3179837'
p2040
sba(igraph
Edge
p2041
(dp2042
g7
I1
sg8
I00
sg9
I5
sg10
(lp2043
g551
ag670
asg26
I00
sg27
I00
sg28
I4807523
sg20
S'11318.3258811'
p2044
sba(igraph
Edge
p2045
(dp2046
g7
I1
sg8
I00
sg9
I5
sg10
(lp2047
g558
ag684
asg26
I00
sg27
I00
sg28
I4807524
sg20
S'11318.333891'
p2048
sba(igraph
Edge
p2049
(dp2050
g7
I1
sg8
I00
sg9
I5
sg10
(lp2051
g565
ag684
asg26
I00
sg27
I00
sg28
I4807525
sg20
S'11318.3421077'
p2052
sba(igraph
Edge
p2053
(dp2054
g7
I1
sg8
I00
sg9
I5
sg10
(lp2055
g572
ag698
asg26
I00
sg27
I00
sg28
I4807526
sg20
S'11318.3501006'
p2056
sba(igraph
Edge
p2057
(dp2058
g7
I1
sg8
I00
sg9
I5
sg10
(lp2059
g579
ag698
asg26
I00
sg27
I00
sg28
I4807527
sg20
S'11318.3581307'
p2060
sba(igraph
Edge
p2061
(dp2062
g7
I1
sg8
I00
sg9
I5
sg10
(lp2063
g586
ag712
asg26
I00
sg27
I00
sg28
I4807528
sg20
S'11318.3661664'
p2064
sba(igraph
Edge
p2065
(dp2066
g7
I1
sg8
I00
sg9
I5
sg10
(lp2067
g593
ag712
asg26
I00
sg27
I00
sg28
I4807529
sg20
S'11318.3749488'
p2068
sba(igraph
Edge
p2069
(dp2070
g7
I1
sg8
I00
sg9
I5
sg10
(lp2071
g600
ag726
asg26
I00
sg27
I00
sg28
I4807530
sg20
S'11318.3832216'
p2072
sba(igraph
Edge
p2073
(dp2074
g7
I1
sg8
I00
sg9
I5
sg10
(lp2075
g607
ag726
asg26
I00
sg27
I00
sg28
I4807531
sg20
S'11318.3916213'
p2076
sba(igraph
Edge
p2077
(dp2078
g7
I1
sg8
I00
sg9
I5
sg10
(lp2079
g499
ag621
asg26
I00
sg27
I00
sg28
I4807532
sg20
S'11318.3997871'
p2080
sba(igraph
Edge
p2081
(dp2082
g7
I1
sg8
I00
sg9
I5
sg10
(lp2083
g502
ag621
asg26
I00
sg27
I00
sg28
I4807533
sg20
S'11318.4081555'
p2084
sba(igraph
Edge
p2085
(dp2086
g7
I1
sg8
I00
sg9
I5
sg10
(lp2087
g509
ag635
asg26
I00
sg27
I00
sg28
I4807534
sg20
S'11318.4165677'
p2088
sba(igraph
Edge
p2089
(dp2090
g7
I1
sg8
I00
sg9
I5
sg10
(lp2091
g516
ag635
asg26
I00
sg27
I00
sg28
I4807535
sg20
S'11318.4248568'
p2092
sba(igraph
Edge
p2093
(dp2094
g7
I1
sg8
I00
sg9
I5
sg10
(lp2095
g523
ag649
asg26
I00
sg27
I00
sg28
I4807536
sg20
S'11318.4331165'
p2096
sba(igraph
Edge
p2097
(dp2098
g7
I1
sg8
I00
sg9
I5
sg10
(lp2099
g530
ag649
asg26
I00
sg27
I00
sg28
I4807537
sg20
S'11318.4414287'
p2100
sba(igraph
Edge
p2101
(dp2102
g7
I1
sg8
I00
sg9
I5
sg10
(lp2103
g537
ag663
asg26
I00
sg27
I00
sg28
I4807538
sg20
S'11318.4498703'
p2104
sba(igraph
Edge
p2105
(dp2106
g7
I1
sg8
I00
sg9
I5
sg10
(lp2107
g544
ag663
asg26
I00
sg27
I00
sg28
I4807539
sg20
S'11318.4582549'
p2108
sba(igraph
Edge
p2109
(dp2110
g7
I1
sg8
I00
sg9
I5
sg10
(lp2111
g551
ag677
asg26
I00
sg27
I00
sg28
I4807540
sg20
S'11318.4666456'
p2112
sba(igraph
Edge
p2113
(dp2114
g7
I1
sg8
I00
sg9
I5
sg10
(lp2115
g558
ag677
asg26
I00
sg27
I00
sg28
I4807541
sg20
S'11318.4751084'
p2116
sba(igraph
Edge
p2117
(dp2118
g7
I1
sg8
I00
sg9
I5
sg10
(lp2119
g565
ag691
asg26
I00
sg27
I00
sg28
I4807542
sg20
S'11318.4835525'
p2120
sba(igraph
Edge
p2121
(dp2122
g7
I1
sg8
I00
sg9
I5
sg10
(lp2123
g572
ag691
asg26
I00
sg27
I00
sg28
I4807543
sg20
S'11318.4919279'
p2124
sba(igraph
Edge
p2125
(dp2126
g7
I1
sg8
I00
sg9
I5
sg10
(lp2127
g579
ag705
asg26
I00
sg27
I00
sg28
I4807544
sg20
S'11318.5005061'
p2128
sba(igraph
Edge
p2129
(dp2130
g7
I1
sg8
I00
sg9
I5
sg10
(lp2131
g586
ag705
asg26
I00
sg27
I00
sg28
I4807545
sg20
S'11318.5089144'
p2132
sba(igraph
Edge
p2133
(dp2134
g7
I1
sg8
I00
sg9
I5
sg10
(lp2135
g593
ag719
asg26
I00
sg27
I00
sg28
I4807546
sg20
S'11318.5174797'
p2136
sba(igraph
Edge
p2137
(dp2138
g7
I1
sg8
I00
sg9
I5
sg10
(lp2139
g600
ag719
asg26
I00
sg27
I00
sg28
I4807547
sg20
S'11318.5259247'
p2140
sba(igraph
Edge
p2141
(dp2142
g7
I1
sg8
I00
sg9
I5
sg10
(lp2143
g607
ag618
asg26
I00
sg27
I00
sg28
I4807548
sg20
S'11318.5379362'
p2144
sba(igraph
Edge
p2145
(dp2146
g7
I1
sg8
I00
sg9
I5
sg10
(lp2147
g618
ag737
asg26
I00
sg27
I00
sg28
I4807549
sg20
S'11318.5475232'
p2148
sba(igraph
Edge
p2149
(dp2150
g7
I1
sg8
I00
sg9
I5
sg10
(lp2151
g621
ag747
asg26
I00
sg27
I00
sg28
I4807550
sg20
S'11318.5561204'
p2152
sba(igraph
Edge
p2153
(dp2154
g7
I1
sg8
I00
sg9
I5
sg10
(lp2155
g628
ag747
asg26
I00
sg27
I00
sg28
I4807551
sg20
S'11318.5647324'
p2156
sba(igraph
Edge
p2157
(dp2158
g7
I1
sg8
I00
sg9
I5
sg10
(lp2159
g635
ag761
asg26
I00
sg27
I00
sg28
I4807552
sg20
S'11318.573614'
p2160
sba(igraph
Edge
p2161
(dp2162
g7
I1
sg8
I00
sg9
I5
sg10
(lp2163
g642
ag761
asg26
I00
sg27
I00
sg28
I4807553
sg20
S'11318.5824039'
p2164
sba(igraph
Edge
p2165
(dp2166
g7
I1
sg8
I00
sg9
I5
sg10
(lp2167
g649
ag775
asg26
I00
sg27
I00
sg28
I4807554
sg20
S'11318.5912662'
p2168
sba(igraph
Edge
p2169
(dp2170
g7
I1
sg8
I00
sg9
I5
sg10
(lp2171
g656
ag775
asg26
I00
sg27
I00
sg28
I4807555
sg20
S'11318.5999307'
p2172
sba(igraph
Edge
p2173
(dp2174
g7
I1
sg8
I00
sg9
I5
sg10
(lp2175
g663
ag789
asg26
I00
sg27
I00
sg28
I4807556
sg20
S'11318.6086204'
p2176
sba(igraph
Edge
p2177
(dp2178
g7
I1
sg8
I00
sg9
I5
sg10
(lp2179
g670
ag789
asg26
I00
sg27
I00
sg28
I4807557
sg20
S'11318.6173352'
p2180
sba(igraph
Edge
p2181
(dp2182
g7
I1
sg8
I00
sg9
I5
sg10
(lp2183
g677
ag803
asg26
I00
sg27
I00
sg28
I4807558
sg20
S'11318.6261486'
p2184
sba(igraph
Edge
p2185
(dp2186
g7
I1
sg8
I00
sg9
I5
sg10
(lp2187
g684
ag803
asg26
I00
sg27
I00
sg28
I4807559
sg20
S'11318.6348961'
p2188
sba(igraph
Edge
p2189
(dp2190
g7
I1
sg8
I00
sg9
I5
sg10
(lp2191
g691
ag817
asg26
I00
sg27
I00
sg28
I4807560
sg20
S'11318.6438025'
p2192
sba(igraph
Edge
p2193
(dp2194
g7
I1
sg8
I00
sg9
I5
sg10
(lp2195
g698
ag817
asg26
I00
sg27
I00
sg28
I4807561
sg20
S'11318.6527536'
p2196
sba(igraph
Edge
p2197
(dp2198
g7
I1
sg8
I00
sg9
I5
sg10
(lp2199
g705
ag831
asg26
I00
sg27
I00
sg28
I4807562
sg20
S'11318.6615399'
p2200
sba(igraph
Edge
p2201
(dp2202
g7
I1
sg8
I00
sg9
I5
sg10
(lp2203
g712
ag831
asg26
I00
sg27
I00
sg28
I4807563
sg20
S'11318.6703721'
p2204
sba(igraph
Edge
p2205
(dp2206
g7
I1
sg8
I00
sg9
I5
sg10
(lp2207
g719
ag845
asg26
I00
sg27
I00
sg28
I4807564
sg20
S'11318.680227'
p2208
sba(igraph
Edge
p2209
(dp2210
g7
I1
sg8
I00
sg9
I5
sg10
(lp2211
g726
ag845
asg26
I00
sg27
I00
sg28
I4807565
sg20
S'11318.6891907'
p2212
sba(igraph
Edge
p2213
(dp2214
g7
I1
sg8
I00
sg9
I5
sg10
(lp2215
g618
ag740
asg26
I00
sg27
I00
sg28
I4807566
sg20
S'11318.6980884'
p2216
sba(igraph
Edge
p2217
(dp2218
g7
I1
sg8
I00
sg9
I5
sg10
(lp2219
g621
ag740
asg26
I00
sg27
I00
sg28
I4807567
sg20
S'11318.706958'
p2220
sba(igraph
Edge
p2221
(dp2222
g7
I1
sg8
I00
sg9
I5
sg10
(lp2223
g628
ag754
asg26
I00
sg27
I00
sg28
I4807568
sg20
S'11318.7159455'
p2224
sba(igraph
Edge
p2225
(dp2226
g7
I1
sg8
I00
sg9
I5
sg10
(lp2227
g635
ag754
asg26
I00
sg27
I00
sg28
I4807569
sg20
S'11318.7250614'
p2228
sba(igraph
Edge
p2229
(dp2230
g7
I1
sg8
I00
sg9
I5
sg10
(lp2231
g642
ag768
asg26
I00
sg27
I00
sg28
I4807570
sg20
S'11318.7342154'
p2232
sba(igraph
Edge
p2233
(dp2234
g7
I1
sg8
I00
sg9
I5
sg10
(lp2235
g649
ag768
asg26
I00
sg27
I00
sg28
I4807571
sg20
S'11318.7433316'
p2236
sba(igraph
Edge
p2237
(dp2238
g7
I1
sg8
I00
sg9
I5
sg10
(lp2239
g656
ag782
asg26
I00
sg27
I00
sg28
I4807572
sg20
S'11318.7523696'
p2240
sba(igraph
Edge
p2241
(dp2242
g7
I1
sg8
I00
sg9
I5
sg10
(lp2243
g663
ag782
asg26
I00
sg27
I00
sg28
I4807573
sg20
S'11318.76143'
p2244
sba(igraph
Edge
p2245
(dp2246
g7
I1
sg8
I00
sg9
I5
sg10
(lp2247
g670
ag796
asg26
I00
sg27
I00
sg28
I4807574
sg20
S'11318.7706544'
p2248
sba(igraph
Edge
p2249
(dp2250
g7
I1
sg8
I00
sg9
I5
sg10
(lp2251
g677
ag796
asg26
I00
sg27
I00
sg28
I4807575
sg20
S'11318.7800218'
p2252
sba(igraph
Edge
p2253
(dp2254
g7
I1
sg8
I00
sg9
I5
sg10
(lp2255
g684
ag810
asg26
I00
sg27
I00
sg28
I4807576
sg20
S'11318.7892914'
p2256
sba(igraph
Edge
p2257
(dp2258
g7
I1
sg8
I00
sg9
I5
sg10
(lp2259
g691
ag810
asg26
I00
sg27
I00
sg28
I4807577
sg20
S'11318.7987199'
p2260
sba(igraph
Edge
p2261
(dp2262
g7
I1
sg8
I00
sg9
I5
sg10
(lp2263
g698
ag824
asg26
I00
sg27
I00
sg28
I4807578
sg20
S'11318.8080259'
p2264
sba(igraph
Edge
p2265
(dp2266
g7
I1
sg8
I00
sg9
I5
sg10
(lp2267
g705
ag824
asg26
I00
sg27
I00
sg28
I4807579
sg20
S'11318.817255'
p2268
sba(igraph
Edge
p2269
(dp2270
g7
I1
sg8
I00
sg9
I5
sg10
(lp2271
g712
ag838
asg26
I00
sg27
I00
sg28
I4807580
sg20
S'11318.8264933'
p2272
sba(igraph
Edge
p2273
(dp2274
g7
I1
sg8
I00
sg9
I5
sg10
(lp2275
g719
ag838
asg26
I00
sg27
I00
sg28
I4807581
sg20
S'11318.8357406'
p2276
sba(igraph
Edge
p2277
(dp2278
g7
I1
sg8
I00
sg9
I5
sg10
(lp2279
g726
ag737
asg26
I00
sg27
I00
sg28
I4807582
sg20
S'11318.8452382'
p2280
sba(igraph
Edge
p2281
(dp2282
g7
I1
sg8
I00
sg9
I5
sg10
(lp2283
g737
ag856
asg26
I00
sg27
I00
sg28
I4807583
sg20
S'11318.8544807'
p2284
sba(igraph
Edge
p2285
(dp2286
g7
I1
sg8
I00
sg9
I5
sg10
(lp2287
g740
ag866
asg26
I00
sg27
I00
sg28
I4807584
sg20
S'11318.8638221'
p2288
sba(igraph
Edge
p2289
(dp2290
g7
I1
sg8
I00
sg9
I5
sg10
(lp2291
g747
ag866
asg26
I00
sg27
I00
sg28
I4807585
sg20
S'11318.8733671'
p2292
sba(igraph
Edge
p2293
(dp2294
g7
I1
sg8
I00
sg9
I5
sg10
(lp2295
g754
ag880
asg26
I00
sg27
I00
sg28
I4807586
sg20
S'11318.8828664'
p2296
sba(igraph
Edge
p2297
(dp2298
g7
I1
sg8
I00
sg9
I5
sg10
(lp2299
g761
ag880
asg26
I00
sg27
I00
sg28
I4807587
sg20
S'11318.8923229'
p2300
sba(igraph
Edge
p2301
(dp2302
g7
I1
sg8
I00
sg9
I5
sg10
(lp2303
g768
ag894
asg26
I00
sg27
I00
sg28
I4807588
sg20
S'11318.9015551'
p2304
sba(igraph
Edge
p2305
(dp2306
g7
I1
sg8
I00
sg9
I5
sg10
(lp2307
g775
ag894
asg26
I00
sg27
I00
sg28
I4807589
sg20
S'11318.9109476'
p2308
sba(igraph
Edge
p2309
(dp2310
g7
I1
sg8
I00
sg9
I5
sg10
(lp2311
g782
ag908
asg26
I00
sg27
I00
sg28
I4807590
sg20
S'11318.9204485'
p2312
sba(igraph
Edge
p2313
(dp2314
g7
I1
sg8
I00
sg9
I5
sg10
(lp2315
g789
ag908
asg26
I00
sg27
I00
sg28
I4807591
sg20
S'11318.9299593'
p2316
sba(igraph
Edge
p2317
(dp2318
g7
I1
sg8
I00
sg9
I5
sg10
(lp2319
g796
ag922
asg26
I00
sg27
I00
sg28
I4807592
sg20
S'11318.9394895'
p2320
sba(igraph
Edge
p2321
(dp2322
g7
I1
sg8
I00
sg9
I5
sg10
(lp2323
g803
ag922
asg26
I00
sg27
I00
sg28
I4807593
sg20
S'11318.9495346'
p2324
sba(igraph
Edge
p2325
(dp2326
g7
I1
sg8
I00
sg9
I5
sg10
(lp2327
g810
ag936
asg26
I00
sg27
I00
sg28
I4807594
sg20
S'11318.9591976'
p2328
sba(igraph
Edge
p2329
(dp2330
g7
I1
sg8
I00
sg9
I5
sg10
(lp2331
g817
ag936
asg26
I00
sg27
I00
sg28
I4807595
sg20
S'11318.9690927'
p2332
sba(igraph
Edge
p2333
(dp2334
g7
I1
sg8
I00
sg9
I5
sg10
(lp2335
g824
ag950
asg26
I00
sg27
I00
sg28
I4807596
sg20
S'11318.9786333'
p2336
sba(igraph
Edge
p2337
(dp2338
g7
I1
sg8
I00
sg9
I5
sg10
(lp2339
g831
ag950
asg26
I00
sg27
I00
sg28
I4807597
sg20
S'11318.9881393'
p2340
sba(igraph
Edge
p2341
(dp2342
g7
I1
sg8
I00
sg9
I5
sg10
(lp2343
g838
ag964
asg26
I00
sg27
I00
sg28
I4807598
sg20
S'11318.9976863'
p2344
sba(igraph
Edge
p2345
(dp2346
g7
I1
sg8
I00
sg9
I5
sg10
(lp2347
g845
ag964
asg26
I00
sg27
I00
sg28
I4807599
sg20
S'11319.0072202'
p2348
sba(igraph
Edge
p2349
(dp2350
g7
I1
sg8
I00
sg9
I5
sg10
(lp2351
g737
ag859
asg26
I00
sg27
I00
sg28
I4807600
sg20
S'11319.0168005'
p2352
sba(igraph
Edge
p2353
(dp2354
g7
I1
sg8
I00
sg9
I5
sg10
(lp2355
g740
ag859
asg26
I00
sg27
I00
sg28
I4807601
sg20
S'11319.0265587'
p2356
sba(igraph
Edge
p2357
(dp2358
g7
I1
sg8
I00
sg9
I5
sg10
(lp2359
g747
ag873
asg26
I00
sg27
I00
sg28
I4807602
sg20
S'11319.0364247'
p2360
sba(igraph
Edge
p2361
(dp2362
g7
I1
sg8
I00
sg9
I5
sg10
(lp2363
g754
ag873
asg26
I00
sg27
I00
sg28
I4807603
sg20
S'11319.0461517'
p2364
sba(igraph
Edge
p2365
(dp2366
g7
I1
sg8
I00
sg9
I5
sg10
(lp2367
g761
ag887
asg26
I00
sg27
I00
sg28
I4807604
sg20
S'11319.0559146'
p2368
sba(igraph
Edge
p2369
(dp2370
g7
I1
sg8
I00
sg9
I5
sg10
(lp2371
g768
ag887
asg26
I00
sg27
I00
sg28
I4807605
sg20
S'11319.0656787'
p2372
sba(igraph
Edge
p2373
(dp2374
g7
I1
sg8
I00
sg9
I5
sg10
(lp2375
g775
ag901
asg26
I00
sg27
I00
sg28
I4807606
sg20
S'11319.0753828'
p2376
sba(igraph
Edge
p2377
(dp2378
g7
I1
sg8
I00
sg9
I5
sg10
(lp2379
g782
ag901
asg26
I00
sg27
I00
sg28
I4807607
sg20
S'11319.0852159'
p2380
sba(igraph
Edge
p2381
(dp2382
g7
I1
sg8
I00
sg9
I5
sg10
(lp2383
g789
ag915
asg26
I00
sg27
I00
sg28
I4807608
sg20
S'11319.0950495'
p2384
sba(igraph
Edge
p2385
(dp2386
g7
I1
sg8
I00
sg9
I5
sg10
(lp2387
g796
ag915
asg26
I00
sg27
I00
sg28
I4807609
sg20
S'11319.1049466'
p2388
sba(igraph
Edge
p2389
(dp2390
g7
I1
sg8
I00
sg9
I5
sg10
(lp2391
g803
ag929
asg26
I00
sg27
I00
sg28
I4807610
sg20
S'11319.1149001'
p2392
sba(igraph
Edge
p2393
(dp2394
g7
I1
sg8
I00
sg9
I5
sg10
(lp2395
g810
ag929
asg26
I00
sg27
I00
sg28
I4807611
sg20
S'11319.1248684'
p2396
sba(igraph
Edge
p2397
(dp2398
g7
I1
sg8
I00
sg9
I5
sg10
(lp2399
g817
ag943
asg26
I00
sg27
I00
sg28
I4807612
sg20
S'11319.1349116'
p2400
sba(igraph
Edge
p2401
(dp2402
g7
I1
sg8
I00
sg9
I5
sg10
(lp2403
g824
ag943
asg26
I00
sg27
I00
sg28
I4807613
sg20
S'11319.1447963'
p2404
sba(igraph
Edge
p2405
(dp2406
g7
I1
sg8
I00
sg9
I5
sg10
(lp2407
g831
ag957
asg26
I00
sg27
I00
sg28
I4807614
sg20
S'11319.1547853'
p2408
sba(igraph
Edge
p2409
(dp2410
g7
I1
sg8
I00
sg9
I5
sg10
(lp2411
g838
ag957
asg26
I00
sg27
I00
sg28
I4807615
sg20
S'11319.1646991'
p2412
sba(igraph
Edge
p2413
(dp2414
g7
I1
sg8
I00
sg9
I5
sg10
(lp2415
g845
ag856
asg26
I00
sg27
I00
sg28
I4807616
sg20
S'11319.1746943'
p2416
sba(igraph
Edge
p2417
(dp2418
g7
I1
sg8
I00
sg9
I5
sg10
(lp2419
g856
ag975
asg26
I00
sg27
I00
sg28
I4807617
sg20
S'11319.1848185'
p2420
sba(igraph
Edge
p2421
(dp2422
g7
I1
sg8
I00
sg9
I5
sg10
(lp2423
g859
ag985
asg26
I00
sg27
I00
sg28
I4807618
sg20
S'11319.1950645'
p2424
sba(igraph
Edge
p2425
(dp2426
g7
I1
sg8
I00
sg9
I5
sg10
(lp2427
g866
ag985
asg26
I00
sg27
I00
sg28
I4807619
sg20
S'11319.2051065'
p2428
sba(igraph
Edge
p2429
(dp2430
g7
I1
sg8
I00
sg9
I5
sg10
(lp2431
g873
ag999
asg26
I00
sg27
I00
sg28
I4807620
sg20
S'11319.2151639'
p2432
sba(igraph
Edge
p2433
(dp2434
g7
I1
sg8
I00
sg9
I5
sg10
(lp2435
g880
ag999
asg26
I00
sg27
I00
sg28
I4807621
sg20
S'11319.2252018'
p2436
sba(igraph
Edge
p2437
(dp2438
g7
I1
sg8
I00
sg9
I5
sg10
(lp2439
g887
ag1013
asg26
I00
sg27
I00
sg28
I4807622
sg20
S'11319.2352042'
p2440
sba(igraph
Edge
p2441
(dp2442
g7
I1
sg8
I00
sg9
I5
sg10
(lp2443
g894
ag1013
asg26
I00
sg27
I00
sg28
I4807623
sg20
S'11319.2456759'
p2444
sba(igraph
Edge
p2445
(dp2446
g7
I1
sg8
I00
sg9
I5
sg10
(lp2447
g901
ag1027
asg26
I00
sg27
I00
sg28
I4807624
sg20
S'11319.2558146'
p2448
sba(igraph
Edge
p2449
(dp2450
g7
I1
sg8
I00
sg9
I5
sg10
(lp2451
g908
ag1027
asg26
I00
sg27
I00
sg28
I4807625
sg20
S'11319.2662009'
p2452
sba(igraph
Edge
p2453
(dp2454
g7
I1
sg8
I00
sg9
I5
sg10
(lp2455
g915
ag1041
asg26
I00
sg27
I00
sg28
I4807626
sg20
S'11319.2764195'
p2456
sba(igraph
Edge
p2457
(dp2458
g7
I1
sg8
I00
sg9
I5
sg10
(lp2459
g922
ag1041
asg26
I00
sg27
I00
sg28
I4807627
sg20
S'11319.2867043'
p2460
sba(igraph
Edge
p2461
(dp2462
g7
I1
sg8
I00
sg9
I5
sg10
(lp2463
g929
ag1055
asg26
I00
sg27
I00
sg28
I4807628
sg20
S'11319.2968475'
p2464
sba(igraph
Edge
p2465
(dp2466
g7
I1
sg8
I00
sg9
I5
sg10
(lp2467
g936
ag1055
asg26
I00
sg27
I00
sg28
I4807629
sg20
S'11319.3073111'
p2468
sba(igraph
Edge
p2469
(dp2470
g7
I1
sg8
I00
sg9
I5
sg10
(lp2471
g943
ag1069
asg26
I00
sg27
I00
sg28
I4807630
sg20
S'11319.3177507'
p2472
sba(igraph
Edge
p2473
(dp2474
g7
I1
sg8
I00
sg9
I5
sg10
(lp2475
g950
ag1069
asg26
I00
sg27
I00
sg28
I4807631
sg20
S'11319.3279844'
p2476
sba(igraph
Edge
p2477
(dp2478
g7
I1
sg8
I00
sg9
I5
sg10
(lp2479
g957
ag1083
asg26
I00
sg27
I00
sg28
I4807632
sg20
S'11319.3384151'
p2480
sba(igraph
Edge
p2481
(dp2482
g7
I1
sg8
I00
sg9
I5
sg10
(lp2483
g964
ag1083
asg26
I00
sg27
I00
sg28
I4807633
sg20
S'11319.3491385'
p2484
sba(igraph
Edge
p2485
(dp2486
g7
I1
sg8
I00
sg9
I5
sg10
(lp2487
g856
ag978
asg26
I00
sg27
I00
sg28
I4807634
sg20
S'11319.3595183'
p2488
sba(igraph
Edge
p2489
(dp2490
g7
I1
sg8
I00
sg9
I5
sg10
(lp2491
g859
ag978
asg26
I00
sg27
I00
sg28
I4807635
sg20
S'11319.3698945'
p2492
sba(igraph
Edge
p2493
(dp2494
g7
I1
sg8
I00
sg9
I5
sg10
(lp2495
g866
ag992
asg26
I00
sg27
I00
sg28
I4807636
sg20
S'11319.3803467'
p2496
sba(igraph
Edge
p2497
(dp2498
g7
I1
sg8
I00
sg9
I5
sg10
(lp2499
g873
ag992
asg26
I00
sg27
I00
sg28
I4807637
sg20
S'11319.3908368'
p2500
sba(igraph
Edge
p2501
(dp2502
g7
I1
sg8
I00
sg9
I5
sg10
(lp2503
g880
ag1006
asg26
I00
sg27
I00
sg28
I4807638
sg20
S'11319.4016265'
p2504
sba(igraph
Edge
p2505
(dp2506
g7
I1
sg8
I00
sg9
I5
sg10
(lp2507
g887
ag1006
asg26
I00
sg27
I00
sg28
I4807639
sg20
S'11319.4121208'
p2508
sba(igraph
Edge
p2509
(dp2510
g7
I1
sg8
I00
sg9
I5
sg10
(lp2511
g894
ag1020
asg26
I00
sg27
I00
sg28
I4807640
sg20
S'11319.422835'
p2512
sba(igraph
Edge
p2513
(dp2514
g7
I1
sg8
I00
sg9
I5
sg10
(lp2515
g901
ag1020
asg26
I00
sg27
I00
sg28
I4807641
sg20
S'11319.4336029'
p2516
sba(igraph
Edge
p2517
(dp2518
g7
I1
sg8
I00
sg9
I5
sg10
(lp2519
g908
ag1034
asg26
I00
sg27
I00
sg28
I4807642
sg20
S'11319.4443911'
p2520
sba(igraph
Edge
p2521
(dp2522
g7
I1
sg8
I00
sg9
I5
sg10
(lp2523
g915
ag1034
asg26
I00
sg27
I00
sg28
I4807643
sg20
S'11319.4550056'
p2524
sba(igraph
Edge
p2525
(dp2526
g7
I1
sg8
I00
sg9
I5
sg10
(lp2527
g922
ag1048
asg26
I00
sg27
I00
sg28
I4807644
sg20
S'11319.4656251'
p2528
sba(igraph
Edge
p2529
(dp2530
g7
I1
sg8
I00
sg9
I5
sg10
(lp2531
g929
ag1048
asg26
I00
sg27
I00
sg28
I4807645
sg20
S'11319.4762312'
p2532
sba(igraph
Edge
p2533
(dp2534
g7
I1
sg8
I00
sg9
I5
sg10
(lp2535
g936
ag1062
asg26
I00
sg27
I00
sg28
I4807646
sg20
S'11319.4868839'
p2536
sba(igraph
Edge
p2537
(dp2538
g7
I1
sg8
I00
sg9
I5
sg10
(lp2539
g943
ag1062
asg26
I00
sg27
I00
sg28
I4807647
sg20
S'11319.497635'
p2540
sba(igraph
Edge
p2541
(dp2542
g7
I1
sg8
I00
sg9
I5
sg10
(lp2543
g950
ag1076
asg26
I00
sg27
I00
sg28
I4807648
sg20
S'11319.5083772'
p2544
sba(igraph
Edge
p2545
(dp2546
g7
I1
sg8
I00
sg9
I5
sg10
(lp2547
g957
ag1076
asg26
I00
sg27
I00
sg28
I4807649
sg20
S'11319.5192526'
p2548
sba(igraph
Edge
p2549
(dp2550
g7
I1
sg8
I00
sg9
I5
sg10
(lp2551
g964
ag975
asg26
I00
sg27
I00
sg28
I4807650
sg20
S'11319.5306755'
p2552
sba(igraph
Edge
p2553
(dp2554
g7
I1
sg8
I00
sg9
I5
sg10
(lp2555
g975
ag1094
asg26
I00
sg27
I00
sg28
I4807651
sg20
S'11319.5417107'
p2556
sba(igraph
Edge
p2557
(dp2558
g7
I1
sg8
I00
sg9
I5
sg10
(lp2559
g978
ag1104
asg26
I00
sg27
I00
sg28
I4807652
sg20
S'11319.5524786'
p2560
sba(igraph
Edge
p2561
(dp2562
g7
I1
sg8
I00
sg9
I5
sg10
(lp2563
g985
ag1104
asg26
I00
sg27
I00
sg28
I4807653
sg20
S'11319.5633948'
p2564
sba(igraph
Edge
p2565
(dp2566
g7
I1
sg8
I00
sg9
I5
sg10
(lp2567
g992
ag1118
asg26
I00
sg27
I00
sg28
I4807654
sg20
S'11319.5743487'
p2568
sba(igraph
Edge
p2569
(dp2570
g7
I1
sg8
I00
sg9
I5
sg10
(lp2571
g999
ag1118
asg26
I00
sg27
I00
sg28
I4807655
sg20
S'11319.5854699'
p2572
sba(igraph
Edge
p2573
(dp2574
g7
I1
sg8
I00
sg9
I5
sg10
(lp2575
g1006
ag1132
asg26
I00
sg27
I00
sg28
I4807656
sg20
S'11319.5964685'
p2576
sba(igraph
Edge
p2577
(dp2578
g7
I1
sg8
I00
sg9
I5
sg10
(lp2579
g1013
ag1132
asg26
I00
sg27
I00
sg28
I4807657
sg20
S'11319.6074482'
p2580
sba(igraph
Edge
p2581
(dp2582
g7
I1
sg8
I00
sg9
I5
sg10
(lp2583
g1020
ag1146
asg26
I00
sg27
I00
sg28
I4807658
sg20
S'11319.6185906'
p2584
sba(igraph
Edge
p2585
(dp2586
g7
I1
sg8
I00
sg9
I5
sg10
(lp2587
g1027
ag1146
asg26
I00
sg27
I00
sg28
I4807659
sg20
S'11319.6294652'
p2588
sba(igraph
Edge
p2589
(dp2590
g7
I1
sg8
I00
sg9
I5
sg10
(lp2591
g1034
ag1160
asg26
I00
sg27
I00
sg28
I4807660
sg20
S'11319.6404484'
p2592
sba(igraph
Edge
p2593
(dp2594
g7
I1
sg8
I00
sg9
I5
sg10
(lp2595
g1041
ag1160
asg26
I00
sg27
I00
sg28
I4807661
sg20
S'11319.6515334'
p2596
sba(igraph
Edge
p2597
(dp2598
g7
I1
sg8
I00
sg9
I5
sg10
(lp2599
g1048
ag1174
asg26
I00
sg27
I00
sg28
I4807662
sg20
S'11319.6627434'
p2600
sba(igraph
Edge
p2601
(dp2602
g7
I1
sg8
I00
sg9
I5
sg10
(lp2603
g1055
ag1174
asg26
I00
sg27
I00
sg28
I4807663
sg20
S'11319.6738155'
p2604
sba(igraph
Edge
p2605
(dp2606
g7
I1
sg8
I00
sg9
I5
sg10
(lp2607
g1062
ag1188
asg26
I00
sg27
I00
sg28
I4807664
sg20
S'11319.6850887'
p2608
sba(igraph
Edge
p2609
(dp2610
g7
I1
sg8
I00
sg9
I5
sg10
(lp2611
g1069
ag1188
asg26
I00
sg27
I00
sg28
I4807665
sg20
S'11319.69607'
p2612
sba(igraph
Edge
p2613
(dp2614
g7
I1
sg8
I00
sg9
I5
sg10
(lp2615
g1076
ag1202
asg26
I00
sg27
I00
sg28
I4807666
sg20
S'11319.7072407'
p2616
sba(igraph
Edge
p2617
(dp2618
g7
I1
sg8
I00
sg9
I5
sg10
(lp2619
g1083
ag1202
asg26
I00
sg27
I00
sg28
I4807667
sg20
S'11319.7184665'
p2620
sba(igraph
Edge
p2621
(dp2622
g7
I1
sg8
I00
sg9
I5
sg10
(lp2623
g975
ag1097
asg26
I00
sg27
I00
sg28
I4807668
sg20
S'11319.7296735'
p2624
sba(igraph
Edge
p2625
(dp2626
g7
I1
sg8
I00
sg9
I5
sg10
(lp2627
g978
ag1097
asg26
I00
sg27
I00
sg28
I4807669
sg20
S'11319.741059'
p2628
sba(igraph
Edge
p2629
(dp2630
g7
I1
sg8
I00
sg9
I5
sg10
(lp2631
g985
ag1111
asg26
I00
sg27
I00
sg28
I4807670
sg20
S'11319.752378'
p2632
sba(igraph
Edge
p2633
(dp2634
g7
I1
sg8
I00
sg9
I5
sg10
(lp2635
g992
ag1111
asg26
I00
sg27
I00
sg28
I4807671
sg20
S'11319.7635071'
p2636
sba(igraph
Edge
p2637
(dp2638
g7
I1
sg8
I00
sg9
I5
sg10
(lp2639
g999
ag1125
asg26
I00
sg27
I00
sg28
I4807672
sg20
S'11319.774777'
p2640
sba(igraph
Edge
p2641
(dp2642
g7
I1
sg8
I00
sg9
I5
sg10
(lp2643
g1006
ag1125
asg26
I00
sg27
I00
sg28
I4807673
sg20
S'11319.7859443'
p2644
sba(igraph
Edge
p2645
(dp2646
g7
I1
sg8
I00
sg9
I5
sg10
(lp2647
g1013
ag1139
asg26
I00
sg27
I00
sg28
I4807674
sg20
S'11319.7972304'
p2648
sba(igraph
Edge
p2649
(dp2650
g7
I1
sg8
I00
sg9
I5
sg10
(lp2651
g1020
ag1139
asg26
I00
sg27
I00
sg28
I4807675
sg20
S'11319.8087338'
p2652
sba(igraph
Edge
p2653
(dp2654
g7
I1
sg8
I00
sg9
I5
sg10
(lp2655
g1027
ag1153
asg26
I00
sg27
I00
sg28
I4807676
sg20
S'11319.8203199'
p2656
sba(igraph
Edge
p2657
(dp2658
g7
I1
sg8
I00
sg9
I5
sg10
(lp2659
g1034
ag1153
asg26
I00
sg27
I00
sg28
I4807677
sg20
S'11319.8318345'
p2660
sba(igraph
Edge
p2661
(dp2662
g7
I1
sg8
I00
sg9
I5
sg10
(lp2663
g1041
ag1167
asg26
I00
sg27
I00
sg28
I4807678
sg20
S'11319.8433038'
p2664
sba(igraph
Edge
p2665
(dp2666
g7
I1
sg8
I00
sg9
I5
sg10
(lp2667
g1048
ag1167
asg26
I00
sg27
I00
sg28
I4807679
sg20
S'11319.8547145'
p2668
sba(igraph
Edge
p2669
(dp2670
g7
I1
sg8
I00
sg9
I5
sg10
(lp2671
g1055
ag1181
asg26
I00
sg27
I00
sg28
I4807680
sg20
S'11319.866062'
p2672
sba(igraph
Edge
p2673
(dp2674
g7
I1
sg8
I00
sg9
I5
sg10
(lp2675
g1062
ag1181
asg26
I00
sg27
I00
sg28
I4807681
sg20
S'11319.8775202'
p2676
sba(igraph
Edge
p2677
(dp2678
g7
I1
sg8
I00
sg9
I5
sg10
(lp2679
g1069
ag1195
asg26
I00
sg27
I00
sg28
I4807682
sg20
S'11319.8889152'
p2680
sba(igraph
Edge
p2681
(dp2682
g7
I1
sg8
I00
sg9
I5
sg10
(lp2683
g1076
ag1195
asg26
I00
sg27
I00
sg28
I4807683
sg20
S'11319.9005041'
p2684
sba(igraph
Edge
p2685
(dp2686
g7
I1
sg8
I00
sg9
I5
sg10
(lp2687
g1083
ag1094
asg26
I00
sg27
I00
sg28
I4807684
sg20
S'11319.9122159'
p2688
sba(igraph
Edge
p2689
(dp2690
g7
I1
sg8
I00
sg9
I5
sg10
(lp2691
g1094
ag1213
asg26
I00
sg27
I00
sg28
I4807685
sg20
S'11319.9237448'
p2692
sba(igraph
Edge
p2693
(dp2694
g7
I1
sg8
I00
sg9
I5
sg10
(lp2695
g1097
ag1223
asg26
I00
sg27
I00
sg28
I4807686
sg20
S'11319.9353141'
p2696
sba(igraph
Edge
p2697
(dp2698
g7
I1
sg8
I00
sg9
I5
sg10
(lp2699
g1104
ag1223
asg26
I00
sg27
I00
sg28
I4807687
sg20
S'11319.946829'
p2700
sba(igraph
Edge
p2701
(dp2702
g7
I1
sg8
I00
sg9
I5
sg10
(lp2703
g1111
ag1237
asg26
I00
sg27
I00
sg28
I4807688
sg20
S'11319.9583874'
p2704
sba(igraph
Edge
p2705
(dp2706
g7
I1
sg8
I00
sg9
I5
sg10
(lp2707
g1118
ag1237
asg26
I00
sg27
I00
sg28
I4807689
sg20
S'11319.9699772'
p2708
sba(igraph
Edge
p2709
(dp2710
g7
I1
sg8
I00
sg9
I5
sg10
(lp2711
g1125
ag1251
asg26
I00
sg27
I00
sg28
I4807690
sg20
S'11319.9815999'
p2712
sba(igraph
Edge
p2713
(dp2714
g7
I1
sg8
I00
sg9
I5
sg10
(lp2715
g1132
ag1251
asg26
I00
sg27
I00
sg28
I4807691
sg20
S'11319.993721'
p2716
sba(igraph
Edge
p2717
(dp2718
g7
I1
sg8
I00
sg9
I5
sg10
(lp2719
g1139
ag1265
asg26
I00
sg27
I00
sg28
I4807692
sg20
S'11320.005649'
p2720
sba(igraph
Edge
p2721
(dp2722
g7
I1
sg8
I00
sg9
I5
sg10
(lp2723
g1146
ag1265
asg26
I00
sg27
I00
sg28
I4807693
sg20
S'11320.017488'
p2724
sba(igraph
Edge
p2725
(dp2726
g7
I1
sg8
I00
sg9
I5
sg10
(lp2727
g1153
ag1279
asg26
I00
sg27
I00
sg28
I4807694
sg20
S'11320.0292297'
p2728
sba(igraph
Edge
p2729
(dp2730
g7
I1
sg8
I00
sg9
I5
sg10
(lp2731
g1160
ag1279
asg26
I00
sg27
I00
sg28
I4807695
sg20
S'11320.0410256'
p2732
sba(igraph
Edge
p2733
(dp2734
g7
I1
sg8
I00
sg9
I5
sg10
(lp2735
g1167
ag1293
asg26
I00
sg27
I00
sg28
I4807696
sg20
S'11320.0528257'
p2736
sba(igraph
Edge
p2737
(dp2738
g7
I1
sg8
I00
sg9
I5
sg10
(lp2739
g1174
ag1293
asg26
I00
sg27
I00
sg28
I4807697
sg20
S'11320.0645479'
p2740
sba(igraph
Edge
p2741
(dp2742
g7
I1
sg8
I00
sg9
I5
sg10
(lp2743
g1181
ag1307
asg26
I00
sg27
I00
sg28
I4807698
sg20
S'11320.0762597'
p2744
sba(igraph
Edge
p2745
(dp2746
g7
I1
sg8
I00
sg9
I5
sg10
(lp2747
g1188
ag1307
asg26
I00
sg27
I00
sg28
I4807699
sg20
S'11320.088259'
p2748
sba(igraph
Edge
p2749
(dp2750
g7
I1
sg8
I00
sg9
I5
sg10
(lp2751
g1195
ag1321
asg26
I00
sg27
I00
sg28
I4807700
sg20
S'11320.0999501'
p2752
sba(igraph
Edge
p2753
(dp2754
g7
I1
sg8
I00
sg9
I5
sg10
(lp2755
g1202
ag1321
asg26
I00
sg27
I00
sg28
I4807701
sg20
S'11320.1117136'
p2756
sba(igraph
Edge
p2757
(dp2758
g7
I1
sg8
I00
sg9
I5
sg10
(lp2759
g1094
ag1216
asg26
I00
sg27
I00
sg28
I4807702
sg20
S'11320.1235291'
p2760
sba(igraph
Edge
p2761
(dp2762
g7
I1
sg8
I00
sg9
I5
sg10
(lp2763
g1097
ag1216
asg26
I00
sg27
I00
sg28
I4807703
sg20
S'11320.1352596'
p2764
sba(igraph
Edge
p2765
(dp2766
g7
I1
sg8
I00
sg9
I5
sg10
(lp2767
g1104
ag1230
asg26
I00
sg27
I00
sg28
I4807704
sg20
S'11320.1470726'
p2768
sba(igraph
Edge
p2769
(dp2770
g7
I1
sg8
I00
sg9
I5
sg10
(lp2771
g1111
ag1230
asg26
I00
sg27
I00
sg28
I4807705
sg20
S'11320.1589481'
p2772
sba(igraph
Edge
p2773
(dp2774
g7
I1
sg8
I00
sg9
I5
sg10
(lp2775
g1118
ag1244
asg26
I00
sg27
I00
sg28
I4807706
sg20
S'11320.1708379'
p2776
sba(igraph
Edge
p2777
(dp2778
g7
I1
sg8
I00
sg9
I5
sg10
(lp2779
g1125
ag1244
asg26
I00
sg27
I00
sg28
I4807707
sg20
S'11320.1829442'
p2780
sba(igraph
Edge
p2781
(dp2782
g7
I1
sg8
I00
sg9
I5
sg10
(lp2783
g1132
ag1258
asg26
I00
sg27
I00
sg28
I4807708
sg20
S'11320.1949013'
p2784
sba(igraph
Edge
p2785
(dp2786
g7
I1
sg8
I00
sg9
I5
sg10
(lp2787
g1139
ag1258
asg26
I00
sg27
I00
sg28
I4807709
sg20
S'11320.2068903'
p2788
sba(igraph
Edge
p2789
(dp2790
g7
I1
sg8
I00
sg9
I5
sg10
(lp2791
g1146
ag1272
asg26
I00
sg27
I00
sg28
I4807710
sg20
S'11320.2188921'
p2792
sba(igraph
Edge
p2793
(dp2794
g7
I1
sg8
I00
sg9
I5
sg10
(lp2795
g1153
ag1272
asg26
I00
sg27
I00
sg28
I4807711
sg20
S'11320.2326296'
p2796
sba(igraph
Edge
p2797
(dp2798
g7
I1
sg8
I00
sg9
I5
sg10
(lp2799
g1160
ag1286
asg26
I00
sg27
I00
sg28
I4807712
sg20
S'11320.2462562'
p2800
sba(igraph
Edge
p2801
(dp2802
g7
I1
sg8
I00
sg9
I5
sg10
(lp2803
g1167
ag1286
asg26
I00
sg27
I00
sg28
I4807713
sg20
S'11320.2592405'
p2804
sba(igraph
Edge
p2805
(dp2806
g7
I1
sg8
I00
sg9
I5
sg10
(lp2807
g1174
ag1300
asg26
I00
sg27
I00
sg28
I4807714
sg20
S'11320.2722913'
p2808
sba(igraph
Edge
p2809
(dp2810
g7
I1
sg8
I00
sg9
I5
sg10
(lp2811
g1181
ag1300
asg26
I00
sg27
I00
sg28
I4807715
sg20
S'11320.2855223'
p2812
sba(igraph
Edge
p2813
(dp2814
g7
I1
sg8
I00
sg9
I5
sg10
(lp2815
g1188
ag1314
asg26
I00
sg27
I00
sg28
I4807716
sg20
S'11320.2980904'
p2816
sba(igraph
Edge
p2817
(dp2818
g7
I1
sg8
I00
sg9
I5
sg10
(lp2819
g1195
ag1314
asg26
I00
sg27
I00
sg28
I4807717
sg20
S'11320.3107068'
p2820
sba(igraph
Edge
p2821
(dp2822
g7
I1
sg8
I00
sg9
I5
sg10
(lp2823
g1202
ag1213
asg26
I00
sg27
I00
sg28
I4807718
sg20
S'11320.3232349'
p2824
sbasS'vertices'
p2825
(lp2826
g12
ag23
ag33
ag40
ag47
ag54
ag61
ag68
ag75
ag82
ag89
ag96
ag103
ag110
ag117
ag124
ag131
ag142
ag145
ag152
ag159
ag166
ag173
ag180
ag187
ag194
ag201
ag208
ag215
ag222
ag229
ag236
ag243
ag250
ag261
ag264
ag271
ag278
ag285
ag292
ag299
ag306
ag313
ag320
ag327
ag334
ag341
ag348
ag355
ag362
ag369
ag380
ag383
ag390
ag397
ag404
ag411
ag418
ag425
ag432
ag439
ag446
ag453
ag460
ag467
ag474
ag481
ag488
ag499
ag502
ag509
ag516
ag523
ag530
ag537
ag544
ag551
ag558
ag565
ag572
ag579
ag586
ag593
ag600
ag607
ag618
ag621
ag628
ag635
ag642
ag649
ag656
ag663
ag670
ag677
ag684
ag691
ag698
ag705
ag712
ag719
ag726
ag737
ag740
ag747
ag754
ag761
ag768
ag775
ag782
ag789
ag796
ag803
ag810
ag817
ag824
ag831
ag838
ag845
ag856
ag859
ag866
ag873
ag880
ag887
ag894
ag901
ag908
ag915
ag922
ag929
ag936
ag943
ag950
ag957
ag964
ag975
ag978
ag985
ag992
ag999
ag1006
ag1013
ag1020
ag1027
ag1034
ag1041
ag1048
ag1055
ag1062
ag1069
ag1076
ag1083
ag1094
ag1097
ag1104
ag1111
ag1118
ag1125
ag1132
ag1139
ag1146
ag1153
ag1160
ag1167
ag1174
ag1181
ag1188
ag1195
ag1202
ag1213
ag1216
ag1223
ag1230
ag1237
ag1244
ag1251
ag1258
ag1265
ag1272
ag1279
ag1286
ag1293
ag1300
ag1307
ag1314
ag1321
asS'tags'
p2827
(lp2828
sb.