(igraph
Graph
p0
(dp1
S'labelingConstraints'
p2
I-1
sS'edges'
p3
(lp4
(igraph
Edge
p5
(dp6
S'direction'
p7
I1
sS'selected'
p8
I00
sS'height'
p9
I5
sS'vs'
p10
(lp11
(igraph
Vertex
p12
(dp13
S'xnorm'
p14
F0.0
sg8
I00
sS'label'
p15
S'NULL'
p16
sS'y'
p17
F-284.0
sS'x'
p18
F288.0
sS'circle'
p19
I4893881
sS'id'
p20
S'11710.9780173'
p21
sS'ynorm'
p22
F0.0
sba(igraph
Vertex
p23
(dp24
g14
F0.0625
sg8
I00
sg15
g16
sg17
F-284.0
sg18
F244.0625
sg19
I4893882
sg20
S'11710.9780408'
p25
sg22
F0.0
sbasS'wrap'
p26
I00
sS'curved'
p27
I00
sS'line'
p28
I4893371
sg20
S'11711.0980317'
p29
sba(igraph
Edge
p30
(dp31
g7
I1
sg8
I00
sg9
I5
sg10
(lp32
g23
a(igraph
Vertex
p33
(dp34
g14
F0.125
sg8
I00
sg15
g16
sg17
F-284.0
sg18
F200.125
sg19
I4893883
sg20
S'11710.9780631'
p35
sg22
F0.0
sbasg26
I00
sg27
I00
sg28
I4893372
sg20
S'11711.0980912'
p36
sba(igraph
Edge
p37
(dp38
g7
I1
sg8
I00
sg9
I5
sg10
(lp39
g33
a(igraph
Vertex
p40
(dp41
g14
F0.1875
sg8
I00
sg15
g16
sg17
F-284.0
sg18
F156.1875
sg19
I4893884
sg20
S'11710.9780894'
p42
sg22
F0.0
sbasg26
I00
sg27
I00
sg28
I4893373
sg20
S'11711.0981692'
p43
sba(igraph
Edge
p44
(dp45
g7
I1
sg8
I00
sg9
I5
sg10
(lp46
g40
a(igraph
Vertex
p47
(dp48
g14
F0.25
sg8
I00
sg15
I0
sg17
F-284.0
sg18
F112.25
sg19
I4893885
sg20
S'11710.9781232'
p49
sg22
F0.0
sbasg26
I00
sg27
I00
sg28
I4893374
sg20
S'11711.0982686'
p50
sba(igraph
Edge
p51
(dp52
g7
I1
sg8
I00
sg9
I5
sg10
(lp53
g47
a(igraph
Vertex
p54
(dp55
g14
F0.3125
sg8
I00
sg15
g16
sg17
F-284.0
sg18
F68.3125
sg19
I4893887
sg20
S'11710.9781637'
p56
sg22
F0.0
sbasg26
I00
sg27
I00
sg28
I4893375
sg20
S'11711.0983902'
p57
sba(igraph
Edge
p58
(dp59
g7
I1
sg8
I00
sg9
I5
sg10
(lp60
g54
a(igraph
Vertex
p61
(dp62
g14
F0.375
sg8
I00
sg15
g16
sg17
F-284.0
sg18
F24.375
sg19
I4893888
sg20
S'11710.9782132'
p63
sg22
F0.0
sbasg26
I00
sg27
I00
sg28
I4893376
sg20
S'11711.0985343'
p64
sba(igraph
Edge
p65
(dp66
g7
I1
sg8
I00
sg9
I5
sg10
(lp67
g61
a(igraph
Vertex
p68
(dp69
g14
F0.4375
sg8
I00
sg15
g16
sg17
F-284.0
sg18
F-19.5625
sg19
I4893889
sg20
S'11710.9782696'
p70
sg22
F0.0
sbasg26
I00
sg27
I00
sg28
I4893377
sg20
S'11711.0986989'
p71
sba(igraph
Edge
p72
(dp73
g7
I1
sg8
I00
sg9
I5
sg10
(lp74
g68
a(igraph
Vertex
p75
(dp76
g14
F0.5
sg8
I00
sg15
g16
sg17
F-284.0
sg18
F-63.5
sg19
I4893890
sg20
S'11710.9783333'
p77
sg22
F0.0
sbasg26
I00
sg27
I00
sg28
I4893378
sg20
S'11711.098886'
p78
sba(igraph
Edge
p79
(dp80
g7
I1
sg8
I00
sg9
I5
sg10
(lp81
g75
a(igraph
Vertex
p82
(dp83
g14
F0.5625
sg8
I00
sg15
g16
sg17
F-284.0
sg18
F-107.4375
sg19
I4893891
sg20
S'11710.9784045'
p84
sg22
F0.0
sbasg26
I00
sg27
I00
sg28
I4893379
sg20
S'11711.0990944'
p85
sba(igraph
Edge
p86
(dp87
g7
I1
sg8
I00
sg9
I5
sg10
(lp88
g82
a(igraph
Vertex
p89
(dp90
g14
F0.625
sg8
I00
sg15
g16
sg17
F-284.0
sg18
F-151.375
sg19
I4893892
sg20
S'11710.9784833'
p91
sg22
F0.0
sbasg26
I00
sg27
I00
sg28
I4893380
sg20
S'11711.099326'
p92
sba(igraph
Edge
p93
(dp94
g7
I1
sg8
I00
sg9
I5
sg10
(lp95
g89
a(igraph
Vertex
p96
(dp97
g14
F0.6875
sg8
I00
sg15
g16
sg17
F-284.0
sg18
F-195.3125
sg19
I4893893
sg20
S'11710.9785696'
p98
sg22
F0.0
sbasg26
I00
sg27
I00
sg28
I4893381
sg20
S'11711.0996643'
p99
sba(igraph
Edge
p100
(dp101
g7
I1
sg8
I00
sg9
I5
sg10
(lp102
g96
a(igraph
Vertex
p103
(dp104
g14
F0.75
sg8
I00
sg15
g16
sg17
F-284.0
sg18
F-239.25
sg19
I4893894
sg20
S'11710.9786638'
p105
sg22
F0.0
sbasg26
I00
sg27
I00
sg28
I4893382
sg20
S'11711.0999409'
p106
sba(igraph
Edge
p107
(dp108
g7
I1
sg8
I00
sg9
I5
sg10
(lp109
g103
a(igraph
Vertex
p110
(dp111
g14
F0.8125
sg8
I00
sg15
g16
sg17
F-284.0
sg18
F-283.1875
sg19
I4893895
sg20
S'11710.9787652'
p112
sg22
F0.0
sbasg26
I00
sg27
I00
sg28
I4893383
sg20
S'11711.100237'
p113
sba(igraph
Edge
p114
(dp115
g7
I1
sg8
I00
sg9
I5
sg10
(lp116
g110
a(igraph
Vertex
p117
(dp118
g14
F0.875
sg8
I00
sg15
g16
sg17
F-284.0
sg18
F-327.125
sg19
I4893896
sg20
S'11710.9788758'
p119
sg22
F0.0
sbasg26
I00
sg27
I00
sg28
I4893384
sg20
S'11711.1005544'
p120
sba(igraph
Edge
p121
(dp122
g7
I1
sg8
I00
sg9
I5
sg10
(lp123
g117
a(igraph
Vertex
p124
(dp125
g14
F0.9375
sg8
I00
sg15
g16
sg17
F-284.0
sg18
F-371.0625
sg19
I4893897
sg20
S'11710.9789943'
p126
sg22
F0.0
sbasg26
I00
sg27
I00
sg28
I4893385
sg20
S'11711.100893'
p127
sba(igraph
Edge
p128
(dp129
g7
I1
sg8
I00
sg9
I5
sg10
(lp130
g124
a(igraph
Vertex
p131
(dp132
g14
F1.0
sg8
I00
sg15
g16
sg17
F-284.0
sg18
F-415.0
sg19
I4893898
sg20
S'11710.9791203'
p133
sg22
F0.0
sbasg26
I00
sg27
I00
sg28
I4893386
sg20
S'11711.1012523'
p134
sba(igraph
Edge
p135
(dp136
g7
I1
sg8
I00
sg9
I5
sg10
(lp137
g131
ag12
asg26
I00
sg27
I00
sg28
I4893387
sg20
S'11711.101635'
p138
sba(igraph
Edge
p139
(dp140
g7
I1
sg8
I00
sg9
I5
sg10
(lp141
(igraph
Vertex
p142
(dp143
g14
F0.0
sg8
I00
sg15
g16
sg17
F-224.11111111111111
sg18
F288.0
sg19
I4893899
sg20
S'11710.9792532'
p144
sg22
F0.11111111111111109
sba(igraph
Vertex
p145
(dp146
g14
F0.0625
sg8
I00
sg15
g16
sg17
F-224.11111111111111
sg18
F244.0625
sg19
I4893900
sg20
S'11710.979396'
p147
sg22
F0.11111111111111109
sbasg26
I00
sg27
I00
sg28
I4893388
sg20
S'11711.1020426'
p148
sba(igraph
Edge
p149
(dp150
g7
I1
sg8
I00
sg9
I5
sg10
(lp151
g145
a(igraph
Vertex
p152
(dp153
g14
F0.125
sg8
I00
sg15
g16
sg17
F-224.11111111111111
sg18
F200.125
sg19
I4893901
sg20
S'11710.9795457'
p154
sg22
F0.11111111111111109
sbasg26
I00
sg27
I00
sg28
I4893389
sg20
S'11711.1024692'
p155
sba(igraph
Edge
p156
(dp157
g7
I1
sg8
I00
sg9
I5
sg10
(lp158
g152
a(igraph
Vertex
p159
(dp160
g14
F0.1875
sg8
I00
sg15
g16
sg17
F-224.11111111111111
sg18
F156.1875
sg19
I4893902
sg20
S'11710.9797027'
p161
sg22
F0.11111111111111109
sbasg26
I00
sg27
I00
sg28
I4893390
sg20
S'11711.1029189'
p162
sba(igraph
Edge
p163
(dp164
g7
I1
sg8
I00
sg9
I5
sg10
(lp165
g159
a(igraph
Vertex
p166
(dp167
g14
F0.25
sg8
I00
sg15
g16
sg17
F-224.11111111111111
sg18
F112.25
sg19
I4893903
sg20
S'11710.9798687'
p168
sg22
F0.11111111111111109
sbasg26
I00
sg27
I00
sg28
I4893391
sg20
S'11711.1033914'
p169
sba(igraph
Edge
p170
(dp171
g7
I1
sg8
I00
sg9
I5
sg10
(lp172
g166
a(igraph
Vertex
p173
(dp174
g14
F0.3125
sg8
I00
sg15
g16
sg17
F-224.11111111111111
sg18
F68.3125
sg19
I4893904
sg20
S'11710.9800469'
p175
sg22
F0.11111111111111109
sbasg26
I00
sg27
I00
sg28
I4893392
sg20
S'11711.1038828'
p176
sba(igraph
Edge
p177
(dp178
g7
I1
sg8
I00
sg9
I5
sg10
(lp179
g173
a(igraph
Vertex
p180
(dp181
g14
F0.375
sg8
I00
sg15
I0
sg17
F-224.11111111111111
sg18
F24.375
sg19
I4893905
sg20
S'11710.9802263'
p182
sg22
F0.11111111111111109
sbasg26
I00
sg27
I00
sg28
I4893393
sg20
S'11711.1043948'
p183
sba(igraph
Edge
p184
(dp185
g7
I1
sg8
I00
sg9
I5
sg10
(lp186
g180
a(igraph
Vertex
p187
(dp188
g14
F0.4375
sg8
I00
sg15
g16
sg17
F-224.11111111111111
sg18
F-19.5625
sg19
I4893907
sg20
S'11710.9804173'
p189
sg22
F0.11111111111111109
sbasg26
I00
sg27
I00
sg28
I4893394
sg20
S'11711.1049287'
p190
sba(igraph
Edge
p191
(dp192
g7
I1
sg8
I00
sg9
I5
sg10
(lp193
g187
a(igraph
Vertex
p194
(dp195
g14
F0.5
sg8
I00
sg15
g16
sg17
F-224.11111111111111
sg18
F-63.5
sg19
I4893908
sg20
S'11710.9806137'
p196
sg22
F0.11111111111111109
sbasg26
I00
sg27
I00
sg28
I4893395
sg20
S'11711.1054846'
p197
sba(igraph
Edge
p198
(dp199
g7
I1
sg8
I00
sg9
I5
sg10
(lp200
g194
a(igraph
Vertex
p201
(dp202
g14
F0.5625
sg8
I00
sg15
g16
sg17
F-224.11111111111111
sg18
F-107.4375
sg19
I4893909
sg20
S'11710.9808182'
p203
sg22
F0.11111111111111109
sbasg26
I00
sg27
I00
sg28
I4893396
sg20
S'11711.1060626'
p204
sba(igraph
Edge
p205
(dp206
g7
I1
sg8
I00
sg9
I5
sg10
(lp207
g201
a(igraph
Vertex
p208
(dp209
g14
F0.625
sg8
I00
sg15
g16
sg17
F-224.11111111111111
sg18
F-151.375
sg19
I4893910
sg20
S'11710.9810305'
p210
sg22
F0.11111111111111109
sbasg26
I00
sg27
I00
sg28
I4893397
sg20
S'11711.1066627'
p211
sba(igraph
Edge
p212
(dp213
g7
I1
sg8
I00
sg9
I5
sg10
(lp214
g208
a(igraph
Vertex
p215
(dp216
g14
F0.6875
sg8
I00
sg15
g16
sg17
F-224.11111111111111
sg18
F-195.3125
sg19
I4893911
sg20
S'11710.9812518'
p217
sg22
F0.11111111111111109
sbasg26
I00
sg27
I00
sg28
I4893398
sg20
S'11711.1072829'
p218
sba(igraph
Edge
p219
(dp220
g7
I1
sg8
I00
sg9
I5
sg10
(lp221
g215
a(igraph
Vertex
p222
(dp223
g14
F0.75
sg8
I00
sg15
g16
sg17
F-224.11111111111111
sg18
F-239.25
sg19
I4893912
sg20
S'11710.9814823'
p224
sg22
F0.11111111111111109
sbasg26
I00
sg27
I00
sg28
I4893399
sg20
S'11711.1079268'
p225
sba(igraph
Edge
p226
(dp227
g7
I1
sg8
I00
sg9
I5
sg10
(lp228
g222
a(igraph
Vertex
p229
(dp230
g14
F0.8125
sg8
I00
sg15
g16
sg17
F-224.11111111111111
sg18
F-283.1875
sg19
I4893913
sg20
S'11710.9817186'
p231
sg22
F0.11111111111111109
sbasg26
I00
sg27
I00
sg28
I4893400
sg20
S'11711.1085917'
p232
sba(igraph
Edge
p233
(dp234
g7
I1
sg8
I00
sg9
I5
sg10
(lp235
g229
a(igraph
Vertex
p236
(dp237
g14
F0.875
sg8
I00
sg15
g16
sg17
F-224.11111111111111
sg18
F-327.125
sg19
I4893914
sg20
S'11710.9819634'
p238
sg22
F0.11111111111111109
sbasg26
I00
sg27
I00
sg28
I4893401
sg20
S'11711.1092781'
p239
sba(igraph
Edge
p240
(dp241
g7
I1
sg8
I00
sg9
I5
sg10
(lp242
g236
a(igraph
Vertex
p243
(dp244
g14
F0.9375
sg8
I00
sg15
g16
sg17
F-224.11111111111111
sg18
F-371.0625
sg19
I4893915
sg20
S'11710.9822159'
p245
sg22
F0.11111111111111109
sbasg26
I00
sg27
I00
sg28
I4893402
sg20
S'11711.1099894'
p246
sba(igraph
Edge
p247
(dp248
g7
I1
sg8
I00
sg9
I5
sg10
(lp249
g243
a(igraph
Vertex
p250
(dp251
g14
F1.0
sg8
I00
sg15
g16
sg17
F-224.11111111111111
sg18
F-415.0
sg19
I4893916
sg20
S'11710.9824796'
p252
sg22
F0.11111111111111109
sbasg26
I00
sg27
I00
sg28
I4893403
sg20
S'11711.1107808'
p253
sba(igraph
Edge
p254
(dp255
g7
I1
sg8
I00
sg9
I5
sg10
(lp256
g250
ag142
asg26
I00
sg27
I00
sg28
I4893404
sg20
S'11711.111529'
p257
sba(igraph
Edge
p258
(dp259
g7
I1
sg8
I00
sg9
I5
sg10
(lp260
(igraph
Vertex
p261
(dp262
g14
F0.0
sg8
I00
sg15
g16
sg17
F-164.22222222222223
sg18
F288.0
sg19
I4893917
sg20
S'11710.9827478'
p263
sg22
F0.22222222222222218
sba(igraph
Vertex
p264
(dp265
g14
F0.0625
sg8
I00
sg15
g16
sg17
F-164.22222222222223
sg18
F244.0625
sg19
I4893918
sg20
S'11710.9830266'
p266
sg22
F0.22222222222222218
sbasg26
I00
sg27
I00
sg28
I4893405
sg20
S'11711.1123009'
p267
sba(igraph
Edge
p268
(dp269
g7
I1
sg8
I00
sg9
I5
sg10
(lp270
g264
a(igraph
Vertex
p271
(dp272
g14
F0.125
sg8
I00
sg15
g16
sg17
F-164.22222222222223
sg18
F200.125
sg19
I4893919
sg20
S'11710.9833135'
p273
sg22
F0.22222222222222218
sbasg26
I00
sg27
I00
sg28
I4893406
sg20
S'11711.1130917'
p274
sba(igraph
Edge
p275
(dp276
g7
I1
sg8
I00
sg9
I5
sg10
(lp277
g271
a(igraph
Vertex
p278
(dp279
g14
F0.1875
sg8
I00
sg15
g16
sg17
F-164.22222222222223
sg18
F156.1875
sg19
I4893920
sg20
S'11710.9836094'
p280
sg22
F0.22222222222222218
sbasg26
I00
sg27
I00
sg28
I4893407
sg20
S'11711.1139064'
p281
sba(igraph
Edge
p282
(dp283
g7
I1
sg8
I00
sg9
I5
sg10
(lp284
g278
a(igraph
Vertex
p285
(dp286
g14
F0.25
sg8
I00
sg15
g16
sg17
F-164.22222222222223
sg18
F112.25
sg19
I4893921
sg20
S'11710.9839114'
p287
sg22
F0.22222222222222218
sbasg26
I00
sg27
I00
sg28
I4893408
sg20
S'11711.1147422'
p288
sba(igraph
Edge
p289
(dp290
g7
I1
sg8
I00
sg9
I5
sg10
(lp291
g285
a(igraph
Vertex
p292
(dp293
g14
F0.3125
sg8
I00
sg15
I0
sg17
F-164.22222222222223
sg18
F68.3125
sg19
I4893922
sg20
S'11710.9842245'
p294
sg22
F0.22222222222222218
sbasg26
I00
sg27
I00
sg28
I4893409
sg20
S'11711.1156002'
p295
sba(igraph
Edge
p296
(dp297
g7
I1
sg8
I00
sg9
I5
sg10
(lp298
g292
a(igraph
Vertex
p299
(dp300
g14
F0.375
sg8
I00
sg15
g16
sg17
F-164.22222222222223
sg18
F24.375
sg19
I4893924
sg20
S'11710.9845422'
p301
sg22
F0.22222222222222218
sbasg26
I00
sg27
I00
sg28
I4893410
sg20
S'11711.1164779'
p302
sba(igraph
Edge
p303
(dp304
g7
I1
sg8
I00
sg9
I5
sg10
(lp305
g299
a(igraph
Vertex
p306
(dp307
g14
F0.4375
sg8
I00
sg15
g16
sg17
F-164.22222222222223
sg18
F-19.5625
sg19
I4893925
sg20
S'11710.9848679'
p308
sg22
F0.22222222222222218
sbasg26
I00
sg27
I00
sg28
I4893411
sg20
S'11711.1173792'
p309
sba(igraph
Edge
p310
(dp311
g7
I1
sg8
I00
sg9
I5
sg10
(lp312
g306
a(igraph
Vertex
p313
(dp314
g14
F0.5
sg8
I00
sg15
g16
sg17
F-164.22222222222223
sg18
F-63.5
sg19
I4893926
sg20
S'11710.9852004'
p315
sg22
F0.22222222222222218
sbasg26
I00
sg27
I00
sg28
I4893412
sg20
S'11711.1183005'
p316
sba(igraph
Edge
p317
(dp318
g7
I1
sg8
I00
sg9
I5
sg10
(lp319
g313
a(igraph
Vertex
p320
(dp321
g14
F0.5625
sg8
I00
sg15
g16
sg17
F-164.22222222222223
sg18
F-107.4375
sg19
I4893927
sg20
S'11710.9855406'
p322
sg22
F0.22222222222222218
sbasg26
I00
sg27
I00
sg28
I4893413
sg20
S'11711.1192428'
p323
sba(igraph
Edge
p324
(dp325
g7
I1
sg8
I00
sg9
I5
sg10
(lp326
g320
a(igraph
Vertex
p327
(dp328
g14
F0.625
sg8
I00
sg15
g16
sg17
F-164.22222222222223
sg18
F-151.375
sg19
I4893928
sg20
S'11710.9858882'
p329
sg22
F0.22222222222222218
sbasg26
I00
sg27
I00
sg28
I4893414
sg20
S'11711.1202063'
p330
sba(igraph
Edge
p331
(dp332
g7
I1
sg8
I00
sg9
I5
sg10
(lp333
g327
a(igraph
Vertex
p334
(dp335
g14
F0.6875
sg8
I00
sg15
g16
sg17
F-164.22222222222223
sg18
F-195.3125
sg19
I4893929
sg20
S'11710.9862471'
p336
sg22
F0.22222222222222218
sbasg26
I00
sg27
I00
sg28
I4893415
sg20
S'11711.1211933'
p337
sba(igraph
Edge
p338
(dp339
g7
I1
sg8
I00
sg9
I5
sg10
(lp340
g334
a(igraph
Vertex
p341
(dp342
g14
F0.75
sg8
I00
sg15
g16
sg17
F-164.22222222222223
sg18
F-239.25
sg19
I4893930
sg20
S'11710.9866106'
p343
sg22
F0.22222222222222218
sbasg26
I00
sg27
I00
sg28
I4893416
sg20
S'11711.1222046'
p344
sba(igraph
Edge
p345
(dp346
g7
I1
sg8
I00
sg9
I5
sg10
(lp347
g341
a(igraph
Vertex
p348
(dp349
g14
F0.8125
sg8
I00
sg15
g16
sg17
F-164.22222222222223
sg18
F-283.1875
sg19
I4893931
sg20
S'11710.9869844'
p350
sg22
F0.22222222222222218
sbasg26
I00
sg27
I00
sg28
I4893417
sg20
S'11711.1232377'
p351
sba(igraph
Edge
p352
(dp353
g7
I1
sg8
I00
sg9
I5
sg10
(lp354
g348
a(igraph
Vertex
p355
(dp356
g14
F0.875
sg8
I00
sg15
g16
sg17
F-164.22222222222223
sg18
F-327.125
sg19
I4893932
sg20
S'11710.9873699'
p357
sg22
F0.22222222222222218
sbasg26
I00
sg27
I00
sg28
I4893418
sg20
S'11711.1242904'
p358
sba(igraph
Edge
p359
(dp360
g7
I1
sg8
I00
sg9
I5
sg10
(lp361
g355
a(igraph
Vertex
p362
(dp363
g14
F0.9375
sg8
I00
sg15
g16
sg17
F-164.22222222222223
sg18
F-371.0625
sg19
I4893933
sg20
S'11710.9877644'
p364
sg22
F0.22222222222222218
sbasg26
I00
sg27
I00
sg28
I4893419
sg20
S'11711.1253629'
p365
sba(igraph
Edge
p366
(dp367
g7
I1
sg8
I00
sg9
I5
sg10
(lp368
g362
a(igraph
Vertex
p369
(dp370
g14
F1.0
sg8
I00
sg15
g16
sg17
F-164.22222222222223
sg18
F-415.0
sg19
I4893934
sg20
S'11710.9881639'
p371
sg22
F0.22222222222222218
sbasg26
I00
sg27
I00
sg28
I4893420
sg20
S'11711.1264594'
p372
sba(igraph
Edge
p373
(dp374
g7
I1
sg8
I00
sg9
I5
sg10
(lp375
g369
ag261
asg26
I00
sg27
I00
sg28
I4893421
sg20
S'11711.1275752'
p376
sba(igraph
Edge
p377
(dp378
g7
I1
sg8
I00
sg9
I5
sg10
(lp379
(igraph
Vertex
p380
(dp381
g14
F0.0
sg8
I00
sg15
g16
sg17
F-104.33333333333334
sg18
F288.0
sg19
I4893935
sg20
S'11710.9885664'
p382
sg22
F0.33333333333333331
sba(igraph
Vertex
p383
(dp384
g14
F0.0625
sg8
I00
sg15
g16
sg17
F-104.33333333333334
sg18
F244.0625
sg19
I4893936
sg20
S'11710.9889816'
p385
sg22
F0.33333333333333331
sbasg26
I00
sg27
I00
sg28
I4893422
sg20
S'11711.1287141'
p386
sba(igraph
Edge
p387
(dp388
g7
I1
sg8
I00
sg9
I5
sg10
(lp389
g383
a(igraph
Vertex
p390
(dp391
g14
F0.125
sg8
I00
sg15
g16
sg17
F-104.33333333333334
sg18
F200.125
sg19
I4893937
sg20
S'11710.9893998'
p392
sg22
F0.33333333333333331
sbasg26
I00
sg27
I00
sg28
I4893423
sg20
S'11711.1298732'
p393
sba(igraph
Edge
p394
(dp395
g7
I1
sg8
I00
sg9
I5
sg10
(lp396
g390
a(igraph
Vertex
p397
(dp398
g14
F0.1875
sg8
I00
sg15
g16
sg17
F-104.33333333333334
sg18
F156.1875
sg19
I4893938
sg20
S'11710.9898275'
p399
sg22
F0.33333333333333331
sbasg26
I00
sg27
I00
sg28
I4893424
sg20
S'11711.1310686'
p400
sba(igraph
Edge
p401
(dp402
g7
I1
sg8
I00
sg9
I5
sg10
(lp403
g397
a(igraph
Vertex
p404
(dp405
g14
F0.25
sg8
I00
sg15
g16
sg17
F-104.33333333333334
sg18
F112.25
sg19
I4893939
sg20
S'11710.9903122'
p406
sg22
F0.33333333333333331
sbasg26
I00
sg27
I00
sg28
I4893425
sg20
S'11711.1323386'
p407
sba(igraph
Edge
p408
(dp409
g7
I1
sg8
I00
sg9
I5
sg10
(lp410
g404
a(igraph
Vertex
p411
(dp412
g14
F0.3125
sg8
I00
sg15
g16
sg17
F-104.33333333333334
sg18
F68.3125
sg19
I4893940
sg20
S'11710.9907642'
p413
sg22
F0.33333333333333331
sbasg26
I00
sg27
I00
sg28
I4893426
sg20
S'11711.1335614'
p414
sba(igraph
Edge
p415
(dp416
g7
I1
sg8
I00
sg9
I5
sg10
(lp417
g411
a(igraph
Vertex
p418
(dp419
g14
F0.375
sg8
I00
sg15
g16
sg17
F-104.33333333333334
sg18
F24.375
sg19
I4893941
sg20
S'11710.9912346'
p420
sg22
F0.33333333333333331
sbasg26
I00
sg27
I00
sg28
I4893427
sg20
S'11711.1348048'
p421
sba(igraph
Edge
p422
(dp423
g7
I1
sg8
I00
sg9
I5
sg10
(lp424
g418
a(igraph
Vertex
p425
(dp426
g14
F0.4375
sg8
I00
sg15
I0
sg17
F-104.33333333333334
sg18
F-19.5625
sg19
I4893942
sg20
S'11710.9916981'
p427
sg22
F0.33333333333333331
sbasg26
I00
sg27
I00
sg28
I4893428
sg20
S'11711.1360659'
p428
sba(igraph
Edge
p429
(dp430
g7
I1
sg8
I00
sg9
I5
sg10
(lp431
g425
a(igraph
Vertex
p432
(dp433
g14
F0.5
sg8
I00
sg15
g16
sg17
F-104.33333333333334
sg18
F-63.5
sg19
I4893944
sg20
S'11710.9921839'
p434
sg22
F0.33333333333333331
sbasg26
I00
sg27
I00
sg28
I4893429
sg20
S'11711.1373518'
p435
sba(igraph
Edge
p436
(dp437
g7
I1
sg8
I00
sg9
I5
sg10
(lp438
g432
a(igraph
Vertex
p439
(dp440
g14
F0.5625
sg8
I00
sg15
g16
sg17
F-104.33333333333334
sg18
F-107.4375
sg19
I4893945
sg20
S'11710.9926664'
p441
sg22
F0.33333333333333331
sbasg26
I00
sg27
I00
sg28
I4893430
sg20
S'11711.1386643'
p442
sba(igraph
Edge
p443
(dp444
g7
I1
sg8
I00
sg9
I5
sg10
(lp445
g439
a(igraph
Vertex
p446
(dp447
g14
F0.625
sg8
I00
sg15
g16
sg17
F-104.33333333333334
sg18
F-151.375
sg19
I4893946
sg20
S'11710.9932734'
p448
sg22
F0.33333333333333331
sbasg26
I00
sg27
I00
sg28
I4893431
sg20
S'11711.139998'
p449
sba(igraph
Edge
p450
(dp451
g7
I1
sg8
I00
sg9
I5
sg10
(lp452
g446
a(igraph
Vertex
p453
(dp454
g14
F0.6875
sg8
I00
sg15
g16
sg17
F-104.33333333333334
sg18
F-195.3125
sg19
I4893947
sg20
S'11710.9937696'
p455
sg22
F0.33333333333333331
sbasg26
I00
sg27
I00
sg28
I4893432
sg20
S'11711.1413509'
p456
sba(igraph
Edge
p457
(dp458
g7
I1
sg8
I00
sg9
I5
sg10
(lp459
g453
a(igraph
Vertex
p460
(dp461
g14
F0.75
sg8
I00
sg15
g16
sg17
F-104.33333333333334
sg18
F-239.25
sg19
I4893948
sg20
S'11710.9943026'
p462
sg22
F0.33333333333333331
sbasg26
I00
sg27
I00
sg28
I4893433
sg20
S'11711.1427265'
p463
sba(igraph
Edge
p464
(dp465
g7
I1
sg8
I00
sg9
I5
sg10
(lp466
g460
a(igraph
Vertex
p467
(dp468
g14
F0.8125
sg8
I00
sg15
g16
sg17
F-104.33333333333334
sg18
F-283.1875
sg19
I4893949
sg20
S'11710.9948153'
p469
sg22
F0.33333333333333331
sbasg26
I00
sg27
I00
sg28
I4893434
sg20
S'11711.144232'
p470
sba(igraph
Edge
p471
(dp472
g7
I1
sg8
I00
sg9
I5
sg10
(lp473
g467
a(igraph
Vertex
p474
(dp475
g14
F0.875
sg8
I00
sg15
g16
sg17
F-104.33333333333334
sg18
F-327.125
sg19
I4893950
sg20
S'11710.9953402'
p476
sg22
F0.33333333333333331
sbasg26
I00
sg27
I00
sg28
I4893435
sg20
S'11711.145654'
p477
sba(igraph
Edge
p478
(dp479
g7
I1
sg8
I00
sg9
I5
sg10
(lp480
g474
a(igraph
Vertex
p481
(dp482
g14
F0.9375
sg8
I00
sg15
g16
sg17
F-104.33333333333334
sg18
F-371.0625
sg19
I4893951
sg20
S'11710.995869'
p483
sg22
F0.33333333333333331
sbasg26
I00
sg27
I00
sg28
I4893436
sg20
S'11711.1470874'
p484
sba(igraph
Edge
p485
(dp486
g7
I1
sg8
I00
sg9
I5
sg10
(lp487
g481
a(igraph
Vertex
p488
(dp489
g14
F1.0
sg8
I00
sg15
g16
sg17
F-104.33333333333334
sg18
F-415.0
sg19
I4893952
sg20
S'11710.9964068'
p490
sg22
F0.33333333333333331
sbasg26
I00
sg27
I00
sg28
I4893437
sg20
S'11711.1485429'
p491
sba(igraph
Edge
p492
(dp493
g7
I1
sg8
I00
sg9
I5
sg10
(lp494
g488
ag380
asg26
I00
sg27
I00
sg28
I4893438
sg20
S'11711.1500182'
p495
sba(igraph
Edge
p496
(dp497
g7
I1
sg8
I00
sg9
I5
sg10
(lp498
(igraph
Vertex
p499
(dp500
g14
F0.0
sg8
I00
sg15
g16
sg17
F-44.444444444444485
sg18
F288.0
sg19
I4893953
sg20
S'11710.996951'
p501
sg22
F0.44444444444444436
sba(igraph
Vertex
p502
(dp503
g14
F0.0625
sg8
I00
sg15
g16
sg17
F-44.444444444444485
sg18
F244.0625
sg19
I4893954
sg20
S'11710.9975033'
p504
sg22
F0.44444444444444436
sbasg26
I00
sg27
I00
sg28
I4893439
sg20
S'11711.1515181'
p505
sba(igraph
Edge
p506
(dp507
g7
I1
sg8
I00
sg9
I5
sg10
(lp508
g502
a(igraph
Vertex
p509
(dp510
g14
F0.125
sg8
I00
sg15
g16
sg17
F-44.444444444444485
sg18
F200.125
sg19
I4893955
sg20
S'11710.998064'
p511
sg22
F0.44444444444444436
sbasg26
I00
sg27
I00
sg28
I4893440
sg20
S'11711.1530337'
p512
sba(igraph
Edge
p513
(dp514
g7
I1
sg8
I00
sg9
I5
sg10
(lp515
g509
a(igraph
Vertex
p516
(dp517
g14
F0.1875
sg8
I00
sg15
g16
sg17
F-44.444444444444485
sg18
F156.1875
sg19
I4893956
sg20
S'11710.998637'
p518
sg22
F0.44444444444444436
sbasg26
I00
sg27
I00
sg28
I4893441
sg20
S'11711.1545777'
p519
sba(igraph
Edge
p520
(dp521
g7
I1
sg8
I00
sg9
I5
sg10
(lp522
g516
a(igraph
Vertex
p523
(dp524
g14
F0.25
sg8
I00
sg15
g16
sg17
F-44.444444444444485
sg18
F112.25
sg19
I4893957
sg20
S'11710.9992167'
p525
sg22
F0.44444444444444436
sbasg26
I00
sg27
I00
sg28
I4893442
sg20
S'11711.15614'
p526
sba(igraph
Edge
p527
(dp528
g7
I1
sg8
I00
sg9
I5
sg10
(lp529
g523
a(igraph
Vertex
p530
(dp531
g14
F0.3125
sg8
I00
sg15
g16
sg17
F-44.444444444444485
sg18
F68.3125
sg19
I4893958
sg20
S'11710.9998028'
p532
sg22
F0.44444444444444436
sbasg26
I00
sg27
I00
sg28
I4893443
sg20
S'11711.1577231'
p533
sba(igraph
Edge
p534
(dp535
g7
I1
sg8
I00
sg9
I5
sg10
(lp536
g530
a(igraph
Vertex
p537
(dp538
g14
F0.375
sg8
I00
sg15
g16
sg17
F-44.444444444444485
sg18
F24.375
sg19
I4893959
sg20
S'11711.0003998'
p539
sg22
F0.44444444444444436
sbasg26
I00
sg27
I00
sg28
I4893444
sg20
S'11711.1593622'
p540
sba(igraph
Edge
p541
(dp542
g7
I1
sg8
I00
sg9
I5
sg10
(lp543
g537
a(igraph
Vertex
p544
(dp545
g14
F0.4375
sg8
I00
sg15
g16
sg17
F-44.444444444444485
sg18
F-19.5625
sg19
I4893960
sg20
S'11711.0010602'
p546
sg22
F0.44444444444444436
sbasg26
I00
sg27
I00
sg28
I4893445
sg20
S'11711.1610227'
p547
sba(igraph
Edge
p548
(dp549
g7
I1
sg8
I00
sg9
I5
sg10
(lp550
g544
a(igraph
Vertex
p551
(dp552
g14
F0.5
sg8
I00
sg15
g16
sg17
F-44.444444444444485
sg18
F-63.5
sg19
I4893961
sg20
S'11711.0016751'
p553
sg22
F0.44444444444444436
sbasg26
I00
sg27
I00
sg28
I4893446
sg20
S'11711.162683'
p554
sba(igraph
Edge
p555
(dp556
g7
I1
sg8
I00
sg9
I5
sg10
(lp557
g551
a(igraph
Vertex
p558
(dp559
g14
F0.5625
sg8
I00
sg15
I0
sg17
F-44.444444444444485
sg18
F-107.4375
sg19
I4893962
sg20
S'11711.0023025'
p560
sg22
F0.44444444444444436
sbasg26
I00
sg27
I00
sg28
I4893447
sg20
S'11711.1643647'
p561
sba(igraph
Edge
p562
(dp563
g7
I1
sg8
I00
sg9
I5
sg10
(lp564
g558
a(igraph
Vertex
p565
(dp566
g14
F0.625
sg8
I00
sg15
g16
sg17
F-44.444444444444485
sg18
F-151.375
sg19
I4893964
sg20
S'11711.0029367'
p567
sg22
F0.44444444444444436
sbasg26
I00
sg27
I00
sg28
I4893448
sg20
S'11711.166122'
p568
sba(igraph
Edge
p569
(dp570
g7
I1
sg8
I00
sg9
I5
sg10
(lp571
g565
a(igraph
Vertex
p572
(dp573
g14
F0.6875
sg8
I00
sg15
g16
sg17
F-44.444444444444485
sg18
F-195.3125
sg19
I4893965
sg20
S'11711.0035784'
p574
sg22
F0.44444444444444436
sbasg26
I00
sg27
I00
sg28
I4893449
sg20
S'11711.1678903'
p575
sba(igraph
Edge
p576
(dp577
g7
I1
sg8
I00
sg9
I5
sg10
(lp578
g572
a(igraph
Vertex
p579
(dp580
g14
F0.75
sg8
I00
sg15
g16
sg17
F-44.444444444444485
sg18
F-239.25
sg19
I4893966
sg20
S'11711.0042293'
p581
sg22
F0.44444444444444436
sbasg26
I00
sg27
I00
sg28
I4893450
sg20
S'11711.1696596'
p582
sba(igraph
Edge
p583
(dp584
g7
I1
sg8
I00
sg9
I5
sg10
(lp585
g579
a(igraph
Vertex
p586
(dp587
g14
F0.8125
sg8
I00
sg15
g16
sg17
F-44.444444444444485
sg18
F-283.1875
sg19
I4893967
sg20
S'11711.0048853'
p588
sg22
F0.44444444444444436
sbasg26
I00
sg27
I00
sg28
I4893451
sg20
S'11711.1714729'
p589
sba(igraph
Edge
p590
(dp591
g7
I1
sg8
I00
sg9
I5
sg10
(lp592
g586
a(igraph
Vertex
p593
(dp594
g14
F0.875
sg8
I00
sg15
g16
sg17
F-44.444444444444485
sg18
F-327.125
sg19
I4893968
sg20
S'11711.0055434'
p595
sg22
F0.44444444444444436
sbasg26
I00
sg27
I00
sg28
I4893452
sg20
S'11711.1732891'
p596
sba(igraph
Edge
p597
(dp598
g7
I1
sg8
I00
sg9
I5
sg10
(lp599
g593
a(igraph
Vertex
p600
(dp601
g14
F0.9375
sg8
I00
sg15
g16
sg17
F-44.444444444444485
sg18
F-371.0625
sg19
I4893969
sg20
S'11711.0062122'
p602
sg22
F0.44444444444444436
sbasg26
I00
sg27
I00
sg28
I4893453
sg20
S'11711.1751013'
p603
sba(igraph
Edge
p604
(dp605
g7
I1
sg8
I00
sg9
I5
sg10
(lp606
g600
a(igraph
Vertex
p607
(dp608
g14
F1.0
sg8
I00
sg15
g16
sg17
F-44.444444444444485
sg18
F-415.0
sg19
I4893970
sg20
S'11711.0068844'
p609
sg22
F0.44444444444444436
sbasg26
I00
sg27
I00
sg28
I4893454
sg20
S'11711.1769756'
p610
sba(igraph
Edge
p611
(dp612
g7
I1
sg8
I00
sg9
I5
sg10
(lp613
g607
ag499
asg26
I00
sg27
I00
sg28
I4893455
sg20
S'11711.178854'
p614
sba(igraph
Edge
p615
(dp616
g7
I1
sg8
I00
sg9
I5
sg10
(lp617
(igraph
Vertex
p618
(dp619
g14
F0.0
sg8
I00
sg15
g16
sg17
F15.444444444444457
sg18
F288.0
sg19
I4893971
sg20
S'11711.0075658'
p620
sg22
F0.55555555555555558
sba(igraph
Vertex
p621
(dp622
g14
F0.0625
sg8
I00
sg15
g16
sg17
F15.444444444444457
sg18
F244.0625
sg19
I4893972
sg20
S'11711.0082605'
p623
sg22
F0.55555555555555558
sbasg26
I00
sg27
I00
sg28
I4893456
sg20
S'11711.1808029'
p624
sba(igraph
Edge
p625
(dp626
g7
I1
sg8
I00
sg9
I5
sg10
(lp627
g621
a(igraph
Vertex
p628
(dp629
g14
F0.125
sg8
I00
sg15
g16
sg17
F15.444444444444457
sg18
F200.125
sg19
I4893973
sg20
S'11711.0089573'
p630
sg22
F0.55555555555555558
sbasg26
I00
sg27
I00
sg28
I4893457
sg20
S'11711.1827618'
p631
sba(igraph
Edge
p632
(dp633
g7
I1
sg8
I00
sg9
I5
sg10
(lp634
g628
a(igraph
Vertex
p635
(dp636
g14
F0.1875
sg8
I00
sg15
g16
sg17
F15.444444444444457
sg18
F156.1875
sg19
I4893974
sg20
S'11711.0096618'
p637
sg22
F0.55555555555555558
sbasg26
I00
sg27
I00
sg28
I4893458
sg20
S'11711.1847212'
p638
sba(igraph
Edge
p639
(dp640
g7
I1
sg8
I00
sg9
I5
sg10
(lp641
g635
a(igraph
Vertex
p642
(dp643
g14
F0.25
sg8
I00
sg15
g16
sg17
F15.444444444444457
sg18
F112.25
sg19
I4893975
sg20
S'11711.010372'
p644
sg22
F0.55555555555555558
sbasg26
I00
sg27
I00
sg28
I4893459
sg20
S'11711.1866774'
p645
sba(igraph
Edge
p646
(dp647
g7
I1
sg8
I00
sg9
I5
sg10
(lp648
g642
a(igraph
Vertex
p649
(dp650
g14
F0.3125
sg8
I00
sg15
g16
sg17
F15.444444444444457
sg18
F68.3125
sg19
I4893976
sg20
S'11711.0110972'
p651
sg22
F0.55555555555555558
sbasg26
I00
sg27
I00
sg28
I4893460
sg20
S'11711.1886972'
p652
sba(igraph
Edge
p653
(dp654
g7
I1
sg8
I00
sg9
I5
sg10
(lp655
g649
a(igraph
Vertex
p656
(dp657
g14
F0.375
sg8
I00
sg15
g16
sg17
F15.444444444444457
sg18
F24.375
sg19
I4893977
sg20
S'11711.0118336'
p658
sg22
F0.55555555555555558
sbasg26
I00
sg27
I00
sg28
I4893461
sg20
S'11711.1906983'
p659
sba(igraph
Edge
p660
(dp661
g7
I1
sg8
I00
sg9
I5
sg10
(lp662
g656
a(igraph
Vertex
p663
(dp664
g14
F0.4375
sg8
I00
sg15
g16
sg17
F15.444444444444457
sg18
F-19.5625
sg19
I4893978
sg20
S'11711.0125723'
p665
sg22
F0.55555555555555558
sbasg26
I00
sg27
I00
sg28
I4893462
sg20
S'11711.1927192'
p666
sba(igraph
Edge
p667
(dp668
g7
I1
sg8
I00
sg9
I5
sg10
(lp669
g663
a(igraph
Vertex
p670
(dp671
g14
F0.5
sg8
I00
sg15
g16
sg17
F15.444444444444457
sg18
F-63.5
sg19
I4893979
sg20
S'11711.0133171'
p672
sg22
F0.55555555555555558
sbasg26
I00
sg27
I00
sg28
I4893463
sg20
S'11711.1947572'
p673
sba(igraph
Edge
p674
(dp675
g7
I1
sg8
I00
sg9
I5
sg10
(lp676
g670
a(igraph
Vertex
p677
(dp678
g14
F0.5625
sg8
I00
sg15
g16
sg17
F15.444444444444457
sg18
F-107.4375
sg19
I4893980
sg20
S'11711.0140747'
p679
sg22
F0.55555555555555558
sbasg26
I00
sg27
I00
sg28
I4893464
sg20
S'11711.1968317'
p680
sba(igraph
Edge
p681
(dp682
g7
I1
sg8
I00
sg9
I5
sg10
(lp683
g677
a(igraph
Vertex
p684
(dp685
g14
F0.625
sg8
I00
sg15
g16
sg17
F15.444444444444457
sg18
F-151.375
sg19
I4893981
sg20
S'11711.0148385'
p686
sg22
F0.55555555555555558
sbasg26
I00
sg27
I00
sg28
I4893465
sg20
S'11711.198939'
p687
sba(igraph
Edge
p688
(dp689
g7
I1
sg8
I00
sg9
I5
sg10
(lp690
g684
a(igraph
Vertex
p691
(dp692
g14
F0.6875
sg8
I00
sg15
I0
sg17
F15.444444444444457
sg18
F-195.3125
sg19
I4893982
sg20
S'11711.0156475'
p693
sg22
F0.55555555555555558
sbasg26
I00
sg27
I00
sg28
I4893466
sg20
S'11711.201039'
p694
sba(igraph
Edge
p695
(dp696
g7
I1
sg8
I00
sg9
I5
sg10
(lp697
g691
a(igraph
Vertex
p698
(dp699
g14
F0.75
sg8
I00
sg15
g16
sg17
F15.444444444444457
sg18
F-239.25
sg19
I4893984
sg20
S'11711.016432'
p700
sg22
F0.55555555555555558
sbasg26
I00
sg27
I00
sg28
I4893467
sg20
S'11711.2031638'
p701
sba(igraph
Edge
p702
(dp703
g7
I1
sg8
I00
sg9
I5
sg10
(lp704
g698
a(igraph
Vertex
p705
(dp706
g14
F0.8125
sg8
I00
sg15
g16
sg17
F15.444444444444457
sg18
F-283.1875
sg19
I4893985
sg20
S'11711.0173089'
p707
sg22
F0.55555555555555558
sbasg26
I00
sg27
I00
sg28
I4893468
sg20
S'11711.2053646'
p708
sba(igraph
Edge
p709
(dp710
g7
I1
sg8
I00
sg9
I5
sg10
(lp711
g705
a(igraph
Vertex
p712
(dp713
g14
F0.875
sg8
I00
sg15
g16
sg17
F15.444444444444457
sg18
F-327.125
sg19
I4893986
sg20
S'11711.0181068'
p714
sg22
F0.55555555555555558
sbasg26
I00
sg27
I00
sg28
I4893469
sg20
S'11711.2075392'
p715
sba(igraph
Edge
p716
(dp717
g7
I1
sg8
I00
sg9
I5
sg10
(lp718
g712
a(igraph
Vertex
p719
(dp720
g14
F0.9375
sg8
I00
sg15
g16
sg17
F15.444444444444457
sg18
F-371.0625
sg19
I4893987
sg20
S'11711.0189111'
p721
sg22
F0.55555555555555558
sbasg26
I00
sg27
I00
sg28
I4893470
sg20
S'11711.209716'
p722
sba(igraph
Edge
p723
(dp724
g7
I1
sg8
I00
sg9
I5
sg10
(lp725
g719
a(igraph
Vertex
p726
(dp727
g14
F1.0
sg8
I00
sg15
g16
sg17
F15.444444444444457
sg18
F-415.0
sg19
I4893988
sg20
S'11711.0197198'
p728
sg22
F0.55555555555555558
sbasg26
I00
sg27
I00
sg28
I4893471
sg20
S'11711.2119121'
p729
sba(igraph
Edge
p730
(dp731
g7
I1
sg8
I00
sg9
I5
sg10
(lp732
g726
ag618
asg26
I00
sg27
I00
sg28
I4893472
sg20
S'11711.2141247'
p733
sba(igraph
Edge
p734
(dp735
g7
I1
sg8
I00
sg9
I5
sg10
(lp736
(igraph
Vertex
p737
(dp738
g14
F0.0
sg8
I00
sg15
g16
sg17
F75.333333333333314
sg18
F288.0
sg19
I4893989
sg20
S'11711.0205428'
p739
sg22
F0.66666666666666663
sba(igraph
Vertex
p740
(dp741
g14
F0.0625
sg8
I00
sg15
g16
sg17
F75.333333333333314
sg18
F244.0625
sg19
I4893990
sg20
S'11711.0213739'
p742
sg22
F0.66666666666666663
sbasg26
I00
sg27
I00
sg28
I4893473
sg20
S'11711.2163694'
p743
sba(igraph
Edge
p744
(dp745
g7
I1
sg8
I00
sg9
I5
sg10
(lp746
g740
a(igraph
Vertex
p747
(dp748
g14
F0.125
sg8
I00
sg15
g16
sg17
F75.333333333333314
sg18
F200.125
sg19
I4893991
sg20
S'11711.0222081'
p749
sg22
F0.66666666666666663
sbasg26
I00
sg27
I00
sg28
I4893474
sg20
S'11711.2186339'
p750
sba(igraph
Edge
p751
(dp752
g7
I1
sg8
I00
sg9
I5
sg10
(lp753
g747
a(igraph
Vertex
p754
(dp755
g14
F0.1875
sg8
I00
sg15
g16
sg17
F75.333333333333314
sg18
F156.1875
sg19
I4893992
sg20
S'11711.0230507'
p756
sg22
F0.66666666666666663
sbasg26
I00
sg27
I00
sg28
I4893475
sg20
S'11711.2209189'
p757
sba(igraph
Edge
p758
(dp759
g7
I1
sg8
I00
sg9
I5
sg10
(lp760
g754
a(igraph
Vertex
p761
(dp762
g14
F0.25
sg8
I00
sg15
g16
sg17
F75.333333333333314
sg18
F112.25
sg19
I4893993
sg20
S'11711.0239106'
p763
sg22
F0.66666666666666663
sbasg26
I00
sg27
I00
sg28
I4893476
sg20
S'11711.2232239'
p764
sba(igraph
Edge
p765
(dp766
g7
I1
sg8
I00
sg9
I5
sg10
(lp767
g761
a(igraph
Vertex
p768
(dp769
g14
F0.3125
sg8
I00
sg15
g16
sg17
F75.333333333333314
sg18
F68.3125
sg19
I4893994
sg20
S'11711.0247786'
p770
sg22
F0.66666666666666663
sbasg26
I00
sg27
I00
sg28
I4893477
sg20
S'11711.2255502'
p771
sba(igraph
Edge
p772
(dp773
g7
I1
sg8
I00
sg9
I5
sg10
(lp774
g768
a(igraph
Vertex
p775
(dp776
g14
F0.375
sg8
I00
sg15
g16
sg17
F75.333333333333314
sg18
F24.375
sg19
I4893995
sg20
S'11711.0256535'
p777
sg22
F0.66666666666666663
sbasg26
I00
sg27
I00
sg28
I4893478
sg20
S'11711.2279223'
p778
sba(igraph
Edge
p779
(dp780
g7
I1
sg8
I00
sg9
I5
sg10
(lp781
g775
a(igraph
Vertex
p782
(dp783
g14
F0.4375
sg8
I00
sg15
g16
sg17
F75.333333333333314
sg18
F-19.5625
sg19
I4893996
sg20
S'11711.0265383'
p784
sg22
F0.66666666666666663
sbasg26
I00
sg27
I00
sg28
I4893479
sg20
S'11711.2302896'
p785
sba(igraph
Edge
p786
(dp787
g7
I1
sg8
I00
sg9
I5
sg10
(lp788
g782
a(igraph
Vertex
p789
(dp790
g14
F0.5
sg8
I00
sg15
g16
sg17
F75.333333333333314
sg18
F-63.5
sg19
I4893997
sg20
S'11711.0274331'
p791
sg22
F0.66666666666666663
sbasg26
I00
sg27
I00
sg28
I4893480
sg20
S'11711.2326969'
p792
sba(igraph
Edge
p793
(dp794
g7
I1
sg8
I00
sg9
I5
sg10
(lp795
g789
a(igraph
Vertex
p796
(dp797
g14
F0.5625
sg8
I00
sg15
g16
sg17
F75.333333333333314
sg18
F-107.4375
sg19
I4893998
sg20
S'11711.0283455'
p798
sg22
F0.66666666666666663
sbasg26
I00
sg27
I00
sg28
I4893481
sg20
S'11711.2351179'
p799
sba(igraph
Edge
p800
(dp801
g7
I1
sg8
I00
sg9
I5
sg10
(lp802
g796
a(igraph
Vertex
p803
(dp804
g14
F0.625
sg8
I00
sg15
g16
sg17
F75.333333333333314
sg18
F-151.375
sg19
I4893999
sg20
S'11711.0292663'
p805
sg22
F0.66666666666666663
sbasg26
I00
sg27
I00
sg28
I4893482
sg20
S'11711.2375578'
p806
sba(igraph
Edge
p807
(dp808
g7
I1
sg8
I00
sg9
I5
sg10
(lp809
g803
a(igraph
Vertex
p810
(dp811
g14
F0.6875
sg8
I00
sg15
g16
sg17
F75.333333333333314
sg18
F-195.3125
sg19
I4894000
sg20
S'11711.0301843'
p812
sg22
F0.66666666666666663
sbasg26
I00
sg27
I00
sg28
I4893483
sg20
S'11711.240097'
p813
sba(igraph
Edge
p814
(dp815
g7
I1
sg8
I00
sg9
I5
sg10
(lp816
g810
a(igraph
Vertex
p817
(dp818
g14
F0.75
sg8
I00
sg15
g16
sg17
F75.333333333333314
sg18
F-239.25
sg19
I4894001
sg20
S'11711.0311123'
p819
sg22
F0.66666666666666663
sbasg26
I00
sg27
I00
sg28
I4893484
sg20
S'11711.2425825'
p820
sba(igraph
Edge
p821
(dp822
g7
I1
sg8
I00
sg9
I5
sg10
(lp823
g817
a(igraph
Vertex
p824
(dp825
g14
F0.8125
sg8
I00
sg15
g16
sg17
F75.333333333333314
sg18
F-283.1875
sg19
I4894002
sg20
S'11711.0320518'
p826
sg22
F0.66666666666666663
sbasg26
I00
sg27
I00
sg28
I4893485
sg20
S'11711.2450856'
p827
sba(igraph
Edge
p828
(dp829
g7
I1
sg8
I00
sg9
I5
sg10
(lp830
g824
a(igraph
Vertex
p831
(dp832
g14
F0.875
sg8
I00
sg15
g16
sg17
F75.333333333333314
sg18
F-327.125
sg19
I4894003
sg20
S'11711.0329986'
p833
sg22
F0.66666666666666663
sbasg26
I00
sg27
I00
sg28
I4893486
sg20
S'11711.2476041'
p834
sba(igraph
Edge
p835
(dp836
g7
I1
sg8
I00
sg9
I5
sg10
(lp837
g831
a(igraph
Vertex
p838
(dp839
g14
F0.9375
sg8
I00
sg15
g16
sg17
F75.333333333333314
sg18
F-371.0625
sg19
I4894004
sg20
S'11711.0339471'
p840
sg22
F0.66666666666666663
sbasg26
I00
sg27
I00
sg28
I4893487
sg20
S'11711.2501469'
p841
sba(igraph
Edge
p842
(dp843
g7
I1
sg8
I00
sg9
I5
sg10
(lp844
g838
a(igraph
Vertex
p845
(dp846
g14
F1.0
sg8
I00
sg15
g16
sg17
F75.333333333333314
sg18
F-415.0
sg19
I4894005
sg20
S'11711.0349058'
p847
sg22
F0.66666666666666663
sbasg26
I00
sg27
I00
sg28
I4893488
sg20
S'11711.253292'
p848
sba(igraph
Edge
p849
(dp850
g7
I1
sg8
I00
sg9
I5
sg10
(lp851
g845
ag737
asg26
I00
sg27
I00
sg28
I4893489
sg20
S'11711.25593'
p852
sba(igraph
Edge
p853
(dp854
g7
I1
sg8
I00
sg9
I5
sg10
(lp855
(igraph
Vertex
p856
(dp857
g14
F0.0
sg8
I00
sg15
g16
sg17
F135.22222222222223
sg18
F288.0
sg19
I4894006
sg20
S'11711.0359051'
p858
sg22
F0.77777777777777779
sba(igraph
Vertex
p859
(dp860
g14
F0.0625
sg8
I00
sg15
g16
sg17
F135.22222222222223
sg18
F244.0625
sg19
I4894007
sg20
S'11711.0368843'
p861
sg22
F0.77777777777777779
sbasg26
I00
sg27
I00
sg28
I4893490
sg20
S'11711.2585697'
p862
sba(igraph
Edge
p863
(dp864
g7
I1
sg8
I00
sg9
I5
sg10
(lp865
g859
a(igraph
Vertex
p866
(dp867
g14
F0.125
sg8
I00
sg15
g16
sg17
F135.22222222222223
sg18
F200.125
sg19
I4894008
sg20
S'11711.037978'
p868
sg22
F0.77777777777777779
sbasg26
I00
sg27
I00
sg28
I4893491
sg20
S'11711.2612581'
p869
sba(igraph
Edge
p870
(dp871
g7
I1
sg8
I00
sg9
I5
sg10
(lp872
g866
a(igraph
Vertex
p873
(dp874
g14
F0.1875
sg8
I00
sg15
g16
sg17
F135.22222222222223
sg18
F156.1875
sg19
I4894009
sg20
S'11711.0389712'
p875
sg22
F0.77777777777777779
sbasg26
I00
sg27
I00
sg28
I4893492
sg20
S'11711.2639478'
p876
sba(igraph
Edge
p877
(dp878
g7
I1
sg8
I00
sg9
I5
sg10
(lp879
g873
a(igraph
Vertex
p880
(dp881
g14
F0.25
sg8
I00
sg15
g16
sg17
F135.22222222222223
sg18
F112.25
sg19
I4894010
sg20
S'11711.0399724'
p882
sg22
F0.77777777777777779
sbasg26
I00
sg27
I00
sg28
I4893493
sg20
S'11711.2666445'
p883
sba(igraph
Edge
p884
(dp885
g7
I1
sg8
I00
sg9
I5
sg10
(lp886
g880
a(igraph
Vertex
p887
(dp888
g14
F0.3125
sg8
I00
sg15
g16
sg17
F135.22222222222223
sg18
F68.3125
sg19
I4894011
sg20
S'11711.0409898'
p889
sg22
F0.77777777777777779
sbasg26
I00
sg27
I00
sg28
I4893494
sg20
S'11711.2694655'
p890
sba(igraph
Edge
p891
(dp892
g7
I1
sg8
I00
sg9
I5
sg10
(lp893
g887
a(igraph
Vertex
p894
(dp895
g14
F0.375
sg8
I00
sg15
g16
sg17
F135.22222222222223
sg18
F24.375
sg19
I4894012
sg20
S'11711.0420126'
p896
sg22
F0.77777777777777779
sbasg26
I00
sg27
I00
sg28
I4893495
sg20
S'11711.2722159'
p897
sba(igraph
Edge
p898
(dp899
g7
I1
sg8
I00
sg9
I5
sg10
(lp900
g894
a(igraph
Vertex
p901
(dp902
g14
F0.4375
sg8
I00
sg15
g16
sg17
F135.22222222222223
sg18
F-19.5625
sg19
I4894013
sg20
S'11711.0430502'
p903
sg22
F0.77777777777777779
sbasg26
I00
sg27
I00
sg28
I4893496
sg20
S'11711.2749986'
p904
sba(igraph
Edge
p905
(dp906
g7
I1
sg8
I00
sg9
I5
sg10
(lp907
g901
a(igraph
Vertex
p908
(dp909
g14
F0.5
sg8
I00
sg15
g16
sg17
F135.22222222222223
sg18
F-63.5
sg19
I4894014
sg20
S'11711.0441'
p910
sg22
F0.77777777777777779
sbasg26
I00
sg27
I00
sg28
I4893497
sg20
S'11711.2777996'
p911
sba(igraph
Edge
p912
(dp913
g7
I1
sg8
I00
sg9
I5
sg10
(lp914
g908
a(igraph
Vertex
p915
(dp916
g14
F0.5625
sg8
I00
sg15
g16
sg17
F135.22222222222223
sg18
F-107.4375
sg19
I4894015
sg20
S'11711.0451555'
p917
sg22
F0.77777777777777779
sbasg26
I00
sg27
I00
sg28
I4893498
sg20
S'11711.2806278'
p918
sba(igraph
Edge
p919
(dp920
g7
I1
sg8
I00
sg9
I5
sg10
(lp921
g915
a(igraph
Vertex
p922
(dp923
g14
F0.625
sg8
I00
sg15
g16
sg17
F135.22222222222223
sg18
F-151.375
sg19
I4894016
sg20
S'11711.0462184'
p924
sg22
F0.77777777777777779
sbasg26
I00
sg27
I00
sg28
I4893499
sg20
S'11711.2834665'
p925
sba(igraph
Edge
p926
(dp927
g7
I1
sg8
I00
sg9
I5
sg10
(lp928
g922
a(igraph
Vertex
p929
(dp930
g14
F0.6875
sg8
I00
sg15
g16
sg17
F135.22222222222223
sg18
F-195.3125
sg19
I4894017
sg20
S'11711.0472859'
p931
sg22
F0.77777777777777779
sbasg26
I00
sg27
I00
sg28
I4893500
sg20
S'11711.2863199'
p932
sba(igraph
Edge
p933
(dp934
g7
I1
sg8
I00
sg9
I5
sg10
(lp935
g929
a(igraph
Vertex
p936
(dp937
g14
F0.75
sg8
I00
sg15
I0
sg17
F135.22222222222223
sg18
F-239.25
sg19
I4894018
sg20
S'11711.0483668'
p938
sg22
F0.77777777777777779
sbasg26
I00
sg27
I00
sg28
I4893501
sg20
S'11711.2892359'
p939
sba(igraph
Edge
p940
(dp941
g7
I1
sg8
I00
sg9
I5
sg10
(lp942
g936
a(igraph
Vertex
p943
(dp944
g14
F0.8125
sg8
I00
sg15
g16
sg17
F135.22222222222223
sg18
F-283.1875
sg19
I4894020
sg20
S'11711.0495261'
p945
sg22
F0.77777777777777779
sbasg26
I00
sg27
I00
sg28
I4893502
sg20
S'11711.2921922'
p946
sba(igraph
Edge
p947
(dp948
g7
I1
sg8
I00
sg9
I5
sg10
(lp949
g943
a(igraph
Vertex
p950
(dp951
g14
F0.875
sg8
I00
sg15
g16
sg17
F135.22222222222223
sg18
F-327.125
sg19
I4894021
sg20
S'11711.0506279'
p952
sg22
F0.77777777777777779
sbasg26
I00
sg27
I00
sg28
I4893503
sg20
S'11711.2951266'
p953
sba(igraph
Edge
p954
(dp955
g7
I1
sg8
I00
sg9
I5
sg10
(lp956
g950
a(igraph
Vertex
p957
(dp958
g14
F0.9375
sg8
I00
sg15
g16
sg17
F135.22222222222223
sg18
F-371.0625
sg19
I4894022
sg20
S'11711.0517312'
p959
sg22
F0.77777777777777779
sbasg26
I00
sg27
I00
sg28
I4893504
sg20
S'11711.2980857'
p960
sba(igraph
Edge
p961
(dp962
g7
I1
sg8
I00
sg9
I5
sg10
(lp963
g957
a(igraph
Vertex
p964
(dp965
g14
F1.0
sg8
I00
sg15
g16
sg17
F135.22222222222223
sg18
F-415.0
sg19
I4894023
sg20
S'11711.0528444'
p966
sg22
F0.77777777777777779
sbasg26
I00
sg27
I00
sg28
I4893505
sg20
S'11711.3010486'
p967
sba(igraph
Edge
p968
(dp969
g7
I1
sg8
I00
sg9
I5
sg10
(lp970
g964
ag856
asg26
I00
sg27
I00
sg28
I4893506
sg20
S'11711.3040054'
p971
sba(igraph
Edge
p972
(dp973
g7
I1
sg8
I00
sg9
I5
sg10
(lp974
(igraph
Vertex
p975
(dp976
g14
F0.0
sg8
I00
sg15
I0
sg17
F195.11111111111103
sg18
F288.0
sg19
I4894024
sg20
S'11711.053965'
p977
sg22
F0.88888888888888873
sba(igraph
Vertex
p978
(dp979
g14
F0.0625
sg8
I00
sg15
g16
sg17
F195.11111111111103
sg18
F244.0625
sg19
I4894026
sg20
S'11711.0550919'
p980
sg22
F0.88888888888888873
sbasg26
I00
sg27
I00
sg28
I4893507
sg20
S'11711.3069899'
p981
sba(igraph
Edge
p982
(dp983
g7
I1
sg8
I00
sg9
I5
sg10
(lp984
g978
a(igraph
Vertex
p985
(dp986
g14
F0.125
sg8
I00
sg15
g16
sg17
F195.11111111111103
sg18
F200.125
sg19
I4894027
sg20
S'11711.0562267'
p987
sg22
F0.88888888888888873
sbasg26
I00
sg27
I00
sg28
I4893508
sg20
S'11711.3099922'
p988
sba(igraph
Edge
p989
(dp990
g7
I1
sg8
I00
sg9
I5
sg10
(lp991
g985
a(igraph
Vertex
p992
(dp993
g14
F0.1875
sg8
I00
sg15
g16
sg17
F195.11111111111103
sg18
F156.1875
sg19
I4894028
sg20
S'11711.0573749'
p994
sg22
F0.88888888888888873
sbasg26
I00
sg27
I00
sg28
I4893509
sg20
S'11711.3130155'
p995
sba(igraph
Edge
p996
(dp997
g7
I1
sg8
I00
sg9
I5
sg10
(lp998
g992
a(igraph
Vertex
p999
(dp1000
g14
F0.25
sg8
I00
sg15
g16
sg17
F195.11111111111103
sg18
F112.25
sg19
I4894029
sg20
S'11711.0585309'
p1001
sg22
F0.88888888888888873
sbasg26
I00
sg27
I00
sg28
I4893510
sg20
S'11711.3160614'
p1002
sba(igraph
Edge
p1003
(dp1004
g7
I1
sg8
I00
sg9
I5
sg10
(lp1005
g999
a(igraph
Vertex
p1006
(dp1007
g14
F0.3125
sg8
I00
sg15
g16
sg17
F195.11111111111103
sg18
F68.3125
sg19
I4894030
sg20
S'11711.0596936'
p1008
sg22
F0.88888888888888873
sbasg26
I00
sg27
I00
sg28
I4893511
sg20
S'11711.3191174'
p1009
sba(igraph
Edge
p1010
(dp1011
g7
I1
sg8
I00
sg9
I5
sg10
(lp1012
g1006
a(igraph
Vertex
p1013
(dp1014
g14
F0.375
sg8
I00
sg15
g16
sg17
F195.11111111111103
sg18
F24.375
sg19
I4894031
sg20
S'11711.0608628'
p1015
sg22
F0.88888888888888873
sbasg26
I00
sg27
I00
sg28
I4893512
sg20
S'11711.3222298'
p1016
sba(igraph
Edge
p1017
(dp1018
g7
I1
sg8
I00
sg9
I5
sg10
(lp1019
g1013
a(igraph
Vertex
p1020
(dp1021
g14
F0.4375
sg8
I00
sg15
g16
sg17
F195.11111111111103
sg18
F-19.5625
sg19
I4894032
sg20
S'11711.0620442'
p1022
sg22
F0.88888888888888873
sbasg26
I00
sg27
I00
sg28
I4893513
sg20
S'11711.3253425'
p1023
sba(igraph
Edge
p1024
(dp1025
g7
I1
sg8
I00
sg9
I5
sg10
(lp1026
g1020
a(igraph
Vertex
p1027
(dp1028
g14
F0.5
sg8
I00
sg15
g16
sg17
F195.11111111111103
sg18
F-63.5
sg19
I4894033
sg20
S'11711.0632321'
p1029
sg22
F0.88888888888888873
sbasg26
I00
sg27
I00
sg28
I4893514
sg20
S'11711.3284876'
p1030
sba(igraph
Edge
p1031
(dp1032
g7
I1
sg8
I00
sg9
I5
sg10
(lp1033
g1027
a(igraph
Vertex
p1034
(dp1035
g14
F0.5625
sg8
I00
sg15
g16
sg17
F195.11111111111103
sg18
F-107.4375
sg19
I4894034
sg20
S'11711.064437'
p1036
sg22
F0.88888888888888873
sbasg26
I00
sg27
I00
sg28
I4893515
sg20
S'11711.3316916'
p1037
sba(igraph
Edge
p1038
(dp1039
g7
I1
sg8
I00
sg9
I5
sg10
(lp1040
g1034
a(igraph
Vertex
p1041
(dp1042
g14
F0.625
sg8
I00
sg15
g16
sg17
F195.11111111111103
sg18
F-151.375
sg19
I4894035
sg20
S'11711.0656477'
p1043
sg22
F0.88888888888888873
sbasg26
I00
sg27
I00
sg28
I4893516
sg20
S'11711.3349146'
p1044
sba(igraph
Edge
p1045
(dp1046
g7
I1
sg8
I00
sg9
I5
sg10
(lp1047
g1041
a(igraph
Vertex
p1048
(dp1049
g14
F0.6875
sg8
I00
sg15
g16
sg17
F195.11111111111103
sg18
F-195.3125
sg19
I4894036
sg20
S'11711.0668736'
p1050
sg22
F0.88888888888888873
sbasg26
I00
sg27
I00
sg28
I4893517
sg20
S'11711.3381511'
p1051
sba(igraph
Edge
p1052
(dp1053
g7
I1
sg8
I00
sg9
I5
sg10
(lp1054
g1048
a(igraph
Vertex
p1055
(dp1056
g14
F0.75
sg8
I00
sg15
g16
sg17
F195.11111111111103
sg18
F-239.25
sg19
I4894037
sg20
S'11711.0681036'
p1057
sg22
F0.88888888888888873
sbasg26
I00
sg27
I00
sg28
I4893518
sg20
S'11711.3414043'
p1058
sba(igraph
Edge
p1059
(dp1060
g7
I1
sg8
I00
sg9
I5
sg10
(lp1061
g1055
a(igraph
Vertex
p1062
(dp1063
g14
F0.8125
sg8
I00
sg15
g16
sg17
F195.11111111111103
sg18
F-283.1875
sg19
I4894038
sg20
S'11711.0693429'
p1064
sg22
F0.88888888888888873
sbasg26
I00
sg27
I00
sg28
I4893519
sg20
S'11711.3446413'
p1065
sba(igraph
Edge
p1066
(dp1067
g7
I1
sg8
I00
sg9
I5
sg10
(lp1068
g1062
a(igraph
Vertex
p1069
(dp1070
g14
F0.875
sg8
I00
sg15
I0
sg17
F195.11111111111103
sg18
F-327.125
sg19
I4894039
sg20
S'11711.0706908'
p1071
sg22
F0.88888888888888873
sbasg26
I00
sg27
I00
sg28
I4893520
sg20
S'11711.34788'
p1072
sba(igraph
Edge
p1073
(dp1074
g7
I1
sg8
I00
sg9
I5
sg10
(lp1075
g1069
a(igraph
Vertex
p1076
(dp1077
g14
F0.9375
sg8
I00
sg15
g16
sg17
F195.11111111111103
sg18
F-371.0625
sg19
I4894041
sg20
S'11711.0719577'
p1078
sg22
F0.88888888888888873
sbasg26
I00
sg27
I00
sg28
I4893521
sg20
S'11711.3511904'
p1079
sba(igraph
Edge
p1080
(dp1081
g7
I1
sg8
I00
sg9
I5
sg10
(lp1082
g1076
a(igraph
Vertex
p1083
(dp1084
g14
F1.0
sg8
I00
sg15
g16
sg17
F195.11111111111103
sg18
F-415.0
sg19
I4894042
sg20
S'11711.0732233'
p1085
sg22
F0.88888888888888873
sbasg26
I00
sg27
I00
sg28
I4893522
sg20
S'11711.3545875'
p1086
sba(igraph
Edge
p1087
(dp1088
g7
I1
sg8
I00
sg9
I5
sg10
(lp1089
g1083
ag975
asg26
I00
sg27
I00
sg28
I4893523
sg20
S'11711.3579016'
p1090
sba(igraph
Edge
p1091
(dp1092
g7
I1
sg8
I00
sg9
I5
sg10
(lp1093
(igraph
Vertex
p1094
(dp1095
g14
F0.0
sg8
I00
sg15
g16
sg17
F255.0
sg18
F288.0
sg19
I4894043
sg20
S'11711.0745123'
p1096
sg22
F1.0
sba(igraph
Vertex
p1097
(dp1098
g14
F0.0625
sg8
I00
sg15
g16
sg17
F255.0
sg18
F244.0625
sg19
I4894044
sg20
S'11711.0757918'
p1099
sg22
F1.0
sbasg26
I00
sg27
I00
sg28
I4893524
sg20
S'11711.3612462'
p1100
sba(igraph
Edge
p1101
(dp1102
g7
I1
sg8
I00
sg9
I5
sg10
(lp1103
g1097
a(igraph
Vertex
p1104
(dp1105
g14
F0.125
sg8
I00
sg15
I0
sg17
F255.0
sg18
F200.125
sg19
I4894045
sg20
S'11711.0770861'
p1106
sg22
F1.0
sbasg26
I00
sg27
I00
sg28
I4893525
sg20
S'11711.3646078'
p1107
sba(igraph
Edge
p1108
(dp1109
g7
I1
sg8
I00
sg9
I5
sg10
(lp1110
g1104
a(igraph
Vertex
p1111
(dp1112
g14
F0.1875
sg8
I00
sg15
g16
sg17
F255.0
sg18
F156.1875
sg19
I4894047
sg20
S'11711.0784725'
p1113
sg22
F1.0
sbasg26
I00
sg27
I00
sg28
I4893526
sg20
S'11711.3681004'
p1114
sba(igraph
Edge
p1115
(dp1116
g7
I1
sg8
I00
sg9
I5
sg10
(lp1117
g1111
a(igraph
Vertex
p1118
(dp1119
g14
F0.25
sg8
I00
sg15
g16
sg17
F255.0
sg18
F112.25
sg19
I4894048
sg20
S'11711.0799127'
p1120
sg22
F1.0
sbasg26
I00
sg27
I00
sg28
I4893527
sg20
S'11711.3715279'
p1121
sba(igraph
Edge
p1122
(dp1123
g7
I1
sg8
I00
sg9
I5
sg10
(lp1124
g1118
a(igraph
Vertex
p1125
(dp1126
g14
F0.3125
sg8
I00
sg15
g16
sg17
F255.0
sg18
F68.3125
sg19
I4894049
sg20
S'11711.081331'
p1127
sg22
F1.0
sbasg26
I00
sg27
I00
sg28
I4893528
sg20
S'11711.3749834'
p1128
sba(igraph
Edge
p1129
(dp1130
g7
I1
sg8
I00
sg9
I5
sg10
(lp1131
g1125
a(igraph
Vertex
p1132
(dp1133
g14
F0.375
sg8
I00
sg15
g16
sg17
F255.0
sg18
F24.375
sg19
I4894050
sg20
S'11711.0826912'
p1134
sg22
F1.0
sbasg26
I00
sg27
I00
sg28
I4893529
sg20
S'11711.3785629'
p1135
sba(igraph
Edge
p1136
(dp1137
g7
I1
sg8
I00
sg9
I5
sg10
(lp1138
g1132
a(igraph
Vertex
p1139
(dp1140
g14
F0.4375
sg8
I00
sg15
g16
sg17
F255.0
sg18
F-19.5625
sg19
I4894051
sg20
S'11711.0840431'
p1141
sg22
F1.0
sbasg26
I00
sg27
I00
sg28
I4893530
sg20
S'11711.3820818'
p1142
sba(igraph
Edge
p1143
(dp1144
g7
I1
sg8
I00
sg9
I5
sg10
(lp1145
g1139
a(igraph
Vertex
p1146
(dp1147
g14
F0.5
sg8
I00
sg15
g16
sg17
F255.0
sg18
F-63.5
sg19
I4894052
sg20
S'11711.0854064'
p1148
sg22
F1.0
sbasg26
I00
sg27
I00
sg28
I4893531
sg20
S'11711.3856082'
p1149
sba(igraph
Edge
p1150
(dp1151
g7
I1
sg8
I00
sg9
I5
sg10
(lp1152
g1146
a(igraph
Vertex
p1153
(dp1154
g14
F0.5625
sg8
I00
sg15
g16
sg17
F255.0
sg18
F-107.4375
sg19
I4894053
sg20
S'11711.086773'
p1155
sg22
F1.0
sbasg26
I00
sg27
I00
sg28
I4893532
sg20
S'11711.3891891'
p1156
sba(igraph
Edge
p1157
(dp1158
g7
I1
sg8
I00
sg9
I5
sg10
(lp1159
g1153
a(igraph
Vertex
p1160
(dp1161
g14
F0.625
sg8
I00
sg15
g16
sg17
F255.0
sg18
F-151.375
sg19
I4894054
sg20
S'11711.088157'
p1162
sg22
F1.0
sbasg26
I00
sg27
I00
sg28
I4893533
sg20
S'11711.3929446'
p1163
sba(igraph
Edge
p1164
(dp1165
g7
I1
sg8
I00
sg9
I5
sg10
(lp1166
g1160
a(igraph
Vertex
p1167
(dp1168
g14
F0.6875
sg8
I00
sg15
g16
sg17
F255.0
sg18
F-195.3125
sg19
I4894055
sg20
S'11711.0895404'
p1169
sg22
F1.0
sbasg26
I00
sg27
I00
sg28
I4893534
sg20
S'11711.3966074'
p1170
sba(igraph
Edge
p1171
(dp1172
g7
I1
sg8
I00
sg9
I5
sg10
(lp1173
g1167
a(igraph
Vertex
p1174
(dp1175
g14
F0.75
sg8
I00
sg15
g16
sg17
F255.0
sg18
F-239.25
sg19
I4894056
sg20
S'11711.0909342'
p1176
sg22
F1.0
sbasg26
I00
sg27
I00
sg28
I4893535
sg20
S'11711.4002112'
p1177
sba(igraph
Edge
p1178
(dp1179
g7
I1
sg8
I00
sg9
I5
sg10
(lp1180
g1174
a(igraph
Vertex
p1181
(dp1182
g14
F0.8125
sg8
I00
sg15
I0
sg17
F255.0
sg18
F-283.1875
sg19
I4894057
sg20
S'11711.0923386'
p1183
sg22
F1.0
sbasg26
I00
sg27
I00
sg28
I4893536
sg20
S'11711.4039223'
p1184
sba(igraph
Edge
p1185
(dp1186
g7
I1
sg8
I00
sg9
I5
sg10
(lp1187
g1181
a(igraph
Vertex
p1188
(dp1189
g14
F0.875
sg8
I00
sg15
g16
sg17
F255.0
sg18
F-327.125
sg19
I4894059
sg20
S'11711.0937502'
p1190
sg22
F1.0
sbasg26
I00
sg27
I00
sg28
I4893537
sg20
S'11711.4075663'
p1191
sba(igraph
Edge
p1192
(dp1193
g7
I1
sg8
I00
sg9
I5
sg10
(lp1194
g1188
a(igraph
Vertex
p1195
(dp1196
g14
F0.9375
sg8
I00
sg15
g16
sg17
F255.0
sg18
F-371.0625
sg19
I4894060
sg20
S'11711.095159'
p1197
sg22
F1.0
sbasg26
I00
sg27
I00
sg28
I4893538
sg20
S'11711.4112425'
p1198
sba(igraph
Edge
p1199
(dp1200
g7
I1
sg8
I00
sg9
I5
sg10
(lp1201
g1195
a(igraph
Vertex
p1202
(dp1203
g14
F1.0
sg8
I00
sg15
I0
sg17
F255.0
sg18
F-415.0
sg19
I4894061
sg20
S'11711.0965684'
p1204
sg22
F1.0
sbasg26
I00
sg27
I00
sg28
I4893539
sg20
S'11711.4151757'
p1205
sba(igraph
Edge
p1206
(dp1207
g7
I1
sg8
I00
sg9
I5
sg10
(lp1208
g1202
ag1094
asg26
I00
sg27
I00
sg28
I4893540
sg20
S'11711.4189896'
p1209
sba(igraph
Edge
p1210
(dp1211
g7
I1
sg8
I00
sg9
I5
sg10
(lp1212
g12
ag142
asg26
I00
sg27
I00
sg28
I4893541
sg20
S'11711.4227627'
p1213
sba(igraph
Edge
p1214
(dp1215
g7
I1
sg8
I00
sg9
I5
sg10
(lp1216
g23
ag152
asg26
I00
sg27
I00
sg28
I4893542
sg20
S'11711.4266003'
p1217
sba(igraph
Edge
p1218
(dp1219
g7
I1
sg8
I00
sg9
I5
sg10
(lp1220
g33
ag152
asg26
I00
sg27
I00
sg28
I4893543
sg20
S'11711.4309805'
p1221
sba(igraph
Edge
p1222
(dp1223
g7
I1
sg8
I00
sg9
I5
sg10
(lp1224
g40
ag166
asg26
I00
sg27
I00
sg28
I4893544
sg20
S'11711.4347203'
p1225
sba(igraph
Edge
p1226
(dp1227
g7
I1
sg8
I00
sg9
I5
sg10
(lp1228
g47
ag166
asg26
I00
sg27
I00
sg28
I4893545
sg20
S'11711.438625'
p1229
sba(igraph
Edge
p1230
(dp1231
g7
I1
sg8
I00
sg9
I5
sg10
(lp1232
g54
ag180
asg26
I00
sg27
I00
sg28
I4893546
sg20
S'11711.4424685'
p1233
sba(igraph
Edge
p1234
(dp1235
g7
I1
sg8
I00
sg9
I5
sg10
(lp1236
g61
ag180
asg26
I00
sg27
I00
sg28
I4893547
sg20
S'11711.4463048'
p1237
sba(igraph
Edge
p1238
(dp1239
g7
I1
sg8
I00
sg9
I5
sg10
(lp1240
g68
ag194
asg26
I00
sg27
I00
sg28
I4893548
sg20
S'11711.4502382'
p1241
sba(igraph
Edge
p1242
(dp1243
g7
I1
sg8
I00
sg9
I5
sg10
(lp1244
g75
ag194
asg26
I00
sg27
I00
sg28
I4893549
sg20
S'11711.4541035'
p1245
sba(igraph
Edge
p1246
(dp1247
g7
I1
sg8
I00
sg9
I5
sg10
(lp1248
g82
ag208
asg26
I00
sg27
I00
sg28
I4893550
sg20
S'11711.4581046'
p1249
sba(igraph
Edge
p1250
(dp1251
g7
I1
sg8
I00
sg9
I5
sg10
(lp1252
g89
ag208
asg26
I00
sg27
I00
sg28
I4893551
sg20
S'11711.4621945'
p1253
sba(igraph
Edge
p1254
(dp1255
g7
I1
sg8
I00
sg9
I5
sg10
(lp1256
g96
ag222
asg26
I00
sg27
I00
sg28
I4893552
sg20
S'11711.4661553'
p1257
sba(igraph
Edge
p1258
(dp1259
g7
I1
sg8
I00
sg9
I5
sg10
(lp1260
g103
ag222
asg26
I00
sg27
I00
sg28
I4893553
sg20
S'11711.4702237'
p1261
sba(igraph
Edge
p1262
(dp1263
g7
I1
sg8
I00
sg9
I5
sg10
(lp1264
g110
ag236
asg26
I00
sg27
I00
sg28
I4893554
sg20
S'11711.4742343'
p1265
sba(igraph
Edge
p1266
(dp1267
g7
I1
sg8
I00
sg9
I5
sg10
(lp1268
g117
ag236
asg26
I00
sg27
I00
sg28
I4893555
sg20
S'11711.478268'
p1269
sba(igraph
Edge
p1270
(dp1271
g7
I1
sg8
I00
sg9
I5
sg10
(lp1272
g124
ag250
asg26
I00
sg27
I00
sg28
I4893556
sg20
S'11711.4823376'
p1273
sba(igraph
Edge
p1274
(dp1275
g7
I1
sg8
I00
sg9
I5
sg10
(lp1276
g131
ag250
asg26
I00
sg27
I00
sg28
I4893557
sg20
S'11711.4864057'
p1277
sba(igraph
Edge
p1278
(dp1279
g7
I1
sg8
I00
sg9
I5
sg10
(lp1280
g12
ag145
asg26
I00
sg27
I00
sg28
I4893558
sg20
S'11711.490523'
p1281
sba(igraph
Edge
p1282
(dp1283
g7
I1
sg8
I00
sg9
I5
sg10
(lp1284
g23
ag145
asg26
I00
sg27
I00
sg28
I4893559
sg20
S'11711.4946428'
p1285
sba(igraph
Edge
p1286
(dp1287
g7
I1
sg8
I00
sg9
I5
sg10
(lp1288
g33
ag159
asg26
I00
sg27
I00
sg28
I4893560
sg20
S'11711.4987829'
p1289
sba(igraph
Edge
p1290
(dp1291
g7
I1
sg8
I00
sg9
I5
sg10
(lp1292
g40
ag159
asg26
I00
sg27
I00
sg28
I4893561
sg20
S'11711.5030033'
p1293
sba(igraph
Edge
p1294
(dp1295
g7
I1
sg8
I00
sg9
I5
sg10
(lp1296
g47
ag173
asg26
I00
sg27
I00
sg28
I4893562
sg20
S'11711.5071815'
p1297
sba(igraph
Edge
p1298
(dp1299
g7
I1
sg8
I00
sg9
I5
sg10
(lp1300
g54
ag173
asg26
I00
sg27
I00
sg28
I4893563
sg20
S'11711.5113773'
p1301
sba(igraph
Edge
p1302
(dp1303
g7
I1
sg8
I00
sg9
I5
sg10
(lp1304
g61
ag187
asg26
I00
sg27
I00
sg28
I4893564
sg20
S'11711.5155949'
p1305
sba(igraph
Edge
p1306
(dp1307
g7
I1
sg8
I00
sg9
I5
sg10
(lp1308
g68
ag187
asg26
I00
sg27
I00
sg28
I4893565
sg20
S'11711.5199865'
p1309
sba(igraph
Edge
p1310
(dp1311
g7
I1
sg8
I00
sg9
I5
sg10
(lp1312
g75
ag201
asg26
I00
sg27
I00
sg28
I4893566
sg20
S'11711.5243052'
p1313
sba(igraph
Edge
p1314
(dp1315
g7
I1
sg8
I00
sg9
I5
sg10
(lp1316
g82
ag201
asg26
I00
sg27
I00
sg28
I4893567
sg20
S'11711.5285552'
p1317
sba(igraph
Edge
p1318
(dp1319
g7
I1
sg8
I00
sg9
I5
sg10
(lp1320
g89
ag215
asg26
I00
sg27
I00
sg28
I4893568
sg20
S'11711.5330429'
p1321
sba(igraph
Edge
p1322
(dp1323
g7
I1
sg8
I00
sg9
I5
sg10
(lp1324
g96
ag215
asg26
I00
sg27
I00
sg28
I4893569
sg20
S'11711.537392'
p1325
sba(igraph
Edge
p1326
(dp1327
g7
I1
sg8
I00
sg9
I5
sg10
(lp1328
g103
ag229
asg26
I00
sg27
I00
sg28
I4893570
sg20
S'11711.5420672'
p1329
sba(igraph
Edge
p1330
(dp1331
g7
I1
sg8
I00
sg9
I5
sg10
(lp1332
g110
ag229
asg26
I00
sg27
I00
sg28
I4893571
sg20
S'11711.5470799'
p1333
sba(igraph
Edge
p1334
(dp1335
g7
I1
sg8
I00
sg9
I5
sg10
(lp1336
g117
ag243
asg26
I00
sg27
I00
sg28
I4893572
sg20
S'11711.5516028'
p1337
sba(igraph
Edge
p1338
(dp1339
g7
I1
sg8
I00
sg9
I5
sg10
(lp1340
g124
ag243
asg26
I00
sg27
I00
sg28
I4893573
sg20
S'11711.5561078'
p1341
sba(igraph
Edge
p1342
(dp1343
g7
I1
sg8
I00
sg9
I5
sg10
(lp1344
g131
ag142
asg26
I00
sg27
I00
sg28
I4893574
sg20
S'11711.5605939'
p1345
sba(igraph
Edge
p1346
(dp1347
g7
I1
sg8
I00
sg9
I5
sg10
(lp1348
g12
ag1094
asg26
I00
sg27
I00
sg28
I4893575
sg20
S'11711.5650877'
p1349
sba(igraph
Edge
p1350
(dp1351
g7
I1
sg8
I00
sg9
I5
sg10
(lp1352
g23
ag1094
asg26
I00
sg27
I00
sg28
I4893576
sg20
S'11711.5696453'
p1353
sba(igraph
Edge
p1354
(dp1355
g7
I1
sg8
I00
sg9
I5
sg10
(lp1356
g33
ag1104
asg26
I00
sg27
I00
sg28
I4893577
sg20
S'11711.5741839'
p1357
sba(igraph
Edge
p1358
(dp1359
g7
I1
sg8
I00
sg9
I5
sg10
(lp1360
g40
ag1104
asg26
I00
sg27
I00
sg28
I4893578
sg20
S'11711.5786942'
p1361
sba(igraph
Edge
p1362
(dp1363
g7
I1
sg8
I00
sg9
I5
sg10
(lp1364
g47
ag1118
asg26
I00
sg27
I00
sg28
I4893579
sg20
S'11711.5833543'
p1365
sba(igraph
Edge
p1366
(dp1367
g7
I1
sg8
I00
sg9
I5
sg10
(lp1368
g54
ag1118
asg26
I00
sg27
I00
sg28
I4893580
sg20
S'11711.5879719'
p1369
sba(igraph
Edge
p1370
(dp1371
g7
I1
sg8
I00
sg9
I5
sg10
(lp1372
g61
ag1132
asg26
I00
sg27
I00
sg28
I4893581
sg20
S'11711.5925792'
p1373
sba(igraph
Edge
p1374
(dp1375
g7
I1
sg8
I00
sg9
I5
sg10
(lp1376
g68
ag1132
asg26
I00
sg27
I00
sg28
I4893582
sg20
S'11711.5972262'
p1377
sba(igraph
Edge
p1378
(dp1379
g7
I1
sg8
I00
sg9
I5
sg10
(lp1380
g75
ag1146
asg26
I00
sg27
I00
sg28
I4893583
sg20
S'11711.6019176'
p1381
sba(igraph
Edge
p1382
(dp1383
g7
I1
sg8
I00
sg9
I5
sg10
(lp1384
g82
ag1146
asg26
I00
sg27
I00
sg28
I4893584
sg20
S'11711.6066346'
p1385
sba(igraph
Edge
p1386
(dp1387
g7
I1
sg8
I00
sg9
I5
sg10
(lp1388
g89
ag1160
asg26
I00
sg27
I00
sg28
I4893585
sg20
S'11711.6112864'
p1389
sba(igraph
Edge
p1390
(dp1391
g7
I1
sg8
I00
sg9
I5
sg10
(lp1392
g96
ag1160
asg26
I00
sg27
I00
sg28
I4893586
sg20
S'11711.6160906'
p1393
sba(igraph
Edge
p1394
(dp1395
g7
I1
sg8
I00
sg9
I5
sg10
(lp1396
g103
ag1174
asg26
I00
sg27
I00
sg28
I4893587
sg20
S'11711.6208655'
p1397
sba(igraph
Edge
p1398
(dp1399
g7
I1
sg8
I00
sg9
I5
sg10
(lp1400
g110
ag1174
asg26
I00
sg27
I00
sg28
I4893588
sg20
S'11711.6257435'
p1401
sba(igraph
Edge
p1402
(dp1403
g7
I1
sg8
I00
sg9
I5
sg10
(lp1404
g117
ag1188
asg26
I00
sg27
I00
sg28
I4893589
sg20
S'11711.6305268'
p1405
sba(igraph
Edge
p1406
(dp1407
g7
I1
sg8
I00
sg9
I5
sg10
(lp1408
g124
ag1188
asg26
I00
sg27
I00
sg28
I4893590
sg20
S'11711.6353266'
p1409
sba(igraph
Edge
p1410
(dp1411
g7
I1
sg8
I00
sg9
I5
sg10
(lp1412
g131
ag1202
asg26
I00
sg27
I00
sg28
I4893591
sg20
S'11711.6402157'
p1413
sba(igraph
Edge
p1414
(dp1415
g7
I1
sg8
I00
sg9
I5
sg10
(lp1416
g12
ag1202
asg26
I00
sg27
I00
sg28
I4893592
sg20
S'11711.6451675'
p1417
sba(igraph
Edge
p1418
(dp1419
g7
I1
sg8
I00
sg9
I5
sg10
(lp1420
g23
ag1097
asg26
I00
sg27
I00
sg28
I4893593
sg20
S'11711.6500449'
p1421
sba(igraph
Edge
p1422
(dp1423
g7
I1
sg8
I00
sg9
I5
sg10
(lp1424
g33
ag1097
asg26
I00
sg27
I00
sg28
I4893594
sg20
S'11711.6549282'
p1425
sba(igraph
Edge
p1426
(dp1427
g7
I1
sg8
I00
sg9
I5
sg10
(lp1428
g40
ag1111
asg26
I00
sg27
I00
sg28
I4893595
sg20
S'11711.6598336'
p1429
sba(igraph
Edge
p1430
(dp1431
g7
I1
sg8
I00
sg9
I5
sg10
(lp1432
g47
ag1111
asg26
I00
sg27
I00
sg28
I4893596
sg20
S'11711.6648311'
p1433
sba(igraph
Edge
p1434
(dp1435
g7
I1
sg8
I00
sg9
I5
sg10
(lp1436
g54
ag1125
asg26
I00
sg27
I00
sg28
I4893597
sg20
S'11711.6699209'
p1437
sba(igraph
Edge
p1438
(dp1439
g7
I1
sg8
I00
sg9
I5
sg10
(lp1440
g61
ag1125
asg26
I00
sg27
I00
sg28
I4893598
sg20
S'11711.6750255'
p1441
sba(igraph
Edge
p1442
(dp1443
g7
I1
sg8
I00
sg9
I5
sg10
(lp1444
g68
ag1139
asg26
I00
sg27
I00
sg28
I4893599
sg20
S'11711.6800764'
p1445
sba(igraph
Edge
p1446
(dp1447
g7
I1
sg8
I00
sg9
I5
sg10
(lp1448
g75
ag1139
asg26
I00
sg27
I00
sg28
I4893600
sg20
S'11711.6851483'
p1449
sba(igraph
Edge
p1450
(dp1451
g7
I1
sg8
I00
sg9
I5
sg10
(lp1452
g82
ag1153
asg26
I00
sg27
I00
sg28
I4893601
sg20
S'11711.6902338'
p1453
sba(igraph
Edge
p1454
(dp1455
g7
I1
sg8
I00
sg9
I5
sg10
(lp1456
g89
ag1153
asg26
I00
sg27
I00
sg28
I4893602
sg20
S'11711.6953671'
p1457
sba(igraph
Edge
p1458
(dp1459
g7
I1
sg8
I00
sg9
I5
sg10
(lp1460
g96
ag1167
asg26
I00
sg27
I00
sg28
I4893603
sg20
S'11711.700434'
p1461
sba(igraph
Edge
p1462
(dp1463
g7
I1
sg8
I00
sg9
I5
sg10
(lp1464
g103
ag1167
asg26
I00
sg27
I00
sg28
I4893604
sg20
S'11711.7055313'
p1465
sba(igraph
Edge
p1466
(dp1467
g7
I1
sg8
I00
sg9
I5
sg10
(lp1468
g110
ag1181
asg26
I00
sg27
I00
sg28
I4893605
sg20
S'11711.7106981'
p1469
sba(igraph
Edge
p1470
(dp1471
g7
I1
sg8
I00
sg9
I5
sg10
(lp1472
g117
ag1181
asg26
I00
sg27
I00
sg28
I4893606
sg20
S'11711.7159952'
p1473
sba(igraph
Edge
p1474
(dp1475
g7
I1
sg8
I00
sg9
I5
sg10
(lp1476
g124
ag1195
asg26
I00
sg27
I00
sg28
I4893607
sg20
S'11711.7211919'
p1477
sba(igraph
Edge
p1478
(dp1479
g7
I1
sg8
I00
sg9
I5
sg10
(lp1480
g131
ag1195
asg26
I00
sg27
I00
sg28
I4893608
sg20
S'11711.7263814'
p1481
sba(igraph
Edge
p1482
(dp1483
g7
I1
sg8
I00
sg9
I5
sg10
(lp1484
g142
ag261
asg26
I00
sg27
I00
sg28
I4893609
sg20
S'11711.7316368'
p1485
sba(igraph
Edge
p1486
(dp1487
g7
I1
sg8
I00
sg9
I5
sg10
(lp1488
g145
ag271
asg26
I00
sg27
I00
sg28
I4893610
sg20
S'11711.736842'
p1489
sba(igraph
Edge
p1490
(dp1491
g7
I1
sg8
I00
sg9
I5
sg10
(lp1492
g152
ag271
asg26
I00
sg27
I00
sg28
I4893611
sg20
S'11711.7421178'
p1493
sba(igraph
Edge
p1494
(dp1495
g7
I1
sg8
I00
sg9
I5
sg10
(lp1496
g159
ag285
asg26
I00
sg27
I00
sg28
I4893612
sg20
S'11711.7473402'
p1497
sba(igraph
Edge
p1498
(dp1499
g7
I1
sg8
I00
sg9
I5
sg10
(lp1500
g166
ag285
asg26
I00
sg27
I00
sg28
I4893613
sg20
S'11711.7525954'
p1501
sba(igraph
Edge
p1502
(dp1503
g7
I1
sg8
I00
sg9
I5
sg10
(lp1504
g173
ag299
asg26
I00
sg27
I00
sg28
I4893614
sg20
S'11711.757886'
p1505
sba(igraph
Edge
p1506
(dp1507
g7
I1
sg8
I00
sg9
I5
sg10
(lp1508
g180
ag299
asg26
I00
sg27
I00
sg28
I4893615
sg20
S'11711.7632347'
p1509
sba(igraph
Edge
p1510
(dp1511
g7
I1
sg8
I00
sg9
I5
sg10
(lp1512
g187
ag313
asg26
I00
sg27
I00
sg28
I4893616
sg20
S'11711.7686265'
p1513
sba(igraph
Edge
p1514
(dp1515
g7
I1
sg8
I00
sg9
I5
sg10
(lp1516
g194
ag313
asg26
I00
sg27
I00
sg28
I4893617
sg20
S'11711.7740059'
p1517
sba(igraph
Edge
p1518
(dp1519
g7
I1
sg8
I00
sg9
I5
sg10
(lp1520
g201
ag327
asg26
I00
sg27
I00
sg28
I4893618
sg20
S'11711.7794077'
p1521
sba(igraph
Edge
p1522
(dp1523
g7
I1
sg8
I00
sg9
I5
sg10
(lp1524
g208
ag327
asg26
I00
sg27
I00
sg28
I4893619
sg20
S'11711.7848394'
p1525
sba(igraph
Edge
p1526
(dp1527
g7
I1
sg8
I00
sg9
I5
sg10
(lp1528
g215
ag341
asg26
I00
sg27
I00
sg28
I4893620
sg20
S'11711.7902974'
p1529
sba(igraph
Edge
p1530
(dp1531
g7
I1
sg8
I00
sg9
I5
sg10
(lp1532
g222
ag341
asg26
I00
sg27
I00
sg28
I4893621
sg20
S'11711.7957481'
p1533
sba(igraph
Edge
p1534
(dp1535
g7
I1
sg8
I00
sg9
I5
sg10
(lp1536
g229
ag355
asg26
I00
sg27
I00
sg28
I4893622
sg20
S'11711.8012845'
p1537
sba(igraph
Edge
p1538
(dp1539
g7
I1
sg8
I00
sg9
I5
sg10
(lp1540
g236
ag355
asg26
I00
sg27
I00
sg28
I4893623
sg20
S'11711.8067699'
p1541
sba(igraph
Edge
p1542
(dp1543
g7
I1
sg8
I00
sg9
I5
sg10
(lp1544
g243
ag369
asg26
I00
sg27
I00
sg28
I4893624
sg20
S'11711.8122669'
p1545
sba(igraph
Edge
p1546
(dp1547
g7
I1
sg8
I00
sg9
I5
sg10
(lp1548
g250
ag369
asg26
I00
sg27
I00
sg28
I4893625
sg20
S'11711.8178623'
p1549
sba(igraph
Edge
p1550
(dp1551
g7
I1
sg8
I00
sg9
I5
sg10
(lp1552
g142
ag264
asg26
I00
sg27
I00
sg28
I4893626
sg20
S'11711.8234206'
p1553
sba(igraph
Edge
p1554
(dp1555
g7
I1
sg8
I00
sg9
I5
sg10
(lp1556
g145
ag264
asg26
I00
sg27
I00
sg28
I4893627
sg20
S'11711.8290367'
p1557
sba(igraph
Edge
p1558
(dp1559
g7
I1
sg8
I00
sg9
I5
sg10
(lp1560
g152
ag278
asg26
I00
sg27
I00
sg28
I4893628
sg20
S'11711.8346396'
p1561
sba(igraph
Edge
p1562
(dp1563
g7
I1
sg8
I00
sg9
I5
sg10
(lp1564
g159
ag278
asg26
I00
sg27
I00
sg28
I4893629
sg20
S'11711.8402439'
p1565
sba(igraph
Edge
p1566
(dp1567
g7
I1
sg8
I00
sg9
I5
sg10
(lp1568
g166
ag292
asg26
I00
sg27
I00
sg28
I4893630
sg20
S'11711.8458969'
p1569
sba(igraph
Edge
p1570
(dp1571
g7
I1
sg8
I00
sg9
I5
sg10
(lp1572
g173
ag292
asg26
I00
sg27
I00
sg28
I4893631
sg20
S'11711.8516624'
p1573
sba(igraph
Edge
p1574
(dp1575
g7
I1
sg8
I00
sg9
I5
sg10
(lp1576
g180
ag306
asg26
I00
sg27
I00
sg28
I4893632
sg20
S'11711.8574484'
p1577
sba(igraph
Edge
p1578
(dp1579
g7
I1
sg8
I00
sg9
I5
sg10
(lp1580
g187
ag306
asg26
I00
sg27
I00
sg28
I4893633
sg20
S'11711.8632692'
p1581
sba(igraph
Edge
p1582
(dp1583
g7
I1
sg8
I00
sg9
I5
sg10
(lp1584
g194
ag320
asg26
I00
sg27
I00
sg28
I4893634
sg20
S'11711.8690814'
p1585
sba(igraph
Edge
p1586
(dp1587
g7
I1
sg8
I00
sg9
I5
sg10
(lp1588
g201
ag320
asg26
I00
sg27
I00
sg28
I4893635
sg20
S'11711.8748207'
p1589
sba(igraph
Edge
p1590
(dp1591
g7
I1
sg8
I00
sg9
I5
sg10
(lp1592
g208
ag334
asg26
I00
sg27
I00
sg28
I4893636
sg20
S'11711.8806538'
p1593
sba(igraph
Edge
p1594
(dp1595
g7
I1
sg8
I00
sg9
I5
sg10
(lp1596
g215
ag334
asg26
I00
sg27
I00
sg28
I4893637
sg20
S'11711.8864599'
p1597
sba(igraph
Edge
p1598
(dp1599
g7
I1
sg8
I00
sg9
I5
sg10
(lp1600
g222
ag348
asg26
I00
sg27
I00
sg28
I4893638
sg20
S'11711.8922838'
p1601
sba(igraph
Edge
p1602
(dp1603
g7
I1
sg8
I00
sg9
I5
sg10
(lp1604
g229
ag348
asg26
I00
sg27
I00
sg28
I4893639
sg20
S'11711.898681'
p1605
sba(igraph
Edge
p1606
(dp1607
g7
I1
sg8
I00
sg9
I5
sg10
(lp1608
g236
ag362
asg26
I00
sg27
I00
sg28
I4893640
sg20
S'11711.9045787'
p1609
sba(igraph
Edge
p1610
(dp1611
g7
I1
sg8
I00
sg9
I5
sg10
(lp1612
g243
ag362
asg26
I00
sg27
I00
sg28
I4893641
sg20
S'11711.910561'
p1613
sba(igraph
Edge
p1614
(dp1615
g7
I1
sg8
I00
sg9
I5
sg10
(lp1616
g250
ag261
asg26
I00
sg27
I00
sg28
I4893642
sg20
S'11711.9164598'
p1617
sba(igraph
Edge
p1618
(dp1619
g7
I1
sg8
I00
sg9
I5
sg10
(lp1620
g261
ag380
asg26
I00
sg27
I00
sg28
I4893643
sg20
S'11711.9223583'
p1621
sba(igraph
Edge
p1622
(dp1623
g7
I1
sg8
I00
sg9
I5
sg10
(lp1624
g264
ag390
asg26
I00
sg27
I00
sg28
I4893644
sg20
S'11711.9283018'
p1625
sba(igraph
Edge
p1626
(dp1627
g7
I1
sg8
I00
sg9
I5
sg10
(lp1628
g271
ag390
asg26
I00
sg27
I00
sg28
I4893645
sg20
S'11711.9342752'
p1629
sba(igraph
Edge
p1630
(dp1631
g7
I1
sg8
I00
sg9
I5
sg10
(lp1632
g278
ag404
asg26
I00
sg27
I00
sg28
I4893646
sg20
S'11711.9403852'
p1633
sba(igraph
Edge
p1634
(dp1635
g7
I1
sg8
I00
sg9
I5
sg10
(lp1636
g285
ag404
asg26
I00
sg27
I00
sg28
I4893647
sg20
S'11711.9464354'
p1637
sba(igraph
Edge
p1638
(dp1639
g7
I1
sg8
I00
sg9
I5
sg10
(lp1640
g292
ag418
asg26
I00
sg27
I00
sg28
I4893648
sg20
S'11711.9525901'
p1641
sba(igraph
Edge
p1642
(dp1643
g7
I1
sg8
I00
sg9
I5
sg10
(lp1644
g299
ag418
asg26
I00
sg27
I00
sg28
I4893649
sg20
S'11711.9587998'
p1645
sba(igraph
Edge
p1646
(dp1647
g7
I1
sg8
I00
sg9
I5
sg10
(lp1648
g306
ag432
asg26
I00
sg27
I00
sg28
I4893650
sg20
S'11711.9649218'
p1649
sba(igraph
Edge
p1650
(dp1651
g7
I1
sg8
I00
sg9
I5
sg10
(lp1652
g313
ag432
asg26
I00
sg27
I00
sg28
I4893651
sg20
S'11711.9710558'
p1653
sba(igraph
Edge
p1654
(dp1655
g7
I1
sg8
I00
sg9
I5
sg10
(lp1656
g320
ag446
asg26
I00
sg27
I00
sg28
I4893652
sg20
S'11711.9794555'
p1657
sba(igraph
Edge
p1658
(dp1659
g7
I1
sg8
I00
sg9
I5
sg10
(lp1660
g327
ag446
asg26
I00
sg27
I00
sg28
I4893653
sg20
S'11711.9856817'
p1661
sba(igraph
Edge
p1662
(dp1663
g7
I1
sg8
I00
sg9
I5
sg10
(lp1664
g334
ag460
asg26
I00
sg27
I00
sg28
I4893654
sg20
S'11711.9920973'
p1665
sba(igraph
Edge
p1666
(dp1667
g7
I1
sg8
I00
sg9
I5
sg10
(lp1668
g341
ag460
asg26
I00
sg27
I00
sg28
I4893655
sg20
S'11711.9983666'
p1669
sba(igraph
Edge
p1670
(dp1671
g7
I1
sg8
I00
sg9
I5
sg10
(lp1672
g348
ag474
asg26
I00
sg27
I00
sg28
I4893656
sg20
S'11712.0047822'
p1673
sba(igraph
Edge
p1674
(dp1675
g7
I1
sg8
I00
sg9
I5
sg10
(lp1676
g355
ag474
asg26
I00
sg27
I00
sg28
I4893657
sg20
S'11712.0110293'
p1677
sba(igraph
Edge
p1678
(dp1679
g7
I1
sg8
I00
sg9
I5
sg10
(lp1680
g362
ag488
asg26
I00
sg27
I00
sg28
I4893658
sg20
S'11712.0172969'
p1681
sba(igraph
Edge
p1682
(dp1683
g7
I1
sg8
I00
sg9
I5
sg10
(lp1684
g369
ag488
asg26
I00
sg27
I00
sg28
I4893659
sg20
S'11712.0237726'
p1685
sba(igraph
Edge
p1686
(dp1687
g7
I1
sg8
I00
sg9
I5
sg10
(lp1688
g261
ag383
asg26
I00
sg27
I00
sg28
I4893660
sg20
S'11712.0300809'
p1689
sba(igraph
Edge
p1690
(dp1691
g7
I1
sg8
I00
sg9
I5
sg10
(lp1692
g264
ag383
asg26
I00
sg27
I00
sg28
I4893661
sg20
S'11712.0364027'
p1693
sba(igraph
Edge
p1694
(dp1695
g7
I1
sg8
I00
sg9
I5
sg10
(lp1696
g271
ag397
asg26
I00
sg27
I00
sg28
I4893662
sg20
S'11712.0428116'
p1697
sba(igraph
Edge
p1698
(dp1699
g7
I1
sg8
I00
sg9
I5
sg10
(lp1700
g278
ag397
asg26
I00
sg27
I00
sg28
I4893663
sg20
S'11712.0491811'
p1701
sba(igraph
Edge
p1702
(dp1703
g7
I1
sg8
I00
sg9
I5
sg10
(lp1704
g285
ag411
asg26
I00
sg27
I00
sg28
I4893664
sg20
S'11712.0556059'
p1705
sba(igraph
Edge
p1706
(dp1707
g7
I1
sg8
I00
sg9
I5
sg10
(lp1708
g292
ag411
asg26
I00
sg27
I00
sg28
I4893665
sg20
S'11712.0620165'
p1709
sba(igraph
Edge
p1710
(dp1711
g7
I1
sg8
I00
sg9
I5
sg10
(lp1712
g299
ag425
asg26
I00
sg27
I00
sg28
I4893666
sg20
S'11712.0684531'
p1713
sba(igraph
Edge
p1714
(dp1715
g7
I1
sg8
I00
sg9
I5
sg10
(lp1716
g306
ag425
asg26
I00
sg27
I00
sg28
I4893667
sg20
S'11712.0749187'
p1717
sba(igraph
Edge
p1718
(dp1719
g7
I1
sg8
I00
sg9
I5
sg10
(lp1720
g313
ag439
asg26
I00
sg27
I00
sg28
I4893668
sg20
S'11712.0815492'
p1721
sba(igraph
Edge
p1722
(dp1723
g7
I1
sg8
I00
sg9
I5
sg10
(lp1724
g320
ag439
asg26
I00
sg27
I00
sg28
I4893669
sg20
S'11712.088093'
p1725
sba(igraph
Edge
p1726
(dp1727
g7
I1
sg8
I00
sg9
I5
sg10
(lp1728
g327
ag453
asg26
I00
sg27
I00
sg28
I4893670
sg20
S'11712.0946866'
p1729
sba(igraph
Edge
p1730
(dp1731
g7
I1
sg8
I00
sg9
I5
sg10
(lp1732
g334
ag453
asg26
I00
sg27
I00
sg28
I4893671
sg20
S'11712.1012704'
p1733
sba(igraph
Edge
p1734
(dp1735
g7
I1
sg8
I00
sg9
I5
sg10
(lp1736
g341
ag467
asg26
I00
sg27
I00
sg28
I4893672
sg20
S'11712.1079671'
p1737
sba(igraph
Edge
p1738
(dp1739
g7
I1
sg8
I00
sg9
I5
sg10
(lp1740
g348
ag467
asg26
I00
sg27
I00
sg28
I4893673
sg20
S'11712.1146394'
p1741
sba(igraph
Edge
p1742
(dp1743
g7
I1
sg8
I00
sg9
I5
sg10
(lp1744
g355
ag481
asg26
I00
sg27
I00
sg28
I4893674
sg20
S'11712.1214241'
p1745
sba(igraph
Edge
p1746
(dp1747
g7
I1
sg8
I00
sg9
I5
sg10
(lp1748
g362
ag481
asg26
I00
sg27
I00
sg28
I4893675
sg20
S'11712.1280911'
p1749
sba(igraph
Edge
p1750
(dp1751
g7
I1
sg8
I00
sg9
I5
sg10
(lp1752
g369
ag380
asg26
I00
sg27
I00
sg28
I4893676
sg20
S'11712.1347621'
p1753
sba(igraph
Edge
p1754
(dp1755
g7
I1
sg8
I00
sg9
I5
sg10
(lp1756
g380
ag499
asg26
I00
sg27
I00
sg28
I4893677
sg20
S'11712.1414169'
p1757
sba(igraph
Edge
p1758
(dp1759
g7
I1
sg8
I00
sg9
I5
sg10
(lp1760
g383
ag509
asg26
I00
sg27
I00
sg28
I4893678
sg20
S'11712.1482163'
p1761
sba(igraph
Edge
p1762
(dp1763
g7
I1
sg8
I00
sg9
I5
sg10
(lp1764
g390
ag509
asg26
I00
sg27
I00
sg28
I4893679
sg20
S'11712.1549848'
p1765
sba(igraph
Edge
p1766
(dp1767
g7
I1
sg8
I00
sg9
I5
sg10
(lp1768
g397
ag523
asg26
I00
sg27
I00
sg28
I4893680
sg20
S'11712.1617471'
p1769
sba(igraph
Edge
p1770
(dp1771
g7
I1
sg8
I00
sg9
I5
sg10
(lp1772
g404
ag523
asg26
I00
sg27
I00
sg28
I4893681
sg20
S'11712.168558'
p1773
sba(igraph
Edge
p1774
(dp1775
g7
I1
sg8
I00
sg9
I5
sg10
(lp1776
g411
ag537
asg26
I00
sg27
I00
sg28
I4893682
sg20
S'11712.1757966'
p1777
sba(igraph
Edge
p1778
(dp1779
g7
I1
sg8
I00
sg9
I5
sg10
(lp1780
g418
ag537
asg26
I00
sg27
I00
sg28
I4893683
sg20
S'11712.1827584'
p1781
sba(igraph
Edge
p1782
(dp1783
g7
I1
sg8
I00
sg9
I5
sg10
(lp1784
g425
ag551
asg26
I00
sg27
I00
sg28
I4893684
sg20
S'11712.1896275'
p1785
sba(igraph
Edge
p1786
(dp1787
g7
I1
sg8
I00
sg9
I5
sg10
(lp1788
g432
ag551
asg26
I00
sg27
I00
sg28
I4893685
sg20
S'11712.1965644'
p1789
sba(igraph
Edge
p1790
(dp1791
g7
I1
sg8
I00
sg9
I5
sg10
(lp1792
g439
ag565
asg26
I00
sg27
I00
sg28
I4893686
sg20
S'11712.2033591'
p1793
sba(igraph
Edge
p1794
(dp1795
g7
I1
sg8
I00
sg9
I5
sg10
(lp1796
g446
ag565
asg26
I00
sg27
I00
sg28
I4893687
sg20
S'11712.210253'
p1797
sba(igraph
Edge
p1798
(dp1799
g7
I1
sg8
I00
sg9
I5
sg10
(lp1800
g453
ag579
asg26
I00
sg27
I00
sg28
I4893688
sg20
S'11712.2171173'
p1801
sba(igraph
Edge
p1802
(dp1803
g7
I1
sg8
I00
sg9
I5
sg10
(lp1804
g460
ag579
asg26
I00
sg27
I00
sg28
I4893689
sg20
S'11712.2240089'
p1805
sba(igraph
Edge
p1806
(dp1807
g7
I1
sg8
I00
sg9
I5
sg10
(lp1808
g467
ag593
asg26
I00
sg27
I00
sg28
I4893690
sg20
S'11712.2309657'
p1809
sba(igraph
Edge
p1810
(dp1811
g7
I1
sg8
I00
sg9
I5
sg10
(lp1812
g474
ag593
asg26
I00
sg27
I00
sg28
I4893691
sg20
S'11712.2379017'
p1813
sba(igraph
Edge
p1814
(dp1815
g7
I1
sg8
I00
sg9
I5
sg10
(lp1816
g481
ag607
asg26
I00
sg27
I00
sg28
I4893692
sg20
S'11712.2450339'
p1817
sba(igraph
Edge
p1818
(dp1819
g7
I1
sg8
I00
sg9
I5
sg10
(lp1820
g488
ag607
asg26
I00
sg27
I00
sg28
I4893693
sg20
S'11712.2521421'
p1821
sba(igraph
Edge
p1822
(dp1823
g7
I1
sg8
I00
sg9
I5
sg10
(lp1824
g380
ag502
asg26
I00
sg27
I00
sg28
I4893694
sg20
S'11712.2591882'
p1825
sba(igraph
Edge
p1826
(dp1827
g7
I1
sg8
I00
sg9
I5
sg10
(lp1828
g383
ag502
asg26
I00
sg27
I00
sg28
I4893695
sg20
S'11712.2662422'
p1829
sba(igraph
Edge
p1830
(dp1831
g7
I1
sg8
I00
sg9
I5
sg10
(lp1832
g390
ag516
asg26
I00
sg27
I00
sg28
I4893696
sg20
S'11712.273392'
p1833
sba(igraph
Edge
p1834
(dp1835
g7
I1
sg8
I00
sg9
I5
sg10
(lp1836
g397
ag516
asg26
I00
sg27
I00
sg28
I4893697
sg20
S'11712.2805639'
p1837
sba(igraph
Edge
p1838
(dp1839
g7
I1
sg8
I00
sg9
I5
sg10
(lp1840
g404
ag530
asg26
I00
sg27
I00
sg28
I4893698
sg20
S'11712.2877179'
p1841
sba(igraph
Edge
p1842
(dp1843
g7
I1
sg8
I00
sg9
I5
sg10
(lp1844
g411
ag530
asg26
I00
sg27
I00
sg28
I4893699
sg20
S'11712.2949132'
p1845
sba(igraph
Edge
p1846
(dp1847
g7
I1
sg8
I00
sg9
I5
sg10
(lp1848
g418
ag544
asg26
I00
sg27
I00
sg28
I4893700
sg20
S'11712.3021976'
p1849
sba(igraph
Edge
p1850
(dp1851
g7
I1
sg8
I00
sg9
I5
sg10
(lp1852
g425
ag544
asg26
I00
sg27
I00
sg28
I4893701
sg20
S'11712.3094969'
p1853
sba(igraph
Edge
p1854
(dp1855
g7
I1
sg8
I00
sg9
I5
sg10
(lp1856
g432
ag558
asg26
I00
sg27
I00
sg28
I4893702
sg20
S'11712.3167031'
p1857
sba(igraph
Edge
p1858
(dp1859
g7
I1
sg8
I00
sg9
I5
sg10
(lp1860
g439
ag558
asg26
I00
sg27
I00
sg28
I4893703
sg20
S'11712.3239342'
p1861
sba(igraph
Edge
p1862
(dp1863
g7
I1
sg8
I00
sg9
I5
sg10
(lp1864
g446
ag572
asg26
I00
sg27
I00
sg28
I4893704
sg20
S'11712.3312161'
p1865
sba(igraph
Edge
p1866
(dp1867
g7
I1
sg8
I00
sg9
I5
sg10
(lp1868
g453
ag572
asg26
I00
sg27
I00
sg28
I4893705
sg20
S'11712.3383863'
p1869
sba(igraph
Edge
p1870
(dp1871
g7
I1
sg8
I00
sg9
I5
sg10
(lp1872
g460
ag586
asg26
I00
sg27
I00
sg28
I4893706
sg20
S'11712.3455788'
p1873
sba(igraph
Edge
p1874
(dp1875
g7
I1
sg8
I00
sg9
I5
sg10
(lp1876
g467
ag586
asg26
I00
sg27
I00
sg28
I4893707
sg20
S'11712.3528756'
p1877
sba(igraph
Edge
p1878
(dp1879
g7
I1
sg8
I00
sg9
I5
sg10
(lp1880
g474
ag600
asg26
I00
sg27
I00
sg28
I4893708
sg20
S'11712.3601514'
p1881
sba(igraph
Edge
p1882
(dp1883
g7
I1
sg8
I00
sg9
I5
sg10
(lp1884
g481
ag600
asg26
I00
sg27
I00
sg28
I4893709
sg20
S'11712.3675258'
p1885
sba(igraph
Edge
p1886
(dp1887
g7
I1
sg8
I00
sg9
I5
sg10
(lp1888
g488
ag499
asg26
I00
sg27
I00
sg28
I4893710
sg20
S'11712.3748943'
p1889
sba(igraph
Edge
p1890
(dp1891
g7
I1
sg8
I00
sg9
I5
sg10
(lp1892
g499
ag618
asg26
I00
sg27
I00
sg28
I4893711
sg20
S'11712.3826227'
p1893
sba(igraph
Edge
p1894
(dp1895
g7
I1
sg8
I00
sg9
I5
sg10
(lp1896
g502
ag628
asg26
I00
sg27
I00
sg28
I4893712
sg20
S'11712.3902412'
p1897
sba(igraph
Edge
p1898
(dp1899
g7
I1
sg8
I00
sg9
I5
sg10
(lp1900
g509
ag628
asg26
I00
sg27
I00
sg28
I4893713
sg20
S'11712.3978805'
p1901
sba(igraph
Edge
p1902
(dp1903
g7
I1
sg8
I00
sg9
I5
sg10
(lp1904
g516
ag642
asg26
I00
sg27
I00
sg28
I4893714
sg20
S'11712.4053387'
p1905
sba(igraph
Edge
p1906
(dp1907
g7
I1
sg8
I00
sg9
I5
sg10
(lp1908
g523
ag642
asg26
I00
sg27
I00
sg28
I4893715
sg20
S'11712.4129388'
p1909
sba(igraph
Edge
p1910
(dp1911
g7
I1
sg8
I00
sg9
I5
sg10
(lp1912
g530
ag656
asg26
I00
sg27
I00
sg28
I4893716
sg20
S'11712.4203998'
p1913
sba(igraph
Edge
p1914
(dp1915
g7
I1
sg8
I00
sg9
I5
sg10
(lp1916
g537
ag656
asg26
I00
sg27
I00
sg28
I4893717
sg20
S'11712.4279251'
p1917
sba(igraph
Edge
p1918
(dp1919
g7
I1
sg8
I00
sg9
I5
sg10
(lp1920
g544
ag670
asg26
I00
sg27
I00
sg28
I4893718
sg20
S'11712.4355609'
p1921
sba(igraph
Edge
p1922
(dp1923
g7
I1
sg8
I00
sg9
I5
sg10
(lp1924
g551
ag670
asg26
I00
sg27
I00
sg28
I4893719
sg20
S'11712.443472'
p1925
sba(igraph
Edge
p1926
(dp1927
g7
I1
sg8
I00
sg9
I5
sg10
(lp1928
g558
ag684
asg26
I00
sg27
I00
sg28
I4893720
sg20
S'11712.4512166'
p1929
sba(igraph
Edge
p1930
(dp1931
g7
I1
sg8
I00
sg9
I5
sg10
(lp1932
g565
ag684
asg26
I00
sg27
I00
sg28
I4893721
sg20
S'11712.459269'
p1933
sba(igraph
Edge
p1934
(dp1935
g7
I1
sg8
I00
sg9
I5
sg10
(lp1936
g572
ag698
asg26
I00
sg27
I00
sg28
I4893722
sg20
S'11712.4670247'
p1937
sba(igraph
Edge
p1938
(dp1939
g7
I1
sg8
I00
sg9
I5
sg10
(lp1940
g579
ag698
asg26
I00
sg27
I00
sg28
I4893723
sg20
S'11712.4747651'
p1941
sba(igraph
Edge
p1942
(dp1943
g7
I1
sg8
I00
sg9
I5
sg10
(lp1944
g586
ag712
asg26
I00
sg27
I00
sg28
I4893724
sg20
S'11712.4824862'
p1945
sba(igraph
Edge
p1946
(dp1947
g7
I1
sg8
I00
sg9
I5
sg10
(lp1948
g593
ag712
asg26
I00
sg27
I00
sg28
I4893725
sg20
S'11712.4902372'
p1949
sba(igraph
Edge
p1950
(dp1951
g7
I1
sg8
I00
sg9
I5
sg10
(lp1952
g600
ag726
asg26
I00
sg27
I00
sg28
I4893726
sg20
S'11712.498184'
p1953
sba(igraph
Edge
p1954
(dp1955
g7
I1
sg8
I00
sg9
I5
sg10
(lp1956
g607
ag726
asg26
I00
sg27
I00
sg28
I4893727
sg20
S'11712.5060057'
p1957
sba(igraph
Edge
p1958
(dp1959
g7
I1
sg8
I00
sg9
I5
sg10
(lp1960
g499
ag621
asg26
I00
sg27
I00
sg28
I4893728
sg20
S'11712.5138525'
p1961
sba(igraph
Edge
p1962
(dp1963
g7
I1
sg8
I00
sg9
I5
sg10
(lp1964
g502
ag621
asg26
I00
sg27
I00
sg28
I4893729
sg20
S'11712.5217836'
p1965
sba(igraph
Edge
p1966
(dp1967
g7
I1
sg8
I00
sg9
I5
sg10
(lp1968
g509
ag635
asg26
I00
sg27
I00
sg28
I4893730
sg20
S'11712.5297274'
p1969
sba(igraph
Edge
p1970
(dp1971
g7
I1
sg8
I00
sg9
I5
sg10
(lp1972
g516
ag635
asg26
I00
sg27
I00
sg28
I4893731
sg20
S'11712.537679'
p1973
sba(igraph
Edge
p1974
(dp1975
g7
I1
sg8
I00
sg9
I5
sg10
(lp1976
g523
ag649
asg26
I00
sg27
I00
sg28
I4893732
sg20
S'11712.5481339'
p1977
sba(igraph
Edge
p1978
(dp1979
g7
I1
sg8
I00
sg9
I5
sg10
(lp1980
g530
ag649
asg26
I00
sg27
I00
sg28
I4893733
sg20
S'11712.5570331'
p1981
sba(igraph
Edge
p1982
(dp1983
g7
I1
sg8
I00
sg9
I5
sg10
(lp1984
g537
ag663
asg26
I00
sg27
I00
sg28
I4893734
sg20
S'11712.565873'
p1985
sba(igraph
Edge
p1986
(dp1987
g7
I1
sg8
I00
sg9
I5
sg10
(lp1988
g544
ag663
asg26
I00
sg27
I00
sg28
I4893735
sg20
S'11712.5747781'
p1989
sba(igraph
Edge
p1990
(dp1991
g7
I1
sg8
I00
sg9
I5
sg10
(lp1992
g551
ag677
asg26
I00
sg27
I00
sg28
I4893736
sg20
S'11712.5837482'
p1993
sba(igraph
Edge
p1994
(dp1995
g7
I1
sg8
I00
sg9
I5
sg10
(lp1996
g558
ag677
asg26
I00
sg27
I00
sg28
I4893737
sg20
S'11712.5924289'
p1997
sba(igraph
Edge
p1998
(dp1999
g7
I1
sg8
I00
sg9
I5
sg10
(lp2000
g565
ag691
asg26
I00
sg27
I00
sg28
I4893738
sg20
S'11712.6011789'
p2001
sba(igraph
Edge
p2002
(dp2003
g7
I1
sg8
I00
sg9
I5
sg10
(lp2004
g572
ag691
asg26
I00
sg27
I00
sg28
I4893739
sg20
S'11712.6099194'
p2005
sba(igraph
Edge
p2006
(dp2007
g7
I1
sg8
I00
sg9
I5
sg10
(lp2008
g579
ag705
asg26
I00
sg27
I00
sg28
I4893740
sg20
S'11712.6185686'
p2009
sba(igraph
Edge
p2010
(dp2011
g7
I1
sg8
I00
sg9
I5
sg10
(lp2012
g586
ag705
asg26
I00
sg27
I00
sg28
I4893741
sg20
S'11712.6270777'
p2013
sba(igraph
Edge
p2014
(dp2015
g7
I1
sg8
I00
sg9
I5
sg10
(lp2016
g593
ag719
asg26
I00
sg27
I00
sg28
I4893742
sg20
S'11712.6356931'
p2017
sba(igraph
Edge
p2018
(dp2019
g7
I1
sg8
I00
sg9
I5
sg10
(lp2020
g600
ag719
asg26
I00
sg27
I00
sg28
I4893743
sg20
S'11712.6441182'
p2021
sba(igraph
Edge
p2022
(dp2023
g7
I1
sg8
I00
sg9
I5
sg10
(lp2024
g607
ag618
asg26
I00
sg27
I00
sg28
I4893744
sg20
S'11712.6523988'
p2025
sba(igraph
Edge
p2026
(dp2027
g7
I1
sg8
I00
sg9
I5
sg10
(lp2028
g618
ag737
asg26
I00
sg27
I00
sg28
I4893745
sg20
S'11712.6606761'
p2029
sba(igraph
Edge
p2030
(dp2031
g7
I1
sg8
I00
sg9
I5
sg10
(lp2032
g621
ag747
asg26
I00
sg27
I00
sg28
I4893746
sg20
S'11712.669144'
p2033
sba(igraph
Edge
p2034
(dp2035
g7
I1
sg8
I00
sg9
I5
sg10
(lp2036
g628
ag747
asg26
I00
sg27
I00
sg28
I4893747
sg20
S'11712.6775495'
p2037
sba(igraph
Edge
p2038
(dp2039
g7
I1
sg8
I00
sg9
I5
sg10
(lp2040
g635
ag761
asg26
I00
sg27
I00
sg28
I4893748
sg20
S'11712.6865741'
p2041
sba(igraph
Edge
p2042
(dp2043
g7
I1
sg8
I00
sg9
I5
sg10
(lp2044
g642
ag761
asg26
I00
sg27
I00
sg28
I4893749
sg20
S'11712.6956239'
p2045
sba(igraph
Edge
p2046
(dp2047
g7
I1
sg8
I00
sg9
I5
sg10
(lp2048
g649
ag775
asg26
I00
sg27
I00
sg28
I4893750
sg20
S'11712.7045834'
p2049
sba(igraph
Edge
p2050
(dp2051
g7
I1
sg8
I00
sg9
I5
sg10
(lp2052
g656
ag775
asg26
I00
sg27
I00
sg28
I4893751
sg20
S'11712.7134876'
p2053
sba(igraph
Edge
p2054
(dp2055
g7
I1
sg8
I00
sg9
I5
sg10
(lp2056
g663
ag789
asg26
I00
sg27
I00
sg28
I4893752
sg20
S'11712.7222083'
p2057
sba(igraph
Edge
p2058
(dp2059
g7
I1
sg8
I00
sg9
I5
sg10
(lp2060
g670
ag789
asg26
I00
sg27
I00
sg28
I4893753
sg20
S'11712.7310085'
p2061
sba(igraph
Edge
p2062
(dp2063
g7
I1
sg8
I00
sg9
I5
sg10
(lp2064
g677
ag803
asg26
I00
sg27
I00
sg28
I4893754
sg20
S'11712.7402131'
p2065
sba(igraph
Edge
p2066
(dp2067
g7
I1
sg8
I00
sg9
I5
sg10
(lp2068
g684
ag803
asg26
I00
sg27
I00
sg28
I4893755
sg20
S'11712.7491103'
p2069
sba(igraph
Edge
p2070
(dp2071
g7
I1
sg8
I00
sg9
I5
sg10
(lp2072
g691
ag817
asg26
I00
sg27
I00
sg28
I4893756
sg20
S'11712.7578974'
p2073
sba(igraph
Edge
p2074
(dp2075
g7
I1
sg8
I00
sg9
I5
sg10
(lp2076
g698
ag817
asg26
I00
sg27
I00
sg28
I4893757
sg20
S'11712.7667081'
p2077
sba(igraph
Edge
p2078
(dp2079
g7
I1
sg8
I00
sg9
I5
sg10
(lp2080
g705
ag831
asg26
I00
sg27
I00
sg28
I4893758
sg20
S'11712.7753709'
p2081
sba(igraph
Edge
p2082
(dp2083
g7
I1
sg8
I00
sg9
I5
sg10
(lp2084
g712
ag831
asg26
I00
sg27
I00
sg28
I4893759
sg20
S'11712.7840172'
p2085
sba(igraph
Edge
p2086
(dp2087
g7
I1
sg8
I00
sg9
I5
sg10
(lp2088
g719
ag845
asg26
I00
sg27
I00
sg28
I4893760
sg20
S'11712.7929337'
p2089
sba(igraph
Edge
p2090
(dp2091
g7
I1
sg8
I00
sg9
I5
sg10
(lp2092
g726
ag845
asg26
I00
sg27
I00
sg28
I4893761
sg20
S'11712.8018321'
p2093
sba(igraph
Edge
p2094
(dp2095
g7
I1
sg8
I00
sg9
I5
sg10
(lp2096
g618
ag740
asg26
I00
sg27
I00
sg28
I4893762
sg20
S'11712.8107198'
p2097
sba(igraph
Edge
p2098
(dp2099
g7
I1
sg8
I00
sg9
I5
sg10
(lp2100
g621
ag740
asg26
I00
sg27
I00
sg28
I4893763
sg20
S'11712.81985'
p2101
sba(igraph
Edge
p2102
(dp2103
g7
I1
sg8
I00
sg9
I5
sg10
(lp2104
g628
ag754
asg26
I00
sg27
I00
sg28
I4893764
sg20
S'11712.8290123'
p2105
sba(igraph
Edge
p2106
(dp2107
g7
I1
sg8
I00
sg9
I5
sg10
(lp2108
g635
ag754
asg26
I00
sg27
I00
sg28
I4893765
sg20
S'11712.8384638'
p2109
sba(igraph
Edge
p2110
(dp2111
g7
I1
sg8
I00
sg9
I5
sg10
(lp2112
g642
ag768
asg26
I00
sg27
I00
sg28
I4893766
sg20
S'11712.8477089'
p2113
sba(igraph
Edge
p2114
(dp2115
g7
I1
sg8
I00
sg9
I5
sg10
(lp2116
g649
ag768
asg26
I00
sg27
I00
sg28
I4893767
sg20
S'11712.8572455'
p2117
sba(igraph
Edge
p2118
(dp2119
g7
I1
sg8
I00
sg9
I5
sg10
(lp2120
g656
ag782
asg26
I00
sg27
I00
sg28
I4893768
sg20
S'11712.866395'
p2121
sba(igraph
Edge
p2122
(dp2123
g7
I1
sg8
I00
sg9
I5
sg10
(lp2124
g663
ag782
asg26
I00
sg27
I00
sg28
I4893769
sg20
S'11712.8755233'
p2125
sba(igraph
Edge
p2126
(dp2127
g7
I1
sg8
I00
sg9
I5
sg10
(lp2128
g670
ag796
asg26
I00
sg27
I00
sg28
I4893770
sg20
S'11712.8846409'
p2129
sba(igraph
Edge
p2130
(dp2131
g7
I1
sg8
I00
sg9
I5
sg10
(lp2132
g677
ag796
asg26
I00
sg27
I00
sg28
I4893771
sg20
S'11712.8986684'
p2133
sba(igraph
Edge
p2134
(dp2135
g7
I1
sg8
I00
sg9
I5
sg10
(lp2136
g684
ag810
asg26
I00
sg27
I00
sg28
I4893772
sg20
S'11712.908685'
p2137
sba(igraph
Edge
p2138
(dp2139
g7
I1
sg8
I00
sg9
I5
sg10
(lp2140
g691
ag810
asg26
I00
sg27
I00
sg28
I4893773
sg20
S'11712.9178113'
p2141
sba(igraph
Edge
p2142
(dp2143
g7
I1
sg8
I00
sg9
I5
sg10
(lp2144
g698
ag824
asg26
I00
sg27
I00
sg28
I4893774
sg20
S'11712.9270631'
p2145
sba(igraph
Edge
p2146
(dp2147
g7
I1
sg8
I00
sg9
I5
sg10
(lp2148
g705
ag824
asg26
I00
sg27
I00
sg28
I4893775
sg20
S'11712.9361369'
p2149
sba(igraph
Edge
p2150
(dp2151
g7
I1
sg8
I00
sg9
I5
sg10
(lp2152
g712
ag838
asg26
I00
sg27
I00
sg28
I4893776
sg20
S'11712.9458744'
p2153
sba(igraph
Edge
p2154
(dp2155
g7
I1
sg8
I00
sg9
I5
sg10
(lp2156
g719
ag838
asg26
I00
sg27
I00
sg28
I4893777
sg20
S'11712.9553186'
p2157
sba(igraph
Edge
p2158
(dp2159
g7
I1
sg8
I00
sg9
I5
sg10
(lp2160
g726
ag737
asg26
I00
sg27
I00
sg28
I4893778
sg20
S'11712.9647885'
p2161
sba(igraph
Edge
p2162
(dp2163
g7
I1
sg8
I00
sg9
I5
sg10
(lp2164
g737
ag856
asg26
I00
sg27
I00
sg28
I4893779
sg20
S'11712.9742587'
p2165
sba(igraph
Edge
p2166
(dp2167
g7
I1
sg8
I00
sg9
I5
sg10
(lp2168
g740
ag866
asg26
I00
sg27
I00
sg28
I4893780
sg20
S'11712.9837613'
p2169
sba(igraph
Edge
p2170
(dp2171
g7
I1
sg8
I00
sg9
I5
sg10
(lp2172
g747
ag866
asg26
I00
sg27
I00
sg28
I4893781
sg20
S'11712.9931829'
p2173
sba(igraph
Edge
p2174
(dp2175
g7
I1
sg8
I00
sg9
I5
sg10
(lp2176
g754
ag880
asg26
I00
sg27
I00
sg28
I4893782
sg20
S'11713.0044081'
p2177
sba(igraph
Edge
p2178
(dp2179
g7
I1
sg8
I00
sg9
I5
sg10
(lp2180
g761
ag880
asg26
I00
sg27
I00
sg28
I4893783
sg20
S'11713.0142409'
p2181
sba(igraph
Edge
p2182
(dp2183
g7
I1
sg8
I00
sg9
I5
sg10
(lp2184
g768
ag894
asg26
I00
sg27
I00
sg28
I4893784
sg20
S'11713.0289199'
p2185
sba(igraph
Edge
p2186
(dp2187
g7
I1
sg8
I00
sg9
I5
sg10
(lp2188
g775
ag894
asg26
I00
sg27
I00
sg28
I4893785
sg20
S'11713.038273'
p2189
sba(igraph
Edge
p2190
(dp2191
g7
I1
sg8
I00
sg9
I5
sg10
(lp2192
g782
ag908
asg26
I00
sg27
I00
sg28
I4893786
sg20
S'11713.0477675'
p2193
sba(igraph
Edge
p2194
(dp2195
g7
I1
sg8
I00
sg9
I5
sg10
(lp2196
g789
ag908
asg26
I00
sg27
I00
sg28
I4893787
sg20
S'11713.0571874'
p2197
sba(igraph
Edge
p2198
(dp2199
g7
I1
sg8
I00
sg9
I5
sg10
(lp2200
g796
ag922
asg26
I00
sg27
I00
sg28
I4893788
sg20
S'11713.0665582'
p2201
sba(igraph
Edge
p2202
(dp2203
g7
I1
sg8
I00
sg9
I5
sg10
(lp2204
g803
ag922
asg26
I00
sg27
I00
sg28
I4893789
sg20
S'11713.0758988'
p2205
sba(igraph
Edge
p2206
(dp2207
g7
I1
sg8
I00
sg9
I5
sg10
(lp2208
g810
ag936
asg26
I00
sg27
I00
sg28
I4893790
sg20
S'11713.0857841'
p2209
sba(igraph
Edge
p2210
(dp2211
g7
I1
sg8
I00
sg9
I5
sg10
(lp2212
g817
ag936
asg26
I00
sg27
I00
sg28
I4893791
sg20
S'11713.0957381'
p2213
sba(igraph
Edge
p2214
(dp2215
g7
I1
sg8
I00
sg9
I5
sg10
(lp2216
g824
ag950
asg26
I00
sg27
I00
sg28
I4893792
sg20
S'11713.1058213'
p2217
sba(igraph
Edge
p2218
(dp2219
g7
I1
sg8
I00
sg9
I5
sg10
(lp2220
g831
ag950
asg26
I00
sg27
I00
sg28
I4893793
sg20
S'11713.1159569'
p2221
sba(igraph
Edge
p2222
(dp2223
g7
I1
sg8
I00
sg9
I5
sg10
(lp2224
g838
ag964
asg26
I00
sg27
I00
sg28
I4893794
sg20
S'11713.1258386'
p2225
sba(igraph
Edge
p2226
(dp2227
g7
I1
sg8
I00
sg9
I5
sg10
(lp2228
g845
ag964
asg26
I00
sg27
I00
sg28
I4893795
sg20
S'11713.1352647'
p2229
sba(igraph
Edge
p2230
(dp2231
g7
I1
sg8
I00
sg9
I5
sg10
(lp2232
g737
ag859
asg26
I00
sg27
I00
sg28
I4893796
sg20
S'11713.1447036'
p2233
sba(igraph
Edge
p2234
(dp2235
g7
I1
sg8
I00
sg9
I5
sg10
(lp2236
g740
ag859
asg26
I00
sg27
I00
sg28
I4893797
sg20
S'11713.1540738'
p2237
sba(igraph
Edge
p2238
(dp2239
g7
I1
sg8
I00
sg9
I5
sg10
(lp2240
g747
ag873
asg26
I00
sg27
I00
sg28
I4893798
sg20
S'11713.1635127'
p2241
sba(igraph
Edge
p2242
(dp2243
g7
I1
sg8
I00
sg9
I5
sg10
(lp2244
g754
ag873
asg26
I00
sg27
I00
sg28
I4893799
sg20
S'11713.1729234'
p2245
sba(igraph
Edge
p2246
(dp2247
g7
I1
sg8
I00
sg9
I5
sg10
(lp2248
g761
ag887
asg26
I00
sg27
I00
sg28
I4893800
sg20
S'11713.1823964'
p2249
sba(igraph
Edge
p2250
(dp2251
g7
I1
sg8
I00
sg9
I5
sg10
(lp2252
g768
ag887
asg26
I00
sg27
I00
sg28
I4893801
sg20
S'11713.191742'
p2253
sba(igraph
Edge
p2254
(dp2255
g7
I1
sg8
I00
sg9
I5
sg10
(lp2256
g775
ag901
asg26
I00
sg27
I00
sg28
I4893802
sg20
S'11713.2013099'
p2257
sba(igraph
Edge
p2258
(dp2259
g7
I1
sg8
I00
sg9
I5
sg10
(lp2260
g782
ag901
asg26
I00
sg27
I00
sg28
I4893803
sg20
S'11713.2113364'
p2261
sba(igraph
Edge
p2262
(dp2263
g7
I1
sg8
I00
sg9
I5
sg10
(lp2264
g789
ag915
asg26
I00
sg27
I00
sg28
I4893804
sg20
S'11713.2210334'
p2265
sba(igraph
Edge
p2266
(dp2267
g7
I1
sg8
I00
sg9
I5
sg10
(lp2268
g796
ag915
asg26
I00
sg27
I00
sg28
I4893805
sg20
S'11713.2306592'
p2269
sba(igraph
Edge
p2270
(dp2271
g7
I1
sg8
I00
sg9
I5
sg10
(lp2272
g803
ag929
asg26
I00
sg27
I00
sg28
I4893806
sg20
S'11713.2402613'
p2273
sba(igraph
Edge
p2274
(dp2275
g7
I1
sg8
I00
sg9
I5
sg10
(lp2276
g810
ag929
asg26
I00
sg27
I00
sg28
I4893807
sg20
S'11713.2499966'
p2277
sba(igraph
Edge
p2278
(dp2279
g7
I1
sg8
I00
sg9
I5
sg10
(lp2280
g817
ag943
asg26
I00
sg27
I00
sg28
I4893808
sg20
S'11713.2595584'
p2281
sba(igraph
Edge
p2282
(dp2283
g7
I1
sg8
I00
sg9
I5
sg10
(lp2284
g824
ag943
asg26
I00
sg27
I00
sg28
I4893809
sg20
S'11713.2691406'
p2285
sba(igraph
Edge
p2286
(dp2287
g7
I1
sg8
I00
sg9
I5
sg10
(lp2288
g831
ag957
asg26
I00
sg27
I00
sg28
I4893810
sg20
S'11713.2786888'
p2289
sba(igraph
Edge
p2290
(dp2291
g7
I1
sg8
I00
sg9
I5
sg10
(lp2292
g838
ag957
asg26
I00
sg27
I00
sg28
I4893811
sg20
S'11713.2882062'
p2293
sba(igraph
Edge
p2294
(dp2295
g7
I1
sg8
I00
sg9
I5
sg10
(lp2296
g845
ag856
asg26
I00
sg27
I00
sg28
I4893812
sg20
S'11713.2977728'
p2297
sba(igraph
Edge
p2298
(dp2299
g7
I1
sg8
I00
sg9
I5
sg10
(lp2300
g856
ag975
asg26
I00
sg27
I00
sg28
I4893813
sg20
S'11713.3074056'
p2301
sba(igraph
Edge
p2302
(dp2303
g7
I1
sg8
I00
sg9
I5
sg10
(lp2304
g859
ag985
asg26
I00
sg27
I00
sg28
I4893814
sg20
S'11713.3170207'
p2305
sba(igraph
Edge
p2306
(dp2307
g7
I1
sg8
I00
sg9
I5
sg10
(lp2308
g866
ag985
asg26
I00
sg27
I00
sg28
I4893815
sg20
S'11713.3267256'
p2309
sba(igraph
Edge
p2310
(dp2311
g7
I1
sg8
I00
sg9
I5
sg10
(lp2312
g873
ag999
asg26
I00
sg27
I00
sg28
I4893816
sg20
S'11713.3364872'
p2313
sba(igraph
Edge
p2314
(dp2315
g7
I1
sg8
I00
sg9
I5
sg10
(lp2316
g880
ag999
asg26
I00
sg27
I00
sg28
I4893817
sg20
S'11713.3462351'
p2317
sba(igraph
Edge
p2318
(dp2319
g7
I1
sg8
I00
sg9
I5
sg10
(lp2320
g887
ag1013
asg26
I00
sg27
I00
sg28
I4893818
sg20
S'11713.3560235'
p2321
sba(igraph
Edge
p2322
(dp2323
g7
I1
sg8
I00
sg9
I5
sg10
(lp2324
g894
ag1013
asg26
I00
sg27
I00
sg28
I4893819
sg20
S'11713.3657761'
p2325
sba(igraph
Edge
p2326
(dp2327
g7
I1
sg8
I00
sg9
I5
sg10
(lp2328
g901
ag1027
asg26
I00
sg27
I00
sg28
I4893820
sg20
S'11713.3755067'
p2329
sba(igraph
Edge
p2330
(dp2331
g7
I1
sg8
I00
sg9
I5
sg10
(lp2332
g908
ag1027
asg26
I00
sg27
I00
sg28
I4893821
sg20
S'11713.3853101'
p2333
sba(igraph
Edge
p2334
(dp2335
g7
I1
sg8
I00
sg9
I5
sg10
(lp2336
g915
ag1041
asg26
I00
sg27
I00
sg28
I4893822
sg20
S'11713.3955939'
p2337
sba(igraph
Edge
p2338
(dp2339
g7
I1
sg8
I00
sg9
I5
sg10
(lp2340
g922
ag1041
asg26
I00
sg27
I00
sg28
I4893823
sg20
S'11713.4054124'
p2341
sba(igraph
Edge
p2342
(dp2343
g7
I1
sg8
I00
sg9
I5
sg10
(lp2344
g929
ag1055
asg26
I00
sg27
I00
sg28
I4893824
sg20
S'11713.4153123'
p2345
sba(igraph
Edge
p2346
(dp2347
g7
I1
sg8
I00
sg9
I5
sg10
(lp2348
g936
ag1055
asg26
I00
sg27
I00
sg28
I4893825
sg20
S'11713.42527'
p2349
sba(igraph
Edge
p2350
(dp2351
g7
I1
sg8
I00
sg9
I5
sg10
(lp2352
g943
ag1069
asg26
I00
sg27
I00
sg28
I4893826
sg20
S'11713.4352967'
p2353
sba(igraph
Edge
p2354
(dp2355
g7
I1
sg8
I00
sg9
I5
sg10
(lp2356
g950
ag1069
asg26
I00
sg27
I00
sg28
I4893827
sg20
S'11713.4454678'
p2357
sba(igraph
Edge
p2358
(dp2359
g7
I1
sg8
I00
sg9
I5
sg10
(lp2360
g957
ag1083
asg26
I00
sg27
I00
sg28
I4893828
sg20
S'11713.4553556'
p2361
sba(igraph
Edge
p2362
(dp2363
g7
I1
sg8
I00
sg9
I5
sg10
(lp2364
g964
ag1083
asg26
I00
sg27
I00
sg28
I4893829
sg20
S'11713.4651823'
p2365
sba(igraph
Edge
p2366
(dp2367
g7
I1
sg8
I00
sg9
I5
sg10
(lp2368
g856
ag978
asg26
I00
sg27
I00
sg28
I4893830
sg20
S'11713.4750998'
p2369
sba(igraph
Edge
p2370
(dp2371
g7
I1
sg8
I00
sg9
I5
sg10
(lp2372
g859
ag978
asg26
I00
sg27
I00
sg28
I4893831
sg20
S'11713.4851351'
p2373
sba(igraph
Edge
p2374
(dp2375
g7
I1
sg8
I00
sg9
I5
sg10
(lp2376
g866
ag992
asg26
I00
sg27
I00
sg28
I4893832
sg20
S'11713.4953261'
p2377
sba(igraph
Edge
p2378
(dp2379
g7
I1
sg8
I00
sg9
I5
sg10
(lp2380
g873
ag992
asg26
I00
sg27
I00
sg28
I4893833
sg20
S'11713.5053399'
p2381
sba(igraph
Edge
p2382
(dp2383
g7
I1
sg8
I00
sg9
I5
sg10
(lp2384
g880
ag1006
asg26
I00
sg27
I00
sg28
I4893834
sg20
S'11713.5153211'
p2385
sba(igraph
Edge
p2386
(dp2387
g7
I1
sg8
I00
sg9
I5
sg10
(lp2388
g887
ag1006
asg26
I00
sg27
I00
sg28
I4893835
sg20
S'11713.5254215'
p2389
sba(igraph
Edge
p2390
(dp2391
g7
I1
sg8
I00
sg9
I5
sg10
(lp2392
g894
ag1020
asg26
I00
sg27
I00
sg28
I4893836
sg20
S'11713.5355019'
p2393
sba(igraph
Edge
p2394
(dp2395
g7
I1
sg8
I00
sg9
I5
sg10
(lp2396
g901
ag1020
asg26
I00
sg27
I00
sg28
I4893837
sg20
S'11713.5462024'
p2397
sba(igraph
Edge
p2398
(dp2399
g7
I1
sg8
I00
sg9
I5
sg10
(lp2400
g908
ag1034
asg26
I00
sg27
I00
sg28
I4893838
sg20
S'11713.5565369'
p2401
sba(igraph
Edge
p2402
(dp2403
g7
I1
sg8
I00
sg9
I5
sg10
(lp2404
g915
ag1034
asg26
I00
sg27
I00
sg28
I4893839
sg20
S'11713.5668416'
p2405
sba(igraph
Edge
p2406
(dp2407
g7
I1
sg8
I00
sg9
I5
sg10
(lp2408
g922
ag1048
asg26
I00
sg27
I00
sg28
I4893840
sg20
S'11713.577194'
p2409
sba(igraph
Edge
p2410
(dp2411
g7
I1
sg8
I00
sg9
I5
sg10
(lp2412
g929
ag1048
asg26
I00
sg27
I00
sg28
I4893841
sg20
S'11713.5875523'
p2413
sba(igraph
Edge
p2414
(dp2415
g7
I1
sg8
I00
sg9
I5
sg10
(lp2416
g936
ag1062
asg26
I00
sg27
I00
sg28
I4893842
sg20
S'11713.5977173'
p2417
sba(igraph
Edge
p2418
(dp2419
g7
I1
sg8
I00
sg9
I5
sg10
(lp2420
g943
ag1062
asg26
I00
sg27
I00
sg28
I4893843
sg20
S'11713.6079708'
p2421
sba(igraph
Edge
p2422
(dp2423
g7
I1
sg8
I00
sg9
I5
sg10
(lp2424
g950
ag1076
asg26
I00
sg27
I00
sg28
I4893844
sg20
S'11713.6182484'
p2425
sba(igraph
Edge
p2426
(dp2427
g7
I1
sg8
I00
sg9
I5
sg10
(lp2428
g957
ag1076
asg26
I00
sg27
I00
sg28
I4893845
sg20
S'11713.6285045'
p2429
sba(igraph
Edge
p2430
(dp2431
g7
I1
sg8
I00
sg9
I5
sg10
(lp2432
g964
ag975
asg26
I00
sg27
I00
sg28
I4893846
sg20
S'11713.6388991'
p2433
sba(igraph
Edge
p2434
(dp2435
g7
I1
sg8
I00
sg9
I5
sg10
(lp2436
g975
ag1094
asg26
I00
sg27
I00
sg28
I4893847
sg20
S'11713.6493959'
p2437
sba(igraph
Edge
p2438
(dp2439
g7
I1
sg8
I00
sg9
I5
sg10
(lp2440
g978
ag1104
asg26
I00
sg27
I00
sg28
I4893848
sg20
S'11713.6597813'
p2441
sba(igraph
Edge
p2442
(dp2443
g7
I1
sg8
I00
sg9
I5
sg10
(lp2444
g985
ag1104
asg26
I00
sg27
I00
sg28
I4893849
sg20
S'11713.670255'
p2445
sba(igraph
Edge
p2446
(dp2447
g7
I1
sg8
I00
sg9
I5
sg10
(lp2448
g992
ag1118
asg26
I00
sg27
I00
sg28
I4893850
sg20
S'11713.6808589'
p2449
sba(igraph
Edge
p2450
(dp2451
g7
I1
sg8
I00
sg9
I5
sg10
(lp2452
g999
ag1118
asg26
I00
sg27
I00
sg28
I4893851
sg20
S'11713.691211'
p2453
sba(igraph
Edge
p2454
(dp2455
g7
I1
sg8
I00
sg9
I5
sg10
(lp2456
g1006
ag1132
asg26
I00
sg27
I00
sg28
I4893852
sg20
S'11713.7017652'
p2457
sba(igraph
Edge
p2458
(dp2459
g7
I1
sg8
I00
sg9
I5
sg10
(lp2460
g1013
ag1132
asg26
I00
sg27
I00
sg28
I4893853
sg20
S'11713.7124319'
p2461
sba(igraph
Edge
p2462
(dp2463
g7
I1
sg8
I00
sg9
I5
sg10
(lp2464
g1020
ag1146
asg26
I00
sg27
I00
sg28
I4893854
sg20
S'11713.7230908'
p2465
sba(igraph
Edge
p2466
(dp2467
g7
I1
sg8
I00
sg9
I5
sg10
(lp2468
g1027
ag1146
asg26
I00
sg27
I00
sg28
I4893855
sg20
S'11713.7337734'
p2469
sba(igraph
Edge
p2470
(dp2471
g7
I1
sg8
I00
sg9
I5
sg10
(lp2472
g1034
ag1160
asg26
I00
sg27
I00
sg28
I4893856
sg20
S'11713.7444672'
p2473
sba(igraph
Edge
p2474
(dp2475
g7
I1
sg8
I00
sg9
I5
sg10
(lp2476
g1041
ag1160
asg26
I00
sg27
I00
sg28
I4893857
sg20
S'11713.7551848'
p2477
sba(igraph
Edge
p2478
(dp2479
g7
I1
sg8
I00
sg9
I5
sg10
(lp2480
g1048
ag1174
asg26
I00
sg27
I00
sg28
I4893858
sg20
S'11713.765816'
p2481
sba(igraph
Edge
p2482
(dp2483
g7
I1
sg8
I00
sg9
I5
sg10
(lp2484
g1055
ag1174
asg26
I00
sg27
I00
sg28
I4893859
sg20
S'11713.7767387'
p2485
sba(igraph
Edge
p2486
(dp2487
g7
I1
sg8
I00
sg9
I5
sg10
(lp2488
g1062
ag1188
asg26
I00
sg27
I00
sg28
I4893860
sg20
S'11713.7874149'
p2489
sba(igraph
Edge
p2490
(dp2491
g7
I1
sg8
I00
sg9
I5
sg10
(lp2492
g1069
ag1188
asg26
I00
sg27
I00
sg28
I4893861
sg20
S'11713.7981394'
p2493
sba(igraph
Edge
p2494
(dp2495
g7
I1
sg8
I00
sg9
I5
sg10
(lp2496
g1076
ag1202
asg26
I00
sg27
I00
sg28
I4893862
sg20
S'11713.8089439'
p2497
sba(igraph
Edge
p2498
(dp2499
g7
I1
sg8
I00
sg9
I5
sg10
(lp2500
g1083
ag1202
asg26
I00
sg27
I00
sg28
I4893863
sg20
S'11713.8197346'
p2501
sba(igraph
Edge
p2502
(dp2503
g7
I1
sg8
I00
sg9
I5
sg10
(lp2504
g975
ag1097
asg26
I00
sg27
I00
sg28
I4893864
sg20
S'11713.830622'
p2505
sba(igraph
Edge
p2506
(dp2507
g7
I1
sg8
I00
sg9
I5
sg10
(lp2508
g978
ag1097
asg26
I00
sg27
I00
sg28
I4893865
sg20
S'11713.8417673'
p2509
sba(igraph
Edge
p2510
(dp2511
g7
I1
sg8
I00
sg9
I5
sg10
(lp2512
g985
ag1111
asg26
I00
sg27
I00
sg28
I4893866
sg20
S'11713.8526338'
p2513
sba(igraph
Edge
p2514
(dp2515
g7
I1
sg8
I00
sg9
I5
sg10
(lp2516
g992
ag1111
asg26
I00
sg27
I00
sg28
I4893867
sg20
S'11713.8635508'
p2517
sba(igraph
Edge
p2518
(dp2519
g7
I1
sg8
I00
sg9
I5
sg10
(lp2520
g999
ag1125
asg26
I00
sg27
I00
sg28
I4893868
sg20
S'11713.8744276'
p2521
sba(igraph
Edge
p2522
(dp2523
g7
I1
sg8
I00
sg9
I5
sg10
(lp2524
g1006
ag1125
asg26
I00
sg27
I00
sg28
I4893869
sg20
S'11713.8853382'
p2525
sba(igraph
Edge
p2526
(dp2527
g7
I1
sg8
I00
sg9
I5
sg10
(lp2528
g1013
ag1139
asg26
I00
sg27
I00
sg28
I4893870
sg20
S'11713.8963008'
p2529
sba(igraph
Edge
p2530
(dp2531
g7
I1
sg8
I00
sg9
I5
sg10
(lp2532
g1020
ag1139
asg26
I00
sg27
I00
sg28
I4893871
sg20
S'11713.9070801'
p2533
sba(igraph
Edge
p2534
(dp2535
g7
I1
sg8
I00
sg9
I5
sg10
(lp2536
g1027
ag1153
asg26
I00
sg27
I00
sg28
I4893872
sg20
S'11713.9181597'
p2537
sba(igraph
Edge
p2538
(dp2539
g7
I1
sg8
I00
sg9
I5
sg10
(lp2540
g1034
ag1153
asg26
I00
sg27
I00
sg28
I4893873
sg20
S'11713.929065'
p2541
sba(igraph
Edge
p2542
(dp2543
g7
I1
sg8
I00
sg9
I5
sg10
(lp2544
g1041
ag1167
asg26
I00
sg27
I00
sg28
I4893874
sg20
S'11713.9400837'
p2545
sba(igraph
Edge
p2546
(dp2547
g7
I1
sg8
I00
sg9
I5
sg10
(lp2548
g1048
ag1167
asg26
I00
sg27
I00
sg28
I4893875
sg20
S'11713.951122'
p2549
sba(igraph
Edge
p2550
(dp2551
g7
I1
sg8
I00
sg9
I5
sg10
(lp2552
g1055
ag1181
asg26
I00
sg27
I00
sg28
I4893876
sg20
S'11713.9624296'
p2553
sba(igraph
Edge
p2554
(dp2555
g7
I1
sg8
I00
sg9
I5
sg10
(lp2556
g1062
ag1181
asg26
I00
sg27
I00
sg28
I4893877
sg20
S'11713.9735427'
p2557
sba(igraph
Edge
p2558
(dp2559
g7
I1
sg8
I00
sg9
I5
sg10
(lp2560
g1069
ag1195
asg26
I00
sg27
I00
sg28
I4893878
sg20
S'11713.9844964'
p2561
sba(igraph
Edge
p2562
(dp2563
g7
I1
sg8
I00
sg9
I5
sg10
(lp2564
g1076
ag1195
asg26
I00
sg27
I00
sg28
I4893879
sg20
S'11713.9955575'
p2565
sba(igraph
Edge
p2566
(dp2567
g7
I1
sg8
I00
sg9
I5
sg10
(lp2568
g1083
ag1094
asg26
I00
sg27
I00
sg28
I4893880
sg20
S'11714.0065961'
p2569
sbasS'vertices'
p2570
(lp2571
g12
ag23
ag33
ag40
ag47
ag54
ag61
ag68
ag75
ag82
ag89
ag96
ag103
ag110
ag117
ag124
ag131
ag142
ag145
ag152
ag159
ag166
ag173
ag180
ag187
ag194
ag201
ag208
ag215
ag222
ag229
ag236
ag243
ag250
ag261
ag264
ag271
ag278
ag285
ag292
ag299
ag306
ag313
ag320
ag327
ag334
ag341
ag348
ag355
ag362
ag369
ag380
ag383
ag390
ag397
ag404
ag411
ag418
ag425
ag432
ag439
ag446
ag453
ag460
ag467
ag474
ag481
ag488
ag499
ag502
ag509
ag516
ag523
ag530
ag537
ag544
ag551
ag558
ag565
ag572
ag579
ag586
ag593
ag600
ag607
ag618
ag621
ag628
ag635
ag642
ag649
ag656
ag663
ag670
ag677
ag684
ag691
ag698
ag705
ag712
ag719
ag726
ag737
ag740
ag747
ag754
ag761
ag768
ag775
ag782
ag789
ag796
ag803
ag810
ag817
ag824
ag831
ag838
ag845
ag856
ag859
ag866
ag873
ag880
ag887
ag894
ag901
ag908
ag915
ag922
ag929
ag936
ag943
ag950
ag957
ag964
ag975
ag978
ag985
ag992
ag999
ag1006
ag1013
ag1020
ag1027
ag1034
ag1041
ag1048
ag1055
ag1062
ag1069
ag1076
ag1083
ag1094
ag1097
ag1104
ag1111
ag1118
ag1125
ag1132
ag1139
ag1146
ag1153
ag1160
ag1167
ag1174
ag1181
ag1188
ag1195
ag1202
asS'tags'
p2572
(lp2573
sb.