(igraph
Graph
p0
(dp1
S'labelingConstraints'
p2
I-1
sS'edges'
p3
(lp4
(igraph
Edge
p5
(dp6
S'direction'
p7
I1
sS'selected'
p8
I00
sS'height'
p9
I5
sS'vs'
p10
(lp11
(igraph
Vertex
p12
(dp13
S'xnorm'
p14
F0.0
sg8
I00
sS'label'
p15
S'NULL'
p16
sS'y'
p17
F-231.0
sS'x'
p18
F359.0
sS'circle'
p19
I5489398
sS'id'
p20
S'13535.8610022'
p21
sS'ynorm'
p22
F0.0
sba(igraph
Vertex
p23
(dp24
g14
F0.0625
sg8
I00
sg15
g16
sg17
F-231.0
sg18
F308.1875
sg19
I5489399
sg20
S'13535.8610245'
p25
sg22
F0.0
sbasS'wrap'
p26
I00
sS'curved'
p27
I00
sS'line'
p28
I5489143
sg20
S'13535.8902299'
p29
sba(igraph
Edge
p30
(dp31
g7
I1
sg8
I00
sg9
I5
sg10
(lp32
g23
a(igraph
Vertex
p33
(dp34
g14
F0.125
sg8
I00
sg15
g16
sg17
F-231.0
sg18
F257.375
sg19
I5489400
sg20
S'13535.8610466'
p35
sg22
F0.0
sbasg26
I00
sg27
I00
sg28
I5489144
sg20
S'13535.8902894'
p36
sba(igraph
Edge
p37
(dp38
g7
I1
sg8
I00
sg9
I5
sg10
(lp39
g33
a(igraph
Vertex
p40
(dp41
g14
F0.1875
sg8
I00
sg15
g16
sg17
F-231.0
sg18
F206.5625
sg19
I5489401
sg20
S'13535.8610723'
p42
sg22
F0.0
sbasg26
I00
sg27
I00
sg28
I5489145
sg20
S'13535.8903671'
p43
sba(igraph
Edge
p44
(dp45
g7
I1
sg8
I00
sg9
I5
sg10
(lp46
g40
a(igraph
Vertex
p47
(dp48
g14
F0.25
sg8
I00
sg15
g16
sg17
F-231.0
sg18
F155.75
sg19
I5489402
sg20
S'13535.8611055'
p49
sg22
F0.0
sbasg26
I00
sg27
I00
sg28
I5489146
sg20
S'13535.8904665'
p50
sba(igraph
Edge
p51
(dp52
g7
I1
sg8
I00
sg9
I5
sg10
(lp53
g47
a(igraph
Vertex
p54
(dp55
g14
F0.3125
sg8
I00
sg15
g16
sg17
F-231.0
sg18
F104.9375
sg19
I5489403
sg20
S'13535.8611449'
p56
sg22
F0.0
sbasg26
I00
sg27
I00
sg28
I5489147
sg20
S'13535.8905867'
p57
sba(igraph
Edge
p58
(dp59
g7
I1
sg8
I00
sg9
I5
sg10
(lp60
g54
a(igraph
Vertex
p61
(dp62
g14
F0.375
sg8
I00
sg15
g16
sg17
F-231.0
sg18
F54.125
sg19
I5489404
sg20
S'13535.8611933'
p63
sg22
F0.0
sbasg26
I00
sg27
I00
sg28
I5489148
sg20
S'13535.89073'
p64
sba(igraph
Edge
p65
(dp66
g7
I1
sg8
I00
sg9
I5
sg10
(lp67
g61
a(igraph
Vertex
p68
(dp69
g14
F0.4375
sg8
I00
sg15
g16
sg17
F-231.0
sg18
F3.3125
sg19
I5489405
sg20
S'13535.8612491'
p70
sg22
F0.0
sbasg26
I00
sg27
I00
sg28
I5489149
sg20
S'13535.8908956'
p71
sba(igraph
Edge
p72
(dp73
g7
I1
sg8
I00
sg9
I5
sg10
(lp74
g68
a(igraph
Vertex
p75
(dp76
g14
F0.5
sg8
I01
sg15
I0
sg17
F-231.0
sg18
F-47.5
sg19
I5489407
sg20
S'13535.8613128'
p77
sg22
F0.0
sbasg26
I00
sg27
I00
sg28
I5489150
sg20
S'13535.8910825'
p78
sba(igraph
Edge
p79
(dp80
g7
I1
sg8
I00
sg9
I5
sg10
(lp81
g75
a(igraph
Vertex
p82
(dp83
g14
F0.5625
sg8
I00
sg15
g16
sg17
F-231.0
sg18
F-98.3125
sg19
I5489409
sg20
S'13535.8613838'
p84
sg22
F0.0
sbasg26
I00
sg27
I00
sg28
I5489151
sg20
S'13535.8912904'
p85
sba(igraph
Edge
p86
(dp87
g7
I1
sg8
I00
sg9
I5
sg10
(lp88
g82
a(igraph
Vertex
p89
(dp90
g14
F0.625
sg8
I00
sg15
g16
sg17
F-231.0
sg18
F-149.125
sg19
I5489410
sg20
S'13535.8614648'
p91
sg22
F0.0
sbasg26
I00
sg27
I00
sg28
I5489152
sg20
S'13535.891522'
p92
sba(igraph
Edge
p93
(dp94
g7
I1
sg8
I00
sg9
I5
sg10
(lp95
g89
a(igraph
Vertex
p96
(dp97
g14
F0.6875
sg8
I00
sg15
g16
sg17
F-231.0
sg18
F-199.9375
sg19
I5489411
sg20
S'13535.8615534'
p98
sg22
F0.0
sbasg26
I00
sg27
I00
sg28
I5489153
sg20
S'13535.8917742'
p99
sba(igraph
Edge
p100
(dp101
g7
I1
sg8
I00
sg9
I5
sg10
(lp102
g96
a(igraph
Vertex
p103
(dp104
g14
F0.75
sg8
I00
sg15
g16
sg17
F-231.0
sg18
F-250.75
sg19
I5489412
sg20
S'13535.8616469'
p105
sg22
F0.0
sbasg26
I00
sg27
I00
sg28
I5489154
sg20
S'13535.8920491'
p106
sba(igraph
Edge
p107
(dp108
g7
I1
sg8
I00
sg9
I5
sg10
(lp109
g103
a(igraph
Vertex
p110
(dp111
g14
F0.8125
sg8
I00
sg15
g16
sg17
F-231.0
sg18
F-301.5625
sg19
I5489413
sg20
S'13535.8617478'
p112
sg22
F0.0
sbasg26
I00
sg27
I00
sg28
I5489155
sg20
S'13535.8923455'
p113
sba(igraph
Edge
p114
(dp115
g7
I1
sg8
I00
sg9
I5
sg10
(lp116
g110
a(igraph
Vertex
p117
(dp118
g14
F0.875
sg8
I00
sg15
g16
sg17
F-231.0
sg18
F-352.375
sg19
I5489414
sg20
S'13535.8618576'
p119
sg22
F0.0
sbasg26
I00
sg27
I00
sg28
I5489156
sg20
S'13535.8926665'
p120
sba(igraph
Edge
p121
(dp122
g7
I1
sg8
I00
sg9
I5
sg10
(lp123
g117
a(igraph
Vertex
p124
(dp125
g14
F0.9375
sg8
I00
sg15
g16
sg17
F-231.0
sg18
F-403.1875
sg19
I5489415
sg20
S'13535.8619746'
p126
sg22
F0.0
sbasg26
I00
sg27
I00
sg28
I5489157
sg20
S'13535.8930068'
p127
sba(igraph
Edge
p128
(dp129
g7
I1
sg8
I00
sg9
I5
sg10
(lp130
g124
a(igraph
Vertex
p131
(dp132
g14
F1.0
sg8
I00
sg15
g16
sg17
F-231.0
sg18
F-454.0
sg19
I5489416
sg20
S'13535.8620987'
p133
sg22
F0.0
sbasg26
I00
sg27
I00
sg28
I5489158
sg20
S'13535.893368'
p134
sba(igraph
Edge
p135
(dp136
g7
I1
sg8
I00
sg9
I5
sg10
(lp137
g131
ag12
asg26
I00
sg27
I00
sg28
I5489159
sg20
S'13535.8937516'
p138
sba(igraph
Edge
p139
(dp140
g7
I1
sg8
I00
sg9
I5
sg10
(lp141
(igraph
Vertex
p142
(dp143
g14
F0.0
sg8
I01
sg15
I0
sg17
F-121.5
sg18
F359.0
sg19
I5489418
sg20
S'13535.8622305'
p144
sg22
F0.25
sba(igraph
Vertex
p145
(dp146
g14
F0.0625
sg8
I00
sg15
g16
sg17
F-121.5
sg18
F308.1875
sg19
I5489420
sg20
S'13535.8623708'
p147
sg22
F0.25
sbasg26
I00
sg27
I00
sg28
I5489160
sg20
S'13535.8941586'
p148
sba(igraph
Edge
p149
(dp150
g7
I1
sg8
I00
sg9
I5
sg10
(lp151
g145
a(igraph
Vertex
p152
(dp153
g14
F0.125
sg8
I00
sg15
g16
sg17
F-121.5
sg18
F257.375
sg19
I5489421
sg20
S'13535.8625197'
p154
sg22
F0.25
sbasg26
I00
sg27
I00
sg28
I5489161
sg20
S'13535.8945866'
p155
sba(igraph
Edge
p156
(dp157
g7
I1
sg8
I00
sg9
I5
sg10
(lp158
g152
a(igraph
Vertex
p159
(dp160
g14
F0.1875
sg8
I00
sg15
g16
sg17
F-121.5
sg18
F206.5625
sg19
I5489422
sg20
S'13535.8626758'
p161
sg22
F0.25
sbasg26
I00
sg27
I00
sg28
I5489162
sg20
S'13535.8951012'
p162
sba(igraph
Edge
p163
(dp164
g7
I1
sg8
I00
sg9
I5
sg10
(lp165
g159
a(igraph
Vertex
p166
(dp167
g14
F0.25
sg8
I00
sg15
g16
sg17
F-121.5
sg18
F155.75
sg19
I5489423
sg20
S'13535.8628407'
p168
sg22
F0.25
sbasg26
I00
sg27
I00
sg28
I5489163
sg20
S'13535.8955747'
p169
sba(igraph
Edge
p170
(dp171
g7
I1
sg8
I00
sg9
I5
sg10
(lp172
g166
a(igraph
Vertex
p173
(dp174
g14
F0.3125
sg8
I00
sg15
g16
sg17
F-121.5
sg18
F104.9375
sg19
I5489424
sg20
S'13535.8630147'
p175
sg22
F0.25
sbasg26
I00
sg27
I00
sg28
I5489164
sg20
S'13535.8960678'
p176
sba(igraph
Edge
p177
(dp178
g7
I1
sg8
I00
sg9
I5
sg10
(lp179
g173
a(igraph
Vertex
p180
(dp181
g14
F0.375
sg8
I00
sg15
g16
sg17
F-121.5
sg18
F54.125
sg19
I5489425
sg20
S'13535.8631952'
p182
sg22
F0.25
sbasg26
I00
sg27
I00
sg28
I5489165
sg20
S'13535.8965832'
p183
sba(igraph
Edge
p184
(dp185
g7
I1
sg8
I00
sg9
I5
sg10
(lp186
g180
a(igraph
Vertex
p187
(dp188
g14
F0.4375
sg8
I00
sg15
g16
sg17
F-121.5
sg18
F3.3125
sg19
I5489426
sg20
S'13535.8634681'
p189
sg22
F0.25
sbasg26
I00
sg27
I00
sg28
I5489166
sg20
S'13535.8971196'
p190
sba(igraph
Edge
p191
(dp192
g7
I1
sg8
I00
sg9
I5
sg10
(lp193
g187
a(igraph
Vertex
p194
(dp195
g14
F0.5
sg8
I00
sg15
g16
sg17
F-121.5
sg18
F-47.5
sg19
I5489427
sg20
S'13535.8636712'
p196
sg22
F0.25
sbasg26
I00
sg27
I00
sg28
I5489167
sg20
S'13535.8976769'
p197
sba(igraph
Edge
p198
(dp199
g7
I1
sg8
I00
sg9
I5
sg10
(lp200
g194
a(igraph
Vertex
p201
(dp202
g14
F0.5625
sg8
I00
sg15
g16
sg17
F-121.5
sg18
F-98.3125
sg19
I5489428
sg20
S'13535.863878'
p203
sg22
F0.25
sbasg26
I00
sg27
I00
sg28
I5489168
sg20
S'13535.8982558'
p204
sba(igraph
Edge
p205
(dp206
g7
I1
sg8
I00
sg9
I5
sg10
(lp207
g201
a(igraph
Vertex
p208
(dp209
g14
F0.625
sg8
I01
sg15
I0
sg17
F-121.5
sg18
F-149.125
sg19
I5489430
sg20
S'13535.86409'
p210
sg22
F0.25
sbasg26
I00
sg27
I00
sg28
I5489169
sg20
S'13535.8988567'
p211
sba(igraph
Edge
p212
(dp213
g7
I1
sg8
I00
sg9
I5
sg10
(lp214
g208
a(igraph
Vertex
p215
(dp216
g14
F0.6875
sg8
I00
sg15
g16
sg17
F-121.5
sg18
F-199.9375
sg19
I5489432
sg20
S'13535.8643085'
p217
sg22
F0.25
sbasg26
I00
sg27
I00
sg28
I5489170
sg20
S'13535.8994774'
p218
sba(igraph
Edge
p219
(dp220
g7
I1
sg8
I00
sg9
I5
sg10
(lp221
g215
a(igraph
Vertex
p222
(dp223
g14
F0.75
sg8
I00
sg15
g16
sg17
F-121.5
sg18
F-250.75
sg19
I5489433
sg20
S'13535.8645364'
p224
sg22
F0.25
sbasg26
I00
sg27
I00
sg28
I5489171
sg20
S'13535.9001395'
p225
sba(igraph
Edge
p226
(dp227
g7
I1
sg8
I00
sg9
I5
sg10
(lp228
g222
a(igraph
Vertex
p229
(dp230
g14
F0.8125
sg8
I00
sg15
g16
sg17
F-121.5
sg18
F-301.5625
sg19
I5489434
sg20
S'13535.86477'
p231
sg22
F0.25
sbasg26
I00
sg27
I00
sg28
I5489172
sg20
S'13535.900815'
p232
sba(igraph
Edge
p233
(dp234
g7
I1
sg8
I00
sg9
I5
sg10
(lp235
g229
a(igraph
Vertex
p236
(dp237
g14
F0.875
sg8
I00
sg15
g16
sg17
F-121.5
sg18
F-352.375
sg19
I5489435
sg20
S'13535.8650116'
p238
sg22
F0.25
sbasg26
I00
sg27
I00
sg28
I5489173
sg20
S'13535.901502'
p239
sba(igraph
Edge
p240
(dp241
g7
I1
sg8
I00
sg9
I5
sg10
(lp242
g236
a(igraph
Vertex
p243
(dp244
g14
F0.9375
sg8
I00
sg15
g16
sg17
F-121.5
sg18
F-403.1875
sg19
I5489436
sg20
S'13535.86526'
p245
sg22
F0.25
sbasg26
I00
sg27
I00
sg28
I5489174
sg20
S'13535.9022099'
p246
sba(igraph
Edge
p247
(dp248
g7
I1
sg8
I00
sg9
I5
sg10
(lp249
g243
a(igraph
Vertex
p250
(dp251
g14
F1.0
sg8
I00
sg15
g16
sg17
F-121.5
sg18
F-454.0
sg19
I5489437
sg20
S'13535.8655226'
p252
sg22
F0.25
sbasg26
I00
sg27
I00
sg28
I5489175
sg20
S'13535.9029385'
p253
sba(igraph
Edge
p254
(dp255
g7
I1
sg8
I00
sg9
I5
sg10
(lp256
g250
ag142
asg26
I00
sg27
I00
sg28
I5489176
sg20
S'13535.9036878'
p257
sba(igraph
Edge
p258
(dp259
g7
I1
sg8
I00
sg9
I5
sg10
(lp260
(igraph
Vertex
p261
(dp262
g14
F0.0
sg8
I00
sg15
g16
sg17
F-12.0
sg18
F359.0
sg19
I5489438
sg20
S'13535.8657902'
p263
sg22
F0.5
sba(igraph
Vertex
p264
(dp265
g14
F0.0625
sg8
I00
sg15
g16
sg17
F-12.0
sg18
F308.1875
sg19
I5489439
sg20
S'13535.8660623'
p266
sg22
F0.5
sbasg26
I00
sg27
I00
sg28
I5489177
sg20
S'13535.9044999'
p267
sba(igraph
Edge
p268
(dp269
g7
I1
sg8
I00
sg9
I5
sg10
(lp270
g264
a(igraph
Vertex
p271
(dp272
g14
F0.125
sg8
I01
sg15
I0
sg17
F-12.0
sg18
F257.375
sg19
I5489441
sg20
S'13535.866345'
p273
sg22
F0.5
sbasg26
I00
sg27
I00
sg28
I5489178
sg20
S'13535.9053176'
p274
sba(igraph
Edge
p275
(dp276
g7
I1
sg8
I00
sg9
I5
sg10
(lp277
g271
a(igraph
Vertex
p278
(dp279
g14
F0.1875
sg8
I00
sg15
g16
sg17
F-12.0
sg18
F206.5625
sg19
I5489443
sg20
S'13535.866635'
p280
sg22
F0.5
sbasg26
I00
sg27
I00
sg28
I5489179
sg20
S'13535.9061518'
p281
sba(igraph
Edge
p282
(dp283
g7
I1
sg8
I00
sg9
I5
sg10
(lp284
g278
a(igraph
Vertex
p285
(dp286
g14
F0.25
sg8
I00
sg15
g16
sg17
F-12.0
sg18
F155.75
sg19
I5489444
sg20
S'13535.8669348'
p287
sg22
F0.5
sbasg26
I00
sg27
I00
sg28
I5489180
sg20
S'13535.9069952'
p288
sba(igraph
Edge
p289
(dp290
g7
I1
sg8
I00
sg9
I5
sg10
(lp291
g285
a(igraph
Vertex
p292
(dp293
g14
F0.3125
sg8
I00
sg15
g16
sg17
F-12.0
sg18
F104.9375
sg19
I5489445
sg20
S'13535.8672418'
p294
sg22
F0.5
sbasg26
I00
sg27
I00
sg28
I5489181
sg20
S'13535.9078609'
p295
sba(igraph
Edge
p296
(dp297
g7
I1
sg8
I00
sg9
I5
sg10
(lp298
g292
a(igraph
Vertex
p299
(dp300
g14
F0.375
sg8
I00
sg15
g16
sg17
F-12.0
sg18
F54.125
sg19
I5489446
sg20
S'13535.8675544'
p301
sg22
F0.5
sbasg26
I00
sg27
I00
sg28
I5489182
sg20
S'13535.9087493'
p302
sba(igraph
Edge
p303
(dp304
g7
I1
sg8
I00
sg9
I5
sg10
(lp305
g299
a(igraph
Vertex
p306
(dp307
g14
F0.4375
sg8
I00
sg15
g16
sg17
F-12.0
sg18
F3.3125
sg19
I5489447
sg20
S'13535.8678765'
p308
sg22
F0.5
sbasg26
I00
sg27
I00
sg28
I5489183
sg20
S'13535.9096575'
p309
sba(igraph
Edge
p310
(dp311
g7
I1
sg8
I00
sg9
I5
sg10
(lp312
g306
a(igraph
Vertex
p313
(dp314
g14
F0.5
sg8
I00
sg15
g16
sg17
F-12.0
sg18
F-47.5
sg19
I5489448
sg20
S'13535.8682098'
p315
sg22
F0.5
sbasg26
I00
sg27
I00
sg28
I5489184
sg20
S'13535.9105886'
p316
sba(igraph
Edge
p317
(dp318
g7
I1
sg8
I00
sg9
I5
sg10
(lp319
g313
a(igraph
Vertex
p320
(dp321
g14
F0.5625
sg8
I00
sg15
g16
sg17
F-12.0
sg18
F-98.3125
sg19
I5489449
sg20
S'13535.8685464'
p322
sg22
F0.5
sbasg26
I00
sg27
I00
sg28
I5489185
sg20
S'13535.9115404'
p323
sba(igraph
Edge
p324
(dp325
g7
I1
sg8
I00
sg9
I5
sg10
(lp326
g320
a(igraph
Vertex
p327
(dp328
g14
F0.625
sg8
I00
sg15
g16
sg17
F-12.0
sg18
F-149.125
sg19
I5489450
sg20
S'13535.8688926'
p329
sg22
F0.5
sbasg26
I00
sg27
I00
sg28
I5489186
sg20
S'13535.9125126'
p330
sba(igraph
Edge
p331
(dp332
g7
I1
sg8
I00
sg9
I5
sg10
(lp333
g327
a(igraph
Vertex
p334
(dp335
g14
F0.6875
sg8
I00
sg15
g16
sg17
F-12.0
sg18
F-199.9375
sg19
I5489451
sg20
S'13535.8692476'
p336
sg22
F0.5
sbasg26
I00
sg27
I00
sg28
I5489187
sg20
S'13535.9135072'
p337
sba(igraph
Edge
p338
(dp339
g7
I1
sg8
I00
sg9
I5
sg10
(lp340
g334
a(igraph
Vertex
p341
(dp342
g14
F0.75
sg8
I01
sg15
I0
sg17
F-12.0
sg18
F-250.75
sg19
I5489453
sg20
S'13535.8696083'
p343
sg22
F0.5
sbasg26
I00
sg27
I00
sg28
I5489188
sg20
S'13535.9145229'
p344
sba(igraph
Edge
p345
(dp346
g7
I1
sg8
I00
sg9
I5
sg10
(lp347
g341
a(igraph
Vertex
p348
(dp349
g14
F0.8125
sg8
I00
sg15
g16
sg17
F-12.0
sg18
F-301.5625
sg19
I5489455
sg20
S'13535.8699771'
p350
sg22
F0.5
sbasg26
I00
sg27
I00
sg28
I5489189
sg20
S'13535.9155616'
p351
sba(igraph
Edge
p352
(dp353
g7
I1
sg8
I00
sg9
I5
sg10
(lp354
g348
a(igraph
Vertex
p355
(dp356
g14
F0.875
sg8
I00
sg15
g16
sg17
F-12.0
sg18
F-352.375
sg19
I5489456
sg20
S'13535.8703553'
p357
sg22
F0.5
sbasg26
I00
sg27
I00
sg28
I5489190
sg20
S'13535.9166808'
p358
sba(igraph
Edge
p359
(dp360
g7
I1
sg8
I00
sg9
I5
sg10
(lp361
g355
a(igraph
Vertex
p362
(dp363
g14
F0.9375
sg8
I00
sg15
g16
sg17
F-12.0
sg18
F-403.1875
sg19
I5489457
sg20
S'13535.8707408'
p364
sg22
F0.5
sbasg26
I00
sg27
I00
sg28
I5489191
sg20
S'13535.9177644'
p365
sba(igraph
Edge
p366
(dp367
g7
I1
sg8
I00
sg9
I5
sg10
(lp368
g362
a(igraph
Vertex
p369
(dp370
g14
F1.0
sg8
I00
sg15
g16
sg17
F-12.0
sg18
F-454.0
sg19
I5489458
sg20
S'13535.8711331'
p371
sg22
F0.5
sbasg26
I00
sg27
I00
sg28
I5489192
sg20
S'13535.918869'
p372
sba(igraph
Edge
p373
(dp374
g7
I1
sg8
I00
sg9
I5
sg10
(lp375
g369
ag261
asg26
I00
sg27
I00
sg28
I5489193
sg20
S'13535.9199923'
p376
sba(igraph
Edge
p377
(dp378
g7
I1
sg8
I00
sg9
I5
sg10
(lp379
(igraph
Vertex
p380
(dp381
g14
F0.0
sg8
I00
sg15
g16
sg17
F97.5
sg18
F359.0
sg19
I5489459
sg20
S'13535.8715348'
p382
sg22
F0.75
sba(igraph
Vertex
p383
(dp384
g14
F0.0625
sg8
I00
sg15
g16
sg17
F97.5
sg18
F308.1875
sg19
I5489460
sg20
S'13535.8719435'
p385
sg22
F0.75
sbasg26
I00
sg27
I00
sg28
I5489194
sg20
S'13535.9211366'
p386
sba(igraph
Edge
p387
(dp388
g7
I1
sg8
I00
sg9
I5
sg10
(lp389
g383
a(igraph
Vertex
p390
(dp391
g14
F0.125
sg8
I00
sg15
g16
sg17
F97.5
sg18
F257.375
sg19
I5489461
sg20
S'13535.8723645'
p392
sg22
F0.75
sbasg26
I00
sg27
I00
sg28
I5489195
sg20
S'13535.9223021'
p393
sba(igraph
Edge
p394
(dp395
g7
I1
sg8
I00
sg9
I5
sg10
(lp396
g390
a(igraph
Vertex
p397
(dp398
g14
F0.1875
sg8
I00
sg15
g16
sg17
F97.5
sg18
F206.5625
sg19
I5489462
sg20
S'13535.87279'
p399
sg22
F0.75
sbasg26
I00
sg27
I00
sg28
I5489196
sg20
S'13535.923488'
p400
sba(igraph
Edge
p401
(dp402
g7
I1
sg8
I00
sg9
I5
sg10
(lp403
g397
a(igraph
Vertex
p404
(dp405
g14
F0.25
sg8
I01
sg15
I0
sg17
F97.5
sg18
F155.75
sg19
I5489464
sg20
S'13535.8732233'
p406
sg22
F0.75
sbasg26
I00
sg27
I00
sg28
I5489197
sg20
S'13535.9246966'
p407
sba(igraph
Edge
p408
(dp409
g7
I1
sg8
I00
sg9
I5
sg10
(lp410
g404
a(igraph
Vertex
p411
(dp412
g14
F0.3125
sg8
I00
sg15
g16
sg17
F97.5
sg18
F104.9375
sg19
I5489466
sg20
S'13535.8736708'
p413
sg22
F0.75
sbasg26
I00
sg27
I00
sg28
I5489198
sg20
S'13535.9259244'
p414
sba(igraph
Edge
p415
(dp416
g7
I1
sg8
I00
sg9
I5
sg10
(lp417
g411
a(igraph
Vertex
p418
(dp419
g14
F0.375
sg8
I00
sg15
g16
sg17
F97.5
sg18
F54.125
sg19
I5489467
sg20
S'13535.8741214'
p420
sg22
F0.75
sbasg26
I00
sg27
I00
sg28
I5489199
sg20
S'13535.9271771'
p421
sba(igraph
Edge
p422
(dp423
g7
I1
sg8
I00
sg9
I5
sg10
(lp424
g418
a(igraph
Vertex
p425
(dp426
g14
F0.4375
sg8
I00
sg15
g16
sg17
F97.5
sg18
F3.3125
sg19
I5489468
sg20
S'13535.8745779'
p427
sg22
F0.75
sbasg26
I00
sg27
I00
sg28
I5489200
sg20
S'13535.9284912'
p428
sba(igraph
Edge
p429
(dp430
g7
I1
sg8
I00
sg9
I5
sg10
(lp431
g425
a(igraph
Vertex
p432
(dp433
g14
F0.5
sg8
I00
sg15
g16
sg17
F97.5
sg18
F-47.5
sg19
I5489469
sg20
S'13535.8750414'
p434
sg22
F0.75
sbasg26
I00
sg27
I00
sg28
I5489201
sg20
S'13535.9298148'
p435
sba(igraph
Edge
p436
(dp437
g7
I1
sg8
I00
sg9
I5
sg10
(lp438
g432
a(igraph
Vertex
p439
(dp440
g14
F0.5625
sg8
I00
sg15
g16
sg17
F97.5
sg18
F-98.3125
sg19
I5489470
sg20
S'13535.8755166'
p441
sg22
F0.75
sbasg26
I00
sg27
I00
sg28
I5489202
sg20
S'13535.9311482'
p442
sba(igraph
Edge
p443
(dp444
g7
I1
sg8
I00
sg9
I5
sg10
(lp445
g439
a(igraph
Vertex
p446
(dp447
g14
F0.625
sg8
I00
sg15
g16
sg17
F97.5
sg18
F-149.125
sg19
I5489471
sg20
S'13535.8759979'
p448
sg22
F0.75
sbasg26
I00
sg27
I00
sg28
I5489203
sg20
S'13535.9325001'
p449
sba(igraph
Edge
p450
(dp451
g7
I1
sg8
I00
sg9
I5
sg10
(lp452
g446
a(igraph
Vertex
p453
(dp454
g14
F0.6875
sg8
I00
sg15
g16
sg17
F97.5
sg18
F-199.9375
sg19
I5489472
sg20
S'13535.8764904'
p455
sg22
F0.75
sbasg26
I00
sg27
I00
sg28
I5489204
sg20
S'13535.9338581'
p456
sba(igraph
Edge
p457
(dp458
g7
I1
sg8
I00
sg9
I5
sg10
(lp459
g453
a(igraph
Vertex
p460
(dp461
g14
F0.75
sg8
I00
sg15
g16
sg17
F97.5
sg18
F-250.75
sg19
I5489473
sg20
S'13535.8769916'
p462
sg22
F0.75
sbasg26
I00
sg27
I00
sg28
I5489205
sg20
S'13535.9352365'
p463
sba(igraph
Edge
p464
(dp465
g7
I1
sg8
I00
sg9
I5
sg10
(lp466
g460
a(igraph
Vertex
p467
(dp468
g14
F0.8125
sg8
I00
sg15
g16
sg17
F97.5
sg18
F-301.5625
sg19
I5489474
sg20
S'13535.8775006'
p469
sg22
F0.75
sbasg26
I00
sg27
I00
sg28
I5489206
sg20
S'13535.93664'
p470
sba(igraph
Edge
p471
(dp472
g7
I1
sg8
I00
sg9
I5
sg10
(lp473
g467
a(igraph
Vertex
p474
(dp475
g14
F0.875
sg8
I01
sg15
I0
sg17
F97.5
sg18
F-352.375
sg19
I5489476
sg20
S'13535.8780166'
p476
sg22
F0.75
sbasg26
I00
sg27
I00
sg28
I5489207
sg20
S'13535.9380667'
p477
sba(igraph
Edge
p478
(dp479
g7
I1
sg8
I00
sg9
I5
sg10
(lp480
g474
a(igraph
Vertex
p481
(dp482
g14
F0.9375
sg8
I00
sg15
g16
sg17
F97.5
sg18
F-403.1875
sg19
I5489478
sg20
S'13535.8785362'
p483
sg22
F0.75
sbasg26
I00
sg27
I00
sg28
I5489208
sg20
S'13535.9395161'
p484
sba(igraph
Edge
p485
(dp486
g7
I1
sg8
I00
sg9
I5
sg10
(lp487
g481
a(igraph
Vertex
p488
(dp489
g14
F1.0
sg8
I00
sg15
g16
sg17
F97.5
sg18
F-454.0
sg19
I5489479
sg20
S'13535.8790656'
p490
sg22
F0.75
sbasg26
I00
sg27
I00
sg28
I5489209
sg20
S'13535.9409919'
p491
sba(igraph
Edge
p492
(dp493
g7
I1
sg8
I00
sg9
I5
sg10
(lp494
g488
ag380
asg26
I00
sg27
I00
sg28
I5489210
sg20
S'13535.9424871'
p495
sba(igraph
Edge
p496
(dp497
g7
I1
sg8
I00
sg9
I5
sg10
(lp498
(igraph
Vertex
p499
(dp500
g14
F0.0
sg8
I00
sg15
g16
sg17
F207.0
sg18
F359.0
sg19
I5489480
sg20
S'13535.8796093'
p501
sg22
F1.0
sba(igraph
Vertex
p502
(dp503
g14
F0.0625
sg8
I00
sg15
g16
sg17
F207.0
sg18
F308.1875
sg19
I5489481
sg20
S'13535.8801627'
p504
sg22
F1.0
sbasg26
I00
sg27
I00
sg28
I5489211
sg20
S'13535.9440013'
p505
sba(igraph
Edge
p506
(dp507
g7
I1
sg8
I00
sg9
I5
sg10
(lp508
g502
a(igraph
Vertex
p509
(dp510
g14
F0.125
sg8
I00
sg15
g16
sg17
F207.0
sg18
F257.375
sg19
I5489482
sg20
S'13535.8807209'
p511
sg22
F1.0
sbasg26
I00
sg27
I00
sg28
I5489212
sg20
S'13535.9455308'
p512
sba(igraph
Edge
p513
(dp514
g7
I1
sg8
I00
sg9
I5
sg10
(lp515
g509
a(igraph
Vertex
p516
(dp517
g14
F0.1875
sg8
I00
sg15
g16
sg17
F207.0
sg18
F206.5625
sg19
I5489483
sg20
S'13535.8812863'
p518
sg22
F1.0
sbasg26
I00
sg27
I00
sg28
I5489213
sg20
S'13535.9470877'
p519
sba(igraph
Edge
p520
(dp521
g7
I1
sg8
I00
sg9
I5
sg10
(lp522
g516
a(igraph
Vertex
p523
(dp524
g14
F0.25
sg8
I00
sg15
g16
sg17
F207.0
sg18
F155.75
sg19
I5489484
sg20
S'13535.8818601'
p525
sg22
F1.0
sbasg26
I00
sg27
I00
sg28
I5489214
sg20
S'13535.9486736'
p526
sba(igraph
Edge
p527
(dp528
g7
I1
sg8
I00
sg9
I5
sg10
(lp529
g523
a(igraph
Vertex
p530
(dp531
g14
F0.3125
sg8
I00
sg15
g16
sg17
F207.0
sg18
F104.9375
sg19
I5489485
sg20
S'13535.8824432'
p532
sg22
F1.0
sbasg26
I00
sg27
I00
sg28
I5489215
sg20
S'13535.9503345'
p533
sba(igraph
Edge
p534
(dp535
g7
I1
sg8
I00
sg9
I5
sg10
(lp536
g530
a(igraph
Vertex
p537
(dp538
g14
F0.375
sg8
I01
sg15
I0
sg17
F207.0
sg18
F54.125
sg19
I5489487
sg20
S'13535.8830382'
p539
sg22
F1.0
sbasg26
I00
sg27
I00
sg28
I5489216
sg20
S'13535.9519467'
p540
sba(igraph
Edge
p541
(dp542
g7
I1
sg8
I00
sg9
I5
sg10
(lp543
g537
a(igraph
Vertex
p544
(dp545
g14
F0.4375
sg8
I00
sg15
g16
sg17
F207.0
sg18
F3.3125
sg19
I5489489
sg20
S'13535.883636'
p546
sg22
F1.0
sbasg26
I00
sg27
I00
sg28
I5489217
sg20
S'13535.9535801'
p547
sba(igraph
Edge
p548
(dp549
g7
I1
sg8
I00
sg9
I5
sg10
(lp550
g544
a(igraph
Vertex
p551
(dp552
g14
F0.5
sg8
I00
sg15
g16
sg17
F207.0
sg18
F-47.5
sg19
I5489490
sg20
S'13535.8843331'
p553
sg22
F1.0
sbasg26
I00
sg27
I00
sg28
I5489218
sg20
S'13535.9552326'
p554
sba(igraph
Edge
p555
(dp556
g7
I1
sg8
I00
sg9
I5
sg10
(lp557
g551
a(igraph
Vertex
p558
(dp559
g14
F0.5625
sg8
I00
sg15
g16
sg17
F207.0
sg18
F-98.3125
sg19
I5489491
sg20
S'13535.8849535'
p560
sg22
F1.0
sbasg26
I00
sg27
I00
sg28
I5489219
sg20
S'13535.9569144'
p561
sba(igraph
Edge
p562
(dp563
g7
I1
sg8
I00
sg9
I5
sg10
(lp564
g558
a(igraph
Vertex
p565
(dp566
g14
F0.625
sg8
I00
sg15
g16
sg17
F207.0
sg18
F-149.125
sg19
I5489492
sg20
S'13535.8855782'
p567
sg22
F1.0
sbasg26
I00
sg27
I00
sg28
I5489220
sg20
S'13535.9586095'
p568
sba(igraph
Edge
p569
(dp570
g7
I1
sg8
I00
sg9
I5
sg10
(lp571
g565
a(igraph
Vertex
p572
(dp573
g14
F0.6875
sg8
I00
sg15
g16
sg17
F207.0
sg18
F-199.9375
sg19
I5489493
sg20
S'13535.8862138'
p574
sg22
F1.0
sbasg26
I00
sg27
I00
sg28
I5489221
sg20
S'13535.9605014'
p575
sba(igraph
Edge
p576
(dp577
g7
I1
sg8
I00
sg9
I5
sg10
(lp578
g572
a(igraph
Vertex
p579
(dp580
g14
F0.75
sg8
I00
sg15
g16
sg17
F207.0
sg18
F-250.75
sg19
I5489494
sg20
S'13535.8868596'
p581
sg22
F1.0
sbasg26
I00
sg27
I00
sg28
I5489222
sg20
S'13535.9622622'
p582
sba(igraph
Edge
p583
(dp584
g7
I1
sg8
I00
sg9
I5
sg10
(lp585
g579
a(igraph
Vertex
p586
(dp587
g14
F0.8125
sg8
I01
sg15
I0
sg17
F207.0
sg18
F-301.5625
sg19
I5489496
sg20
S'13535.8875094'
p588
sg22
F1.0
sbasg26
I00
sg27
I00
sg28
I5489223
sg20
S'13535.9640234'
p589
sba(igraph
Edge
p590
(dp591
g7
I1
sg8
I00
sg9
I5
sg10
(lp592
g586
a(igraph
Vertex
p593
(dp594
g14
F0.875
sg8
I00
sg15
g16
sg17
F207.0
sg18
F-352.375
sg19
I5489498
sg20
S'13535.8881746'
p595
sg22
F1.0
sbasg26
I00
sg27
I00
sg28
I5489224
sg20
S'13535.965806'
p596
sba(igraph
Edge
p597
(dp598
g7
I1
sg8
I00
sg9
I5
sg10
(lp599
g593
a(igraph
Vertex
p600
(dp601
g14
F0.9375
sg8
I00
sg15
g16
sg17
F207.0
sg18
F-403.1875
sg19
I5489499
sg20
S'13535.888842'
p602
sg22
F1.0
sbasg26
I00
sg27
I00
sg28
I5489225
sg20
S'13535.9676087'
p603
sba(igraph
Edge
p604
(dp605
g7
I1
sg8
I00
sg9
I5
sg10
(lp606
g600
a(igraph
Vertex
p607
(dp608
g14
F1.0
sg8
I01
sg15
I0
sg17
F207.0
sg18
F-454.0
sg19
I5489501
sg20
S'13535.8895195'
p609
sg22
F1.0
sbasg26
I00
sg27
I00
sg28
I5489226
sg20
S'13535.969433'
p610
sba(igraph
Edge
p611
(dp612
g7
I1
sg8
I00
sg9
I5
sg10
(lp613
g607
ag499
asg26
I00
sg27
I00
sg28
I5489227
sg20
S'13535.9712768'
p614
sba(igraph
Edge
p615
(dp616
g7
I1
sg8
I00
sg9
I5
sg10
(lp617
g12
ag142
asg26
I00
sg27
I00
sg28
I5489228
sg20
S'13535.9731402'
p618
sba(igraph
Edge
p619
(dp620
g7
I1
sg8
I00
sg9
I5
sg10
(lp621
g23
ag152
asg26
I00
sg27
I00
sg28
I5489229
sg20
S'13535.9750155'
p622
sba(igraph
Edge
p623
(dp624
g7
I1
sg8
I00
sg9
I5
sg10
(lp625
g33
ag152
asg26
I00
sg27
I00
sg28
I5489230
sg20
S'13535.9769242'
p626
sba(igraph
Edge
p627
(dp628
g7
I1
sg8
I00
sg9
I5
sg10
(lp629
g40
ag166
asg26
I00
sg27
I00
sg28
I5489231
sg20
S'13535.978856'
p630
sba(igraph
Edge
p631
(dp632
g7
I1
sg8
I00
sg9
I5
sg10
(lp633
g47
ag166
asg26
I00
sg27
I00
sg28
I5489232
sg20
S'13535.9808819'
p634
sba(igraph
Edge
p635
(dp636
g7
I1
sg8
I00
sg9
I5
sg10
(lp637
g54
ag180
asg26
I00
sg27
I00
sg28
I5489233
sg20
S'13535.9829101'
p638
sba(igraph
Edge
p639
(dp640
g7
I1
sg8
I00
sg9
I5
sg10
(lp641
g61
ag180
asg26
I00
sg27
I00
sg28
I5489234
sg20
S'13535.9850171'
p642
sba(igraph
Edge
p643
(dp644
g7
I1
sg8
I00
sg9
I5
sg10
(lp645
g68
ag194
asg26
I00
sg27
I00
sg28
I5489235
sg20
S'13535.9871389'
p646
sba(igraph
Edge
p647
(dp648
g7
I1
sg8
I00
sg9
I5
sg10
(lp649
g75
ag194
asg26
I00
sg27
I00
sg28
I5489236
sg20
S'13535.9892456'
p650
sba(igraph
Edge
p651
(dp652
g7
I1
sg8
I00
sg9
I5
sg10
(lp653
g82
ag208
asg26
I00
sg27
I00
sg28
I5489237
sg20
S'13535.9918649'
p654
sba(igraph
Edge
p655
(dp656
g7
I1
sg8
I00
sg9
I5
sg10
(lp657
g89
ag208
asg26
I00
sg27
I00
sg28
I5489238
sg20
S'13535.993983'
p658
sba(igraph
Edge
p659
(dp660
g7
I1
sg8
I00
sg9
I5
sg10
(lp661
g96
ag222
asg26
I00
sg27
I00
sg28
I5489239
sg20
S'13535.9960959'
p662
sba(igraph
Edge
p663
(dp664
g7
I1
sg8
I00
sg9
I5
sg10
(lp665
g103
ag222
asg26
I00
sg27
I00
sg28
I5489240
sg20
S'13535.9982291'
p666
sba(igraph
Edge
p667
(dp668
g7
I1
sg8
I00
sg9
I5
sg10
(lp669
g110
ag236
asg26
I00
sg27
I00
sg28
I5489241
sg20
S'13536.0003892'
p670
sba(igraph
Edge
p671
(dp672
g7
I1
sg8
I00
sg9
I5
sg10
(lp673
g117
ag236
asg26
I00
sg27
I00
sg28
I5489242
sg20
S'13536.0025688'
p674
sba(igraph
Edge
p675
(dp676
g7
I1
sg8
I00
sg9
I5
sg10
(lp677
g124
ag250
asg26
I00
sg27
I00
sg28
I5489243
sg20
S'13536.0047699'
p678
sba(igraph
Edge
p679
(dp680
g7
I1
sg8
I00
sg9
I5
sg10
(lp681
g131
ag250
asg26
I00
sg27
I00
sg28
I5489244
sg20
S'13536.0069922'
p682
sba(igraph
Edge
p683
(dp684
g7
I1
sg8
I00
sg9
I5
sg10
(lp685
g12
ag145
asg26
I00
sg27
I00
sg28
I5489245
sg20
S'13536.0092369'
p686
sba(igraph
Edge
p687
(dp688
g7
I1
sg8
I00
sg9
I5
sg10
(lp689
g23
ag145
asg26
I00
sg27
I00
sg28
I5489246
sg20
S'13536.0115624'
p690
sba(igraph
Edge
p691
(dp692
g7
I1
sg8
I00
sg9
I5
sg10
(lp693
g33
ag159
asg26
I00
sg27
I00
sg28
I5489247
sg20
S'13536.013847'
p694
sba(igraph
Edge
p695
(dp696
g7
I1
sg8
I00
sg9
I5
sg10
(lp697
g40
ag159
asg26
I00
sg27
I00
sg28
I5489248
sg20
S'13536.0161764'
p698
sba(igraph
Edge
p699
(dp700
g7
I1
sg8
I00
sg9
I5
sg10
(lp701
g47
ag173
asg26
I00
sg27
I00
sg28
I5489249
sg20
S'13536.0185781'
p702
sba(igraph
Edge
p703
(dp704
g7
I1
sg8
I00
sg9
I5
sg10
(lp705
g54
ag173
asg26
I00
sg27
I00
sg28
I5489250
sg20
S'13536.0209705'
p706
sba(igraph
Edge
p707
(dp708
g7
I1
sg8
I00
sg9
I5
sg10
(lp709
g61
ag187
asg26
I00
sg27
I00
sg28
I5489251
sg20
S'13536.0234323'
p710
sba(igraph
Edge
p711
(dp712
g7
I1
sg8
I00
sg9
I5
sg10
(lp713
g68
ag187
asg26
I00
sg27
I00
sg28
I5489252
sg20
S'13536.0258499'
p714
sba(igraph
Edge
p715
(dp716
g7
I1
sg8
I00
sg9
I5
sg10
(lp717
g75
ag201
asg26
I00
sg27
I00
sg28
I5489253
sg20
S'13536.0282681'
p718
sba(igraph
Edge
p719
(dp720
g7
I1
sg8
I00
sg9
I5
sg10
(lp721
g82
ag201
asg26
I00
sg27
I00
sg28
I5489254
sg20
S'13536.0307126'
p722
sba(igraph
Edge
p723
(dp724
g7
I1
sg8
I00
sg9
I5
sg10
(lp725
g89
ag215
asg26
I00
sg27
I00
sg28
I5489255
sg20
S'13536.0331802'
p726
sba(igraph
Edge
p727
(dp728
g7
I1
sg8
I00
sg9
I5
sg10
(lp729
g96
ag215
asg26
I00
sg27
I00
sg28
I5489256
sg20
S'13536.035671'
p730
sba(igraph
Edge
p731
(dp732
g7
I1
sg8
I00
sg9
I5
sg10
(lp733
g103
ag229
asg26
I00
sg27
I00
sg28
I5489257
sg20
S'13536.0382124'
p734
sba(igraph
Edge
p735
(dp736
g7
I1
sg8
I00
sg9
I5
sg10
(lp737
g110
ag229
asg26
I00
sg27
I00
sg28
I5489258
sg20
S'13536.0407583'
p738
sba(igraph
Edge
p739
(dp740
g7
I1
sg8
I00
sg9
I5
sg10
(lp741
g117
ag243
asg26
I00
sg27
I00
sg28
I5489259
sg20
S'13536.0433675'
p742
sba(igraph
Edge
p743
(dp744
g7
I1
sg8
I00
sg9
I5
sg10
(lp745
g124
ag243
asg26
I00
sg27
I00
sg28
I5489260
sg20
S'13536.0459435'
p746
sba(igraph
Edge
p747
(dp748
g7
I1
sg8
I00
sg9
I5
sg10
(lp749
g131
ag142
asg26
I00
sg27
I00
sg28
I5489261
sg20
S'13536.0485305'
p750
sba(igraph
Edge
p751
(dp752
g7
I1
sg8
I00
sg9
I5
sg10
(lp753
g12
ag499
asg26
I00
sg27
I00
sg28
I5489262
sg20
S'13536.0511816'
p754
sba(igraph
Edge
p755
(dp756
g7
I1
sg8
I00
sg9
I5
sg10
(lp757
g23
ag499
asg26
I00
sg27
I00
sg28
I5489263
sg20
S'13536.0538085'
p758
sba(igraph
Edge
p759
(dp760
g7
I1
sg8
I00
sg9
I5
sg10
(lp761
g33
ag509
asg26
I00
sg27
I00
sg28
I5489264
sg20
S'13536.0564508'
p762
sba(igraph
Edge
p763
(dp764
g7
I1
sg8
I00
sg9
I5
sg10
(lp765
g40
ag509
asg26
I00
sg27
I00
sg28
I5489265
sg20
S'13536.0591162'
p766
sba(igraph
Edge
p767
(dp768
g7
I1
sg8
I00
sg9
I5
sg10
(lp769
g47
ag523
asg26
I00
sg27
I00
sg28
I5489266
sg20
S'13536.0617936'
p770
sba(igraph
Edge
p771
(dp772
g7
I1
sg8
I00
sg9
I5
sg10
(lp773
g54
ag523
asg26
I00
sg27
I00
sg28
I5489267
sg20
S'13536.0645054'
p774
sba(igraph
Edge
p775
(dp776
g7
I1
sg8
I00
sg9
I5
sg10
(lp777
g61
ag537
asg26
I00
sg27
I00
sg28
I5489268
sg20
S'13536.0672362'
p778
sba(igraph
Edge
p779
(dp780
g7
I1
sg8
I00
sg9
I5
sg10
(lp781
g68
ag537
asg26
I00
sg27
I00
sg28
I5489269
sg20
S'13536.0699927'
p782
sba(igraph
Edge
p783
(dp784
g7
I1
sg8
I00
sg9
I5
sg10
(lp785
g75
ag551
asg26
I00
sg27
I00
sg28
I5489270
sg20
S'13536.0727917'
p786
sba(igraph
Edge
p787
(dp788
g7
I1
sg8
I00
sg9
I5
sg10
(lp789
g82
ag551
asg26
I00
sg27
I00
sg28
I5489271
sg20
S'13536.0755867'
p790
sba(igraph
Edge
p791
(dp792
g7
I1
sg8
I00
sg9
I5
sg10
(lp793
g89
ag565
asg26
I00
sg27
I00
sg28
I5489272
sg20
S'13536.078398'
p794
sba(igraph
Edge
p795
(dp796
g7
I1
sg8
I00
sg9
I5
sg10
(lp797
g96
ag565
asg26
I00
sg27
I00
sg28
I5489273
sg20
S'13536.0812251'
p798
sba(igraph
Edge
p799
(dp800
g7
I1
sg8
I00
sg9
I5
sg10
(lp801
g103
ag579
asg26
I00
sg27
I00
sg28
I5489274
sg20
S'13536.0841559'
p802
sba(igraph
Edge
p803
(dp804
g7
I1
sg8
I00
sg9
I5
sg10
(lp805
g110
ag579
asg26
I00
sg27
I00
sg28
I5489275
sg20
S'13536.087034'
p806
sba(igraph
Edge
p807
(dp808
g7
I1
sg8
I00
sg9
I5
sg10
(lp809
g117
ag593
asg26
I00
sg27
I00
sg28
I5489276
sg20
S'13536.0899315'
p810
sba(igraph
Edge
p811
(dp812
g7
I1
sg8
I00
sg9
I5
sg10
(lp813
g124
ag593
asg26
I00
sg27
I00
sg28
I5489277
sg20
S'13536.0928537'
p814
sba(igraph
Edge
p815
(dp816
g7
I1
sg8
I00
sg9
I5
sg10
(lp817
g131
ag607
asg26
I00
sg27
I00
sg28
I5489278
sg20
S'13536.0957974'
p818
sba(igraph
Edge
p819
(dp820
g7
I1
sg8
I00
sg9
I5
sg10
(lp821
g12
ag607
asg26
I00
sg27
I00
sg28
I5489279
sg20
S'13536.098845'
p822
sba(igraph
Edge
p823
(dp824
g7
I1
sg8
I00
sg9
I5
sg10
(lp825
g23
ag502
asg26
I00
sg27
I00
sg28
I5489280
sg20
S'13536.1018358'
p826
sba(igraph
Edge
p827
(dp828
g7
I1
sg8
I00
sg9
I5
sg10
(lp829
g33
ag502
asg26
I00
sg27
I00
sg28
I5489281
sg20
S'13536.104841'
p830
sba(igraph
Edge
p831
(dp832
g7
I1
sg8
I00
sg9
I5
sg10
(lp833
g40
ag516
asg26
I00
sg27
I00
sg28
I5489282
sg20
S'13536.1078632'
p834
sba(igraph
Edge
p835
(dp836
g7
I1
sg8
I00
sg9
I5
sg10
(lp837
g47
ag516
asg26
I00
sg27
I00
sg28
I5489283
sg20
S'13536.1109082'
p838
sba(igraph
Edge
p839
(dp840
g7
I1
sg8
I00
sg9
I5
sg10
(lp841
g54
ag530
asg26
I00
sg27
I00
sg28
I5489284
sg20
S'13536.113981'
p842
sba(igraph
Edge
p843
(dp844
g7
I1
sg8
I00
sg9
I5
sg10
(lp845
g61
ag530
asg26
I00
sg27
I00
sg28
I5489285
sg20
S'13536.1171445'
p846
sba(igraph
Edge
p847
(dp848
g7
I1
sg8
I00
sg9
I5
sg10
(lp849
g68
ag544
asg26
I00
sg27
I00
sg28
I5489286
sg20
S'13536.1202577'
p850
sba(igraph
Edge
p851
(dp852
g7
I1
sg8
I00
sg9
I5
sg10
(lp853
g75
ag544
asg26
I00
sg27
I00
sg28
I5489287
sg20
S'13536.1233961'
p854
sba(igraph
Edge
p855
(dp856
g7
I1
sg8
I00
sg9
I5
sg10
(lp857
g82
ag558
asg26
I00
sg27
I00
sg28
I5489288
sg20
S'13536.1265644'
p858
sba(igraph
Edge
p859
(dp860
g7
I1
sg8
I00
sg9
I5
sg10
(lp861
g89
ag558
asg26
I00
sg27
I00
sg28
I5489289
sg20
S'13536.1297545'
p862
sba(igraph
Edge
p863
(dp864
g7
I1
sg8
I00
sg9
I5
sg10
(lp865
g96
ag572
asg26
I00
sg27
I00
sg28
I5489290
sg20
S'13536.1329672'
p866
sba(igraph
Edge
p867
(dp868
g7
I1
sg8
I00
sg9
I5
sg10
(lp869
g103
ag572
asg26
I00
sg27
I00
sg28
I5489291
sg20
S'13536.1362352'
p870
sba(igraph
Edge
p871
(dp872
g7
I1
sg8
I00
sg9
I5
sg10
(lp873
g110
ag586
asg26
I00
sg27
I00
sg28
I5489292
sg20
S'13536.1395004'
p874
sba(igraph
Edge
p875
(dp876
g7
I1
sg8
I00
sg9
I5
sg10
(lp877
g117
ag586
asg26
I00
sg27
I00
sg28
I5489293
sg20
S'13536.1427919'
p878
sba(igraph
Edge
p879
(dp880
g7
I1
sg8
I00
sg9
I5
sg10
(lp881
g124
ag600
asg26
I00
sg27
I00
sg28
I5489294
sg20
S'13536.146099'
p882
sba(igraph
Edge
p883
(dp884
g7
I1
sg8
I00
sg9
I5
sg10
(lp885
g131
ag600
asg26
I00
sg27
I00
sg28
I5489295
sg20
S'13536.1494263'
p886
sba(igraph
Edge
p887
(dp888
g7
I1
sg8
I00
sg9
I5
sg10
(lp889
g142
ag261
asg26
I00
sg27
I00
sg28
I5489296
sg20
S'13536.1527493'
p890
sba(igraph
Edge
p891
(dp892
g7
I1
sg8
I00
sg9
I5
sg10
(lp893
g145
ag271
asg26
I00
sg27
I00
sg28
I5489297
sg20
S'13536.1560922'
p894
sba(igraph
Edge
p895
(dp896
g7
I1
sg8
I00
sg9
I5
sg10
(lp897
g152
ag271
asg26
I00
sg27
I00
sg28
I5489298
sg20
S'13536.1594689'
p898
sba(igraph
Edge
p899
(dp900
g7
I1
sg8
I00
sg9
I5
sg10
(lp901
g159
ag285
asg26
I00
sg27
I00
sg28
I5489299
sg20
S'13536.1628754'
p902
sba(igraph
Edge
p903
(dp904
g7
I1
sg8
I00
sg9
I5
sg10
(lp905
g166
ag285
asg26
I00
sg27
I00
sg28
I5489300
sg20
S'13536.1662949'
p906
sba(igraph
Edge
p907
(dp908
g7
I1
sg8
I00
sg9
I5
sg10
(lp909
g173
ag299
asg26
I00
sg27
I00
sg28
I5489301
sg20
S'13536.1697956'
p910
sba(igraph
Edge
p911
(dp912
g7
I1
sg8
I00
sg9
I5
sg10
(lp913
g180
ag299
asg26
I00
sg27
I00
sg28
I5489302
sg20
S'13536.1732586'
p914
sba(igraph
Edge
p915
(dp916
g7
I1
sg8
I00
sg9
I5
sg10
(lp917
g187
ag313
asg26
I00
sg27
I00
sg28
I5489303
sg20
S'13536.1768032'
p918
sba(igraph
Edge
p919
(dp920
g7
I1
sg8
I00
sg9
I5
sg10
(lp921
g194
ag313
asg26
I00
sg27
I00
sg28
I5489304
sg20
S'13536.1803344'
p922
sba(igraph
Edge
p923
(dp924
g7
I1
sg8
I00
sg9
I5
sg10
(lp925
g201
ag327
asg26
I00
sg27
I00
sg28
I5489305
sg20
S'13536.1838753'
p926
sba(igraph
Edge
p927
(dp928
g7
I1
sg8
I00
sg9
I5
sg10
(lp929
g208
ag327
asg26
I00
sg27
I00
sg28
I5489306
sg20
S'13536.1874386'
p930
sba(igraph
Edge
p931
(dp932
g7
I1
sg8
I00
sg9
I5
sg10
(lp933
g215
ag341
asg26
I00
sg27
I00
sg28
I5489307
sg20
S'13536.1910338'
p934
sba(igraph
Edge
p935
(dp936
g7
I1
sg8
I00
sg9
I5
sg10
(lp937
g222
ag341
asg26
I00
sg27
I00
sg28
I5489308
sg20
S'13536.1946474'
p938
sba(igraph
Edge
p939
(dp940
g7
I1
sg8
I00
sg9
I5
sg10
(lp941
g229
ag355
asg26
I00
sg27
I00
sg28
I5489309
sg20
S'13536.198354'
p942
sba(igraph
Edge
p943
(dp944
g7
I1
sg8
I00
sg9
I5
sg10
(lp945
g236
ag355
asg26
I00
sg27
I00
sg28
I5489310
sg20
S'13536.2021154'
p946
sba(igraph
Edge
p947
(dp948
g7
I1
sg8
I00
sg9
I5
sg10
(lp949
g243
ag369
asg26
I00
sg27
I00
sg28
I5489311
sg20
S'13536.2057798'
p950
sba(igraph
Edge
p951
(dp952
g7
I1
sg8
I00
sg9
I5
sg10
(lp953
g250
ag369
asg26
I00
sg27
I00
sg28
I5489312
sg20
S'13536.2094504'
p954
sba(igraph
Edge
p955
(dp956
g7
I1
sg8
I00
sg9
I5
sg10
(lp957
g142
ag264
asg26
I00
sg27
I00
sg28
I5489313
sg20
S'13536.2132307'
p958
sba(igraph
Edge
p959
(dp960
g7
I1
sg8
I00
sg9
I5
sg10
(lp961
g145
ag264
asg26
I00
sg27
I00
sg28
I5489314
sg20
S'13536.2169522'
p962
sba(igraph
Edge
p963
(dp964
g7
I1
sg8
I00
sg9
I5
sg10
(lp965
g152
ag278
asg26
I00
sg27
I00
sg28
I5489315
sg20
S'13536.2206917'
p966
sba(igraph
Edge
p967
(dp968
g7
I1
sg8
I00
sg9
I5
sg10
(lp969
g159
ag278
asg26
I00
sg27
I00
sg28
I5489316
sg20
S'13536.2244671'
p970
sba(igraph
Edge
p971
(dp972
g7
I1
sg8
I00
sg9
I5
sg10
(lp973
g166
ag292
asg26
I00
sg27
I00
sg28
I5489317
sg20
S'13536.2283687'
p974
sba(igraph
Edge
p975
(dp976
g7
I1
sg8
I00
sg9
I5
sg10
(lp977
g173
ag292
asg26
I00
sg27
I00
sg28
I5489318
sg20
S'13536.2322725'
p978
sba(igraph
Edge
p979
(dp980
g7
I1
sg8
I00
sg9
I5
sg10
(lp981
g180
ag306
asg26
I00
sg27
I00
sg28
I5489319
sg20
S'13536.2361278'
p982
sba(igraph
Edge
p983
(dp984
g7
I1
sg8
I00
sg9
I5
sg10
(lp985
g187
ag306
asg26
I00
sg27
I00
sg28
I5489320
sg20
S'13536.2400428'
p986
sba(igraph
Edge
p987
(dp988
g7
I1
sg8
I00
sg9
I5
sg10
(lp989
g194
ag320
asg26
I00
sg27
I00
sg28
I5489321
sg20
S'13536.2439327'
p990
sba(igraph
Edge
p991
(dp992
g7
I1
sg8
I00
sg9
I5
sg10
(lp993
g201
ag320
asg26
I00
sg27
I00
sg28
I5489322
sg20
S'13536.2478533'
p994
sba(igraph
Edge
p995
(dp996
g7
I1
sg8
I00
sg9
I5
sg10
(lp997
g208
ag334
asg26
I00
sg27
I00
sg28
I5489323
sg20
S'13536.2517957'
p998
sba(igraph
Edge
p999
(dp1000
g7
I1
sg8
I00
sg9
I5
sg10
(lp1001
g215
ag334
asg26
I00
sg27
I00
sg28
I5489324
sg20
S'13536.2557437'
p1002
sba(igraph
Edge
p1003
(dp1004
g7
I1
sg8
I00
sg9
I5
sg10
(lp1005
g222
ag348
asg26
I00
sg27
I00
sg28
I5489325
sg20
S'13536.2597257'
p1006
sba(igraph
Edge
p1007
(dp1008
g7
I1
sg8
I00
sg9
I5
sg10
(lp1009
g229
ag348
asg26
I00
sg27
I00
sg28
I5489326
sg20
S'13536.2638087'
p1010
sba(igraph
Edge
p1011
(dp1012
g7
I1
sg8
I00
sg9
I5
sg10
(lp1013
g236
ag362
asg26
I00
sg27
I00
sg28
I5489327
sg20
S'13536.2678913'
p1014
sba(igraph
Edge
p1015
(dp1016
g7
I1
sg8
I00
sg9
I5
sg10
(lp1017
g243
ag362
asg26
I00
sg27
I00
sg28
I5489328
sg20
S'13536.2721011'
p1018
sba(igraph
Edge
p1019
(dp1020
g7
I1
sg8
I00
sg9
I5
sg10
(lp1021
g250
ag261
asg26
I00
sg27
I00
sg28
I5489329
sg20
S'13536.2762407'
p1022
sba(igraph
Edge
p1023
(dp1024
g7
I1
sg8
I00
sg9
I5
sg10
(lp1025
g261
ag380
asg26
I00
sg27
I00
sg28
I5489330
sg20
S'13536.2804133'
p1026
sba(igraph
Edge
p1027
(dp1028
g7
I1
sg8
I00
sg9
I5
sg10
(lp1029
g264
ag390
asg26
I00
sg27
I00
sg28
I5489331
sg20
S'13536.2845976'
p1030
sba(igraph
Edge
p1031
(dp1032
g7
I1
sg8
I00
sg9
I5
sg10
(lp1033
g271
ag390
asg26
I00
sg27
I00
sg28
I5489332
sg20
S'13536.2887998'
p1034
sba(igraph
Edge
p1035
(dp1036
g7
I1
sg8
I00
sg9
I5
sg10
(lp1037
g278
ag404
asg26
I00
sg27
I00
sg28
I5489333
sg20
S'13536.2930705'
p1038
sba(igraph
Edge
p1039
(dp1040
g7
I1
sg8
I00
sg9
I5
sg10
(lp1041
g285
ag404
asg26
I00
sg27
I00
sg28
I5489334
sg20
S'13536.2972839'
p1042
sba(igraph
Edge
p1043
(dp1044
g7
I1
sg8
I00
sg9
I5
sg10
(lp1045
g292
ag418
asg26
I00
sg27
I00
sg28
I5489335
sg20
S'13536.3015031'
p1046
sba(igraph
Edge
p1047
(dp1048
g7
I1
sg8
I00
sg9
I5
sg10
(lp1049
g299
ag418
asg26
I00
sg27
I00
sg28
I5489336
sg20
S'13536.3057992'
p1050
sba(igraph
Edge
p1051
(dp1052
g7
I1
sg8
I00
sg9
I5
sg10
(lp1053
g306
ag432
asg26
I00
sg27
I00
sg28
I5489337
sg20
S'13536.3101023'
p1054
sba(igraph
Edge
p1055
(dp1056
g7
I1
sg8
I00
sg9
I5
sg10
(lp1057
g313
ag432
asg26
I00
sg27
I00
sg28
I5489338
sg20
S'13536.3144165'
p1058
sba(igraph
Edge
p1059
(dp1060
g7
I1
sg8
I00
sg9
I5
sg10
(lp1061
g320
ag446
asg26
I00
sg27
I00
sg28
I5489339
sg20
S'13536.3187693'
p1062
sba(igraph
Edge
p1063
(dp1064
g7
I1
sg8
I00
sg9
I5
sg10
(lp1065
g327
ag446
asg26
I00
sg27
I00
sg28
I5489340
sg20
S'13536.3230824'
p1066
sba(igraph
Edge
p1067
(dp1068
g7
I1
sg8
I00
sg9
I5
sg10
(lp1069
g334
ag460
asg26
I00
sg27
I00
sg28
I5489341
sg20
S'13536.3274078'
p1070
sba(igraph
Edge
p1071
(dp1072
g7
I1
sg8
I00
sg9
I5
sg10
(lp1073
g341
ag460
asg26
I00
sg27
I00
sg28
I5489342
sg20
S'13536.3317567'
p1074
sba(igraph
Edge
p1075
(dp1076
g7
I1
sg8
I00
sg9
I5
sg10
(lp1077
g348
ag474
asg26
I00
sg27
I00
sg28
I5489343
sg20
S'13536.3361841'
p1078
sba(igraph
Edge
p1079
(dp1080
g7
I1
sg8
I00
sg9
I5
sg10
(lp1081
g355
ag474
asg26
I00
sg27
I00
sg28
I5489344
sg20
S'13536.3405799'
p1082
sba(igraph
Edge
p1083
(dp1084
g7
I1
sg8
I00
sg9
I5
sg10
(lp1085
g362
ag488
asg26
I00
sg27
I00
sg28
I5489345
sg20
S'13536.3449989'
p1086
sba(igraph
Edge
p1087
(dp1088
g7
I1
sg8
I00
sg9
I5
sg10
(lp1089
g369
ag488
asg26
I00
sg27
I00
sg28
I5489346
sg20
S'13536.3494268'
p1090
sba(igraph
Edge
p1091
(dp1092
g7
I1
sg8
I00
sg9
I5
sg10
(lp1093
g261
ag383
asg26
I00
sg27
I00
sg28
I5489347
sg20
S'13536.3539592'
p1094
sba(igraph
Edge
p1095
(dp1096
g7
I1
sg8
I00
sg9
I5
sg10
(lp1097
g264
ag383
asg26
I00
sg27
I00
sg28
I5489348
sg20
S'13536.358438'
p1098
sba(igraph
Edge
p1099
(dp1100
g7
I1
sg8
I00
sg9
I5
sg10
(lp1101
g271
ag397
asg26
I00
sg27
I00
sg28
I5489349
sg20
S'13536.3629615'
p1102
sba(igraph
Edge
p1103
(dp1104
g7
I1
sg8
I00
sg9
I5
sg10
(lp1105
g278
ag397
asg26
I00
sg27
I00
sg28
I5489350
sg20
S'13536.3675291'
p1106
sba(igraph
Edge
p1107
(dp1108
g7
I1
sg8
I00
sg9
I5
sg10
(lp1109
g285
ag411
asg26
I00
sg27
I00
sg28
I5489351
sg20
S'13536.3720872'
p1110
sba(igraph
Edge
p1111
(dp1112
g7
I1
sg8
I00
sg9
I5
sg10
(lp1113
g292
ag411
asg26
I00
sg27
I00
sg28
I5489352
sg20
S'13536.3766644'
p1114
sba(igraph
Edge
p1115
(dp1116
g7
I1
sg8
I00
sg9
I5
sg10
(lp1117
g299
ag425
asg26
I00
sg27
I00
sg28
I5489353
sg20
S'13536.3812666'
p1118
sba(igraph
Edge
p1119
(dp1120
g7
I1
sg8
I00
sg9
I5
sg10
(lp1121
g306
ag425
asg26
I00
sg27
I00
sg28
I5489354
sg20
S'13536.3858884'
p1122
sba(igraph
Edge
p1123
(dp1124
g7
I1
sg8
I00
sg9
I5
sg10
(lp1125
g313
ag439
asg26
I00
sg27
I00
sg28
I5489355
sg20
S'13536.3905334'
p1126
sba(igraph
Edge
p1127
(dp1128
g7
I1
sg8
I00
sg9
I5
sg10
(lp1129
g320
ag439
asg26
I00
sg27
I00
sg28
I5489356
sg20
S'13536.3951636'
p1130
sba(igraph
Edge
p1131
(dp1132
g7
I1
sg8
I00
sg9
I5
sg10
(lp1133
g327
ag453
asg26
I00
sg27
I00
sg28
I5489357
sg20
S'13536.3998561'
p1134
sba(igraph
Edge
p1135
(dp1136
g7
I1
sg8
I00
sg9
I5
sg10
(lp1137
g334
ag453
asg26
I00
sg27
I00
sg28
I5489358
sg20
S'13536.4045573'
p1138
sba(igraph
Edge
p1139
(dp1140
g7
I1
sg8
I00
sg9
I5
sg10
(lp1141
g341
ag467
asg26
I00
sg27
I00
sg28
I5489359
sg20
S'13536.4092679'
p1142
sba(igraph
Edge
p1143
(dp1144
g7
I1
sg8
I00
sg9
I5
sg10
(lp1145
g348
ag467
asg26
I00
sg27
I00
sg28
I5489360
sg20
S'13536.4139886'
p1146
sba(igraph
Edge
p1147
(dp1148
g7
I1
sg8
I00
sg9
I5
sg10
(lp1149
g355
ag481
asg26
I00
sg27
I00
sg28
I5489361
sg20
S'13536.4187395'
p1150
sba(igraph
Edge
p1151
(dp1152
g7
I1
sg8
I00
sg9
I5
sg10
(lp1153
g362
ag481
asg26
I00
sg27
I00
sg28
I5489362
sg20
S'13536.4236709'
p1154
sba(igraph
Edge
p1155
(dp1156
g7
I1
sg8
I00
sg9
I5
sg10
(lp1157
g369
ag380
asg26
I00
sg27
I00
sg28
I5489363
sg20
S'13536.4286358'
p1158
sba(igraph
Edge
p1159
(dp1160
g7
I1
sg8
I00
sg9
I5
sg10
(lp1161
g380
ag499
asg26
I00
sg27
I00
sg28
I5489364
sg20
S'13536.4335291'
p1162
sba(igraph
Edge
p1163
(dp1164
g7
I1
sg8
I00
sg9
I5
sg10
(lp1165
g383
ag509
asg26
I00
sg27
I00
sg28
I5489365
sg20
S'13536.4385326'
p1166
sba(igraph
Edge
p1167
(dp1168
g7
I1
sg8
I00
sg9
I5
sg10
(lp1169
g390
ag509
asg26
I00
sg27
I00
sg28
I5489366
sg20
S'13536.443429'
p1170
sba(igraph
Edge
p1171
(dp1172
g7
I1
sg8
I00
sg9
I5
sg10
(lp1173
g397
ag523
asg26
I00
sg27
I00
sg28
I5489367
sg20
S'13536.4483615'
p1174
sba(igraph
Edge
p1175
(dp1176
g7
I1
sg8
I00
sg9
I5
sg10
(lp1177
g404
ag523
asg26
I00
sg27
I00
sg28
I5489368
sg20
S'13536.4533057'
p1178
sba(igraph
Edge
p1179
(dp1180
g7
I1
sg8
I00
sg9
I5
sg10
(lp1181
g411
ag537
asg26
I00
sg27
I00
sg28
I5489369
sg20
S'13536.4582689'
p1182
sba(igraph
Edge
p1183
(dp1184
g7
I1
sg8
I00
sg9
I5
sg10
(lp1185
g418
ag537
asg26
I00
sg27
I00
sg28
I5489370
sg20
S'13536.4633642'
p1186
sba(igraph
Edge
p1187
(dp1188
g7
I1
sg8
I00
sg9
I5
sg10
(lp1189
g425
ag551
asg26
I00
sg27
I00
sg28
I5489371
sg20
S'13536.4688803'
p1190
sba(igraph
Edge
p1191
(dp1192
g7
I1
sg8
I00
sg9
I5
sg10
(lp1193
g432
ag551
asg26
I00
sg27
I00
sg28
I5489372
sg20
S'13536.4738474'
p1194
sba(igraph
Edge
p1195
(dp1196
g7
I1
sg8
I00
sg9
I5
sg10
(lp1197
g439
ag565
asg26
I00
sg27
I00
sg28
I5489373
sg20
S'13536.4788952'
p1198
sba(igraph
Edge
p1199
(dp1200
g7
I1
sg8
I00
sg9
I5
sg10
(lp1201
g446
ag565
asg26
I00
sg27
I00
sg28
I5489374
sg20
S'13536.4839962'
p1202
sba(igraph
Edge
p1203
(dp1204
g7
I1
sg8
I00
sg9
I5
sg10
(lp1205
g453
ag579
asg26
I00
sg27
I00
sg28
I5489375
sg20
S'13536.4892013'
p1206
sba(igraph
Edge
p1207
(dp1208
g7
I1
sg8
I00
sg9
I5
sg10
(lp1209
g460
ag579
asg26
I00
sg27
I00
sg28
I5489376
sg20
S'13536.4942899'
p1210
sba(igraph
Edge
p1211
(dp1212
g7
I1
sg8
I00
sg9
I5
sg10
(lp1213
g467
ag593
asg26
I00
sg27
I00
sg28
I5489377
sg20
S'13536.499342'
p1214
sba(igraph
Edge
p1215
(dp1216
g7
I1
sg8
I00
sg9
I5
sg10
(lp1217
g474
ag593
asg26
I00
sg27
I00
sg28
I5489378
sg20
S'13536.5044096'
p1218
sba(igraph
Edge
p1219
(dp1220
g7
I1
sg8
I00
sg9
I5
sg10
(lp1221
g481
ag607
asg26
I00
sg27
I00
sg28
I5489379
sg20
S'13536.5094938'
p1222
sba(igraph
Edge
p1223
(dp1224
g7
I1
sg8
I00
sg9
I5
sg10
(lp1225
g488
ag607
asg26
I00
sg27
I00
sg28
I5489380
sg20
S'13536.5147752'
p1226
sba(igraph
Edge
p1227
(dp1228
g7
I1
sg8
I00
sg9
I5
sg10
(lp1229
g380
ag502
asg26
I00
sg27
I00
sg28
I5489381
sg20
S'13536.5200753'
p1230
sba(igraph
Edge
p1231
(dp1232
g7
I1
sg8
I00
sg9
I5
sg10
(lp1233
g383
ag502
asg26
I00
sg27
I00
sg28
I5489382
sg20
S'13536.5253992'
p1234
sba(igraph
Edge
p1235
(dp1236
g7
I1
sg8
I00
sg9
I5
sg10
(lp1237
g390
ag516
asg26
I00
sg27
I00
sg28
I5489383
sg20
S'13536.5307175'
p1238
sba(igraph
Edge
p1239
(dp1240
g7
I1
sg8
I00
sg9
I5
sg10
(lp1241
g397
ag516
asg26
I00
sg27
I00
sg28
I5489384
sg20
S'13536.5359952'
p1242
sba(igraph
Edge
p1243
(dp1244
g7
I1
sg8
I00
sg9
I5
sg10
(lp1245
g404
ag530
asg26
I00
sg27
I00
sg28
I5489385
sg20
S'13536.5413518'
p1246
sba(igraph
Edge
p1247
(dp1248
g7
I1
sg8
I00
sg9
I5
sg10
(lp1249
g411
ag530
asg26
I00
sg27
I00
sg28
I5489386
sg20
S'13536.5466949'
p1250
sba(igraph
Edge
p1251
(dp1252
g7
I1
sg8
I00
sg9
I5
sg10
(lp1253
g418
ag544
asg26
I00
sg27
I00
sg28
I5489387
sg20
S'13536.5520853'
p1254
sba(igraph
Edge
p1255
(dp1256
g7
I1
sg8
I00
sg9
I5
sg10
(lp1257
g425
ag544
asg26
I00
sg27
I00
sg28
I5489388
sg20
S'13536.557548'
p1258
sba(igraph
Edge
p1259
(dp1260
g7
I1
sg8
I00
sg9
I5
sg10
(lp1261
g432
ag558
asg26
I00
sg27
I00
sg28
I5489389
sg20
S'13536.5628894'
p1262
sba(igraph
Edge
p1263
(dp1264
g7
I1
sg8
I00
sg9
I5
sg10
(lp1265
g439
ag558
asg26
I00
sg27
I00
sg28
I5489390
sg20
S'13536.5682583'
p1266
sba(igraph
Edge
p1267
(dp1268
g7
I1
sg8
I00
sg9
I5
sg10
(lp1269
g446
ag572
asg26
I00
sg27
I00
sg28
I5489391
sg20
S'13536.5736589'
p1270
sba(igraph
Edge
p1271
(dp1272
g7
I1
sg8
I00
sg9
I5
sg10
(lp1273
g453
ag572
asg26
I00
sg27
I00
sg28
I5489392
sg20
S'13536.5810445'
p1274
sba(igraph
Edge
p1275
(dp1276
g7
I1
sg8
I00
sg9
I5
sg10
(lp1277
g460
ag586
asg26
I00
sg27
I00
sg28
I5489393
sg20
S'13536.5871079'
p1278
sba(igraph
Edge
p1279
(dp1280
g7
I1
sg8
I00
sg9
I5
sg10
(lp1281
g467
ag586
asg26
I00
sg27
I00
sg28
I5489394
sg20
S'13536.5930796'
p1282
sba(igraph
Edge
p1283
(dp1284
g7
I1
sg8
I00
sg9
I5
sg10
(lp1285
g474
ag600
asg26
I00
sg27
I00
sg28
I5489395
sg20
S'13536.598644'
p1286
sba(igraph
Edge
p1287
(dp1288
g7
I1
sg8
I00
sg9
I5
sg10
(lp1289
g481
ag600
asg26
I00
sg27
I00
sg28
I5489396
sg20
S'13536.6041952'
p1290
sba(igraph
Edge
p1291
(dp1292
g7
I1
sg8
I00
sg9
I5
sg10
(lp1293
g488
ag499
asg26
I00
sg27
I00
sg28
I5489397
sg20
S'13536.6097945'
p1294
sbasS'vertices'
p1295
(lp1296
g12
ag23
ag33
ag40
ag47
ag54
ag61
ag68
ag75
ag82
ag89
ag96
ag103
ag110
ag117
ag124
ag131
ag142
ag145
ag152
ag159
ag166
ag173
ag180
ag187
ag194
ag201
ag208
ag215
ag222
ag229
ag236
ag243
ag250
ag261
ag264
ag271
ag278
ag285
ag292
ag299
ag306
ag313
ag320
ag327
ag334
ag341
ag348
ag355
ag362
ag369
ag380
ag383
ag390
ag397
ag404
ag411
ag418
ag425
ag432
ag439
ag446
ag453
ag460
ag467
ag474
ag481
ag488
ag499
ag502
ag509
ag516
ag523
ag530
ag537
ag544
ag551
ag558
ag565
ag572
ag579
ag586
ag593
ag600
ag607
asS'tags'
p1297
(lp1298
sb.