(igraph
Graph
p0
(dp1
S'labelingConstraints'
p2
I-1
sS'edges'
p3
(lp4
(igraph
Edge
p5
(dp6
S'direction'
p7
I1
sS'selected'
p8
I00
sS'height'
p9
I5
sS'vs'
p10
(lp11
(igraph
Vertex
p12
(dp13
S'xnorm'
p14
F0.0
sg8
I00
sS'label'
p15
S'NULL'
p16
sS'y'
p17
F-220.0
sS'x'
p18
F355.0
sS'circle'
p19
I5444577
sS'id'
p20
S'13093.2473306'
p21
sS'ynorm'
p22
F0.0
sba(igraph
Vertex
p23
(dp24
g14
F0.0625
sg8
I00
sg15
g16
sg17
F-220.0
sg18
F311.8125
sg19
I5444578
sg20
S'13093.2473532'
p25
sg22
F0.0
sbasS'wrap'
p26
I00
sS'curved'
p27
I00
sS'line'
p28
I5444271
sg20
S'13093.2896044'
p29
sba(igraph
Edge
p30
(dp31
g7
I1
sg8
I00
sg9
I5
sg10
(lp32
g23
a(igraph
Vertex
p33
(dp34
g14
F0.125
sg8
I00
sg15
g16
sg17
F-220.0
sg18
F268.625
sg19
I5444579
sg20
S'13093.2473759'
p35
sg22
F0.0
sbasg26
I00
sg27
I00
sg28
I5444272
sg20
S'13093.2896639'
p36
sba(igraph
Edge
p37
(dp38
g7
I1
sg8
I00
sg9
I5
sg10
(lp39
g33
a(igraph
Vertex
p40
(dp41
g14
F0.1875
sg8
I00
sg15
g16
sg17
F-220.0
sg18
F225.4375
sg19
I5444580
sg20
S'13093.2474018'
p42
sg22
F0.0
sbasg26
I00
sg27
I00
sg28
I5444273
sg20
S'13093.2897432'
p43
sba(igraph
Edge
p44
(dp45
g7
I1
sg8
I00
sg9
I5
sg10
(lp46
g40
a(igraph
Vertex
p47
(dp48
g14
F0.25
sg8
I00
sg15
g16
sg17
F-220.0
sg18
F182.25
sg19
I5444581
sg20
S'13093.2474354'
p49
sg22
F0.0
sbasg26
I00
sg27
I00
sg28
I5444274
sg20
S'13093.2898427'
p50
sba(igraph
Edge
p51
(dp52
g7
I1
sg8
I00
sg9
I5
sg10
(lp53
g47
a(igraph
Vertex
p54
(dp55
g14
F0.3125
sg8
I00
sg15
g16
sg17
F-220.0
sg18
F139.0625
sg19
I5444582
sg20
S'13093.2474759'
p56
sg22
F0.0
sbasg26
I00
sg27
I00
sg28
I5444275
sg20
S'13093.2899628'
p57
sba(igraph
Edge
p58
(dp59
g7
I1
sg8
I00
sg9
I5
sg10
(lp60
g54
a(igraph
Vertex
p61
(dp62
g14
F0.375
sg8
I00
sg15
I0
sg17
F-220.0
sg18
F95.875
sg19
I5444583
sg20
S'13093.247525'
p63
sg22
F0.0
sbasg26
I00
sg27
I00
sg28
I5444276
sg20
S'13093.2901061'
p64
sba(igraph
Edge
p65
(dp66
g7
I1
sg8
I00
sg9
I5
sg10
(lp67
g61
a(igraph
Vertex
p68
(dp69
g14
F0.4375
sg8
I00
sg15
g16
sg17
F-220.0
sg18
F52.6875
sg19
I5444585
sg20
S'13093.2475817'
p70
sg22
F0.0
sbasg26
I00
sg27
I00
sg28
I5444277
sg20
S'13093.2902704'
p71
sba(igraph
Edge
p72
(dp73
g7
I1
sg8
I00
sg9
I5
sg10
(lp74
g68
a(igraph
Vertex
p75
(dp76
g14
F0.5
sg8
I00
sg15
g16
sg17
F-220.0
sg18
F9.5
sg19
I5444586
sg20
S'13093.2476454'
p77
sg22
F0.0
sbasg26
I00
sg27
I00
sg28
I5444278
sg20
S'13093.2904565'
p78
sba(igraph
Edge
p79
(dp80
g7
I1
sg8
I00
sg9
I5
sg10
(lp81
g75
a(igraph
Vertex
p82
(dp83
g14
F0.5625
sg8
I00
sg15
g16
sg17
F-220.0
sg18
F-33.6875
sg19
I5444587
sg20
S'13093.2477164'
p84
sg22
F0.0
sbasg26
I00
sg27
I00
sg28
I5444279
sg20
S'13093.2906635'
p85
sba(igraph
Edge
p86
(dp87
g7
I1
sg8
I00
sg9
I5
sg10
(lp88
g82
a(igraph
Vertex
p89
(dp90
g14
F0.625
sg8
I00
sg15
g16
sg17
F-220.0
sg18
F-76.875
sg19
I5444588
sg20
S'13093.2477957'
p91
sg22
F0.0
sbasg26
I00
sg27
I00
sg28
I5444280
sg20
S'13093.290894'
p92
sba(igraph
Edge
p93
(dp94
g7
I1
sg8
I00
sg9
I5
sg10
(lp95
g89
a(igraph
Vertex
p96
(dp97
g14
F0.6875
sg8
I00
sg15
g16
sg17
F-220.0
sg18
F-120.0625
sg19
I5444589
sg20
S'13093.2478821'
p98
sg22
F0.0
sbasg26
I00
sg27
I00
sg28
I5444281
sg20
S'13093.2911454'
p99
sba(igraph
Edge
p100
(dp101
g7
I1
sg8
I00
sg9
I5
sg10
(lp102
g96
a(igraph
Vertex
p103
(dp104
g14
F0.75
sg8
I00
sg15
g16
sg17
F-220.0
sg18
F-163.25
sg19
I5444590
sg20
S'13093.2479773'
p105
sg22
F0.0
sbasg26
I00
sg27
I00
sg28
I5444282
sg20
S'13093.291418'
p106
sba(igraph
Edge
p107
(dp108
g7
I1
sg8
I00
sg9
I5
sg10
(lp109
g103
a(igraph
Vertex
p110
(dp111
g14
F0.8125
sg8
I00
sg15
g16
sg17
F-220.0
sg18
F-206.4375
sg19
I5444591
sg20
S'13093.2480787'
p112
sg22
F0.0
sbasg26
I00
sg27
I00
sg28
I5444283
sg20
S'13093.2917122'
p113
sba(igraph
Edge
p114
(dp115
g7
I1
sg8
I00
sg9
I5
sg10
(lp116
g110
a(igraph
Vertex
p117
(dp118
g14
F0.875
sg8
I00
sg15
g16
sg17
F-220.0
sg18
F-249.625
sg19
I5444592
sg20
S'13093.2481941'
p119
sg22
F0.0
sbasg26
I00
sg27
I00
sg28
I5444284
sg20
S'13093.2920285'
p120
sba(igraph
Edge
p121
(dp122
g7
I1
sg8
I00
sg9
I5
sg10
(lp123
g117
a(igraph
Vertex
p124
(dp125
g14
F0.9375
sg8
I00
sg15
g16
sg17
F-220.0
sg18
F-292.8125
sg19
I5444593
sg20
S'13093.2483114'
p126
sg22
F0.0
sbasg26
I00
sg27
I00
sg28
I5444285
sg20
S'13093.2923665'
p127
sba(igraph
Edge
p128
(dp129
g7
I1
sg8
I00
sg9
I5
sg10
(lp130
g124
a(igraph
Vertex
p131
(dp132
g14
F1.0
sg8
I00
sg15
g16
sg17
F-220.0
sg18
F-336.0
sg19
I5444594
sg20
S'13093.2484369'
p133
sg22
F0.0
sbasg26
I00
sg27
I00
sg28
I5444286
sg20
S'13093.2927249'
p134
sba(igraph
Edge
p135
(dp136
g7
I1
sg8
I00
sg9
I5
sg10
(lp137
g131
ag12
asg26
I00
sg27
I00
sg28
I5444287
sg20
S'13093.2931546'
p138
sba(igraph
Edge
p139
(dp140
g7
I1
sg8
I00
sg9
I5
sg10
(lp141
(igraph
Vertex
p142
(dp143
g14
F0.0
sg8
I00
sg15
g16
sg17
F-140.39999999999998
sg18
F355.0
sg19
I5444595
sg20
S'13093.2485782'
p144
sg22
F0.20000000000000001
sba(igraph
Vertex
p145
(dp146
g14
F0.0625
sg8
I00
sg15
g16
sg17
F-140.39999999999998
sg18
F311.8125
sg19
I5444596
sg20
S'13093.2487188'
p147
sg22
F0.20000000000000001
sbasg26
I00
sg27
I00
sg28
I5444288
sg20
S'13093.2935577'
p148
sba(igraph
Edge
p149
(dp150
g7
I1
sg8
I00
sg9
I5
sg10
(lp151
g145
a(igraph
Vertex
p152
(dp153
g14
F0.125
sg8
I00
sg15
g16
sg17
F-140.39999999999998
sg18
F268.625
sg19
I5444597
sg20
S'13093.248866'
p154
sg22
F0.20000000000000001
sbasg26
I00
sg27
I00
sg28
I5444289
sg20
S'13093.2939801'
p155
sba(igraph
Edge
p156
(dp157
g7
I1
sg8
I00
sg9
I5
sg10
(lp158
g152
a(igraph
Vertex
p159
(dp160
g14
F0.1875
sg8
I00
sg15
g16
sg17
F-140.39999999999998
sg18
F225.4375
sg19
I5444598
sg20
S'13093.2490202'
p161
sg22
F0.20000000000000001
sbasg26
I00
sg27
I00
sg28
I5444290
sg20
S'13093.294424'
p162
sba(igraph
Edge
p163
(dp164
g7
I1
sg8
I00
sg9
I5
sg10
(lp165
g159
a(igraph
Vertex
p166
(dp167
g14
F0.25
sg8
I00
sg15
g16
sg17
F-140.39999999999998
sg18
F182.25
sg19
I5444599
sg20
S'13093.2491923'
p168
sg22
F0.20000000000000001
sbasg26
I00
sg27
I00
sg28
I5444291
sg20
S'13093.2948894'
p169
sba(igraph
Edge
p170
(dp171
g7
I1
sg8
I00
sg9
I5
sg10
(lp172
g166
a(igraph
Vertex
p173
(dp174
g14
F0.3125
sg8
I00
sg15
g16
sg17
F-140.39999999999998
sg18
F139.0625
sg19
I5444600
sg20
S'13093.2493652'
p175
sg22
F0.20000000000000001
sbasg26
I00
sg27
I00
sg28
I5444292
sg20
S'13093.2953778'
p176
sba(igraph
Edge
p177
(dp178
g7
I1
sg8
I00
sg9
I5
sg10
(lp179
g173
a(igraph
Vertex
p180
(dp181
g14
F0.375
sg8
I00
sg15
g16
sg17
F-140.39999999999998
sg18
F95.875
sg19
I5444601
sg20
S'13093.2495462'
p182
sg22
F0.20000000000000001
sbasg26
I00
sg27
I00
sg28
I5444293
sg20
S'13093.2958876'
p183
sba(igraph
Edge
p184
(dp185
g7
I1
sg8
I00
sg9
I5
sg10
(lp186
g180
a(igraph
Vertex
p187
(dp188
g14
F0.4375
sg8
I00
sg15
g16
sg17
F-140.39999999999998
sg18
F52.6875
sg19
I5444602
sg20
S'13093.2497424'
p189
sg22
F0.20000000000000001
sbasg26
I00
sg27
I00
sg28
I5444294
sg20
S'13093.2964192'
p190
sba(igraph
Edge
p191
(dp192
g7
I1
sg8
I00
sg9
I5
sg10
(lp193
g187
a(igraph
Vertex
p194
(dp195
g14
F0.5
sg8
I00
sg15
I0
sg17
F-140.39999999999998
sg18
F9.5
sg19
I5444603
sg20
S'13093.2499385'
p196
sg22
F0.20000000000000001
sbasg26
I00
sg27
I00
sg28
I5444295
sg20
S'13093.2969721'
p197
sba(igraph
Edge
p198
(dp199
g7
I1
sg8
I00
sg9
I5
sg10
(lp200
g194
a(igraph
Vertex
p201
(dp202
g14
F0.5625
sg8
I00
sg15
g16
sg17
F-140.39999999999998
sg18
F-33.6875
sg19
I5444605
sg20
S'13093.2501486'
p203
sg22
F0.20000000000000001
sbasg26
I00
sg27
I00
sg28
I5444296
sg20
S'13093.2975456'
p204
sba(igraph
Edge
p205
(dp206
g7
I1
sg8
I00
sg9
I5
sg10
(lp207
g201
a(igraph
Vertex
p208
(dp209
g14
F0.625
sg8
I00
sg15
g16
sg17
F-140.39999999999998
sg18
F-76.875
sg19
I5444606
sg20
S'13093.2503595'
p210
sg22
F0.20000000000000001
sbasg26
I00
sg27
I00
sg28
I5444297
sg20
S'13093.2981401'
p211
sba(igraph
Edge
p212
(dp213
g7
I1
sg8
I00
sg9
I5
sg10
(lp214
g208
a(igraph
Vertex
p215
(dp216
g14
F0.6875
sg8
I00
sg15
g16
sg17
F-140.39999999999998
sg18
F-120.0625
sg19
I5444607
sg20
S'13093.2505782'
p217
sg22
F0.20000000000000001
sbasg26
I00
sg27
I00
sg28
I5444298
sg20
S'13093.2987578'
p218
sba(igraph
Edge
p219
(dp220
g7
I1
sg8
I00
sg9
I5
sg10
(lp221
g215
a(igraph
Vertex
p222
(dp223
g14
F0.75
sg8
I00
sg15
g16
sg17
F-140.39999999999998
sg18
F-163.25
sg19
I5444608
sg20
S'13093.2508123'
p224
sg22
F0.20000000000000001
sbasg26
I00
sg27
I00
sg28
I5444299
sg20
S'13093.2993967'
p225
sba(igraph
Edge
p226
(dp227
g7
I1
sg8
I00
sg9
I5
sg10
(lp228
g222
a(igraph
Vertex
p229
(dp230
g14
F0.8125
sg8
I00
sg15
g16
sg17
F-140.39999999999998
sg18
F-206.4375
sg19
I5444609
sg20
S'13093.2510456'
p231
sg22
F0.20000000000000001
sbasg26
I00
sg27
I00
sg28
I5444300
sg20
S'13093.3000582'
p232
sba(igraph
Edge
p233
(dp234
g7
I1
sg8
I00
sg9
I5
sg10
(lp235
g229
a(igraph
Vertex
p236
(dp237
g14
F0.875
sg8
I00
sg15
g16
sg17
F-140.39999999999998
sg18
F-249.625
sg19
I5444610
sg20
S'13093.2512948'
p238
sg22
F0.20000000000000001
sbasg26
I00
sg27
I00
sg28
I5444301
sg20
S'13093.3007399'
p239
sba(igraph
Edge
p240
(dp241
g7
I1
sg8
I00
sg9
I5
sg10
(lp242
g236
a(igraph
Vertex
p243
(dp244
g14
F0.9375
sg8
I00
sg15
g16
sg17
F-140.39999999999998
sg18
F-292.8125
sg19
I5444611
sg20
S'13093.2515443'
p245
sg22
F0.20000000000000001
sbasg26
I00
sg27
I00
sg28
I5444302
sg20
S'13093.301445'
p246
sba(igraph
Edge
p247
(dp248
g7
I1
sg8
I00
sg9
I5
sg10
(lp249
g243
a(igraph
Vertex
p250
(dp251
g14
F1.0
sg8
I00
sg15
g16
sg17
F-140.39999999999998
sg18
F-336.0
sg19
I5444612
sg20
S'13093.2518055'
p252
sg22
F0.20000000000000001
sbasg26
I00
sg27
I00
sg28
I5444303
sg20
S'13093.3021714'
p253
sba(igraph
Edge
p254
(dp255
g7
I1
sg8
I00
sg9
I5
sg10
(lp256
g250
ag142
asg26
I00
sg27
I00
sg28
I5444304
sg20
S'13093.3029201'
p257
sba(igraph
Edge
p258
(dp259
g7
I1
sg8
I00
sg9
I5
sg10
(lp260
(igraph
Vertex
p261
(dp262
g14
F0.0
sg8
I01
sg15
I0
sg17
F-60.799999999999983
sg18
F355.0
sg19
I5444614
sg20
S'13093.2520837'
p263
sg22
F0.40000000000000002
sba(igraph
Vertex
p264
(dp265
g14
F0.0625
sg8
I00
sg15
g16
sg17
F-60.799999999999983
sg18
F311.8125
sg19
I5444616
sg20
S'13093.2523572'
p266
sg22
F0.40000000000000002
sbasg26
I00
sg27
I00
sg28
I5444305
sg20
S'13093.3036917'
p267
sba(igraph
Edge
p268
(dp269
g7
I1
sg8
I00
sg9
I5
sg10
(lp270
g264
a(igraph
Vertex
p271
(dp272
g14
F0.125
sg8
I00
sg15
g16
sg17
F-60.799999999999983
sg18
F268.625
sg19
I5444617
sg20
S'13093.2526388'
p273
sg22
F0.40000000000000002
sbasg26
I00
sg27
I00
sg28
I5444306
sg20
S'13093.3044806'
p274
sba(igraph
Edge
p275
(dp276
g7
I1
sg8
I00
sg9
I5
sg10
(lp277
g271
a(igraph
Vertex
p278
(dp279
g14
F0.1875
sg8
I00
sg15
g16
sg17
F-60.799999999999983
sg18
F225.4375
sg19
I5444618
sg20
S'13093.2529271'
p280
sg22
F0.40000000000000002
sbasg26
I00
sg27
I00
sg28
I5444307
sg20
S'13093.3052991'
p281
sba(igraph
Edge
p282
(dp283
g7
I1
sg8
I00
sg9
I5
sg10
(lp284
g278
a(igraph
Vertex
p285
(dp286
g14
F0.25
sg8
I00
sg15
g16
sg17
F-60.799999999999983
sg18
F182.25
sg19
I5444619
sg20
S'13093.253328'
p287
sg22
F0.40000000000000002
sbasg26
I00
sg27
I00
sg28
I5444308
sg20
S'13093.3061333'
p288
sba(igraph
Edge
p289
(dp290
g7
I1
sg8
I00
sg9
I5
sg10
(lp291
g285
a(igraph
Vertex
p292
(dp293
g14
F0.3125
sg8
I00
sg15
g16
sg17
F-60.799999999999983
sg18
F139.0625
sg19
I5444620
sg20
S'13093.2536373'
p294
sg22
F0.40000000000000002
sbasg26
I00
sg27
I00
sg28
I5444309
sg20
S'13093.3069918'
p295
sba(igraph
Edge
p296
(dp297
g7
I1
sg8
I00
sg9
I5
sg10
(lp298
g292
a(igraph
Vertex
p299
(dp300
g14
F0.375
sg8
I00
sg15
g16
sg17
F-60.799999999999983
sg18
F95.875
sg19
I5444621
sg20
S'13093.2539555'
p301
sg22
F0.40000000000000002
sbasg26
I00
sg27
I00
sg28
I5444310
sg20
S'13093.3078701'
p302
sba(igraph
Edge
p303
(dp304
g7
I1
sg8
I00
sg9
I5
sg10
(lp305
g299
a(igraph
Vertex
p306
(dp307
g14
F0.4375
sg8
I00
sg15
I0
sg17
F-60.799999999999983
sg18
F52.6875
sg19
I5444622
sg20
S'13093.2542787'
p308
sg22
F0.40000000000000002
sbasg26
I00
sg27
I00
sg28
I5444311
sg20
S'13093.3087708'
p309
sba(igraph
Edge
p310
(dp311
g7
I1
sg8
I00
sg9
I5
sg10
(lp312
g306
a(igraph
Vertex
p313
(dp314
g14
F0.5
sg8
I00
sg15
g16
sg17
F-60.799999999999983
sg18
F9.5
sg19
I5444624
sg20
S'13093.2546086'
p315
sg22
F0.40000000000000002
sbasg26
I00
sg27
I00
sg28
I5444312
sg20
S'13093.3096905'
p316
sba(igraph
Edge
p317
(dp318
g7
I1
sg8
I00
sg9
I5
sg10
(lp319
g313
a(igraph
Vertex
p320
(dp321
g14
F0.5625
sg8
I00
sg15
g16
sg17
F-60.799999999999983
sg18
F-33.6875
sg19
I5444625
sg20
S'13093.2549478'
p322
sg22
F0.40000000000000002
sbasg26
I00
sg27
I00
sg28
I5444313
sg20
S'13093.3106317'
p323
sba(igraph
Edge
p324
(dp325
g7
I1
sg8
I00
sg9
I5
sg10
(lp326
g320
a(igraph
Vertex
p327
(dp328
g14
F0.625
sg8
I00
sg15
I0
sg17
F-60.799999999999983
sg18
F-76.875
sg19
I5444626
sg20
S'13093.2552953'
p329
sg22
F0.40000000000000002
sbasg26
I00
sg27
I00
sg28
I5444314
sg20
S'13093.3117463'
p330
sba(igraph
Edge
p331
(dp332
g7
I1
sg8
I00
sg9
I5
sg10
(lp333
g327
a(igraph
Vertex
p334
(dp335
g14
F0.6875
sg8
I00
sg15
g16
sg17
F-60.799999999999983
sg18
F-120.0625
sg19
I5444628
sg20
S'13093.2556506'
p336
sg22
F0.40000000000000002
sbasg26
I00
sg27
I00
sg28
I5444315
sg20
S'13093.3127425'
p337
sba(igraph
Edge
p338
(dp339
g7
I1
sg8
I00
sg9
I5
sg10
(lp340
g334
a(igraph
Vertex
p341
(dp342
g14
F0.75
sg8
I00
sg15
g16
sg17
F-60.799999999999983
sg18
F-163.25
sg19
I5444629
sg20
S'13093.2560141'
p343
sg22
F0.40000000000000002
sbasg26
I00
sg27
I00
sg28
I5444316
sg20
S'13093.3137578'
p344
sba(igraph
Edge
p345
(dp346
g7
I1
sg8
I00
sg9
I5
sg10
(lp347
g341
a(igraph
Vertex
p348
(dp349
g14
F0.8125
sg8
I00
sg15
g16
sg17
F-60.799999999999983
sg18
F-206.4375
sg19
I5444630
sg20
S'13093.2563854'
p350
sg22
F0.40000000000000002
sbasg26
I00
sg27
I00
sg28
I5444317
sg20
S'13093.3147945'
p351
sba(igraph
Edge
p352
(dp353
g7
I1
sg8
I00
sg9
I5
sg10
(lp354
g348
a(igraph
Vertex
p355
(dp356
g14
F0.875
sg8
I00
sg15
g16
sg17
F-60.799999999999983
sg18
F-249.625
sg19
I5444631
sg20
S'13093.2567614'
p357
sg22
F0.40000000000000002
sbasg26
I00
sg27
I00
sg28
I5444318
sg20
S'13093.3158552'
p358
sba(igraph
Edge
p359
(dp360
g7
I1
sg8
I00
sg9
I5
sg10
(lp361
g355
a(igraph
Vertex
p362
(dp363
g14
F0.9375
sg8
I00
sg15
g16
sg17
F-60.799999999999983
sg18
F-292.8125
sg19
I5444632
sg20
S'13093.257152'
p364
sg22
F0.40000000000000002
sbasg26
I00
sg27
I00
sg28
I5444319
sg20
S'13093.3169344'
p365
sba(igraph
Edge
p366
(dp367
g7
I1
sg8
I00
sg9
I5
sg10
(lp368
g362
a(igraph
Vertex
p369
(dp370
g14
F1.0
sg8
I00
sg15
g16
sg17
F-60.799999999999983
sg18
F-336.0
sg19
I5444633
sg20
S'13093.2575447'
p371
sg22
F0.40000000000000002
sbasg26
I00
sg27
I00
sg28
I5444320
sg20
S'13093.3180362'
p372
sba(igraph
Edge
p373
(dp374
g7
I1
sg8
I00
sg9
I5
sg10
(lp375
g369
ag261
asg26
I00
sg27
I00
sg28
I5444321
sg20
S'13093.3191573'
p376
sba(igraph
Edge
p377
(dp378
g7
I1
sg8
I00
sg9
I5
sg10
(lp379
(igraph
Vertex
p380
(dp381
g14
F0.0
sg8
I00
sg15
g16
sg17
F18.799999999999983
sg18
F355.0
sg19
I5444634
sg20
S'13093.2579484'
p382
sg22
F0.59999999999999998
sba(igraph
Vertex
p383
(dp384
g14
F0.0625
sg8
I00
sg15
g16
sg17
F18.799999999999983
sg18
F311.8125
sg19
I5444635
sg20
S'13093.258358'
p385
sg22
F0.59999999999999998
sbasg26
I00
sg27
I00
sg28
I5444322
sg20
S'13093.3203058'
p386
sba(igraph
Edge
p387
(dp388
g7
I1
sg8
I00
sg9
I5
sg10
(lp389
g383
a(igraph
Vertex
p390
(dp391
g14
F0.125
sg8
I00
sg15
g16
sg17
F18.799999999999983
sg18
F268.625
sg19
I5444636
sg20
S'13093.2587767'
p392
sg22
F0.59999999999999998
sbasg26
I00
sg27
I00
sg28
I5444323
sg20
S'13093.3214797'
p393
sba(igraph
Edge
p394
(dp395
g7
I1
sg8
I00
sg9
I5
sg10
(lp396
g390
a(igraph
Vertex
p397
(dp398
g14
F0.1875
sg8
I00
sg15
g16
sg17
F18.799999999999983
sg18
F225.4375
sg19
I5444637
sg20
S'13093.2592'
p399
sg22
F0.59999999999999998
sbasg26
I00
sg27
I00
sg28
I5444324
sg20
S'13093.3226854'
p400
sba(igraph
Edge
p401
(dp402
g7
I1
sg8
I00
sg9
I5
sg10
(lp403
g397
a(igraph
Vertex
p404
(dp405
g14
F0.25
sg8
I00
sg15
g16
sg17
F18.799999999999983
sg18
F182.25
sg19
I5444638
sg20
S'13093.2596322'
p406
sg22
F0.59999999999999998
sbasg26
I00
sg27
I00
sg28
I5444325
sg20
S'13093.3239127'
p407
sba(igraph
Edge
p408
(dp409
g7
I1
sg8
I00
sg9
I5
sg10
(lp410
g404
a(igraph
Vertex
p411
(dp412
g14
F0.3125
sg8
I00
sg15
g16
sg17
F18.799999999999983
sg18
F139.0625
sg19
I5444639
sg20
S'13093.2600752'
p413
sg22
F0.59999999999999998
sbasg26
I00
sg27
I00
sg28
I5444326
sg20
S'13093.3251505'
p414
sba(igraph
Edge
p415
(dp416
g7
I1
sg8
I00
sg9
I5
sg10
(lp417
g411
a(igraph
Vertex
p418
(dp419
g14
F0.375
sg8
I00
sg15
g16
sg17
F18.799999999999983
sg18
F95.875
sg19
I5444640
sg20
S'13093.2605219'
p420
sg22
F0.59999999999999998
sbasg26
I00
sg27
I00
sg28
I5444327
sg20
S'13093.3264066'
p421
sba(igraph
Edge
p422
(dp423
g7
I1
sg8
I00
sg9
I5
sg10
(lp424
g418
a(igraph
Vertex
p425
(dp426
g14
F0.4375
sg8
I00
sg15
g16
sg17
F18.799999999999983
sg18
F52.6875
sg19
I5444641
sg20
S'13093.2609793'
p427
sg22
F0.59999999999999998
sbasg26
I00
sg27
I00
sg28
I5444328
sg20
S'13093.3276827'
p428
sba(igraph
Edge
p429
(dp430
g7
I1
sg8
I00
sg9
I5
sg10
(lp431
g425
a(igraph
Vertex
p432
(dp433
g14
F0.5
sg8
I00
sg15
g16
sg17
F18.799999999999983
sg18
F9.5
sg19
I5444642
sg20
S'13093.2614427'
p434
sg22
F0.59999999999999998
sbasg26
I00
sg27
I00
sg28
I5444329
sg20
S'13093.3289815'
p435
sba(igraph
Edge
p436
(dp437
g7
I1
sg8
I00
sg9
I5
sg10
(lp438
g432
a(igraph
Vertex
p439
(dp440
g14
F0.5625
sg8
I00
sg15
g16
sg17
F18.799999999999983
sg18
F-33.6875
sg19
I5444643
sg20
S'13093.2619218'
p441
sg22
F0.59999999999999998
sbasg26
I00
sg27
I00
sg28
I5444330
sg20
S'13093.3303009'
p442
sba(igraph
Edge
p443
(dp444
g7
I1
sg8
I00
sg9
I5
sg10
(lp445
g439
a(igraph
Vertex
p446
(dp447
g14
F0.625
sg8
I00
sg15
g16
sg17
F18.799999999999983
sg18
F-76.875
sg19
I5444644
sg20
S'13093.2624043'
p448
sg22
F0.59999999999999998
sbasg26
I00
sg27
I00
sg28
I5444331
sg20
S'13093.3316447'
p449
sba(igraph
Edge
p450
(dp451
g7
I1
sg8
I00
sg9
I5
sg10
(lp452
g446
a(igraph
Vertex
p453
(dp454
g14
F0.6875
sg8
I00
sg15
g16
sg17
F18.799999999999983
sg18
F-120.0625
sg19
I5444645
sg20
S'13093.2628968'
p455
sg22
F0.59999999999999998
sbasg26
I00
sg27
I00
sg28
I5444332
sg20
S'13093.3330759'
p456
sba(igraph
Edge
p457
(dp458
g7
I1
sg8
I00
sg9
I5
sg10
(lp459
g453
a(igraph
Vertex
p460
(dp461
g14
F0.75
sg8
I00
sg15
I0
sg17
F18.799999999999983
sg18
F-163.25
sg19
I5444646
sg20
S'13093.2633952'
p462
sg22
F0.59999999999999998
sbasg26
I00
sg27
I00
sg28
I5444333
sg20
S'13093.334457'
p463
sba(igraph
Edge
p464
(dp465
g7
I1
sg8
I00
sg9
I5
sg10
(lp466
g460
a(igraph
Vertex
p467
(dp468
g14
F0.8125
sg8
I00
sg15
g16
sg17
F18.799999999999983
sg18
F-206.4375
sg19
I5444648
sg20
S'13093.2639416'
p469
sg22
F0.59999999999999998
sbasg26
I00
sg27
I00
sg28
I5444334
sg20
S'13093.3358617'
p470
sba(igraph
Edge
p471
(dp472
g7
I1
sg8
I00
sg9
I5
sg10
(lp473
g467
a(igraph
Vertex
p474
(dp475
g14
F0.875
sg8
I00
sg15
g16
sg17
F18.799999999999983
sg18
F-249.625
sg19
I5444649
sg20
S'13093.2644582'
p476
sg22
F0.59999999999999998
sbasg26
I00
sg27
I00
sg28
I5444335
sg20
S'13093.337287'
p477
sba(igraph
Edge
p478
(dp479
g7
I1
sg8
I00
sg9
I5
sg10
(lp480
g474
a(igraph
Vertex
p481
(dp482
g14
F0.9375
sg8
I00
sg15
g16
sg17
F18.799999999999983
sg18
F-292.8125
sg19
I5444650
sg20
S'13093.2649831'
p483
sg22
F0.59999999999999998
sbasg26
I00
sg27
I00
sg28
I5444336
sg20
S'13093.3387372'
p484
sba(igraph
Edge
p485
(dp486
g7
I1
sg8
I00
sg9
I5
sg10
(lp487
g481
a(igraph
Vertex
p488
(dp489
g14
F1.0
sg8
I00
sg15
g16
sg17
F18.799999999999983
sg18
F-336.0
sg19
I5444651
sg20
S'13093.2655114'
p490
sg22
F0.59999999999999998
sbasg26
I00
sg27
I00
sg28
I5444337
sg20
S'13093.3402709'
p491
sba(igraph
Edge
p492
(dp493
g7
I1
sg8
I00
sg9
I5
sg10
(lp494
g488
ag380
asg26
I00
sg27
I00
sg28
I5444338
sg20
S'13093.3417655'
p495
sba(igraph
Edge
p496
(dp497
g7
I1
sg8
I00
sg9
I5
sg10
(lp498
(igraph
Vertex
p499
(dp500
g14
F0.0
sg8
I00
sg15
g16
sg17
F98.400000000000034
sg18
F355.0
sg19
I5444652
sg20
S'13093.2660486'
p501
sg22
F0.80000000000000004
sba(igraph
Vertex
p502
(dp503
g14
F0.0625
sg8
I00
sg15
g16
sg17
F98.400000000000034
sg18
F311.8125
sg19
I5444653
sg20
S'13093.266597'
p504
sg22
F0.80000000000000004
sbasg26
I00
sg27
I00
sg28
I5444339
sg20
S'13093.343273'
p505
sba(igraph
Edge
p506
(dp507
g7
I1
sg8
I00
sg9
I5
sg10
(lp508
g502
a(igraph
Vertex
p509
(dp510
g14
F0.125
sg8
I00
sg15
I0
sg17
F98.400000000000034
sg18
F268.625
sg19
I5444654
sg20
S'13093.2671521'
p511
sg22
F0.80000000000000004
sbasg26
I00
sg27
I00
sg28
I5444340
sg20
S'13093.3447941'
p512
sba(igraph
Edge
p513
(dp514
g7
I1
sg8
I00
sg9
I5
sg10
(lp515
g509
a(igraph
Vertex
p516
(dp517
g14
F0.1875
sg8
I00
sg15
g16
sg17
F98.400000000000034
sg18
F225.4375
sg19
I5444656
sg20
S'13093.2677187'
p518
sg22
F0.80000000000000004
sbasg26
I00
sg27
I00
sg28
I5444341
sg20
S'13093.3463451'
p519
sba(igraph
Edge
p520
(dp521
g7
I1
sg8
I00
sg9
I5
sg10
(lp522
g516
a(igraph
Vertex
p523
(dp524
g14
F0.25
sg8
I00
sg15
g16
sg17
F98.400000000000034
sg18
F182.25
sg19
I5444657
sg20
S'13093.2682914'
p525
sg22
F0.80000000000000004
sbasg26
I00
sg27
I00
sg28
I5444342
sg20
S'13093.3479168'
p526
sba(igraph
Edge
p527
(dp528
g7
I1
sg8
I00
sg9
I5
sg10
(lp529
g523
a(igraph
Vertex
p530
(dp531
g14
F0.3125
sg8
I00
sg15
g16
sg17
F98.400000000000034
sg18
F139.0625
sg19
I5444658
sg20
S'13093.2688741'
p532
sg22
F0.80000000000000004
sbasg26
I00
sg27
I00
sg28
I5444343
sg20
S'13093.3495131'
p533
sba(igraph
Edge
p534
(dp535
g7
I1
sg8
I00
sg9
I5
sg10
(lp536
g530
a(igraph
Vertex
p537
(dp538
g14
F0.375
sg8
I00
sg15
g16
sg17
F98.400000000000034
sg18
F95.875
sg19
I5444659
sg20
S'13093.2694622'
p539
sg22
F0.80000000000000004
sbasg26
I00
sg27
I00
sg28
I5444344
sg20
S'13093.3511312'
p540
sba(igraph
Edge
p541
(dp542
g7
I1
sg8
I00
sg9
I5
sg10
(lp543
g537
a(igraph
Vertex
p544
(dp545
g14
F0.4375
sg8
I00
sg15
g16
sg17
F98.400000000000034
sg18
F52.6875
sg19
I5444660
sg20
S'13093.2700572'
p546
sg22
F0.80000000000000004
sbasg26
I00
sg27
I00
sg28
I5444345
sg20
S'13093.3527661'
p547
sba(igraph
Edge
p548
(dp549
g7
I1
sg8
I00
sg9
I5
sg10
(lp550
g544
a(igraph
Vertex
p551
(dp552
g14
F0.5
sg8
I00
sg15
g16
sg17
F98.400000000000034
sg18
F9.5
sg19
I5444661
sg20
S'13093.2706648'
p553
sg22
F0.80000000000000004
sbasg26
I00
sg27
I00
sg28
I5444346
sg20
S'13093.3544233'
p554
sba(igraph
Edge
p555
(dp556
g7
I1
sg8
I00
sg9
I5
sg10
(lp557
g551
a(igraph
Vertex
p558
(dp559
g14
F0.5625
sg8
I00
sg15
g16
sg17
F98.400000000000034
sg18
F-33.6875
sg19
I5444662
sg20
S'13093.2712753'
p560
sg22
F0.80000000000000004
sbasg26
I00
sg27
I00
sg28
I5444347
sg20
S'13093.3561872'
p561
sba(igraph
Edge
p562
(dp563
g7
I1
sg8
I00
sg9
I5
sg10
(lp564
g558
a(igraph
Vertex
p565
(dp566
g14
F0.625
sg8
I00
sg15
g16
sg17
F98.400000000000034
sg18
F-76.875
sg19
I5444663
sg20
S'13093.2719156'
p567
sg22
F0.80000000000000004
sbasg26
I00
sg27
I00
sg28
I5444348
sg20
S'13093.3578946'
p568
sba(igraph
Edge
p569
(dp570
g7
I1
sg8
I00
sg9
I5
sg10
(lp571
g565
a(igraph
Vertex
p572
(dp573
g14
F0.6875
sg8
I00
sg15
g16
sg17
F98.400000000000034
sg18
F-120.0625
sg19
I5444664
sg20
S'13093.2725506'
p574
sg22
F0.80000000000000004
sbasg26
I00
sg27
I00
sg28
I5444349
sg20
S'13093.3596181'
p575
sba(igraph
Edge
p576
(dp577
g7
I1
sg8
I00
sg9
I5
sg10
(lp578
g572
a(igraph
Vertex
p579
(dp580
g14
F0.75
sg8
I00
sg15
g16
sg17
F98.400000000000034
sg18
F-163.25
sg19
I5444665
sg20
S'13093.2731914'
p581
sg22
F0.80000000000000004
sbasg26
I00
sg27
I00
sg28
I5444350
sg20
S'13093.3613605'
p582
sba(igraph
Edge
p583
(dp584
g7
I1
sg8
I00
sg9
I5
sg10
(lp585
g579
a(igraph
Vertex
p586
(dp587
g14
F0.8125
sg8
I00
sg15
g16
sg17
F98.400000000000034
sg18
F-206.4375
sg19
I5444666
sg20
S'13093.2738429'
p588
sg22
F0.80000000000000004
sbasg26
I00
sg27
I00
sg28
I5444351
sg20
S'13093.3631235'
p589
sba(igraph
Edge
p590
(dp591
g7
I1
sg8
I00
sg9
I5
sg10
(lp592
g586
a(igraph
Vertex
p593
(dp594
g14
F0.875
sg8
I00
sg15
I0
sg17
F98.400000000000034
sg18
F-249.625
sg19
I5444667
sg20
S'13093.2744989'
p595
sg22
F0.80000000000000004
sbasg26
I00
sg27
I00
sg28
I5444352
sg20
S'13093.3648983'
p596
sba(igraph
Edge
p597
(dp598
g7
I1
sg8
I00
sg9
I5
sg10
(lp599
g593
a(igraph
Vertex
p600
(dp601
g14
F0.9375
sg8
I00
sg15
g16
sg17
F98.400000000000034
sg18
F-292.8125
sg19
I5444669
sg20
S'13093.275166'
p602
sg22
F0.80000000000000004
sbasg26
I00
sg27
I00
sg28
I5444353
sg20
S'13093.3666871'
p603
sba(igraph
Edge
p604
(dp605
g7
I1
sg8
I00
sg9
I5
sg10
(lp606
g600
a(igraph
Vertex
p607
(dp608
g14
F1.0
sg8
I00
sg15
g16
sg17
F98.400000000000034
sg18
F-336.0
sg19
I5444670
sg20
S'13093.275842'
p609
sg22
F0.80000000000000004
sbasg26
I00
sg27
I00
sg28
I5444354
sg20
S'13093.3684993'
p610
sba(igraph
Edge
p611
(dp612
g7
I1
sg8
I00
sg9
I5
sg10
(lp613
g607
ag499
asg26
I00
sg27
I00
sg28
I5444355
sg20
S'13093.3703507'
p614
sba(igraph
Edge
p615
(dp616
g7
I1
sg8
I00
sg9
I5
sg10
(lp617
(igraph
Vertex
p618
(dp619
g14
F0.0
sg8
I00
sg15
g16
sg17
F178.0
sg18
F355.0
sg19
I5444671
sg20
S'13093.2765212'
p620
sg22
F1.0
sba(igraph
Vertex
p621
(dp622
g14
F0.0625
sg8
I00
sg15
g16
sg17
F178.0
sg18
F311.8125
sg19
I5444672
sg20
S'13093.2772204'
p623
sg22
F1.0
sbasg26
I00
sg27
I00
sg28
I5444356
sg20
S'13093.3722403'
p624
sba(igraph
Edge
p625
(dp626
g7
I1
sg8
I00
sg9
I5
sg10
(lp627
g621
a(igraph
Vertex
p628
(dp629
g14
F0.125
sg8
I00
sg15
g16
sg17
F178.0
sg18
F268.625
sg19
I5444673
sg20
S'13093.2779177'
p630
sg22
F1.0
sbasg26
I00
sg27
I00
sg28
I5444357
sg20
S'13093.3741325'
p631
sba(igraph
Edge
p632
(dp633
g7
I1
sg8
I00
sg9
I5
sg10
(lp634
g628
a(igraph
Vertex
p635
(dp636
g14
F0.1875
sg8
I00
sg15
g16
sg17
F178.0
sg18
F225.4375
sg19
I5444674
sg20
S'13093.2786223'
p637
sg22
F1.0
sbasg26
I00
sg27
I00
sg28
I5444358
sg20
S'13093.3760436'
p638
sba(igraph
Edge
p639
(dp640
g7
I1
sg8
I00
sg9
I5
sg10
(lp641
g635
a(igraph
Vertex
p642
(dp643
g14
F0.25
sg8
I00
sg15
I0
sg17
F178.0
sg18
F182.25
sg19
I5444675
sg20
S'13093.2793321'
p644
sg22
F1.0
sbasg26
I00
sg27
I00
sg28
I5444359
sg20
S'13093.3780123'
p645
sba(igraph
Edge
p646
(dp647
g7
I1
sg8
I00
sg9
I5
sg10
(lp648
g642
a(igraph
Vertex
p649
(dp650
g14
F0.3125
sg8
I00
sg15
g16
sg17
F178.0
sg18
F139.0625
sg19
I5444677
sg20
S'13093.2800627'
p651
sg22
F1.0
sbasg26
I00
sg27
I00
sg28
I5444360
sg20
S'13093.3799729'
p652
sba(igraph
Edge
p653
(dp654
g7
I1
sg8
I00
sg9
I5
sg10
(lp655
g649
a(igraph
Vertex
p656
(dp657
g14
F0.375
sg8
I00
sg15
g16
sg17
F178.0
sg18
F95.875
sg19
I5444678
sg20
S'13093.2807907'
p658
sg22
F1.0
sbasg26
I00
sg27
I00
sg28
I5444361
sg20
S'13093.3819499'
p659
sba(igraph
Edge
p660
(dp661
g7
I1
sg8
I00
sg9
I5
sg10
(lp662
g656
a(igraph
Vertex
p663
(dp664
g14
F0.4375
sg8
I00
sg15
g16
sg17
F178.0
sg18
F52.6875
sg19
I5444679
sg20
S'13093.2815288'
p665
sg22
F1.0
sbasg26
I00
sg27
I00
sg28
I5444362
sg20
S'13093.3839454'
p666
sba(igraph
Edge
p667
(dp668
g7
I1
sg8
I00
sg9
I5
sg10
(lp669
g663
a(igraph
Vertex
p670
(dp671
g14
F0.5
sg8
I00
sg15
g16
sg17
F178.0
sg18
F9.5
sg19
I5444680
sg20
S'13093.2822758'
p672
sg22
F1.0
sbasg26
I00
sg27
I00
sg28
I5444363
sg20
S'13093.3859644'
p673
sba(igraph
Edge
p674
(dp675
g7
I1
sg8
I00
sg9
I5
sg10
(lp676
g670
a(igraph
Vertex
p677
(dp678
g14
F0.5625
sg8
I00
sg15
g16
sg17
F178.0
sg18
F-33.6875
sg19
I5444681
sg20
S'13093.2830354'
p679
sg22
F1.0
sbasg26
I00
sg27
I00
sg28
I5444364
sg20
S'13093.3880312'
p680
sba(igraph
Edge
p681
(dp682
g7
I1
sg8
I00
sg9
I5
sg10
(lp683
g677
a(igraph
Vertex
p684
(dp685
g14
F0.625
sg8
I00
sg15
g16
sg17
F178.0
sg18
F-76.875
sg19
I5444682
sg20
S'13093.2838059'
p686
sg22
F1.0
sbasg26
I00
sg27
I00
sg28
I5444365
sg20
S'13093.3900929'
p687
sba(igraph
Edge
p688
(dp689
g7
I1
sg8
I00
sg9
I5
sg10
(lp690
g684
a(igraph
Vertex
p691
(dp692
g14
F0.6875
sg8
I00
sg15
g16
sg17
F178.0
sg18
F-120.0625
sg19
I5444683
sg20
S'13093.2845761'
p693
sg22
F1.0
sbasg26
I00
sg27
I00
sg28
I5444366
sg20
S'13093.3921714'
p694
sba(igraph
Edge
p695
(dp696
g7
I1
sg8
I00
sg9
I5
sg10
(lp697
g691
a(igraph
Vertex
p698
(dp699
g14
F0.75
sg8
I00
sg15
g16
sg17
F178.0
sg18
F-163.25
sg19
I5444684
sg20
S'13093.2853972'
p700
sg22
F1.0
sbasg26
I00
sg27
I00
sg28
I5444367
sg20
S'13093.3942671'
p701
sba(igraph
Edge
p702
(dp703
g7
I1
sg8
I00
sg9
I5
sg10
(lp704
g698
a(igraph
Vertex
p705
(dp706
g14
F0.8125
sg8
I00
sg15
I0
sg17
F178.0
sg18
F-206.4375
sg19
I5444685
sg20
S'13093.2862006'
p707
sg22
F1.0
sbasg26
I00
sg27
I00
sg28
I5444368
sg20
S'13093.3963923'
p708
sba(igraph
Edge
p709
(dp710
g7
I1
sg8
I00
sg9
I5
sg10
(lp711
g705
a(igraph
Vertex
p712
(dp713
g14
F0.875
sg8
I00
sg15
g16
sg17
F178.0
sg18
F-249.625
sg19
I5444687
sg20
S'13093.2870228'
p714
sg22
F1.0
sbasg26
I00
sg27
I00
sg28
I5444369
sg20
S'13093.3985395'
p715
sba(igraph
Edge
p716
(dp717
g7
I1
sg8
I00
sg9
I5
sg10
(lp718
g712
a(igraph
Vertex
p719
(dp720
g14
F0.9375
sg8
I00
sg15
g16
sg17
F178.0
sg18
F-292.8125
sg19
I5444688
sg20
S'13093.2878877'
p721
sg22
F1.0
sbasg26
I00
sg27
I00
sg28
I5444370
sg20
S'13093.4007143'
p722
sba(igraph
Edge
p723
(dp724
g7
I1
sg8
I00
sg9
I5
sg10
(lp725
g719
a(igraph
Vertex
p726
(dp727
g14
F1.0
sg8
I00
sg15
I0
sg17
F178.0
sg18
F-336.0
sg19
I5444689
sg20
S'13093.2887414'
p728
sg22
F1.0
sbasg26
I00
sg27
I00
sg28
I5444371
sg20
S'13093.4029004'
p729
sba(igraph
Edge
p730
(dp731
g7
I1
sg8
I00
sg9
I5
sg10
(lp732
g726
ag618
asg26
I00
sg27
I00
sg28
I5444372
sg20
S'13093.4051068'
p733
sba(igraph
Edge
p734
(dp735
g7
I1
sg8
I00
sg9
I5
sg10
(lp736
g12
ag142
asg26
I00
sg27
I00
sg28
I5444373
sg20
S'13093.4074065'
p737
sba(igraph
Edge
p738
(dp739
g7
I1
sg8
I00
sg9
I5
sg10
(lp740
g23
ag152
asg26
I00
sg27
I00
sg28
I5444374
sg20
S'13093.4096557'
p741
sba(igraph
Edge
p742
(dp743
g7
I1
sg8
I00
sg9
I5
sg10
(lp744
g33
ag152
asg26
I00
sg27
I00
sg28
I5444375
sg20
S'13093.411923'
p745
sba(igraph
Edge
p746
(dp747
g7
I1
sg8
I00
sg9
I5
sg10
(lp748
g40
ag166
asg26
I00
sg27
I00
sg28
I5444376
sg20
S'13093.4143096'
p749
sba(igraph
Edge
p750
(dp751
g7
I1
sg8
I00
sg9
I5
sg10
(lp752
g47
ag166
asg26
I00
sg27
I00
sg28
I5444377
sg20
S'13093.4166298'
p753
sba(igraph
Edge
p754
(dp755
g7
I1
sg8
I00
sg9
I5
sg10
(lp756
g54
ag180
asg26
I00
sg27
I00
sg28
I5444378
sg20
S'13093.4190049'
p757
sba(igraph
Edge
p758
(dp759
g7
I1
sg8
I00
sg9
I5
sg10
(lp760
g61
ag180
asg26
I00
sg27
I00
sg28
I5444379
sg20
S'13093.4214404'
p761
sba(igraph
Edge
p762
(dp763
g7
I1
sg8
I00
sg9
I5
sg10
(lp764
g68
ag194
asg26
I00
sg27
I00
sg28
I5444380
sg20
S'13093.4238245'
p765
sba(igraph
Edge
p766
(dp767
g7
I1
sg8
I00
sg9
I5
sg10
(lp768
g75
ag194
asg26
I00
sg27
I00
sg28
I5444381
sg20
S'13093.4262288'
p769
sba(igraph
Edge
p770
(dp771
g7
I1
sg8
I00
sg9
I5
sg10
(lp772
g82
ag208
asg26
I00
sg27
I00
sg28
I5444382
sg20
S'13093.4286517'
p773
sba(igraph
Edge
p774
(dp775
g7
I1
sg8
I00
sg9
I5
sg10
(lp776
g89
ag208
asg26
I00
sg27
I00
sg28
I5444383
sg20
S'13093.4310908'
p777
sba(igraph
Edge
p778
(dp779
g7
I1
sg8
I00
sg9
I5
sg10
(lp780
g96
ag222
asg26
I00
sg27
I00
sg28
I5444384
sg20
S'13093.4335557'
p781
sba(igraph
Edge
p782
(dp783
g7
I1
sg8
I00
sg9
I5
sg10
(lp784
g103
ag222
asg26
I00
sg27
I00
sg28
I5444385
sg20
S'13093.436044'
p785
sba(igraph
Edge
p786
(dp787
g7
I1
sg8
I00
sg9
I5
sg10
(lp788
g110
ag236
asg26
I00
sg27
I00
sg28
I5444386
sg20
S'13093.4385496'
p789
sba(igraph
Edge
p790
(dp791
g7
I1
sg8
I00
sg9
I5
sg10
(lp792
g117
ag236
asg26
I00
sg27
I00
sg28
I5444387
sg20
S'13093.4410767'
p793
sba(igraph
Edge
p794
(dp795
g7
I1
sg8
I00
sg9
I5
sg10
(lp796
g124
ag250
asg26
I00
sg27
I00
sg28
I5444388
sg20
S'13093.4436709'
p797
sba(igraph
Edge
p798
(dp799
g7
I1
sg8
I00
sg9
I5
sg10
(lp800
g131
ag250
asg26
I00
sg27
I00
sg28
I5444389
sg20
S'13093.4463187'
p801
sba(igraph
Edge
p802
(dp803
g7
I1
sg8
I00
sg9
I5
sg10
(lp804
g12
ag145
asg26
I00
sg27
I00
sg28
I5444390
sg20
S'13093.4489652'
p805
sba(igraph
Edge
p806
(dp807
g7
I1
sg8
I00
sg9
I5
sg10
(lp808
g23
ag145
asg26
I00
sg27
I00
sg28
I5444391
sg20
S'13093.4518432'
p809
sba(igraph
Edge
p810
(dp811
g7
I1
sg8
I00
sg9
I5
sg10
(lp812
g33
ag159
asg26
I00
sg27
I00
sg28
I5444392
sg20
S'13093.4544988'
p813
sba(igraph
Edge
p814
(dp815
g7
I1
sg8
I00
sg9
I5
sg10
(lp816
g40
ag159
asg26
I00
sg27
I00
sg28
I5444393
sg20
S'13093.4571659'
p817
sba(igraph
Edge
p818
(dp819
g7
I1
sg8
I00
sg9
I5
sg10
(lp820
g47
ag173
asg26
I00
sg27
I00
sg28
I5444394
sg20
S'13093.4598587'
p821
sba(igraph
Edge
p822
(dp823
g7
I1
sg8
I00
sg9
I5
sg10
(lp824
g54
ag173
asg26
I00
sg27
I00
sg28
I5444395
sg20
S'13093.46257'
p825
sba(igraph
Edge
p826
(dp827
g7
I1
sg8
I00
sg9
I5
sg10
(lp828
g61
ag187
asg26
I00
sg27
I00
sg28
I5444396
sg20
S'13093.4653058'
p829
sba(igraph
Edge
p830
(dp831
g7
I1
sg8
I00
sg9
I5
sg10
(lp832
g68
ag187
asg26
I00
sg27
I00
sg28
I5444397
sg20
S'13093.4680659'
p833
sba(igraph
Edge
p834
(dp835
g7
I1
sg8
I00
sg9
I5
sg10
(lp836
g75
ag201
asg26
I00
sg27
I00
sg28
I5444398
sg20
S'13093.4708464'
p837
sba(igraph
Edge
p838
(dp839
g7
I1
sg8
I00
sg9
I5
sg10
(lp840
g82
ag201
asg26
I00
sg27
I00
sg28
I5444399
sg20
S'13093.4736772'
p841
sba(igraph
Edge
p842
(dp843
g7
I1
sg8
I00
sg9
I5
sg10
(lp844
g89
ag215
asg26
I00
sg27
I00
sg28
I5444400
sg20
S'13093.4765273'
p845
sba(igraph
Edge
p846
(dp847
g7
I1
sg8
I00
sg9
I5
sg10
(lp848
g96
ag215
asg26
I00
sg27
I00
sg28
I5444401
sg20
S'13093.4793782'
p849
sba(igraph
Edge
p850
(dp851
g7
I1
sg8
I00
sg9
I5
sg10
(lp852
g103
ag229
asg26
I00
sg27
I00
sg28
I5444402
sg20
S'13093.4822476'
p853
sba(igraph
Edge
p854
(dp855
g7
I1
sg8
I00
sg9
I5
sg10
(lp856
g110
ag229
asg26
I00
sg27
I00
sg28
I5444403
sg20
S'13093.4852709'
p857
sba(igraph
Edge
p858
(dp859
g7
I1
sg8
I00
sg9
I5
sg10
(lp860
g117
ag243
asg26
I00
sg27
I00
sg28
I5444404
sg20
S'13093.4882674'
p861
sba(igraph
Edge
p862
(dp863
g7
I1
sg8
I00
sg9
I5
sg10
(lp864
g124
ag243
asg26
I00
sg27
I00
sg28
I5444405
sg20
S'13093.4912108'
p865
sba(igraph
Edge
p866
(dp867
g7
I1
sg8
I00
sg9
I5
sg10
(lp868
g131
ag142
asg26
I00
sg27
I00
sg28
I5444406
sg20
S'13093.4941662'
p869
sba(igraph
Edge
p870
(dp871
g7
I1
sg8
I00
sg9
I5
sg10
(lp872
g12
ag618
asg26
I00
sg27
I00
sg28
I5444407
sg20
S'13093.4971568'
p873
sba(igraph
Edge
p874
(dp875
g7
I1
sg8
I00
sg9
I5
sg10
(lp876
g23
ag618
asg26
I00
sg27
I00
sg28
I5444408
sg20
S'13093.5002049'
p877
sba(igraph
Edge
p878
(dp879
g7
I1
sg8
I00
sg9
I5
sg10
(lp880
g33
ag628
asg26
I00
sg27
I00
sg28
I5444409
sg20
S'13093.5032235'
p881
sba(igraph
Edge
p882
(dp883
g7
I1
sg8
I00
sg9
I5
sg10
(lp884
g40
ag628
asg26
I00
sg27
I00
sg28
I5444410
sg20
S'13093.5063571'
p885
sba(igraph
Edge
p886
(dp887
g7
I1
sg8
I00
sg9
I5
sg10
(lp888
g47
ag642
asg26
I00
sg27
I00
sg28
I5444411
sg20
S'13093.5096371'
p889
sba(igraph
Edge
p890
(dp891
g7
I1
sg8
I00
sg9
I5
sg10
(lp892
g54
ag642
asg26
I00
sg27
I00
sg28
I5444412
sg20
S'13093.5127576'
p893
sba(igraph
Edge
p894
(dp895
g7
I1
sg8
I00
sg9
I5
sg10
(lp896
g61
ag656
asg26
I00
sg27
I00
sg28
I5444413
sg20
S'13093.5159022'
p897
sba(igraph
Edge
p898
(dp899
g7
I1
sg8
I00
sg9
I5
sg10
(lp900
g68
ag656
asg26
I00
sg27
I00
sg28
I5444414
sg20
S'13093.5190688'
p901
sba(igraph
Edge
p902
(dp903
g7
I1
sg8
I00
sg9
I5
sg10
(lp904
g75
ag670
asg26
I00
sg27
I00
sg28
I5444415
sg20
S'13093.5223393'
p905
sba(igraph
Edge
p906
(dp907
g7
I1
sg8
I00
sg9
I5
sg10
(lp908
g82
ag670
asg26
I00
sg27
I00
sg28
I5444416
sg20
S'13093.5256003'
p909
sba(igraph
Edge
p910
(dp911
g7
I1
sg8
I00
sg9
I5
sg10
(lp912
g89
ag684
asg26
I00
sg27
I00
sg28
I5444417
sg20
S'13093.5288222'
p913
sba(igraph
Edge
p914
(dp915
g7
I1
sg8
I00
sg9
I5
sg10
(lp916
g96
ag684
asg26
I00
sg27
I00
sg28
I5444418
sg20
S'13093.5320961'
p917
sba(igraph
Edge
p918
(dp919
g7
I1
sg8
I00
sg9
I5
sg10
(lp920
g103
ag698
asg26
I00
sg27
I00
sg28
I5444419
sg20
S'13093.5354041'
p921
sba(igraph
Edge
p922
(dp923
g7
I1
sg8
I00
sg9
I5
sg10
(lp924
g110
ag698
asg26
I00
sg27
I00
sg28
I5444420
sg20
S'13093.5387106'
p925
sba(igraph
Edge
p926
(dp927
g7
I1
sg8
I00
sg9
I5
sg10
(lp928
g117
ag712
asg26
I00
sg27
I00
sg28
I5444421
sg20
S'13093.5420387'
p929
sba(igraph
Edge
p930
(dp931
g7
I1
sg8
I00
sg9
I5
sg10
(lp932
g124
ag712
asg26
I00
sg27
I00
sg28
I5444422
sg20
S'13093.5454204'
p933
sba(igraph
Edge
p934
(dp935
g7
I1
sg8
I00
sg9
I5
sg10
(lp936
g131
ag726
asg26
I00
sg27
I00
sg28
I5444423
sg20
S'13093.5487413'
p937
sba(igraph
Edge
p938
(dp939
g7
I1
sg8
I00
sg9
I5
sg10
(lp940
g12
ag726
asg26
I00
sg27
I00
sg28
I5444424
sg20
S'13093.5520989'
p941
sba(igraph
Edge
p942
(dp943
g7
I1
sg8
I00
sg9
I5
sg10
(lp944
g23
ag621
asg26
I00
sg27
I00
sg28
I5444425
sg20
S'13093.5554726'
p945
sba(igraph
Edge
p946
(dp947
g7
I1
sg8
I00
sg9
I5
sg10
(lp948
g33
ag621
asg26
I00
sg27
I00
sg28
I5444426
sg20
S'13093.5588682'
p949
sba(igraph
Edge
p950
(dp951
g7
I1
sg8
I00
sg9
I5
sg10
(lp952
g40
ag635
asg26
I00
sg27
I00
sg28
I5444427
sg20
S'13093.5622885'
p953
sba(igraph
Edge
p954
(dp955
g7
I1
sg8
I00
sg9
I5
sg10
(lp956
g47
ag635
asg26
I00
sg27
I00
sg28
I5444428
sg20
S'13093.5663829'
p957
sba(igraph
Edge
p958
(dp959
g7
I1
sg8
I00
sg9
I5
sg10
(lp960
g54
ag649
asg26
I00
sg27
I00
sg28
I5444429
sg20
S'13093.5705217'
p961
sba(igraph
Edge
p962
(dp963
g7
I1
sg8
I00
sg9
I5
sg10
(lp964
g61
ag649
asg26
I00
sg27
I00
sg28
I5444430
sg20
S'13093.5740165'
p965
sba(igraph
Edge
p966
(dp967
g7
I1
sg8
I00
sg9
I5
sg10
(lp968
g68
ag663
asg26
I00
sg27
I00
sg28
I5444431
sg20
S'13093.5775835'
p969
sba(igraph
Edge
p970
(dp971
g7
I1
sg8
I00
sg9
I5
sg10
(lp972
g75
ag663
asg26
I00
sg27
I00
sg28
I5444432
sg20
S'13093.5811895'
p973
sba(igraph
Edge
p974
(dp975
g7
I1
sg8
I00
sg9
I5
sg10
(lp976
g82
ag677
asg26
I00
sg27
I00
sg28
I5444433
sg20
S'13093.5847584'
p977
sba(igraph
Edge
p978
(dp979
g7
I1
sg8
I00
sg9
I5
sg10
(lp980
g89
ag677
asg26
I00
sg27
I00
sg28
I5444434
sg20
S'13093.5882485'
p981
sba(igraph
Edge
p982
(dp983
g7
I1
sg8
I00
sg9
I5
sg10
(lp984
g96
ag691
asg26
I00
sg27
I00
sg28
I5444435
sg20
S'13093.5917696'
p985
sba(igraph
Edge
p986
(dp987
g7
I1
sg8
I00
sg9
I5
sg10
(lp988
g103
ag691
asg26
I00
sg27
I00
sg28
I5444436
sg20
S'13093.5954676'
p989
sba(igraph
Edge
p990
(dp991
g7
I1
sg8
I00
sg9
I5
sg10
(lp992
g110
ag705
asg26
I00
sg27
I00
sg28
I5444437
sg20
S'13093.5991633'
p993
sba(igraph
Edge
p994
(dp995
g7
I1
sg8
I00
sg9
I5
sg10
(lp996
g117
ag705
asg26
I00
sg27
I00
sg28
I5444438
sg20
S'13093.6027948'
p997
sba(igraph
Edge
p998
(dp999
g7
I1
sg8
I00
sg9
I5
sg10
(lp1000
g124
ag719
asg26
I00
sg27
I00
sg28
I5444439
sg20
S'13093.6064366'
p1001
sba(igraph
Edge
p1002
(dp1003
g7
I1
sg8
I00
sg9
I5
sg10
(lp1004
g131
ag719
asg26
I00
sg27
I00
sg28
I5444440
sg20
S'13093.6102041'
p1005
sba(igraph
Edge
p1006
(dp1007
g7
I1
sg8
I00
sg9
I5
sg10
(lp1008
g142
ag261
asg26
I00
sg27
I00
sg28
I5444441
sg20
S'13093.6140931'
p1009
sba(igraph
Edge
p1010
(dp1011
g7
I1
sg8
I00
sg9
I5
sg10
(lp1012
g145
ag271
asg26
I00
sg27
I00
sg28
I5444442
sg20
S'13093.6178539'
p1013
sba(igraph
Edge
p1014
(dp1015
g7
I1
sg8
I00
sg9
I5
sg10
(lp1016
g152
ag271
asg26
I00
sg27
I00
sg28
I5444443
sg20
S'13093.6216312'
p1017
sba(igraph
Edge
p1018
(dp1019
g7
I1
sg8
I00
sg9
I5
sg10
(lp1020
g159
ag285
asg26
I00
sg27
I00
sg28
I5444444
sg20
S'13093.625434'
p1021
sba(igraph
Edge
p1022
(dp1023
g7
I1
sg8
I00
sg9
I5
sg10
(lp1024
g166
ag285
asg26
I00
sg27
I00
sg28
I5444445
sg20
S'13093.6292571'
p1025
sba(igraph
Edge
p1026
(dp1027
g7
I1
sg8
I00
sg9
I5
sg10
(lp1028
g173
ag299
asg26
I00
sg27
I00
sg28
I5444446
sg20
S'13093.6332411'
p1029
sba(igraph
Edge
p1030
(dp1031
g7
I1
sg8
I00
sg9
I5
sg10
(lp1032
g180
ag299
asg26
I00
sg27
I00
sg28
I5444447
sg20
S'13093.6370988'
p1033
sba(igraph
Edge
p1034
(dp1035
g7
I1
sg8
I00
sg9
I5
sg10
(lp1036
g187
ag313
asg26
I00
sg27
I00
sg28
I5444448
sg20
S'13093.6409996'
p1037
sba(igraph
Edge
p1038
(dp1039
g7
I1
sg8
I00
sg9
I5
sg10
(lp1040
g194
ag313
asg26
I00
sg27
I00
sg28
I5444449
sg20
S'13093.6449214'
p1041
sba(igraph
Edge
p1042
(dp1043
g7
I1
sg8
I00
sg9
I5
sg10
(lp1044
g201
ag327
asg26
I00
sg27
I00
sg28
I5444450
sg20
S'13093.648821'
p1045
sba(igraph
Edge
p1046
(dp1047
g7
I1
sg8
I00
sg9
I5
sg10
(lp1048
g208
ag327
asg26
I00
sg27
I00
sg28
I5444451
sg20
S'13093.6527366'
p1049
sba(igraph
Edge
p1050
(dp1051
g7
I1
sg8
I00
sg9
I5
sg10
(lp1052
g215
ag341
asg26
I00
sg27
I00
sg28
I5444452
sg20
S'13093.6566731'
p1053
sba(igraph
Edge
p1054
(dp1055
g7
I1
sg8
I00
sg9
I5
sg10
(lp1056
g222
ag341
asg26
I00
sg27
I00
sg28
I5444453
sg20
S'13093.6606267'
p1057
sba(igraph
Edge
p1058
(dp1059
g7
I1
sg8
I00
sg9
I5
sg10
(lp1060
g229
ag355
asg26
I00
sg27
I00
sg28
I5444454
sg20
S'13093.6647661'
p1061
sba(igraph
Edge
p1062
(dp1063
g7
I1
sg8
I00
sg9
I5
sg10
(lp1064
g236
ag355
asg26
I00
sg27
I00
sg28
I5444455
sg20
S'13093.6688708'
p1065
sba(igraph
Edge
p1066
(dp1067
g7
I1
sg8
I00
sg9
I5
sg10
(lp1068
g243
ag369
asg26
I00
sg27
I00
sg28
I5444456
sg20
S'13093.6735373'
p1069
sba(igraph
Edge
p1070
(dp1071
g7
I1
sg8
I00
sg9
I5
sg10
(lp1072
g250
ag369
asg26
I00
sg27
I00
sg28
I5444457
sg20
S'13093.6776174'
p1073
sba(igraph
Edge
p1074
(dp1075
g7
I1
sg8
I00
sg9
I5
sg10
(lp1076
g142
ag264
asg26
I00
sg27
I00
sg28
I5444458
sg20
S'13093.6817246'
p1077
sba(igraph
Edge
p1078
(dp1079
g7
I1
sg8
I00
sg9
I5
sg10
(lp1080
g145
ag264
asg26
I00
sg27
I00
sg28
I5444459
sg20
S'13093.6858053'
p1081
sba(igraph
Edge
p1082
(dp1083
g7
I1
sg8
I00
sg9
I5
sg10
(lp1084
g152
ag278
asg26
I00
sg27
I00
sg28
I5444460
sg20
S'13093.6899567'
p1085
sba(igraph
Edge
p1086
(dp1087
g7
I1
sg8
I00
sg9
I5
sg10
(lp1088
g159
ag278
asg26
I00
sg27
I00
sg28
I5444461
sg20
S'13093.6940773'
p1089
sba(igraph
Edge
p1090
(dp1091
g7
I1
sg8
I00
sg9
I5
sg10
(lp1092
g166
ag292
asg26
I00
sg27
I00
sg28
I5444462
sg20
S'13093.6982248'
p1093
sba(igraph
Edge
p1094
(dp1095
g7
I1
sg8
I00
sg9
I5
sg10
(lp1096
g173
ag292
asg26
I00
sg27
I00
sg28
I5444463
sg20
S'13093.7023747'
p1097
sba(igraph
Edge
p1098
(dp1099
g7
I1
sg8
I00
sg9
I5
sg10
(lp1100
g180
ag306
asg26
I00
sg27
I00
sg28
I5444464
sg20
S'13093.706601'
p1101
sba(igraph
Edge
p1102
(dp1103
g7
I1
sg8
I00
sg9
I5
sg10
(lp1104
g187
ag306
asg26
I00
sg27
I00
sg28
I5444465
sg20
S'13093.7107811'
p1105
sba(igraph
Edge
p1106
(dp1107
g7
I1
sg8
I00
sg9
I5
sg10
(lp1108
g194
ag320
asg26
I00
sg27
I00
sg28
I5444466
sg20
S'13093.714978'
p1109
sba(igraph
Edge
p1110
(dp1111
g7
I1
sg8
I00
sg9
I5
sg10
(lp1112
g201
ag320
asg26
I00
sg27
I00
sg28
I5444467
sg20
S'13093.7192624'
p1113
sba(igraph
Edge
p1114
(dp1115
g7
I1
sg8
I00
sg9
I5
sg10
(lp1116
g208
ag334
asg26
I00
sg27
I00
sg28
I5444468
sg20
S'13093.7234939'
p1117
sba(igraph
Edge
p1118
(dp1119
g7
I1
sg8
I00
sg9
I5
sg10
(lp1120
g215
ag334
asg26
I00
sg27
I00
sg28
I5444469
sg20
S'13093.7277537'
p1121
sba(igraph
Edge
p1122
(dp1123
g7
I1
sg8
I00
sg9
I5
sg10
(lp1124
g222
ag348
asg26
I00
sg27
I00
sg28
I5444470
sg20
S'13093.7321118'
p1125
sba(igraph
Edge
p1126
(dp1127
g7
I1
sg8
I00
sg9
I5
sg10
(lp1128
g229
ag348
asg26
I00
sg27
I00
sg28
I5444471
sg20
S'13093.7364173'
p1129
sba(igraph
Edge
p1130
(dp1131
g7
I1
sg8
I00
sg9
I5
sg10
(lp1132
g236
ag362
asg26
I00
sg27
I00
sg28
I5444472
sg20
S'13093.7407467'
p1133
sba(igraph
Edge
p1134
(dp1135
g7
I1
sg8
I00
sg9
I5
sg10
(lp1136
g243
ag362
asg26
I00
sg27
I00
sg28
I5444473
sg20
S'13093.7451034'
p1137
sba(igraph
Edge
p1138
(dp1139
g7
I1
sg8
I00
sg9
I5
sg10
(lp1140
g250
ag261
asg26
I00
sg27
I00
sg28
I5444474
sg20
S'13093.7494796'
p1141
sba(igraph
Edge
p1142
(dp1143
g7
I1
sg8
I00
sg9
I5
sg10
(lp1144
g261
ag380
asg26
I00
sg27
I00
sg28
I5444475
sg20
S'13093.7539698'
p1145
sba(igraph
Edge
p1146
(dp1147
g7
I1
sg8
I00
sg9
I5
sg10
(lp1148
g264
ag390
asg26
I00
sg27
I00
sg28
I5444476
sg20
S'13093.7585369'
p1149
sba(igraph
Edge
p1150
(dp1151
g7
I1
sg8
I00
sg9
I5
sg10
(lp1152
g271
ag390
asg26
I00
sg27
I00
sg28
I5444477
sg20
S'13093.763069'
p1153
sba(igraph
Edge
p1154
(dp1155
g7
I1
sg8
I00
sg9
I5
sg10
(lp1156
g278
ag404
asg26
I00
sg27
I00
sg28
I5444478
sg20
S'13093.7677884'
p1157
sba(igraph
Edge
p1158
(dp1159
g7
I1
sg8
I00
sg9
I5
sg10
(lp1160
g285
ag404
asg26
I00
sg27
I00
sg28
I5444479
sg20
S'13093.772373'
p1161
sba(igraph
Edge
p1162
(dp1163
g7
I1
sg8
I00
sg9
I5
sg10
(lp1164
g292
ag418
asg26
I00
sg27
I00
sg28
I5444480
sg20
S'13093.7769155'
p1165
sba(igraph
Edge
p1166
(dp1167
g7
I1
sg8
I00
sg9
I5
sg10
(lp1168
g299
ag418
asg26
I00
sg27
I00
sg28
I5444481
sg20
S'13093.7817725'
p1169
sba(igraph
Edge
p1170
(dp1171
g7
I1
sg8
I00
sg9
I5
sg10
(lp1172
g306
ag432
asg26
I00
sg27
I00
sg28
I5444482
sg20
S'13093.7863863'
p1173
sba(igraph
Edge
p1174
(dp1175
g7
I1
sg8
I00
sg9
I5
sg10
(lp1176
g313
ag432
asg26
I00
sg27
I00
sg28
I5444483
sg20
S'13093.7910198'
p1177
sba(igraph
Edge
p1178
(dp1179
g7
I1
sg8
I00
sg9
I5
sg10
(lp1180
g320
ag446
asg26
I00
sg27
I00
sg28
I5444484
sg20
S'13093.7956777'
p1181
sba(igraph
Edge
p1182
(dp1183
g7
I1
sg8
I00
sg9
I5
sg10
(lp1184
g327
ag446
asg26
I00
sg27
I00
sg28
I5444485
sg20
S'13093.8004621'
p1185
sba(igraph
Edge
p1186
(dp1187
g7
I1
sg8
I00
sg9
I5
sg10
(lp1188
g334
ag460
asg26
I00
sg27
I00
sg28
I5444486
sg20
S'13093.8052166'
p1189
sba(igraph
Edge
p1190
(dp1191
g7
I1
sg8
I00
sg9
I5
sg10
(lp1192
g341
ag460
asg26
I00
sg27
I00
sg28
I5444487
sg20
S'13093.8099624'
p1193
sba(igraph
Edge
p1194
(dp1195
g7
I1
sg8
I00
sg9
I5
sg10
(lp1196
g348
ag474
asg26
I00
sg27
I00
sg28
I5444488
sg20
S'13093.8180109'
p1197
sba(igraph
Edge
p1198
(dp1199
g7
I1
sg8
I00
sg9
I5
sg10
(lp1200
g355
ag474
asg26
I00
sg27
I00
sg28
I5444489
sg20
S'13093.8228968'
p1201
sba(igraph
Edge
p1202
(dp1203
g7
I1
sg8
I00
sg9
I5
sg10
(lp1204
g362
ag488
asg26
I00
sg27
I00
sg28
I5444490
sg20
S'13093.8276652'
p1205
sba(igraph
Edge
p1206
(dp1207
g7
I1
sg8
I00
sg9
I5
sg10
(lp1208
g369
ag488
asg26
I00
sg27
I00
sg28
I5444491
sg20
S'13093.8324639'
p1209
sba(igraph
Edge
p1210
(dp1211
g7
I1
sg8
I00
sg9
I5
sg10
(lp1212
g261
ag383
asg26
I00
sg27
I00
sg28
I5444492
sg20
S'13093.8372226'
p1213
sba(igraph
Edge
p1214
(dp1215
g7
I1
sg8
I00
sg9
I5
sg10
(lp1216
g264
ag383
asg26
I00
sg27
I00
sg28
I5444493
sg20
S'13093.8420168'
p1217
sba(igraph
Edge
p1218
(dp1219
g7
I1
sg8
I00
sg9
I5
sg10
(lp1220
g271
ag397
asg26
I00
sg27
I00
sg28
I5444494
sg20
S'13093.8468498'
p1221
sba(igraph
Edge
p1222
(dp1223
g7
I1
sg8
I00
sg9
I5
sg10
(lp1224
g278
ag397
asg26
I00
sg27
I00
sg28
I5444495
sg20
S'13093.8517432'
p1225
sba(igraph
Edge
p1226
(dp1227
g7
I1
sg8
I00
sg9
I5
sg10
(lp1228
g285
ag411
asg26
I00
sg27
I00
sg28
I5444496
sg20
S'13093.8566471'
p1229
sba(igraph
Edge
p1230
(dp1231
g7
I1
sg8
I00
sg9
I5
sg10
(lp1232
g292
ag411
asg26
I00
sg27
I00
sg28
I5444497
sg20
S'13093.8616766'
p1233
sba(igraph
Edge
p1234
(dp1235
g7
I1
sg8
I00
sg9
I5
sg10
(lp1236
g299
ag425
asg26
I00
sg27
I00
sg28
I5444498
sg20
S'13093.8666174'
p1237
sba(igraph
Edge
p1238
(dp1239
g7
I1
sg8
I00
sg9
I5
sg10
(lp1240
g306
ag425
asg26
I00
sg27
I00
sg28
I5444499
sg20
S'13093.871672'
p1241
sba(igraph
Edge
p1242
(dp1243
g7
I1
sg8
I00
sg9
I5
sg10
(lp1244
g313
ag439
asg26
I00
sg27
I00
sg28
I5444500
sg20
S'13093.87704'
p1245
sba(igraph
Edge
p1246
(dp1247
g7
I1
sg8
I00
sg9
I5
sg10
(lp1248
g320
ag439
asg26
I00
sg27
I00
sg28
I5444501
sg20
S'13093.8821412'
p1249
sba(igraph
Edge
p1250
(dp1251
g7
I1
sg8
I00
sg9
I5
sg10
(lp1252
g327
ag453
asg26
I00
sg27
I00
sg28
I5444502
sg20
S'13093.8871566'
p1253
sba(igraph
Edge
p1254
(dp1255
g7
I1
sg8
I00
sg9
I5
sg10
(lp1256
g334
ag453
asg26
I00
sg27
I00
sg28
I5444503
sg20
S'13093.892302'
p1257
sba(igraph
Edge
p1258
(dp1259
g7
I1
sg8
I00
sg9
I5
sg10
(lp1260
g341
ag467
asg26
I00
sg27
I00
sg28
I5444504
sg20
S'13093.8973618'
p1261
sba(igraph
Edge
p1262
(dp1263
g7
I1
sg8
I00
sg9
I5
sg10
(lp1264
g348
ag467
asg26
I00
sg27
I00
sg28
I5444505
sg20
S'13093.9024306'
p1265
sba(igraph
Edge
p1266
(dp1267
g7
I1
sg8
I00
sg9
I5
sg10
(lp1268
g355
ag481
asg26
I00
sg27
I00
sg28
I5444506
sg20
S'13093.9075874'
p1269
sba(igraph
Edge
p1270
(dp1271
g7
I1
sg8
I00
sg9
I5
sg10
(lp1272
g362
ag481
asg26
I00
sg27
I00
sg28
I5444507
sg20
S'13093.9128046'
p1273
sba(igraph
Edge
p1274
(dp1275
g7
I1
sg8
I00
sg9
I5
sg10
(lp1276
g369
ag380
asg26
I00
sg27
I00
sg28
I5444508
sg20
S'13093.918091'
p1277
sba(igraph
Edge
p1278
(dp1279
g7
I1
sg8
I00
sg9
I5
sg10
(lp1280
g380
ag499
asg26
I00
sg27
I00
sg28
I5444509
sg20
S'13093.9234221'
p1281
sba(igraph
Edge
p1282
(dp1283
g7
I1
sg8
I00
sg9
I5
sg10
(lp1284
g383
ag509
asg26
I00
sg27
I00
sg28
I5444510
sg20
S'13093.9285658'
p1285
sba(igraph
Edge
p1286
(dp1287
g7
I1
sg8
I00
sg9
I5
sg10
(lp1288
g390
ag509
asg26
I00
sg27
I00
sg28
I5444511
sg20
S'13093.9338422'
p1289
sba(igraph
Edge
p1290
(dp1291
g7
I1
sg8
I00
sg9
I5
sg10
(lp1292
g397
ag523
asg26
I00
sg27
I00
sg28
I5444512
sg20
S'13093.9391453'
p1293
sba(igraph
Edge
p1294
(dp1295
g7
I1
sg8
I00
sg9
I5
sg10
(lp1296
g404
ag523
asg26
I00
sg27
I00
sg28
I5444513
sg20
S'13093.944503'
p1297
sba(igraph
Edge
p1298
(dp1299
g7
I1
sg8
I00
sg9
I5
sg10
(lp1300
g411
ag537
asg26
I00
sg27
I00
sg28
I5444514
sg20
S'13093.9497791'
p1301
sba(igraph
Edge
p1302
(dp1303
g7
I1
sg8
I00
sg9
I5
sg10
(lp1304
g418
ag537
asg26
I00
sg27
I00
sg28
I5444515
sg20
S'13093.9552524'
p1305
sba(igraph
Edge
p1306
(dp1307
g7
I1
sg8
I00
sg9
I5
sg10
(lp1308
g425
ag551
asg26
I00
sg27
I00
sg28
I5444516
sg20
S'13093.9605707'
p1309
sba(igraph
Edge
p1310
(dp1311
g7
I1
sg8
I00
sg9
I5
sg10
(lp1312
g432
ag551
asg26
I00
sg27
I00
sg28
I5444517
sg20
S'13093.9659362'
p1313
sba(igraph
Edge
p1314
(dp1315
g7
I1
sg8
I00
sg9
I5
sg10
(lp1316
g439
ag565
asg26
I00
sg27
I00
sg28
I5444518
sg20
S'13093.9714556'
p1317
sba(igraph
Edge
p1318
(dp1319
g7
I1
sg8
I00
sg9
I5
sg10
(lp1320
g446
ag565
asg26
I00
sg27
I00
sg28
I5444519
sg20
S'13093.9768806'
p1321
sba(igraph
Edge
p1322
(dp1323
g7
I1
sg8
I00
sg9
I5
sg10
(lp1324
g453
ag579
asg26
I00
sg27
I00
sg28
I5444520
sg20
S'13093.9823486'
p1325
sba(igraph
Edge
p1326
(dp1327
g7
I1
sg8
I00
sg9
I5
sg10
(lp1328
g460
ag579
asg26
I00
sg27
I00
sg28
I5444521
sg20
S'13093.9878107'
p1329
sba(igraph
Edge
p1330
(dp1331
g7
I1
sg8
I00
sg9
I5
sg10
(lp1332
g467
ag593
asg26
I00
sg27
I00
sg28
I5444522
sg20
S'13093.9932855'
p1333
sba(igraph
Edge
p1334
(dp1335
g7
I1
sg8
I00
sg9
I5
sg10
(lp1336
g474
ag593
asg26
I00
sg27
I00
sg28
I5444523
sg20
S'13093.9987674'
p1337
sba(igraph
Edge
p1338
(dp1339
g7
I1
sg8
I00
sg9
I5
sg10
(lp1340
g481
ag607
asg26
I00
sg27
I00
sg28
I5444524
sg20
S'13094.0044927'
p1341
sba(igraph
Edge
p1342
(dp1343
g7
I1
sg8
I00
sg9
I5
sg10
(lp1344
g488
ag607
asg26
I00
sg27
I00
sg28
I5444525
sg20
S'13094.010006'
p1345
sba(igraph
Edge
p1346
(dp1347
g7
I1
sg8
I00
sg9
I5
sg10
(lp1348
g380
ag502
asg26
I00
sg27
I00
sg28
I5444526
sg20
S'13094.0155821'
p1349
sba(igraph
Edge
p1350
(dp1351
g7
I1
sg8
I00
sg9
I5
sg10
(lp1352
g383
ag502
asg26
I00
sg27
I00
sg28
I5444527
sg20
S'13094.0211214'
p1353
sba(igraph
Edge
p1354
(dp1355
g7
I1
sg8
I00
sg9
I5
sg10
(lp1356
g390
ag516
asg26
I00
sg27
I00
sg28
I5444528
sg20
S'13094.0267459'
p1357
sba(igraph
Edge
p1358
(dp1359
g7
I1
sg8
I00
sg9
I5
sg10
(lp1360
g397
ag516
asg26
I00
sg27
I00
sg28
I5444529
sg20
S'13094.0324005'
p1361
sba(igraph
Edge
p1362
(dp1363
g7
I1
sg8
I00
sg9
I5
sg10
(lp1364
g404
ag530
asg26
I00
sg27
I00
sg28
I5444530
sg20
S'13094.0381121'
p1365
sba(igraph
Edge
p1366
(dp1367
g7
I1
sg8
I00
sg9
I5
sg10
(lp1368
g411
ag530
asg26
I00
sg27
I00
sg28
I5444531
sg20
S'13094.043743'
p1369
sba(igraph
Edge
p1370
(dp1371
g7
I1
sg8
I00
sg9
I5
sg10
(lp1372
g418
ag544
asg26
I00
sg27
I00
sg28
I5444532
sg20
S'13094.0494937'
p1373
sba(igraph
Edge
p1374
(dp1375
g7
I1
sg8
I00
sg9
I5
sg10
(lp1376
g425
ag544
asg26
I00
sg27
I00
sg28
I5444533
sg20
S'13094.0551861'
p1377
sba(igraph
Edge
p1378
(dp1379
g7
I1
sg8
I00
sg9
I5
sg10
(lp1380
g432
ag558
asg26
I00
sg27
I00
sg28
I5444534
sg20
S'13094.0609069'
p1381
sba(igraph
Edge
p1382
(dp1383
g7
I1
sg8
I00
sg9
I5
sg10
(lp1384
g439
ag558
asg26
I00
sg27
I00
sg28
I5444535
sg20
S'13094.066737'
p1385
sba(igraph
Edge
p1386
(dp1387
g7
I1
sg8
I00
sg9
I5
sg10
(lp1388
g446
ag572
asg26
I00
sg27
I00
sg28
I5444536
sg20
S'13094.0725184'
p1389
sba(igraph
Edge
p1390
(dp1391
g7
I1
sg8
I00
sg9
I5
sg10
(lp1392
g453
ag572
asg26
I00
sg27
I00
sg28
I5444537
sg20
S'13094.0783222'
p1393
sba(igraph
Edge
p1394
(dp1395
g7
I1
sg8
I00
sg9
I5
sg10
(lp1396
g460
ag586
asg26
I00
sg27
I00
sg28
I5444538
sg20
S'13094.0842308'
p1397
sba(igraph
Edge
p1398
(dp1399
g7
I1
sg8
I00
sg9
I5
sg10
(lp1400
g467
ag586
asg26
I00
sg27
I00
sg28
I5444539
sg20
S'13094.0901352'
p1401
sba(igraph
Edge
p1402
(dp1403
g7
I1
sg8
I00
sg9
I5
sg10
(lp1404
g474
ag600
asg26
I00
sg27
I00
sg28
I5444540
sg20
S'13094.0960678'
p1405
sba(igraph
Edge
p1406
(dp1407
g7
I1
sg8
I00
sg9
I5
sg10
(lp1408
g481
ag600
asg26
I00
sg27
I00
sg28
I5444541
sg20
S'13094.1020817'
p1409
sba(igraph
Edge
p1410
(dp1411
g7
I1
sg8
I00
sg9
I5
sg10
(lp1412
g488
ag499
asg26
I00
sg27
I00
sg28
I5444542
sg20
S'13094.1081931'
p1413
sba(igraph
Edge
p1414
(dp1415
g7
I1
sg8
I00
sg9
I5
sg10
(lp1416
g499
ag618
asg26
I00
sg27
I00
sg28
I5444543
sg20
S'13094.1142288'
p1417
sba(igraph
Edge
p1418
(dp1419
g7
I1
sg8
I00
sg9
I5
sg10
(lp1420
g502
ag628
asg26
I00
sg27
I00
sg28
I5444544
sg20
S'13094.1202432'
p1421
sba(igraph
Edge
p1422
(dp1423
g7
I1
sg8
I00
sg9
I5
sg10
(lp1424
g509
ag628
asg26
I00
sg27
I00
sg28
I5444545
sg20
S'13094.1261951'
p1425
sba(igraph
Edge
p1426
(dp1427
g7
I1
sg8
I00
sg9
I5
sg10
(lp1428
g516
ag642
asg26
I00
sg27
I00
sg28
I5444546
sg20
S'13094.1322257'
p1429
sba(igraph
Edge
p1430
(dp1431
g7
I1
sg8
I00
sg9
I5
sg10
(lp1432
g523
ag642
asg26
I00
sg27
I00
sg28
I5444547
sg20
S'13094.1383237'
p1433
sba(igraph
Edge
p1434
(dp1435
g7
I1
sg8
I00
sg9
I5
sg10
(lp1436
g530
ag656
asg26
I00
sg27
I00
sg28
I5444548
sg20
S'13094.1445295'
p1437
sba(igraph
Edge
p1438
(dp1439
g7
I1
sg8
I00
sg9
I5
sg10
(lp1440
g537
ag656
asg26
I00
sg27
I00
sg28
I5444549
sg20
S'13094.1506306'
p1441
sba(igraph
Edge
p1442
(dp1443
g7
I1
sg8
I00
sg9
I5
sg10
(lp1444
g544
ag670
asg26
I00
sg27
I00
sg28
I5444550
sg20
S'13094.1567347'
p1445
sba(igraph
Edge
p1446
(dp1447
g7
I1
sg8
I00
sg9
I5
sg10
(lp1448
g551
ag670
asg26
I00
sg27
I00
sg28
I5444551
sg20
S'13094.1627967'
p1449
sba(igraph
Edge
p1450
(dp1451
g7
I1
sg8
I00
sg9
I5
sg10
(lp1452
g558
ag684
asg26
I00
sg27
I00
sg28
I5444552
sg20
S'13094.1689217'
p1453
sba(igraph
Edge
p1454
(dp1455
g7
I1
sg8
I00
sg9
I5
sg10
(lp1456
g565
ag684
asg26
I00
sg27
I00
sg28
I5444553
sg20
S'13094.1750379'
p1457
sba(igraph
Edge
p1458
(dp1459
g7
I1
sg8
I00
sg9
I5
sg10
(lp1460
g572
ag698
asg26
I00
sg27
I00
sg28
I5444554
sg20
S'13094.1811778'
p1461
sba(igraph
Edge
p1462
(dp1463
g7
I1
sg8
I00
sg9
I5
sg10
(lp1464
g579
ag698
asg26
I00
sg27
I00
sg28
I5444555
sg20
S'13094.1873353'
p1465
sba(igraph
Edge
p1466
(dp1467
g7
I1
sg8
I00
sg9
I5
sg10
(lp1468
g586
ag712
asg26
I00
sg27
I00
sg28
I5444556
sg20
S'13094.1936196'
p1469
sba(igraph
Edge
p1470
(dp1471
g7
I1
sg8
I00
sg9
I5
sg10
(lp1472
g593
ag712
asg26
I00
sg27
I00
sg28
I5444557
sg20
S'13094.1998642'
p1473
sba(igraph
Edge
p1474
(dp1475
g7
I1
sg8
I00
sg9
I5
sg10
(lp1476
g600
ag726
asg26
I00
sg27
I00
sg28
I5444558
sg20
S'13094.2062013'
p1477
sba(igraph
Edge
p1478
(dp1479
g7
I1
sg8
I00
sg9
I5
sg10
(lp1480
g607
ag726
asg26
I00
sg27
I00
sg28
I5444559
sg20
S'13094.2125102'
p1481
sba(igraph
Edge
p1482
(dp1483
g7
I1
sg8
I00
sg9
I5
sg10
(lp1484
g499
ag621
asg26
I00
sg27
I00
sg28
I5444560
sg20
S'13094.2189505'
p1485
sba(igraph
Edge
p1486
(dp1487
g7
I1
sg8
I00
sg9
I5
sg10
(lp1488
g502
ag621
asg26
I00
sg27
I00
sg28
I5444561
sg20
S'13094.2252035'
p1489
sba(igraph
Edge
p1490
(dp1491
g7
I1
sg8
I00
sg9
I5
sg10
(lp1492
g509
ag635
asg26
I00
sg27
I00
sg28
I5444562
sg20
S'13094.2315476'
p1493
sba(igraph
Edge
p1494
(dp1495
g7
I1
sg8
I00
sg9
I5
sg10
(lp1496
g516
ag635
asg26
I00
sg27
I00
sg28
I5444563
sg20
S'13094.2378649'
p1497
sba(igraph
Edge
p1498
(dp1499
g7
I1
sg8
I00
sg9
I5
sg10
(lp1500
g523
ag649
asg26
I00
sg27
I00
sg28
I5444564
sg20
S'13094.2441827'
p1501
sba(igraph
Edge
p1502
(dp1503
g7
I1
sg8
I00
sg9
I5
sg10
(lp1504
g530
ag649
asg26
I00
sg27
I00
sg28
I5444565
sg20
S'13094.2505637'
p1505
sba(igraph
Edge
p1506
(dp1507
g7
I1
sg8
I00
sg9
I5
sg10
(lp1508
g537
ag663
asg26
I00
sg27
I00
sg28
I5444566
sg20
S'13094.2570162'
p1509
sba(igraph
Edge
p1510
(dp1511
g7
I1
sg8
I00
sg9
I5
sg10
(lp1512
g544
ag663
asg26
I00
sg27
I00
sg28
I5444567
sg20
S'13094.2634374'
p1513
sba(igraph
Edge
p1514
(dp1515
g7
I1
sg8
I00
sg9
I5
sg10
(lp1516
g551
ag677
asg26
I00
sg27
I00
sg28
I5444568
sg20
S'13094.2699282'
p1517
sba(igraph
Edge
p1518
(dp1519
g7
I1
sg8
I00
sg9
I5
sg10
(lp1520
g558
ag677
asg26
I00
sg27
I00
sg28
I5444569
sg20
S'13094.2763787'
p1521
sba(igraph
Edge
p1522
(dp1523
g7
I1
sg8
I00
sg9
I5
sg10
(lp1524
g565
ag691
asg26
I00
sg27
I00
sg28
I5444570
sg20
S'13094.2828994'
p1525
sba(igraph
Edge
p1526
(dp1527
g7
I1
sg8
I00
sg9
I5
sg10
(lp1528
g572
ag691
asg26
I00
sg27
I00
sg28
I5444571
sg20
S'13094.2894075'
p1529
sba(igraph
Edge
p1530
(dp1531
g7
I1
sg8
I00
sg9
I5
sg10
(lp1532
g579
ag705
asg26
I00
sg27
I00
sg28
I5444572
sg20
S'13094.2959312'
p1533
sba(igraph
Edge
p1534
(dp1535
g7
I1
sg8
I00
sg9
I5
sg10
(lp1536
g586
ag705
asg26
I00
sg27
I00
sg28
I5444573
sg20
S'13094.3025091'
p1537
sba(igraph
Edge
p1538
(dp1539
g7
I1
sg8
I00
sg9
I5
sg10
(lp1540
g593
ag719
asg26
I00
sg27
I00
sg28
I5444574
sg20
S'13094.3090734'
p1541
sba(igraph
Edge
p1542
(dp1543
g7
I1
sg8
I00
sg9
I5
sg10
(lp1544
g600
ag719
asg26
I00
sg27
I00
sg28
I5444575
sg20
S'13094.315658'
p1545
sba(igraph
Edge
p1546
(dp1547
g7
I1
sg8
I00
sg9
I5
sg10
(lp1548
g607
ag618
asg26
I00
sg27
I00
sg28
I5444576
sg20
S'13094.3224047'
p1549
sbasS'vertices'
p1550
(lp1551
g12
ag23
ag33
ag40
ag47
ag54
ag61
ag68
ag75
ag82
ag89
ag96
ag103
ag110
ag117
ag124
ag131
ag142
ag145
ag152
ag159
ag166
ag173
ag180
ag187
ag194
ag201
ag208
ag215
ag222
ag229
ag236
ag243
ag250
ag261
ag264
ag271
ag278
ag285
ag292
ag299
ag306
ag313
ag320
ag327
ag334
ag341
ag348
ag355
ag362
ag369
ag380
ag383
ag390
ag397
ag404
ag411
ag418
ag425
ag432
ag439
ag446
ag453
ag460
ag467
ag474
ag481
ag488
ag499
ag502
ag509
ag516
ag523
ag530
ag537
ag544
ag551
ag558
ag565
ag572
ag579
ag586
ag593
ag600
ag607
ag618
ag621
ag628
ag635
ag642
ag649
ag656
ag663
ag670
ag677
ag684
ag691
ag698
ag705
ag712
ag719
ag726
asS'tags'
p1552
(lp1553
sb.