(igraph
Graph
p0
(dp1
S'labelingConstraints'
p2
I-1
sS'edges'
p3
(lp4
(igraph
Edge
p5
(dp6
S'direction'
p7
I1
sS'selected'
p8
I00
sS'height'
p9
I5
sS'vs'
p10
(lp11
(igraph
Vertex
p12
(dp13
S'xnorm'
p14
F0.10000000000000002
sg8
I00
sS'label'
p15
S'NULL'
p16
sS'y'
p17
F-308.0
sS'x'
p18
F321.5
sS'circle'
p19
I3214474
sS'id'
p20
S'8037.89354038'
p21
sS'ynorm'
p22
F0.0
sba(igraph
Vertex
p23
(dp24
g14
F0.20000000000000004
sg8
I00
sg15
g16
sg17
F-308.0
sg18
F229.99999999999997
sg19
I3214475
sg20
S'8037.89356357'
p25
sg22
F0.0
sbasS'wrap'
p26
I00
sS'curved'
p27
I00
sS'line'
p28
I3213934
sg20
S'8038.05988806'
p29
sba(igraph
Edge
p30
(dp31
g7
I1
sg8
I00
sg9
I5
sg10
(lp32
g23
a(igraph
Vertex
p33
(dp34
g14
F0.3000000000000001
sg8
I00
sg15
g16
sg17
F-308.0
sg18
F138.49999999999989
sg19
I3214476
sg20
S'8037.8935915'
p35
sg22
F0.0
sbasg26
I00
sg27
I00
sg28
I3213935
sg20
S'8038.05996628'
p36
sba(igraph
Edge
p37
(dp38
g7
I1
sg8
I00
sg9
I5
sg10
(lp39
g33
a(igraph
Vertex
p40
(dp41
g14
F0.40000000000000008
sg8
I00
sg15
g16
sg17
F-308.0
sg18
F46.999999999999943
sg19
I3214477
sg20
S'8037.89362559'
p42
sg22
F0.0
sbasg26
I00
sg27
I00
sg28
I3213936
sg20
S'8038.06006629'
p43
sba(igraph
Edge
p44
(dp45
g7
I1
sg8
I00
sg9
I5
sg10
(lp46
g40
a(igraph
Vertex
p47
(dp48
g14
F0.50000000000000022
sg8
I00
sg15
g16
sg17
F-308.0
sg18
F-44.500000000000227
sg19
I3214478
sg20
S'8037.89366721'
p49
sg22
F0.0
sbasg26
I00
sg27
I00
sg28
I3213937
sg20
S'8038.06018642'
p50
sba(igraph
Edge
p51
(dp52
g7
I1
sg8
I00
sg9
I5
sg10
(lp53
g47
a(igraph
Vertex
p54
(dp55
g14
F0.59999999999999998
sg8
I00
sg15
g16
sg17
F-308.0
sg18
F-136.0
sg19
I3214479
sg20
S'8037.89371694'
p56
sg22
F0.0
sbasg26
I00
sg27
I00
sg28
I3213938
sg20
S'8038.06032973'
p57
sba(igraph
Edge
p58
(dp59
g7
I1
sg8
I00
sg9
I5
sg10
(lp60
g54
a(igraph
Vertex
p61
(dp62
g14
F0.70000000000000007
sg8
I00
sg15
g16
sg17
F-308.0
sg18
F-227.50000000000011
sg19
I3214480
sg20
S'8037.89377281'
p63
sg22
F0.0
sbasg26
I00
sg27
I00
sg28
I3213939
sg20
S'8038.06049372'
p64
sba(igraph
Edge
p65
(dp66
g7
I1
sg8
I00
sg9
I5
sg10
(lp67
g61
a(igraph
Vertex
p68
(dp69
g14
F0.80000000000000004
sg8
I00
sg15
g16
sg17
F-308.0
sg18
F-319.0
sg19
I3214481
sg20
S'8037.89383623'
p70
sg22
F0.0
sbasg26
I00
sg27
I00
sg28
I3213940
sg20
S'8038.06068062'
p71
sba(igraph
Edge
p72
(dp73
g7
I1
sg8
I00
sg9
I5
sg10
(lp74
g68
a(igraph
Vertex
p75
(dp76
g14
F0.90000000000000002
sg8
I00
sg15
g16
sg17
F-308.0
sg18
F-410.5
sg19
I3214482
sg20
S'8037.89390775'
p77
sg22
F0.0
sbasg26
I00
sg27
I00
sg28
I3213941
sg20
S'8038.06088819'
p78
sba(igraph
Edge
p79
(dp80
g7
I1
sg8
I00
sg9
I5
sg10
(lp81
g75
a(igraph
Vertex
p82
(dp83
g14
F1.0
sg8
I00
sg15
g16
sg17
F-308.0
sg18
F-502.0
sg19
I3214483
sg20
S'8037.89398653'
p84
sg22
F0.0
sbasg26
I00
sg27
I00
sg28
I3213942
sg20
S'8038.06111838'
p85
sba(igraph
Edge
p86
(dp87
g7
I1
sg8
I00
sg9
I5
sg10
(lp88
(igraph
Vertex
p89
(dp90
g14
F0.10000000000000002
sg8
I00
sg15
g16
sg17
F-270.91935483870969
sg18
F321.5
sg19
I3214484
sg20
S'8037.89416755'
p91
sg22
F0.0591397849462365
sba(igraph
Vertex
p92
(dp93
g14
F0.20000000000000004
sg8
I01
sg15
I0
sg17
F-270.91935483870969
sg18
F229.99999999999997
sg19
I3214486
sg20
S'8037.89426924'
p94
sg22
F0.0591397849462365
sbasg26
I00
sg27
I00
sg28
I3213943
sg20
S'8038.06193748'
p95
sba(igraph
Edge
p96
(dp97
g7
I1
sg8
I00
sg9
I5
sg10
(lp98
g92
a(igraph
Vertex
p99
(dp100
g14
F0.3000000000000001
sg8
I00
sg15
g16
sg17
F-270.91935483870969
sg18
F138.49999999999989
sg19
I3214488
sg20
S'8037.89437903'
p101
sg22
F0.0591397849462365
sbasg26
I00
sg27
I00
sg28
I3213944
sg20
S'8038.06225512'
p102
sba(igraph
Edge
p103
(dp104
g7
I1
sg8
I00
sg9
I5
sg10
(lp105
g99
a(igraph
Vertex
p106
(dp107
g14
F0.40000000000000008
sg8
I00
sg15
g16
sg17
F-270.91935483870969
sg18
F46.999999999999943
sg19
I3214489
sg20
S'8037.89449693'
p108
sg22
F0.0591397849462365
sbasg26
I00
sg27
I00
sg28
I3213945
sg20
S'8038.06259371'
p109
sba(igraph
Edge
p110
(dp111
g7
I1
sg8
I00
sg9
I5
sg10
(lp112
g106
a(igraph
Vertex
p113
(dp114
g14
F0.50000000000000022
sg8
I00
sg15
g16
sg17
F-270.91935483870969
sg18
F-44.500000000000227
sg19
I3214490
sg20
S'8037.89473634'
p115
sg22
F0.0591397849462365
sbasg26
I00
sg27
I00
sg28
I3213946
sg20
S'8038.06295409'
p116
sba(igraph
Edge
p117
(dp118
g7
I1
sg8
I00
sg9
I5
sg10
(lp119
g113
a(igraph
Vertex
p120
(dp121
g14
F0.59999999999999998
sg8
I00
sg15
g16
sg17
F-270.91935483870969
sg18
F-136.0
sg19
I3214491
sg20
S'8037.89487435'
p122
sg22
F0.0591397849462365
sbasg26
I00
sg27
I00
sg28
I3213947
sg20
S'8038.06333626'
p123
sba(igraph
Edge
p124
(dp125
g7
I1
sg8
I00
sg9
I5
sg10
(lp126
g120
a(igraph
Vertex
p127
(dp128
g14
F0.70000000000000007
sg8
I00
sg15
g16
sg17
F-270.91935483870969
sg18
F-227.50000000000011
sg19
I3214492
sg20
S'8037.8950199'
p129
sg22
F0.0591397849462365
sbasg26
I00
sg27
I00
sg28
I3213948
sg20
S'8038.06373994'
p130
sba(igraph
Edge
p131
(dp132
g7
I1
sg8
I00
sg9
I5
sg10
(lp133
g127
a(igraph
Vertex
p134
(dp135
g14
F0.80000000000000004
sg8
I00
sg15
g16
sg17
F-270.91935483870969
sg18
F-319.0
sg19
I3214493
sg20
S'8037.89517215'
p136
sg22
F0.0591397849462365
sbasg26
I00
sg27
I00
sg28
I3213949
sg20
S'8038.06416654'
p137
sba(igraph
Edge
p138
(dp139
g7
I1
sg8
I00
sg9
I5
sg10
(lp140
g134
a(igraph
Vertex
p141
(dp142
g14
F0.90000000000000002
sg8
I00
sg15
g16
sg17
F-270.91935483870969
sg18
F-410.5
sg19
I3214494
sg20
S'8037.89532832'
p143
sg22
F0.0591397849462365
sbasg26
I00
sg27
I00
sg28
I3213950
sg20
S'8038.06461436'
p144
sba(igraph
Edge
p145
(dp146
g7
I1
sg8
I00
sg9
I5
sg10
(lp147
g141
a(igraph
Vertex
p148
(dp149
g14
F1.0
sg8
I00
sg15
g16
sg17
F-270.91935483870969
sg18
F-502.0
sg19
I3214495
sg20
S'8037.89549426'
p150
sg22
F0.0591397849462365
sbasg26
I00
sg27
I00
sg28
I3213951
sg20
S'8038.06508425'
p151
sba(igraph
Edge
p152
(dp153
g7
I1
sg8
I00
sg9
I5
sg10
(lp154
(igraph
Vertex
p155
(dp156
g14
F0.10000000000000002
sg8
I01
sg15
I0
sg17
F-233.83870967741933
sg18
F321.5
sg19
I3214497
sg20
S'8037.89585324'
p157
sg22
F0.11827956989247314
sba(igraph
Vertex
p158
(dp159
g14
F0.20000000000000004
sg8
I00
sg15
g16
sg17
F-233.83870967741933
sg18
F229.99999999999997
sg19
I3214499
sg20
S'8037.89604349'
p160
sg22
F0.11827956989247314
sbasg26
I00
sg27
I00
sg28
I3213952
sg20
S'8038.06662215'
p161
sba(igraph
Edge
p162
(dp163
g7
I1
sg8
I00
sg9
I5
sg10
(lp164
g158
a(igraph
Vertex
p165
(dp166
g14
F0.3000000000000001
sg8
I00
sg15
g16
sg17
F-233.83870967741933
sg18
F138.49999999999989
sg19
I3214500
sg20
S'8037.89624072'
p167
sg22
F0.11827956989247314
sbasg26
I00
sg27
I00
sg28
I3213953
sg20
S'8038.06717781'
p168
sba(igraph
Edge
p169
(dp170
g7
I1
sg8
I00
sg9
I5
sg10
(lp171
g165
a(igraph
Vertex
p172
(dp173
g14
F0.40000000000000008
sg8
I00
sg15
g16
sg17
F-233.83870967741933
sg18
F46.999999999999943
sg19
I3214501
sg20
S'8037.89644634'
p174
sg22
F0.11827956989247314
sbasg26
I00
sg27
I00
sg28
I3213954
sg20
S'8038.0677547'
p175
sba(igraph
Edge
p176
(dp177
g7
I1
sg8
I00
sg9
I5
sg10
(lp178
g172
a(igraph
Vertex
p179
(dp180
g14
F0.50000000000000022
sg8
I00
sg15
g16
sg17
F-233.83870967741933
sg18
F-44.500000000000227
sg19
I3214502
sg20
S'8037.89666145'
p181
sg22
F0.11827956989247314
sbasg26
I00
sg27
I00
sg28
I3213955
sg20
S'8038.06835478'
p182
sba(igraph
Edge
p183
(dp184
g7
I1
sg8
I00
sg9
I5
sg10
(lp185
g179
a(igraph
Vertex
p186
(dp187
g14
F0.59999999999999998
sg8
I00
sg15
g16
sg17
F-233.83870967741933
sg18
F-136.0
sg19
I3214503
sg20
S'8037.89688298'
p188
sg22
F0.11827956989247314
sbasg26
I00
sg27
I00
sg28
I3213956
sg20
S'8038.06897664'
p189
sba(igraph
Edge
p190
(dp191
g7
I1
sg8
I00
sg9
I5
sg10
(lp192
g186
a(igraph
Vertex
p193
(dp194
g14
F0.70000000000000007
sg8
I00
sg15
g16
sg17
F-233.83870967741933
sg18
F-227.50000000000011
sg19
I3214504
sg20
S'8037.89711206'
p195
sg22
F0.11827956989247314
sbasg26
I00
sg27
I00
sg28
I3213957
sg20
S'8038.0700712'
p196
sba(igraph
Edge
p197
(dp198
g7
I1
sg8
I00
sg9
I5
sg10
(lp199
g193
a(igraph
Vertex
p200
(dp201
g14
F0.80000000000000004
sg8
I00
sg15
g16
sg17
F-233.83870967741933
sg18
F-319.0
sg19
I3214505
sg20
S'8037.89734701'
p202
sg22
F0.11827956989247314
sbasg26
I00
sg27
I00
sg28
I3213958
sg20
S'8038.07074139'
p203
sba(igraph
Edge
p204
(dp205
g7
I1
sg8
I00
sg9
I5
sg10
(lp206
g200
a(igraph
Vertex
p207
(dp208
g14
F0.90000000000000002
sg8
I00
sg15
g16
sg17
F-233.83870967741933
sg18
F-410.5
sg19
I3214506
sg20
S'8037.89759062'
p209
sg22
F0.11827956989247314
sbasg26
I00
sg27
I00
sg28
I3213959
sg20
S'8038.07142668'
p210
sba(igraph
Edge
p211
(dp212
g7
I1
sg8
I00
sg9
I5
sg10
(lp213
g207
a(igraph
Vertex
p214
(dp215
g14
F1.0
sg8
I00
sg15
g16
sg17
F-233.83870967741933
sg18
F-502.0
sg19
I3214507
sg20
S'8037.8978426'
p216
sg22
F0.11827956989247314
sbasg26
I00
sg27
I00
sg28
I3213960
sg20
S'8038.07213487'
p217
sba(igraph
Edge
p218
(dp219
g7
I1
sg8
I00
sg9
I5
sg10
(lp220
(igraph
Vertex
p221
(dp222
g14
F0.10000000000000002
sg8
I00
sg15
g16
sg17
F-196.75806451612902
sg18
F321.5
sg19
I3214508
sg20
S'8037.89836753'
p223
sg22
F0.17741935483870971
sba(igraph
Vertex
p224
(dp225
g14
F0.20000000000000004
sg8
I00
sg15
g16
sg17
F-196.75806451612902
sg18
F229.99999999999997
sg19
I3214509
sg20
S'8037.89864382'
p226
sg22
F0.17741935483870971
sbasg26
I00
sg27
I00
sg28
I3213961
sg20
S'8038.074417'
p227
sba(igraph
Edge
p228
(dp229
g7
I1
sg8
I00
sg9
I5
sg10
(lp230
g224
a(igraph
Vertex
p231
(dp232
g14
F0.3000000000000001
sg8
I01
sg15
I0
sg17
F-196.75806451612902
sg18
F138.49999999999989
sg19
I3214511
sg20
S'8037.8989285'
p233
sg22
F0.17741935483870971
sbasg26
I00
sg27
I00
sg28
I3213962
sg20
S'8038.07522409'
p234
sba(igraph
Edge
p235
(dp236
g7
I1
sg8
I00
sg9
I5
sg10
(lp237
g231
a(igraph
Vertex
p238
(dp239
g14
F0.40000000000000008
sg8
I00
sg15
g16
sg17
F-196.75806451612902
sg18
F46.999999999999943
sg19
I3214513
sg20
S'8037.89921931'
p240
sg22
F0.17741935483870971
sbasg26
I00
sg27
I00
sg28
I3213963
sg20
S'8038.07604123'
p241
sba(igraph
Edge
p242
(dp243
g7
I1
sg8
I00
sg9
I5
sg10
(lp244
g238
a(igraph
Vertex
p245
(dp246
g14
F0.50000000000000022
sg8
I00
sg15
g16
sg17
F-196.75806451612902
sg18
F-44.500000000000227
sg19
I3214514
sg20
S'8037.89951963'
p247
sg22
F0.17741935483870971
sbasg26
I00
sg27
I00
sg28
I3213964
sg20
S'8038.07689357'
p248
sba(igraph
Edge
p249
(dp250
g7
I1
sg8
I00
sg9
I5
sg10
(lp251
g245
a(igraph
Vertex
p252
(dp253
g14
F0.59999999999999998
sg8
I00
sg15
g16
sg17
F-196.75806451612902
sg18
F-136.0
sg19
I3214515
sg20
S'8037.89982637'
p254
sg22
F0.17741935483870971
sbasg26
I00
sg27
I00
sg28
I3213965
sg20
S'8038.07775849'
p255
sba(igraph
Edge
p256
(dp257
g7
I1
sg8
I00
sg9
I5
sg10
(lp258
g252
a(igraph
Vertex
p259
(dp260
g14
F0.70000000000000007
sg8
I00
sg15
g16
sg17
F-196.75806451612902
sg18
F-227.50000000000011
sg19
I3214516
sg20
S'8037.90014178'
p261
sg22
F0.17741935483870971
sbasg26
I00
sg27
I00
sg28
I3213966
sg20
S'8038.07864491'
p262
sba(igraph
Edge
p263
(dp264
g7
I1
sg8
I00
sg9
I5
sg10
(lp265
g259
a(igraph
Vertex
p266
(dp267
g14
F0.80000000000000004
sg8
I00
sg15
g16
sg17
F-196.75806451612902
sg18
F-319.0
sg19
I3214517
sg20
S'8037.90055384'
p268
sg22
F0.17741935483870971
sbasg26
I00
sg27
I00
sg28
I3213967
sg20
S'8038.07955313'
p269
sba(igraph
Edge
p270
(dp271
g7
I1
sg8
I00
sg9
I5
sg10
(lp272
g266
a(igraph
Vertex
p273
(dp274
g14
F0.90000000000000002
sg8
I00
sg15
g16
sg17
F-196.75806451612902
sg18
F-410.5
sg19
I3214518
sg20
S'8037.9008969'
p275
sg22
F0.17741935483870971
sbasg26
I00
sg27
I00
sg28
I3213968
sg20
S'8038.08053482'
p276
sba(igraph
Edge
p277
(dp278
g7
I1
sg8
I00
sg9
I5
sg10
(lp279
g273
a(igraph
Vertex
p280
(dp281
g14
F1.0
sg8
I00
sg15
g16
sg17
F-196.75806451612902
sg18
F-502.0
sg19
I3214519
sg20
S'8037.9012489'
p282
sg22
F0.17741935483870971
sbasg26
I00
sg27
I00
sg28
I3213969
sg20
S'8038.08154724'
p283
sba(igraph
Edge
p284
(dp285
g7
I1
sg8
I00
sg9
I5
sg10
(lp286
(igraph
Vertex
p287
(dp288
g14
F0.10000000000000002
sg8
I00
sg15
g16
sg17
F-159.67741935483869
sg18
F321.5
sg19
I3214520
sg20
S'8037.90196268'
p289
sg22
F0.23655913978494628
sba(igraph
Vertex
p290
(dp291
g14
F0.20000000000000004
sg8
I00
sg15
g16
sg17
F-159.67741935483869
sg18
F229.99999999999997
sg19
I3214521
sg20
S'8037.90233535'
p292
sg22
F0.23655913978494628
sbasg26
I00
sg27
I00
sg28
I3213970
sg20
S'8038.0845208'
p293
sba(igraph
Edge
p294
(dp295
g7
I1
sg8
I00
sg9
I5
sg10
(lp296
g290
a(igraph
Vertex
p297
(dp298
g14
F0.3000000000000001
sg8
I00
sg15
g16
sg17
F-159.67741935483869
sg18
F138.49999999999989
sg19
I3214522
sg20
S'8037.90273568'
p299
sg22
F0.23655913978494628
sbasg26
I00
sg27
I00
sg28
I3213971
sg20
S'8038.08555417'
p300
sba(igraph
Edge
p301
(dp302
g7
I1
sg8
I00
sg9
I5
sg10
(lp303
g297
a(igraph
Vertex
p304
(dp305
g14
F0.40000000000000008
sg8
I00
sg15
g16
sg17
F-159.67741935483869
sg18
F46.999999999999943
sg19
I3214523
sg20
S'8037.90312316'
p306
sg22
F0.23655913978494628
sbasg26
I00
sg27
I00
sg28
I3213972
sg20
S'8038.0866856'
p307
sba(igraph
Edge
p308
(dp309
g7
I1
sg8
I00
sg9
I5
sg10
(lp310
g304
a(igraph
Vertex
p311
(dp312
g14
F0.50000000000000022
sg8
I00
sg15
g16
sg17
F-159.67741935483869
sg18
F-44.500000000000227
sg19
I3214524
sg20
S'8037.90351791'
p313
sg22
F0.23655913978494628
sbasg26
I00
sg27
I00
sg28
I3213973
sg20
S'8038.08778602'
p314
sba(igraph
Edge
p315
(dp316
g7
I1
sg8
I00
sg9
I5
sg10
(lp317
g311
a(igraph
Vertex
p318
(dp319
g14
F0.59999999999999998
sg8
I00
sg15
g16
sg17
F-159.67741935483869
sg18
F-136.0
sg19
I3214525
sg20
S'8037.90391656'
p320
sg22
F0.23655913978494628
sbasg26
I00
sg27
I00
sg28
I3213974
sg20
S'8038.08889789'
p321
sba(igraph
Edge
p322
(dp323
g7
I1
sg8
I00
sg9
I5
sg10
(lp324
g318
a(igraph
Vertex
p325
(dp326
g14
F0.70000000000000007
sg8
I00
sg15
g16
sg17
F-159.67741935483869
sg18
F-227.50000000000011
sg19
I3214526
sg20
S'8037.90432331'
p327
sg22
F0.23655913978494628
sbasg26
I00
sg27
I00
sg28
I3213975
sg20
S'8038.09002429'
p328
sba(igraph
Edge
p329
(dp330
g7
I1
sg8
I00
sg9
I5
sg10
(lp331
g325
a(igraph
Vertex
p332
(dp333
g14
F0.80000000000000004
sg8
I00
sg15
g16
sg17
F-159.67741935483869
sg18
F-319.0
sg19
I3214527
sg20
S'8037.90473901'
p334
sg22
F0.23655913978494628
sbasg26
I00
sg27
I00
sg28
I3213976
sg20
S'8038.09117192'
p335
sba(igraph
Edge
p336
(dp337
g7
I1
sg8
I00
sg9
I5
sg10
(lp338
g332
a(igraph
Vertex
p339
(dp340
g14
F0.90000000000000002
sg8
I00
sg15
g16
sg17
F-159.67741935483869
sg18
F-410.5
sg19
I3214528
sg20
S'8037.90516057'
p341
sg22
F0.23655913978494628
sbasg26
I00
sg27
I00
sg28
I3213977
sg20
S'8038.09235112'
p342
sba(igraph
Edge
p343
(dp344
g7
I1
sg8
I00
sg9
I5
sg10
(lp345
g339
a(igraph
Vertex
p346
(dp347
g14
F1.0
sg8
I00
sg15
g16
sg17
F-159.67741935483869
sg18
F-502.0
sg19
I3214529
sg20
S'8037.90559331'
p348
sg22
F0.23655913978494628
sbasg26
I00
sg27
I00
sg28
I3213978
sg20
S'8038.09356664'
p349
sba(igraph
Edge
p350
(dp351
g7
I1
sg8
I00
sg9
I5
sg10
(lp352
(igraph
Vertex
p353
(dp354
g14
F0.10000000000000002
sg8
I00
sg15
g16
sg17
F-122.59677419354841
sg18
F321.5
sg19
I3214530
sg20
S'8037.90650627'
p355
sg22
F0.29569892473118276
sba(igraph
Vertex
p356
(dp357
g14
F0.20000000000000004
sg8
I00
sg15
g16
sg17
F-122.59677419354841
sg18
F229.99999999999997
sg19
I3214531
sg20
S'8037.90697896'
p358
sg22
F0.29569892473118276
sbasg26
I00
sg27
I00
sg28
I3213979
sg20
S'8038.09723945'
p359
sba(igraph
Edge
p360
(dp361
g7
I1
sg8
I00
sg9
I5
sg10
(lp362
g356
a(igraph
Vertex
p363
(dp364
g14
F0.3000000000000001
sg8
I00
sg15
g16
sg17
F-122.59677419354841
sg18
F138.49999999999989
sg19
I3214532
sg20
S'8037.907455'
p365
sg22
F0.29569892473118276
sbasg26
I00
sg27
I00
sg28
I3213980
sg20
S'8038.09860248'
p366
sba(igraph
Edge
p367
(dp368
g7
I1
sg8
I00
sg9
I5
sg10
(lp369
g363
a(igraph
Vertex
p370
(dp371
g14
F0.40000000000000008
sg8
I01
sg15
I0
sg17
F-122.59677419354841
sg18
F46.999999999999943
sg19
I3214534
sg20
S'8037.90793299'
p372
sg22
F0.29569892473118276
sbasg26
I00
sg27
I00
sg28
I3213981
sg20
S'8038.09991801'
p373
sba(igraph
Edge
p374
(dp375
g7
I1
sg8
I00
sg9
I5
sg10
(lp376
g370
a(igraph
Vertex
p377
(dp378
g14
F0.50000000000000022
sg8
I00
sg15
g16
sg17
F-122.59677419354841
sg18
F-44.500000000000227
sg19
I3214536
sg20
S'8037.90842188'
p379
sg22
F0.29569892473118276
sbasg26
I00
sg27
I00
sg28
I3213982
sg20
S'8038.10126706'
p380
sba(igraph
Edge
p381
(dp382
g7
I1
sg8
I00
sg9
I5
sg10
(lp383
g377
a(igraph
Vertex
p384
(dp385
g14
F0.59999999999999998
sg8
I00
sg15
g16
sg17
F-122.59677419354841
sg18
F-136.0
sg19
I3214537
sg20
S'8037.90891217'
p386
sg22
F0.29569892473118276
sbasg26
I00
sg27
I00
sg28
I3213983
sg20
S'8038.1026502'
p387
sba(igraph
Edge
p388
(dp389
g7
I1
sg8
I00
sg9
I5
sg10
(lp390
g384
a(igraph
Vertex
p391
(dp392
g14
F0.70000000000000007
sg8
I00
sg15
g16
sg17
F-122.59677419354841
sg18
F-227.50000000000011
sg19
I3214538
sg20
S'8037.90941614'
p393
sg22
F0.29569892473118276
sbasg26
I00
sg27
I00
sg28
I3213984
sg20
S'8038.10404954'
p394
sba(igraph
Edge
p395
(dp396
g7
I1
sg8
I00
sg9
I5
sg10
(lp397
g391
a(igraph
Vertex
p398
(dp399
g14
F0.80000000000000004
sg8
I00
sg15
g16
sg17
F-122.59677419354841
sg18
F-319.0
sg19
I3214539
sg20
S'8037.90992095'
p400
sg22
F0.29569892473118276
sbasg26
I00
sg27
I00
sg28
I3213985
sg20
S'8038.10543547'
p401
sba(igraph
Edge
p402
(dp403
g7
I1
sg8
I00
sg9
I5
sg10
(lp404
g398
a(igraph
Vertex
p405
(dp406
g14
F0.90000000000000002
sg8
I00
sg15
g16
sg17
F-122.59677419354841
sg18
F-410.5
sg19
I3214540
sg20
S'8037.91044225'
p407
sg22
F0.29569892473118276
sbasg26
I00
sg27
I00
sg28
I3213986
sg20
S'8038.10683118'
p408
sba(igraph
Edge
p409
(dp410
g7
I1
sg8
I00
sg9
I5
sg10
(lp411
g405
a(igraph
Vertex
p412
(dp413
g14
F1.0
sg8
I00
sg15
g16
sg17
F-122.59677419354841
sg18
F-502.0
sg19
I3214541
sg20
S'8037.91096299'
p414
sg22
F0.29569892473118276
sbasg26
I00
sg27
I00
sg28
I3213987
sg20
S'8038.10825063'
p415
sba(igraph
Edge
p416
(dp417
g7
I1
sg8
I00
sg9
I5
sg10
(lp418
(igraph
Vertex
p419
(dp420
g14
F0.10000000000000002
sg8
I00
sg15
g16
sg17
F-85.516129032258021
sg18
F321.5
sg19
I3214542
sg20
S'8037.91202541'
p421
sg22
F0.35483870967741943
sba(igraph
Vertex
p422
(dp423
g14
F0.20000000000000004
sg8
I00
sg15
g16
sg17
F-85.516129032258021
sg18
F229.99999999999997
sg19
I3214543
sg20
S'8037.91264337'
p424
sg22
F0.35483870967741943
sbasg26
I00
sg27
I00
sg28
I3213988
sg20
S'8038.11275316'
p425
sba(igraph
Edge
p426
(dp427
g7
I1
sg8
I00
sg9
I5
sg10
(lp428
g422
a(igraph
Vertex
p429
(dp430
g14
F0.3000000000000001
sg8
I00
sg15
g16
sg17
F-85.516129032258021
sg18
F138.49999999999989
sg19
I3214544
sg20
S'8037.91322361'
p431
sg22
F0.35483870967741943
sbasg26
I00
sg27
I00
sg28
I3213989
sg20
S'8038.1143028'
p432
sba(igraph
Edge
p433
(dp434
g7
I1
sg8
I00
sg9
I5
sg10
(lp435
g429
a(igraph
Vertex
p436
(dp437
g14
F0.40000000000000008
sg8
I00
sg15
g16
sg17
F-85.516129032258021
sg18
F46.999999999999943
sg19
I3214545
sg20
S'8037.91378541'
p438
sg22
F0.35483870967741943
sbasg26
I00
sg27
I00
sg28
I3213990
sg20
S'8038.11584852'
p439
sba(igraph
Edge
p440
(dp441
g7
I1
sg8
I00
sg9
I5
sg10
(lp442
g436
a(igraph
Vertex
p443
(dp444
g14
F0.50000000000000022
sg8
I00
sg15
g16
sg17
F-85.516129032258021
sg18
F-44.500000000000227
sg19
I3214546
sg20
S'8037.9143528'
p445
sg22
F0.35483870967741943
sbasg26
I00
sg27
I00
sg28
I3213991
sg20
S'8038.11743699'
p446
sba(igraph
Edge
p447
(dp448
g7
I1
sg8
I00
sg9
I5
sg10
(lp449
g443
a(igraph
Vertex
p450
(dp451
g14
F0.59999999999999998
sg8
I00
sg15
g16
sg17
F-85.516129032258021
sg18
F-136.0
sg19
I3214547
sg20
S'8037.91493444'
p452
sg22
F0.35483870967741943
sbasg26
I00
sg27
I00
sg28
I3213992
sg20
S'8038.11906737'
p453
sba(igraph
Edge
p454
(dp455
g7
I1
sg8
I00
sg9
I5
sg10
(lp456
g450
a(igraph
Vertex
p457
(dp458
g14
F0.70000000000000007
sg8
I00
sg15
g16
sg17
F-85.516129032258021
sg18
F-227.50000000000011
sg19
I3214548
sg20
S'8037.91552167'
p459
sg22
F0.35483870967741943
sbasg26
I00
sg27
I00
sg28
I3213993
sg20
S'8038.12068545'
p460
sba(igraph
Edge
p461
(dp462
g7
I1
sg8
I00
sg9
I5
sg10
(lp463
g457
a(igraph
Vertex
p464
(dp465
g14
F0.80000000000000004
sg8
I00
sg15
g16
sg17
F-85.516129032258021
sg18
F-319.0
sg19
I3214549
sg20
S'8037.91616141'
p466
sg22
F0.35483870967741943
sbasg26
I00
sg27
I00
sg28
I3213994
sg20
S'8038.12244796'
p467
sba(igraph
Edge
p468
(dp469
g7
I1
sg8
I00
sg9
I5
sg10
(lp470
g464
a(igraph
Vertex
p471
(dp472
g14
F0.90000000000000002
sg8
I00
sg15
g16
sg17
F-85.516129032258021
sg18
F-410.5
sg19
I3214550
sg20
S'8037.916764'
p473
sg22
F0.35483870967741943
sbasg26
I00
sg27
I00
sg28
I3213995
sg20
S'8038.12410935'
p474
sba(igraph
Edge
p475
(dp476
g7
I1
sg8
I00
sg9
I5
sg10
(lp477
g471
a(igraph
Vertex
p478
(dp479
g14
F1.0
sg8
I00
sg15
g16
sg17
F-85.516129032258021
sg18
F-502.0
sg19
I3214551
sg20
S'8037.91743643'
p480
sg22
F0.35483870967741943
sbasg26
I00
sg27
I00
sg28
I3213996
sg20
S'8038.12579336'
p481
sba(igraph
Edge
p482
(dp483
g7
I1
sg8
I00
sg9
I5
sg10
(lp484
(igraph
Vertex
p485
(dp486
g14
F0.10000000000000002
sg8
I00
sg15
g16
sg17
F-48.435483870967744
sg18
F321.5
sg19
I3214552
sg20
S'8037.91870391'
p487
sg22
F0.41397849462365588
sba(igraph
Vertex
p488
(dp489
g14
F0.20000000000000004
sg8
I00
sg15
g16
sg17
F-48.435483870967744
sg18
F229.99999999999997
sg19
I3214553
sg20
S'8037.91935092'
p490
sg22
F0.41397849462365588
sbasg26
I00
sg27
I00
sg28
I3213997
sg20
S'8038.13099402'
p491
sba(igraph
Edge
p492
(dp493
g7
I1
sg8
I00
sg9
I5
sg10
(lp494
g488
a(igraph
Vertex
p495
(dp496
g14
F0.3000000000000001
sg8
I00
sg15
g16
sg17
F-48.435483870967744
sg18
F138.49999999999989
sg19
I3214554
sg20
S'8037.92001777'
p497
sg22
F0.41397849462365588
sbasg26
I00
sg27
I00
sg28
I3213998
sg20
S'8038.13277079'
p498
sba(igraph
Edge
p499
(dp500
g7
I1
sg8
I00
sg9
I5
sg10
(lp501
g495
a(igraph
Vertex
p502
(dp503
g14
F0.40000000000000008
sg8
I00
sg15
g16
sg17
F-48.435483870967744
sg18
F46.999999999999943
sg19
I3214555
sg20
S'8037.92068377'
p504
sg22
F0.41397849462365588
sbasg26
I00
sg27
I00
sg28
I3213999
sg20
S'8038.13461348'
p505
sba(igraph
Edge
p506
(dp507
g7
I1
sg8
I00
sg9
I5
sg10
(lp508
g502
a(igraph
Vertex
p509
(dp510
g14
F0.50000000000000022
sg8
I01
sg15
I0
sg17
F-48.435483870967744
sg18
F-44.500000000000227
sg19
I3214557
sg20
S'8037.92135006'
p511
sg22
F0.41397849462365588
sbasg26
I00
sg27
I00
sg28
I3214000
sg20
S'8038.13644388'
p512
sba(igraph
Edge
p513
(dp514
g7
I1
sg8
I00
sg9
I5
sg10
(lp515
g509
a(igraph
Vertex
p516
(dp517
g14
F0.59999999999999998
sg8
I00
sg15
g16
sg17
F-48.435483870967744
sg18
F-136.0
sg19
I3214559
sg20
S'8037.92202948'
p518
sg22
F0.41397849462365588
sbasg26
I00
sg27
I00
sg28
I3214001
sg20
S'8038.13825472'
p519
sba(igraph
Edge
p520
(dp521
g7
I1
sg8
I00
sg9
I5
sg10
(lp522
g516
a(igraph
Vertex
p523
(dp524
g14
F0.70000000000000007
sg8
I00
sg15
g16
sg17
F-48.435483870967744
sg18
F-227.50000000000011
sg19
I3214560
sg20
S'8037.92271057'
p525
sg22
F0.41397849462365588
sbasg26
I00
sg27
I00
sg28
I3214002
sg20
S'8038.14013848'
p526
sba(igraph
Edge
p527
(dp528
g7
I1
sg8
I00
sg9
I5
sg10
(lp529
g523
a(igraph
Vertex
p530
(dp531
g14
F0.80000000000000004
sg8
I00
sg15
g16
sg17
F-48.435483870967744
sg18
F-319.0
sg19
I3214561
sg20
S'8037.92340842'
p532
sg22
F0.41397849462365588
sbasg26
I00
sg27
I00
sg28
I3214003
sg20
S'8038.14202531'
p533
sba(igraph
Edge
p534
(dp535
g7
I1
sg8
I00
sg9
I5
sg10
(lp536
g530
a(igraph
Vertex
p537
(dp538
g14
F0.90000000000000002
sg8
I00
sg15
g16
sg17
F-48.435483870967744
sg18
F-410.5
sg19
I3214562
sg20
S'8037.92415796'
p539
sg22
F0.41397849462365588
sbasg26
I00
sg27
I00
sg28
I3214004
sg20
S'8038.14389902'
p540
sba(igraph
Edge
p541
(dp542
g7
I1
sg8
I00
sg9
I5
sg10
(lp543
g537
a(igraph
Vertex
p544
(dp545
g14
F1.0
sg8
I00
sg15
g16
sg17
F-48.435483870967744
sg18
F-502.0
sg19
I3214563
sg20
S'8037.92486475'
p546
sg22
F0.41397849462365588
sbasg26
I00
sg27
I00
sg28
I3214005
sg20
S'8038.14583613'
p547
sba(igraph
Edge
p548
(dp549
g7
I1
sg8
I00
sg9
I5
sg10
(lp550
(igraph
Vertex
p551
(dp552
g14
F0.10000000000000002
sg8
I00
sg15
g16
sg17
F-11.354838709677381
sg18
F321.5
sg19
I3214564
sg20
S'8037.92630767'
p553
sg22
F0.4731182795698925
sba(igraph
Vertex
p554
(dp555
g14
F0.20000000000000004
sg8
I00
sg15
g16
sg17
F-11.354838709677381
sg18
F229.99999999999997
sg19
I3214565
sg20
S'8037.92704101'
p556
sg22
F0.4731182795698925
sbasg26
I00
sg27
I00
sg28
I3214006
sg20
S'8038.15162905'
p557
sba(igraph
Edge
p558
(dp559
g7
I1
sg8
I00
sg9
I5
sg10
(lp560
g554
a(igraph
Vertex
p561
(dp562
g14
F0.3000000000000001
sg8
I00
sg15
g16
sg17
F-11.354838709677381
sg18
F138.49999999999989
sg19
I3214566
sg20
S'8037.92777853'
p563
sg22
F0.4731182795698925
sbasg26
I00
sg27
I00
sg28
I3214007
sg20
S'8038.15369747'
p564
sba(igraph
Edge
p565
(dp566
g7
I1
sg8
I00
sg9
I5
sg10
(lp567
g561
a(igraph
Vertex
p568
(dp569
g14
F0.40000000000000008
sg8
I01
sg15
I0
sg17
F-11.354838709677381
sg18
F46.999999999999943
sg19
I3214568
sg20
S'8037.92852779'
p570
sg22
F0.4731182795698925
sbasg26
I00
sg27
I00
sg28
I3214008
sg20
S'8038.15569605'
p571
sba(igraph
Edge
p572
(dp573
g7
I1
sg8
I00
sg9
I5
sg10
(lp574
g568
a(igraph
Vertex
p575
(dp576
g14
F0.50000000000000022
sg8
I00
sg15
g16
sg17
F-11.354838709677381
sg18
F-44.500000000000227
sg19
I3214570
sg20
S'8037.92928766'
p577
sg22
F0.4731182795698925
sbasg26
I00
sg27
I00
sg28
I3214009
sg20
S'8038.15774603'
p578
sba(igraph
Edge
p579
(dp580
g7
I1
sg8
I00
sg9
I5
sg10
(lp581
g575
a(igraph
Vertex
p582
(dp583
g14
F0.59999999999999998
sg8
I00
sg15
g16
sg17
F-11.354838709677381
sg18
F-136.0
sg19
I3214571
sg20
S'8037.9300791'
p584
sg22
F0.4731182795698925
sbasg26
I00
sg27
I00
sg28
I3214010
sg20
S'8038.15988568'
p585
sba(igraph
Edge
p586
(dp587
g7
I1
sg8
I00
sg9
I5
sg10
(lp588
g582
a(igraph
Vertex
p589
(dp590
g14
F0.70000000000000007
sg8
I00
sg15
g16
sg17
F-11.354838709677381
sg18
F-227.50000000000011
sg19
I3214572
sg20
S'8037.93085853'
p591
sg22
F0.4731182795698925
sbasg26
I00
sg27
I00
sg28
I3214011
sg20
S'8038.16194377'
p592
sba(igraph
Edge
p593
(dp594
g7
I1
sg8
I00
sg9
I5
sg10
(lp595
g589
a(igraph
Vertex
p596
(dp597
g14
F0.80000000000000004
sg8
I00
sg15
g16
sg17
F-11.354838709677381
sg18
F-319.0
sg19
I3214573
sg20
S'8037.93163377'
p598
sg22
F0.4731182795698925
sbasg26
I00
sg27
I00
sg28
I3214012
sg20
S'8038.16402168'
p599
sba(igraph
Edge
p600
(dp601
g7
I1
sg8
I00
sg9
I5
sg10
(lp602
g596
a(igraph
Vertex
p603
(dp604
g14
F0.90000000000000002
sg8
I00
sg15
g16
sg17
F-11.354838709677381
sg18
F-410.5
sg19
I3214574
sg20
S'8037.93242745'
p605
sg22
F0.4731182795698925
sbasg26
I00
sg27
I00
sg28
I3214013
sg20
S'8038.16612502'
p606
sba(igraph
Edge
p607
(dp608
g7
I1
sg8
I00
sg9
I5
sg10
(lp609
g603
a(igraph
Vertex
p610
(dp611
g14
F1.0
sg8
I00
sg15
g16
sg17
F-11.354838709677381
sg18
F-502.0
sg19
I3214575
sg20
S'8037.9332552'
p612
sg22
F0.4731182795698925
sbasg26
I00
sg27
I00
sg28
I3214014
sg20
S'8038.16824988'
p613
sba(igraph
Edge
p614
(dp615
g7
I1
sg8
I00
sg9
I5
sg10
(lp616
(igraph
Vertex
p617
(dp618
g14
F0.10000000000000002
sg8
I00
sg15
g16
sg17
F25.725806451612868
sg18
F321.5
sg19
I3214576
sg20
S'8037.93498168'
p619
sg22
F0.532258064516129
sba(igraph
Vertex
p620
(dp621
g14
F0.20000000000000004
sg8
I00
sg15
g16
sg17
F25.725806451612868
sg18
F229.99999999999997
sg19
I3214577
sg20
S'8037.93580776'
p622
sg22
F0.532258064516129
sbasg26
I00
sg27
I00
sg28
I3214015
sg20
S'8038.17506806'
p623
sba(igraph
Edge
p624
(dp625
g7
I1
sg8
I00
sg9
I5
sg10
(lp626
g620
a(igraph
Vertex
p627
(dp628
g14
F0.3000000000000001
sg8
I00
sg15
g16
sg17
F25.725806451612868
sg18
F138.49999999999989
sg19
I3214578
sg20
S'8037.93668637'
p629
sg22
F0.532258064516129
sbasg26
I00
sg27
I00
sg28
I3214016
sg20
S'8038.17730857'
p630
sba(igraph
Edge
p631
(dp632
g7
I1
sg8
I00
sg9
I5
sg10
(lp633
g627
a(igraph
Vertex
p634
(dp635
g14
F0.40000000000000008
sg8
I00
sg15
g16
sg17
F25.725806451612868
sg18
F46.999999999999943
sg19
I3214579
sg20
S'8037.93753927'
p636
sg22
F0.532258064516129
sbasg26
I00
sg27
I00
sg28
I3214017
sg20
S'8038.17958037'
p637
sba(igraph
Edge
p638
(dp639
g7
I1
sg8
I00
sg9
I5
sg10
(lp640
g634
a(igraph
Vertex
p641
(dp642
g14
F0.50000000000000022
sg8
I00
sg15
g16
sg17
F25.725806451612868
sg18
F-44.500000000000227
sg19
I3214580
sg20
S'8037.93839971'
p643
sg22
F0.532258064516129
sbasg26
I00
sg27
I00
sg28
I3214018
sg20
S'8038.18185049'
p644
sba(igraph
Edge
p645
(dp646
g7
I1
sg8
I00
sg9
I5
sg10
(lp647
g641
a(igraph
Vertex
p648
(dp649
g14
F0.59999999999999998
sg8
I01
sg15
I0
sg17
F25.725806451612868
sg18
F-136.0
sg19
I3214582
sg20
S'8037.93928446'
p650
sg22
F0.532258064516129
sbasg26
I00
sg27
I00
sg28
I3214019
sg20
S'8038.18413821'
p651
sba(igraph
Edge
p652
(dp653
g7
I1
sg8
I00
sg9
I5
sg10
(lp654
g648
a(igraph
Vertex
p655
(dp656
g14
F0.70000000000000007
sg8
I00
sg15
g16
sg17
F25.725806451612868
sg18
F-227.50000000000011
sg19
I3214584
sg20
S'8037.94014602'
p657
sg22
F0.532258064516129
sbasg26
I00
sg27
I00
sg28
I3214020
sg20
S'8038.18655472'
p658
sba(igraph
Edge
p659
(dp660
g7
I1
sg8
I00
sg9
I5
sg10
(lp661
g655
a(igraph
Vertex
p662
(dp663
g14
F0.80000000000000004
sg8
I00
sg15
g16
sg17
F25.725806451612868
sg18
F-319.0
sg19
I3214585
sg20
S'8037.94104614'
p664
sg22
F0.532258064516129
sbasg26
I00
sg27
I00
sg28
I3214021
sg20
S'8038.1890894'
p665
sba(igraph
Edge
p666
(dp667
g7
I1
sg8
I00
sg9
I5
sg10
(lp668
g662
a(igraph
Vertex
p669
(dp670
g14
F0.90000000000000002
sg8
I00
sg15
g16
sg17
F25.725806451612868
sg18
F-410.5
sg19
I3214586
sg20
S'8037.94194402'
p671
sg22
F0.532258064516129
sbasg26
I00
sg27
I00
sg28
I3214022
sg20
S'8038.19152825'
p672
sba(igraph
Edge
p673
(dp674
g7
I1
sg8
I00
sg9
I5
sg10
(lp675
g669
a(igraph
Vertex
p676
(dp677
g14
F1.0
sg8
I00
sg15
g16
sg17
F25.725806451612868
sg18
F-502.0
sg19
I3214587
sg20
S'8037.94283659'
p678
sg22
F0.532258064516129
sbasg26
I00
sg27
I00
sg28
I3214023
sg20
S'8038.19398303'
p679
sba(igraph
Edge
p680
(dp681
g7
I1
sg8
I00
sg9
I5
sg10
(lp682
(igraph
Vertex
p683
(dp684
g14
F0.10000000000000002
sg8
I00
sg15
g16
sg17
F62.806451612903231
sg18
F321.5
sg19
I3214588
sg20
S'8037.94463961'
p685
sg22
F0.59139784946236562
sba(igraph
Vertex
p686
(dp687
g14
F0.20000000000000004
sg8
I00
sg15
g16
sg17
F62.806451612903231
sg18
F229.99999999999997
sg19
I3214589
sg20
S'8037.9456389'
p688
sg22
F0.59139784946236562
sbasg26
I00
sg27
I00
sg28
I3214024
sg20
S'8038.20133397'
p689
sba(igraph
Edge
p690
(dp691
g7
I1
sg8
I00
sg9
I5
sg10
(lp692
g686
a(igraph
Vertex
p693
(dp694
g14
F0.3000000000000001
sg8
I00
sg15
g16
sg17
F62.806451612903231
sg18
F138.49999999999989
sg19
I3214590
sg20
S'8037.94655941'
p695
sg22
F0.59139784946236562
sbasg26
I00
sg27
I00
sg28
I3214025
sg20
S'8038.20384742'
p696
sba(igraph
Edge
p697
(dp698
g7
I1
sg8
I00
sg9
I5
sg10
(lp699
g693
a(igraph
Vertex
p700
(dp701
g14
F0.40000000000000008
sg8
I00
sg15
g16
sg17
F62.806451612903231
sg18
F46.999999999999943
sg19
I3214591
sg20
S'8037.94749333'
p702
sg22
F0.59139784946236562
sbasg26
I00
sg27
I00
sg28
I3214026
sg20
S'8038.206405'
p703
sba(igraph
Edge
p704
(dp705
g7
I1
sg8
I00
sg9
I5
sg10
(lp706
g700
a(igraph
Vertex
p707
(dp708
g14
F0.50000000000000022
sg8
I00
sg15
g16
sg17
F62.806451612903231
sg18
F-44.500000000000227
sg19
I3214592
sg20
S'8037.94843143'
p709
sg22
F0.59139784946236562
sbasg26
I00
sg27
I00
sg28
I3214027
sg20
S'8038.20895784'
p710
sba(igraph
Edge
p711
(dp712
g7
I1
sg8
I00
sg9
I5
sg10
(lp713
g707
a(igraph
Vertex
p714
(dp715
g14
F0.59999999999999998
sg8
I00
sg15
g16
sg17
F62.806451612903231
sg18
F-136.0
sg19
I3214593
sg20
S'8037.94937038'
p716
sg22
F0.59139784946236562
sbasg26
I00
sg27
I00
sg28
I3214028
sg20
S'8038.21154029'
p717
sba(igraph
Edge
p718
(dp719
g7
I1
sg8
I00
sg9
I5
sg10
(lp720
g714
a(igraph
Vertex
p721
(dp722
g14
F0.70000000000000007
sg8
I00
sg15
g16
sg17
F62.806451612903231
sg18
F-227.50000000000011
sg19
I3214594
sg20
S'8037.95033084'
p723
sg22
F0.59139784946236562
sbasg26
I00
sg27
I00
sg28
I3214029
sg20
S'8038.2141532'
p724
sba(igraph
Edge
p725
(dp726
g7
I1
sg8
I00
sg9
I5
sg10
(lp727
g721
a(igraph
Vertex
p728
(dp729
g14
F0.80000000000000004
sg8
I00
sg15
g16
sg17
F62.806451612903231
sg18
F-319.0
sg19
I3214595
sg20
S'8037.95128962'
p730
sg22
F0.59139784946236562
sbasg26
I00
sg27
I00
sg28
I3214030
sg20
S'8038.21678593'
p731
sba(igraph
Edge
p732
(dp733
g7
I1
sg8
I00
sg9
I5
sg10
(lp734
g728
a(igraph
Vertex
p735
(dp736
g14
F0.90000000000000002
sg8
I00
sg15
g16
sg17
F62.806451612903231
sg18
F-410.5
sg19
I3214596
sg20
S'8037.95226153'
p737
sg22
F0.59139784946236562
sbasg26
I00
sg27
I00
sg28
I3214031
sg20
S'8038.21939157'
p738
sba(igraph
Edge
p739
(dp740
g7
I1
sg8
I00
sg9
I5
sg10
(lp741
g735
a(igraph
Vertex
p742
(dp743
g14
F1.0
sg8
I00
sg15
g16
sg17
F62.806451612903231
sg18
F-502.0
sg19
I3214597
sg20
S'8037.95324071'
p744
sg22
F0.59139784946236562
sbasg26
I00
sg27
I00
sg28
I3214032
sg20
S'8038.22205588'
p745
sba(igraph
Edge
p746
(dp747
g7
I1
sg8
I00
sg9
I5
sg10
(lp748
(igraph
Vertex
p749
(dp750
g14
F0.10000000000000002
sg8
I00
sg15
g16
sg17
F99.887096774193537
sg18
F321.5
sg19
I3214598
sg20
S'8037.95523453'
p751
sg22
F0.65053763440860213
sba(igraph
Vertex
p752
(dp753
g14
F0.20000000000000004
sg8
I00
sg15
g16
sg17
F99.887096774193537
sg18
F229.99999999999997
sg19
I3214599
sg20
S'8037.9562436'
p754
sg22
F0.65053763440860213
sbasg26
I00
sg27
I00
sg28
I3214033
sg20
S'8038.23018484'
p755
sba(igraph
Edge
p756
(dp757
g7
I1
sg8
I00
sg9
I5
sg10
(lp758
g752
a(igraph
Vertex
p759
(dp760
g14
F0.3000000000000001
sg8
I00
sg15
g16
sg17
F99.887096774193537
sg18
F138.49999999999989
sg19
I3214600
sg20
S'8037.95725965'
p761
sg22
F0.65053763440860213
sbasg26
I00
sg27
I00
sg28
I3214034
sg20
S'8038.23295726'
p762
sba(igraph
Edge
p763
(dp764
g7
I1
sg8
I00
sg9
I5
sg10
(lp765
g759
a(igraph
Vertex
p766
(dp767
g14
F0.40000000000000008
sg8
I00
sg15
g16
sg17
F99.887096774193537
sg18
F46.999999999999943
sg19
I3214601
sg20
S'8037.95834331'
p768
sg22
F0.65053763440860213
sbasg26
I00
sg27
I00
sg28
I3214035
sg20
S'8038.23571124'
p769
sba(igraph
Edge
p770
(dp771
g7
I1
sg8
I00
sg9
I5
sg10
(lp772
g766
a(igraph
Vertex
p773
(dp774
g14
F0.50000000000000022
sg8
I00
sg15
g16
sg17
F99.887096774193537
sg18
F-44.500000000000227
sg19
I3214602
sg20
S'8037.95948843'
p775
sg22
F0.65053763440860213
sbasg26
I00
sg27
I00
sg28
I3214036
sg20
S'8038.23855099'
p776
sba(igraph
Edge
p777
(dp778
g7
I1
sg8
I00
sg9
I5
sg10
(lp779
g773
a(igraph
Vertex
p780
(dp781
g14
F0.59999999999999998
sg8
I00
sg15
g16
sg17
F99.887096774193537
sg18
F-136.0
sg19
I3214603
sg20
S'8037.96055085'
p782
sg22
F0.65053763440860213
sbasg26
I00
sg27
I00
sg28
I3214037
sg20
S'8038.24132034'
p783
sba(igraph
Edge
p784
(dp785
g7
I1
sg8
I00
sg9
I5
sg10
(lp786
g780
a(igraph
Vertex
p787
(dp788
g14
F0.70000000000000007
sg8
I01
sg15
I0
sg17
F99.887096774193537
sg18
F-227.50000000000011
sg19
I3214605
sg20
S'8037.96160993'
p789
sg22
F0.65053763440860213
sbasg26
I00
sg27
I00
sg28
I3214038
sg20
S'8038.24413829'
p790
sba(igraph
Edge
p791
(dp792
g7
I1
sg8
I00
sg9
I5
sg10
(lp793
g787
a(igraph
Vertex
p794
(dp795
g14
F0.80000000000000004
sg8
I00
sg15
g16
sg17
F99.887096774193537
sg18
F-319.0
sg19
I3214607
sg20
S'8037.96267487'
p796
sg22
F0.65053763440860213
sbasg26
I00
sg27
I00
sg28
I3214039
sg20
S'8038.24696407'
p797
sba(igraph
Edge
p798
(dp799
g7
I1
sg8
I00
sg9
I5
sg10
(lp800
g794
a(igraph
Vertex
p801
(dp802
g14
F0.90000000000000002
sg8
I00
sg15
g16
sg17
F99.887096774193537
sg18
F-410.5
sg19
I3214608
sg20
S'8037.96373729'
p803
sg22
F0.65053763440860213
sbasg26
I00
sg27
I00
sg28
I3214040
sg20
S'8038.24984796'
p804
sba(igraph
Edge
p805
(dp806
g7
I1
sg8
I00
sg9
I5
sg10
(lp807
g801
a(igraph
Vertex
p808
(dp809
g14
F1.0
sg8
I00
sg15
g16
sg17
F99.887096774193537
sg18
F-502.0
sg19
I3214609
sg20
S'8037.96485363'
p810
sg22
F0.65053763440860213
sbasg26
I00
sg27
I00
sg28
I3214041
sg20
S'8038.25275671'
p811
sba(igraph
Edge
p812
(dp813
g7
I1
sg8
I00
sg9
I5
sg10
(lp814
(igraph
Vertex
p815
(dp816
g14
F0.10000000000000002
sg8
I00
sg15
g16
sg17
F136.96774193548396
sg18
F321.5
sg19
I3214610
sg20
S'8037.96708548'
p817
sg22
F0.70967741935483886
sba(igraph
Vertex
p818
(dp819
g14
F0.20000000000000004
sg8
I00
sg15
g16
sg17
F136.96774193548396
sg18
F229.99999999999997
sg19
I3214611
sg20
S'8037.96818842'
p820
sg22
F0.70967741935483886
sbasg26
I00
sg27
I00
sg28
I3214042
sg20
S'8038.26163437'
p821
sba(igraph
Edge
p822
(dp823
g7
I1
sg8
I00
sg9
I5
sg10
(lp824
g818
a(igraph
Vertex
p825
(dp826
g14
F0.3000000000000001
sg8
I00
sg15
g16
sg17
F136.96774193548396
sg18
F138.49999999999989
sg19
I3214612
sg20
S'8037.96929861'
p827
sg22
F0.70967741935483886
sbasg26
I00
sg27
I00
sg28
I3214043
sg20
S'8038.26460626'
p828
sba(igraph
Edge
p829
(dp830
g7
I1
sg8
I00
sg9
I5
sg10
(lp831
g825
a(igraph
Vertex
p832
(dp833
g14
F0.40000000000000008
sg8
I00
sg15
g16
sg17
F136.96774193548396
sg18
F46.999999999999943
sg19
I3214613
sg20
S'8037.97047167'
p834
sg22
F0.70967741935483886
sbasg26
I00
sg27
I00
sg28
I3214044
sg20
S'8038.26755998'
p835
sba(igraph
Edge
p836
(dp837
g7
I1
sg8
I00
sg9
I5
sg10
(lp838
g832
a(igraph
Vertex
p839
(dp840
g14
F0.50000000000000022
sg8
I00
sg15
g16
sg17
F136.96774193548396
sg18
F-44.500000000000227
sg19
I3214614
sg20
S'8037.97161036'
p841
sg22
F0.70967741935483886
sbasg26
I00
sg27
I00
sg28
I3214045
sg20
S'8038.27059249'
p842
sba(igraph
Edge
p843
(dp844
g7
I1
sg8
I00
sg9
I5
sg10
(lp845
g839
a(igraph
Vertex
p846
(dp847
g14
F0.59999999999999998
sg8
I00
sg15
g16
sg17
F136.96774193548396
sg18
F-136.0
sg19
I3214615
sg20
S'8037.97276134'
p848
sg22
F0.70967741935483886
sbasg26
I00
sg27
I00
sg28
I3214046
sg20
S'8038.27360097'
p849
sba(igraph
Edge
p850
(dp851
g7
I1
sg8
I00
sg9
I5
sg10
(lp852
g846
a(igraph
Vertex
p853
(dp854
g14
F0.70000000000000007
sg8
I00
sg15
g16
sg17
F136.96774193548396
sg18
F-227.50000000000011
sg19
I3214616
sg20
S'8037.97391736'
p855
sg22
F0.70967741935483886
sbasg26
I00
sg27
I00
sg28
I3214047
sg20
S'8038.27660806'
p856
sba(igraph
Edge
p857
(dp858
g7
I1
sg8
I00
sg9
I5
sg10
(lp859
g853
a(igraph
Vertex
p860
(dp861
g14
F0.80000000000000004
sg8
I00
sg15
g16
sg17
F136.96774193548396
sg18
F-319.0
sg19
I3214617
sg20
S'8037.97507923'
p862
sg22
F0.70967741935483886
sbasg26
I00
sg27
I00
sg28
I3214048
sg20
S'8038.27964392'
p863
sba(igraph
Edge
p864
(dp865
g7
I1
sg8
I00
sg9
I5
sg10
(lp866
g860
a(igraph
Vertex
p867
(dp868
g14
F0.90000000000000002
sg8
I00
sg15
g16
sg17
F136.96774193548396
sg18
F-410.5
sg19
I3214618
sg20
S'8037.97626654'
p869
sg22
F0.70967741935483886
sbasg26
I00
sg27
I00
sg28
I3214049
sg20
S'8038.28270409'
p870
sba(igraph
Edge
p871
(dp872
g7
I1
sg8
I00
sg9
I5
sg10
(lp873
g867
a(igraph
Vertex
p874
(dp875
g14
F1.0
sg8
I00
sg15
g16
sg17
F136.96774193548396
sg18
F-502.0
sg19
I3214619
sg20
S'8037.97745719'
p876
sg22
F0.70967741935483886
sbasg26
I00
sg27
I00
sg28
I3214050
sg20
S'8038.28578157'
p877
sba(igraph
Edge
p878
(dp879
g7
I1
sg8
I00
sg9
I5
sg10
(lp880
(igraph
Vertex
p881
(dp882
g14
F0.10000000000000002
sg8
I00
sg15
g16
sg17
F174.04838709677421
sg18
F321.5
sg19
I3214620
sg20
S'8037.97985722'
p883
sg22
F0.76881720430107525
sba(igraph
Vertex
p884
(dp885
g14
F0.20000000000000004
sg8
I00
sg15
g16
sg17
F174.04838709677421
sg18
F229.99999999999997
sg19
I3214621
sg20
S'8037.98111995'
p886
sg22
F0.76881720430107525
sbasg26
I00
sg27
I00
sg28
I3214051
sg20
S'8038.29546912'
p887
sba(igraph
Edge
p888
(dp889
g7
I1
sg8
I00
sg9
I5
sg10
(lp890
g884
a(igraph
Vertex
p891
(dp892
g14
F0.3000000000000001
sg8
I00
sg15
g16
sg17
F174.04838709677421
sg18
F138.49999999999989
sg19
I3214622
sg20
S'8037.98246537'
p893
sg22
F0.76881720430107525
sbasg26
I00
sg27
I00
sg28
I3214052
sg20
S'8038.29862566'
p894
sba(igraph
Edge
p895
(dp896
g7
I1
sg8
I00
sg9
I5
sg10
(lp897
g891
a(igraph
Vertex
p898
(dp899
g14
F0.40000000000000008
sg8
I00
sg15
g16
sg17
F174.04838709677421
sg18
F46.999999999999943
sg19
I3214623
sg20
S'8037.98385996'
p900
sg22
F0.76881720430107525
sbasg26
I00
sg27
I00
sg28
I3214053
sg20
S'8038.30184004'
p901
sba(igraph
Edge
p902
(dp903
g7
I1
sg8
I00
sg9
I5
sg10
(lp904
g898
a(igraph
Vertex
p905
(dp906
g14
F0.50000000000000022
sg8
I00
sg15
g16
sg17
F174.04838709677421
sg18
F-44.500000000000227
sg19
I3214624
sg20
S'8037.98520399'
p907
sg22
F0.76881720430107525
sbasg26
I00
sg27
I00
sg28
I3214054
sg20
S'8038.30523991'
p908
sba(igraph
Edge
p909
(dp910
g7
I1
sg8
I00
sg9
I5
sg10
(lp911
g905
a(igraph
Vertex
p912
(dp913
g14
F0.59999999999999998
sg8
I00
sg15
g16
sg17
F174.04838709677421
sg18
F-136.0
sg19
I3214625
sg20
S'8037.98646755'
p914
sg22
F0.76881720430107525
sbasg26
I00
sg27
I00
sg28
I3214055
sg20
S'8038.30850681'
p915
sba(igraph
Edge
p916
(dp917
g7
I1
sg8
I00
sg9
I5
sg10
(lp918
g912
a(igraph
Vertex
p919
(dp920
g14
F0.70000000000000007
sg8
I00
sg15
g16
sg17
F174.04838709677421
sg18
F-227.50000000000011
sg19
I3214626
sg20
S'8037.98774621'
p921
sg22
F0.76881720430107525
sbasg26
I00
sg27
I00
sg28
I3214056
sg20
S'8038.31183684'
p922
sba(igraph
Edge
p923
(dp924
g7
I1
sg8
I00
sg9
I5
sg10
(lp925
g919
a(igraph
Vertex
p926
(dp927
g14
F0.80000000000000004
sg8
I01
sg15
I0
sg17
F174.04838709677421
sg18
F-319.0
sg19
I3214628
sg20
S'8037.9890366'
p928
sg22
F0.76881720430107525
sbasg26
I00
sg27
I00
sg28
I3214057
sg20
S'8038.31514508'
p929
sba(igraph
Edge
p930
(dp931
g7
I1
sg8
I00
sg9
I5
sg10
(lp932
g926
a(igraph
Vertex
p933
(dp934
g14
F0.90000000000000002
sg8
I00
sg15
g16
sg17
F174.04838709677421
sg18
F-410.5
sg19
I3214630
sg20
S'8037.99033425'
p935
sg22
F0.76881720430107525
sbasg26
I00
sg27
I00
sg28
I3214058
sg20
S'8038.31849048'
p936
sba(igraph
Edge
p937
(dp938
g7
I1
sg8
I00
sg9
I5
sg10
(lp939
g933
a(igraph
Vertex
p940
(dp941
g14
F1.0
sg8
I00
sg15
g16
sg17
F174.04838709677421
sg18
F-502.0
sg19
I3214631
sg20
S'8037.99171878'
p942
sg22
F0.76881720430107525
sbasg26
I00
sg27
I00
sg28
I3214059
sg20
S'8038.32183755'
p943
sba(igraph
Edge
p944
(dp945
g7
I1
sg8
I00
sg9
I5
sg10
(lp946
(igraph
Vertex
p947
(dp948
g14
F0.10000000000000002
sg8
I00
sg15
g16
sg17
F211.12903225806451
sg18
F321.5
sg19
I3214632
sg20
S'8037.99445851'
p949
sg22
F0.82795698924731176
sba(igraph
Vertex
p950
(dp951
g14
F0.20000000000000004
sg8
I00
sg15
g16
sg17
F211.12903225806451
sg18
F229.99999999999997
sg19
I3214633
sg20
S'8037.99583439'
p952
sg22
F0.82795698924731176
sbasg26
I00
sg27
I00
sg28
I3214060
sg20
S'8038.33291605'
p953
sba(igraph
Edge
p954
(dp955
g7
I1
sg8
I00
sg9
I5
sg10
(lp956
g950
a(igraph
Vertex
p957
(dp958
g14
F0.3000000000000001
sg8
I00
sg15
g16
sg17
F211.12903225806451
sg18
F138.49999999999989
sg19
I3214634
sg20
S'8037.99715159'
p959
sg22
F0.82795698924731176
sbasg26
I00
sg27
I00
sg28
I3214061
sg20
S'8038.33648886'
p960
sba(igraph
Edge
p961
(dp962
g7
I1
sg8
I00
sg9
I5
sg10
(lp963
g957
a(igraph
Vertex
p964
(dp965
g14
F0.40000000000000008
sg8
I00
sg15
g16
sg17
F211.12903225806451
sg18
F46.999999999999943
sg19
I3214635
sg20
S'8037.99847327'
p966
sg22
F0.82795698924731176
sbasg26
I00
sg27
I00
sg28
I3214062
sg20
S'8038.33993874'
p967
sba(igraph
Edge
p968
(dp969
g7
I1
sg8
I00
sg9
I5
sg10
(lp970
g964
a(igraph
Vertex
p971
(dp972
g14
F0.50000000000000022
sg8
I00
sg15
g16
sg17
F211.12903225806451
sg18
F-44.500000000000227
sg19
I3214636
sg20
S'8037.99984942'
p973
sg22
F0.82795698924731176
sbasg26
I00
sg27
I00
sg28
I3214063
sg20
S'8038.34343499'
p974
sba(igraph
Edge
p975
(dp976
g7
I1
sg8
I00
sg9
I5
sg10
(lp977
g971
a(igraph
Vertex
p978
(dp979
g14
F0.59999999999999998
sg8
I00
sg15
g16
sg17
F211.12903225806451
sg18
F-136.0
sg19
I3214637
sg20
S'8038.00123759'
p980
sg22
F0.82795698924731176
sbasg26
I00
sg27
I00
sg28
I3214064
sg20
S'8038.34694773'
p981
sba(igraph
Edge
p982
(dp983
g7
I1
sg8
I00
sg9
I5
sg10
(lp984
g978
a(igraph
Vertex
p985
(dp986
g14
F0.70000000000000007
sg8
I01
sg15
I0
sg17
F211.12903225806451
sg18
F-227.50000000000011
sg19
I3214639
sg20
S'8038.00259642'
p987
sg22
F0.82795698924731176
sbasg26
I00
sg27
I00
sg28
I3214065
sg20
S'8038.35049259'
p988
sba(igraph
Edge
p989
(dp990
g7
I1
sg8
I00
sg9
I5
sg10
(lp991
g985
a(igraph
Vertex
p992
(dp993
g14
F0.80000000000000004
sg8
I00
sg15
g16
sg17
F211.12903225806451
sg18
F-319.0
sg19
I3214641
sg20
S'8038.00395888'
p994
sg22
F0.82795698924731176
sbasg26
I00
sg27
I00
sg28
I3214066
sg20
S'8038.35403243'
p995
sba(igraph
Edge
p996
(dp997
g7
I1
sg8
I00
sg9
I5
sg10
(lp998
g992
a(igraph
Vertex
p999
(dp1000
g14
F0.90000000000000002
sg8
I00
sg15
g16
sg17
F211.12903225806451
sg18
F-410.5
sg19
I3214642
sg20
S'8038.00542862'
p1001
sg22
F0.82795698924731176
sbasg26
I00
sg27
I00
sg28
I3214067
sg20
S'8038.35760886'
p1002
sba(igraph
Edge
p1003
(dp1004
g7
I1
sg8
I00
sg9
I5
sg10
(lp1005
g999
a(igraph
Vertex
p1006
(dp1007
g14
F1.0
sg8
I00
sg15
g16
sg17
F211.12903225806451
sg18
F-502.0
sg19
I3214643
sg20
S'8038.00680897'
p1008
sg22
F0.82795698924731176
sbasg26
I00
sg27
I00
sg28
I3214068
sg20
S'8038.36117384'
p1009
sba(igraph
Edge
p1010
(dp1011
g7
I1
sg8
I00
sg9
I5
sg10
(lp1012
(igraph
Vertex
p1013
(dp1014
g14
F0.10000000000000002
sg8
I00
sg15
g16
sg17
F248.20967741935488
sg18
F321.5
sg19
I3214644
sg20
S'8038.00956937'
p1015
sg22
F0.88709677419354849
sba(igraph
Vertex
p1016
(dp1017
g14
F0.20000000000000004
sg8
I00
sg15
g16
sg17
F248.20967741935488
sg18
F229.99999999999997
sg19
I3214645
sg20
S'8038.01100112'
p1018
sg22
F0.88709677419354849
sbasg26
I00
sg27
I00
sg28
I3214069
sg20
S'8038.37230179'
p1019
sba(igraph
Edge
p1020
(dp1021
g7
I1
sg8
I00
sg9
I5
sg10
(lp1022
g1016
a(igraph
Vertex
p1023
(dp1024
g14
F0.3000000000000001
sg8
I00
sg15
g16
sg17
F248.20967741935488
sg18
F138.49999999999989
sg19
I3214646
sg20
S'8038.01244851'
p1025
sg22
F0.88709677419354849
sbasg26
I00
sg27
I00
sg28
I3214070
sg20
S'8038.37600421'
p1026
sba(igraph
Edge
p1027
(dp1028
g7
I1
sg8
I00
sg9
I5
sg10
(lp1029
g1023
a(igraph
Vertex
p1030
(dp1031
g14
F0.40000000000000008
sg8
I00
sg15
g16
sg17
F248.20967741935488
sg18
F46.999999999999943
sg19
I3214647
sg20
S'8038.01391406'
p1032
sg22
F0.88709677419354849
sbasg26
I00
sg27
I00
sg28
I3214071
sg20
S'8038.37970385'
p1033
sba(igraph
Edge
p1034
(dp1035
g7
I1
sg8
I00
sg9
I5
sg10
(lp1036
g1030
a(igraph
Vertex
p1037
(dp1038
g14
F0.50000000000000022
sg8
I00
sg15
g16
sg17
F248.20967741935488
sg18
F-44.500000000000227
sg19
I3214648
sg20
S'8038.01539386'
p1039
sg22
F0.88709677419354849
sbasg26
I00
sg27
I00
sg28
I3214072
sg20
S'8038.38342583'
p1040
sba(igraph
Edge
p1041
(dp1042
g7
I1
sg8
I00
sg9
I5
sg10
(lp1043
g1037
a(igraph
Vertex
p1044
(dp1045
g14
F0.59999999999999998
sg8
I00
sg15
g16
sg17
F248.20967741935488
sg18
F-136.0
sg19
I3214649
sg20
S'8038.01686779'
p1046
sg22
F0.88709677419354849
sbasg26
I00
sg27
I00
sg28
I3214073
sg20
S'8038.38720368'
p1047
sba(igraph
Edge
p1048
(dp1049
g7
I1
sg8
I00
sg9
I5
sg10
(lp1050
g1044
a(igraph
Vertex
p1051
(dp1052
g14
F0.70000000000000007
sg8
I00
sg15
g16
sg17
F248.20967741935488
sg18
F-227.50000000000011
sg19
I3214650
sg20
S'8038.01835932'
p1053
sg22
F0.88709677419354849
sbasg26
I00
sg27
I00
sg28
I3214074
sg20
S'8038.39104635'
p1054
sba(igraph
Edge
p1055
(dp1056
g7
I1
sg8
I00
sg9
I5
sg10
(lp1057
g1051
a(igraph
Vertex
p1058
(dp1059
g14
F0.80000000000000004
sg8
I00
sg15
g16
sg17
F248.20967741935488
sg18
F-319.0
sg19
I3214651
sg20
S'8038.01982263'
p1060
sg22
F0.88709677419354849
sbasg26
I00
sg27
I00
sg28
I3214075
sg20
S'8038.39497031'
p1061
sba(igraph
Edge
p1062
(dp1063
g7
I1
sg8
I00
sg9
I5
sg10
(lp1064
g1058
a(igraph
Vertex
p1065
(dp1066
g14
F0.90000000000000002
sg8
I01
sg15
I0
sg17
F248.20967741935488
sg18
F-410.5
sg19
I3214653
sg20
S'8038.02129097'
p1067
sg22
F0.88709677419354849
sbasg26
I00
sg27
I00
sg28
I3214076
sg20
S'8038.39879957'
p1068
sba(igraph
Edge
p1069
(dp1070
g7
I1
sg8
I00
sg9
I5
sg10
(lp1071
g1065
a(igraph
Vertex
p1072
(dp1073
g14
F1.0
sg8
I00
sg15
g16
sg17
F248.20967741935488
sg18
F-502.0
sg19
I3214655
sg20
S'8038.02279983'
p1074
sg22
F0.88709677419354849
sbasg26
I00
sg27
I00
sg28
I3214077
sg20
S'8038.40340267'
p1075
sba(igraph
Edge
p1076
(dp1077
g7
I1
sg8
I00
sg9
I5
sg10
(lp1078
(igraph
Vertex
p1079
(dp1080
g14
F0.10000000000000002
sg8
I00
sg15
g16
sg17
F285.29032258064524
sg18
F321.5
sg19
I3214656
sg20
S'8038.02584407'
p1081
sg22
F0.94623655913978499
sba(igraph
Vertex
p1082
(dp1083
g14
F0.20000000000000004
sg8
I00
sg15
g16
sg17
F285.29032258064524
sg18
F229.99999999999997
sg19
I3214657
sg20
S'8038.02740684'
p1084
sg22
F0.94623655913978499
sbasg26
I00
sg27
I00
sg28
I3214078
sg20
S'8038.41505499'
p1085
sba(igraph
Edge
p1086
(dp1087
g7
I1
sg8
I00
sg9
I5
sg10
(lp1088
g1082
a(igraph
Vertex
p1089
(dp1090
g14
F0.3000000000000001
sg8
I00
sg15
g16
sg17
F285.29032258064524
sg18
F138.49999999999989
sg19
I3214658
sg20
S'8038.02893049'
p1091
sg22
F0.94623655913978499
sbasg26
I00
sg27
I00
sg28
I3214079
sg20
S'8038.41909097'
p1092
sba(igraph
Edge
p1093
(dp1094
g7
I1
sg8
I00
sg9
I5
sg10
(lp1095
g1089
a(igraph
Vertex
p1096
(dp1097
g14
F0.40000000000000008
sg8
I00
sg15
g16
sg17
F285.29032258064524
sg18
F46.999999999999943
sg19
I3214659
sg20
S'8038.03049158'
p1098
sg22
F0.94623655913978499
sbasg26
I00
sg27
I00
sg28
I3214080
sg20
S'8038.42310769'
p1099
sba(igraph
Edge
p1100
(dp1101
g7
I1
sg8
I00
sg9
I5
sg10
(lp1102
g1096
a(igraph
Vertex
p1103
(dp1104
g14
F0.50000000000000022
sg8
I00
sg15
g16
sg17
F285.29032258064524
sg18
F-44.500000000000227
sg19
I3214660
sg20
S'8038.03203843'
p1105
sg22
F0.94623655913978499
sbasg26
I00
sg27
I00
sg28
I3214081
sg20
S'8038.42706964'
p1106
sba(igraph
Edge
p1107
(dp1108
g7
I1
sg8
I00
sg9
I5
sg10
(lp1109
g1103
a(igraph
Vertex
p1110
(dp1111
g14
F0.59999999999999998
sg8
I00
sg15
g16
sg17
F285.29032258064524
sg18
F-136.0
sg19
I3214661
sg20
S'8038.03360958'
p1112
sg22
F0.94623655913978499
sbasg26
I00
sg27
I00
sg28
I3214082
sg20
S'8038.43101512'
p1113
sba(igraph
Edge
p1114
(dp1115
g7
I1
sg8
I00
sg9
I5
sg10
(lp1116
g1110
a(igraph
Vertex
p1117
(dp1118
g14
F0.70000000000000007
sg8
I00
sg15
g16
sg17
F285.29032258064524
sg18
F-227.50000000000011
sg19
I3214662
sg20
S'8038.03515754'
p1119
sg22
F0.94623655913978499
sbasg26
I00
sg27
I00
sg28
I3214083
sg20
S'8038.43497623'
p1120
sba(igraph
Edge
p1121
(dp1122
g7
I1
sg8
I00
sg9
I5
sg10
(lp1123
g1117
a(igraph
Vertex
p1124
(dp1125
g14
F0.80000000000000004
sg8
I00
sg15
g16
sg17
F285.29032258064524
sg18
F-319.0
sg19
I3214663
sg20
S'8038.03670243'
p1126
sg22
F0.94623655913978499
sbasg26
I00
sg27
I00
sg28
I3214084
sg20
S'8038.43897004'
p1127
sba(igraph
Edge
p1128
(dp1129
g7
I1
sg8
I00
sg9
I5
sg10
(lp1130
g1124
a(igraph
Vertex
p1131
(dp1132
g14
F0.90000000000000002
sg8
I00
sg15
g16
sg17
F285.29032258064524
sg18
F-410.5
sg19
I3214664
sg20
S'8038.03829258'
p1133
sg22
F0.94623655913978499
sbasg26
I00
sg27
I00
sg28
I3214085
sg20
S'8038.44301049'
p1134
sba(igraph
Edge
p1135
(dp1136
g7
I1
sg8
I00
sg9
I5
sg10
(lp1137
g1131
a(igraph
Vertex
p1138
(dp1139
g14
F1.0
sg8
I00
sg15
g16
sg17
F285.29032258064524
sg18
F-502.0
sg19
I3214665
sg20
S'8038.03986931'
p1140
sg22
F0.94623655913978499
sbasg26
I00
sg27
I00
sg28
I3214086
sg20
S'8038.44704704'
p1141
sba(igraph
Edge
p1142
(dp1143
g7
I1
sg8
I00
sg9
I5
sg10
(lp1144
(igraph
Vertex
p1145
(dp1146
g14
F0.10000000000000002
sg8
I00
sg15
g16
sg17
F322.37096774193549
sg18
F321.5
sg19
I3214666
sg20
S'8038.04310129'
p1147
sg22
F1.0053763440860215
sba(igraph
Vertex
p1148
(dp1149
g14
F0.20000000000000004
sg8
I00
sg15
g16
sg17
F322.37096774193549
sg18
F229.99999999999997
sg19
I3214667
sg20
S'8038.04471518'
p1150
sg22
F1.0053763440860215
sbasg26
I00
sg27
I00
sg28
I3214087
sg20
S'8038.45948661'
p1151
sba(igraph
Edge
p1152
(dp1153
g7
I1
sg8
I00
sg9
I5
sg10
(lp1154
g1148
a(igraph
Vertex
p1155
(dp1156
g14
F0.3000000000000001
sg8
I00
sg15
g16
sg17
F322.37096774193549
sg18
F138.49999999999989
sg19
I3214668
sg20
S'8038.04634639'
p1157
sg22
F1.0053763440860215
sbasg26
I00
sg27
I00
sg28
I3214088
sg20
S'8038.46798043'
p1158
sba(igraph
Edge
p1159
(dp1160
g7
I1
sg8
I00
sg9
I5
sg10
(lp1161
g1155
a(igraph
Vertex
p1162
(dp1163
g14
F0.40000000000000008
sg8
I00
sg15
g16
sg17
F322.37096774193549
sg18
F46.999999999999943
sg19
I3214669
sg20
S'8038.04798291'
p1164
sg22
F1.0053763440860215
sbasg26
I00
sg27
I00
sg28
I3214089
sg20
S'8038.47256369'
p1165
sba(igraph
Edge
p1166
(dp1167
g7
I1
sg8
I00
sg9
I5
sg10
(lp1168
g1162
a(igraph
Vertex
p1169
(dp1170
g14
F0.50000000000000022
sg8
I00
sg15
g16
sg17
F322.37096774193549
sg18
F-44.500000000000227
sg19
I3214670
sg20
S'8038.04968481'
p1171
sg22
F1.0053763440860215
sbasg26
I00
sg27
I00
sg28
I3214090
sg20
S'8038.47723579'
p1172
sba(igraph
Edge
p1173
(dp1174
g7
I1
sg8
I00
sg9
I5
sg10
(lp1175
g1169
a(igraph
Vertex
p1176
(dp1177
g14
F0.59999999999999998
sg8
I00
sg15
g16
sg17
F322.37096774193549
sg18
F-136.0
sg19
I3214671
sg20
S'8038.05145207'
p1178
sg22
F1.0053763440860215
sbasg26
I00
sg27
I00
sg28
I3214091
sg20
S'8038.48180788'
p1179
sba(igraph
Edge
p1180
(dp1181
g7
I1
sg8
I00
sg9
I5
sg10
(lp1182
g1176
a(igraph
Vertex
p1183
(dp1184
g14
F0.70000000000000007
sg8
I00
sg15
g16
sg17
F322.37096774193549
sg18
F-227.50000000000011
sg19
I3214672
sg20
S'8038.05313608'
p1185
sg22
F1.0053763440860215
sbasg26
I00
sg27
I00
sg28
I3214092
sg20
S'8038.48613832'
p1186
sba(igraph
Edge
p1187
(dp1188
g7
I1
sg8
I00
sg9
I5
sg10
(lp1189
g1183
a(igraph
Vertex
p1190
(dp1191
g14
F0.80000000000000004
sg8
I00
sg15
g16
sg17
F322.37096774193549
sg18
F-319.0
sg19
I3214673
sg20
S'8038.05479411'
p1192
sg22
F1.0053763440860215
sbasg26
I00
sg27
I00
sg28
I3214093
sg20
S'8038.4905062'
p1193
sba(igraph
Edge
p1194
(dp1195
g7
I1
sg8
I00
sg9
I5
sg10
(lp1196
g1190
a(igraph
Vertex
p1197
(dp1198
g14
F0.90000000000000002
sg8
I00
sg15
g16
sg17
F322.37096774193549
sg18
F-410.5
sg19
I3214674
sg20
S'8038.0564555'
p1199
sg22
F1.0053763440860215
sbasg26
I00
sg27
I00
sg28
I3214094
sg20
S'8038.49481903'
p1200
sba(igraph
Edge
p1201
(dp1202
g7
I1
sg8
I00
sg9
I5
sg10
(lp1203
g1197
a(igraph
Vertex
p1204
(dp1205
g14
F1.0
sg8
I01
sg15
I0
sg17
F322.37096774193549
sg18
F-502.0
sg19
I3214676
sg20
S'8038.05811828'
p1206
sg22
F1.0053763440860215
sbasg26
I00
sg27
I00
sg28
I3214095
sg20
S'8038.49910869'
p1207
sba(igraph
Edge
p1208
(dp1209
g7
I1
sg8
I00
sg9
I5
sg10
(lp1210
g12
ag92
asg26
I00
sg27
I00
sg28
I3214096
sg20
S'8038.51246988'
p1211
sba(igraph
Edge
p1212
(dp1213
g7
I1
sg8
I00
sg9
I5
sg10
(lp1214
g23
ag92
asg26
I00
sg27
I00
sg28
I3214097
sg20
S'8038.51693274'
p1215
sba(igraph
Edge
p1216
(dp1217
g7
I1
sg8
I00
sg9
I5
sg10
(lp1218
g33
ag106
asg26
I00
sg27
I00
sg28
I3214098
sg20
S'8038.52141822'
p1219
sba(igraph
Edge
p1220
(dp1221
g7
I1
sg8
I00
sg9
I5
sg10
(lp1222
g40
ag106
asg26
I00
sg27
I00
sg28
I3214099
sg20
S'8038.52592494'
p1223
sba(igraph
Edge
p1224
(dp1225
g7
I1
sg8
I00
sg9
I5
sg10
(lp1226
g47
ag120
asg26
I00
sg27
I00
sg28
I3214100
sg20
S'8038.53046742'
p1227
sba(igraph
Edge
p1228
(dp1229
g7
I1
sg8
I00
sg9
I5
sg10
(lp1230
g54
ag120
asg26
I00
sg27
I00
sg28
I3214101
sg20
S'8038.53499984'
p1231
sba(igraph
Edge
p1232
(dp1233
g7
I1
sg8
I00
sg9
I5
sg10
(lp1234
g61
ag134
asg26
I00
sg27
I00
sg28
I3214102
sg20
S'8038.53957277'
p1235
sba(igraph
Edge
p1236
(dp1237
g7
I1
sg8
I00
sg9
I5
sg10
(lp1238
g68
ag134
asg26
I00
sg27
I00
sg28
I3214103
sg20
S'8038.54413089'
p1239
sba(igraph
Edge
p1240
(dp1241
g7
I1
sg8
I00
sg9
I5
sg10
(lp1242
g75
ag148
asg26
I00
sg27
I00
sg28
I3214104
sg20
S'8038.5487175'
p1243
sba(igraph
Edge
p1244
(dp1245
g7
I1
sg8
I00
sg9
I5
sg10
(lp1246
g82
ag148
asg26
I00
sg27
I00
sg28
I3214105
sg20
S'8038.55334351'
p1247
sba(igraph
Edge
p1248
(dp1249
g7
I1
sg8
I00
sg9
I5
sg10
(lp1250
g12
ag89
asg26
I00
sg27
I00
sg28
I3214106
sg20
S'8038.56257569'
p1251
sba(igraph
Edge
p1252
(dp1253
g7
I1
sg8
I00
sg9
I5
sg10
(lp1254
g23
ag99
asg26
I00
sg27
I00
sg28
I3214107
sg20
S'8038.56722097'
p1255
sba(igraph
Edge
p1256
(dp1257
g7
I1
sg8
I00
sg9
I5
sg10
(lp1258
g33
ag99
asg26
I00
sg27
I00
sg28
I3214108
sg20
S'8038.57187771'
p1259
sba(igraph
Edge
p1260
(dp1261
g7
I1
sg8
I00
sg9
I5
sg10
(lp1262
g40
ag113
asg26
I00
sg27
I00
sg28
I3214109
sg20
S'8038.57662776'
p1263
sba(igraph
Edge
p1264
(dp1265
g7
I1
sg8
I00
sg9
I5
sg10
(lp1266
g47
ag113
asg26
I00
sg27
I00
sg28
I3214110
sg20
S'8038.58137305'
p1267
sba(igraph
Edge
p1268
(dp1269
g7
I1
sg8
I00
sg9
I5
sg10
(lp1270
g54
ag127
asg26
I00
sg27
I00
sg28
I3214111
sg20
S'8038.58613008'
p1271
sba(igraph
Edge
p1272
(dp1273
g7
I1
sg8
I00
sg9
I5
sg10
(lp1274
g61
ag127
asg26
I00
sg27
I00
sg28
I3214112
sg20
S'8038.5908751'
p1275
sba(igraph
Edge
p1276
(dp1277
g7
I1
sg8
I00
sg9
I5
sg10
(lp1278
g68
ag141
asg26
I00
sg27
I00
sg28
I3214113
sg20
S'8038.59563129'
p1279
sba(igraph
Edge
p1280
(dp1281
g7
I1
sg8
I00
sg9
I5
sg10
(lp1282
g75
ag141
asg26
I00
sg27
I00
sg28
I3214114
sg20
S'8038.60042324'
p1283
sba(igraph
Edge
p1284
(dp1285
g7
I1
sg8
I00
sg9
I5
sg10
(lp1286
g23
ag1148
asg26
I00
sg27
I00
sg28
I3214115
sg20
S'8038.61989722'
p1287
sba(igraph
Edge
p1288
(dp1289
g7
I1
sg8
I00
sg9
I5
sg10
(lp1290
g33
ag1148
asg26
I00
sg27
I00
sg28
I3214116
sg20
S'8038.62477605'
p1291
sba(igraph
Edge
p1292
(dp1293
g7
I1
sg8
I00
sg9
I5
sg10
(lp1294
g40
ag1162
asg26
I00
sg27
I00
sg28
I3214117
sg20
S'8038.62967416'
p1295
sba(igraph
Edge
p1296
(dp1297
g7
I1
sg8
I00
sg9
I5
sg10
(lp1298
g47
ag1162
asg26
I00
sg27
I00
sg28
I3214118
sg20
S'8038.63459322'
p1299
sba(igraph
Edge
p1300
(dp1301
g7
I1
sg8
I00
sg9
I5
sg10
(lp1302
g54
ag1176
asg26
I00
sg27
I00
sg28
I3214119
sg20
S'8038.63958632'
p1303
sba(igraph
Edge
p1304
(dp1305
g7
I1
sg8
I00
sg9
I5
sg10
(lp1306
g61
ag1176
asg26
I00
sg27
I00
sg28
I3214120
sg20
S'8038.64452214'
p1307
sba(igraph
Edge
p1308
(dp1309
g7
I1
sg8
I00
sg9
I5
sg10
(lp1310
g68
ag1190
asg26
I00
sg27
I00
sg28
I3214121
sg20
S'8038.64958256'
p1311
sba(igraph
Edge
p1312
(dp1313
g7
I1
sg8
I00
sg9
I5
sg10
(lp1314
g75
ag1190
asg26
I00
sg27
I00
sg28
I3214122
sg20
S'8038.65455805'
p1315
sba(igraph
Edge
p1316
(dp1317
g7
I1
sg8
I00
sg9
I5
sg10
(lp1318
g82
ag1204
asg26
I00
sg27
I00
sg28
I3214123
sg20
S'8038.65963132'
p1319
sba(igraph
Edge
p1320
(dp1321
g7
I1
sg8
I00
sg9
I5
sg10
(lp1322
g12
ag1145
asg26
I00
sg27
I00
sg28
I3214124
sg20
S'8038.66978848'
p1323
sba(igraph
Edge
p1324
(dp1325
g7
I1
sg8
I00
sg9
I5
sg10
(lp1326
g23
ag1145
asg26
I00
sg27
I00
sg28
I3214125
sg20
S'8038.67493718'
p1327
sba(igraph
Edge
p1328
(dp1329
g7
I1
sg8
I00
sg9
I5
sg10
(lp1330
g33
ag1155
asg26
I00
sg27
I00
sg28
I3214126
sg20
S'8038.68015069'
p1331
sba(igraph
Edge
p1332
(dp1333
g7
I1
sg8
I00
sg9
I5
sg10
(lp1334
g40
ag1155
asg26
I00
sg27
I00
sg28
I3214127
sg20
S'8038.68533794'
p1335
sba(igraph
Edge
p1336
(dp1337
g7
I1
sg8
I00
sg9
I5
sg10
(lp1338
g47
ag1169
asg26
I00
sg27
I00
sg28
I3214128
sg20
S'8038.69048413'
p1339
sba(igraph
Edge
p1340
(dp1341
g7
I1
sg8
I00
sg9
I5
sg10
(lp1342
g54
ag1169
asg26
I00
sg27
I00
sg28
I3214129
sg20
S'8038.69565545'
p1343
sba(igraph
Edge
p1344
(dp1345
g7
I1
sg8
I00
sg9
I5
sg10
(lp1346
g61
ag1183
asg26
I00
sg27
I00
sg28
I3214130
sg20
S'8038.70088098'
p1347
sba(igraph
Edge
p1348
(dp1349
g7
I1
sg8
I00
sg9
I5
sg10
(lp1350
g68
ag1183
asg26
I00
sg27
I00
sg28
I3214131
sg20
S'8038.70626378'
p1351
sba(igraph
Edge
p1352
(dp1353
g7
I1
sg8
I00
sg9
I5
sg10
(lp1354
g75
ag1197
asg26
I00
sg27
I00
sg28
I3214132
sg20
S'8038.71155328'
p1355
sba(igraph
Edge
p1356
(dp1357
g7
I1
sg8
I00
sg9
I5
sg10
(lp1358
g82
ag1197
asg26
I00
sg27
I00
sg28
I3214133
sg20
S'8038.71696403'
p1359
sba(igraph
Edge
p1360
(dp1361
g7
I1
sg8
I00
sg9
I5
sg10
(lp1362
g89
ag158
asg26
I00
sg27
I00
sg28
I3214134
sg20
S'8038.72778468'
p1363
sba(igraph
Edge
p1364
(dp1365
g7
I1
sg8
I00
sg9
I5
sg10
(lp1366
g92
ag158
asg26
I00
sg27
I00
sg28
I3214135
sg20
S'8038.73313508'
p1367
sba(igraph
Edge
p1368
(dp1369
g7
I1
sg8
I00
sg9
I5
sg10
(lp1370
g99
ag172
asg26
I00
sg27
I00
sg28
I3214136
sg20
S'8038.73855951'
p1371
sba(igraph
Edge
p1372
(dp1373
g7
I1
sg8
I00
sg9
I5
sg10
(lp1374
g106
ag172
asg26
I00
sg27
I00
sg28
I3214137
sg20
S'8038.74405322'
p1375
sba(igraph
Edge
p1376
(dp1377
g7
I1
sg8
I00
sg9
I5
sg10
(lp1378
g113
ag186
asg26
I00
sg27
I00
sg28
I3214138
sg20
S'8038.74963969'
p1379
sba(igraph
Edge
p1380
(dp1381
g7
I1
sg8
I00
sg9
I5
sg10
(lp1382
g120
ag186
asg26
I00
sg27
I00
sg28
I3214139
sg20
S'8038.75521861'
p1383
sba(igraph
Edge
p1384
(dp1385
g7
I1
sg8
I00
sg9
I5
sg10
(lp1386
g127
ag200
asg26
I00
sg27
I00
sg28
I3214140
sg20
S'8038.76077351'
p1387
sba(igraph
Edge
p1388
(dp1389
g7
I1
sg8
I00
sg9
I5
sg10
(lp1390
g134
ag200
asg26
I00
sg27
I00
sg28
I3214141
sg20
S'8038.76640523'
p1391
sba(igraph
Edge
p1392
(dp1393
g7
I1
sg8
I00
sg9
I5
sg10
(lp1394
g141
ag214
asg26
I00
sg27
I00
sg28
I3214142
sg20
S'8038.77199616'
p1395
sba(igraph
Edge
p1396
(dp1397
g7
I1
sg8
I00
sg9
I5
sg10
(lp1398
g148
ag214
asg26
I00
sg27
I00
sg28
I3214143
sg20
S'8038.77758039'
p1399
sba(igraph
Edge
p1400
(dp1401
g7
I1
sg8
I00
sg9
I5
sg10
(lp1402
g89
ag155
asg26
I00
sg27
I00
sg28
I3214144
sg20
S'8038.7886994'
p1403
sba(igraph
Edge
p1404
(dp1405
g7
I1
sg8
I00
sg9
I5
sg10
(lp1406
g92
ag165
asg26
I00
sg27
I00
sg28
I3214145
sg20
S'8038.79435068'
p1407
sba(igraph
Edge
p1408
(dp1409
g7
I1
sg8
I00
sg9
I5
sg10
(lp1410
g99
ag165
asg26
I00
sg27
I00
sg28
I3214146
sg20
S'8038.80006453'
p1411
sba(igraph
Edge
p1412
(dp1413
g7
I1
sg8
I00
sg9
I5
sg10
(lp1414
g106
ag179
asg26
I00
sg27
I00
sg28
I3214147
sg20
S'8038.80597981'
p1415
sba(igraph
Edge
p1416
(dp1417
g7
I1
sg8
I00
sg9
I5
sg10
(lp1418
g113
ag179
asg26
I00
sg27
I00
sg28
I3214148
sg20
S'8038.81176686'
p1419
sba(igraph
Edge
p1420
(dp1421
g7
I1
sg8
I00
sg9
I5
sg10
(lp1422
g120
ag193
asg26
I00
sg27
I00
sg28
I3214149
sg20
S'8038.81752318'
p1423
sba(igraph
Edge
p1424
(dp1425
g7
I1
sg8
I00
sg9
I5
sg10
(lp1426
g127
ag193
asg26
I00
sg27
I00
sg28
I3214150
sg20
S'8038.82326748'
p1427
sba(igraph
Edge
p1428
(dp1429
g7
I1
sg8
I00
sg9
I5
sg10
(lp1430
g134
ag207
asg26
I00
sg27
I00
sg28
I3214151
sg20
S'8038.8291984'
p1431
sba(igraph
Edge
p1432
(dp1433
g7
I1
sg8
I00
sg9
I5
sg10
(lp1434
g141
ag207
asg26
I00
sg27
I00
sg28
I3214152
sg20
S'8038.83491366'
p1435
sba(igraph
Edge
p1436
(dp1437
g7
I1
sg8
I00
sg9
I5
sg10
(lp1438
g155
ag224
asg26
I00
sg27
I00
sg28
I3214153
sg20
S'8038.85338081'
p1439
sba(igraph
Edge
p1440
(dp1441
g7
I1
sg8
I00
sg9
I5
sg10
(lp1442
g158
ag224
asg26
I00
sg27
I00
sg28
I3214154
sg20
S'8038.85925725'
p1443
sba(igraph
Edge
p1444
(dp1445
g7
I1
sg8
I00
sg9
I5
sg10
(lp1446
g165
ag238
asg26
I00
sg27
I00
sg28
I3214155
sg20
S'8038.86512867'
p1447
sba(igraph
Edge
p1448
(dp1449
g7
I1
sg8
I00
sg9
I5
sg10
(lp1450
g172
ag238
asg26
I00
sg27
I00
sg28
I3214156
sg20
S'8038.87107021'
p1451
sba(igraph
Edge
p1452
(dp1453
g7
I1
sg8
I00
sg9
I5
sg10
(lp1454
g179
ag252
asg26
I00
sg27
I00
sg28
I3214157
sg20
S'8038.87695531'
p1455
sba(igraph
Edge
p1456
(dp1457
g7
I1
sg8
I00
sg9
I5
sg10
(lp1458
g186
ag252
asg26
I00
sg27
I00
sg28
I3214158
sg20
S'8038.88287841'
p1459
sba(igraph
Edge
p1460
(dp1461
g7
I1
sg8
I00
sg9
I5
sg10
(lp1462
g193
ag266
asg26
I00
sg27
I00
sg28
I3214159
sg20
S'8038.88913898'
p1463
sba(igraph
Edge
p1464
(dp1465
g7
I1
sg8
I00
sg9
I5
sg10
(lp1466
g200
ag266
asg26
I00
sg27
I00
sg28
I3214160
sg20
S'8038.89519841'
p1467
sba(igraph
Edge
p1468
(dp1469
g7
I1
sg8
I00
sg9
I5
sg10
(lp1470
g207
ag280
asg26
I00
sg27
I00
sg28
I3214161
sg20
S'8038.90128215'
p1471
sba(igraph
Edge
p1472
(dp1473
g7
I1
sg8
I00
sg9
I5
sg10
(lp1474
g214
ag280
asg26
I00
sg27
I00
sg28
I3214162
sg20
S'8038.90763044'
p1475
sba(igraph
Edge
p1476
(dp1477
g7
I1
sg8
I00
sg9
I5
sg10
(lp1478
g155
ag221
asg26
I00
sg27
I00
sg28
I3214163
sg20
S'8038.91980796'
p1479
sba(igraph
Edge
p1480
(dp1481
g7
I1
sg8
I00
sg9
I5
sg10
(lp1482
g158
ag231
asg26
I00
sg27
I00
sg28
I3214164
sg20
S'8038.92597914'
p1483
sba(igraph
Edge
p1484
(dp1485
g7
I1
sg8
I00
sg9
I5
sg10
(lp1486
g165
ag231
asg26
I00
sg27
I00
sg28
I3214165
sg20
S'8038.9320883'
p1487
sba(igraph
Edge
p1488
(dp1489
g7
I1
sg8
I00
sg9
I5
sg10
(lp1490
g172
ag245
asg26
I00
sg27
I00
sg28
I3214166
sg20
S'8038.93831395'
p1491
sba(igraph
Edge
p1492
(dp1493
g7
I1
sg8
I00
sg9
I5
sg10
(lp1494
g179
ag245
asg26
I00
sg27
I00
sg28
I3214167
sg20
S'8038.94467593'
p1495
sba(igraph
Edge
p1496
(dp1497
g7
I1
sg8
I00
sg9
I5
sg10
(lp1498
g186
ag259
asg26
I00
sg27
I00
sg28
I3214168
sg20
S'8038.95075184'
p1499
sba(igraph
Edge
p1500
(dp1501
g7
I1
sg8
I00
sg9
I5
sg10
(lp1502
g193
ag259
asg26
I00
sg27
I00
sg28
I3214169
sg20
S'8038.95695822'
p1503
sba(igraph
Edge
p1504
(dp1505
g7
I1
sg8
I00
sg9
I5
sg10
(lp1506
g200
ag273
asg26
I00
sg27
I00
sg28
I3214170
sg20
S'8038.9633797'
p1507
sba(igraph
Edge
p1508
(dp1509
g7
I1
sg8
I00
sg9
I5
sg10
(lp1510
g207
ag273
asg26
I00
sg27
I00
sg28
I3214171
sg20
S'8038.96968302'
p1511
sba(igraph
Edge
p1512
(dp1513
g7
I1
sg8
I00
sg9
I5
sg10
(lp1514
g221
ag290
asg26
I00
sg27
I00
sg28
I3214172
sg20
S'8038.98850496'
p1515
sba(igraph
Edge
p1516
(dp1517
g7
I1
sg8
I00
sg9
I5
sg10
(lp1518
g224
ag290
asg26
I00
sg27
I00
sg28
I3214173
sg20
S'8038.99475995'
p1519
sba(igraph
Edge
p1520
(dp1521
g7
I1
sg8
I00
sg9
I5
sg10
(lp1522
g231
ag304
asg26
I00
sg27
I00
sg28
I3214174
sg20
S'8039.00114037'
p1523
sba(igraph
Edge
p1524
(dp1525
g7
I1
sg8
I00
sg9
I5
sg10
(lp1526
g238
ag304
asg26
I00
sg27
I00
sg28
I3214175
sg20
S'8039.00759063'
p1527
sba(igraph
Edge
p1528
(dp1529
g7
I1
sg8
I00
sg9
I5
sg10
(lp1530
g245
ag318
asg26
I00
sg27
I00
sg28
I3214176
sg20
S'8039.01413252'
p1531
sba(igraph
Edge
p1532
(dp1533
g7
I1
sg8
I00
sg9
I5
sg10
(lp1534
g252
ag318
asg26
I00
sg27
I00
sg28
I3214177
sg20
S'8039.02067106'
p1535
sba(igraph
Edge
p1536
(dp1537
g7
I1
sg8
I00
sg9
I5
sg10
(lp1538
g259
ag332
asg26
I00
sg27
I00
sg28
I3214178
sg20
S'8039.0273342'
p1539
sba(igraph
Edge
p1540
(dp1541
g7
I1
sg8
I00
sg9
I5
sg10
(lp1542
g266
ag332
asg26
I00
sg27
I00
sg28
I3214179
sg20
S'8039.03388811'
p1543
sba(igraph
Edge
p1544
(dp1545
g7
I1
sg8
I00
sg9
I5
sg10
(lp1546
g273
ag346
asg26
I00
sg27
I00
sg28
I3214180
sg20
S'8039.04058421'
p1547
sba(igraph
Edge
p1548
(dp1549
g7
I1
sg8
I00
sg9
I5
sg10
(lp1550
g280
ag346
asg26
I00
sg27
I00
sg28
I3214181
sg20
S'8039.04706911'
p1551
sba(igraph
Edge
p1552
(dp1553
g7
I1
sg8
I00
sg9
I5
sg10
(lp1554
g221
ag287
asg26
I00
sg27
I00
sg28
I3214182
sg20
S'8039.06026408'
p1555
sba(igraph
Edge
p1556
(dp1557
g7
I1
sg8
I00
sg9
I5
sg10
(lp1558
g224
ag297
asg26
I00
sg27
I00
sg28
I3214183
sg20
S'8039.06676407'
p1559
sba(igraph
Edge
p1560
(dp1561
g7
I1
sg8
I00
sg9
I5
sg10
(lp1562
g231
ag297
asg26
I00
sg27
I00
sg28
I3214184
sg20
S'8039.07346073'
p1563
sba(igraph
Edge
p1564
(dp1565
g7
I1
sg8
I00
sg9
I5
sg10
(lp1566
g238
ag311
asg26
I00
sg27
I00
sg28
I3214185
sg20
S'8039.0806284'
p1567
sba(igraph
Edge
p1568
(dp1569
g7
I1
sg8
I00
sg9
I5
sg10
(lp1570
g245
ag311
asg26
I00
sg27
I00
sg28
I3214186
sg20
S'8039.08799219'
p1571
sba(igraph
Edge
p1572
(dp1573
g7
I1
sg8
I00
sg9
I5
sg10
(lp1574
g252
ag325
asg26
I00
sg27
I00
sg28
I3214187
sg20
S'8039.09517439'
p1575
sba(igraph
Edge
p1576
(dp1577
g7
I1
sg8
I00
sg9
I5
sg10
(lp1578
g259
ag325
asg26
I00
sg27
I00
sg28
I3214188
sg20
S'8039.10269043'
p1579
sba(igraph
Edge
p1580
(dp1581
g7
I1
sg8
I00
sg9
I5
sg10
(lp1582
g266
ag339
asg26
I00
sg27
I00
sg28
I3214189
sg20
S'8039.11018076'
p1583
sba(igraph
Edge
p1584
(dp1585
g7
I1
sg8
I00
sg9
I5
sg10
(lp1586
g273
ag339
asg26
I00
sg27
I00
sg28
I3214190
sg20
S'8039.11773647'
p1587
sba(igraph
Edge
p1588
(dp1589
g7
I1
sg8
I00
sg9
I5
sg10
(lp1590
g287
ag356
asg26
I00
sg27
I00
sg28
I3214191
sg20
S'8039.14068436'
p1591
sba(igraph
Edge
p1592
(dp1593
g7
I1
sg8
I00
sg9
I5
sg10
(lp1594
g290
ag356
asg26
I00
sg27
I00
sg28
I3214192
sg20
S'8039.14815458'
p1595
sba(igraph
Edge
p1596
(dp1597
g7
I1
sg8
I00
sg9
I5
sg10
(lp1598
g297
ag370
asg26
I00
sg27
I00
sg28
I3214193
sg20
S'8039.15557564'
p1599
sba(igraph
Edge
p1600
(dp1601
g7
I1
sg8
I00
sg9
I5
sg10
(lp1602
g304
ag370
asg26
I00
sg27
I00
sg28
I3214194
sg20
S'8039.16439939'
p1603
sba(igraph
Edge
p1604
(dp1605
g7
I1
sg8
I00
sg9
I5
sg10
(lp1606
g311
ag384
asg26
I00
sg27
I00
sg28
I3214195
sg20
S'8039.17256746'
p1607
sba(igraph
Edge
p1608
(dp1609
g7
I1
sg8
I00
sg9
I5
sg10
(lp1610
g318
ag384
asg26
I00
sg27
I00
sg28
I3214196
sg20
S'8039.17990555'
p1611
sba(igraph
Edge
p1612
(dp1613
g7
I1
sg8
I00
sg9
I5
sg10
(lp1614
g325
ag398
asg26
I00
sg27
I00
sg28
I3214197
sg20
S'8039.18759787'
p1615
sba(igraph
Edge
p1616
(dp1617
g7
I1
sg8
I00
sg9
I5
sg10
(lp1618
g332
ag398
asg26
I00
sg27
I00
sg28
I3214198
sg20
S'8039.19620902'
p1619
sba(igraph
Edge
p1620
(dp1621
g7
I1
sg8
I00
sg9
I5
sg10
(lp1622
g339
ag412
asg26
I00
sg27
I00
sg28
I3214199
sg20
S'8039.20456036'
p1623
sba(igraph
Edge
p1624
(dp1625
g7
I1
sg8
I00
sg9
I5
sg10
(lp1626
g346
ag412
asg26
I00
sg27
I00
sg28
I3214200
sg20
S'8039.21320754'
p1627
sba(igraph
Edge
p1628
(dp1629
g7
I1
sg8
I00
sg9
I5
sg10
(lp1630
g287
ag353
asg26
I00
sg27
I00
sg28
I3214201
sg20
S'8039.2302544'
p1631
sba(igraph
Edge
p1632
(dp1633
g7
I1
sg8
I00
sg9
I5
sg10
(lp1634
g290
ag363
asg26
I00
sg27
I00
sg28
I3214202
sg20
S'8039.23857669'
p1635
sba(igraph
Edge
p1636
(dp1637
g7
I1
sg8
I00
sg9
I5
sg10
(lp1638
g297
ag363
asg26
I00
sg27
I00
sg28
I3214203
sg20
S'8039.24647239'
p1639
sba(igraph
Edge
p1640
(dp1641
g7
I1
sg8
I00
sg9
I5
sg10
(lp1642
g304
ag377
asg26
I00
sg27
I00
sg28
I3214204
sg20
S'8039.25433707'
p1643
sba(igraph
Edge
p1644
(dp1645
g7
I1
sg8
I00
sg9
I5
sg10
(lp1646
g311
ag377
asg26
I00
sg27
I00
sg28
I3214205
sg20
S'8039.26212996'
p1647
sba(igraph
Edge
p1648
(dp1649
g7
I1
sg8
I00
sg9
I5
sg10
(lp1650
g318
ag391
asg26
I00
sg27
I00
sg28
I3214206
sg20
S'8039.2696907'
p1651
sba(igraph
Edge
p1652
(dp1653
g7
I1
sg8
I00
sg9
I5
sg10
(lp1654
g325
ag391
asg26
I00
sg27
I00
sg28
I3214207
sg20
S'8039.27883348'
p1655
sba(igraph
Edge
p1656
(dp1657
g7
I1
sg8
I00
sg9
I5
sg10
(lp1658
g332
ag405
asg26
I00
sg27
I00
sg28
I3214208
sg20
S'8039.28661911'
p1659
sba(igraph
Edge
p1660
(dp1661
g7
I1
sg8
I00
sg9
I5
sg10
(lp1662
g339
ag405
asg26
I00
sg27
I00
sg28
I3214209
sg20
S'8039.29434886'
p1663
sba(igraph
Edge
p1664
(dp1665
g7
I1
sg8
I00
sg9
I5
sg10
(lp1666
g353
ag422
asg26
I00
sg27
I00
sg28
I3214210
sg20
S'8039.32336121'
p1667
sba(igraph
Edge
p1668
(dp1669
g7
I1
sg8
I00
sg9
I5
sg10
(lp1670
g356
ag422
asg26
I00
sg27
I00
sg28
I3214211
sg20
S'8039.33264786'
p1671
sba(igraph
Edge
p1672
(dp1673
g7
I1
sg8
I00
sg9
I5
sg10
(lp1674
g363
ag436
asg26
I00
sg27
I00
sg28
I3214212
sg20
S'8039.34173114'
p1675
sba(igraph
Edge
p1676
(dp1677
g7
I1
sg8
I00
sg9
I5
sg10
(lp1678
g370
ag436
asg26
I00
sg27
I00
sg28
I3214213
sg20
S'8039.3512885'
p1679
sba(igraph
Edge
p1680
(dp1681
g7
I1
sg8
I00
sg9
I5
sg10
(lp1682
g377
ag450
asg26
I00
sg27
I00
sg28
I3214214
sg20
S'8039.3605542'
p1683
sba(igraph
Edge
p1684
(dp1685
g7
I1
sg8
I00
sg9
I5
sg10
(lp1686
g384
ag450
asg26
I00
sg27
I00
sg28
I3214215
sg20
S'8039.36892957'
p1687
sba(igraph
Edge
p1688
(dp1689
g7
I1
sg8
I00
sg9
I5
sg10
(lp1690
g391
ag464
asg26
I00
sg27
I00
sg28
I3214216
sg20
S'8039.37839921'
p1691
sba(igraph
Edge
p1692
(dp1693
g7
I1
sg8
I00
sg9
I5
sg10
(lp1694
g398
ag464
asg26
I00
sg27
I00
sg28
I3214217
sg20
S'8039.38636028'
p1695
sba(igraph
Edge
p1696
(dp1697
g7
I1
sg8
I00
sg9
I5
sg10
(lp1698
g405
ag478
asg26
I00
sg27
I00
sg28
I3214218
sg20
S'8039.3945359'
p1699
sba(igraph
Edge
p1700
(dp1701
g7
I1
sg8
I00
sg9
I5
sg10
(lp1702
g412
ag478
asg26
I00
sg27
I00
sg28
I3214219
sg20
S'8039.40312833'
p1703
sba(igraph
Edge
p1704
(dp1705
g7
I1
sg8
I00
sg9
I5
sg10
(lp1706
g353
ag419
asg26
I00
sg27
I00
sg28
I3214220
sg20
S'8039.41897615'
p1707
sba(igraph
Edge
p1708
(dp1709
g7
I1
sg8
I00
sg9
I5
sg10
(lp1710
g356
ag429
asg26
I00
sg27
I00
sg28
I3214221
sg20
S'8039.42735487'
p1711
sba(igraph
Edge
p1712
(dp1713
g7
I1
sg8
I00
sg9
I5
sg10
(lp1714
g363
ag429
asg26
I00
sg27
I00
sg28
I3214222
sg20
S'8039.43556793'
p1715
sba(igraph
Edge
p1716
(dp1717
g7
I1
sg8
I00
sg9
I5
sg10
(lp1718
g370
ag443
asg26
I00
sg27
I00
sg28
I3214223
sg20
S'8039.44463835'
p1719
sba(igraph
Edge
p1720
(dp1721
g7
I1
sg8
I00
sg9
I5
sg10
(lp1722
g377
ag443
asg26
I00
sg27
I00
sg28
I3214224
sg20
S'8039.45401105'
p1723
sba(igraph
Edge
p1724
(dp1725
g7
I1
sg8
I00
sg9
I5
sg10
(lp1726
g384
ag457
asg26
I00
sg27
I00
sg28
I3214225
sg20
S'8039.46454396'
p1727
sba(igraph
Edge
p1728
(dp1729
g7
I1
sg8
I00
sg9
I5
sg10
(lp1730
g391
ag457
asg26
I00
sg27
I00
sg28
I3214226
sg20
S'8039.47365126'
p1731
sba(igraph
Edge
p1732
(dp1733
g7
I1
sg8
I00
sg9
I5
sg10
(lp1734
g398
ag471
asg26
I00
sg27
I00
sg28
I3214227
sg20
S'8039.48280047'
p1735
sba(igraph
Edge
p1736
(dp1737
g7
I1
sg8
I00
sg9
I5
sg10
(lp1738
g405
ag471
asg26
I00
sg27
I00
sg28
I3214228
sg20
S'8039.49194213'
p1739
sba(igraph
Edge
p1740
(dp1741
g7
I1
sg8
I00
sg9
I5
sg10
(lp1742
g419
ag488
asg26
I00
sg27
I00
sg28
I3214229
sg20
S'8039.51878912'
p1743
sba(igraph
Edge
p1744
(dp1745
g7
I1
sg8
I00
sg9
I5
sg10
(lp1746
g422
ag488
asg26
I00
sg27
I00
sg28
I3214230
sg20
S'8039.52761957'
p1747
sba(igraph
Edge
p1748
(dp1749
g7
I1
sg8
I00
sg9
I5
sg10
(lp1750
g429
ag502
asg26
I00
sg27
I00
sg28
I3214231
sg20
S'8039.53607931'
p1751
sba(igraph
Edge
p1752
(dp1753
g7
I1
sg8
I00
sg9
I5
sg10
(lp1754
g436
ag502
asg26
I00
sg27
I00
sg28
I3214232
sg20
S'8039.54468682'
p1755
sba(igraph
Edge
p1756
(dp1757
g7
I1
sg8
I00
sg9
I5
sg10
(lp1758
g443
ag516
asg26
I00
sg27
I00
sg28
I3214233
sg20
S'8039.55329602'
p1759
sba(igraph
Edge
p1760
(dp1761
g7
I1
sg8
I00
sg9
I5
sg10
(lp1762
g450
ag516
asg26
I00
sg27
I00
sg28
I3214234
sg20
S'8039.56167725'
p1763
sba(igraph
Edge
p1764
(dp1765
g7
I1
sg8
I00
sg9
I5
sg10
(lp1766
g457
ag530
asg26
I00
sg27
I00
sg28
I3214235
sg20
S'8039.56990958'
p1767
sba(igraph
Edge
p1768
(dp1769
g7
I1
sg8
I00
sg9
I5
sg10
(lp1770
g464
ag530
asg26
I00
sg27
I00
sg28
I3214236
sg20
S'8039.57917584'
p1771
sba(igraph
Edge
p1772
(dp1773
g7
I1
sg8
I00
sg9
I5
sg10
(lp1774
g471
ag544
asg26
I00
sg27
I00
sg28
I3214237
sg20
S'8039.58983307'
p1775
sba(igraph
Edge
p1776
(dp1777
g7
I1
sg8
I00
sg9
I5
sg10
(lp1778
g478
ag544
asg26
I00
sg27
I00
sg28
I3214238
sg20
S'8039.60237628'
p1779
sba(igraph
Edge
p1780
(dp1781
g7
I1
sg8
I00
sg9
I5
sg10
(lp1782
g419
ag485
asg26
I00
sg27
I00
sg28
I3214239
sg20
S'8039.62374827'
p1783
sba(igraph
Edge
p1784
(dp1785
g7
I1
sg8
I00
sg9
I5
sg10
(lp1786
g422
ag495
asg26
I00
sg27
I00
sg28
I3214240
sg20
S'8039.63259241'
p1787
sba(igraph
Edge
p1788
(dp1789
g7
I1
sg8
I00
sg9
I5
sg10
(lp1790
g429
ag495
asg26
I00
sg27
I00
sg28
I3214241
sg20
S'8039.64151086'
p1791
sba(igraph
Edge
p1792
(dp1793
g7
I1
sg8
I00
sg9
I5
sg10
(lp1794
g436
ag509
asg26
I00
sg27
I00
sg28
I3214242
sg20
S'8039.65051955'
p1795
sba(igraph
Edge
p1796
(dp1797
g7
I1
sg8
I00
sg9
I5
sg10
(lp1798
g443
ag509
asg26
I00
sg27
I00
sg28
I3214243
sg20
S'8039.65882452'
p1799
sba(igraph
Edge
p1800
(dp1801
g7
I1
sg8
I00
sg9
I5
sg10
(lp1802
g450
ag523
asg26
I00
sg27
I00
sg28
I3214244
sg20
S'8039.66710909'
p1803
sba(igraph
Edge
p1804
(dp1805
g7
I1
sg8
I00
sg9
I5
sg10
(lp1806
g457
ag523
asg26
I00
sg27
I00
sg28
I3214245
sg20
S'8039.67534757'
p1807
sba(igraph
Edge
p1808
(dp1809
g7
I1
sg8
I00
sg9
I5
sg10
(lp1810
g464
ag537
asg26
I00
sg27
I00
sg28
I3214246
sg20
S'8039.6836665'
p1811
sba(igraph
Edge
p1812
(dp1813
g7
I1
sg8
I00
sg9
I5
sg10
(lp1814
g471
ag537
asg26
I00
sg27
I00
sg28
I3214247
sg20
S'8039.69188263'
p1815
sba(igraph
Edge
p1816
(dp1817
g7
I1
sg8
I00
sg9
I5
sg10
(lp1818
g485
ag554
asg26
I00
sg27
I00
sg28
I3214248
sg20
S'8039.71664639'
p1819
sba(igraph
Edge
p1820
(dp1821
g7
I1
sg8
I00
sg9
I5
sg10
(lp1822
g488
ag554
asg26
I00
sg27
I00
sg28
I3214249
sg20
S'8039.72524497'
p1823
sba(igraph
Edge
p1824
(dp1825
g7
I1
sg8
I00
sg9
I5
sg10
(lp1826
g495
ag568
asg26
I00
sg27
I00
sg28
I3214250
sg20
S'8039.7336167'
p1827
sba(igraph
Edge
p1828
(dp1829
g7
I1
sg8
I00
sg9
I5
sg10
(lp1830
g502
ag568
asg26
I00
sg27
I00
sg28
I3214251
sg20
S'8039.74199514'
p1831
sba(igraph
Edge
p1832
(dp1833
g7
I1
sg8
I00
sg9
I5
sg10
(lp1834
g509
ag582
asg26
I00
sg27
I00
sg28
I3214252
sg20
S'8039.75043225'
p1835
sba(igraph
Edge
p1836
(dp1837
g7
I1
sg8
I00
sg9
I5
sg10
(lp1838
g516
ag582
asg26
I00
sg27
I00
sg28
I3214253
sg20
S'8039.75891517'
p1839
sba(igraph
Edge
p1840
(dp1841
g7
I1
sg8
I00
sg9
I5
sg10
(lp1842
g523
ag596
asg26
I00
sg27
I00
sg28
I3214254
sg20
S'8039.767352'
p1843
sba(igraph
Edge
p1844
(dp1845
g7
I1
sg8
I00
sg9
I5
sg10
(lp1846
g530
ag596
asg26
I00
sg27
I00
sg28
I3214255
sg20
S'8039.77608216'
p1847
sba(igraph
Edge
p1848
(dp1849
g7
I1
sg8
I00
sg9
I5
sg10
(lp1850
g537
ag610
asg26
I00
sg27
I00
sg28
I3214256
sg20
S'8039.7845905'
p1851
sba(igraph
Edge
p1852
(dp1853
g7
I1
sg8
I00
sg9
I5
sg10
(lp1854
g544
ag610
asg26
I00
sg27
I00
sg28
I3214257
sg20
S'8039.7931631'
p1855
sba(igraph
Edge
p1856
(dp1857
g7
I1
sg8
I00
sg9
I5
sg10
(lp1858
g485
ag551
asg26
I00
sg27
I00
sg28
I3214258
sg20
S'8039.81047787'
p1859
sba(igraph
Edge
p1860
(dp1861
g7
I1
sg8
I00
sg9
I5
sg10
(lp1862
g488
ag561
asg26
I00
sg27
I00
sg28
I3214259
sg20
S'8039.81949298'
p1863
sba(igraph
Edge
p1864
(dp1865
g7
I1
sg8
I00
sg9
I5
sg10
(lp1866
g495
ag561
asg26
I00
sg27
I00
sg28
I3214260
sg20
S'8039.82809882'
p1867
sba(igraph
Edge
p1868
(dp1869
g7
I1
sg8
I00
sg9
I5
sg10
(lp1870
g502
ag575
asg26
I00
sg27
I00
sg28
I3214261
sg20
S'8039.83664795'
p1871
sba(igraph
Edge
p1872
(dp1873
g7
I1
sg8
I00
sg9
I5
sg10
(lp1874
g509
ag575
asg26
I00
sg27
I00
sg28
I3214262
sg20
S'8039.84529654'
p1875
sba(igraph
Edge
p1876
(dp1877
g7
I1
sg8
I00
sg9
I5
sg10
(lp1878
g516
ag589
asg26
I00
sg27
I00
sg28
I3214263
sg20
S'8039.85398619'
p1879
sba(igraph
Edge
p1880
(dp1881
g7
I1
sg8
I00
sg9
I5
sg10
(lp1882
g523
ag589
asg26
I00
sg27
I00
sg28
I3214264
sg20
S'8039.86295633'
p1883
sba(igraph
Edge
p1884
(dp1885
g7
I1
sg8
I00
sg9
I5
sg10
(lp1886
g530
ag603
asg26
I00
sg27
I00
sg28
I3214265
sg20
S'8039.87164877'
p1887
sba(igraph
Edge
p1888
(dp1889
g7
I1
sg8
I00
sg9
I5
sg10
(lp1890
g537
ag603
asg26
I00
sg27
I00
sg28
I3214266
sg20
S'8039.8802887'
p1891
sba(igraph
Edge
p1892
(dp1893
g7
I1
sg8
I00
sg9
I5
sg10
(lp1894
g551
ag620
asg26
I00
sg27
I00
sg28
I3214267
sg20
S'8039.90654902'
p1895
sba(igraph
Edge
p1896
(dp1897
g7
I1
sg8
I00
sg9
I5
sg10
(lp1898
g554
ag620
asg26
I00
sg27
I00
sg28
I3214268
sg20
S'8039.91529035'
p1899
sba(igraph
Edge
p1900
(dp1901
g7
I1
sg8
I00
sg9
I5
sg10
(lp1902
g561
ag634
asg26
I00
sg27
I00
sg28
I3214269
sg20
S'8039.92405711'
p1903
sba(igraph
Edge
p1904
(dp1905
g7
I1
sg8
I00
sg9
I5
sg10
(lp1906
g568
ag634
asg26
I00
sg27
I00
sg28
I3214270
sg20
S'8039.9330183'
p1907
sba(igraph
Edge
p1908
(dp1909
g7
I1
sg8
I00
sg9
I5
sg10
(lp1910
g575
ag648
asg26
I00
sg27
I00
sg28
I3214271
sg20
S'8039.94196246'
p1911
sba(igraph
Edge
p1912
(dp1913
g7
I1
sg8
I00
sg9
I5
sg10
(lp1914
g582
ag648
asg26
I00
sg27
I00
sg28
I3214272
sg20
S'8039.95093734'
p1915
sba(igraph
Edge
p1916
(dp1917
g7
I1
sg8
I00
sg9
I5
sg10
(lp1918
g589
ag662
asg26
I00
sg27
I00
sg28
I3214273
sg20
S'8039.95981277'
p1919
sba(igraph
Edge
p1920
(dp1921
g7
I1
sg8
I00
sg9
I5
sg10
(lp1922
g596
ag662
asg26
I00
sg27
I00
sg28
I3214274
sg20
S'8039.96906422'
p1923
sba(igraph
Edge
p1924
(dp1925
g7
I1
sg8
I00
sg9
I5
sg10
(lp1926
g603
ag676
asg26
I00
sg27
I00
sg28
I3214275
sg20
S'8039.97808381'
p1927
sba(igraph
Edge
p1928
(dp1929
g7
I1
sg8
I00
sg9
I5
sg10
(lp1930
g610
ag676
asg26
I00
sg27
I00
sg28
I3214276
sg20
S'8039.98693828'
p1931
sba(igraph
Edge
p1932
(dp1933
g7
I1
sg8
I00
sg9
I5
sg10
(lp1934
g551
ag617
asg26
I00
sg27
I00
sg28
I3214277
sg20
S'8040.00489029'
p1935
sba(igraph
Edge
p1936
(dp1937
g7
I1
sg8
I00
sg9
I5
sg10
(lp1938
g554
ag627
asg26
I00
sg27
I00
sg28
I3214278
sg20
S'8040.01390344'
p1939
sba(igraph
Edge
p1940
(dp1941
g7
I1
sg8
I00
sg9
I5
sg10
(lp1942
g561
ag627
asg26
I00
sg27
I00
sg28
I3214279
sg20
S'8040.02294956'
p1943
sba(igraph
Edge
p1944
(dp1945
g7
I1
sg8
I00
sg9
I5
sg10
(lp1946
g568
ag641
asg26
I00
sg27
I00
sg28
I3214280
sg20
S'8040.03197585'
p1947
sba(igraph
Edge
p1948
(dp1949
g7
I1
sg8
I00
sg9
I5
sg10
(lp1950
g575
ag641
asg26
I00
sg27
I00
sg28
I3214281
sg20
S'8040.04103874'
p1951
sba(igraph
Edge
p1952
(dp1953
g7
I1
sg8
I00
sg9
I5
sg10
(lp1954
g582
ag655
asg26
I00
sg27
I00
sg28
I3214282
sg20
S'8040.05030137'
p1955
sba(igraph
Edge
p1956
(dp1957
g7
I1
sg8
I00
sg9
I5
sg10
(lp1958
g589
ag655
asg26
I00
sg27
I00
sg28
I3214283
sg20
S'8040.05932793'
p1959
sba(igraph
Edge
p1960
(dp1961
g7
I1
sg8
I00
sg9
I5
sg10
(lp1962
g596
ag669
asg26
I00
sg27
I00
sg28
I3214284
sg20
S'8040.06849781'
p1963
sba(igraph
Edge
p1964
(dp1965
g7
I1
sg8
I00
sg9
I5
sg10
(lp1966
g603
ag669
asg26
I00
sg27
I00
sg28
I3214285
sg20
S'8040.07782861'
p1967
sba(igraph
Edge
p1968
(dp1969
g7
I1
sg8
I00
sg9
I5
sg10
(lp1970
g617
ag686
asg26
I00
sg27
I00
sg28
I3214286
sg20
S'8040.10564778'
p1971
sba(igraph
Edge
p1972
(dp1973
g7
I1
sg8
I00
sg9
I5
sg10
(lp1974
g620
ag686
asg26
I00
sg27
I00
sg28
I3214287
sg20
S'8040.11493248'
p1975
sba(igraph
Edge
p1976
(dp1977
g7
I1
sg8
I00
sg9
I5
sg10
(lp1978
g627
ag700
asg26
I00
sg27
I00
sg28
I3214288
sg20
S'8040.12427976'
p1979
sba(igraph
Edge
p1980
(dp1981
g7
I1
sg8
I00
sg9
I5
sg10
(lp1982
g634
ag700
asg26
I00
sg27
I00
sg28
I3214289
sg20
S'8040.13356977'
p1983
sba(igraph
Edge
p1984
(dp1985
g7
I1
sg8
I00
sg9
I5
sg10
(lp1986
g641
ag714
asg26
I00
sg27
I00
sg28
I3214290
sg20
S'8040.14294135'
p1987
sba(igraph
Edge
p1988
(dp1989
g7
I1
sg8
I00
sg9
I5
sg10
(lp1990
g648
ag714
asg26
I00
sg27
I00
sg28
I3214291
sg20
S'8040.15273226'
p1991
sba(igraph
Edge
p1992
(dp1993
g7
I1
sg8
I00
sg9
I5
sg10
(lp1994
g655
ag728
asg26
I00
sg27
I00
sg28
I3214292
sg20
S'8040.16233935'
p1995
sba(igraph
Edge
p1996
(dp1997
g7
I1
sg8
I00
sg9
I5
sg10
(lp1998
g662
ag728
asg26
I00
sg27
I00
sg28
I3214293
sg20
S'8040.17283873'
p1999
sba(igraph
Edge
p2000
(dp2001
g7
I1
sg8
I00
sg9
I5
sg10
(lp2002
g669
ag742
asg26
I00
sg27
I00
sg28
I3214294
sg20
S'8040.18328167'
p2003
sba(igraph
Edge
p2004
(dp2005
g7
I1
sg8
I00
sg9
I5
sg10
(lp2006
g676
ag742
asg26
I00
sg27
I00
sg28
I3214295
sg20
S'8040.19337542'
p2007
sba(igraph
Edge
p2008
(dp2009
g7
I1
sg8
I00
sg9
I5
sg10
(lp2010
g617
ag683
asg26
I00
sg27
I00
sg28
I3214296
sg20
S'8040.21659876'
p2011
sba(igraph
Edge
p2012
(dp2013
g7
I1
sg8
I00
sg9
I5
sg10
(lp2014
g620
ag693
asg26
I00
sg27
I00
sg28
I3214297
sg20
S'8040.23372105'
p2015
sba(igraph
Edge
p2016
(dp2017
g7
I1
sg8
I00
sg9
I5
sg10
(lp2018
g627
ag693
asg26
I00
sg27
I00
sg28
I3214298
sg20
S'8040.24639836'
p2019
sba(igraph
Edge
p2020
(dp2021
g7
I1
sg8
I00
sg9
I5
sg10
(lp2022
g634
ag707
asg26
I00
sg27
I00
sg28
I3214299
sg20
S'8040.25947069'
p2023
sba(igraph
Edge
p2024
(dp2025
g7
I1
sg8
I00
sg9
I5
sg10
(lp2026
g641
ag707
asg26
I00
sg27
I00
sg28
I3214300
sg20
S'8040.27082269'
p2027
sba(igraph
Edge
p2028
(dp2029
g7
I1
sg8
I00
sg9
I5
sg10
(lp2030
g648
ag721
asg26
I00
sg27
I00
sg28
I3214301
sg20
S'8040.2814936'
p2031
sba(igraph
Edge
p2032
(dp2033
g7
I1
sg8
I00
sg9
I5
sg10
(lp2034
g655
ag721
asg26
I00
sg27
I00
sg28
I3214302
sg20
S'8040.29124456'
p2035
sba(igraph
Edge
p2036
(dp2037
g7
I1
sg8
I00
sg9
I5
sg10
(lp2038
g662
ag735
asg26
I00
sg27
I00
sg28
I3214303
sg20
S'8040.30090249'
p2039
sba(igraph
Edge
p2040
(dp2041
g7
I1
sg8
I00
sg9
I5
sg10
(lp2042
g669
ag735
asg26
I00
sg27
I00
sg28
I3214304
sg20
S'8040.31055595'
p2043
sba(igraph
Edge
p2044
(dp2045
g7
I1
sg8
I00
sg9
I5
sg10
(lp2046
g683
ag752
asg26
I00
sg27
I00
sg28
I3214305
sg20
S'8040.33949203'
p2047
sba(igraph
Edge
p2048
(dp2049
g7
I1
sg8
I00
sg9
I5
sg10
(lp2050
g686
ag752
asg26
I00
sg27
I00
sg28
I3214306
sg20
S'8040.34920416'
p2051
sba(igraph
Edge
p2052
(dp2053
g7
I1
sg8
I00
sg9
I5
sg10
(lp2054
g693
ag766
asg26
I00
sg27
I00
sg28
I3214307
sg20
S'8040.35896992'
p2055
sba(igraph
Edge
p2056
(dp2057
g7
I1
sg8
I00
sg9
I5
sg10
(lp2058
g700
ag766
asg26
I00
sg27
I00
sg28
I3214308
sg20
S'8040.36893683'
p2059
sba(igraph
Edge
p2060
(dp2061
g7
I1
sg8
I00
sg9
I5
sg10
(lp2062
g707
ag780
asg26
I00
sg27
I00
sg28
I3214309
sg20
S'8040.37866265'
p2063
sba(igraph
Edge
p2064
(dp2065
g7
I1
sg8
I00
sg9
I5
sg10
(lp2066
g714
ag780
asg26
I00
sg27
I00
sg28
I3214310
sg20
S'8040.388472'
p2067
sba(igraph
Edge
p2068
(dp2069
g7
I1
sg8
I00
sg9
I5
sg10
(lp2070
g721
ag794
asg26
I00
sg27
I00
sg28
I3214311
sg20
S'8040.39845427'
p2071
sba(igraph
Edge
p2072
(dp2073
g7
I1
sg8
I00
sg9
I5
sg10
(lp2074
g728
ag794
asg26
I00
sg27
I00
sg28
I3214312
sg20
S'8040.40815383'
p2075
sba(igraph
Edge
p2076
(dp2077
g7
I1
sg8
I00
sg9
I5
sg10
(lp2078
g735
ag808
asg26
I00
sg27
I00
sg28
I3214313
sg20
S'8040.41791541'
p2079
sba(igraph
Edge
p2080
(dp2081
g7
I1
sg8
I00
sg9
I5
sg10
(lp2082
g742
ag808
asg26
I00
sg27
I00
sg28
I3214314
sg20
S'8040.42807703'
p2083
sba(igraph
Edge
p2084
(dp2085
g7
I1
sg8
I00
sg9
I5
sg10
(lp2086
g683
ag749
asg26
I00
sg27
I00
sg28
I3214315
sg20
S'8040.44807902'
p2087
sba(igraph
Edge
p2088
(dp2089
g7
I1
sg8
I00
sg9
I5
sg10
(lp2090
g686
ag759
asg26
I00
sg27
I00
sg28
I3214316
sg20
S'8040.46019704'
p2091
sba(igraph
Edge
p2092
(dp2093
g7
I1
sg8
I00
sg9
I5
sg10
(lp2094
g693
ag759
asg26
I00
sg27
I00
sg28
I3214317
sg20
S'8040.47106127'
p2095
sba(igraph
Edge
p2096
(dp2097
g7
I1
sg8
I00
sg9
I5
sg10
(lp2098
g700
ag773
asg26
I00
sg27
I00
sg28
I3214318
sg20
S'8040.48198305'
p2099
sba(igraph
Edge
p2100
(dp2101
g7
I1
sg8
I00
sg9
I5
sg10
(lp2102
g707
ag773
asg26
I00
sg27
I00
sg28
I3214319
sg20
S'8040.49283051'
p2103
sba(igraph
Edge
p2104
(dp2105
g7
I1
sg8
I00
sg9
I5
sg10
(lp2106
g714
ag787
asg26
I00
sg27
I00
sg28
I3214320
sg20
S'8040.50374028'
p2107
sba(igraph
Edge
p2108
(dp2109
g7
I1
sg8
I00
sg9
I5
sg10
(lp2110
g721
ag787
asg26
I00
sg27
I00
sg28
I3214321
sg20
S'8040.51464474'
p2111
sba(igraph
Edge
p2112
(dp2113
g7
I1
sg8
I00
sg9
I5
sg10
(lp2114
g728
ag801
asg26
I00
sg27
I00
sg28
I3214322
sg20
S'8040.52909909'
p2115
sba(igraph
Edge
p2116
(dp2117
g7
I1
sg8
I00
sg9
I5
sg10
(lp2118
g735
ag801
asg26
I00
sg27
I00
sg28
I3214323
sg20
S'8040.54165934'
p2119
sba(igraph
Edge
p2120
(dp2121
g7
I1
sg8
I00
sg9
I5
sg10
(lp2122
g749
ag818
asg26
I00
sg27
I00
sg28
I3214324
sg20
S'8040.5776575'
p2123
sba(igraph
Edge
p2124
(dp2125
g7
I1
sg8
I00
sg9
I5
sg10
(lp2126
g752
ag818
asg26
I00
sg27
I00
sg28
I3214325
sg20
S'8040.58970232'
p2127
sba(igraph
Edge
p2128
(dp2129
g7
I1
sg8
I00
sg9
I5
sg10
(lp2130
g759
ag832
asg26
I00
sg27
I00
sg28
I3214326
sg20
S'8040.60187677'
p2131
sba(igraph
Edge
p2132
(dp2133
g7
I1
sg8
I00
sg9
I5
sg10
(lp2134
g766
ag832
asg26
I00
sg27
I00
sg28
I3214327
sg20
S'8040.61326705'
p2135
sba(igraph
Edge
p2136
(dp2137
g7
I1
sg8
I00
sg9
I5
sg10
(lp2138
g773
ag846
asg26
I00
sg27
I00
sg28
I3214328
sg20
S'8040.62473387'
p2139
sba(igraph
Edge
p2140
(dp2141
g7
I1
sg8
I00
sg9
I5
sg10
(lp2142
g780
ag846
asg26
I00
sg27
I00
sg28
I3214329
sg20
S'8040.63640798'
p2143
sba(igraph
Edge
p2144
(dp2145
g7
I1
sg8
I00
sg9
I5
sg10
(lp2146
g787
ag860
asg26
I00
sg27
I00
sg28
I3214330
sg20
S'8040.64841202'
p2147
sba(igraph
Edge
p2148
(dp2149
g7
I1
sg8
I00
sg9
I5
sg10
(lp2150
g794
ag860
asg26
I00
sg27
I00
sg28
I3214331
sg20
S'8040.6596397'
p2151
sba(igraph
Edge
p2152
(dp2153
g7
I1
sg8
I00
sg9
I5
sg10
(lp2154
g801
ag874
asg26
I00
sg27
I00
sg28
I3214332
sg20
S'8040.67064613'
p2155
sba(igraph
Edge
p2156
(dp2157
g7
I1
sg8
I00
sg9
I5
sg10
(lp2158
g808
ag874
asg26
I00
sg27
I00
sg28
I3214333
sg20
S'8040.68168273'
p2159
sba(igraph
Edge
p2160
(dp2161
g7
I1
sg8
I00
sg9
I5
sg10
(lp2162
g749
ag815
asg26
I00
sg27
I00
sg28
I3214334
sg20
S'8040.71053053'
p2163
sba(igraph
Edge
p2164
(dp2165
g7
I1
sg8
I00
sg9
I5
sg10
(lp2166
g752
ag825
asg26
I00
sg27
I00
sg28
I3214335
sg20
S'8040.72388949'
p2167
sba(igraph
Edge
p2168
(dp2169
g7
I1
sg8
I00
sg9
I5
sg10
(lp2170
g759
ag825
asg26
I00
sg27
I00
sg28
I3214336
sg20
S'8040.73646902'
p2171
sba(igraph
Edge
p2172
(dp2173
g7
I1
sg8
I00
sg9
I5
sg10
(lp2174
g766
ag839
asg26
I00
sg27
I00
sg28
I3214337
sg20
S'8040.74844065'
p2175
sba(igraph
Edge
p2176
(dp2177
g7
I1
sg8
I00
sg9
I5
sg10
(lp2178
g773
ag839
asg26
I00
sg27
I00
sg28
I3214338
sg20
S'8040.75982311'
p2179
sba(igraph
Edge
p2180
(dp2181
g7
I1
sg8
I00
sg9
I5
sg10
(lp2182
g780
ag853
asg26
I00
sg27
I00
sg28
I3214339
sg20
S'8040.77163941'
p2183
sba(igraph
Edge
p2184
(dp2185
g7
I1
sg8
I00
sg9
I5
sg10
(lp2186
g787
ag853
asg26
I00
sg27
I00
sg28
I3214340
sg20
S'8040.78301209'
p2187
sba(igraph
Edge
p2188
(dp2189
g7
I1
sg8
I00
sg9
I5
sg10
(lp2190
g794
ag867
asg26
I00
sg27
I00
sg28
I3214341
sg20
S'8040.79441326'
p2191
sba(igraph
Edge
p2192
(dp2193
g7
I1
sg8
I00
sg9
I5
sg10
(lp2194
g801
ag867
asg26
I00
sg27
I00
sg28
I3214342
sg20
S'8040.81016945'
p2195
sba(igraph
Edge
p2196
(dp2197
g7
I1
sg8
I00
sg9
I5
sg10
(lp2198
g815
ag884
asg26
I00
sg27
I00
sg28
I3214343
sg20
S'8040.84833938'
p2199
sba(igraph
Edge
p2200
(dp2201
g7
I1
sg8
I00
sg9
I5
sg10
(lp2202
g818
ag884
asg26
I00
sg27
I00
sg28
I3214344
sg20
S'8040.86260516'
p2203
sba(igraph
Edge
p2204
(dp2205
g7
I1
sg8
I00
sg9
I5
sg10
(lp2206
g825
ag898
asg26
I00
sg27
I00
sg28
I3214345
sg20
S'8040.87594373'
p2207
sba(igraph
Edge
p2208
(dp2209
g7
I1
sg8
I00
sg9
I5
sg10
(lp2210
g832
ag898
asg26
I00
sg27
I00
sg28
I3214346
sg20
S'8040.88865875'
p2211
sba(igraph
Edge
p2212
(dp2213
g7
I1
sg8
I00
sg9
I5
sg10
(lp2214
g839
ag912
asg26
I00
sg27
I00
sg28
I3214347
sg20
S'8040.90099691'
p2215
sba(igraph
Edge
p2216
(dp2217
g7
I1
sg8
I00
sg9
I5
sg10
(lp2218
g846
ag912
asg26
I00
sg27
I00
sg28
I3214348
sg20
S'8040.91274953'
p2219
sba(igraph
Edge
p2220
(dp2221
g7
I1
sg8
I00
sg9
I5
sg10
(lp2222
g853
ag926
asg26
I00
sg27
I00
sg28
I3214349
sg20
S'8040.92430016'
p2223
sba(igraph
Edge
p2224
(dp2225
g7
I1
sg8
I00
sg9
I5
sg10
(lp2226
g860
ag926
asg26
I00
sg27
I00
sg28
I3214350
sg20
S'8040.93600723'
p2227
sba(igraph
Edge
p2228
(dp2229
g7
I1
sg8
I00
sg9
I5
sg10
(lp2230
g867
ag940
asg26
I00
sg27
I00
sg28
I3214351
sg20
S'8040.94794227'
p2231
sba(igraph
Edge
p2232
(dp2233
g7
I1
sg8
I00
sg9
I5
sg10
(lp2234
g874
ag940
asg26
I00
sg27
I00
sg28
I3214352
sg20
S'8040.9615345'
p2235
sba(igraph
Edge
p2236
(dp2237
g7
I1
sg8
I00
sg9
I5
sg10
(lp2238
g815
ag881
asg26
I00
sg27
I00
sg28
I3214353
sg20
S'8040.98830159'
p2239
sba(igraph
Edge
p2240
(dp2241
g7
I1
sg8
I00
sg9
I5
sg10
(lp2242
g818
ag891
asg26
I00
sg27
I00
sg28
I3214354
sg20
S'8041.00188963'
p2243
sba(igraph
Edge
p2244
(dp2245
g7
I1
sg8
I00
sg9
I5
sg10
(lp2246
g825
ag891
asg26
I00
sg27
I00
sg28
I3214355
sg20
S'8041.01540559'
p2247
sba(igraph
Edge
p2248
(dp2249
g7
I1
sg8
I00
sg9
I5
sg10
(lp2250
g832
ag905
asg26
I00
sg27
I00
sg28
I3214356
sg20
S'8041.02841534'
p2251
sba(igraph
Edge
p2252
(dp2253
g7
I1
sg8
I00
sg9
I5
sg10
(lp2254
g839
ag905
asg26
I00
sg27
I00
sg28
I3214357
sg20
S'8041.04028277'
p2255
sba(igraph
Edge
p2256
(dp2257
g7
I1
sg8
I00
sg9
I5
sg10
(lp2258
g846
ag919
asg26
I00
sg27
I00
sg28
I3214358
sg20
S'8041.05293382'
p2259
sba(igraph
Edge
p2260
(dp2261
g7
I1
sg8
I00
sg9
I5
sg10
(lp2262
g853
ag919
asg26
I00
sg27
I00
sg28
I3214359
sg20
S'8041.06495881'
p2263
sba(igraph
Edge
p2264
(dp2265
g7
I1
sg8
I00
sg9
I5
sg10
(lp2266
g860
ag933
asg26
I00
sg27
I00
sg28
I3214360
sg20
S'8041.07613314'
p2267
sba(igraph
Edge
p2268
(dp2269
g7
I1
sg8
I00
sg9
I5
sg10
(lp2270
g867
ag933
asg26
I00
sg27
I00
sg28
I3214361
sg20
S'8041.08725969'
p2271
sba(igraph
Edge
p2272
(dp2273
g7
I1
sg8
I00
sg9
I5
sg10
(lp2274
g881
ag950
asg26
I00
sg27
I00
sg28
I3214362
sg20
S'8041.12089358'
p2275
sba(igraph
Edge
p2276
(dp2277
g7
I1
sg8
I00
sg9
I5
sg10
(lp2278
g884
ag950
asg26
I00
sg27
I00
sg28
I3214363
sg20
S'8041.13210003'
p2279
sba(igraph
Edge
p2280
(dp2281
g7
I1
sg8
I00
sg9
I5
sg10
(lp2282
g891
ag964
asg26
I00
sg27
I00
sg28
I3214364
sg20
S'8041.14342018'
p2283
sba(igraph
Edge
p2284
(dp2285
g7
I1
sg8
I00
sg9
I5
sg10
(lp2286
g898
ag964
asg26
I00
sg27
I00
sg28
I3214365
sg20
S'8041.15489902'
p2287
sba(igraph
Edge
p2288
(dp2289
g7
I1
sg8
I00
sg9
I5
sg10
(lp2290
g905
ag978
asg26
I00
sg27
I00
sg28
I3214366
sg20
S'8041.16631527'
p2291
sba(igraph
Edge
p2292
(dp2293
g7
I1
sg8
I00
sg9
I5
sg10
(lp2294
g912
ag978
asg26
I00
sg27
I00
sg28
I3214367
sg20
S'8041.17756251'
p2295
sba(igraph
Edge
p2296
(dp2297
g7
I1
sg8
I00
sg9
I5
sg10
(lp2298
g919
ag992
asg26
I00
sg27
I00
sg28
I3214368
sg20
S'8041.18880053'
p2299
sba(igraph
Edge
p2300
(dp2301
g7
I1
sg8
I00
sg9
I5
sg10
(lp2302
g926
ag992
asg26
I00
sg27
I00
sg28
I3214369
sg20
S'8041.20018606'
p2303
sba(igraph
Edge
p2304
(dp2305
g7
I1
sg8
I00
sg9
I5
sg10
(lp2306
g933
ag1006
asg26
I00
sg27
I00
sg28
I3214370
sg20
S'8041.2114509'
p2307
sba(igraph
Edge
p2308
(dp2309
g7
I1
sg8
I00
sg9
I5
sg10
(lp2310
g940
ag1006
asg26
I00
sg27
I00
sg28
I3214371
sg20
S'8041.22280485'
p2311
sba(igraph
Edge
p2312
(dp2313
g7
I1
sg8
I00
sg9
I5
sg10
(lp2314
g881
ag947
asg26
I00
sg27
I00
sg28
I3214372
sg20
S'8041.24560635'
p2315
sba(igraph
Edge
p2316
(dp2317
g7
I1
sg8
I00
sg9
I5
sg10
(lp2318
g884
ag957
asg26
I00
sg27
I00
sg28
I3214373
sg20
S'8041.25705558'
p2319
sba(igraph
Edge
p2320
(dp2321
g7
I1
sg8
I00
sg9
I5
sg10
(lp2322
g891
ag957
asg26
I00
sg27
I00
sg28
I3214374
sg20
S'8041.26857268'
p2323
sba(igraph
Edge
p2324
(dp2325
g7
I1
sg8
I00
sg9
I5
sg10
(lp2326
g898
ag971
asg26
I00
sg27
I00
sg28
I3214375
sg20
S'8041.28010655'
p2327
sba(igraph
Edge
p2328
(dp2329
g7
I1
sg8
I00
sg9
I5
sg10
(lp2330
g905
ag971
asg26
I00
sg27
I00
sg28
I3214376
sg20
S'8041.291615'
p2331
sba(igraph
Edge
p2332
(dp2333
g7
I1
sg8
I00
sg9
I5
sg10
(lp2334
g912
ag985
asg26
I00
sg27
I00
sg28
I3214377
sg20
S'8041.30332682'
p2335
sba(igraph
Edge
p2336
(dp2337
g7
I1
sg8
I00
sg9
I5
sg10
(lp2338
g919
ag985
asg26
I00
sg27
I00
sg28
I3214378
sg20
S'8041.31473777'
p2339
sba(igraph
Edge
p2340
(dp2341
g7
I1
sg8
I00
sg9
I5
sg10
(lp2342
g926
ag999
asg26
I00
sg27
I00
sg28
I3214379
sg20
S'8041.32656637'
p2343
sba(igraph
Edge
p2344
(dp2345
g7
I1
sg8
I00
sg9
I5
sg10
(lp2346
g933
ag999
asg26
I00
sg27
I00
sg28
I3214380
sg20
S'8041.33824187'
p2347
sba(igraph
Edge
p2348
(dp2349
g7
I1
sg8
I00
sg9
I5
sg10
(lp2350
g947
ag1016
asg26
I00
sg27
I00
sg28
I3214381
sg20
S'8041.37309155'
p2351
sba(igraph
Edge
p2352
(dp2353
g7
I1
sg8
I00
sg9
I5
sg10
(lp2354
g950
ag1016
asg26
I00
sg27
I00
sg28
I3214382
sg20
S'8041.38478466'
p2355
sba(igraph
Edge
p2356
(dp2357
g7
I1
sg8
I00
sg9
I5
sg10
(lp2358
g957
ag1030
asg26
I00
sg27
I00
sg28
I3214383
sg20
S'8041.39657359'
p2359
sba(igraph
Edge
p2360
(dp2361
g7
I1
sg8
I00
sg9
I5
sg10
(lp2362
g964
ag1030
asg26
I00
sg27
I00
sg28
I3214384
sg20
S'8041.40839939'
p2363
sba(igraph
Edge
p2364
(dp2365
g7
I1
sg8
I00
sg9
I5
sg10
(lp2366
g971
ag1044
asg26
I00
sg27
I00
sg28
I3214385
sg20
S'8041.42020229'
p2367
sba(igraph
Edge
p2368
(dp2369
g7
I1
sg8
I00
sg9
I5
sg10
(lp2370
g978
ag1044
asg26
I00
sg27
I00
sg28
I3214386
sg20
S'8041.43198786'
p2371
sba(igraph
Edge
p2372
(dp2373
g7
I1
sg8
I00
sg9
I5
sg10
(lp2374
g985
ag1058
asg26
I00
sg27
I00
sg28
I3214387
sg20
S'8041.44380501'
p2375
sba(igraph
Edge
p2376
(dp2377
g7
I1
sg8
I00
sg9
I5
sg10
(lp2378
g992
ag1058
asg26
I00
sg27
I00
sg28
I3214388
sg20
S'8041.45584006'
p2379
sba(igraph
Edge
p2380
(dp2381
g7
I1
sg8
I00
sg9
I5
sg10
(lp2382
g999
ag1072
asg26
I00
sg27
I00
sg28
I3214389
sg20
S'8041.47204798'
p2383
sba(igraph
Edge
p2384
(dp2385
g7
I1
sg8
I00
sg9
I5
sg10
(lp2386
g1006
ag1072
asg26
I00
sg27
I00
sg28
I3214390
sg20
S'8041.48406627'
p2387
sba(igraph
Edge
p2388
(dp2389
g7
I1
sg8
I00
sg9
I5
sg10
(lp2390
g947
ag1013
asg26
I00
sg27
I00
sg28
I3214391
sg20
S'8041.50776593'
p2391
sba(igraph
Edge
p2392
(dp2393
g7
I1
sg8
I00
sg9
I5
sg10
(lp2394
g950
ag1023
asg26
I00
sg27
I00
sg28
I3214392
sg20
S'8041.51954313'
p2395
sba(igraph
Edge
p2396
(dp2397
g7
I1
sg8
I00
sg9
I5
sg10
(lp2398
g957
ag1023
asg26
I00
sg27
I00
sg28
I3214393
sg20
S'8041.53131362'
p2399
sba(igraph
Edge
p2400
(dp2401
g7
I1
sg8
I00
sg9
I5
sg10
(lp2402
g964
ag1037
asg26
I00
sg27
I00
sg28
I3214394
sg20
S'8041.54326793'
p2403
sba(igraph
Edge
p2404
(dp2405
g7
I1
sg8
I00
sg9
I5
sg10
(lp2406
g971
ag1037
asg26
I00
sg27
I00
sg28
I3214395
sg20
S'8041.55519905'
p2407
sba(igraph
Edge
p2408
(dp2409
g7
I1
sg8
I00
sg9
I5
sg10
(lp2410
g978
ag1051
asg26
I00
sg27
I00
sg28
I3214396
sg20
S'8041.56741234'
p2411
sba(igraph
Edge
p2412
(dp2413
g7
I1
sg8
I00
sg9
I5
sg10
(lp2414
g985
ag1051
asg26
I00
sg27
I00
sg28
I3214397
sg20
S'8041.57947644'
p2415
sba(igraph
Edge
p2416
(dp2417
g7
I1
sg8
I00
sg9
I5
sg10
(lp2418
g992
ag1065
asg26
I00
sg27
I00
sg28
I3214398
sg20
S'8041.59164251'
p2419
sba(igraph
Edge
p2420
(dp2421
g7
I1
sg8
I00
sg9
I5
sg10
(lp2422
g999
ag1065
asg26
I00
sg27
I00
sg28
I3214399
sg20
S'8041.60374461'
p2423
sba(igraph
Edge
p2424
(dp2425
g7
I1
sg8
I00
sg9
I5
sg10
(lp2426
g1013
ag1082
asg26
I00
sg27
I00
sg28
I3214400
sg20
S'8041.64006403'
p2427
sba(igraph
Edge
p2428
(dp2429
g7
I1
sg8
I00
sg9
I5
sg10
(lp2430
g1016
ag1082
asg26
I00
sg27
I00
sg28
I3214401
sg20
S'8041.65217283'
p2431
sba(igraph
Edge
p2432
(dp2433
g7
I1
sg8
I00
sg9
I5
sg10
(lp2434
g1023
ag1096
asg26
I00
sg27
I00
sg28
I3214402
sg20
S'8041.66438835'
p2435
sba(igraph
Edge
p2436
(dp2437
g7
I1
sg8
I00
sg9
I5
sg10
(lp2438
g1030
ag1096
asg26
I00
sg27
I00
sg28
I3214403
sg20
S'8041.67765959'
p2439
sba(igraph
Edge
p2440
(dp2441
g7
I1
sg8
I00
sg9
I5
sg10
(lp2442
g1037
ag1110
asg26
I00
sg27
I00
sg28
I3214404
sg20
S'8041.68990975'
p2443
sba(igraph
Edge
p2444
(dp2445
g7
I1
sg8
I00
sg9
I5
sg10
(lp2446
g1044
ag1110
asg26
I00
sg27
I00
sg28
I3214405
sg20
S'8041.70216215'
p2447
sba(igraph
Edge
p2448
(dp2449
g7
I1
sg8
I00
sg9
I5
sg10
(lp2450
g1051
ag1124
asg26
I00
sg27
I00
sg28
I3214406
sg20
S'8041.71443661'
p2451
sba(igraph
Edge
p2452
(dp2453
g7
I1
sg8
I00
sg9
I5
sg10
(lp2454
g1058
ag1124
asg26
I00
sg27
I00
sg28
I3214407
sg20
S'8041.7267798'
p2455
sba(igraph
Edge
p2456
(dp2457
g7
I1
sg8
I00
sg9
I5
sg10
(lp2458
g1065
ag1138
asg26
I00
sg27
I00
sg28
I3214408
sg20
S'8041.73900649'
p2459
sba(igraph
Edge
p2460
(dp2461
g7
I1
sg8
I00
sg9
I5
sg10
(lp2462
g1072
ag1138
asg26
I00
sg27
I00
sg28
I3214409
sg20
S'8041.7512614'
p2463
sba(igraph
Edge
p2464
(dp2465
g7
I1
sg8
I00
sg9
I5
sg10
(lp2466
g1013
ag1079
asg26
I00
sg27
I00
sg28
I3214410
sg20
S'8041.77598438'
p2467
sba(igraph
Edge
p2468
(dp2469
g7
I1
sg8
I00
sg9
I5
sg10
(lp2470
g1016
ag1089
asg26
I00
sg27
I00
sg28
I3214411
sg20
S'8041.78858486'
p2471
sba(igraph
Edge
p2472
(dp2473
g7
I1
sg8
I00
sg9
I5
sg10
(lp2474
g1023
ag1089
asg26
I00
sg27
I00
sg28
I3214412
sg20
S'8041.80102806'
p2475
sba(igraph
Edge
p2476
(dp2477
g7
I1
sg8
I00
sg9
I5
sg10
(lp2478
g1030
ag1103
asg26
I00
sg27
I00
sg28
I3214413
sg20
S'8041.81341148'
p2479
sba(igraph
Edge
p2480
(dp2481
g7
I1
sg8
I00
sg9
I5
sg10
(lp2482
g1037
ag1103
asg26
I00
sg27
I00
sg28
I3214414
sg20
S'8041.82598543'
p2483
sba(igraph
Edge
p2484
(dp2485
g7
I1
sg8
I00
sg9
I5
sg10
(lp2486
g1044
ag1117
asg26
I00
sg27
I00
sg28
I3214415
sg20
S'8041.83859457'
p2487
sba(igraph
Edge
p2488
(dp2489
g7
I1
sg8
I00
sg9
I5
sg10
(lp2490
g1051
ag1117
asg26
I00
sg27
I00
sg28
I3214416
sg20
S'8041.85109616'
p2491
sba(igraph
Edge
p2492
(dp2493
g7
I1
sg8
I00
sg9
I5
sg10
(lp2494
g1058
ag1131
asg26
I00
sg27
I00
sg28
I3214417
sg20
S'8041.86356339'
p2495
sba(igraph
Edge
p2496
(dp2497
g7
I1
sg8
I00
sg9
I5
sg10
(lp2498
g1065
ag1131
asg26
I00
sg27
I00
sg28
I3214418
sg20
S'8041.87607894'
p2499
sba(igraph
Edge
p2500
(dp2501
g7
I1
sg8
I00
sg9
I5
sg10
(lp2502
g1079
ag1148
asg26
I00
sg27
I00
sg28
I3214419
sg20
S'8041.91396728'
p2503
sba(igraph
Edge
p2504
(dp2505
g7
I1
sg8
I00
sg9
I5
sg10
(lp2506
g1082
ag1148
asg26
I00
sg27
I00
sg28
I3214420
sg20
S'8041.9265672'
p2507
sba(igraph
Edge
p2508
(dp2509
g7
I1
sg8
I00
sg9
I5
sg10
(lp2510
g1089
ag1162
asg26
I00
sg27
I00
sg28
I3214421
sg20
S'8041.93907578'
p2511
sba(igraph
Edge
p2512
(dp2513
g7
I1
sg8
I00
sg9
I5
sg10
(lp2514
g1096
ag1162
asg26
I00
sg27
I00
sg28
I3214422
sg20
S'8041.95163994'
p2515
sba(igraph
Edge
p2516
(dp2517
g7
I1
sg8
I00
sg9
I5
sg10
(lp2518
g1103
ag1176
asg26
I00
sg27
I00
sg28
I3214423
sg20
S'8041.96428652'
p2519
sba(igraph
Edge
p2520
(dp2521
g7
I1
sg8
I00
sg9
I5
sg10
(lp2522
g1110
ag1176
asg26
I00
sg27
I00
sg28
I3214424
sg20
S'8041.97694595'
p2523
sba(igraph
Edge
p2524
(dp2525
g7
I1
sg8
I00
sg9
I5
sg10
(lp2526
g1117
ag1190
asg26
I00
sg27
I00
sg28
I3214425
sg20
S'8041.9894928'
p2527
sba(igraph
Edge
p2528
(dp2529
g7
I1
sg8
I00
sg9
I5
sg10
(lp2530
g1124
ag1190
asg26
I00
sg27
I00
sg28
I3214426
sg20
S'8042.00217877'
p2531
sba(igraph
Edge
p2532
(dp2533
g7
I1
sg8
I00
sg9
I5
sg10
(lp2534
g1131
ag1204
asg26
I00
sg27
I00
sg28
I3214427
sg20
S'8042.01520277'
p2535
sba(igraph
Edge
p2536
(dp2537
g7
I1
sg8
I00
sg9
I5
sg10
(lp2538
g1138
ag1204
asg26
I00
sg27
I00
sg28
I3214428
sg20
S'8042.0287679'
p2539
sba(igraph
Edge
p2540
(dp2541
g7
I1
sg8
I00
sg9
I5
sg10
(lp2542
g1079
ag1145
asg26
I00
sg27
I00
sg28
I3214429
sg20
S'8042.05457509'
p2543
sba(igraph
Edge
p2544
(dp2545
g7
I1
sg8
I00
sg9
I5
sg10
(lp2546
g1082
ag1155
asg26
I00
sg27
I00
sg28
I3214430
sg20
S'8042.06746556'
p2547
sba(igraph
Edge
p2548
(dp2549
g7
I1
sg8
I00
sg9
I5
sg10
(lp2550
g1089
ag1155
asg26
I00
sg27
I00
sg28
I3214431
sg20
S'8042.08068148'
p2551
sba(igraph
Edge
p2552
(dp2553
g7
I1
sg8
I00
sg9
I5
sg10
(lp2554
g1096
ag1169
asg26
I00
sg27
I00
sg28
I3214432
sg20
S'8042.09387897'
p2555
sba(igraph
Edge
p2556
(dp2557
g7
I1
sg8
I00
sg9
I5
sg10
(lp2558
g1103
ag1169
asg26
I00
sg27
I00
sg28
I3214433
sg20
S'8042.10687979'
p2559
sba(igraph
Edge
p2560
(dp2561
g7
I1
sg8
I00
sg9
I5
sg10
(lp2562
g1110
ag1183
asg26
I00
sg27
I00
sg28
I3214434
sg20
S'8042.11994737'
p2563
sba(igraph
Edge
p2564
(dp2565
g7
I1
sg8
I00
sg9
I5
sg10
(lp2566
g1117
ag1183
asg26
I00
sg27
I00
sg28
I3214435
sg20
S'8042.13306915'
p2567
sba(igraph
Edge
p2568
(dp2569
g7
I1
sg8
I00
sg9
I5
sg10
(lp2570
g1124
ag1197
asg26
I00
sg27
I00
sg28
I3214436
sg20
S'8042.14611801'
p2571
sba(igraph
Edge
p2572
(dp2573
g7
I1
sg8
I00
sg9
I5
sg10
(lp2574
g1131
ag1197
asg26
I00
sg27
I00
sg28
I3214437
sg20
S'8042.15916073'
p2575
sba(igraph
Edge
p2576
(dp2577
g7
I1
sg8
I00
sg9
I5
sg10
(lp2578
g1204
ag1145
asg26
I00
sg27
I00
sg28
I3214438
sg20
S'8398.69302132'
p2579
sba(igraph
Edge
p2580
(dp2581
g7
I1
sg8
I00
sg9
I5
sg10
(lp2582
g1145
ag1138
asg26
I00
sg27
I00
sg28
I3214439
sg20
S'8401.09430388'
p2583
sba(igraph
Edge
p2584
(dp2585
g7
I1
sg8
I00
sg9
I5
sg10
(lp2586
g1138
ag1079
asg26
I00
sg27
I00
sg28
I3214440
sg20
S'8404.38988084'
p2587
sba(igraph
Edge
p2588
(dp2589
g7
I1
sg8
I00
sg9
I5
sg10
(lp2590
g1079
ag1072
asg26
I00
sg27
I00
sg28
I3214441
sg20
S'8407.41350032'
p2591
sba(igraph
Edge
p2592
(dp2593
g7
I1
sg8
I00
sg9
I5
sg10
(lp2594
g1072
ag1013
asg26
I00
sg27
I00
sg28
I3214442
sg20
S'8409.9631808'
p2595
sba(igraph
Edge
p2596
(dp2597
g7
I1
sg8
I00
sg9
I5
sg10
(lp2598
g1013
ag1006
asg26
I00
sg27
I00
sg28
I3214443
sg20
S'8412.71173459'
p2599
sba(igraph
Edge
p2600
(dp2601
g7
I1
sg8
I00
sg9
I5
sg10
(lp2602
g1006
ag947
asg26
I00
sg27
I00
sg28
I3214444
sg20
S'8416.12644205'
p2603
sba(igraph
Edge
p2604
(dp2605
g7
I1
sg8
I00
sg9
I5
sg10
(lp2606
g947
ag940
asg26
I00
sg27
I00
sg28
I3214445
sg20
S'8418.3272103'
p2607
sba(igraph
Edge
p2608
(dp2609
g7
I1
sg8
I00
sg9
I5
sg10
(lp2610
g940
ag881
asg26
I00
sg27
I00
sg28
I3214446
sg20
S'8421.11206704'
p2611
sba(igraph
Edge
p2612
(dp2613
g7
I1
sg8
I00
sg9
I5
sg10
(lp2614
g881
ag874
asg26
I00
sg27
I00
sg28
I3214447
sg20
S'8423.83478347'
p2615
sba(igraph
Edge
p2616
(dp2617
g7
I1
sg8
I00
sg9
I5
sg10
(lp2618
g874
ag815
asg26
I00
sg27
I00
sg28
I3214448
sg20
S'8426.60786916'
p2619
sba(igraph
Edge
p2620
(dp2621
g7
I1
sg8
I00
sg9
I5
sg10
(lp2622
g815
ag808
asg26
I00
sg27
I00
sg28
I3214449
sg20
S'8429.54763524'
p2623
sba(igraph
Edge
p2624
(dp2625
g7
I1
sg8
I00
sg9
I5
sg10
(lp2626
g808
ag749
asg26
I00
sg27
I00
sg28
I3214450
sg20
S'8432.36892007'
p2627
sba(igraph
Edge
p2628
(dp2629
g7
I1
sg8
I00
sg9
I5
sg10
(lp2630
g749
ag742
asg26
I00
sg27
I00
sg28
I3214451
sg20
S'8435.37833887'
p2631
sba(igraph
Edge
p2632
(dp2633
g7
I1
sg8
I00
sg9
I5
sg10
(lp2634
g742
ag683
asg26
I00
sg27
I00
sg28
I3214452
sg20
S'8438.69470142'
p2635
sba(igraph
Edge
p2636
(dp2637
g7
I1
sg8
I00
sg9
I5
sg10
(lp2638
g683
ag676
asg26
I00
sg27
I00
sg28
I3214453
sg20
S'8441.40328058'
p2639
sba(igraph
Edge
p2640
(dp2641
g7
I1
sg8
I00
sg9
I5
sg10
(lp2642
g676
ag617
asg26
I00
sg27
I00
sg28
I3214454
sg20
S'8444.79488902'
p2643
sba(igraph
Edge
p2644
(dp2645
g7
I1
sg8
I00
sg9
I5
sg10
(lp2646
g617
ag610
asg26
I00
sg27
I00
sg28
I3214455
sg20
S'8447.06116755'
p2647
sba(igraph
Edge
p2648
(dp2649
g7
I1
sg8
I00
sg9
I5
sg10
(lp2650
g610
ag551
asg26
I00
sg27
I00
sg28
I3214456
sg20
S'8450.92771623'
p2651
sba(igraph
Edge
p2652
(dp2653
g7
I1
sg8
I00
sg9
I5
sg10
(lp2654
g551
ag544
asg26
I00
sg27
I00
sg28
I3214457
sg20
S'8454.2057186'
p2655
sba(igraph
Edge
p2656
(dp2657
g7
I1
sg8
I00
sg9
I5
sg10
(lp2658
g544
ag485
asg26
I00
sg27
I00
sg28
I3214458
sg20
S'8457.07453098'
p2659
sba(igraph
Edge
p2660
(dp2661
g7
I1
sg8
I00
sg9
I5
sg10
(lp2662
g485
ag478
asg26
I00
sg27
I00
sg28
I3214459
sg20
S'8459.32497762'
p2663
sba(igraph
Edge
p2664
(dp2665
g7
I1
sg8
I00
sg9
I5
sg10
(lp2666
g478
ag419
asg26
I00
sg27
I00
sg28
I3214460
sg20
S'8462.32902562'
p2667
sba(igraph
Edge
p2668
(dp2669
g7
I1
sg8
I00
sg9
I5
sg10
(lp2670
g419
ag412
asg26
I00
sg27
I00
sg28
I3214461
sg20
S'8465.46564717'
p2671
sba(igraph
Edge
p2672
(dp2673
g7
I1
sg8
I00
sg9
I5
sg10
(lp2674
g412
ag353
asg26
I00
sg27
I00
sg28
I3214462
sg20
S'8468.98006925'
p2675
sba(igraph
Edge
p2676
(dp2677
g7
I1
sg8
I00
sg9
I5
sg10
(lp2678
g353
ag346
asg26
I00
sg27
I00
sg28
I3214463
sg20
S'8471.9289284'
p2679
sba(igraph
Edge
p2680
(dp2681
g7
I1
sg8
I00
sg9
I5
sg10
(lp2682
g346
ag287
asg26
I00
sg27
I00
sg28
I3214464
sg20
S'8474.97693925'
p2683
sba(igraph
Edge
p2684
(dp2685
g7
I1
sg8
I00
sg9
I5
sg10
(lp2686
g287
ag280
asg26
I00
sg27
I00
sg28
I3214465
sg20
S'8478.21485105'
p2687
sba(igraph
Edge
p2688
(dp2689
g7
I1
sg8
I00
sg9
I5
sg10
(lp2690
g280
ag221
asg26
I00
sg27
I00
sg28
I3214466
sg20
S'8481.50886467'
p2691
sba(igraph
Edge
p2692
(dp2693
g7
I1
sg8
I00
sg9
I5
sg10
(lp2694
g221
ag214
asg26
I00
sg27
I00
sg28
I3214467
sg20
S'8484.09819321'
p2695
sba(igraph
Edge
p2696
(dp2697
g7
I1
sg8
I00
sg9
I5
sg10
(lp2698
g214
ag155
asg26
I00
sg27
I00
sg28
I3214468
sg20
S'8486.8838763'
p2699
sba(igraph
Edge
p2700
(dp2701
g7
I1
sg8
I00
sg9
I5
sg10
(lp2702
g155
ag148
asg26
I00
sg27
I00
sg28
I3214469
sg20
S'8489.04208021'
p2703
sba(igraph
Edge
p2704
(dp2705
g7
I1
sg8
I00
sg9
I5
sg10
(lp2706
g148
ag89
asg26
I00
sg27
I00
sg28
I3214470
sg20
S'8492.87424826'
p2707
sba(igraph
Edge
p2708
(dp2709
g7
I1
sg8
I00
sg9
I5
sg10
(lp2710
g89
ag82
asg26
I00
sg27
I00
sg28
I3214471
sg20
S'8495.25529977'
p2711
sba(igraph
Edge
p2712
(dp2713
g7
I1
sg8
I00
sg9
I5
sg10
(lp2714
g82
ag12
asg26
I00
sg27
I00
sg28
I3214472
sg20
S'8498.11977025'
p2715
sba(igraph
Edge
p2716
(dp2717
g7
I1
sg8
I00
sg9
I5
sg10
(lp2718
g12
ag1204
asg26
I00
sg27
I00
sg28
I3214473
sg20
S'8501.6992615'
p2719
sbasS'vertices'
p2720
(lp2721
g12
ag23
ag33
ag40
ag47
ag54
ag61
ag68
ag75
ag82
ag89
ag92
ag99
ag106
ag113
ag120
ag127
ag134
ag141
ag148
ag155
ag158
ag165
ag172
ag179
ag186
ag193
ag200
ag207
ag214
ag221
ag224
ag231
ag238
ag245
ag252
ag259
ag266
ag273
ag280
ag287
ag290
ag297
ag304
ag311
ag318
ag325
ag332
ag339
ag346
ag353
ag356
ag363
ag370
ag377
ag384
ag391
ag398
ag405
ag412
ag419
ag422
ag429
ag436
ag443
ag450
ag457
ag464
ag471
ag478
ag485
ag488
ag495
ag502
ag509
ag516
ag523
ag530
ag537
ag544
ag551
ag554
ag561
ag568
ag575
ag582
ag589
ag596
ag603
ag610
ag617
ag620
ag627
ag634
ag641
ag648
ag655
ag662
ag669
ag676
ag683
ag686
ag693
ag700
ag707
ag714
ag721
ag728
ag735
ag742
ag749
ag752
ag759
ag766
ag773
ag780
ag787
ag794
ag801
ag808
ag815
ag818
ag825
ag832
ag839
ag846
ag853
ag860
ag867
ag874
ag881
ag884
ag891
ag898
ag905
ag912
ag919
ag926
ag933
ag940
ag947
ag950
ag957
ag964
ag971
ag978
ag985
ag992
ag999
ag1006
ag1013
ag1016
ag1023
ag1030
ag1037
ag1044
ag1051
ag1058
ag1065
ag1072
ag1079
ag1082
ag1089
ag1096
ag1103
ag1110
ag1117
ag1124
ag1131
ag1138
ag1145
ag1148
ag1155
ag1162
ag1169
ag1176
ag1183
ag1190
ag1197
ag1204
asS'tags'
p2722
(lp2723
sb.