(igraph
Graph
p0
(dp1
S'labelingConstraints'
p2
I-1
sS'edges'
p3
(lp4
(igraph
Edge
p5
(dp6
S'direction'
p7
I1
sS'selected'
p8
I00
sS'height'
p9
I5
sS'vs'
p10
(lp11
(igraph
Vertex
p12
(dp13
S'xnorm'
p14
F0.0
sg8
I00
sS'label'
p15
S'NULL'
p16
sS'y'
p17
F-321.0
sS'x'
p18
F427.0
sS'circle'
p19
I2838795
sS'id'
p20
S'5404.84506187'
p21
sS'ynorm'
p22
F0.0
sba(igraph
Vertex
p23
(dp24
g14
F0.083333333333333315
sg8
I00
sg15
g16
sg17
F-321.0
sg18
F351.33333333333337
sg19
I2838796
sg20
S'5404.8450859'
p25
sg22
F0.0
sbasS'wrap'
p26
I00
sS'curved'
p27
I00
sS'line'
p28
I2838093
sg20
S'5405.0786857'
p29
sba(igraph
Edge
p30
(dp31
g7
I1
sg8
I00
sg9
I5
sg10
(lp32
g23
a(igraph
Vertex
p33
(dp34
g14
F0.16666666666666669
sg8
I00
sg15
g16
sg17
F-321.0
sg18
F275.66666666666663
sg19
I2838797
sg20
S'5404.84510825'
p35
sg22
F0.0
sbasg26
I00
sg27
I00
sg28
I2838094
sg20
S'5405.07874437'
p36
sba(igraph
Edge
p37
(dp38
g7
I1
sg8
I00
sg9
I5
sg10
(lp39
g33
a(igraph
Vertex
p40
(dp41
g14
F0.25
sg8
I00
sg15
g16
sg17
F-321.0
sg18
F200.0
sg19
I2838798
sg20
S'5404.84513479'
p42
sg22
F0.0
sbasg26
I00
sg27
I00
sg28
I2838095
sg20
S'5405.07882398'
p43
sba(igraph
Edge
p44
(dp45
g7
I1
sg8
I00
sg9
I5
sg10
(lp46
g40
a(igraph
Vertex
p47
(dp48
g14
F0.33333333333333331
sg8
I00
sg15
g16
sg17
F-321.0
sg18
F124.33333333333337
sg19
I2838799
sg20
S'5404.84516803'
p49
sg22
F0.0
sbasg26
I00
sg27
I00
sg28
I2838096
sg20
S'5405.0789226'
p50
sba(igraph
Edge
p51
(dp52
g7
I1
sg8
I00
sg9
I5
sg10
(lp53
g47
a(igraph
Vertex
p54
(dp55
g14
F0.41666666666666663
sg8
I00
sg15
g16
sg17
F-321.0
sg18
F48.666666666666686
sg19
I2838800
sg20
S'5404.84520826'
p56
sg22
F0.0
sbasg26
I00
sg27
I00
sg28
I2838097
sg20
S'5405.07904245'
p57
sba(igraph
Edge
p58
(dp59
g7
I1
sg8
I00
sg9
I5
sg10
(lp60
g54
a(igraph
Vertex
p61
(dp62
g14
F0.49999999999999994
sg8
I00
sg15
g16
sg17
F-321.0
sg18
F-26.999999999999943
sg19
I2838801
sg20
S'5404.84525771'
p63
sg22
F0.0
sbasg26
I00
sg27
I00
sg28
I2838098
sg20
S'5405.07918576'
p64
sba(igraph
Edge
p65
(dp66
g7
I1
sg8
I00
sg9
I5
sg10
(lp67
g61
a(igraph
Vertex
p68
(dp69
g14
F0.58333333333333326
sg8
I00
sg15
g16
sg17
F-321.0
sg18
F-102.66666666666663
sg19
I2838802
sg20
S'5404.84531442'
p70
sg22
F0.0
sbasg26
I00
sg27
I00
sg28
I2838099
sg20
S'5405.07935059'
p71
sba(igraph
Edge
p72
(dp73
g7
I1
sg8
I00
sg9
I5
sg10
(lp74
g68
a(igraph
Vertex
p75
(dp76
g14
F0.66666666666666652
sg8
I00
sg15
g16
sg17
F-321.0
sg18
F-178.33333333333314
sg19
I2838803
sg20
S'5404.84537839'
p77
sg22
F0.0
sbasg26
I00
sg27
I00
sg28
I2838100
sg20
S'5405.07953581'
p78
sba(igraph
Edge
p79
(dp80
g7
I1
sg8
I00
sg9
I5
sg10
(lp81
g75
a(igraph
Vertex
p82
(dp83
g14
F0.74999999999999989
sg8
I00
sg15
g16
sg17
F-321.0
sg18
F-253.99999999999989
sg19
I2838804
sg20
S'5404.84545075'
p84
sg22
F0.0
sbasg26
I00
sg27
I00
sg28
I2838101
sg20
S'5405.07974282'
p85
sba(igraph
Edge
p86
(dp87
g7
I1
sg8
I00
sg9
I5
sg10
(lp88
g82
a(igraph
Vertex
p89
(dp90
g14
F0.83333333333333337
sg8
I00
sg15
g16
sg17
F-321.0
sg18
F-329.66666666666674
sg19
I2838805
sg20
S'5404.84552981'
p91
sg22
F0.0
sbasg26
I00
sg27
I00
sg28
I2838102
sg20
S'5405.07997245'
p92
sba(igraph
Edge
p93
(dp94
g7
I1
sg8
I00
sg9
I5
sg10
(lp95
g89
a(igraph
Vertex
p96
(dp97
g14
F0.91666666666666652
sg8
I00
sg15
g16
sg17
F-321.0
sg18
F-405.33333333333314
sg19
I2838806
sg20
S'5404.84561753'
p98
sg22
F0.0
sbasg26
I00
sg27
I00
sg28
I2838103
sg20
S'5405.08026439'
p99
sba(igraph
Edge
p100
(dp101
g7
I1
sg8
I00
sg9
I5
sg10
(lp102
g96
a(igraph
Vertex
p103
(dp104
g14
F1.0
sg8
I00
sg15
g16
sg17
F-321.0
sg18
F-481.0
sg19
I2838807
sg20
S'5404.84571251'
p105
sg22
F0.0
sbasg26
I00
sg27
I00
sg28
I2838104
sg20
S'5405.08057449'
p106
sba(igraph
Edge
p107
(dp108
g7
I1
sg8
I00
sg9
I5
sg10
(lp109
g103
ag12
asg26
I00
sg27
I00
sg28
I2838105
sg20
S'5405.08086922'
p110
sba(igraph
Edge
p111
(dp112
g7
I1
sg8
I00
sg9
I5
sg10
(lp113
(igraph
Vertex
p114
(dp115
g14
F0.0
sg8
I00
sg15
g16
sg17
F-284.09677419354841
sg18
F427.0
sg19
I2838808
sg20
S'5404.84582063'
p116
sg22
F0.059139784946236562
sba(igraph
Vertex
p117
(dp118
g14
F0.083333333333333315
sg8
I00
sg15
g16
sg17
F-284.09677419354841
sg18
F351.33333333333337
sg19
I2838809
sg20
S'5404.84593042'
p119
sg22
F0.059139784946236562
sbasg26
I00
sg27
I00
sg28
I2838106
sg20
S'5405.08120613'
p120
sba(igraph
Edge
p121
(dp122
g7
I1
sg8
I00
sg9
I5
sg10
(lp123
g117
a(igraph
Vertex
p124
(dp125
g14
F0.16666666666666669
sg8
I00
sg15
g16
sg17
F-284.09677419354841
sg18
F275.66666666666663
sg19
I2838810
sg20
S'5404.84604887'
p126
sg22
F0.059139784946236562
sbasg26
I00
sg27
I00
sg28
I2838107
sg20
S'5405.08155562'
p127
sba(igraph
Edge
p128
(dp129
g7
I1
sg8
I00
sg9
I5
sg10
(lp130
g124
a(igraph
Vertex
p131
(dp132
g14
F0.25
sg8
I00
sg15
g16
sg17
F-284.09677419354841
sg18
F200.0
sg19
I2838811
sg20
S'5404.84617486'
p133
sg22
F0.059139784946236562
sbasg26
I00
sg27
I00
sg28
I2838108
sg20
S'5405.08191656'
p134
sba(igraph
Edge
p135
(dp136
g7
I1
sg8
I00
sg9
I5
sg10
(lp137
g131
a(igraph
Vertex
p138
(dp139
g14
F0.33333333333333331
sg8
I00
sg15
g16
sg17
F-284.09677419354841
sg18
F124.33333333333337
sg19
I2838812
sg20
S'5404.84630952'
p140
sg22
F0.059139784946236562
sbasg26
I00
sg27
I00
sg28
I2838109
sg20
S'5405.08230376'
p141
sba(igraph
Edge
p142
(dp143
g7
I1
sg8
I00
sg9
I5
sg10
(lp144
g138
a(igraph
Vertex
p145
(dp146
g14
F0.41666666666666663
sg8
I00
sg15
g16
sg17
F-284.09677419354841
sg18
F48.666666666666686
sg19
I2838813
sg20
S'5404.84646121'
p147
sg22
F0.059139784946236562
sbasg26
I00
sg27
I00
sg28
I2838110
sg20
S'5405.08270828'
p148
sba(igraph
Edge
p149
(dp150
g7
I1
sg8
I00
sg9
I5
sg10
(lp151
g145
a(igraph
Vertex
p152
(dp153
g14
F0.49999999999999994
sg8
I00
sg15
g16
sg17
F-284.09677419354841
sg18
F-26.999999999999943
sg19
I2838814
sg20
S'5404.84661067'
p154
sg22
F0.059139784946236562
sbasg26
I00
sg27
I00
sg28
I2838111
sg20
S'5405.08317873'
p155
sba(igraph
Edge
p156
(dp157
g7
I1
sg8
I00
sg9
I5
sg10
(lp158
g152
a(igraph
Vertex
p159
(dp160
g14
F0.58333333333333326
sg8
I00
sg15
g16
sg17
F-284.09677419354841
sg18
F-102.66666666666663
sg19
I2838815
sg20
S'5404.84688724'
p161
sg22
F0.059139784946236562
sbasg26
I00
sg27
I00
sg28
I2838112
sg20
S'5405.08362711'
p162
sba(igraph
Edge
p163
(dp164
g7
I1
sg8
I00
sg9
I5
sg10
(lp165
g159
a(igraph
Vertex
p166
(dp167
g14
F0.66666666666666652
sg8
I00
sg15
g16
sg17
F-284.09677419354841
sg18
F-178.33333333333314
sg19
I2838816
sg20
S'5404.84706296'
p168
sg22
F0.059139784946236562
sbasg26
I00
sg27
I00
sg28
I2838113
sg20
S'5405.08409449'
p169
sba(igraph
Edge
p170
(dp171
g7
I1
sg8
I00
sg9
I5
sg10
(lp172
g166
a(igraph
Vertex
p173
(dp174
g14
F0.74999999999999989
sg8
I00
sg15
g16
sg17
F-284.09677419354841
sg18
F-253.99999999999989
sg19
I2838817
sg20
S'5404.84723813'
p175
sg22
F0.059139784946236562
sbasg26
I00
sg27
I00
sg28
I2838114
sg20
S'5405.08458226'
p176
sba(igraph
Edge
p177
(dp178
g7
I1
sg8
I00
sg9
I5
sg10
(lp179
g173
a(igraph
Vertex
p180
(dp181
g14
F0.83333333333333337
sg8
I00
sg15
g16
sg17
F-284.09677419354841
sg18
F-329.66666666666674
sg19
I2838818
sg20
S'5404.84741971'
p182
sg22
F0.059139784946236562
sbasg26
I00
sg27
I00
sg28
I2838115
sg20
S'5405.08509098'
p183
sba(igraph
Edge
p184
(dp185
g7
I1
sg8
I00
sg9
I5
sg10
(lp186
g180
a(igraph
Vertex
p187
(dp188
g14
F0.91666666666666652
sg8
I00
sg15
I0
sg17
F-284.09677419354841
sg18
F-405.33333333333314
sg19
I2838819
sg20
S'5404.8476094'
p189
sg22
F0.059139784946236562
sbasg26
I00
sg27
I00
sg28
I2838116
sg20
S'5405.08562233'
p190
sba(igraph
Edge
p191
(dp192
g7
I1
sg8
I00
sg9
I5
sg10
(lp193
g187
a(igraph
Vertex
p194
(dp195
g14
F1.0
sg8
I00
sg15
g16
sg17
F-284.09677419354841
sg18
F-481.0
sg19
I2838821
sg20
S'5404.84780608'
p196
sg22
F0.059139784946236562
sbasg26
I00
sg27
I00
sg28
I2838117
sg20
S'5405.08617604'
p197
sba(igraph
Edge
p198
(dp199
g7
I1
sg8
I00
sg9
I5
sg10
(lp200
g194
ag114
asg26
I00
sg27
I00
sg28
I2838118
sg20
S'5405.08674985'
p201
sba(igraph
Edge
p202
(dp203
g7
I1
sg8
I00
sg9
I5
sg10
(lp204
(igraph
Vertex
p205
(dp206
g14
F0.0
sg8
I00
sg15
g16
sg17
F-247.19354838709677
sg18
F427.0
sg19
I2838822
sg20
S'5404.84800862'
p207
sg22
F0.11827956989247312
sba(igraph
Vertex
p208
(dp209
g14
F0.083333333333333315
sg8
I00
sg15
g16
sg17
F-247.19354838709677
sg18
F351.33333333333337
sg19
I2838823
sg20
S'5404.84821926'
p210
sg22
F0.11827956989247312
sbasg26
I00
sg27
I00
sg28
I2838119
sg20
S'5405.08736362'
p211
sba(igraph
Edge
p212
(dp213
g7
I1
sg8
I00
sg9
I5
sg10
(lp214
g208
a(igraph
Vertex
p215
(dp216
g14
F0.16666666666666669
sg8
I00
sg15
g16
sg17
F-247.19354838709677
sg18
F275.66666666666663
sg19
I2838824
sg20
S'5404.84843884'
p217
sg22
F0.11827956989247312
sbasg26
I00
sg27
I00
sg28
I2838120
sg20
S'5405.0879975'
p218
sba(igraph
Edge
p219
(dp220
g7
I1
sg8
I00
sg9
I5
sg10
(lp221
g215
a(igraph
Vertex
p222
(dp223
g14
F0.25
sg8
I00
sg15
g16
sg17
F-247.19354838709677
sg18
F200.0
sg19
I2838825
sg20
S'5404.8486654'
p224
sg22
F0.11827956989247312
sbasg26
I00
sg27
I00
sg28
I2838121
sg20
S'5405.08908227'
p225
sba(igraph
Edge
p226
(dp227
g7
I1
sg8
I00
sg9
I5
sg10
(lp228
g222
a(igraph
Vertex
p229
(dp230
g14
F0.33333333333333331
sg8
I00
sg15
g16
sg17
F-247.19354838709677
sg18
F124.33333333333337
sg19
I2838826
sg20
S'5404.84910764'
p231
sg22
F0.11827956989247312
sbasg26
I00
sg27
I00
sg28
I2838122
sg20
S'5405.08974381'
p232
sba(igraph
Edge
p233
(dp234
g7
I1
sg8
I00
sg9
I5
sg10
(lp235
g229
a(igraph
Vertex
p236
(dp237
g14
F0.41666666666666663
sg8
I00
sg15
g16
sg17
F-247.19354838709677
sg18
F48.666666666666686
sg19
I2838827
sg20
S'5404.84941801'
p238
sg22
F0.11827956989247312
sbasg26
I00
sg27
I00
sg28
I2838123
sg20
S'5405.09042267'
p239
sba(igraph
Edge
p240
(dp241
g7
I1
sg8
I00
sg9
I5
sg10
(lp242
g236
a(igraph
Vertex
p243
(dp244
g14
F0.49999999999999994
sg8
I00
sg15
g16
sg17
F-247.19354838709677
sg18
F-26.999999999999943
sg19
I2838828
sg20
S'5404.84967279'
p245
sg22
F0.11827956989247312
sbasg26
I00
sg27
I00
sg28
I2838124
sg20
S'5405.09112275'
p246
sba(igraph
Edge
p247
(dp248
g7
I1
sg8
I00
sg9
I5
sg10
(lp249
g243
a(igraph
Vertex
p250
(dp251
g14
F0.58333333333333326
sg8
I00
sg15
g16
sg17
F-247.19354838709677
sg18
F-102.66666666666663
sg19
I2838829
sg20
S'5404.84994909'
p252
sg22
F0.11827956989247312
sbasg26
I00
sg27
I00
sg28
I2838125
sg20
S'5405.09184659'
p253
sba(igraph
Edge
p254
(dp255
g7
I1
sg8
I00
sg9
I5
sg10
(lp256
g250
a(igraph
Vertex
p257
(dp258
g14
F0.66666666666666652
sg8
I00
sg15
g16
sg17
F-247.19354838709677
sg18
F-178.33333333333314
sg19
I2838830
sg20
S'5404.8502223'
p259
sg22
F0.11827956989247312
sbasg26
I00
sg27
I00
sg28
I2838126
sg20
S'5405.09259249'
p260
sba(igraph
Edge
p261
(dp262
g7
I1
sg8
I00
sg9
I5
sg10
(lp263
g257
a(igraph
Vertex
p264
(dp265
g14
F0.74999999999999989
sg8
I00
sg15
g16
sg17
F-247.19354838709677
sg18
F-253.99999999999989
sg19
I2838831
sg20
S'5404.8504986'
p266
sg22
F0.11827956989247312
sbasg26
I00
sg27
I00
sg28
I2838127
sg20
S'5405.09339288'
p267
sba(igraph
Edge
p268
(dp269
g7
I1
sg8
I00
sg9
I5
sg10
(lp270
g264
a(igraph
Vertex
p271
(dp272
g14
F0.83333333333333337
sg8
I00
sg15
g16
sg17
F-247.19354838709677
sg18
F-329.66666666666674
sg19
I2838832
sg20
S'5404.850795'
p273
sg22
F0.11827956989247312
sbasg26
I00
sg27
I00
sg28
I2838128
sg20
S'5405.09420471'
p274
sba(igraph
Edge
p275
(dp276
g7
I1
sg8
I00
sg9
I5
sg10
(lp277
g271
a(igraph
Vertex
p278
(dp279
g14
F0.91666666666666652
sg8
I00
sg15
g16
sg17
F-247.19354838709677
sg18
F-405.33333333333314
sg19
I2838833
sg20
S'5404.85109728'
p280
sg22
F0.11827956989247312
sbasg26
I00
sg27
I00
sg28
I2838129
sg20
S'5405.0950347'
p281
sba(igraph
Edge
p282
(dp283
g7
I1
sg8
I00
sg9
I5
sg10
(lp284
g278
a(igraph
Vertex
p285
(dp286
g14
F1.0
sg8
I00
sg15
g16
sg17
F-247.19354838709677
sg18
F-481.0
sg19
I2838834
sg20
S'5404.85140095'
p287
sg22
F0.11827956989247312
sbasg26
I00
sg27
I00
sg28
I2838130
sg20
S'5405.09588118'
p288
sba(igraph
Edge
p289
(dp290
g7
I1
sg8
I00
sg9
I5
sg10
(lp291
g285
ag205
asg26
I00
sg27
I00
sg28
I2838131
sg20
S'5405.09677319'
p292
sba(igraph
Edge
p293
(dp294
g7
I1
sg8
I00
sg9
I5
sg10
(lp295
(igraph
Vertex
p296
(dp297
g14
F0.0
sg8
I00
sg15
g16
sg17
F-210.29032258064515
sg18
F427.0
sg19
I2838835
sg20
S'5404.85172669'
p298
sg22
F0.17741935483870969
sba(igraph
Vertex
p299
(dp300
g14
F0.083333333333333315
sg8
I00
sg15
g16
sg17
F-210.29032258064515
sg18
F351.33333333333337
sg19
I2838836
sg20
S'5404.85209573'
p301
sg22
F0.17741935483870969
sbasg26
I00
sg27
I00
sg28
I2838132
sg20
S'5405.09765431'
p302
sba(igraph
Edge
p303
(dp304
g7
I1
sg8
I00
sg9
I5
sg10
(lp305
g299
a(igraph
Vertex
p306
(dp307
g14
F0.16666666666666669
sg8
I00
sg15
g16
sg17
F-210.29032258064515
sg18
F275.66666666666663
sg19
I2838837
sg20
S'5404.85242175'
p308
sg22
F0.17741935483870969
sbasg26
I00
sg27
I00
sg28
I2838133
sg20
S'5405.09855219'
p309
sba(igraph
Edge
p310
(dp311
g7
I1
sg8
I00
sg9
I5
sg10
(lp312
g306
a(igraph
Vertex
p313
(dp314
g14
F0.25
sg8
I00
sg15
g16
sg17
F-210.29032258064515
sg18
F200.0
sg19
I2838838
sg20
S'5404.85276117'
p315
sg22
F0.17741935483870969
sbasg26
I00
sg27
I00
sg28
I2838134
sg20
S'5405.09950343'
p316
sba(igraph
Edge
p317
(dp318
g7
I1
sg8
I00
sg9
I5
sg10
(lp319
g313
a(igraph
Vertex
p320
(dp321
g14
F0.33333333333333331
sg8
I00
sg15
g16
sg17
F-210.29032258064515
sg18
F124.33333333333337
sg19
I2838839
sg20
S'5404.85310004'
p322
sg22
F0.17741935483870969
sbasg26
I00
sg27
I00
sg28
I2838135
sg20
S'5405.10044601'
p323
sba(igraph
Edge
p324
(dp325
g7
I1
sg8
I00
sg9
I5
sg10
(lp326
g320
a(igraph
Vertex
p327
(dp328
g14
F0.41666666666666663
sg8
I00
sg15
g16
sg17
F-210.29032258064515
sg18
F48.666666666666686
sg19
I2838840
sg20
S'5404.85344785'
p329
sg22
F0.17741935483870969
sbasg26
I00
sg27
I00
sg28
I2838136
sg20
S'5405.10141345'
p330
sba(igraph
Edge
p331
(dp332
g7
I1
sg8
I00
sg9
I5
sg10
(lp333
g327
a(igraph
Vertex
p334
(dp335
g14
F0.49999999999999994
sg8
I00
sg15
g16
sg17
F-210.29032258064515
sg18
F-26.999999999999943
sg19
I2838841
sg20
S'5404.85383673'
p336
sg22
F0.17741935483870969
sbasg26
I00
sg27
I00
sg28
I2838137
sg20
S'5405.10240044'
p337
sba(igraph
Edge
p338
(dp339
g7
I1
sg8
I00
sg9
I5
sg10
(lp340
g334
a(igraph
Vertex
p341
(dp342
g14
F0.58333333333333326
sg8
I00
sg15
g16
sg17
F-210.29032258064515
sg18
F-102.66666666666663
sg19
I2838842
sg20
S'5404.8542041'
p343
sg22
F0.17741935483870969
sbasg26
I00
sg27
I00
sg28
I2838138
sg20
S'5405.10340728'
p344
sba(igraph
Edge
p345
(dp346
g7
I1
sg8
I00
sg9
I5
sg10
(lp347
g341
a(igraph
Vertex
p348
(dp349
g14
F0.66666666666666652
sg8
I00
sg15
g16
sg17
F-210.29032258064515
sg18
F-178.33333333333314
sg19
I2838843
sg20
S'5404.85457621'
p350
sg22
F0.17741935483870969
sbasg26
I00
sg27
I00
sg28
I2838139
sg20
S'5405.10443702'
p351
sba(igraph
Edge
p352
(dp353
g7
I1
sg8
I00
sg9
I5
sg10
(lp354
g348
a(igraph
Vertex
p355
(dp356
g14
F0.74999999999999989
sg8
I00
sg15
g16
sg17
F-210.29032258064515
sg18
F-253.99999999999989
sg19
I2838844
sg20
S'5404.85497766'
p357
sg22
F0.17741935483870969
sbasg26
I00
sg27
I00
sg28
I2838140
sg20
S'5405.10610985'
p358
sba(igraph
Edge
p359
(dp360
g7
I1
sg8
I00
sg9
I5
sg10
(lp361
g355
a(igraph
Vertex
p362
(dp363
g14
F0.83333333333333337
sg8
I00
sg15
g16
sg17
F-210.29032258064515
sg18
F-329.66666666666674
sg19
I2838845
sg20
S'5404.85537464'
p364
sg22
F0.17741935483870969
sbasg26
I00
sg27
I00
sg28
I2838141
sg20
S'5405.10728766'
p365
sba(igraph
Edge
p366
(dp367
g7
I1
sg8
I00
sg9
I5
sg10
(lp368
g362
a(igraph
Vertex
p369
(dp370
g14
F0.91666666666666652
sg8
I00
sg15
g16
sg17
F-210.29032258064515
sg18
F-405.33333333333314
sg19
I2838846
sg20
S'5404.8557853'
p371
sg22
F0.17741935483870969
sbasg26
I00
sg27
I00
sg28
I2838142
sg20
S'5405.10855793'
p372
sba(igraph
Edge
p373
(dp374
g7
I1
sg8
I00
sg9
I5
sg10
(lp375
g369
a(igraph
Vertex
p376
(dp377
g14
F1.0
sg8
I00
sg15
I0
sg17
F-210.29032258064515
sg18
F-481.0
sg19
I2838847
sg20
S'5404.85619038'
p378
sg22
F0.17741935483870969
sbasg26
I00
sg27
I00
sg28
I2838143
sg20
S'5405.10991732'
p379
sba(igraph
Edge
p380
(dp381
g7
I1
sg8
I00
sg9
I5
sg10
(lp382
g376
ag296
asg26
I00
sg27
I00
sg28
I2838144
sg20
S'5405.11114206'
p383
sba(igraph
Edge
p384
(dp385
g7
I1
sg8
I00
sg9
I5
sg10
(lp386
(igraph
Vertex
p387
(dp388
g14
F0.0
sg8
I00
sg15
g16
sg17
F-173.38709677419354
sg18
F427.0
sg19
I2838849
sg20
S'5404.85661111'
p389
sg22
F0.23655913978494625
sba(igraph
Vertex
p390
(dp391
g14
F0.083333333333333315
sg8
I00
sg15
I0
sg17
F-173.38709677419354
sg18
F351.33333333333337
sg19
I2838850
sg20
S'5404.85703183'
p392
sg22
F0.23655913978494625
sbasg26
I00
sg27
I00
sg28
I2838145
sg20
S'5405.11241233'
p393
sba(igraph
Edge
p394
(dp395
g7
I1
sg8
I00
sg9
I5
sg10
(lp396
g390
a(igraph
Vertex
p397
(dp398
g14
F0.16666666666666669
sg8
I00
sg15
g16
sg17
F-173.38709677419354
sg18
F275.66666666666663
sg19
I2838852
sg20
S'5404.85746038'
p399
sg22
F0.23655913978494625
sbasg26
I00
sg27
I00
sg28
I2838146
sg20
S'5405.11501741'
p400
sba(igraph
Edge
p401
(dp402
g7
I1
sg8
I00
sg9
I5
sg10
(lp403
g397
a(igraph
Vertex
p404
(dp405
g14
F0.25
sg8
I00
sg15
g16
sg17
F-173.38709677419354
sg18
F200.0
sg19
I2838853
sg20
S'5404.85793139'
p406
sg22
F0.23655913978494625
sbasg26
I00
sg27
I00
sg28
I2838147
sg20
S'5405.11648156'
p407
sba(igraph
Edge
p408
(dp409
g7
I1
sg8
I00
sg9
I5
sg10
(lp410
g404
a(igraph
Vertex
p411
(dp412
g14
F0.33333333333333331
sg8
I00
sg15
g16
sg17
F-173.38709677419354
sg18
F124.33333333333337
sg19
I2838854
sg20
S'5404.85838144'
p413
sg22
F0.23655913978494625
sbasg26
I00
sg27
I00
sg28
I2838148
sg20
S'5405.11781022'
p414
sba(igraph
Edge
p415
(dp416
g7
I1
sg8
I00
sg9
I5
sg10
(lp417
g411
a(igraph
Vertex
p418
(dp419
g14
F0.41666666666666663
sg8
I00
sg15
g16
sg17
F-173.38709677419354
sg18
F48.666666666666686
sg19
I2838855
sg20
S'5404.85883709'
p420
sg22
F0.23655913978494625
sbasg26
I00
sg27
I00
sg28
I2838149
sg20
S'5405.11913609'
p421
sba(igraph
Edge
p422
(dp423
g7
I1
sg8
I00
sg9
I5
sg10
(lp424
g418
a(igraph
Vertex
p425
(dp426
g14
F0.49999999999999994
sg8
I00
sg15
g16
sg17
F-173.38709677419354
sg18
F-26.999999999999943
sg19
I2838856
sg20
S'5404.85929692'
p427
sg22
F0.23655913978494625
sbasg26
I00
sg27
I00
sg28
I2838150
sg20
S'5405.1230933'
p428
sba(igraph
Edge
p429
(dp430
g7
I1
sg8
I00
sg9
I5
sg10
(lp431
g425
a(igraph
Vertex
p432
(dp433
g14
F0.58333333333333326
sg8
I00
sg15
g16
sg17
F-173.38709677419354
sg18
F-102.66666666666663
sg19
I2838857
sg20
S'5404.8598157'
p434
sg22
F0.23655913978494625
sbasg26
I00
sg27
I00
sg28
I2838151
sg20
S'5405.12447448'
p435
sba(igraph
Edge
p436
(dp437
g7
I1
sg8
I00
sg9
I5
sg10
(lp438
g432
a(igraph
Vertex
p439
(dp440
g14
F0.66666666666666652
sg8
I00
sg15
g16
sg17
F-173.38709677419354
sg18
F-178.33333333333314
sg19
I2838858
sg20
S'5404.86030152'
p441
sg22
F0.23655913978494625
sbasg26
I00
sg27
I00
sg28
I2838152
sg20
S'5405.12590259'
p442
sba(igraph
Edge
p443
(dp444
g7
I1
sg8
I00
sg9
I5
sg10
(lp445
g439
a(igraph
Vertex
p446
(dp447
g14
F0.74999999999999989
sg8
I00
sg15
g16
sg17
F-173.38709677419354
sg18
F-253.99999999999989
sg19
I2838859
sg20
S'5404.86079851'
p448
sg22
F0.23655913978494625
sbasg26
I00
sg27
I00
sg28
I2838153
sg20
S'5405.12761845'
p449
sba(igraph
Edge
p450
(dp451
g7
I1
sg8
I00
sg9
I5
sg10
(lp452
g446
a(igraph
Vertex
p453
(dp454
g14
F0.83333333333333337
sg8
I00
sg15
g16
sg17
F-173.38709677419354
sg18
F-329.66666666666674
sg19
I2838860
sg20
S'5404.86129578'
p455
sg22
F0.23655913978494625
sbasg26
I00
sg27
I00
sg28
I2838154
sg20
S'5405.12909211'
p456
sba(igraph
Edge
p457
(dp458
g7
I1
sg8
I00
sg9
I5
sg10
(lp459
g453
a(igraph
Vertex
p460
(dp461
g14
F0.91666666666666652
sg8
I00
sg15
g16
sg17
F-173.38709677419354
sg18
F-405.33333333333314
sg19
I2838861
sg20
S'5404.86181065'
p462
sg22
F0.23655913978494625
sbasg26
I00
sg27
I00
sg28
I2838155
sg20
S'5405.13055654'
p463
sba(igraph
Edge
p464
(dp465
g7
I1
sg8
I00
sg9
I5
sg10
(lp466
g460
a(igraph
Vertex
p467
(dp468
g14
F1.0
sg8
I00
sg15
g16
sg17
F-173.38709677419354
sg18
F-481.0
sg19
I2838862
sg20
S'5404.86232245'
p469
sg22
F0.23655913978494625
sbasg26
I00
sg27
I00
sg28
I2838156
sg20
S'5405.13204946'
p470
sba(igraph
Edge
p471
(dp472
g7
I1
sg8
I00
sg9
I5
sg10
(lp473
g467
ag387
asg26
I00
sg27
I00
sg28
I2838157
sg20
S'5405.13358541'
p474
sba(igraph
Edge
p475
(dp476
g7
I1
sg8
I00
sg9
I5
sg10
(lp477
(igraph
Vertex
p478
(dp479
g14
F0.0
sg8
I00
sg15
g16
sg17
F-136.48387096774192
sg18
F427.0
sg19
I2838863
sg20
S'5404.86285771'
p480
sg22
F0.29569892473118281
sba(igraph
Vertex
p481
(dp482
g14
F0.083333333333333315
sg8
I00
sg15
g16
sg17
F-136.48387096774192
sg18
F351.33333333333337
sg19
I2838864
sg20
S'5404.86340554'
p483
sg22
F0.29569892473118281
sbasg26
I00
sg27
I00
sg28
I2838158
sg20
S'5405.13509231'
p484
sba(igraph
Edge
p485
(dp486
g7
I1
sg8
I00
sg9
I5
sg10
(lp487
g481
a(igraph
Vertex
p488
(dp489
g14
F0.16666666666666669
sg8
I00
sg15
g16
sg17
F-136.48387096774192
sg18
F275.66666666666663
sg19
I2838865
sg20
S'5404.86395198'
p490
sg22
F0.29569892473118281
sbasg26
I00
sg27
I00
sg28
I2838159
sg20
S'5405.13662742'
p491
sba(igraph
Edge
p492
(dp493
g7
I1
sg8
I00
sg9
I5
sg10
(lp494
g488
a(igraph
Vertex
p495
(dp496
g14
F0.25
sg8
I00
sg15
g16
sg17
F-136.48387096774192
sg18
F200.0
sg19
I2838866
sg20
S'5404.86449674'
p497
sg22
F0.29569892473118281
sbasg26
I00
sg27
I00
sg28
I2838160
sg20
S'5405.13818041'
p498
sba(igraph
Edge
p499
(dp500
g7
I1
sg8
I00
sg9
I5
sg10
(lp501
g495
a(igraph
Vertex
p502
(dp503
g14
F0.33333333333333331
sg8
I00
sg15
g16
sg17
F-136.48387096774192
sg18
F124.33333333333337
sg19
I2838867
sg20
S'5404.86505184'
p504
sg22
F0.29569892473118281
sbasg26
I00
sg27
I00
sg28
I2838161
sg20
S'5405.13978704'
p505
sba(igraph
Edge
p506
(dp507
g7
I1
sg8
I00
sg9
I5
sg10
(lp508
g502
a(igraph
Vertex
p509
(dp510
g14
F0.41666666666666663
sg8
I00
sg15
g16
sg17
F-136.48387096774192
sg18
F48.666666666666686
sg19
I2838868
sg20
S'5404.86561365'
p511
sg22
F0.29569892473118281
sbasg26
I00
sg27
I00
sg28
I2838162
sg20
S'5405.14138864'
p512
sba(igraph
Edge
p513
(dp514
g7
I1
sg8
I00
sg9
I5
sg10
(lp515
g509
a(igraph
Vertex
p516
(dp517
g14
F0.49999999999999994
sg8
I00
sg15
g16
sg17
F-136.48387096774192
sg18
F-26.999999999999943
sg19
I2838869
sg20
S'5404.86618914'
p518
sg22
F0.29569892473118281
sbasg26
I00
sg27
I00
sg28
I2838163
sg20
S'5405.14302376'
p519
sba(igraph
Edge
p520
(dp521
g7
I1
sg8
I00
sg9
I5
sg10
(lp522
g516
a(igraph
Vertex
p523
(dp524
g14
F0.58333333333333326
sg8
I00
sg15
g16
sg17
F-136.48387096774192
sg18
F-102.66666666666663
sg19
I2838870
sg20
S'5404.86680458'
p525
sg22
F0.29569892473118281
sbasg26
I00
sg27
I00
sg28
I2838164
sg20
S'5405.14470331'
p526
sba(igraph
Edge
p527
(dp528
g7
I1
sg8
I00
sg9
I5
sg10
(lp529
g523
a(igraph
Vertex
p530
(dp531
g14
F0.66666666666666652
sg8
I00
sg15
g16
sg17
F-136.48387096774192
sg18
F-178.33333333333314
sg19
I2838871
sg20
S'5404.86739683'
p532
sg22
F0.29569892473118281
sbasg26
I00
sg27
I00
sg28
I2838165
sg20
S'5405.1463971'
p533
sba(igraph
Edge
p534
(dp535
g7
I1
sg8
I00
sg9
I5
sg10
(lp536
g530
a(igraph
Vertex
p537
(dp538
g14
F0.74999999999999989
sg8
I00
sg15
g16
sg17
F-136.48387096774192
sg18
F-253.99999999999989
sg19
I2838872
sg20
S'5404.86798993'
p539
sg22
F0.29569892473118281
sbasg26
I00
sg27
I00
sg28
I2838166
sg20
S'5405.14808027'
p540
sba(igraph
Edge
p541
(dp542
g7
I1
sg8
I00
sg9
I5
sg10
(lp543
g537
a(igraph
Vertex
p544
(dp545
g14
F0.83333333333333337
sg8
I00
sg15
g16
sg17
F-136.48387096774192
sg18
F-329.66666666666674
sg19
I2838873
sg20
S'5404.86862995'
p546
sg22
F0.29569892473118281
sbasg26
I00
sg27
I00
sg28
I2838167
sg20
S'5405.14990928'
p547
sba(igraph
Edge
p548
(dp549
g7
I1
sg8
I00
sg9
I5
sg10
(lp550
g544
a(igraph
Vertex
p551
(dp552
g14
F0.91666666666666652
sg8
I00
sg15
g16
sg17
F-136.48387096774192
sg18
F-405.33333333333314
sg19
I2838874
sg20
S'5404.86923478'
p553
sg22
F0.29569892473118281
sbasg26
I00
sg27
I00
sg28
I2838168
sg20
S'5405.15172627'
p554
sba(igraph
Edge
p555
(dp556
g7
I1
sg8
I00
sg9
I5
sg10
(lp557
g551
a(igraph
Vertex
p558
(dp559
g14
F1.0
sg8
I00
sg15
g16
sg17
F-136.48387096774192
sg18
F-481.0
sg19
I2838875
sg20
S'5404.86984938'
p560
sg22
F0.29569892473118281
sbasg26
I00
sg27
I00
sg28
I2838169
sg20
S'5405.15362399'
p561
sba(igraph
Edge
p562
(dp563
g7
I1
sg8
I00
sg9
I5
sg10
(lp564
g558
ag478
asg26
I00
sg27
I00
sg28
I2838170
sg20
S'5405.15580528'
p565
sba(igraph
Edge
p566
(dp567
g7
I1
sg8
I00
sg9
I5
sg10
(lp568
(igraph
Vertex
p569
(dp570
g14
F0.0
sg8
I00
sg15
g16
sg17
F-99.580645161290306
sg18
F427.0
sg19
I2838876
sg20
S'5404.87047655'
p571
sg22
F0.35483870967741937
sba(igraph
Vertex
p572
(dp573
g14
F0.083333333333333315
sg8
I00
sg15
g16
sg17
F-99.580645161290306
sg18
F351.33333333333337
sg19
I2838877
sg20
S'5404.87110988'
p574
sg22
F0.35483870967741937
sbasg26
I00
sg27
I00
sg28
I2838171
sg20
S'5405.15791113'
p575
sba(igraph
Edge
p576
(dp577
g7
I1
sg8
I00
sg9
I5
sg10
(lp578
g572
a(igraph
Vertex
p579
(dp580
g14
F0.16666666666666669
sg8
I00
sg15
I0
sg17
F-99.580645161290306
sg18
F275.66666666666663
sg19
I2838878
sg20
S'5404.87174767'
p581
sg22
F0.35483870967741937
sbasg26
I00
sg27
I00
sg28
I2838172
sg20
S'5405.16561295'
p582
sba(igraph
Edge
p583
(dp584
g7
I1
sg8
I00
sg9
I5
sg10
(lp585
g579
a(igraph
Vertex
p586
(dp587
g14
F0.25
sg8
I00
sg15
g16
sg17
F-99.580645161290306
sg18
F200.0
sg19
I2838880
sg20
S'5404.87243295'
p588
sg22
F0.35483870967741937
sbasg26
I00
sg27
I00
sg28
I2838173
sg20
S'5405.16813506'
p589
sba(igraph
Edge
p590
(dp591
g7
I1
sg8
I00
sg9
I5
sg10
(lp592
g586
a(igraph
Vertex
p593
(dp594
g14
F0.33333333333333331
sg8
I00
sg15
g16
sg17
F-99.580645161290306
sg18
F124.33333333333337
sg19
I2838881
sg20
S'5404.87309896'
p595
sg22
F0.35483870967741937
sbasg26
I00
sg27
I00
sg28
I2838174
sg20
S'5405.17066303'
p596
sba(igraph
Edge
p597
(dp598
g7
I1
sg8
I00
sg9
I5
sg10
(lp599
g593
a(igraph
Vertex
p600
(dp601
g14
F0.41666666666666663
sg8
I00
sg15
g16
sg17
F-99.580645161290306
sg18
F48.666666666666686
sg19
I2838882
sg20
S'5404.87386218'
p602
sg22
F0.35483870967741937
sbasg26
I00
sg27
I00
sg28
I2838175
sg20
S'5405.17309854'
p603
sba(igraph
Edge
p604
(dp605
g7
I1
sg8
I00
sg9
I5
sg10
(lp606
g600
a(igraph
Vertex
p607
(dp608
g14
F0.49999999999999994
sg8
I00
sg15
g16
sg17
F-99.580645161290306
sg18
F-26.999999999999943
sg19
I2838883
sg20
S'5404.87453824'
p609
sg22
F0.35483870967741937
sbasg26
I00
sg27
I00
sg28
I2838176
sg20
S'5405.17605869'
p610
sba(igraph
Edge
p611
(dp612
g7
I1
sg8
I00
sg9
I5
sg10
(lp613
g607
a(igraph
Vertex
p614
(dp615
g14
F0.58333333333333326
sg8
I00
sg15
g16
sg17
F-99.580645161290306
sg18
F-102.66666666666663
sg19
I2838884
sg20
S'5404.8752266'
p616
sg22
F0.35483870967741937
sbasg26
I00
sg27
I00
sg28
I2838177
sg20
S'5405.17851291'
p617
sba(igraph
Edge
p618
(dp619
g7
I1
sg8
I00
sg9
I5
sg10
(lp620
g614
a(igraph
Vertex
p621
(dp622
g14
F0.66666666666666652
sg8
I00
sg15
g16
sg17
F-99.580645161290306
sg18
F-178.33333333333314
sg19
I2838885
sg20
S'5404.8759239'
p623
sg22
F0.35483870967741937
sbasg26
I00
sg27
I00
sg28
I2838178
sg20
S'5405.18098641'
p624
sba(igraph
Edge
p625
(dp626
g7
I1
sg8
I00
sg9
I5
sg10
(lp627
g621
a(igraph
Vertex
p628
(dp629
g14
F0.74999999999999989
sg8
I00
sg15
g16
sg17
F-99.580645161290306
sg18
F-253.99999999999989
sg19
I2838886
sg20
S'5404.87662426'
p630
sg22
F0.35483870967741937
sbasg26
I00
sg27
I00
sg28
I2838179
sg20
S'5405.1832163'
p631
sba(igraph
Edge
p632
(dp633
g7
I1
sg8
I00
sg9
I5
sg10
(lp634
g628
a(igraph
Vertex
p635
(dp636
g14
F0.83333333333333337
sg8
I00
sg15
g16
sg17
F-99.580645161290306
sg18
F-329.66666666666674
sg19
I2838887
sg20
S'5404.87732966'
p637
sg22
F0.35483870967741937
sbasg26
I00
sg27
I00
sg28
I2838180
sg20
S'5405.18599626'
p638
sba(igraph
Edge
p639
(dp640
g7
I1
sg8
I00
sg9
I5
sg10
(lp641
g635
a(igraph
Vertex
p642
(dp643
g14
F0.91666666666666652
sg8
I00
sg15
g16
sg17
F-99.580645161290306
sg18
F-405.33333333333314
sg19
I2838888
sg20
S'5404.8780697'
p644
sg22
F0.35483870967741937
sbasg26
I00
sg27
I00
sg28
I2838181
sg20
S'5405.18843847'
p645
sba(igraph
Edge
p646
(dp647
g7
I1
sg8
I00
sg9
I5
sg10
(lp648
g642
a(igraph
Vertex
p649
(dp650
g14
F1.0
sg8
I00
sg15
g16
sg17
F-99.580645161290306
sg18
F-481.0
sg19
I2838889
sg20
S'5404.87880806'
p651
sg22
F0.35483870967741937
sbasg26
I00
sg27
I00
sg28
I2838182
sg20
S'5405.19082425'
p652
sba(igraph
Edge
p653
(dp654
g7
I1
sg8
I00
sg9
I5
sg10
(lp655
g649
ag569
asg26
I00
sg27
I00
sg28
I2838183
sg20
S'5405.19328378'
p656
sba(igraph
Edge
p657
(dp658
g7
I1
sg8
I00
sg9
I5
sg10
(lp659
(igraph
Vertex
p660
(dp661
g14
F0.0
sg8
I00
sg15
g16
sg17
F-62.677419354838719
sg18
F427.0
sg19
I2838890
sg20
S'5404.87957883'
p662
sg22
F0.41397849462365593
sba(igraph
Vertex
p663
(dp664
g14
F0.083333333333333315
sg8
I00
sg15
g16
sg17
F-62.677419354838719
sg18
F351.33333333333337
sg19
I2838891
sg20
S'5404.88031803'
p665
sg22
F0.41397849462365593
sbasg26
I00
sg27
I00
sg28
I2838184
sg20
S'5405.19566956'
p666
sba(igraph
Edge
p667
(dp668
g7
I1
sg8
I00
sg9
I5
sg10
(lp669
g663
a(igraph
Vertex
p670
(dp671
g14
F0.16666666666666669
sg8
I00
sg15
g16
sg17
F-62.677419354838719
sg18
F275.66666666666663
sg19
I2838892
sg20
S'5404.88106729'
p672
sg22
F0.41397849462365593
sbasg26
I00
sg27
I00
sg28
I2838185
sg20
S'5405.19809696'
p673
sba(igraph
Edge
p674
(dp675
g7
I1
sg8
I00
sg9
I5
sg10
(lp676
g670
a(igraph
Vertex
p677
(dp678
g14
F0.25
sg8
I00
sg15
g16
sg17
F-62.677419354838719
sg18
F200.0
sg19
I2838893
sg20
S'5404.88182213'
p679
sg22
F0.41397849462365593
sbasg26
I00
sg27
I00
sg28
I2838186
sg20
S'5405.20137448'
p680
sba(igraph
Edge
p681
(dp682
g7
I1
sg8
I00
sg9
I5
sg10
(lp683
g677
a(igraph
Vertex
p684
(dp685
g14
F0.33333333333333331
sg8
I00
sg15
I0
sg17
F-62.677419354838719
sg18
F124.33333333333337
sg19
I2838894
sg20
S'5404.88260184'
p686
sg22
F0.41397849462365593
sbasg26
I00
sg27
I00
sg28
I2838187
sg20
S'5405.2038544'
p687
sba(igraph
Edge
p688
(dp689
g7
I1
sg8
I00
sg9
I5
sg10
(lp690
g684
a(igraph
Vertex
p691
(dp692
g14
F0.41666666666666663
sg8
I00
sg15
g16
sg17
F-62.677419354838719
sg18
F48.666666666666686
sg19
I2838896
sg20
S'5404.88338518'
p693
sg22
F0.41397849462365593
sbasg26
I00
sg27
I00
sg28
I2838188
sg20
S'5405.20613681'
p694
sba(igraph
Edge
p695
(dp696
g7
I1
sg8
I00
sg9
I5
sg10
(lp697
g691
a(igraph
Vertex
p698
(dp699
g14
F0.49999999999999994
sg8
I00
sg15
g16
sg17
F-62.677419354838719
sg18
F-26.999999999999943
sg19
I2838897
sg20
S'5404.884204'
p700
sg22
F0.41397849462365593
sbasg26
I00
sg27
I00
sg28
I2838189
sg20
S'5405.20854326'
p701
sba(igraph
Edge
p702
(dp703
g7
I1
sg8
I00
sg9
I5
sg10
(lp704
g698
a(igraph
Vertex
p705
(dp706
g14
F0.58333333333333326
sg8
I00
sg15
g16
sg17
F-62.677419354838719
sg18
F-102.66666666666663
sg19
I2838898
sg20
S'5404.88502896'
p707
sg22
F0.41397849462365593
sbasg26
I00
sg27
I00
sg28
I2838190
sg20
S'5405.2112492'
p708
sba(igraph
Edge
p709
(dp710
g7
I1
sg8
I00
sg9
I5
sg10
(lp711
g705
a(igraph
Vertex
p712
(dp713
g14
F0.66666666666666652
sg8
I00
sg15
g16
sg17
F-62.677419354838719
sg18
F-178.33333333333314
sg19
I2838899
sg20
S'5404.88583521'
p714
sg22
F0.41397849462365593
sbasg26
I00
sg27
I00
sg28
I2838191
sg20
S'5405.21371152'
p715
sba(igraph
Edge
p716
(dp717
g7
I1
sg8
I00
sg9
I5
sg10
(lp718
g712
a(igraph
Vertex
p719
(dp720
g14
F0.74999999999999989
sg8
I00
sg15
g16
sg17
F-62.677419354838719
sg18
F-253.99999999999989
sg19
I2838900
sg20
S'5404.88665235'
p721
sg22
F0.41397849462365593
sbasg26
I00
sg27
I00
sg28
I2838192
sg20
S'5405.21636577'
p722
sba(igraph
Edge
p723
(dp724
g7
I1
sg8
I00
sg9
I5
sg10
(lp725
g719
a(igraph
Vertex
p726
(dp727
g14
F0.83333333333333337
sg8
I00
sg15
g16
sg17
F-62.677419354838719
sg18
F-329.66666666666674
sg19
I2838901
sg20
S'5404.88747648'
p728
sg22
F0.41397849462365593
sbasg26
I00
sg27
I00
sg28
I2838193
sg20
S'5405.21861857'
p729
sba(igraph
Edge
p730
(dp731
g7
I1
sg8
I00
sg9
I5
sg10
(lp732
g726
a(igraph
Vertex
p733
(dp734
g14
F0.91666666666666652
sg8
I00
sg15
g16
sg17
F-62.677419354838719
sg18
F-405.33333333333314
sg19
I2838902
sg20
S'5404.88830592'
p735
sg22
F0.41397849462365593
sbasg26
I00
sg27
I00
sg28
I2838194
sg20
S'5405.220856'
p736
sba(igraph
Edge
p737
(dp738
g7
I1
sg8
I00
sg9
I5
sg10
(lp739
g733
a(igraph
Vertex
p740
(dp741
g14
F1.0
sg8
I00
sg15
g16
sg17
F-62.677419354838719
sg18
F-481.0
sg19
I2838903
sg20
S'5404.88914401'
p742
sg22
F0.41397849462365593
sbasg26
I00
sg27
I00
sg28
I2838195
sg20
S'5405.22307696'
p743
sba(igraph
Edge
p744
(dp745
g7
I1
sg8
I00
sg9
I5
sg10
(lp746
g740
ag660
asg26
I00
sg27
I00
sg28
I2838196
sg20
S'5405.22532305'
p747
sba(igraph
Edge
p748
(dp749
g7
I1
sg8
I00
sg9
I5
sg10
(lp750
(igraph
Vertex
p751
(dp752
g14
F0.0
sg8
I00
sg15
g16
sg17
F-25.774193548387075
sg18
F427.0
sg19
I2838904
sg20
S'5404.89003155'
p753
sg22
F0.4731182795698925
sba(igraph
Vertex
p754
(dp755
g14
F0.083333333333333315
sg8
I00
sg15
g16
sg17
F-25.774193548387075
sg18
F351.33333333333337
sg19
I2838905
sg20
S'5404.89089563'
p756
sg22
F0.4731182795698925
sbasg26
I00
sg27
I00
sg28
I2838197
sg20
S'5405.22762111'
p757
sba(igraph
Edge
p758
(dp759
g7
I1
sg8
I00
sg9
I5
sg10
(lp760
g754
a(igraph
Vertex
p761
(dp762
g14
F0.16666666666666669
sg8
I00
sg15
g16
sg17
F-25.774193548387075
sg18
F275.66666666666663
sg19
I2838906
sg20
S'5404.89176446'
p763
sg22
F0.4731182795698925
sbasg26
I00
sg27
I00
sg28
I2838198
sg20
S'5405.2299376'
p764
sba(igraph
Edge
p765
(dp766
g7
I1
sg8
I00
sg9
I5
sg10
(lp767
g761
a(igraph
Vertex
p768
(dp769
g14
F0.25
sg8
I00
sg15
I0
sg17
F-25.774193548387075
sg18
F200.0
sg19
I2838907
sg20
S'5404.89263356'
p770
sg22
F0.4731182795698925
sbasg26
I00
sg27
I00
sg28
I2838199
sg20
S'5405.23227393'
p771
sba(igraph
Edge
p772
(dp773
g7
I1
sg8
I00
sg9
I5
sg10
(lp774
g768
a(igraph
Vertex
p775
(dp776
g14
F0.33333333333333331
sg8
I00
sg15
g16
sg17
F-25.774193548387075
sg18
F124.33333333333337
sg19
I2838909
sg20
S'5404.89354289'
p777
sg22
F0.4731182795698925
sbasg26
I00
sg27
I00
sg28
I2838200
sg20
S'5405.23463345'
p778
sba(igraph
Edge
p779
(dp780
g7
I1
sg8
I00
sg9
I5
sg10
(lp781
g775
a(igraph
Vertex
p782
(dp783
g14
F0.41666666666666663
sg8
I00
sg15
g16
sg17
F-25.774193548387075
sg18
F48.666666666666686
sg19
I2838910
sg20
S'5404.89443658'
p784
sg22
F0.4731182795698925
sbasg26
I00
sg27
I00
sg28
I2838201
sg20
S'5405.23708376'
p785
sba(igraph
Edge
p786
(dp787
g7
I1
sg8
I00
sg9
I5
sg10
(lp788
g782
a(igraph
Vertex
p789
(dp790
g14
F0.49999999999999994
sg8
I00
sg15
g16
sg17
F-25.774193548387075
sg18
F-26.999999999999943
sg19
I2838911
sg20
S'5404.89539509'
p791
sg22
F0.4731182795698925
sbasg26
I00
sg27
I00
sg28
I2838202
sg20
S'5405.23950446'
p792
sba(igraph
Edge
p793
(dp794
g7
I1
sg8
I00
sg9
I5
sg10
(lp795
g789
a(igraph
Vertex
p796
(dp797
g14
F0.58333333333333326
sg8
I00
sg15
g16
sg17
F-25.774193548387075
sg18
F-102.66666666666663
sg19
I2838912
sg20
S'5404.89633096'
p798
sg22
F0.4731182795698925
sbasg26
I00
sg27
I00
sg28
I2838203
sg20
S'5405.24192348'
p799
sba(igraph
Edge
p800
(dp801
g7
I1
sg8
I00
sg9
I5
sg10
(lp802
g796
a(igraph
Vertex
p803
(dp804
g14
F0.66666666666666652
sg8
I00
sg15
g16
sg17
F-25.774193548387075
sg18
F-178.33333333333314
sg19
I2838913
sg20
S'5404.89725677'
p805
sg22
F0.4731182795698925
sbasg26
I00
sg27
I00
sg28
I2838204
sg20
S'5405.24436402'
p806
sba(igraph
Edge
p807
(dp808
g7
I1
sg8
I00
sg9
I5
sg10
(lp809
g803
a(igraph
Vertex
p810
(dp811
g14
F0.74999999999999989
sg8
I00
sg15
g16
sg17
F-25.774193548387075
sg18
F-253.99999999999989
sg19
I2838914
sg20
S'5404.89818622'
p812
sg22
F0.4731182795698925
sbasg26
I00
sg27
I00
sg28
I2838205
sg20
S'5405.24697049'
p813
sba(igraph
Edge
p814
(dp815
g7
I1
sg8
I00
sg9
I5
sg10
(lp816
g810
a(igraph
Vertex
p817
(dp818
g14
F0.83333333333333337
sg8
I00
sg15
g16
sg17
F-25.774193548387075
sg18
F-329.66666666666674
sg19
I2838915
sg20
S'5404.89911902'
p819
sg22
F0.4731182795698925
sbasg26
I00
sg27
I00
sg28
I2838206
sg20
S'5405.24948087'
p820
sba(igraph
Edge
p821
(dp822
g7
I1
sg8
I00
sg9
I5
sg10
(lp823
g817
a(igraph
Vertex
p824
(dp825
g14
F0.91666666666666652
sg8
I00
sg15
g16
sg17
F-25.774193548387075
sg18
F-405.33333333333314
sg19
I2838916
sg20
S'5404.90007026'
p826
sg22
F0.4731182795698925
sbasg26
I00
sg27
I00
sg28
I2838207
sg20
S'5405.25204265'
p827
sba(igraph
Edge
p828
(dp829
g7
I1
sg8
I00
sg9
I5
sg10
(lp830
g824
a(igraph
Vertex
p831
(dp832
g14
F1.0
sg8
I00
sg15
g16
sg17
F-25.774193548387075
sg18
F-481.0
sg19
I2838917
sg20
S'5404.90105139'
p833
sg22
F0.4731182795698925
sbasg26
I00
sg27
I00
sg28
I2838208
sg20
S'5405.25465946'
p834
sba(igraph
Edge
p835
(dp836
g7
I1
sg8
I00
sg9
I5
sg10
(lp837
g831
ag751
asg26
I00
sg27
I00
sg28
I2838209
sg20
S'5405.25727795'
p838
sba(igraph
Edge
p839
(dp840
g7
I1
sg8
I00
sg9
I5
sg10
(lp841
(igraph
Vertex
p842
(dp843
g14
F0.0
sg8
I00
sg15
g16
sg17
F11.129032258064512
sg18
F427.0
sg19
I2838918
sg20
S'5404.90200905'
p844
sg22
F0.532258064516129
sba(igraph
Vertex
p845
(dp846
g14
F0.083333333333333315
sg8
I00
sg15
g16
sg17
F11.129032258064512
sg18
F351.33333333333337
sg19
I2838919
sg20
S'5404.90302957'
p847
sg22
F0.532258064516129
sbasg26
I00
sg27
I00
sg28
I2838210
sg20
S'5405.2598713'
p848
sba(igraph
Edge
p849
(dp850
g7
I1
sg8
I00
sg9
I5
sg10
(lp851
g845
a(igraph
Vertex
p852
(dp853
g14
F0.16666666666666669
sg8
I00
sg15
g16
sg17
F11.129032258064512
sg18
F275.66666666666663
sg19
I2838920
sg20
S'5404.90401015'
p854
sg22
F0.532258064516129
sbasg26
I00
sg27
I00
sg28
I2838211
sg20
S'5405.26248867'
p855
sba(igraph
Edge
p856
(dp857
g7
I1
sg8
I00
sg9
I5
sg10
(lp858
g852
a(igraph
Vertex
p859
(dp860
g14
F0.25
sg8
I00
sg15
g16
sg17
F11.129032258064512
sg18
F200.0
sg19
I2838921
sg20
S'5404.90499714'
p861
sg22
F0.532258064516129
sbasg26
I00
sg27
I00
sg28
I2838212
sg20
S'5405.26514767'
p862
sba(igraph
Edge
p863
(dp864
g7
I1
sg8
I00
sg9
I5
sg10
(lp865
g859
a(igraph
Vertex
p866
(dp867
g14
F0.33333333333333331
sg8
I00
sg15
g16
sg17
F11.129032258064512
sg18
F124.33333333333337
sg19
I2838922
sg20
S'5404.90599112'
p868
sg22
F0.532258064516129
sbasg26
I00
sg27
I00
sg28
I2838213
sg20
S'5405.26794746'
p869
sba(igraph
Edge
p870
(dp871
g7
I1
sg8
I00
sg9
I5
sg10
(lp872
g866
a(igraph
Vertex
p873
(dp874
g14
F0.41666666666666663
sg8
I00
sg15
I0
sg17
F11.129032258064512
sg18
F48.666666666666686
sg19
I2838923
sg20
S'5404.90699349'
p875
sg22
F0.532258064516129
sbasg26
I00
sg27
I00
sg28
I2838214
sg20
S'5405.27061652'
p876
sba(igraph
Edge
p877
(dp878
g7
I1
sg8
I00
sg9
I5
sg10
(lp879
g873
a(igraph
Vertex
p880
(dp881
g14
F0.49999999999999994
sg8
I00
sg15
g16
sg17
F11.129032258064512
sg18
F-26.999999999999943
sg19
I2838925
sg20
S'5404.90800423'
p882
sg22
F0.532258064516129
sbasg26
I00
sg27
I00
sg28
I2838215
sg20
S'5405.27329758'
p883
sba(igraph
Edge
p884
(dp885
g7
I1
sg8
I00
sg9
I5
sg10
(lp886
g880
a(igraph
Vertex
p887
(dp888
g14
F0.58333333333333326
sg8
I00
sg15
g16
sg17
F11.129032258064512
sg18
F-102.66666666666663
sg19
I2838926
sg20
S'5404.90902307'
p889
sg22
F0.532258064516129
sbasg26
I00
sg27
I00
sg28
I2838216
sg20
S'5405.2761228'
p890
sba(igraph
Edge
p891
(dp892
g7
I1
sg8
I00
sg9
I5
sg10
(lp893
g887
a(igraph
Vertex
p894
(dp895
g14
F0.66666666666666652
sg8
I00
sg15
g16
sg17
F11.129032258064512
sg18
F-178.33333333333314
sg19
I2838927
sg20
S'5404.9100517'
p896
sg22
F0.532258064516129
sbasg26
I00
sg27
I00
sg28
I2838217
sg20
S'5405.27888796'
p897
sba(igraph
Edge
p898
(dp899
g7
I1
sg8
I00
sg9
I5
sg10
(lp900
g894
a(igraph
Vertex
p901
(dp902
g14
F0.74999999999999989
sg8
I00
sg15
g16
sg17
F11.129032258064512
sg18
F-253.99999999999989
sg19
I2838928
sg20
S'5404.9110901'
p903
sg22
F0.532258064516129
sbasg26
I00
sg27
I00
sg28
I2838218
sg20
S'5405.28165731'
p904
sba(igraph
Edge
p905
(dp906
g7
I1
sg8
I00
sg9
I5
sg10
(lp907
g901
a(igraph
Vertex
p908
(dp909
g14
F0.83333333333333337
sg8
I00
sg15
g16
sg17
F11.129032258064512
sg18
F-329.66666666666674
sg19
I2838929
sg20
S'5404.91217403'
p910
sg22
F0.532258064516129
sbasg26
I00
sg27
I00
sg28
I2838219
sg20
S'5405.28447638'
p911
sba(igraph
Edge
p912
(dp913
g7
I1
sg8
I00
sg9
I5
sg10
(lp914
g908
a(igraph
Vertex
p915
(dp916
g14
F0.91666666666666652
sg8
I00
sg15
g16
sg17
F11.129032258064512
sg18
F-405.33333333333314
sg19
I2838930
sg20
S'5404.91323758'
p917
sg22
F0.532258064516129
sbasg26
I00
sg27
I00
sg28
I2838220
sg20
S'5405.28736669'
p918
sba(igraph
Edge
p919
(dp920
g7
I1
sg8
I00
sg9
I5
sg10
(lp921
g915
a(igraph
Vertex
p922
(dp923
g14
F1.0
sg8
I00
sg15
g16
sg17
F11.129032258064512
sg18
F-481.0
sg19
I2838931
sg20
S'5404.91431397'
p924
sg22
F0.532258064516129
sbasg26
I00
sg27
I00
sg28
I2838221
sg20
S'5405.29019638'
p925
sba(igraph
Edge
p926
(dp927
g7
I1
sg8
I00
sg9
I5
sg10
(lp928
g922
ag842
asg26
I00
sg27
I00
sg28
I2838222
sg20
S'5405.29369738'
p929
sba(igraph
Edge
p930
(dp931
g7
I1
sg8
I00
sg9
I5
sg10
(lp932
(igraph
Vertex
p933
(dp934
g14
F0.0
sg8
I00
sg15
g16
sg17
F48.032258064516157
sg18
F427.0
sg19
I2838932
sg20
S'5404.91538701'
p935
sg22
F0.59139784946236562
sba(igraph
Vertex
p936
(dp937
g14
F0.083333333333333315
sg8
I00
sg15
g16
sg17
F48.032258064516157
sg18
F351.33333333333337
sg19
I2838933
sg20
S'5404.91647654'
p938
sg22
F0.59139784946236562
sbasg26
I00
sg27
I00
sg28
I2838223
sg20
S'5405.2965673'
p939
sba(igraph
Edge
p940
(dp941
g7
I1
sg8
I00
sg9
I5
sg10
(lp942
g936
a(igraph
Vertex
p943
(dp944
g14
F0.16666666666666669
sg8
I00
sg15
g16
sg17
F48.032258064516157
sg18
F275.66666666666663
sg19
I2838934
sg20
S'5404.91759455'
p945
sg22
F0.59139784946236562
sbasg26
I00
sg27
I00
sg28
I2838224
sg20
S'5405.29956573'
p946
sba(igraph
Edge
p947
(dp948
g7
I1
sg8
I00
sg9
I5
sg10
(lp949
g943
a(igraph
Vertex
p950
(dp951
g14
F0.25
sg8
I00
sg15
g16
sg17
F48.032258064516157
sg18
F200.0
sg19
I2838935
sg20
S'5404.91873911'
p952
sg22
F0.59139784946236562
sbasg26
I00
sg27
I00
sg28
I2838225
sg20
S'5405.30245939'
p953
sba(igraph
Edge
p954
(dp955
g7
I1
sg8
I00
sg9
I5
sg10
(lp956
g950
a(igraph
Vertex
p957
(dp958
g14
F0.33333333333333331
sg8
I00
sg15
g16
sg17
F48.032258064516157
sg18
F124.33333333333337
sg19
I2838936
sg20
S'5404.91987613'
p959
sg22
F0.59139784946236562
sbasg26
I00
sg27
I00
sg28
I2838226
sg20
S'5405.30548072'
p960
sba(igraph
Edge
p961
(dp962
g7
I1
sg8
I00
sg9
I5
sg10
(lp963
g957
a(igraph
Vertex
p964
(dp965
g14
F0.41666666666666663
sg8
I00
sg15
g16
sg17
F48.032258064516157
sg18
F48.666666666666686
sg19
I2838937
sg20
S'5404.92106846'
p966
sg22
F0.59139784946236562
sbasg26
I00
sg27
I00
sg28
I2838227
sg20
S'5405.30854285'
p967
sba(igraph
Edge
p968
(dp969
g7
I1
sg8
I00
sg9
I5
sg10
(lp970
g964
a(igraph
Vertex
p971
(dp972
g14
F0.49999999999999994
sg8
I00
sg15
g16
sg17
F48.032258064516157
sg18
F-26.999999999999943
sg19
I2838938
sg20
S'5404.92219235'
p973
sg22
F0.59139784946236562
sbasg26
I00
sg27
I00
sg28
I2838228
sg20
S'5405.31159016'
p974
sba(igraph
Edge
p975
(dp976
g7
I1
sg8
I00
sg9
I5
sg10
(lp977
g971
a(igraph
Vertex
p978
(dp979
g14
F0.58333333333333326
sg8
I00
sg15
I0
sg17
F48.032258064516157
sg18
F-102.66666666666663
sg19
I2838939
sg20
S'5404.92331456'
p980
sg22
F0.59139784946236562
sbasg26
I00
sg27
I00
sg28
I2838229
sg20
S'5405.31458188'
p981
sba(igraph
Edge
p982
(dp983
g7
I1
sg8
I00
sg9
I5
sg10
(lp984
g978
a(igraph
Vertex
p985
(dp986
g14
F0.66666666666666652
sg8
I00
sg15
g16
sg17
F48.032258064516157
sg18
F-178.33333333333314
sg19
I2838941
sg20
S'5404.92445017'
p987
sg22
F0.59139784946236562
sbasg26
I00
sg27
I00
sg28
I2838230
sg20
S'5405.31765266'
p988
sba(igraph
Edge
p989
(dp990
g7
I1
sg8
I00
sg9
I5
sg10
(lp991
g985
a(igraph
Vertex
p992
(dp993
g14
F0.74999999999999989
sg8
I00
sg15
g16
sg17
F48.032258064516157
sg18
F-253.99999999999989
sg19
I2838942
sg20
S'5404.92559306'
p994
sg22
F0.59139784946236562
sbasg26
I00
sg27
I00
sg28
I2838231
sg20
S'5405.32073015'
p995
sba(igraph
Edge
p996
(dp997
g7
I1
sg8
I00
sg9
I5
sg10
(lp998
g992
a(igraph
Vertex
p999
(dp1000
g14
F0.83333333333333337
sg8
I00
sg15
g16
sg17
F48.032258064516157
sg18
F-329.66666666666674
sg19
I2838943
sg20
S'5404.92674991'
p1001
sg22
F0.59139784946236562
sbasg26
I00
sg27
I00
sg28
I2838232
sg20
S'5405.32382719'
p1002
sba(igraph
Edge
p1003
(dp1004
g7
I1
sg8
I00
sg9
I5
sg10
(lp1005
g999
a(igraph
Vertex
p1006
(dp1007
g14
F0.91666666666666652
sg8
I00
sg15
g16
sg17
F48.032258064516157
sg18
F-405.33333333333314
sg19
I2838944
sg20
S'5404.92791095'
p1008
sg22
F0.59139784946236562
sbasg26
I00
sg27
I00
sg28
I2838233
sg20
S'5405.32698737'
p1009
sba(igraph
Edge
p1010
(dp1011
g7
I1
sg8
I00
sg9
I5
sg10
(lp1012
g1006
a(igraph
Vertex
p1013
(dp1014
g14
F1.0
sg8
I00
sg15
g16
sg17
F48.032258064516157
sg18
F-481.0
sg19
I2838945
sg20
S'5404.929084'
p1015
sg22
F0.59139784946236562
sbasg26
I00
sg27
I00
sg28
I2838234
sg20
S'5405.33011877'
p1016
sba(igraph
Edge
p1017
(dp1018
g7
I1
sg8
I00
sg9
I5
sg10
(lp1019
g1013
ag933
asg26
I00
sg27
I00
sg28
I2838235
sg20
S'5405.33334404'
p1020
sba(igraph
Edge
p1021
(dp1022
g7
I1
sg8
I00
sg9
I5
sg10
(lp1023
(igraph
Vertex
p1024
(dp1025
g14
F0.0
sg8
I00
sg15
g16
sg17
F84.935483870967744
sg18
F427.0
sg19
I2838946
sg20
S'5404.93028695'
p1026
sg22
F0.65053763440860213
sba(igraph
Vertex
p1027
(dp1028
g14
F0.083333333333333315
sg8
I00
sg15
g16
sg17
F84.935483870967744
sg18
F351.33333333333337
sg19
I2838947
sg20
S'5404.9314723'
p1029
sg22
F0.65053763440860213
sbasg26
I00
sg27
I00
sg28
I2838236
sg20
S'5405.33649109'
p1030
sba(igraph
Edge
p1031
(dp1032
g7
I1
sg8
I00
sg9
I5
sg10
(lp1033
g1027
a(igraph
Vertex
p1034
(dp1035
g14
F0.16666666666666669
sg8
I00
sg15
g16
sg17
F84.935483870967744
sg18
F275.66666666666663
sg19
I2838948
sg20
S'5404.93266938'
p1036
sg22
F0.65053763440860213
sbasg26
I00
sg27
I00
sg28
I2838237
sg20
S'5405.33975296'
p1037
sba(igraph
Edge
p1038
(dp1039
g7
I1
sg8
I00
sg9
I5
sg10
(lp1040
g1034
a(igraph
Vertex
p1041
(dp1042
g14
F0.25
sg8
I00
sg15
g16
sg17
F84.935483870967744
sg18
F200.0
sg19
I2838949
sg20
S'5404.9339064'
p1043
sg22
F0.65053763440860213
sbasg26
I00
sg27
I00
sg28
I2838238
sg20
S'5405.34310534'
p1044
sba(igraph
Edge
p1045
(dp1046
g7
I1
sg8
I00
sg9
I5
sg10
(lp1047
g1041
a(igraph
Vertex
p1048
(dp1049
g14
F0.33333333333333331
sg8
I00
sg15
g16
sg17
F84.935483870967744
sg18
F124.33333333333337
sg19
I2838950
sg20
S'5404.93513142'
p1050
sg22
F0.65053763440860213
sbasg26
I00
sg27
I00
sg28
I2838239
sg20
S'5405.34633396'
p1051
sba(igraph
Edge
p1052
(dp1053
g7
I1
sg8
I00
sg9
I5
sg10
(lp1054
g1048
a(igraph
Vertex
p1055
(dp1056
g14
F0.41666666666666663
sg8
I00
sg15
g16
sg17
F84.935483870967744
sg18
F48.666666666666686
sg19
I2838951
sg20
S'5404.93636091'
p1057
sg22
F0.65053763440860213
sbasg26
I00
sg27
I00
sg28
I2838240
sg20
S'5405.3495556'
p1058
sba(igraph
Edge
p1059
(dp1060
g7
I1
sg8
I00
sg9
I5
sg10
(lp1061
g1055
a(igraph
Vertex
p1062
(dp1063
g14
F0.49999999999999994
sg8
I00
sg15
g16
sg17
F84.935483870967744
sg18
F-26.999999999999943
sg19
I2838952
sg20
S'5404.93759933'
p1064
sg22
F0.65053763440860213
sbasg26
I00
sg27
I00
sg28
I2838241
sg20
S'5405.35281747'
p1065
sba(igraph
Edge
p1066
(dp1067
g7
I1
sg8
I00
sg9
I5
sg10
(lp1068
g1062
a(igraph
Vertex
p1069
(dp1070
g14
F0.58333333333333326
sg8
I00
sg15
g16
sg17
F84.935483870967744
sg18
F-102.66666666666663
sg19
I2838953
sg20
S'5404.93884279'
p1071
sg22
F0.65053763440860213
sbasg26
I00
sg27
I00
sg28
I2838242
sg20
S'5405.3560785'
p1072
sba(igraph
Edge
p1073
(dp1074
g7
I1
sg8
I00
sg9
I5
sg10
(lp1075
g1069
a(igraph
Vertex
p1076
(dp1077
g14
F0.66666666666666652
sg8
I00
sg15
g16
sg17
F84.935483870967744
sg18
F-178.33333333333314
sg19
I2838954
sg20
S'5404.94008987'
p1078
sg22
F0.65053763440860213
sbasg26
I00
sg27
I00
sg28
I2838243
sg20
S'5405.35938869'
p1079
sba(igraph
Edge
p1080
(dp1081
g7
I1
sg8
I00
sg9
I5
sg10
(lp1082
g1076
a(igraph
Vertex
p1083
(dp1084
g14
F0.74999999999999989
sg8
I00
sg15
g16
sg17
F84.935483870967744
sg18
F-253.99999999999989
sg19
I2838955
sg20
S'5404.94135009'
p1085
sg22
F0.65053763440860213
sbasg26
I00
sg27
I00
sg28
I2838244
sg20
S'5405.36290003'
p1086
sba(igraph
Edge
p1087
(dp1088
g7
I1
sg8
I00
sg9
I5
sg10
(lp1089
g1083
a(igraph
Vertex
p1090
(dp1091
g14
F0.83333333333333337
sg8
I00
sg15
g16
sg17
F84.935483870967744
sg18
F-329.66666666666674
sg19
I2838956
sg20
S'5404.94267875'
p1092
sg22
F0.65053763440860213
sbasg26
I00
sg27
I00
sg28
I2838245
sg20
S'5405.36621889'
p1093
sba(igraph
Edge
p1094
(dp1095
g7
I1
sg8
I00
sg9
I5
sg10
(lp1096
g1090
a(igraph
Vertex
p1097
(dp1098
g14
F0.91666666666666652
sg8
I00
sg15
g16
sg17
F84.935483870967744
sg18
F-405.33333333333314
sg19
I2838957
sg20
S'5404.94399931'
p1099
sg22
F0.65053763440860213
sbasg26
I00
sg27
I00
sg28
I2838246
sg20
S'5405.3696291'
p1100
sba(igraph
Edge
p1101
(dp1102
g7
I1
sg8
I00
sg9
I5
sg10
(lp1103
g1097
a(igraph
Vertex
p1104
(dp1105
g14
F1.0
sg8
I00
sg15
g16
sg17
F84.935483870967744
sg18
F-481.0
sg19
I2838958
sg20
S'5404.94530422'
p1106
sg22
F0.65053763440860213
sbasg26
I00
sg27
I00
sg28
I2838247
sg20
S'5405.37306529'
p1107
sba(igraph
Edge
p1108
(dp1109
g7
I1
sg8
I00
sg9
I5
sg10
(lp1110
g1104
ag1024
asg26
I00
sg27
I00
sg28
I2838248
sg20
S'5405.37648696'
p1111
sba(igraph
Edge
p1112
(dp1113
g7
I1
sg8
I00
sg9
I5
sg10
(lp1114
(igraph
Vertex
p1115
(dp1116
g14
F0.0
sg8
I00
sg15
g16
sg17
F121.83870967741939
sg18
F427.0
sg19
I2838959
sg20
S'5404.94662087'
p1117
sg22
F0.70967741935483875
sba(igraph
Vertex
p1118
(dp1119
g14
F0.083333333333333315
sg8
I00
sg15
g16
sg17
F121.83870967741939
sg18
F351.33333333333337
sg19
I2838960
sg20
S'5404.9479378'
p1120
sg22
F0.70967741935483875
sbasg26
I00
sg27
I00
sg28
I2838249
sg20
S'5405.3799008'
p1121
sba(igraph
Edge
p1122
(dp1123
g7
I1
sg8
I00
sg9
I5
sg10
(lp1124
g1118
a(igraph
Vertex
p1125
(dp1126
g14
F0.16666666666666669
sg8
I00
sg15
g16
sg17
F121.83870967741939
sg18
F275.66666666666663
sg19
I2838961
sg20
S'5404.94925193'
p1127
sg22
F0.70967741935483875
sbasg26
I00
sg27
I00
sg28
I2838250
sg20
S'5405.38333447'
p1128
sba(igraph
Edge
p1129
(dp1130
g7
I1
sg8
I00
sg9
I5
sg10
(lp1131
g1125
a(igraph
Vertex
p1132
(dp1133
g14
F0.25
sg8
I00
sg15
g16
sg17
F121.83870967741939
sg18
F200.0
sg19
I2838962
sg20
S'5404.95060406'
p1134
sg22
F0.70967741935483875
sbasg26
I00
sg27
I00
sg28
I2838251
sg20
S'5405.38684134'
p1135
sba(igraph
Edge
p1136
(dp1137
g7
I1
sg8
I00
sg9
I5
sg10
(lp1138
g1132
a(igraph
Vertex
p1139
(dp1140
g14
F0.33333333333333331
sg8
I00
sg15
g16
sg17
F121.83870967741939
sg18
F124.33333333333337
sg19
I2838963
sg20
S'5404.95193495'
p1141
sg22
F0.70967741935483875
sbasg26
I00
sg27
I00
sg28
I2838252
sg20
S'5405.39037922'
p1142
sba(igraph
Edge
p1143
(dp1144
g7
I1
sg8
I00
sg9
I5
sg10
(lp1145
g1139
a(igraph
Vertex
p1146
(dp1147
g14
F0.41666666666666663
sg8
I00
sg15
g16
sg17
F121.83870967741939
sg18
F48.666666666666686
sg19
I2838964
sg20
S'5404.95331194'
p1148
sg22
F0.70967741935483875
sbasg26
I00
sg27
I00
sg28
I2838253
sg20
S'5405.39392548'
p1149
sba(igraph
Edge
p1150
(dp1151
g7
I1
sg8
I00
sg9
I5
sg10
(lp1152
g1146
a(igraph
Vertex
p1153
(dp1154
g14
F0.49999999999999994
sg8
I00
sg15
g16
sg17
F121.83870967741939
sg18
F-26.999999999999943
sg19
I2838965
sg20
S'5404.95465234'
p1155
sg22
F0.70967741935483875
sbasg26
I00
sg27
I00
sg28
I2838254
sg20
S'5405.39751337'
p1156
sba(igraph
Edge
p1157
(dp1158
g7
I1
sg8
I00
sg9
I5
sg10
(lp1159
g1153
a(igraph
Vertex
p1160
(dp1161
g14
F0.58333333333333326
sg8
I00
sg15
g16
sg17
F121.83870967741939
sg18
F-102.66666666666663
sg19
I2838966
sg20
S'5404.95601173'
p1162
sg22
F0.70967741935483875
sbasg26
I00
sg27
I00
sg28
I2838255
sg20
S'5405.40145354'
p1163
sba(igraph
Edge
p1164
(dp1165
g7
I1
sg8
I00
sg9
I5
sg10
(lp1166
g1160
a(igraph
Vertex
p1167
(dp1168
g14
F0.66666666666666652
sg8
I00
sg15
I0
sg17
F121.83870967741939
sg18
F-178.33333333333314
sg19
I2838967
sg20
S'5404.95737503'
p1169
sg22
F0.70967741935483875
sbasg26
I00
sg27
I00
sg28
I2838256
sg20
S'5405.4051906'
p1170
sba(igraph
Edge
p1171
(dp1172
g7
I1
sg8
I00
sg9
I5
sg10
(lp1173
g1167
a(igraph
Vertex
p1174
(dp1175
g14
F0.74999999999999989
sg8
I00
sg15
g16
sg17
F121.83870967741939
sg18
F-253.99999999999989
sg19
I2838969
sg20
S'5404.95874839'
p1176
sg22
F0.70967741935483875
sbasg26
I00
sg27
I00
sg28
I2838257
sg20
S'5405.40888828'
p1177
sba(igraph
Edge
p1178
(dp1179
g7
I1
sg8
I00
sg9
I5
sg10
(lp1180
g1174
a(igraph
Vertex
p1181
(dp1182
g14
F0.83333333333333337
sg8
I00
sg15
g16
sg17
F121.83870967741939
sg18
F-329.66666666666674
sg19
I2838970
sg20
S'5404.96014046'
p1183
sg22
F0.70967741935483875
sbasg26
I00
sg27
I00
sg28
I2838258
sg20
S'5405.4127628'
p1184
sba(igraph
Edge
p1185
(dp1186
g7
I1
sg8
I00
sg9
I5
sg10
(lp1187
g1181
a(igraph
Vertex
p1188
(dp1189
g14
F0.91666666666666652
sg8
I00
sg15
g16
sg17
F121.83870967741939
sg18
F-405.33333333333314
sg19
I2838971
sg20
S'5404.96153617'
p1190
sg22
F0.70967741935483875
sbasg26
I00
sg27
I00
sg28
I2838259
sg20
S'5405.41641913'
p1191
sba(igraph
Edge
p1192
(dp1193
g7
I1
sg8
I00
sg9
I5
sg10
(lp1194
g1188
a(igraph
Vertex
p1195
(dp1196
g14
F1.0
sg8
I00
sg15
g16
sg17
F121.83870967741939
sg18
F-481.0
sg19
I2838972
sg20
S'5404.96294976'
p1197
sg22
F0.70967741935483875
sbasg26
I00
sg27
I00
sg28
I2838260
sg20
S'5405.42006316'
p1198
sba(igraph
Edge
p1199
(dp1200
g7
I1
sg8
I00
sg9
I5
sg10
(lp1201
g1195
ag1115
asg26
I00
sg27
I00
sg28
I2838261
sg20
S'5405.42386979'
p1202
sba(igraph
Edge
p1203
(dp1204
g7
I1
sg8
I00
sg9
I5
sg10
(lp1205
(igraph
Vertex
p1206
(dp1207
g14
F0.0
sg8
I00
sg15
g16
sg17
F158.74193548387098
sg18
F427.0
sg19
I2838973
sg20
S'5404.96442397'
p1208
sg22
F0.76881720430107525
sba(igraph
Vertex
p1209
(dp1210
g14
F0.083333333333333315
sg8
I00
sg15
g16
sg17
F158.74193548387098
sg18
F351.33333333333337
sg19
I2838974
sg20
S'5404.96592947'
p1211
sg22
F0.76881720430107525
sbasg26
I00
sg27
I00
sg28
I2838262
sg20
S'5405.42756607'
p1212
sba(igraph
Edge
p1213
(dp1214
g7
I1
sg8
I00
sg9
I5
sg10
(lp1215
g1209
a(igraph
Vertex
p1216
(dp1217
g14
F0.16666666666666669
sg8
I00
sg15
g16
sg17
F158.74193548387098
sg18
F275.66666666666663
sg19
I2838975
sg20
S'5404.96741206'
p1218
sg22
F0.76881720430107525
sbasg26
I00
sg27
I00
sg28
I2838263
sg20
S'5405.43126766'
p1219
sba(igraph
Edge
p1220
(dp1221
g7
I1
sg8
I00
sg9
I5
sg10
(lp1222
g1216
a(igraph
Vertex
p1223
(dp1224
g14
F0.25
sg8
I00
sg15
g16
sg17
F158.74193548387098
sg18
F200.0
sg19
I2838976
sg20
S'5404.96886001'
p1225
sg22
F0.76881720430107525
sbasg26
I00
sg27
I00
sg28
I2838264
sg20
S'5405.43505557'
p1226
sba(igraph
Edge
p1227
(dp1228
g7
I1
sg8
I00
sg9
I5
sg10
(lp1229
g1223
a(igraph
Vertex
p1230
(dp1231
g14
F0.33333333333333331
sg8
I00
sg15
g16
sg17
F158.74193548387098
sg18
F124.33333333333337
sg19
I2838977
sg20
S'5404.97030852'
p1232
sg22
F0.76881720430107525
sbasg26
I00
sg27
I00
sg28
I2838265
sg20
S'5405.43880521'
p1233
sba(igraph
Edge
p1234
(dp1235
g7
I1
sg8
I00
sg9
I5
sg10
(lp1236
g1230
a(igraph
Vertex
p1237
(dp1238
g14
F0.41666666666666663
sg8
I00
sg15
g16
sg17
F158.74193548387098
sg18
F48.666666666666686
sg19
I2838978
sg20
S'5404.97177239'
p1239
sg22
F0.76881720430107525
sbasg26
I00
sg27
I00
sg28
I2838266
sg20
S'5405.44257077'
p1240
sba(igraph
Edge
p1241
(dp1242
g7
I1
sg8
I00
sg9
I5
sg10
(lp1243
g1237
a(igraph
Vertex
p1244
(dp1245
g14
F0.49999999999999994
sg8
I00
sg15
g16
sg17
F158.74193548387098
sg18
F-26.999999999999943
sg19
I2838979
sg20
S'5404.9732452'
p1246
sg22
F0.76881720430107525
sbasg26
I00
sg27
I00
sg28
I2838267
sg20
S'5405.44635198'
p1247
sba(igraph
Edge
p1248
(dp1249
g7
I1
sg8
I00
sg9
I5
sg10
(lp1250
g1244
a(igraph
Vertex
p1251
(dp1252
g14
F0.58333333333333326
sg8
I00
sg15
g16
sg17
F158.74193548387098
sg18
F-102.66666666666663
sg19
I2838980
sg20
S'5404.97471159'
p1253
sg22
F0.76881720430107525
sbasg26
I00
sg27
I00
sg28
I2838268
sg20
S'5405.4501913'
p1254
sba(igraph
Edge
p1255
(dp1256
g7
I1
sg8
I00
sg9
I5
sg10
(lp1257
g1251
a(igraph
Vertex
p1258
(dp1259
g14
F0.66666666666666652
sg8
I00
sg15
g16
sg17
F158.74193548387098
sg18
F-178.33333333333314
sg19
I2838981
sg20
S'5404.97619195'
p1260
sg22
F0.76881720430107525
sbasg26
I00
sg27
I00
sg28
I2838269
sg20
S'5405.45407894'
p1261
sba(igraph
Edge
p1262
(dp1263
g7
I1
sg8
I00
sg9
I5
sg10
(lp1264
g1258
a(igraph
Vertex
p1265
(dp1266
g14
F0.74999999999999989
sg8
I00
sg15
g16
sg17
F158.74193548387098
sg18
F-253.99999999999989
sg19
I2838982
sg20
S'5404.97767649'
p1267
sg22
F0.76881720430107525
sbasg26
I00
sg27
I00
sg28
I2838270
sg20
S'5405.45794172'
p1268
sba(igraph
Edge
p1269
(dp1270
g7
I1
sg8
I00
sg9
I5
sg10
(lp1271
g1265
a(igraph
Vertex
p1272
(dp1273
g14
F0.83333333333333337
sg8
I00
sg15
I0
sg17
F158.74193548387098
sg18
F-329.66666666666674
sg19
I2838983
sg20
S'5404.9791859'
p1274
sg22
F0.76881720430107525
sbasg26
I00
sg27
I00
sg28
I2838271
sg20
S'5405.46180255'
p1275
sba(igraph
Edge
p1276
(dp1277
g7
I1
sg8
I00
sg9
I5
sg10
(lp1278
g1272
a(igraph
Vertex
p1279
(dp1280
g14
F0.91666666666666652
sg8
I00
sg15
g16
sg17
F158.74193548387098
sg18
F-405.33333333333314
sg19
I2838985
sg20
S'5404.98078946'
p1281
sg22
F0.76881720430107525
sbasg26
I00
sg27
I00
sg28
I2838272
sg20
S'5405.46573824'
p1282
sba(igraph
Edge
p1283
(dp1284
g7
I1
sg8
I00
sg9
I5
sg10
(lp1285
g1279
a(igraph
Vertex
p1286
(dp1287
g14
F1.0
sg8
I00
sg15
g16
sg17
F158.74193548387098
sg18
F-481.0
sg19
I2838986
sg20
S'5404.98233044'
p1288
sg22
F0.76881720430107525
sbasg26
I00
sg27
I00
sg28
I2838273
sg20
S'5405.46964768'
p1289
sba(igraph
Edge
p1290
(dp1291
g7
I1
sg8
I00
sg9
I5
sg10
(lp1292
g1286
ag1206
asg26
I00
sg27
I00
sg28
I2838274
sg20
S'5405.47364511'
p1293
sba(igraph
Edge
p1294
(dp1295
g7
I1
sg8
I00
sg9
I5
sg10
(lp1296
(igraph
Vertex
p1297
(dp1298
g14
F0.0
sg8
I00
sg15
g16
sg17
F195.64516129032256
sg18
F427.0
sg19
I2838987
sg20
S'5404.98394237'
p1299
sg22
F0.82795698924731187
sba(igraph
Vertex
p1300
(dp1301
g14
F0.083333333333333315
sg8
I00
sg15
g16
sg17
F195.64516129032256
sg18
F351.33333333333337
sg19
I2838988
sg20
S'5404.98549788'
p1302
sg22
F0.82795698924731187
sbasg26
I00
sg27
I00
sg28
I2838275
sg20
S'5405.47778782'
p1303
sba(igraph
Edge
p1304
(dp1305
g7
I1
sg8
I00
sg9
I5
sg10
(lp1306
g1300
a(igraph
Vertex
p1307
(dp1308
g14
F0.16666666666666669
sg8
I00
sg15
g16
sg17
F195.64516129032256
sg18
F275.66666666666663
sg19
I2838989
sg20
S'5404.98705003'
p1309
sg22
F0.82795698924731187
sbasg26
I00
sg27
I00
sg28
I2838276
sg20
S'5405.48183917'
p1310
sba(igraph
Edge
p1311
(dp1312
g7
I1
sg8
I00
sg9
I5
sg10
(lp1313
g1307
a(igraph
Vertex
p1314
(dp1315
g14
F0.25
sg8
I00
sg15
g16
sg17
F195.64516129032256
sg18
F200.0
sg19
I2838990
sg20
S'5404.98859827'
p1316
sg22
F0.82795698924731187
sbasg26
I00
sg27
I00
sg28
I2838277
sg20
S'5405.48591706'
p1317
sba(igraph
Edge
p1318
(dp1319
g7
I1
sg8
I00
sg9
I5
sg10
(lp1320
g1314
a(igraph
Vertex
p1321
(dp1322
g14
F0.33333333333333331
sg8
I00
sg15
g16
sg17
F195.64516129032256
sg18
F124.33333333333337
sg19
I2838991
sg20
S'5404.99020434'
p1323
sg22
F0.82795698924731187
sbasg26
I00
sg27
I00
sg28
I2838278
sg20
S'5405.4899754'
p1324
sba(igraph
Edge
p1325
(dp1326
g7
I1
sg8
I00
sg9
I5
sg10
(lp1327
g1321
a(igraph
Vertex
p1328
(dp1329
g14
F0.41666666666666663
sg8
I00
sg15
g16
sg17
F195.64516129032256
sg18
F48.666666666666686
sg19
I2838992
sg20
S'5404.99182885'
p1330
sg22
F0.82795698924731187
sbasg26
I00
sg27
I00
sg28
I2838279
sg20
S'5405.49402452'
p1331
sba(igraph
Edge
p1332
(dp1333
g7
I1
sg8
I00
sg9
I5
sg10
(lp1334
g1328
a(igraph
Vertex
p1335
(dp1336
g14
F0.49999999999999994
sg8
I00
sg15
g16
sg17
F195.64516129032256
sg18
F-26.999999999999943
sg19
I2838993
sg20
S'5404.99343101'
p1337
sg22
F0.82795698924731187
sbasg26
I00
sg27
I00
sg28
I2838280
sg20
S'5405.49809599'
p1338
sba(igraph
Edge
p1339
(dp1340
g7
I1
sg8
I00
sg9
I5
sg10
(lp1341
g1335
a(igraph
Vertex
p1342
(dp1343
g14
F0.58333333333333326
sg8
I00
sg15
g16
sg17
F195.64516129032256
sg18
F-102.66666666666663
sg19
I2838994
sg20
S'5404.99503764'
p1344
sg22
F0.82795698924731187
sbasg26
I00
sg27
I00
sg28
I2838281
sg20
S'5405.50218282'
p1345
sba(igraph
Edge
p1346
(dp1347
g7
I1
sg8
I00
sg9
I5
sg10
(lp1348
g1342
a(igraph
Vertex
p1349
(dp1350
g14
F0.66666666666666652
sg8
I00
sg15
g16
sg17
F195.64516129032256
sg18
F-178.33333333333314
sg19
I2838995
sg20
S'5404.99664622'
p1351
sg22
F0.82795698924731187
sbasg26
I00
sg27
I00
sg28
I2838282
sg20
S'5405.50635011'
p1352
sba(igraph
Edge
p1353
(dp1354
g7
I1
sg8
I00
sg9
I5
sg10
(lp1355
g1349
a(igraph
Vertex
p1356
(dp1357
g14
F0.74999999999999989
sg8
I00
sg15
g16
sg17
F195.64516129032256
sg18
F-253.99999999999989
sg19
I2838996
sg20
S'5404.9982643'
p1358
sg22
F0.82795698924731187
sbasg26
I00
sg27
I00
sg28
I2838283
sg20
S'5405.51049393'
p1359
sba(igraph
Edge
p1360
(dp1361
g7
I1
sg8
I00
sg9
I5
sg10
(lp1362
g1356
a(igraph
Vertex
p1363
(dp1364
g14
F0.83333333333333337
sg8
I00
sg15
g16
sg17
F195.64516129032256
sg18
F-329.66666666666674
sg19
I2838997
sg20
S'5404.99992066'
p1365
sg22
F0.82795698924731187
sbasg26
I00
sg27
I00
sg28
I2838284
sg20
S'5405.5147062'
p1366
sba(igraph
Edge
p1367
(dp1368
g7
I1
sg8
I00
sg9
I5
sg10
(lp1369
g1363
a(igraph
Vertex
p1370
(dp1371
g14
F0.91666666666666652
sg8
I00
sg15
g16
sg17
F195.64516129032256
sg18
F-405.33333333333314
sg19
I2838998
sg20
S'5405.00162646'
p1372
sg22
F0.82795698924731187
sbasg26
I00
sg27
I00
sg28
I2838285
sg20
S'5405.51908553'
p1373
sba(igraph
Edge
p1374
(dp1375
g7
I1
sg8
I00
sg9
I5
sg10
(lp1376
g1370
a(igraph
Vertex
p1377
(dp1378
g14
F1.0
sg8
I00
sg15
g16
sg17
F195.64516129032256
sg18
F-481.0
sg19
I2838999
sg20
S'5405.00328086'
p1379
sg22
F0.82795698924731187
sbasg26
I00
sg27
I00
sg28
I2838286
sg20
S'5405.52336009'
p1380
sba(igraph
Edge
p1381
(dp1382
g7
I1
sg8
I00
sg9
I5
sg10
(lp1383
g1377
ag1297
asg26
I00
sg27
I00
sg28
I2838287
sg20
S'5405.52786206'
p1384
sba(igraph
Edge
p1385
(dp1386
g7
I1
sg8
I00
sg9
I5
sg10
(lp1387
(igraph
Vertex
p1388
(dp1389
g14
F0.0
sg8
I00
sg15
g16
sg17
F232.54838709677426
sg18
F427.0
sg19
I2839000
sg20
S'5405.00492996'
p1390
sg22
F0.88709677419354849
sba(igraph
Vertex
p1391
(dp1392
g14
F0.083333333333333315
sg8
I00
sg15
g16
sg17
F232.54838709677426
sg18
F351.33333333333337
sg19
I2839001
sg20
S'5405.00658938'
p1393
sg22
F0.88709677419354849
sbasg26
I00
sg27
I00
sg28
I2838288
sg20
S'5405.53216233'
p1394
sba(igraph
Edge
p1395
(dp1396
g7
I1
sg8
I00
sg9
I5
sg10
(lp1397
g1391
a(igraph
Vertex
p1398
(dp1399
g14
F0.16666666666666669
sg8
I00
sg15
g16
sg17
F232.54838709677426
sg18
F275.66666666666663
sg19
I2839002
sg20
S'5405.00825775'
p1400
sg22
F0.88709677419354849
sbasg26
I00
sg27
I00
sg28
I2838289
sg20
S'5405.53652713'
p1401
sba(igraph
Edge
p1402
(dp1403
g7
I1
sg8
I00
sg9
I5
sg10
(lp1404
g1398
a(igraph
Vertex
p1405
(dp1406
g14
F0.25
sg8
I00
sg15
g16
sg17
F232.54838709677426
sg18
F200.0
sg19
I2839003
sg20
S'5405.00995434'
p1407
sg22
F0.88709677419354849
sbasg26
I00
sg27
I00
sg28
I2838290
sg20
S'5405.54088271'
p1408
sba(igraph
Edge
p1409
(dp1410
g7
I1
sg8
I00
sg9
I5
sg10
(lp1411
g1405
a(igraph
Vertex
p1412
(dp1413
g14
F0.33333333333333331
sg8
I00
sg15
g16
sg17
F232.54838709677426
sg18
F124.33333333333337
sg19
I2839004
sg20
S'5405.01171294'
p1414
sg22
F0.88709677419354849
sbasg26
I00
sg27
I00
sg28
I2838291
sg20
S'5405.54539138'
p1415
sba(igraph
Edge
p1416
(dp1417
g7
I1
sg8
I00
sg9
I5
sg10
(lp1418
g1412
a(igraph
Vertex
p1419
(dp1420
g14
F0.41666666666666663
sg8
I00
sg15
g16
sg17
F232.54838709677426
sg18
F48.666666666666686
sg19
I2839005
sg20
S'5405.0134816'
p1421
sg22
F0.88709677419354849
sbasg26
I00
sg27
I00
sg28
I2838292
sg20
S'5405.54985312'
p1422
sba(igraph
Edge
p1423
(dp1424
g7
I1
sg8
I00
sg9
I5
sg10
(lp1425
g1419
a(igraph
Vertex
p1426
(dp1427
g14
F0.49999999999999994
sg8
I00
sg15
g16
sg17
F232.54838709677426
sg18
F-26.999999999999943
sg19
I2839006
sg20
S'5405.0153053'
p1428
sg22
F0.88709677419354849
sbasg26
I00
sg27
I00
sg28
I2838293
sg20
S'5405.55436152'
p1429
sba(igraph
Edge
p1430
(dp1431
g7
I1
sg8
I00
sg9
I5
sg10
(lp1432
g1426
a(igraph
Vertex
p1433
(dp1434
g14
F0.58333333333333326
sg8
I00
sg15
g16
sg17
F232.54838709677426
sg18
F-102.66666666666663
sg19
I2839007
sg20
S'5405.01718459'
p1435
sg22
F0.88709677419354849
sbasg26
I00
sg27
I00
sg28
I2838294
sg20
S'5405.55889031'
p1436
sba(igraph
Edge
p1437
(dp1438
g7
I1
sg8
I00
sg9
I5
sg10
(lp1439
g1433
a(igraph
Vertex
p1440
(dp1441
g14
F0.66666666666666652
sg8
I00
sg15
g16
sg17
F232.54838709677426
sg18
F-178.33333333333314
sg19
I2839008
sg20
S'5405.01895744'
p1442
sg22
F0.88709677419354849
sbasg26
I00
sg27
I00
sg28
I2838295
sg20
S'5405.56335568'
p1443
sba(igraph
Edge
p1444
(dp1445
g7
I1
sg8
I00
sg9
I5
sg10
(lp1446
g1440
a(igraph
Vertex
p1447
(dp1448
g14
F0.74999999999999989
sg8
I00
sg15
g16
sg17
F232.54838709677426
sg18
F-253.99999999999989
sg19
I2839009
sg20
S'5405.02074035'
p1449
sg22
F0.88709677419354849
sbasg26
I00
sg27
I00
sg28
I2838296
sg20
S'5405.56782831'
p1450
sba(igraph
Edge
p1451
(dp1452
g7
I1
sg8
I00
sg9
I5
sg10
(lp1453
g1447
a(igraph
Vertex
p1454
(dp1455
g14
F0.83333333333333337
sg8
I00
sg15
g16
sg17
F232.54838709677426
sg18
F-329.66666666666674
sg19
I2839010
sg20
S'5405.02249085'
p1456
sg22
F0.88709677419354849
sbasg26
I00
sg27
I00
sg28
I2838297
sg20
S'5405.57238755'
p1457
sba(igraph
Edge
p1458
(dp1459
g7
I1
sg8
I00
sg9
I5
sg10
(lp1460
g1454
a(igraph
Vertex
p1461
(dp1462
g14
F0.91666666666666652
sg8
I00
sg15
I0
sg17
F232.54838709677426
sg18
F-405.33333333333314
sg19
I2839011
sg20
S'5405.02427236'
p1463
sg22
F0.88709677419354849
sbasg26
I00
sg27
I00
sg28
I2838298
sg20
S'5405.57694232'
p1464
sba(igraph
Edge
p1465
(dp1466
g7
I1
sg8
I00
sg9
I5
sg10
(lp1467
g1461
a(igraph
Vertex
p1468
(dp1469
g14
F1.0
sg8
I00
sg15
g16
sg17
F232.54838709677426
sg18
F-481.0
sg19
I2839013
sg20
S'5405.0260603'
p1470
sg22
F0.88709677419354849
sbasg26
I00
sg27
I00
sg28
I2838299
sg20
S'5405.5814915'
p1471
sba(igraph
Edge
p1472
(dp1473
g7
I1
sg8
I00
sg9
I5
sg10
(lp1474
g1468
ag1388
asg26
I00
sg27
I00
sg28
I2838300
sg20
S'5405.58600409'
p1475
sba(igraph
Edge
p1476
(dp1477
g7
I1
sg8
I00
sg9
I5
sg10
(lp1478
(igraph
Vertex
p1479
(dp1480
g14
F0.0
sg8
I00
sg15
g16
sg17
F269.45161290322585
sg18
F427.0
sg19
I2839014
sg20
S'5405.02790802'
p1481
sg22
F0.94623655913978499
sba(igraph
Vertex
p1482
(dp1483
g14
F0.083333333333333315
sg8
I00
sg15
g16
sg17
F269.45161290322585
sg18
F351.33333333333337
sg19
I2839015
sg20
S'5405.02985631'
p1484
sg22
F0.94623655913978499
sbasg26
I00
sg27
I00
sg28
I2838301
sg20
S'5405.59051863'
p1485
sba(igraph
Edge
p1486
(dp1487
g7
I1
sg8
I00
sg9
I5
sg10
(lp1488
g1482
a(igraph
Vertex
p1489
(dp1490
g14
F0.16666666666666669
sg8
I00
sg15
g16
sg17
F269.45161290322585
sg18
F275.66666666666663
sg19
I2839016
sg20
S'5405.03173085'
p1491
sg22
F0.94623655913978499
sbasg26
I00
sg27
I00
sg28
I2838302
sg20
S'5405.59520917'
p1492
sba(igraph
Edge
p1493
(dp1494
g7
I1
sg8
I00
sg9
I5
sg10
(lp1495
g1489
a(igraph
Vertex
p1496
(dp1497
g14
F0.25
sg8
I00
sg15
g16
sg17
F269.45161290322585
sg18
F200.0
sg19
I2839017
sg20
S'5405.0335822'
p1498
sg22
F0.94623655913978499
sbasg26
I00
sg27
I00
sg28
I2838303
sg20
S'5405.59983126'
p1499
sba(igraph
Edge
p1500
(dp1501
g7
I1
sg8
I00
sg9
I5
sg10
(lp1502
g1496
a(igraph
Vertex
p1503
(dp1504
g14
F0.33333333333333331
sg8
I00
sg15
g16
sg17
F269.45161290322585
sg18
F124.33333333333337
sg19
I2839018
sg20
S'5405.03546289'
p1505
sg22
F0.94623655913978499
sbasg26
I00
sg27
I00
sg28
I2838304
sg20
S'5405.60461455'
p1506
sba(igraph
Edge
p1507
(dp1508
g7
I1
sg8
I00
sg9
I5
sg10
(lp1509
g1503
a(igraph
Vertex
p1510
(dp1511
g14
F0.41666666666666663
sg8
I00
sg15
g16
sg17
F269.45161290322585
sg18
F48.666666666666686
sg19
I2839019
sg20
S'5405.03729049'
p1512
sg22
F0.94623655913978499
sbasg26
I00
sg27
I00
sg28
I2838305
sg20
S'5405.6092238'
p1513
sba(igraph
Edge
p1514
(dp1515
g7
I1
sg8
I00
sg9
I5
sg10
(lp1516
g1510
a(igraph
Vertex
p1517
(dp1518
g14
F0.49999999999999994
sg8
I00
sg15
g16
sg17
F269.45161290322585
sg18
F-26.999999999999943
sg19
I2839020
sg20
S'5405.03912341'
p1519
sg22
F0.94623655913978499
sbasg26
I00
sg27
I00
sg28
I2838306
sg20
S'5405.6139825'
p1520
sba(igraph
Edge
p1521
(dp1522
g7
I1
sg8
I00
sg9
I5
sg10
(lp1523
g1517
a(igraph
Vertex
p1524
(dp1525
g14
F0.58333333333333326
sg8
I00
sg15
g16
sg17
F269.45161290322585
sg18
F-102.66666666666663
sg19
I2839021
sg20
S'5405.04099907'
p1526
sg22
F0.94623655913978499
sbasg26
I00
sg27
I00
sg28
I2838307
sg20
S'5405.61904292'
p1527
sba(igraph
Edge
p1528
(dp1529
g7
I1
sg8
I00
sg9
I5
sg10
(lp1530
g1524
a(igraph
Vertex
p1531
(dp1532
g14
F0.66666666666666652
sg8
I00
sg15
g16
sg17
F269.45161290322585
sg18
F-178.33333333333314
sg19
I2839022
sg20
S'5405.04284874'
p1533
sg22
F0.94623655913978499
sbasg26
I00
sg27
I00
sg28
I2838308
sg20
S'5405.6238751'
p1534
sba(igraph
Edge
p1535
(dp1536
g7
I1
sg8
I00
sg9
I5
sg10
(lp1537
g1531
a(igraph
Vertex
p1538
(dp1539
g14
F0.74999999999999989
sg8
I00
sg15
g16
sg17
F269.45161290322585
sg18
F-253.99999999999989
sg19
I2839023
sg20
S'5405.04470736'
p1540
sg22
F0.94623655913978499
sbasg26
I00
sg27
I00
sg28
I2838309
sg20
S'5405.62867683'
p1541
sba(igraph
Edge
p1542
(dp1543
g7
I1
sg8
I00
sg9
I5
sg10
(lp1544
g1538
a(igraph
Vertex
p1545
(dp1546
g14
F0.83333333333333337
sg8
I00
sg15
g16
sg17
F269.45161290322585
sg18
F-329.66666666666674
sg19
I2839024
sg20
S'5405.046609'
p1547
sg22
F0.94623655913978499
sbasg26
I00
sg27
I00
sg28
I2838310
sg20
S'5405.63349001'
p1548
sba(igraph
Edge
p1549
(dp1550
g7
I1
sg8
I00
sg9
I5
sg10
(lp1551
g1545
a(igraph
Vertex
p1552
(dp1553
g14
F0.91666666666666652
sg8
I00
sg15
g16
sg17
F269.45161290322585
sg18
F-405.33333333333314
sg19
I2839025
sg20
S'5405.04861791'
p1554
sg22
F0.94623655913978499
sbasg26
I00
sg27
I00
sg28
I2838311
sg20
S'5405.6389488'
p1555
sba(igraph
Edge
p1556
(dp1557
g7
I1
sg8
I00
sg9
I5
sg10
(lp1558
g1552
a(igraph
Vertex
p1559
(dp1560
g14
F1.0
sg8
I00
sg15
g16
sg17
F269.45161290322585
sg18
F-481.0
sg19
I2839026
sg20
S'5405.05057207'
p1561
sg22
F0.94623655913978499
sbasg26
I00
sg27
I00
sg28
I2838312
sg20
S'5405.64416036'
p1562
sba(igraph
Edge
p1563
(dp1564
g7
I1
sg8
I00
sg9
I5
sg10
(lp1565
g1559
ag1479
asg26
I00
sg27
I00
sg28
I2838313
sg20
S'5405.64934482'
p1566
sba(igraph
Edge
p1567
(dp1568
g7
I1
sg8
I00
sg9
I5
sg10
(lp1569
(igraph
Vertex
p1570
(dp1571
g14
F0.0
sg8
I00
sg15
g16
sg17
F306.35483870967744
sg18
F427.0
sg19
I2839027
sg20
S'5405.05259858'
p1572
sg22
F1.0053763440860215
sba(igraph
Vertex
p1573
(dp1574
g14
F0.083333333333333315
sg8
I00
sg15
g16
sg17
F306.35483870967744
sg18
F351.33333333333337
sg19
I2839028
sg20
S'5405.05453486'
p1575
sg22
F1.0053763440860215
sbasg26
I00
sg27
I00
sg28
I2838314
sg20
S'5405.65471589'
p1576
sba(igraph
Edge
p1577
(dp1578
g7
I1
sg8
I00
sg9
I5
sg10
(lp1579
g1573
a(igraph
Vertex
p1580
(dp1581
g14
F0.16666666666666669
sg8
I00
sg15
g16
sg17
F306.35483870967744
sg18
F275.66666666666663
sg19
I2839029
sg20
S'5405.05650662'
p1582
sg22
F1.0053763440860215
sbasg26
I00
sg27
I00
sg28
I2838315
sg20
S'5405.6600378'
p1583
sba(igraph
Edge
p1584
(dp1585
g7
I1
sg8
I00
sg9
I5
sg10
(lp1586
g1580
a(igraph
Vertex
p1587
(dp1588
g14
F0.25
sg8
I00
sg15
g16
sg17
F306.35483870967744
sg18
F200.0
sg19
I2839030
sg20
S'5405.05851638'
p1589
sg22
F1.0053763440860215
sbasg26
I00
sg27
I00
sg28
I2838316
sg20
S'5405.66539742'
p1590
sba(igraph
Edge
p1591
(dp1592
g7
I1
sg8
I00
sg9
I5
sg10
(lp1593
g1587
a(igraph
Vertex
p1594
(dp1595
g14
F0.33333333333333331
sg8
I00
sg15
g16
sg17
F306.35483870967744
sg18
F124.33333333333337
sg19
I2839031
sg20
S'5405.06052054'
p1596
sg22
F1.0053763440860215
sbasg26
I00
sg27
I00
sg28
I2838317
sg20
S'5405.67070005'
p1597
sba(igraph
Edge
p1598
(dp1599
g7
I1
sg8
I00
sg9
I5
sg10
(lp1600
g1594
a(igraph
Vertex
p1601
(dp1602
g14
F0.41666666666666663
sg8
I00
sg15
g16
sg17
F306.35483870967744
sg18
F48.666666666666686
sg19
I2839032
sg20
S'5405.06246604'
p1603
sg22
F1.0053763440860215
sbasg26
I00
sg27
I00
sg28
I2838318
sg20
S'5405.67604989'
p1604
sba(igraph
Edge
p1605
(dp1606
g7
I1
sg8
I00
sg9
I5
sg10
(lp1607
g1601
a(igraph
Vertex
p1608
(dp1609
g14
F0.49999999999999994
sg8
I00
sg15
g16
sg17
F306.35483870967744
sg18
F-26.999999999999943
sg19
I2839033
sg20
S'5405.06444506'
p1610
sg22
F1.0053763440860215
sbasg26
I00
sg27
I00
sg28
I2838319
sg20
S'5405.68139331'
p1611
sba(igraph
Edge
p1612
(dp1613
g7
I1
sg8
I00
sg9
I5
sg10
(lp1614
g1608
a(igraph
Vertex
p1615
(dp1616
g14
F0.58333333333333326
sg8
I00
sg15
g16
sg17
F306.35483870967744
sg18
F-102.66666666666663
sg19
I2839034
sg20
S'5405.06643107'
p1617
sg22
F1.0053763440860215
sbasg26
I00
sg27
I00
sg28
I2838320
sg20
S'5405.68703816'
p1618
sba(igraph
Edge
p1619
(dp1620
g7
I1
sg8
I00
sg9
I5
sg10
(lp1621
g1615
a(igraph
Vertex
p1622
(dp1623
g14
F0.66666666666666652
sg8
I00
sg15
g16
sg17
F306.35483870967744
sg18
F-178.33333333333314
sg19
I2839035
sg20
S'5405.06844306'
p1624
sg22
F1.0053763440860215
sbasg26
I00
sg27
I00
sg28
I2838321
sg20
S'5405.69247768'
p1625
sba(igraph
Edge
p1626
(dp1627
g7
I1
sg8
I00
sg9
I5
sg10
(lp1628
g1622
a(igraph
Vertex
p1629
(dp1630
g14
F0.74999999999999989
sg8
I00
sg15
g16
sg17
F306.35483870967744
sg18
F-253.99999999999989
sg19
I2839036
sg20
S'5405.07046845'
p1631
sg22
F1.0053763440860215
sbasg26
I00
sg27
I00
sg28
I2838322
sg20
S'5405.69789512'
p1632
sba(igraph
Edge
p1633
(dp1634
g7
I1
sg8
I00
sg9
I5
sg10
(lp1635
g1629
a(igraph
Vertex
p1636
(dp1637
g14
F0.83333333333333337
sg8
I00
sg15
I0
sg17
F306.35483870967744
sg18
F-329.66666666666674
sg19
I2839037
sg20
S'5405.07250586'
p1638
sg22
F1.0053763440860215
sbasg26
I00
sg27
I00
sg28
I2838323
sg20
S'5405.70327234'
p1639
sba(igraph
Edge
p1640
(dp1641
g7
I1
sg8
I00
sg9
I5
sg10
(lp1642
g1636
a(igraph
Vertex
p1643
(dp1644
g14
F0.91666666666666652
sg8
I00
sg15
g16
sg17
F306.35483870967744
sg18
F-405.33333333333314
sg19
I2839039
sg20
S'5405.0745321'
p1645
sg22
F1.0053763440860215
sbasg26
I00
sg27
I00
sg28
I2838324
sg20
S'5405.70891161'
p1646
sba(igraph
Edge
p1647
(dp1648
g7
I1
sg8
I00
sg9
I5
sg10
(lp1649
g1643
a(igraph
Vertex
p1650
(dp1651
g14
F1.0
sg8
I00
sg15
I0
sg17
F306.35483870967744
sg18
F-481.0
sg19
I2839040
sg20
S'5405.07659633'
p1652
sg22
F1.0053763440860215
sbasg26
I00
sg27
I00
sg28
I2838325
sg20
S'5405.71432151'
p1653
sba(igraph
Edge
p1654
(dp1655
g7
I1
sg8
I00
sg9
I5
sg10
(lp1656
g1650
ag1570
asg26
I00
sg27
I00
sg28
I2838326
sg20
S'5405.71971326'
p1657
sba(igraph
Edge
p1658
(dp1659
g7
I1
sg8
I00
sg9
I5
sg10
(lp1660
g12
ag114
asg26
I00
sg27
I00
sg28
I2838327
sg20
S'5405.72508377'
p1661
sba(igraph
Edge
p1662
(dp1663
g7
I1
sg8
I00
sg9
I5
sg10
(lp1664
g23
ag124
asg26
I00
sg27
I00
sg28
I2838328
sg20
S'5405.73078813'
p1665
sba(igraph
Edge
p1666
(dp1667
g7
I1
sg8
I00
sg9
I5
sg10
(lp1668
g33
ag124
asg26
I00
sg27
I00
sg28
I2838329
sg20
S'5405.73628604'
p1669
sba(igraph
Edge
p1670
(dp1671
g7
I1
sg8
I00
sg9
I5
sg10
(lp1672
g40
ag138
asg26
I00
sg27
I00
sg28
I2838330
sg20
S'5405.74211443'
p1673
sba(igraph
Edge
p1674
(dp1675
g7
I1
sg8
I00
sg9
I5
sg10
(lp1676
g47
ag138
asg26
I00
sg27
I00
sg28
I2838331
sg20
S'5405.74771458'
p1677
sba(igraph
Edge
p1678
(dp1679
g7
I1
sg8
I00
sg9
I5
sg10
(lp1680
g54
ag152
asg26
I00
sg27
I00
sg28
I2838332
sg20
S'5405.754711'
p1681
sba(igraph
Edge
p1682
(dp1683
g7
I1
sg8
I00
sg9
I5
sg10
(lp1684
g61
ag152
asg26
I00
sg27
I00
sg28
I2838333
sg20
S'5405.76132749'
p1685
sba(igraph
Edge
p1686
(dp1687
g7
I1
sg8
I00
sg9
I5
sg10
(lp1688
g68
ag166
asg26
I00
sg27
I00
sg28
I2838334
sg20
S'5405.76831134'
p1689
sba(igraph
Edge
p1690
(dp1691
g7
I1
sg8
I00
sg9
I5
sg10
(lp1692
g75
ag166
asg26
I00
sg27
I00
sg28
I2838335
sg20
S'5405.77475601'
p1693
sba(igraph
Edge
p1694
(dp1695
g7
I1
sg8
I00
sg9
I5
sg10
(lp1696
g82
ag180
asg26
I00
sg27
I00
sg28
I2838336
sg20
S'5405.78131494'
p1697
sba(igraph
Edge
p1698
(dp1699
g7
I1
sg8
I00
sg9
I5
sg10
(lp1700
g89
ag180
asg26
I00
sg27
I00
sg28
I2838337
sg20
S'5405.7881985'
p1701
sba(igraph
Edge
p1702
(dp1703
g7
I1
sg8
I00
sg9
I5
sg10
(lp1704
g96
ag194
asg26
I00
sg27
I00
sg28
I2838338
sg20
S'5405.79445935'
p1705
sba(igraph
Edge
p1706
(dp1707
g7
I1
sg8
I00
sg9
I5
sg10
(lp1708
g103
ag194
asg26
I00
sg27
I00
sg28
I2838339
sg20
S'5405.8006512'
p1709
sba(igraph
Edge
p1710
(dp1711
g7
I1
sg8
I00
sg9
I5
sg10
(lp1712
g12
ag117
asg26
I00
sg27
I00
sg28
I2838340
sg20
S'5405.80681763'
p1713
sba(igraph
Edge
p1714
(dp1715
g7
I1
sg8
I00
sg9
I5
sg10
(lp1716
g23
ag117
asg26
I00
sg27
I00
sg28
I2838341
sg20
S'5405.81294773'
p1717
sba(igraph
Edge
p1718
(dp1719
g7
I1
sg8
I00
sg9
I5
sg10
(lp1720
g33
ag131
asg26
I00
sg27
I00
sg28
I2838342
sg20
S'5405.81881049'
p1721
sba(igraph
Edge
p1722
(dp1723
g7
I1
sg8
I00
sg9
I5
sg10
(lp1724
g40
ag131
asg26
I00
sg27
I00
sg28
I2838343
sg20
S'5405.82497301'
p1725
sba(igraph
Edge
p1726
(dp1727
g7
I1
sg8
I00
sg9
I5
sg10
(lp1728
g47
ag145
asg26
I00
sg27
I00
sg28
I2838344
sg20
S'5405.83134002'
p1729
sba(igraph
Edge
p1730
(dp1731
g7
I1
sg8
I00
sg9
I5
sg10
(lp1732
g54
ag145
asg26
I00
sg27
I00
sg28
I2838345
sg20
S'5405.83735642'
p1733
sba(igraph
Edge
p1734
(dp1735
g7
I1
sg8
I00
sg9
I5
sg10
(lp1736
g61
ag159
asg26
I00
sg27
I00
sg28
I2838346
sg20
S'5405.84339462'
p1737
sba(igraph
Edge
p1738
(dp1739
g7
I1
sg8
I00
sg9
I5
sg10
(lp1740
g68
ag159
asg26
I00
sg27
I00
sg28
I2838347
sg20
S'5405.8494046'
p1741
sba(igraph
Edge
p1742
(dp1743
g7
I1
sg8
I00
sg9
I5
sg10
(lp1744
g75
ag173
asg26
I00
sg27
I00
sg28
I2838348
sg20
S'5405.85540341'
p1745
sba(igraph
Edge
p1746
(dp1747
g7
I1
sg8
I00
sg9
I5
sg10
(lp1748
g82
ag173
asg26
I00
sg27
I00
sg28
I2838349
sg20
S'5405.86287922'
p1749
sba(igraph
Edge
p1750
(dp1751
g7
I1
sg8
I00
sg9
I5
sg10
(lp1752
g89
ag187
asg26
I00
sg27
I00
sg28
I2838350
sg20
S'5405.86904453'
p1753
sba(igraph
Edge
p1754
(dp1755
g7
I1
sg8
I00
sg9
I5
sg10
(lp1756
g96
ag187
asg26
I00
sg27
I00
sg28
I2838351
sg20
S'5405.87603452'
p1757
sba(igraph
Edge
p1758
(dp1759
g7
I1
sg8
I00
sg9
I5
sg10
(lp1760
g103
ag114
asg26
I00
sg27
I00
sg28
I2838352
sg20
S'5405.88322315'
p1761
sba(igraph
Edge
p1762
(dp1763
g7
I1
sg8
I00
sg9
I5
sg10
(lp1764
g12
ag1570
asg26
I00
sg27
I00
sg28
I2838353
sg20
S'5405.88980471'
p1765
sba(igraph
Edge
p1766
(dp1767
g7
I1
sg8
I00
sg9
I5
sg10
(lp1768
g23
ag1570
asg26
I00
sg27
I00
sg28
I2838354
sg20
S'5405.89724588'
p1769
sba(igraph
Edge
p1770
(dp1771
g7
I1
sg8
I00
sg9
I5
sg10
(lp1772
g33
ag1580
asg26
I00
sg27
I00
sg28
I2838355
sg20
S'5405.90427694'
p1773
sba(igraph
Edge
p1774
(dp1775
g7
I1
sg8
I00
sg9
I5
sg10
(lp1776
g40
ag1580
asg26
I00
sg27
I00
sg28
I2838356
sg20
S'5405.91110993'
p1777
sba(igraph
Edge
p1778
(dp1779
g7
I1
sg8
I00
sg9
I5
sg10
(lp1780
g47
ag1594
asg26
I00
sg27
I00
sg28
I2838357
sg20
S'5405.91794572'
p1781
sba(igraph
Edge
p1782
(dp1783
g7
I1
sg8
I00
sg9
I5
sg10
(lp1784
g54
ag1594
asg26
I00
sg27
I00
sg28
I2838358
sg20
S'5405.92426244'
p1785
sba(igraph
Edge
p1786
(dp1787
g7
I1
sg8
I00
sg9
I5
sg10
(lp1788
g61
ag1608
asg26
I00
sg27
I00
sg28
I2838359
sg20
S'5405.93162064'
p1789
sba(igraph
Edge
p1790
(dp1791
g7
I1
sg8
I00
sg9
I5
sg10
(lp1792
g68
ag1608
asg26
I00
sg27
I00
sg28
I2838360
sg20
S'5405.938186'
p1793
sba(igraph
Edge
p1794
(dp1795
g7
I1
sg8
I00
sg9
I5
sg10
(lp1796
g75
ag1622
asg26
I00
sg27
I00
sg28
I2838361
sg20
S'5405.94486478'
p1797
sba(igraph
Edge
p1798
(dp1799
g7
I1
sg8
I00
sg9
I5
sg10
(lp1800
g82
ag1622
asg26
I00
sg27
I00
sg28
I2838362
sg20
S'5405.95122509'
p1801
sba(igraph
Edge
p1802
(dp1803
g7
I1
sg8
I00
sg9
I5
sg10
(lp1804
g89
ag1636
asg26
I00
sg27
I00
sg28
I2838363
sg20
S'5405.95833549'
p1805
sba(igraph
Edge
p1806
(dp1807
g7
I1
sg8
I00
sg9
I5
sg10
(lp1808
g96
ag1636
asg26
I00
sg27
I00
sg28
I2838364
sg20
S'5405.96652061'
p1809
sba(igraph
Edge
p1810
(dp1811
g7
I1
sg8
I00
sg9
I5
sg10
(lp1812
g103
ag1650
asg26
I00
sg27
I00
sg28
I2838365
sg20
S'5405.97297701'
p1813
sba(igraph
Edge
p1814
(dp1815
g7
I1
sg8
I00
sg9
I5
sg10
(lp1816
g12
ag1650
asg26
I00
sg27
I00
sg28
I2838366
sg20
S'5405.97977704'
p1817
sba(igraph
Edge
p1818
(dp1819
g7
I1
sg8
I00
sg9
I5
sg10
(lp1820
g23
ag1573
asg26
I00
sg27
I00
sg28
I2838367
sg20
S'5405.98621249'
p1821
sba(igraph
Edge
p1822
(dp1823
g7
I1
sg8
I00
sg9
I5
sg10
(lp1824
g33
ag1573
asg26
I00
sg27
I00
sg28
I2838368
sg20
S'5405.99270634'
p1825
sba(igraph
Edge
p1826
(dp1827
g7
I1
sg8
I00
sg9
I5
sg10
(lp1828
g40
ag1587
asg26
I00
sg27
I00
sg28
I2838369
sg20
S'5405.99915269'
p1829
sba(igraph
Edge
p1830
(dp1831
g7
I1
sg8
I00
sg9
I5
sg10
(lp1832
g47
ag1587
asg26
I00
sg27
I00
sg28
I2838370
sg20
S'5406.00652094'
p1833
sba(igraph
Edge
p1834
(dp1835
g7
I1
sg8
I00
sg9
I5
sg10
(lp1836
g54
ag1601
asg26
I00
sg27
I00
sg28
I2838371
sg20
S'5406.01457001'
p1837
sba(igraph
Edge
p1838
(dp1839
g7
I1
sg8
I00
sg9
I5
sg10
(lp1840
g61
ag1601
asg26
I00
sg27
I00
sg28
I2838372
sg20
S'5406.02271238'
p1841
sba(igraph
Edge
p1842
(dp1843
g7
I1
sg8
I00
sg9
I5
sg10
(lp1844
g68
ag1615
asg26
I00
sg27
I00
sg28
I2838373
sg20
S'5406.03073491'
p1845
sba(igraph
Edge
p1846
(dp1847
g7
I1
sg8
I00
sg9
I5
sg10
(lp1848
g75
ag1615
asg26
I00
sg27
I00
sg28
I2838374
sg20
S'5406.03877951'
p1849
sba(igraph
Edge
p1850
(dp1851
g7
I1
sg8
I00
sg9
I5
sg10
(lp1852
g82
ag1629
asg26
I00
sg27
I00
sg28
I2838375
sg20
S'5406.04649837'
p1853
sba(igraph
Edge
p1854
(dp1855
g7
I1
sg8
I00
sg9
I5
sg10
(lp1856
g89
ag1629
asg26
I00
sg27
I00
sg28
I2838376
sg20
S'5406.05464298'
p1857
sba(igraph
Edge
p1858
(dp1859
g7
I1
sg8
I00
sg9
I5
sg10
(lp1860
g96
ag1643
asg26
I00
sg27
I00
sg28
I2838377
sg20
S'5406.06195173'
p1861
sba(igraph
Edge
p1862
(dp1863
g7
I1
sg8
I00
sg9
I5
sg10
(lp1864
g103
ag1643
asg26
I00
sg27
I00
sg28
I2838378
sg20
S'5406.06906269'
p1865
sba(igraph
Edge
p1866
(dp1867
g7
I1
sg8
I00
sg9
I5
sg10
(lp1868
g114
ag205
asg26
I00
sg27
I00
sg28
I2838379
sg20
S'5406.07625355'
p1869
sba(igraph
Edge
p1870
(dp1871
g7
I1
sg8
I00
sg9
I5
sg10
(lp1872
g117
ag215
asg26
I00
sg27
I00
sg28
I2838380
sg20
S'5406.08380087'
p1873
sba(igraph
Edge
p1874
(dp1875
g7
I1
sg8
I00
sg9
I5
sg10
(lp1876
g124
ag215
asg26
I00
sg27
I00
sg28
I2838381
sg20
S'5406.09086853'
p1877
sba(igraph
Edge
p1878
(dp1879
g7
I1
sg8
I00
sg9
I5
sg10
(lp1880
g131
ag229
asg26
I00
sg27
I00
sg28
I2838382
sg20
S'5406.09763839'
p1881
sba(igraph
Edge
p1882
(dp1883
g7
I1
sg8
I00
sg9
I5
sg10
(lp1884
g138
ag229
asg26
I00
sg27
I00
sg28
I2838383
sg20
S'5406.10508626'
p1885
sba(igraph
Edge
p1886
(dp1887
g7
I1
sg8
I00
sg9
I5
sg10
(lp1888
g145
ag243
asg26
I00
sg27
I00
sg28
I2838384
sg20
S'5406.11192624'
p1889
sba(igraph
Edge
p1890
(dp1891
g7
I1
sg8
I00
sg9
I5
sg10
(lp1892
g152
ag243
asg26
I00
sg27
I00
sg28
I2838385
sg20
S'5406.11891595'
p1893
sba(igraph
Edge
p1894
(dp1895
g7
I1
sg8
I00
sg9
I5
sg10
(lp1896
g159
ag257
asg26
I00
sg27
I00
sg28
I2838386
sg20
S'5406.12662'
p1897
sba(igraph
Edge
p1898
(dp1899
g7
I1
sg8
I00
sg9
I5
sg10
(lp1900
g166
ag257
asg26
I00
sg27
I00
sg28
I2838387
sg20
S'5406.13342869'
p1901
sba(igraph
Edge
p1902
(dp1903
g7
I1
sg8
I00
sg9
I5
sg10
(lp1904
g173
ag271
asg26
I00
sg27
I00
sg28
I2838388
sg20
S'5406.14214348'
p1905
sba(igraph
Edge
p1906
(dp1907
g7
I1
sg8
I00
sg9
I5
sg10
(lp1908
g180
ag271
asg26
I00
sg27
I00
sg28
I2838389
sg20
S'5406.15040124'
p1909
sba(igraph
Edge
p1910
(dp1911
g7
I1
sg8
I00
sg9
I5
sg10
(lp1912
g187
ag285
asg26
I00
sg27
I00
sg28
I2838390
sg20
S'5406.15876906'
p1913
sba(igraph
Edge
p1914
(dp1915
g7
I1
sg8
I00
sg9
I5
sg10
(lp1916
g194
ag285
asg26
I00
sg27
I00
sg28
I2838391
sg20
S'5406.16716147'
p1917
sba(igraph
Edge
p1918
(dp1919
g7
I1
sg8
I00
sg9
I5
sg10
(lp1920
g114
ag208
asg26
I00
sg27
I00
sg28
I2838392
sg20
S'5406.17583576'
p1921
sba(igraph
Edge
p1922
(dp1923
g7
I1
sg8
I00
sg9
I5
sg10
(lp1924
g117
ag208
asg26
I00
sg27
I00
sg28
I2838393
sg20
S'5406.18542217'
p1925
sba(igraph
Edge
p1926
(dp1927
g7
I1
sg8
I00
sg9
I5
sg10
(lp1928
g124
ag222
asg26
I00
sg27
I00
sg28
I2838394
sg20
S'5406.19391627'
p1929
sba(igraph
Edge
p1930
(dp1931
g7
I1
sg8
I00
sg9
I5
sg10
(lp1932
g131
ag222
asg26
I00
sg27
I00
sg28
I2838395
sg20
S'5406.20173402'
p1933
sba(igraph
Edge
p1934
(dp1935
g7
I1
sg8
I00
sg9
I5
sg10
(lp1936
g138
ag236
asg26
I00
sg27
I00
sg28
I2838396
sg20
S'5406.20884526'
p1937
sba(igraph
Edge
p1938
(dp1939
g7
I1
sg8
I00
sg9
I5
sg10
(lp1940
g145
ag236
asg26
I00
sg27
I00
sg28
I2838397
sg20
S'5406.21583469'
p1941
sba(igraph
Edge
p1942
(dp1943
g7
I1
sg8
I00
sg9
I5
sg10
(lp1944
g152
ag250
asg26
I00
sg27
I00
sg28
I2838398
sg20
S'5406.22256795'
p1945
sba(igraph
Edge
p1946
(dp1947
g7
I1
sg8
I00
sg9
I5
sg10
(lp1948
g159
ag250
asg26
I00
sg27
I00
sg28
I2838399
sg20
S'5406.22919924'
p1949
sba(igraph
Edge
p1950
(dp1951
g7
I1
sg8
I00
sg9
I5
sg10
(lp1952
g166
ag264
asg26
I00
sg27
I00
sg28
I2838400
sg20
S'5406.2360015'
p1953
sba(igraph
Edge
p1954
(dp1955
g7
I1
sg8
I00
sg9
I5
sg10
(lp1956
g173
ag264
asg26
I00
sg27
I00
sg28
I2838401
sg20
S'5406.24275627'
p1957
sba(igraph
Edge
p1958
(dp1959
g7
I1
sg8
I00
sg9
I5
sg10
(lp1960
g180
ag278
asg26
I00
sg27
I00
sg28
I2838402
sg20
S'5406.24986891'
p1961
sba(igraph
Edge
p1962
(dp1963
g7
I1
sg8
I00
sg9
I5
sg10
(lp1964
g187
ag278
asg26
I00
sg27
I00
sg28
I2838403
sg20
S'5406.25676643'
p1965
sba(igraph
Edge
p1966
(dp1967
g7
I1
sg8
I00
sg9
I5
sg10
(lp1968
g194
ag205
asg26
I00
sg27
I00
sg28
I2838404
sg20
S'5406.26375615'
p1969
sba(igraph
Edge
p1970
(dp1971
g7
I1
sg8
I00
sg9
I5
sg10
(lp1972
g205
ag296
asg26
I00
sg27
I00
sg28
I2838405
sg20
S'5406.27073664'
p1973
sba(igraph
Edge
p1974
(dp1975
g7
I1
sg8
I00
sg9
I5
sg10
(lp1976
g208
ag306
asg26
I00
sg27
I00
sg28
I2838406
sg20
S'5406.2776188'
p1977
sba(igraph
Edge
p1978
(dp1979
g7
I1
sg8
I00
sg9
I5
sg10
(lp1980
g215
ag306
asg26
I00
sg27
I00
sg28
I2838407
sg20
S'5406.28448895'
p1981
sba(igraph
Edge
p1982
(dp1983
g7
I1
sg8
I00
sg9
I5
sg10
(lp1984
g222
ag320
asg26
I00
sg27
I00
sg28
I2838408
sg20
S'5406.29137502'
p1985
sba(igraph
Edge
p1986
(dp1987
g7
I1
sg8
I00
sg9
I5
sg10
(lp1988
g229
ag320
asg26
I00
sg27
I00
sg28
I2838409
sg20
S'5406.29837619'
p1989
sba(igraph
Edge
p1990
(dp1991
g7
I1
sg8
I00
sg9
I5
sg10
(lp1992
g236
ag334
asg26
I00
sg27
I00
sg28
I2838410
sg20
S'5406.30537904'
p1993
sba(igraph
Edge
p1994
(dp1995
g7
I1
sg8
I00
sg9
I5
sg10
(lp1996
g243
ag334
asg26
I00
sg27
I00
sg28
I2838411
sg20
S'5406.31248553'
p1997
sba(igraph
Edge
p1998
(dp1999
g7
I1
sg8
I00
sg9
I5
sg10
(lp2000
g250
ag348
asg26
I00
sg27
I00
sg28
I2838412
sg20
S'5406.31945261'
p2001
sba(igraph
Edge
p2002
(dp2003
g7
I1
sg8
I00
sg9
I5
sg10
(lp2004
g257
ag348
asg26
I00
sg27
I00
sg28
I2838413
sg20
S'5406.32645238'
p2005
sba(igraph
Edge
p2006
(dp2007
g7
I1
sg8
I00
sg9
I5
sg10
(lp2008
g264
ag362
asg26
I00
sg27
I00
sg28
I2838414
sg20
S'5406.33355217'
p2009
sba(igraph
Edge
p2010
(dp2011
g7
I1
sg8
I00
sg9
I5
sg10
(lp2012
g271
ag362
asg26
I00
sg27
I00
sg28
I2838415
sg20
S'5406.34089612'
p2013
sba(igraph
Edge
p2014
(dp2015
g7
I1
sg8
I00
sg9
I5
sg10
(lp2016
g278
ag376
asg26
I00
sg27
I00
sg28
I2838416
sg20
S'5406.34808363'
p2017
sba(igraph
Edge
p2018
(dp2019
g7
I1
sg8
I00
sg9
I5
sg10
(lp2020
g285
ag376
asg26
I00
sg27
I00
sg28
I2838417
sg20
S'5406.35540187'
p2021
sba(igraph
Edge
p2022
(dp2023
g7
I1
sg8
I00
sg9
I5
sg10
(lp2024
g205
ag299
asg26
I00
sg27
I00
sg28
I2838418
sg20
S'5406.36258072'
p2025
sba(igraph
Edge
p2026
(dp2027
g7
I1
sg8
I00
sg9
I5
sg10
(lp2028
g208
ag299
asg26
I00
sg27
I00
sg28
I2838419
sg20
S'5406.36977381'
p2029
sba(igraph
Edge
p2030
(dp2031
g7
I1
sg8
I00
sg9
I5
sg10
(lp2032
g215
ag313
asg26
I00
sg27
I00
sg28
I2838420
sg20
S'5406.37703647'
p2033
sba(igraph
Edge
p2034
(dp2035
g7
I1
sg8
I00
sg9
I5
sg10
(lp2036
g222
ag313
asg26
I00
sg27
I00
sg28
I2838421
sg20
S'5406.38438684'
p2037
sba(igraph
Edge
p2038
(dp2039
g7
I1
sg8
I00
sg9
I5
sg10
(lp2040
g229
ag327
asg26
I00
sg27
I00
sg28
I2838422
sg20
S'5406.39169475'
p2041
sba(igraph
Edge
p2042
(dp2043
g7
I1
sg8
I00
sg9
I5
sg10
(lp2044
g236
ag327
asg26
I00
sg27
I00
sg28
I2838423
sg20
S'5406.39904848'
p2045
sba(igraph
Edge
p2046
(dp2047
g7
I1
sg8
I00
sg9
I5
sg10
(lp2048
g243
ag341
asg26
I00
sg27
I00
sg28
I2838424
sg20
S'5406.41092681'
p2049
sba(igraph
Edge
p2050
(dp2051
g7
I1
sg8
I00
sg9
I5
sg10
(lp2052
g250
ag341
asg26
I00
sg27
I00
sg28
I2838425
sg20
S'5406.41894487'
p2053
sba(igraph
Edge
p2054
(dp2055
g7
I1
sg8
I00
sg9
I5
sg10
(lp2056
g257
ag355
asg26
I00
sg27
I00
sg28
I2838426
sg20
S'5406.42715205'
p2057
sba(igraph
Edge
p2058
(dp2059
g7
I1
sg8
I00
sg9
I5
sg10
(lp2060
g264
ag355
asg26
I00
sg27
I00
sg28
I2838427
sg20
S'5406.43536427'
p2061
sba(igraph
Edge
p2062
(dp2063
g7
I1
sg8
I00
sg9
I5
sg10
(lp2064
g271
ag369
asg26
I00
sg27
I00
sg28
I2838428
sg20
S'5406.44329964'
p2065
sba(igraph
Edge
p2066
(dp2067
g7
I1
sg8
I00
sg9
I5
sg10
(lp2068
g278
ag369
asg26
I00
sg27
I00
sg28
I2838429
sg20
S'5406.45147135'
p2069
sba(igraph
Edge
p2070
(dp2071
g7
I1
sg8
I00
sg9
I5
sg10
(lp2072
g285
ag296
asg26
I00
sg27
I00
sg28
I2838430
sg20
S'5406.46006797'
p2073
sba(igraph
Edge
p2074
(dp2075
g7
I1
sg8
I00
sg9
I5
sg10
(lp2076
g296
ag387
asg26
I00
sg27
I00
sg28
I2838431
sg20
S'5406.46812793'
p2077
sba(igraph
Edge
p2078
(dp2079
g7
I1
sg8
I00
sg9
I5
sg10
(lp2080
g299
ag397
asg26
I00
sg27
I00
sg28
I2838432
sg20
S'5406.47620354'
p2081
sba(igraph
Edge
p2082
(dp2083
g7
I1
sg8
I00
sg9
I5
sg10
(lp2084
g306
ag397
asg26
I00
sg27
I00
sg28
I2838433
sg20
S'5406.48609781'
p2085
sba(igraph
Edge
p2086
(dp2087
g7
I1
sg8
I00
sg9
I5
sg10
(lp2088
g313
ag411
asg26
I00
sg27
I00
sg28
I2838434
sg20
S'5406.49526434'
p2089
sba(igraph
Edge
p2090
(dp2091
g7
I1
sg8
I00
sg9
I5
sg10
(lp2092
g320
ag411
asg26
I00
sg27
I00
sg28
I2838435
sg20
S'5406.50806318'
p2093
sba(igraph
Edge
p2094
(dp2095
g7
I1
sg8
I00
sg9
I5
sg10
(lp2096
g327
ag425
asg26
I00
sg27
I00
sg28
I2838436
sg20
S'5406.52094945'
p2097
sba(igraph
Edge
p2098
(dp2099
g7
I1
sg8
I00
sg9
I5
sg10
(lp2100
g334
ag425
asg26
I00
sg27
I00
sg28
I2838437
sg20
S'5406.53114739'
p2101
sba(igraph
Edge
p2102
(dp2103
g7
I1
sg8
I00
sg9
I5
sg10
(lp2104
g341
ag439
asg26
I00
sg27
I00
sg28
I2838438
sg20
S'5406.54120314'
p2105
sba(igraph
Edge
p2106
(dp2107
g7
I1
sg8
I00
sg9
I5
sg10
(lp2108
g348
ag439
asg26
I00
sg27
I00
sg28
I2838439
sg20
S'5406.55081051'
p2109
sba(igraph
Edge
p2110
(dp2111
g7
I1
sg8
I00
sg9
I5
sg10
(lp2112
g355
ag453
asg26
I00
sg27
I00
sg28
I2838440
sg20
S'5406.55963006'
p2113
sba(igraph
Edge
p2114
(dp2115
g7
I1
sg8
I00
sg9
I5
sg10
(lp2116
g362
ag453
asg26
I00
sg27
I00
sg28
I2838441
sg20
S'5406.56843705'
p2117
sba(igraph
Edge
p2118
(dp2119
g7
I1
sg8
I00
sg9
I5
sg10
(lp2120
g369
ag467
asg26
I00
sg27
I00
sg28
I2838442
sg20
S'5406.57668195'
p2121
sba(igraph
Edge
p2122
(dp2123
g7
I1
sg8
I00
sg9
I5
sg10
(lp2124
g376
ag467
asg26
I00
sg27
I00
sg28
I2838443
sg20
S'5406.5851523'
p2125
sba(igraph
Edge
p2126
(dp2127
g7
I1
sg8
I00
sg9
I5
sg10
(lp2128
g296
ag390
asg26
I00
sg27
I00
sg28
I2838444
sg20
S'5406.59407662'
p2129
sba(igraph
Edge
p2130
(dp2131
g7
I1
sg8
I00
sg9
I5
sg10
(lp2132
g299
ag390
asg26
I00
sg27
I00
sg28
I2838445
sg20
S'5406.60252574'
p2133
sba(igraph
Edge
p2134
(dp2135
g7
I1
sg8
I00
sg9
I5
sg10
(lp2136
g306
ag404
asg26
I00
sg27
I00
sg28
I2838446
sg20
S'5406.61118299'
p2137
sba(igraph
Edge
p2138
(dp2139
g7
I1
sg8
I00
sg9
I5
sg10
(lp2140
g313
ag404
asg26
I00
sg27
I00
sg28
I2838447
sg20
S'5406.6195184'
p2141
sba(igraph
Edge
p2142
(dp2143
g7
I1
sg8
I00
sg9
I5
sg10
(lp2144
g320
ag418
asg26
I00
sg27
I00
sg28
I2838448
sg20
S'5406.63130035'
p2145
sba(igraph
Edge
p2146
(dp2147
g7
I1
sg8
I00
sg9
I5
sg10
(lp2148
g327
ag418
asg26
I00
sg27
I00
sg28
I2838449
sg20
S'5406.64116668'
p2149
sba(igraph
Edge
p2150
(dp2151
g7
I1
sg8
I00
sg9
I5
sg10
(lp2152
g334
ag432
asg26
I00
sg27
I00
sg28
I2838450
sg20
S'5406.65113778'
p2153
sba(igraph
Edge
p2154
(dp2155
g7
I1
sg8
I00
sg9
I5
sg10
(lp2156
g341
ag432
asg26
I00
sg27
I00
sg28
I2838451
sg20
S'5406.66166566'
p2157
sba(igraph
Edge
p2158
(dp2159
g7
I1
sg8
I00
sg9
I5
sg10
(lp2160
g348
ag446
asg26
I00
sg27
I00
sg28
I2838452
sg20
S'5406.67295033'
p2161
sba(igraph
Edge
p2162
(dp2163
g7
I1
sg8
I00
sg9
I5
sg10
(lp2164
g355
ag446
asg26
I00
sg27
I00
sg28
I2838453
sg20
S'5406.68234566'
p2165
sba(igraph
Edge
p2166
(dp2167
g7
I1
sg8
I00
sg9
I5
sg10
(lp2168
g362
ag460
asg26
I00
sg27
I00
sg28
I2838454
sg20
S'5406.69191922'
p2169
sba(igraph
Edge
p2170
(dp2171
g7
I1
sg8
I00
sg9
I5
sg10
(lp2172
g369
ag460
asg26
I00
sg27
I00
sg28
I2838455
sg20
S'5406.70103295'
p2173
sba(igraph
Edge
p2174
(dp2175
g7
I1
sg8
I00
sg9
I5
sg10
(lp2176
g376
ag387
asg26
I00
sg27
I00
sg28
I2838456
sg20
S'5406.70994135'
p2177
sba(igraph
Edge
p2178
(dp2179
g7
I1
sg8
I00
sg9
I5
sg10
(lp2180
g387
ag478
asg26
I00
sg27
I00
sg28
I2838457
sg20
S'5406.71858854'
p2181
sba(igraph
Edge
p2182
(dp2183
g7
I1
sg8
I00
sg9
I5
sg10
(lp2184
g390
ag488
asg26
I00
sg27
I00
sg28
I2838458
sg20
S'5406.72724634'
p2185
sba(igraph
Edge
p2186
(dp2187
g7
I1
sg8
I00
sg9
I5
sg10
(lp2188
g397
ag488
asg26
I00
sg27
I00
sg28
I2838459
sg20
S'5406.74040136'
p2189
sba(igraph
Edge
p2190
(dp2191
g7
I1
sg8
I00
sg9
I5
sg10
(lp2192
g404
ag502
asg26
I00
sg27
I00
sg28
I2838460
sg20
S'5406.74924076'
p2193
sba(igraph
Edge
p2194
(dp2195
g7
I1
sg8
I00
sg9
I5
sg10
(lp2196
g411
ag502
asg26
I00
sg27
I00
sg28
I2838461
sg20
S'5406.75946189'
p2197
sba(igraph
Edge
p2198
(dp2199
g7
I1
sg8
I00
sg9
I5
sg10
(lp2200
g418
ag516
asg26
I00
sg27
I00
sg28
I2838462
sg20
S'5406.76808002'
p2201
sba(igraph
Edge
p2202
(dp2203
g7
I1
sg8
I00
sg9
I5
sg10
(lp2204
g425
ag516
asg26
I00
sg27
I00
sg28
I2838463
sg20
S'5406.77723258'
p2205
sba(igraph
Edge
p2206
(dp2207
g7
I1
sg8
I00
sg9
I5
sg10
(lp2208
g432
ag530
asg26
I00
sg27
I00
sg28
I2838464
sg20
S'5406.7893073'
p2209
sba(igraph
Edge
p2210
(dp2211
g7
I1
sg8
I00
sg9
I5
sg10
(lp2212
g439
ag530
asg26
I00
sg27
I00
sg28
I2838465
sg20
S'5406.80157478'
p2213
sba(igraph
Edge
p2214
(dp2215
g7
I1
sg8
I00
sg9
I5
sg10
(lp2216
g446
ag544
asg26
I00
sg27
I00
sg28
I2838466
sg20
S'5406.81344221'
p2217
sba(igraph
Edge
p2218
(dp2219
g7
I1
sg8
I00
sg9
I5
sg10
(lp2220
g453
ag544
asg26
I00
sg27
I00
sg28
I2838467
sg20
S'5406.82417039'
p2221
sba(igraph
Edge
p2222
(dp2223
g7
I1
sg8
I00
sg9
I5
sg10
(lp2224
g460
ag558
asg26
I00
sg27
I00
sg28
I2838468
sg20
S'5406.83330116'
p2225
sba(igraph
Edge
p2226
(dp2227
g7
I1
sg8
I00
sg9
I5
sg10
(lp2228
g467
ag558
asg26
I00
sg27
I00
sg28
I2838469
sg20
S'5406.84284371'
p2229
sba(igraph
Edge
p2230
(dp2231
g7
I1
sg8
I00
sg9
I5
sg10
(lp2232
g387
ag481
asg26
I00
sg27
I00
sg28
I2838470
sg20
S'5406.8516669'
p2233
sba(igraph
Edge
p2234
(dp2235
g7
I1
sg8
I00
sg9
I5
sg10
(lp2236
g390
ag481
asg26
I00
sg27
I00
sg28
I2838471
sg20
S'5406.8611832'
p2237
sba(igraph
Edge
p2238
(dp2239
g7
I1
sg8
I00
sg9
I5
sg10
(lp2240
g397
ag495
asg26
I00
sg27
I00
sg28
I2838472
sg20
S'5406.86996308'
p2241
sba(igraph
Edge
p2242
(dp2243
g7
I1
sg8
I00
sg9
I5
sg10
(lp2244
g404
ag495
asg26
I00
sg27
I00
sg28
I2838473
sg20
S'5406.88023981'
p2245
sba(igraph
Edge
p2246
(dp2247
g7
I1
sg8
I00
sg9
I5
sg10
(lp2248
g411
ag509
asg26
I00
sg27
I00
sg28
I2838474
sg20
S'5406.89279811'
p2249
sba(igraph
Edge
p2250
(dp2251
g7
I1
sg8
I00
sg9
I5
sg10
(lp2252
g418
ag509
asg26
I00
sg27
I00
sg28
I2838475
sg20
S'5406.90196938'
p2253
sba(igraph
Edge
p2254
(dp2255
g7
I1
sg8
I00
sg9
I5
sg10
(lp2256
g425
ag523
asg26
I00
sg27
I00
sg28
I2838476
sg20
S'5406.91337447'
p2257
sba(igraph
Edge
p2258
(dp2259
g7
I1
sg8
I00
sg9
I5
sg10
(lp2260
g432
ag523
asg26
I00
sg27
I00
sg28
I2838477
sg20
S'5406.92422976'
p2261
sba(igraph
Edge
p2262
(dp2263
g7
I1
sg8
I00
sg9
I5
sg10
(lp2264
g439
ag537
asg26
I00
sg27
I00
sg28
I2838478
sg20
S'5406.93496995'
p2265
sba(igraph
Edge
p2266
(dp2267
g7
I1
sg8
I00
sg9
I5
sg10
(lp2268
g446
ag537
asg26
I00
sg27
I00
sg28
I2838479
sg20
S'5406.94588055'
p2269
sba(igraph
Edge
p2270
(dp2271
g7
I1
sg8
I00
sg9
I5
sg10
(lp2272
g453
ag551
asg26
I00
sg27
I00
sg28
I2838480
sg20
S'5406.95781056'
p2273
sba(igraph
Edge
p2274
(dp2275
g7
I1
sg8
I00
sg9
I5
sg10
(lp2276
g460
ag551
asg26
I00
sg27
I00
sg28
I2838481
sg20
S'5406.9680641'
p2277
sba(igraph
Edge
p2278
(dp2279
g7
I1
sg8
I00
sg9
I5
sg10
(lp2280
g467
ag478
asg26
I00
sg27
I00
sg28
I2838482
sg20
S'5406.97775695'
p2281
sba(igraph
Edge
p2282
(dp2283
g7
I1
sg8
I00
sg9
I5
sg10
(lp2284
g478
ag569
asg26
I00
sg27
I00
sg28
I2838483
sg20
S'5406.98735538'
p2285
sba(igraph
Edge
p2286
(dp2287
g7
I1
sg8
I00
sg9
I5
sg10
(lp2288
g481
ag579
asg26
I00
sg27
I00
sg28
I2838484
sg20
S'5406.99654146'
p2289
sba(igraph
Edge
p2290
(dp2291
g7
I1
sg8
I00
sg9
I5
sg10
(lp2292
g488
ag579
asg26
I00
sg27
I00
sg28
I2838485
sg20
S'5407.00543309'
p2293
sba(igraph
Edge
p2294
(dp2295
g7
I1
sg8
I00
sg9
I5
sg10
(lp2296
g495
ag593
asg26
I00
sg27
I00
sg28
I2838486
sg20
S'5407.01420935'
p2297
sba(igraph
Edge
p2298
(dp2299
g7
I1
sg8
I00
sg9
I5
sg10
(lp2300
g502
ag593
asg26
I00
sg27
I00
sg28
I2838487
sg20
S'5407.02292163'
p2301
sba(igraph
Edge
p2302
(dp2303
g7
I1
sg8
I00
sg9
I5
sg10
(lp2304
g509
ag607
asg26
I00
sg27
I00
sg28
I2838488
sg20
S'5407.03164536'
p2305
sba(igraph
Edge
p2306
(dp2307
g7
I1
sg8
I00
sg9
I5
sg10
(lp2308
g516
ag607
asg26
I00
sg27
I00
sg28
I2838489
sg20
S'5407.04043475'
p2309
sba(igraph
Edge
p2310
(dp2311
g7
I1
sg8
I00
sg9
I5
sg10
(lp2312
g523
ag621
asg26
I00
sg27
I00
sg28
I2838490
sg20
S'5407.0493599'
p2313
sba(igraph
Edge
p2314
(dp2315
g7
I1
sg8
I00
sg9
I5
sg10
(lp2316
g530
ag621
asg26
I00
sg27
I00
sg28
I2838491
sg20
S'5407.05839318'
p2317
sba(igraph
Edge
p2318
(dp2319
g7
I1
sg8
I00
sg9
I5
sg10
(lp2320
g537
ag635
asg26
I00
sg27
I00
sg28
I2838492
sg20
S'5407.06724961'
p2321
sba(igraph
Edge
p2322
(dp2323
g7
I1
sg8
I00
sg9
I5
sg10
(lp2324
g544
ag635
asg26
I00
sg27
I00
sg28
I2838493
sg20
S'5407.07602363'
p2325
sba(igraph
Edge
p2326
(dp2327
g7
I1
sg8
I00
sg9
I5
sg10
(lp2328
g551
ag649
asg26
I00
sg27
I00
sg28
I2838494
sg20
S'5407.08518764'
p2329
sba(igraph
Edge
p2330
(dp2331
g7
I1
sg8
I00
sg9
I5
sg10
(lp2332
g558
ag649
asg26
I00
sg27
I00
sg28
I2838495
sg20
S'5407.09433182'
p2333
sba(igraph
Edge
p2334
(dp2335
g7
I1
sg8
I00
sg9
I5
sg10
(lp2336
g478
ag572
asg26
I00
sg27
I00
sg28
I2838496
sg20
S'5407.10329134'
p2337
sba(igraph
Edge
p2338
(dp2339
g7
I1
sg8
I00
sg9
I5
sg10
(lp2340
g481
ag572
asg26
I00
sg27
I00
sg28
I2838497
sg20
S'5407.11220113'
p2341
sba(igraph
Edge
p2342
(dp2343
g7
I1
sg8
I00
sg9
I5
sg10
(lp2344
g488
ag586
asg26
I00
sg27
I00
sg28
I2838498
sg20
S'5407.12142297'
p2345
sba(igraph
Edge
p2346
(dp2347
g7
I1
sg8
I00
sg9
I5
sg10
(lp2348
g495
ag586
asg26
I00
sg27
I00
sg28
I2838499
sg20
S'5407.13053251'
p2349
sba(igraph
Edge
p2350
(dp2351
g7
I1
sg8
I00
sg9
I5
sg10
(lp2352
g502
ag600
asg26
I00
sg27
I00
sg28
I2838500
sg20
S'5407.13948253'
p2353
sba(igraph
Edge
p2354
(dp2355
g7
I1
sg8
I00
sg9
I5
sg10
(lp2356
g509
ag600
asg26
I00
sg27
I00
sg28
I2838501
sg20
S'5407.148551'
p2357
sba(igraph
Edge
p2358
(dp2359
g7
I1
sg8
I00
sg9
I5
sg10
(lp2360
g516
ag614
asg26
I00
sg27
I00
sg28
I2838502
sg20
S'5407.15766725'
p2361
sba(igraph
Edge
p2362
(dp2363
g7
I1
sg8
I00
sg9
I5
sg10
(lp2364
g523
ag614
asg26
I00
sg27
I00
sg28
I2838503
sg20
S'5407.16668431'
p2365
sba(igraph
Edge
p2366
(dp2367
g7
I1
sg8
I00
sg9
I5
sg10
(lp2368
g530
ag628
asg26
I00
sg27
I00
sg28
I2838504
sg20
S'5407.17581871'
p2369
sba(igraph
Edge
p2370
(dp2371
g7
I1
sg8
I00
sg9
I5
sg10
(lp2372
g537
ag628
asg26
I00
sg27
I00
sg28
I2838505
sg20
S'5407.18487908'
p2373
sba(igraph
Edge
p2374
(dp2375
g7
I1
sg8
I00
sg9
I5
sg10
(lp2376
g544
ag642
asg26
I00
sg27
I00
sg28
I2838506
sg20
S'5407.19397745'
p2377
sba(igraph
Edge
p2378
(dp2379
g7
I1
sg8
I00
sg9
I5
sg10
(lp2380
g551
ag642
asg26
I00
sg27
I00
sg28
I2838507
sg20
S'5407.20316409'
p2381
sba(igraph
Edge
p2382
(dp2383
g7
I1
sg8
I00
sg9
I5
sg10
(lp2384
g558
ag569
asg26
I00
sg27
I00
sg28
I2838508
sg20
S'5407.21247226'
p2385
sba(igraph
Edge
p2386
(dp2387
g7
I1
sg8
I00
sg9
I5
sg10
(lp2388
g569
ag660
asg26
I00
sg27
I00
sg28
I2838509
sg20
S'5407.22180473'
p2389
sba(igraph
Edge
p2390
(dp2391
g7
I1
sg8
I00
sg9
I5
sg10
(lp2392
g572
ag670
asg26
I00
sg27
I00
sg28
I2838510
sg20
S'5407.2316719'
p2393
sba(igraph
Edge
p2394
(dp2395
g7
I1
sg8
I00
sg9
I5
sg10
(lp2396
g579
ag670
asg26
I00
sg27
I00
sg28
I2838511
sg20
S'5407.24084206'
p2397
sba(igraph
Edge
p2398
(dp2399
g7
I1
sg8
I00
sg9
I5
sg10
(lp2400
g586
ag684
asg26
I00
sg27
I00
sg28
I2838512
sg20
S'5407.25022035'
p2401
sba(igraph
Edge
p2402
(dp2403
g7
I1
sg8
I00
sg9
I5
sg10
(lp2404
g593
ag684
asg26
I00
sg27
I00
sg28
I2838513
sg20
S'5407.25953941'
p2405
sba(igraph
Edge
p2406
(dp2407
g7
I1
sg8
I00
sg9
I5
sg10
(lp2408
g600
ag698
asg26
I00
sg27
I00
sg28
I2838514
sg20
S'5407.2689177'
p2409
sba(igraph
Edge
p2410
(dp2411
g7
I1
sg8
I00
sg9
I5
sg10
(lp2412
g607
ag698
asg26
I00
sg27
I00
sg28
I2838515
sg20
S'5407.27817558'
p2413
sba(igraph
Edge
p2414
(dp2415
g7
I1
sg8
I00
sg9
I5
sg10
(lp2416
g614
ag712
asg26
I00
sg27
I00
sg28
I2838516
sg20
S'5407.28766449'
p2417
sba(igraph
Edge
p2418
(dp2419
g7
I1
sg8
I00
sg9
I5
sg10
(lp2420
g621
ag712
asg26
I00
sg27
I00
sg28
I2838517
sg20
S'5407.29712603'
p2421
sba(igraph
Edge
p2422
(dp2423
g7
I1
sg8
I00
sg9
I5
sg10
(lp2424
g628
ag726
asg26
I00
sg27
I00
sg28
I2838518
sg20
S'5407.30656941'
p2425
sba(igraph
Edge
p2426
(dp2427
g7
I1
sg8
I00
sg9
I5
sg10
(lp2428
g635
ag726
asg26
I00
sg27
I00
sg28
I2838519
sg20
S'5407.31612817'
p2429
sba(igraph
Edge
p2430
(dp2431
g7
I1
sg8
I00
sg9
I5
sg10
(lp2432
g642
ag740
asg26
I00
sg27
I00
sg28
I2838520
sg20
S'5407.32561876'
p2433
sba(igraph
Edge
p2434
(dp2435
g7
I1
sg8
I00
sg9
I5
sg10
(lp2436
g649
ag740
asg26
I00
sg27
I00
sg28
I2838521
sg20
S'5407.33504817'
p2437
sba(igraph
Edge
p2438
(dp2439
g7
I1
sg8
I00
sg9
I5
sg10
(lp2440
g569
ag663
asg26
I00
sg27
I00
sg28
I2838522
sg20
S'5407.34453457'
p2441
sba(igraph
Edge
p2442
(dp2443
g7
I1
sg8
I00
sg9
I5
sg10
(lp2444
g572
ag663
asg26
I00
sg27
I00
sg28
I2838523
sg20
S'5407.35408299'
p2445
sba(igraph
Edge
p2446
(dp2447
g7
I1
sg8
I00
sg9
I5
sg10
(lp2448
g579
ag677
asg26
I00
sg27
I00
sg28
I2838524
sg20
S'5407.36399514'
p2449
sba(igraph
Edge
p2450
(dp2451
g7
I1
sg8
I00
sg9
I5
sg10
(lp2452
g586
ag677
asg26
I00
sg27
I00
sg28
I2838525
sg20
S'5407.37355334'
p2453
sba(igraph
Edge
p2454
(dp2455
g7
I1
sg8
I00
sg9
I5
sg10
(lp2456
g593
ag691
asg26
I00
sg27
I00
sg28
I2838526
sg20
S'5407.38321938'
p2457
sba(igraph
Edge
p2458
(dp2459
g7
I1
sg8
I00
sg9
I5
sg10
(lp2460
g600
ag691
asg26
I00
sg27
I00
sg28
I2838527
sg20
S'5407.39331535'
p2461
sba(igraph
Edge
p2462
(dp2463
g7
I1
sg8
I00
sg9
I5
sg10
(lp2464
g607
ag705
asg26
I00
sg27
I00
sg28
I2838528
sg20
S'5407.40324091'
p2465
sba(igraph
Edge
p2466
(dp2467
g7
I1
sg8
I00
sg9
I5
sg10
(lp2468
g614
ag705
asg26
I00
sg27
I00
sg28
I2838529
sg20
S'5407.41330309'
p2469
sba(igraph
Edge
p2470
(dp2471
g7
I1
sg8
I00
sg9
I5
sg10
(lp2472
g621
ag719
asg26
I00
sg27
I00
sg28
I2838530
sg20
S'5407.42293671'
p2473
sba(igraph
Edge
p2474
(dp2475
g7
I1
sg8
I00
sg9
I5
sg10
(lp2476
g628
ag719
asg26
I00
sg27
I00
sg28
I2838531
sg20
S'5407.43278322'
p2477
sba(igraph
Edge
p2478
(dp2479
g7
I1
sg8
I00
sg9
I5
sg10
(lp2480
g635
ag733
asg26
I00
sg27
I00
sg28
I2838532
sg20
S'5407.44253222'
p2481
sba(igraph
Edge
p2482
(dp2483
g7
I1
sg8
I00
sg9
I5
sg10
(lp2484
g642
ag733
asg26
I00
sg27
I00
sg28
I2838533
sg20
S'5407.45208455'
p2485
sba(igraph
Edge
p2486
(dp2487
g7
I1
sg8
I00
sg9
I5
sg10
(lp2488
g649
ag660
asg26
I00
sg27
I00
sg28
I2838534
sg20
S'5407.46173857'
p2489
sba(igraph
Edge
p2490
(dp2491
g7
I1
sg8
I00
sg9
I5
sg10
(lp2492
g660
ag751
asg26
I00
sg27
I00
sg28
I2838535
sg20
S'5407.47155854'
p2493
sba(igraph
Edge
p2494
(dp2495
g7
I1
sg8
I00
sg9
I5
sg10
(lp2496
g663
ag761
asg26
I00
sg27
I00
sg28
I2838536
sg20
S'5407.48130978'
p2497
sba(igraph
Edge
p2498
(dp2499
g7
I1
sg8
I00
sg9
I5
sg10
(lp2500
g670
ag761
asg26
I00
sg27
I00
sg28
I2838537
sg20
S'5407.49109258'
p2501
sba(igraph
Edge
p2502
(dp2503
g7
I1
sg8
I00
sg9
I5
sg10
(lp2504
g677
ag775
asg26
I00
sg27
I00
sg28
I2838538
sg20
S'5407.50092875'
p2505
sba(igraph
Edge
p2506
(dp2507
g7
I1
sg8
I00
sg9
I5
sg10
(lp2508
g684
ag775
asg26
I00
sg27
I00
sg28
I2838539
sg20
S'5407.51081185'
p2509
sba(igraph
Edge
p2510
(dp2511
g7
I1
sg8
I00
sg9
I5
sg10
(lp2512
g691
ag789
asg26
I00
sg27
I00
sg28
I2838540
sg20
S'5407.52062818'
p2513
sba(igraph
Edge
p2514
(dp2515
g7
I1
sg8
I00
sg9
I5
sg10
(lp2516
g698
ag789
asg26
I00
sg27
I00
sg28
I2838541
sg20
S'5407.53046658'
p2517
sba(igraph
Edge
p2518
(dp2519
g7
I1
sg8
I00
sg9
I5
sg10
(lp2520
g705
ag803
asg26
I00
sg27
I00
sg28
I2838542
sg20
S'5407.54023319'
p2521
sba(igraph
Edge
p2522
(dp2523
g7
I1
sg8
I00
sg9
I5
sg10
(lp2524
g712
ag803
asg26
I00
sg27
I00
sg28
I2838543
sg20
S'5407.55044705'
p2525
sba(igraph
Edge
p2526
(dp2527
g7
I1
sg8
I00
sg9
I5
sg10
(lp2528
g719
ag817
asg26
I00
sg27
I00
sg28
I2838544
sg20
S'5407.56064304'
p2529
sba(igraph
Edge
p2530
(dp2531
g7
I1
sg8
I00
sg9
I5
sg10
(lp2532
g726
ag817
asg26
I00
sg27
I00
sg28
I2838545
sg20
S'5407.57095832'
p2533
sba(igraph
Edge
p2534
(dp2535
g7
I1
sg8
I00
sg9
I5
sg10
(lp2536
g733
ag831
asg26
I00
sg27
I00
sg28
I2838546
sg20
S'5407.58096406'
p2537
sba(igraph
Edge
p2538
(dp2539
g7
I1
sg8
I00
sg9
I5
sg10
(lp2540
g740
ag831
asg26
I00
sg27
I00
sg28
I2838547
sg20
S'5407.59100808'
p2541
sba(igraph
Edge
p2542
(dp2543
g7
I1
sg8
I00
sg9
I5
sg10
(lp2544
g660
ag754
asg26
I00
sg27
I00
sg28
I2838548
sg20
S'5407.601056'
p2545
sba(igraph
Edge
p2546
(dp2547
g7
I1
sg8
I00
sg9
I5
sg10
(lp2548
g663
ag754
asg26
I00
sg27
I00
sg28
I2838549
sg20
S'5407.61111706'
p2549
sba(igraph
Edge
p2550
(dp2551
g7
I1
sg8
I00
sg9
I5
sg10
(lp2552
g670
ag768
asg26
I00
sg27
I00
sg28
I2838550
sg20
S'5407.62094512'
p2553
sba(igraph
Edge
p2554
(dp2555
g7
I1
sg8
I00
sg9
I5
sg10
(lp2556
g677
ag768
asg26
I00
sg27
I00
sg28
I2838551
sg20
S'5407.63089052'
p2557
sba(igraph
Edge
p2558
(dp2559
g7
I1
sg8
I00
sg9
I5
sg10
(lp2560
g684
ag782
asg26
I00
sg27
I00
sg28
I2838552
sg20
S'5407.64105466'
p2561
sba(igraph
Edge
p2562
(dp2563
g7
I1
sg8
I00
sg9
I5
sg10
(lp2564
g691
ag782
asg26
I00
sg27
I00
sg28
I2838553
sg20
S'5407.65119645'
p2565
sba(igraph
Edge
p2566
(dp2567
g7
I1
sg8
I00
sg9
I5
sg10
(lp2568
g698
ag796
asg26
I00
sg27
I00
sg28
I2838554
sg20
S'5407.66142457'
p2569
sba(igraph
Edge
p2570
(dp2571
g7
I1
sg8
I00
sg9
I5
sg10
(lp2572
g705
ag796
asg26
I00
sg27
I00
sg28
I2838555
sg20
S'5407.67156552'
p2573
sba(igraph
Edge
p2574
(dp2575
g7
I1
sg8
I00
sg9
I5
sg10
(lp2576
g712
ag810
asg26
I00
sg27
I00
sg28
I2838556
sg20
S'5407.68180872'
p2577
sba(igraph
Edge
p2578
(dp2579
g7
I1
sg8
I00
sg9
I5
sg10
(lp2580
g719
ag810
asg26
I00
sg27
I00
sg28
I2838557
sg20
S'5407.69197063'
p2581
sba(igraph
Edge
p2582
(dp2583
g7
I1
sg8
I00
sg9
I5
sg10
(lp2584
g726
ag824
asg26
I00
sg27
I00
sg28
I2838558
sg20
S'5407.70228842'
p2585
sba(igraph
Edge
p2586
(dp2587
g7
I1
sg8
I00
sg9
I5
sg10
(lp2588
g733
ag824
asg26
I00
sg27
I00
sg28
I2838559
sg20
S'5407.71273081'
p2589
sba(igraph
Edge
p2590
(dp2591
g7
I1
sg8
I00
sg9
I5
sg10
(lp2592
g740
ag751
asg26
I00
sg27
I00
sg28
I2838560
sg20
S'5407.72303491'
p2593
sba(igraph
Edge
p2594
(dp2595
g7
I1
sg8
I00
sg9
I5
sg10
(lp2596
g751
ag842
asg26
I00
sg27
I00
sg28
I2838561
sg20
S'5407.73329795'
p2597
sba(igraph
Edge
p2598
(dp2599
g7
I1
sg8
I00
sg9
I5
sg10
(lp2600
g754
ag852
asg26
I00
sg27
I00
sg28
I2838562
sg20
S'5407.74351489'
p2601
sba(igraph
Edge
p2602
(dp2603
g7
I1
sg8
I00
sg9
I5
sg10
(lp2604
g761
ag852
asg26
I00
sg27
I00
sg28
I2838563
sg20
S'5407.75389805'
p2605
sba(igraph
Edge
p2606
(dp2607
g7
I1
sg8
I00
sg9
I5
sg10
(lp2608
g768
ag866
asg26
I00
sg27
I00
sg28
I2838564
sg20
S'5407.76418036'
p2609
sba(igraph
Edge
p2610
(dp2611
g7
I1
sg8
I00
sg9
I5
sg10
(lp2612
g775
ag866
asg26
I00
sg27
I00
sg28
I2838565
sg20
S'5407.77455598'
p2613
sba(igraph
Edge
p2614
(dp2615
g7
I1
sg8
I00
sg9
I5
sg10
(lp2616
g782
ag880
asg26
I00
sg27
I00
sg28
I2838566
sg20
S'5407.78496988'
p2617
sba(igraph
Edge
p2618
(dp2619
g7
I1
sg8
I00
sg9
I5
sg10
(lp2620
g789
ag880
asg26
I00
sg27
I00
sg28
I2838567
sg20
S'5407.79537008'
p2621
sba(igraph
Edge
p2622
(dp2623
g7
I1
sg8
I00
sg9
I5
sg10
(lp2624
g796
ag894
asg26
I00
sg27
I00
sg28
I2838568
sg20
S'5407.80578593'
p2625
sba(igraph
Edge
p2626
(dp2627
g7
I1
sg8
I00
sg9
I5
sg10
(lp2628
g803
ag894
asg26
I00
sg27
I00
sg28
I2838569
sg20
S'5407.81632805'
p2629
sba(igraph
Edge
p2630
(dp2631
g7
I1
sg8
I00
sg9
I5
sg10
(lp2632
g810
ag908
asg26
I00
sg27
I00
sg28
I2838570
sg20
S'5407.82712635'
p2633
sba(igraph
Edge
p2634
(dp2635
g7
I1
sg8
I00
sg9
I5
sg10
(lp2636
g817
ag908
asg26
I00
sg27
I00
sg28
I2838571
sg20
S'5407.83773161'
p2637
sba(igraph
Edge
p2638
(dp2639
g7
I1
sg8
I00
sg9
I5
sg10
(lp2640
g824
ag922
asg26
I00
sg27
I00
sg28
I2838572
sg20
S'5407.84841789'
p2641
sba(igraph
Edge
p2642
(dp2643
g7
I1
sg8
I00
sg9
I5
sg10
(lp2644
g831
ag922
asg26
I00
sg27
I00
sg28
I2838573
sg20
S'5407.85899325'
p2645
sba(igraph
Edge
p2646
(dp2647
g7
I1
sg8
I00
sg9
I5
sg10
(lp2648
g751
ag845
asg26
I00
sg27
I00
sg28
I2838574
sg20
S'5407.86971026'
p2649
sba(igraph
Edge
p2650
(dp2651
g7
I1
sg8
I00
sg9
I5
sg10
(lp2652
g754
ag845
asg26
I00
sg27
I00
sg28
I2838575
sg20
S'5407.88019539'
p2653
sba(igraph
Edge
p2654
(dp2655
g7
I1
sg8
I00
sg9
I5
sg10
(lp2656
g761
ag859
asg26
I00
sg27
I00
sg28
I2838576
sg20
S'5407.89088837'
p2657
sba(igraph
Edge
p2658
(dp2659
g7
I1
sg8
I00
sg9
I5
sg10
(lp2660
g768
ag859
asg26
I00
sg27
I00
sg28
I2838577
sg20
S'5407.90160956'
p2661
sba(igraph
Edge
p2662
(dp2663
g7
I1
sg8
I00
sg9
I5
sg10
(lp2664
g775
ag873
asg26
I00
sg27
I00
sg28
I2838578
sg20
S'5407.91219275'
p2665
sba(igraph
Edge
p2666
(dp2667
g7
I1
sg8
I00
sg9
I5
sg10
(lp2668
g782
ag873
asg26
I00
sg27
I00
sg28
I2838579
sg20
S'5407.92298155'
p2669
sba(igraph
Edge
p2670
(dp2671
g7
I1
sg8
I00
sg9
I5
sg10
(lp2672
g789
ag887
asg26
I00
sg27
I00
sg28
I2838580
sg20
S'5407.93379829'
p2673
sba(igraph
Edge
p2674
(dp2675
g7
I1
sg8
I00
sg9
I5
sg10
(lp2676
g796
ag887
asg26
I00
sg27
I00
sg28
I2838581
sg20
S'5407.94466112'
p2677
sba(igraph
Edge
p2678
(dp2679
g7
I1
sg8
I00
sg9
I5
sg10
(lp2680
g803
ag901
asg26
I00
sg27
I00
sg28
I2838582
sg20
S'5407.955453'
p2681
sba(igraph
Edge
p2682
(dp2683
g7
I1
sg8
I00
sg9
I5
sg10
(lp2684
g810
ag901
asg26
I00
sg27
I00
sg28
I2838583
sg20
S'5407.96624711'
p2685
sba(igraph
Edge
p2686
(dp2687
g7
I1
sg8
I00
sg9
I5
sg10
(lp2688
g817
ag915
asg26
I00
sg27
I00
sg28
I2838584
sg20
S'5407.97702753'
p2689
sba(igraph
Edge
p2690
(dp2691
g7
I1
sg8
I00
sg9
I5
sg10
(lp2692
g824
ag915
asg26
I00
sg27
I00
sg28
I2838585
sg20
S'5407.98819738'
p2693
sba(igraph
Edge
p2694
(dp2695
g7
I1
sg8
I00
sg9
I5
sg10
(lp2696
g831
ag842
asg26
I00
sg27
I00
sg28
I2838586
sg20
S'5407.99916833'
p2697
sba(igraph
Edge
p2698
(dp2699
g7
I1
sg8
I00
sg9
I5
sg10
(lp2700
g842
ag933
asg26
I00
sg27
I00
sg28
I2838587
sg20
S'5408.01000434'
p2701
sba(igraph
Edge
p2702
(dp2703
g7
I1
sg8
I00
sg9
I5
sg10
(lp2704
g845
ag943
asg26
I00
sg27
I00
sg28
I2838588
sg20
S'5408.02120325'
p2705
sba(igraph
Edge
p2706
(dp2707
g7
I1
sg8
I00
sg9
I5
sg10
(lp2708
g852
ag943
asg26
I00
sg27
I00
sg28
I2838589
sg20
S'5408.03230718'
p2709
sba(igraph
Edge
p2710
(dp2711
g7
I1
sg8
I00
sg9
I5
sg10
(lp2712
g859
ag957
asg26
I00
sg27
I00
sg28
I2838590
sg20
S'5408.04345077'
p2713
sba(igraph
Edge
p2714
(dp2715
g7
I1
sg8
I00
sg9
I5
sg10
(lp2716
g866
ag957
asg26
I00
sg27
I00
sg28
I2838591
sg20
S'5408.0544857'
p2717
sba(igraph
Edge
p2718
(dp2719
g7
I1
sg8
I00
sg9
I5
sg10
(lp2720
g873
ag971
asg26
I00
sg27
I00
sg28
I2838592
sg20
S'5408.0654681'
p2721
sba(igraph
Edge
p2722
(dp2723
g7
I1
sg8
I00
sg9
I5
sg10
(lp2724
g880
ag971
asg26
I00
sg27
I00
sg28
I2838593
sg20
S'5408.07642228'
p2725
sba(igraph
Edge
p2726
(dp2727
g7
I1
sg8
I00
sg9
I5
sg10
(lp2728
g887
ag985
asg26
I00
sg27
I00
sg28
I2838594
sg20
S'5408.08726584'
p2729
sba(igraph
Edge
p2730
(dp2731
g7
I1
sg8
I00
sg9
I5
sg10
(lp2732
g894
ag985
asg26
I00
sg27
I00
sg28
I2838595
sg20
S'5408.09818678'
p2733
sba(igraph
Edge
p2734
(dp2735
g7
I1
sg8
I00
sg9
I5
sg10
(lp2736
g901
ag999
asg26
I00
sg27
I00
sg28
I2838596
sg20
S'5408.10927674'
p2737
sba(igraph
Edge
p2738
(dp2739
g7
I1
sg8
I00
sg9
I5
sg10
(lp2740
g908
ag999
asg26
I00
sg27
I00
sg28
I2838597
sg20
S'5408.12033541'
p2741
sba(igraph
Edge
p2742
(dp2743
g7
I1
sg8
I00
sg9
I5
sg10
(lp2744
g915
ag1013
asg26
I00
sg27
I00
sg28
I2838598
sg20
S'5408.13160108'
p2745
sba(igraph
Edge
p2746
(dp2747
g7
I1
sg8
I00
sg9
I5
sg10
(lp2748
g922
ag1013
asg26
I00
sg27
I00
sg28
I2838599
sg20
S'5408.14275781'
p2749
sba(igraph
Edge
p2750
(dp2751
g7
I1
sg8
I00
sg9
I5
sg10
(lp2752
g842
ag936
asg26
I00
sg27
I00
sg28
I2838600
sg20
S'5408.15430788'
p2753
sba(igraph
Edge
p2754
(dp2755
g7
I1
sg8
I00
sg9
I5
sg10
(lp2756
g845
ag936
asg26
I00
sg27
I00
sg28
I2838601
sg20
S'5408.16536375'
p2757
sba(igraph
Edge
p2758
(dp2759
g7
I1
sg8
I00
sg9
I5
sg10
(lp2760
g852
ag950
asg26
I00
sg27
I00
sg28
I2838602
sg20
S'5408.1767152'
p2761
sba(igraph
Edge
p2762
(dp2763
g7
I1
sg8
I00
sg9
I5
sg10
(lp2764
g859
ag950
asg26
I00
sg27
I00
sg28
I2838603
sg20
S'5408.1880144'
p2765
sba(igraph
Edge
p2766
(dp2767
g7
I1
sg8
I00
sg9
I5
sg10
(lp2768
g866
ag964
asg26
I00
sg27
I00
sg28
I2838604
sg20
S'5408.19934014'
p2769
sba(igraph
Edge
p2770
(dp2771
g7
I1
sg8
I00
sg9
I5
sg10
(lp2772
g873
ag964
asg26
I00
sg27
I00
sg28
I2838605
sg20
S'5408.2107388'
p2773
sba(igraph
Edge
p2774
(dp2775
g7
I1
sg8
I00
sg9
I5
sg10
(lp2776
g880
ag978
asg26
I00
sg27
I00
sg28
I2838606
sg20
S'5408.22198073'
p2777
sba(igraph
Edge
p2778
(dp2779
g7
I1
sg8
I00
sg9
I5
sg10
(lp2780
g887
ag978
asg26
I00
sg27
I00
sg28
I2838607
sg20
S'5408.23319305'
p2781
sba(igraph
Edge
p2782
(dp2783
g7
I1
sg8
I00
sg9
I5
sg10
(lp2784
g894
ag992
asg26
I00
sg27
I00
sg28
I2838608
sg20
S'5408.24450091'
p2785
sba(igraph
Edge
p2786
(dp2787
g7
I1
sg8
I00
sg9
I5
sg10
(lp2788
g901
ag992
asg26
I00
sg27
I00
sg28
I2838609
sg20
S'5408.25580989'
p2789
sba(igraph
Edge
p2790
(dp2791
g7
I1
sg8
I00
sg9
I5
sg10
(lp2792
g908
ag1006
asg26
I00
sg27
I00
sg28
I2838610
sg20
S'5408.26740773'
p2793
sba(igraph
Edge
p2794
(dp2795
g7
I1
sg8
I00
sg9
I5
sg10
(lp2796
g915
ag1006
asg26
I00
sg27
I00
sg28
I2838611
sg20
S'5408.27888544'
p2797
sba(igraph
Edge
p2798
(dp2799
g7
I1
sg8
I00
sg9
I5
sg10
(lp2800
g922
ag933
asg26
I00
sg27
I00
sg28
I2838612
sg20
S'5408.2902841'
p2801
sba(igraph
Edge
p2802
(dp2803
g7
I1
sg8
I00
sg9
I5
sg10
(lp2804
g933
ag1024
asg26
I00
sg27
I00
sg28
I2838613
sg20
S'5408.30174505'
p2805
sba(igraph
Edge
p2806
(dp2807
g7
I1
sg8
I00
sg9
I5
sg10
(lp2808
g936
ag1034
asg26
I00
sg27
I00
sg28
I2838614
sg20
S'5408.31313477'
p2809
sba(igraph
Edge
p2810
(dp2811
g7
I1
sg8
I00
sg9
I5
sg10
(lp2812
g943
ag1034
asg26
I00
sg27
I00
sg28
I2838615
sg20
S'5408.32458231'
p2813
sba(igraph
Edge
p2814
(dp2815
g7
I1
sg8
I00
sg9
I5
sg10
(lp2816
g950
ag1048
asg26
I00
sg27
I00
sg28
I2838616
sg20
S'5408.33614468'
p2817
sba(igraph
Edge
p2818
(dp2819
g7
I1
sg8
I00
sg9
I5
sg10
(lp2820
g957
ag1048
asg26
I00
sg27
I00
sg28
I2838617
sg20
S'5408.34777884'
p2821
sba(igraph
Edge
p2822
(dp2823
g7
I1
sg8
I00
sg9
I5
sg10
(lp2824
g964
ag1062
asg26
I00
sg27
I00
sg28
I2838618
sg20
S'5408.35930013'
p2825
sba(igraph
Edge
p2826
(dp2827
g7
I1
sg8
I00
sg9
I5
sg10
(lp2828
g971
ag1062
asg26
I00
sg27
I00
sg28
I2838619
sg20
S'5408.37087311'
p2829
sba(igraph
Edge
p2830
(dp2831
g7
I1
sg8
I00
sg9
I5
sg10
(lp2832
g978
ag1076
asg26
I00
sg27
I00
sg28
I2838620
sg20
S'5408.38245252'
p2833
sba(igraph
Edge
p2834
(dp2835
g7
I1
sg8
I00
sg9
I5
sg10
(lp2836
g985
ag1076
asg26
I00
sg27
I00
sg28
I2838621
sg20
S'5408.39443449'
p2837
sba(igraph
Edge
p2838
(dp2839
g7
I1
sg8
I00
sg9
I5
sg10
(lp2840
g992
ag1090
asg26
I00
sg27
I00
sg28
I2838622
sg20
S'5408.40863546'
p2841
sba(igraph
Edge
p2842
(dp2843
g7
I1
sg8
I00
sg9
I5
sg10
(lp2844
g999
ag1090
asg26
I00
sg27
I00
sg28
I2838623
sg20
S'5408.42121918'
p2845
sba(igraph
Edge
p2846
(dp2847
g7
I1
sg8
I00
sg9
I5
sg10
(lp2848
g1006
ag1104
asg26
I00
sg27
I00
sg28
I2838624
sg20
S'5408.43315505'
p2849
sba(igraph
Edge
p2850
(dp2851
g7
I1
sg8
I00
sg9
I5
sg10
(lp2852
g1013
ag1104
asg26
I00
sg27
I00
sg28
I2838625
sg20
S'5408.44486213'
p2853
sba(igraph
Edge
p2854
(dp2855
g7
I1
sg8
I00
sg9
I5
sg10
(lp2856
g933
ag1027
asg26
I00
sg27
I00
sg28
I2838626
sg20
S'5408.45657423'
p2857
sba(igraph
Edge
p2858
(dp2859
g7
I1
sg8
I00
sg9
I5
sg10
(lp2860
g936
ag1027
asg26
I00
sg27
I00
sg28
I2838627
sg20
S'5408.46843356'
p2861
sba(igraph
Edge
p2862
(dp2863
g7
I1
sg8
I00
sg9
I5
sg10
(lp2864
g943
ag1041
asg26
I00
sg27
I00
sg28
I2838628
sg20
S'5408.4805418'
p2865
sba(igraph
Edge
p2866
(dp2867
g7
I1
sg8
I00
sg9
I5
sg10
(lp2868
g950
ag1041
asg26
I00
sg27
I00
sg28
I2838629
sg20
S'5408.49275481'
p2869
sba(igraph
Edge
p2870
(dp2871
g7
I1
sg8
I00
sg9
I5
sg10
(lp2872
g957
ag1055
asg26
I00
sg27
I00
sg28
I2838630
sg20
S'5408.50471722'
p2873
sba(igraph
Edge
p2874
(dp2875
g7
I1
sg8
I00
sg9
I5
sg10
(lp2876
g964
ag1055
asg26
I00
sg27
I00
sg28
I2838631
sg20
S'5408.51668494'
p2877
sba(igraph
Edge
p2878
(dp2879
g7
I1
sg8
I00
sg9
I5
sg10
(lp2880
g971
ag1069
asg26
I00
sg27
I00
sg28
I2838632
sg20
S'5408.52864037'
p2881
sba(igraph
Edge
p2882
(dp2883
g7
I1
sg8
I00
sg9
I5
sg10
(lp2884
g978
ag1069
asg26
I00
sg27
I00
sg28
I2838633
sg20
S'5408.54056032'
p2885
sba(igraph
Edge
p2886
(dp2887
g7
I1
sg8
I00
sg9
I5
sg10
(lp2888
g985
ag1083
asg26
I00
sg27
I00
sg28
I2838634
sg20
S'5408.55263951'
p2889
sba(igraph
Edge
p2890
(dp2891
g7
I1
sg8
I00
sg9
I5
sg10
(lp2892
g992
ag1083
asg26
I00
sg27
I00
sg28
I2838635
sg20
S'5408.5646768'
p2893
sba(igraph
Edge
p2894
(dp2895
g7
I1
sg8
I00
sg9
I5
sg10
(lp2896
g999
ag1097
asg26
I00
sg27
I00
sg28
I2838636
sg20
S'5408.57661099'
p2897
sba(igraph
Edge
p2898
(dp2899
g7
I1
sg8
I00
sg9
I5
sg10
(lp2900
g1006
ag1097
asg26
I00
sg27
I00
sg28
I2838637
sg20
S'5408.58885166'
p2901
sba(igraph
Edge
p2902
(dp2903
g7
I1
sg8
I00
sg9
I5
sg10
(lp2904
g1013
ag1024
asg26
I00
sg27
I00
sg28
I2838638
sg20
S'5408.60097079'
p2905
sba(igraph
Edge
p2906
(dp2907
g7
I1
sg8
I00
sg9
I5
sg10
(lp2908
g1024
ag1115
asg26
I00
sg27
I00
sg28
I2838639
sg20
S'5408.61306283'
p2909
sba(igraph
Edge
p2910
(dp2911
g7
I1
sg8
I00
sg9
I5
sg10
(lp2912
g1027
ag1125
asg26
I00
sg27
I00
sg28
I2838640
sg20
S'5408.62511464'
p2913
sba(igraph
Edge
p2914
(dp2915
g7
I1
sg8
I00
sg9
I5
sg10
(lp2916
g1034
ag1125
asg26
I00
sg27
I00
sg28
I2838641
sg20
S'5408.63717847'
p2917
sba(igraph
Edge
p2918
(dp2919
g7
I1
sg8
I00
sg9
I5
sg10
(lp2920
g1041
ag1139
asg26
I00
sg27
I00
sg28
I2838642
sg20
S'5408.64939957'
p2921
sba(igraph
Edge
p2922
(dp2923
g7
I1
sg8
I00
sg9
I5
sg10
(lp2924
g1048
ag1139
asg26
I00
sg27
I00
sg28
I2838643
sg20
S'5408.66159945'
p2925
sba(igraph
Edge
p2926
(dp2927
g7
I1
sg8
I00
sg9
I5
sg10
(lp2928
g1055
ag1153
asg26
I00
sg27
I00
sg28
I2838644
sg20
S'5408.67417451'
p2929
sba(igraph
Edge
p2930
(dp2931
g7
I1
sg8
I00
sg9
I5
sg10
(lp2932
g1062
ag1153
asg26
I00
sg27
I00
sg28
I2838645
sg20
S'5408.68645456'
p2933
sba(igraph
Edge
p2934
(dp2935
g7
I1
sg8
I00
sg9
I5
sg10
(lp2936
g1069
ag1167
asg26
I00
sg27
I00
sg28
I2838646
sg20
S'5408.69866086'
p2937
sba(igraph
Edge
p2938
(dp2939
g7
I1
sg8
I00
sg9
I5
sg10
(lp2940
g1076
ag1167
asg26
I00
sg27
I00
sg28
I2838647
sg20
S'5408.71099483'
p2941
sba(igraph
Edge
p2942
(dp2943
g7
I1
sg8
I00
sg9
I5
sg10
(lp2944
g1083
ag1181
asg26
I00
sg27
I00
sg28
I2838648
sg20
S'5408.72331176'
p2945
sba(igraph
Edge
p2946
(dp2947
g7
I1
sg8
I00
sg9
I5
sg10
(lp2948
g1090
ag1181
asg26
I00
sg27
I00
sg28
I2838649
sg20
S'5408.7355812'
p2949
sba(igraph
Edge
p2950
(dp2951
g7
I1
sg8
I00
sg9
I5
sg10
(lp2952
g1097
ag1195
asg26
I00
sg27
I00
sg28
I2838650
sg20
S'5408.74809676'
p2953
sba(igraph
Edge
p2954
(dp2955
g7
I1
sg8
I00
sg9
I5
sg10
(lp2956
g1104
ag1195
asg26
I00
sg27
I00
sg28
I2838651
sg20
S'5408.76051006'
p2957
sba(igraph
Edge
p2958
(dp2959
g7
I1
sg8
I00
sg9
I5
sg10
(lp2960
g1024
ag1118
asg26
I00
sg27
I00
sg28
I2838652
sg20
S'5408.77287504'
p2961
sba(igraph
Edge
p2962
(dp2963
g7
I1
sg8
I00
sg9
I5
sg10
(lp2964
g1027
ag1118
asg26
I00
sg27
I00
sg28
I2838653
sg20
S'5408.7853839'
p2965
sba(igraph
Edge
p2966
(dp2967
g7
I1
sg8
I00
sg9
I5
sg10
(lp2968
g1034
ag1132
asg26
I00
sg27
I00
sg28
I2838654
sg20
S'5408.79789862'
p2969
sba(igraph
Edge
p2970
(dp2971
g7
I1
sg8
I00
sg9
I5
sg10
(lp2972
g1041
ag1132
asg26
I00
sg27
I00
sg28
I2838655
sg20
S'5408.81030829'
p2973
sba(igraph
Edge
p2974
(dp2975
g7
I1
sg8
I00
sg9
I5
sg10
(lp2976
g1048
ag1146
asg26
I00
sg27
I00
sg28
I2838656
sg20
S'5408.82272551'
p2977
sba(igraph
Edge
p2978
(dp2979
g7
I1
sg8
I00
sg9
I5
sg10
(lp2980
g1055
ag1146
asg26
I00
sg27
I00
sg28
I2838657
sg20
S'5408.83514581'
p2981
sba(igraph
Edge
p2982
(dp2983
g7
I1
sg8
I00
sg9
I5
sg10
(lp2984
g1062
ag1160
asg26
I00
sg27
I00
sg28
I2838658
sg20
S'5408.84751135'
p2985
sba(igraph
Edge
p2986
(dp2987
g7
I1
sg8
I00
sg9
I5
sg10
(lp2988
g1069
ag1160
asg26
I00
sg27
I00
sg28
I2838659
sg20
S'5408.86024732'
p2989
sba(igraph
Edge
p2990
(dp2991
g7
I1
sg8
I00
sg9
I5
sg10
(lp2992
g1076
ag1174
asg26
I00
sg27
I00
sg28
I2838660
sg20
S'5408.87276595'
p2993
sba(igraph
Edge
p2994
(dp2995
g7
I1
sg8
I00
sg9
I5
sg10
(lp2996
g1083
ag1174
asg26
I00
sg27
I00
sg28
I2838661
sg20
S'5408.88531727'
p2997
sba(igraph
Edge
p2998
(dp2999
g7
I1
sg8
I00
sg9
I5
sg10
(lp3000
g1090
ag1188
asg26
I00
sg27
I00
sg28
I2838662
sg20
S'5408.89806498'
p3001
sba(igraph
Edge
p3002
(dp3003
g7
I1
sg8
I00
sg9
I5
sg10
(lp3004
g1097
ag1188
asg26
I00
sg27
I00
sg28
I2838663
sg20
S'5408.91057048'
p3005
sba(igraph
Edge
p3006
(dp3007
g7
I1
sg8
I00
sg9
I5
sg10
(lp3008
g1104
ag1115
asg26
I00
sg27
I00
sg28
I2838664
sg20
S'5408.92320923'
p3009
sba(igraph
Edge
p3010
(dp3011
g7
I1
sg8
I00
sg9
I5
sg10
(lp3012
g1115
ag1206
asg26
I00
sg27
I00
sg28
I2838665
sg20
S'5408.93583626'
p3013
sba(igraph
Edge
p3014
(dp3015
g7
I1
sg8
I00
sg9
I5
sg10
(lp3016
g1118
ag1216
asg26
I00
sg27
I00
sg28
I2838666
sg20
S'5408.94846468'
p3017
sba(igraph
Edge
p3018
(dp3019
g7
I1
sg8
I00
sg9
I5
sg10
(lp3020
g1125
ag1216
asg26
I00
sg27
I00
sg28
I2838667
sg20
S'5408.96115707'
p3021
sba(igraph
Edge
p3022
(dp3023
g7
I1
sg8
I00
sg9
I5
sg10
(lp3024
g1132
ag1230
asg26
I00
sg27
I00
sg28
I2838668
sg20
S'5408.97379527'
p3025
sba(igraph
Edge
p3026
(dp3027
g7
I1
sg8
I00
sg9
I5
sg10
(lp3028
g1139
ag1230
asg26
I00
sg27
I00
sg28
I2838669
sg20
S'5408.98636866'
p3029
sba(igraph
Edge
p3030
(dp3031
g7
I1
sg8
I00
sg9
I5
sg10
(lp3032
g1146
ag1244
asg26
I00
sg27
I00
sg28
I2838670
sg20
S'5408.99916079'
p3033
sba(igraph
Edge
p3034
(dp3035
g7
I1
sg8
I00
sg9
I5
sg10
(lp3036
g1153
ag1244
asg26
I00
sg27
I00
sg28
I2838671
sg20
S'5409.01207584'
p3037
sba(igraph
Edge
p3038
(dp3039
g7
I1
sg8
I00
sg9
I5
sg10
(lp3040
g1160
ag1258
asg26
I00
sg27
I00
sg28
I2838672
sg20
S'5409.02480762'
p3041
sba(igraph
Edge
p3042
(dp3043
g7
I1
sg8
I00
sg9
I5
sg10
(lp3044
g1167
ag1258
asg26
I00
sg27
I00
sg28
I2838673
sg20
S'5409.0378671'
p3045
sba(igraph
Edge
p3046
(dp3047
g7
I1
sg8
I00
sg9
I5
sg10
(lp3048
g1174
ag1272
asg26
I00
sg27
I00
sg28
I2838674
sg20
S'5409.05081875'
p3049
sba(igraph
Edge
p3050
(dp3051
g7
I1
sg8
I00
sg9
I5
sg10
(lp3052
g1181
ag1272
asg26
I00
sg27
I00
sg28
I2838675
sg20
S'5409.06402322'
p3053
sba(igraph
Edge
p3054
(dp3055
g7
I1
sg8
I00
sg9
I5
sg10
(lp3056
g1188
ag1286
asg26
I00
sg27
I00
sg28
I2838676
sg20
S'5409.07700169'
p3057
sba(igraph
Edge
p3058
(dp3059
g7
I1
sg8
I00
sg9
I5
sg10
(lp3060
g1195
ag1286
asg26
I00
sg27
I00
sg28
I2838677
sg20
S'5409.08999133'
p3061
sba(igraph
Edge
p3062
(dp3063
g7
I1
sg8
I00
sg9
I5
sg10
(lp3064
g1115
ag1209
asg26
I00
sg27
I00
sg28
I2838678
sg20
S'5409.10331201'
p3065
sba(igraph
Edge
p3066
(dp3067
g7
I1
sg8
I00
sg9
I5
sg10
(lp3068
g1118
ag1209
asg26
I00
sg27
I00
sg28
I2838679
sg20
S'5409.11628014'
p3069
sba(igraph
Edge
p3070
(dp3071
g7
I1
sg8
I00
sg9
I5
sg10
(lp3072
g1125
ag1223
asg26
I00
sg27
I00
sg28
I2838680
sg20
S'5409.12930135'
p3073
sba(igraph
Edge
p3074
(dp3075
g7
I1
sg8
I00
sg9
I5
sg10
(lp3076
g1132
ag1223
asg26
I00
sg27
I00
sg28
I2838681
sg20
S'5409.14247677'
p3077
sba(igraph
Edge
p3078
(dp3079
g7
I1
sg8
I00
sg9
I5
sg10
(lp3080
g1139
ag1237
asg26
I00
sg27
I00
sg28
I2838682
sg20
S'5409.15536192'
p3081
sba(igraph
Edge
p3082
(dp3083
g7
I1
sg8
I00
sg9
I5
sg10
(lp3084
g1146
ag1237
asg26
I00
sg27
I00
sg28
I2838683
sg20
S'5409.16874435'
p3085
sba(igraph
Edge
p3086
(dp3087
g7
I1
sg8
I00
sg9
I5
sg10
(lp3088
g1153
ag1251
asg26
I00
sg27
I00
sg28
I2838684
sg20
S'5409.18183205'
p3089
sba(igraph
Edge
p3090
(dp3091
g7
I1
sg8
I00
sg9
I5
sg10
(lp3092
g1160
ag1251
asg26
I00
sg27
I00
sg28
I2838685
sg20
S'5409.19485493'
p3093
sba(igraph
Edge
p3094
(dp3095
g7
I1
sg8
I00
sg9
I5
sg10
(lp3096
g1167
ag1265
asg26
I00
sg27
I00
sg28
I2838686
sg20
S'5409.20791693'
p3097
sba(igraph
Edge
p3098
(dp3099
g7
I1
sg8
I00
sg9
I5
sg10
(lp3100
g1174
ag1265
asg26
I00
sg27
I00
sg28
I2838687
sg20
S'5409.22094177'
p3101
sba(igraph
Edge
p3102
(dp3103
g7
I1
sg8
I00
sg9
I5
sg10
(lp3104
g1181
ag1279
asg26
I00
sg27
I00
sg28
I2838688
sg20
S'5409.23407891'
p3105
sba(igraph
Edge
p3106
(dp3107
g7
I1
sg8
I00
sg9
I5
sg10
(lp3108
g1188
ag1279
asg26
I00
sg27
I00
sg28
I2838689
sg20
S'5409.24785916'
p3109
sba(igraph
Edge
p3110
(dp3111
g7
I1
sg8
I00
sg9
I5
sg10
(lp3112
g1195
ag1206
asg26
I00
sg27
I00
sg28
I2838690
sg20
S'5409.26104491'
p3113
sba(igraph
Edge
p3114
(dp3115
g7
I1
sg8
I00
sg9
I5
sg10
(lp3116
g1206
ag1297
asg26
I00
sg27
I00
sg28
I2838691
sg20
S'5409.27417172'
p3117
sba(igraph
Edge
p3118
(dp3119
g7
I1
sg8
I00
sg9
I5
sg10
(lp3120
g1209
ag1307
asg26
I00
sg27
I00
sg28
I2838692
sg20
S'5409.28733624'
p3121
sba(igraph
Edge
p3122
(dp3123
g7
I1
sg8
I00
sg9
I5
sg10
(lp3124
g1216
ag1307
asg26
I00
sg27
I00
sg28
I2838693
sg20
S'5409.30062648'
p3125
sba(igraph
Edge
p3126
(dp3127
g7
I1
sg8
I00
sg9
I5
sg10
(lp3128
g1223
ag1321
asg26
I00
sg27
I00
sg28
I2838694
sg20
S'5409.31418071'
p3129
sba(igraph
Edge
p3130
(dp3131
g7
I1
sg8
I00
sg9
I5
sg10
(lp3132
g1230
ag1321
asg26
I00
sg27
I00
sg28
I2838695
sg20
S'5409.32736926'
p3133
sba(igraph
Edge
p3134
(dp3135
g7
I1
sg8
I00
sg9
I5
sg10
(lp3136
g1237
ag1335
asg26
I00
sg27
I00
sg28
I2838696
sg20
S'5409.34041868'
p3137
sba(igraph
Edge
p3138
(dp3139
g7
I1
sg8
I00
sg9
I5
sg10
(lp3140
g1244
ag1335
asg26
I00
sg27
I00
sg28
I2838697
sg20
S'5409.35358125'
p3141
sba(igraph
Edge
p3142
(dp3143
g7
I1
sg8
I00
sg9
I5
sg10
(lp3144
g1251
ag1349
asg26
I00
sg27
I00
sg28
I2838698
sg20
S'5409.36681645'
p3145
sba(igraph
Edge
p3146
(dp3147
g7
I1
sg8
I00
sg9
I5
sg10
(lp3148
g1258
ag1349
asg26
I00
sg27
I00
sg28
I2838699
sg20
S'5409.37999969'
p3149
sba(igraph
Edge
p3150
(dp3151
g7
I1
sg8
I00
sg9
I5
sg10
(lp3152
g1265
ag1363
asg26
I00
sg27
I00
sg28
I2838700
sg20
S'5409.39333686'
p3153
sba(igraph
Edge
p3154
(dp3155
g7
I1
sg8
I00
sg9
I5
sg10
(lp3156
g1272
ag1363
asg26
I00
sg27
I00
sg28
I2838701
sg20
S'5409.40726629'
p3157
sba(igraph
Edge
p3158
(dp3159
g7
I1
sg8
I00
sg9
I5
sg10
(lp3160
g1279
ag1377
asg26
I00
sg27
I00
sg28
I2838702
sg20
S'5409.42099876'
p3161
sba(igraph
Edge
p3162
(dp3163
g7
I1
sg8
I00
sg9
I5
sg10
(lp3164
g1286
ag1377
asg26
I00
sg27
I00
sg28
I2838703
sg20
S'5409.43496673'
p3165
sba(igraph
Edge
p3166
(dp3167
g7
I1
sg8
I00
sg9
I5
sg10
(lp3168
g1206
ag1300
asg26
I00
sg27
I00
sg28
I2838704
sg20
S'5409.44853745'
p3169
sba(igraph
Edge
p3170
(dp3171
g7
I1
sg8
I00
sg9
I5
sg10
(lp3172
g1209
ag1300
asg26
I00
sg27
I00
sg28
I2838705
sg20
S'5409.46211627'
p3173
sba(igraph
Edge
p3174
(dp3175
g7
I1
sg8
I00
sg9
I5
sg10
(lp3176
g1216
ag1314
asg26
I00
sg27
I00
sg28
I2838706
sg20
S'5409.47570683'
p3177
sba(igraph
Edge
p3178
(dp3179
g7
I1
sg8
I00
sg9
I5
sg10
(lp3180
g1223
ag1314
asg26
I00
sg27
I00
sg28
I2838707
sg20
S'5409.48938203'
p3181
sba(igraph
Edge
p3182
(dp3183
g7
I1
sg8
I00
sg9
I5
sg10
(lp3184
g1230
ag1328
asg26
I00
sg27
I00
sg28
I2838708
sg20
S'5409.50301561'
p3185
sba(igraph
Edge
p3186
(dp3187
g7
I1
sg8
I00
sg9
I5
sg10
(lp3188
g1237
ag1328
asg26
I00
sg27
I00
sg28
I2838709
sg20
S'5409.51718361'
p3189
sba(igraph
Edge
p3190
(dp3191
g7
I1
sg8
I00
sg9
I5
sg10
(lp3192
g1244
ag1342
asg26
I00
sg27
I00
sg28
I2838710
sg20
S'5409.53101945'
p3193
sba(igraph
Edge
p3194
(dp3195
g7
I1
sg8
I00
sg9
I5
sg10
(lp3196
g1251
ag1342
asg26
I00
sg27
I00
sg28
I2838711
sg20
S'5409.54461698'
p3197
sba(igraph
Edge
p3198
(dp3199
g7
I1
sg8
I00
sg9
I5
sg10
(lp3200
g1258
ag1356
asg26
I00
sg27
I00
sg28
I2838712
sg20
S'5409.55824749'
p3201
sba(igraph
Edge
p3202
(dp3203
g7
I1
sg8
I00
sg9
I5
sg10
(lp3204
g1265
ag1356
asg26
I00
sg27
I00
sg28
I2838713
sg20
S'5409.57185229'
p3205
sba(igraph
Edge
p3206
(dp3207
g7
I1
sg8
I00
sg9
I5
sg10
(lp3208
g1272
ag1370
asg26
I00
sg27
I00
sg28
I2838714
sg20
S'5409.58572947'
p3209
sba(igraph
Edge
p3210
(dp3211
g7
I1
sg8
I00
sg9
I5
sg10
(lp3212
g1279
ag1370
asg26
I00
sg27
I00
sg28
I2838715
sg20
S'5409.59945161'
p3213
sba(igraph
Edge
p3214
(dp3215
g7
I1
sg8
I00
sg9
I5
sg10
(lp3216
g1286
ag1297
asg26
I00
sg27
I00
sg28
I2838716
sg20
S'5409.61313798'
p3217
sba(igraph
Edge
p3218
(dp3219
g7
I1
sg8
I00
sg9
I5
sg10
(lp3220
g1297
ag1388
asg26
I00
sg27
I00
sg28
I2838717
sg20
S'5409.62672965'
p3221
sba(igraph
Edge
p3222
(dp3223
g7
I1
sg8
I00
sg9
I5
sg10
(lp3224
g1300
ag1398
asg26
I00
sg27
I00
sg28
I2838718
sg20
S'5409.64048559'
p3225
sba(igraph
Edge
p3226
(dp3227
g7
I1
sg8
I00
sg9
I5
sg10
(lp3228
g1307
ag1398
asg26
I00
sg27
I00
sg28
I2838719
sg20
S'5409.6540091'
p3229
sba(igraph
Edge
p3230
(dp3231
g7
I1
sg8
I00
sg9
I5
sg10
(lp3232
g1314
ag1412
asg26
I00
sg27
I00
sg28
I2838720
sg20
S'5409.66771084'
p3233
sba(igraph
Edge
p3234
(dp3235
g7
I1
sg8
I00
sg9
I5
sg10
(lp3236
g1321
ag1412
asg26
I00
sg27
I00
sg28
I2838721
sg20
S'5409.68149472'
p3237
sba(igraph
Edge
p3238
(dp3239
g7
I1
sg8
I00
sg9
I5
sg10
(lp3240
g1328
ag1426
asg26
I00
sg27
I00
sg28
I2838722
sg20
S'5409.69547135'
p3241
sba(igraph
Edge
p3242
(dp3243
g7
I1
sg8
I00
sg9
I5
sg10
(lp3244
g1335
ag1426
asg26
I00
sg27
I00
sg28
I2838723
sg20
S'5409.70987961'
p3245
sba(igraph
Edge
p3246
(dp3247
g7
I1
sg8
I00
sg9
I5
sg10
(lp3248
g1342
ag1440
asg26
I00
sg27
I00
sg28
I2838724
sg20
S'5409.72402247'
p3249
sba(igraph
Edge
p3250
(dp3251
g7
I1
sg8
I00
sg9
I5
sg10
(lp3252
g1349
ag1440
asg26
I00
sg27
I00
sg28
I2838725
sg20
S'5409.73800469'
p3253
sba(igraph
Edge
p3254
(dp3255
g7
I1
sg8
I00
sg9
I5
sg10
(lp3256
g1356
ag1454
asg26
I00
sg27
I00
sg28
I2838726
sg20
S'5409.75213861'
p3257
sba(igraph
Edge
p3258
(dp3259
g7
I1
sg8
I00
sg9
I5
sg10
(lp3260
g1363
ag1454
asg26
I00
sg27
I00
sg28
I2838727
sg20
S'5409.76609821'
p3261
sba(igraph
Edge
p3262
(dp3263
g7
I1
sg8
I00
sg9
I5
sg10
(lp3264
g1370
ag1468
asg26
I00
sg27
I00
sg28
I2838728
sg20
S'5409.7800659'
p3265
sba(igraph
Edge
p3266
(dp3267
g7
I1
sg8
I00
sg9
I5
sg10
(lp3268
g1377
ag1468
asg26
I00
sg27
I00
sg28
I2838729
sg20
S'5409.79456523'
p3269
sba(igraph
Edge
p3270
(dp3271
g7
I1
sg8
I00
sg9
I5
sg10
(lp3272
g1297
ag1391
asg26
I00
sg27
I00
sg28
I2838730
sg20
S'5409.80866339'
p3273
sba(igraph
Edge
p3274
(dp3275
g7
I1
sg8
I00
sg9
I5
sg10
(lp3276
g1300
ag1391
asg26
I00
sg27
I00
sg28
I2838731
sg20
S'5409.82258164'
p3277
sba(igraph
Edge
p3278
(dp3279
g7
I1
sg8
I00
sg9
I5
sg10
(lp3280
g1307
ag1405
asg26
I00
sg27
I00
sg28
I2838732
sg20
S'5409.8365946'
p3281
sba(igraph
Edge
p3282
(dp3283
g7
I1
sg8
I00
sg9
I5
sg10
(lp3284
g1314
ag1405
asg26
I00
sg27
I00
sg28
I2838733
sg20
S'5409.85057458'
p3285
sba(igraph
Edge
p3286
(dp3287
g7
I1
sg8
I00
sg9
I5
sg10
(lp3288
g1321
ag1419
asg26
I00
sg27
I00
sg28
I2838734
sg20
S'5409.86475767'
p3289
sba(igraph
Edge
p3290
(dp3291
g7
I1
sg8
I00
sg9
I5
sg10
(lp3292
g1328
ag1419
asg26
I00
sg27
I00
sg28
I2838735
sg20
S'5409.87894299'
p3293
sba(igraph
Edge
p3294
(dp3295
g7
I1
sg8
I00
sg9
I5
sg10
(lp3296
g1335
ag1433
asg26
I00
sg27
I00
sg28
I2838736
sg20
S'5409.89311016'
p3297
sba(igraph
Edge
p3298
(dp3299
g7
I1
sg8
I00
sg9
I5
sg10
(lp3300
g1342
ag1433
asg26
I00
sg27
I00
sg28
I2838737
sg20
S'5409.90738627'
p3301
sba(igraph
Edge
p3302
(dp3303
g7
I1
sg8
I00
sg9
I5
sg10
(lp3304
g1349
ag1447
asg26
I00
sg27
I00
sg28
I2838738
sg20
S'5409.92156154'
p3305
sba(igraph
Edge
p3306
(dp3307
g7
I1
sg8
I00
sg9
I5
sg10
(lp3308
g1356
ag1447
asg26
I00
sg27
I00
sg28
I2838739
sg20
S'5409.9359765'
p3309
sba(igraph
Edge
p3310
(dp3311
g7
I1
sg8
I00
sg9
I5
sg10
(lp3312
g1363
ag1461
asg26
I00
sg27
I00
sg28
I2838740
sg20
S'5409.95018445'
p3313
sba(igraph
Edge
p3314
(dp3315
g7
I1
sg8
I00
sg9
I5
sg10
(lp3316
g1370
ag1461
asg26
I00
sg27
I00
sg28
I2838741
sg20
S'5409.96442397'
p3317
sba(igraph
Edge
p3318
(dp3319
g7
I1
sg8
I00
sg9
I5
sg10
(lp3320
g1377
ag1388
asg26
I00
sg27
I00
sg28
I2838742
sg20
S'5409.97885011'
p3321
sba(igraph
Edge
p3322
(dp3323
g7
I1
sg8
I00
sg9
I5
sg10
(lp3324
g1388
ag1479
asg26
I00
sg27
I00
sg28
I2838743
sg20
S'5409.99325808'
p3325
sba(igraph
Edge
p3326
(dp3327
g7
I1
sg8
I00
sg9
I5
sg10
(lp3328
g1391
ag1489
asg26
I00
sg27
I00
sg28
I2838744
sg20
S'5410.00774037'
p3329
sba(igraph
Edge
p3330
(dp3331
g7
I1
sg8
I00
sg9
I5
sg10
(lp3332
g1398
ag1489
asg26
I00
sg27
I00
sg28
I2838745
sg20
S'5410.02245202'
p3333
sba(igraph
Edge
p3334
(dp3335
g7
I1
sg8
I00
sg9
I5
sg10
(lp3336
g1405
ag1503
asg26
I00
sg27
I00
sg28
I2838746
sg20
S'5410.03670606'
p3337
sba(igraph
Edge
p3338
(dp3339
g7
I1
sg8
I00
sg9
I5
sg10
(lp3340
g1412
ag1503
asg26
I00
sg27
I00
sg28
I2838747
sg20
S'5410.05100509'
p3341
sba(igraph
Edge
p3342
(dp3343
g7
I1
sg8
I00
sg9
I5
sg10
(lp3344
g1419
ag1517
asg26
I00
sg27
I00
sg28
I2838748
sg20
S'5410.06551112'
p3345
sba(igraph
Edge
p3346
(dp3347
g7
I1
sg8
I00
sg9
I5
sg10
(lp3348
g1426
ag1517
asg26
I00
sg27
I00
sg28
I2838749
sg20
S'5410.08012191'
p3349
sba(igraph
Edge
p3350
(dp3351
g7
I1
sg8
I00
sg9
I5
sg10
(lp3352
g1433
ag1531
asg26
I00
sg27
I00
sg28
I2838750
sg20
S'5410.09509309'
p3353
sba(igraph
Edge
p3354
(dp3355
g7
I1
sg8
I00
sg9
I5
sg10
(lp3356
g1440
ag1531
asg26
I00
sg27
I00
sg28
I2838751
sg20
S'5410.10941223'
p3357
sba(igraph
Edge
p3358
(dp3359
g7
I1
sg8
I00
sg9
I5
sg10
(lp3360
g1447
ag1545
asg26
I00
sg27
I00
sg28
I2838752
sg20
S'5410.12981035'
p3361
sba(igraph
Edge
p3362
(dp3363
g7
I1
sg8
I00
sg9
I5
sg10
(lp3364
g1454
ag1545
asg26
I00
sg27
I00
sg28
I2838753
sg20
S'5410.14831243'
p3365
sba(igraph
Edge
p3366
(dp3367
g7
I1
sg8
I00
sg9
I5
sg10
(lp3368
g1461
ag1559
asg26
I00
sg27
I00
sg28
I2838754
sg20
S'5410.16494722'
p3369
sba(igraph
Edge
p3370
(dp3371
g7
I1
sg8
I00
sg9
I5
sg10
(lp3372
g1468
ag1559
asg26
I00
sg27
I00
sg28
I2838755
sg20
S'5410.18828594'
p3373
sba(igraph
Edge
p3374
(dp3375
g7
I1
sg8
I00
sg9
I5
sg10
(lp3376
g1388
ag1482
asg26
I00
sg27
I00
sg28
I2838756
sg20
S'5410.20583175'
p3377
sba(igraph
Edge
p3378
(dp3379
g7
I1
sg8
I00
sg9
I5
sg10
(lp3380
g1391
ag1482
asg26
I00
sg27
I00
sg28
I2838757
sg20
S'5410.22348203'
p3381
sba(igraph
Edge
p3382
(dp3383
g7
I1
sg8
I00
sg9
I5
sg10
(lp3384
g1398
ag1496
asg26
I00
sg27
I00
sg28
I2838758
sg20
S'5410.23855294'
p3385
sba(igraph
Edge
p3386
(dp3387
g7
I1
sg8
I00
sg9
I5
sg10
(lp3388
g1405
ag1496
asg26
I00
sg27
I00
sg28
I2838759
sg20
S'5410.25339617'
p3389
sba(igraph
Edge
p3390
(dp3391
g7
I1
sg8
I00
sg9
I5
sg10
(lp3392
g1412
ag1510
asg26
I00
sg27
I00
sg28
I2838760
sg20
S'5410.26812262'
p3393
sba(igraph
Edge
p3394
(dp3395
g7
I1
sg8
I00
sg9
I5
sg10
(lp3396
g1419
ag1510
asg26
I00
sg27
I00
sg28
I2838761
sg20
S'5410.28293708'
p3397
sba(igraph
Edge
p3398
(dp3399
g7
I1
sg8
I00
sg9
I5
sg10
(lp3400
g1426
ag1524
asg26
I00
sg27
I00
sg28
I2838762
sg20
S'5410.2979387'
p3401
sba(igraph
Edge
p3402
(dp3403
g7
I1
sg8
I00
sg9
I5
sg10
(lp3404
g1433
ag1524
asg26
I00
sg27
I00
sg28
I2838763
sg20
S'5410.31280372'
p3405
sba(igraph
Edge
p3406
(dp3407
g7
I1
sg8
I00
sg9
I5
sg10
(lp3408
g1440
ag1538
asg26
I00
sg27
I00
sg28
I2838764
sg20
S'5410.32740223'
p3409
sba(igraph
Edge
p3410
(dp3411
g7
I1
sg8
I00
sg9
I5
sg10
(lp3412
g1447
ag1538
asg26
I00
sg27
I00
sg28
I2838765
sg20
S'5410.34223372'
p3413
sba(igraph
Edge
p3414
(dp3415
g7
I1
sg8
I00
sg9
I5
sg10
(lp3416
g1454
ag1552
asg26
I00
sg27
I00
sg28
I2838766
sg20
S'5410.35709678'
p3417
sba(igraph
Edge
p3418
(dp3419
g7
I1
sg8
I00
sg9
I5
sg10
(lp3420
g1461
ag1552
asg26
I00
sg27
I00
sg28
I2838767
sg20
S'5410.37202885'
p3421
sba(igraph
Edge
p3422
(dp3423
g7
I1
sg8
I00
sg9
I5
sg10
(lp3424
g1468
ag1479
asg26
I00
sg27
I00
sg28
I2838768
sg20
S'5410.38697656'
p3425
sba(igraph
Edge
p3426
(dp3427
g7
I1
sg8
I00
sg9
I5
sg10
(lp3428
g1479
ag1570
asg26
I00
sg27
I00
sg28
I2838769
sg20
S'5410.40464417'
p3429
sba(igraph
Edge
p3430
(dp3431
g7
I1
sg8
I00
sg9
I5
sg10
(lp3432
g1482
ag1580
asg26
I00
sg27
I00
sg28
I2838770
sg20
S'5410.42168404'
p3433
sba(igraph
Edge
p3434
(dp3435
g7
I1
sg8
I00
sg9
I5
sg10
(lp3436
g1489
ag1580
asg26
I00
sg27
I00
sg28
I2838771
sg20
S'5410.43722931'
p3437
sba(igraph
Edge
p3438
(dp3439
g7
I1
sg8
I00
sg9
I5
sg10
(lp3440
g1496
ag1594
asg26
I00
sg27
I00
sg28
I2838772
sg20
S'5410.45305171'
p3441
sba(igraph
Edge
p3442
(dp3443
g7
I1
sg8
I00
sg9
I5
sg10
(lp3444
g1503
ag1594
asg26
I00
sg27
I00
sg28
I2838773
sg20
S'5410.46919092'
p3445
sba(igraph
Edge
p3446
(dp3447
g7
I1
sg8
I00
sg9
I5
sg10
(lp3448
g1510
ag1608
asg26
I00
sg27
I00
sg28
I2838774
sg20
S'5410.48634645'
p3449
sba(igraph
Edge
p3450
(dp3451
g7
I1
sg8
I00
sg9
I5
sg10
(lp3452
g1517
ag1608
asg26
I00
sg27
I00
sg28
I2838775
sg20
S'5410.50296756'
p3453
sba(igraph
Edge
p3454
(dp3455
g7
I1
sg8
I00
sg9
I5
sg10
(lp3456
g1524
ag1622
asg26
I00
sg27
I00
sg28
I2838776
sg20
S'5410.5192713'
p3457
sba(igraph
Edge
p3458
(dp3459
g7
I1
sg8
I00
sg9
I5
sg10
(lp3460
g1531
ag1622
asg26
I00
sg27
I00
sg28
I2838777
sg20
S'5410.53567115'
p3461
sba(igraph
Edge
p3462
(dp3463
g7
I1
sg8
I00
sg9
I5
sg10
(lp3464
g1538
ag1636
asg26
I00
sg27
I00
sg28
I2838778
sg20
S'5410.55598212'
p3465
sba(igraph
Edge
p3466
(dp3467
g7
I1
sg8
I00
sg9
I5
sg10
(lp3468
g1545
ag1636
asg26
I00
sg27
I00
sg28
I2838779
sg20
S'5410.57242666'
p3469
sba(igraph
Edge
p3470
(dp3471
g7
I1
sg8
I00
sg9
I5
sg10
(lp3472
g1552
ag1650
asg26
I00
sg27
I00
sg28
I2838780
sg20
S'5410.59509435'
p3473
sba(igraph
Edge
p3474
(dp3475
g7
I1
sg8
I00
sg9
I5
sg10
(lp3476
g1559
ag1650
asg26
I00
sg27
I00
sg28
I2838781
sg20
S'5410.61472031'
p3477
sba(igraph
Edge
p3478
(dp3479
g7
I1
sg8
I00
sg9
I5
sg10
(lp3480
g1479
ag1573
asg26
I00
sg27
I00
sg28
I2838782
sg20
S'5410.63308046'
p3481
sba(igraph
Edge
p3482
(dp3483
g7
I1
sg8
I00
sg9
I5
sg10
(lp3484
g1482
ag1573
asg26
I00
sg27
I00
sg28
I2838783
sg20
S'5410.65166104'
p3485
sba(igraph
Edge
p3486
(dp3487
g7
I1
sg8
I00
sg9
I5
sg10
(lp3488
g1489
ag1587
asg26
I00
sg27
I00
sg28
I2838784
sg20
S'5410.66849865'
p3489
sba(igraph
Edge
p3490
(dp3491
g7
I1
sg8
I00
sg9
I5
sg10
(lp3492
g1496
ag1587
asg26
I00
sg27
I00
sg28
I2838785
sg20
S'5410.68598551'
p3493
sba(igraph
Edge
p3494
(dp3495
g7
I1
sg8
I00
sg9
I5
sg10
(lp3496
g1503
ag1601
asg26
I00
sg27
I00
sg28
I2838786
sg20
S'5410.70957482'
p3497
sba(igraph
Edge
p3498
(dp3499
g7
I1
sg8
I00
sg9
I5
sg10
(lp3500
g1510
ag1601
asg26
I00
sg27
I00
sg28
I2838787
sg20
S'5410.72887085'
p3501
sba(igraph
Edge
p3502
(dp3503
g7
I1
sg8
I00
sg9
I5
sg10
(lp3504
g1517
ag1615
asg26
I00
sg27
I00
sg28
I2838788
sg20
S'5410.74835182'
p3505
sba(igraph
Edge
p3506
(dp3507
g7
I1
sg8
I00
sg9
I5
sg10
(lp3508
g1524
ag1615
asg26
I00
sg27
I00
sg28
I2838789
sg20
S'5410.76537884'
p3509
sba(igraph
Edge
p3510
(dp3511
g7
I1
sg8
I00
sg9
I5
sg10
(lp3512
g1531
ag1629
asg26
I00
sg27
I00
sg28
I2838790
sg20
S'5410.78232401'
p3513
sba(igraph
Edge
p3514
(dp3515
g7
I1
sg8
I00
sg9
I5
sg10
(lp3516
g1538
ag1629
asg26
I00
sg27
I00
sg28
I2838791
sg20
S'5410.79925577'
p3517
sba(igraph
Edge
p3518
(dp3519
g7
I1
sg8
I00
sg9
I5
sg10
(lp3520
g1545
ag1643
asg26
I00
sg27
I00
sg28
I2838792
sg20
S'5410.81624089'
p3521
sba(igraph
Edge
p3522
(dp3523
g7
I1
sg8
I00
sg9
I5
sg10
(lp3524
g1552
ag1643
asg26
I00
sg27
I00
sg28
I2838793
sg20
S'5410.83337547'
p3525
sba(igraph
Edge
p3526
(dp3527
g7
I1
sg8
I00
sg9
I5
sg10
(lp3528
g1559
ag1570
asg26
I00
sg27
I00
sg28
I2838794
sg20
S'5410.85087686'
p3529
sbasS'vertices'
p3530
(lp3531
g12
ag23
ag33
ag40
ag47
ag54
ag61
ag68
ag75
ag82
ag89
ag96
ag103
ag114
ag117
ag124
ag131
ag138
ag145
ag152
ag159
ag166
ag173
ag180
ag187
ag194
ag205
ag208
ag215
ag222
ag229
ag236
ag243
ag250
ag257
ag264
ag271
ag278
ag285
ag296
ag299
ag306
ag313
ag320
ag327
ag334
ag341
ag348
ag355
ag362
ag369
ag376
ag387
ag390
ag397
ag404
ag411
ag418
ag425
ag432
ag439
ag446
ag453
ag460
ag467
ag478
ag481
ag488
ag495
ag502
ag509
ag516
ag523
ag530
ag537
ag544
ag551
ag558
ag569
ag572
ag579
ag586
ag593
ag600
ag607
ag614
ag621
ag628
ag635
ag642
ag649
ag660
ag663
ag670
ag677
ag684
ag691
ag698
ag705
ag712
ag719
ag726
ag733
ag740
ag751
ag754
ag761
ag768
ag775
ag782
ag789
ag796
ag803
ag810
ag817
ag824
ag831
ag842
ag845
ag852
ag859
ag866
ag873
ag880
ag887
ag894
ag901
ag908
ag915
ag922
ag933
ag936
ag943
ag950
ag957
ag964
ag971
ag978
ag985
ag992
ag999
ag1006
ag1013
ag1024
ag1027
ag1034
ag1041
ag1048
ag1055
ag1062
ag1069
ag1076
ag1083
ag1090
ag1097
ag1104
ag1115
ag1118
ag1125
ag1132
ag1139
ag1146
ag1153
ag1160
ag1167
ag1174
ag1181
ag1188
ag1195
ag1206
ag1209
ag1216
ag1223
ag1230
ag1237
ag1244
ag1251
ag1258
ag1265
ag1272
ag1279
ag1286
ag1297
ag1300
ag1307
ag1314
ag1321
ag1328
ag1335
ag1342
ag1349
ag1356
ag1363
ag1370
ag1377
ag1388
ag1391
ag1398
ag1405
ag1412
ag1419
ag1426
ag1433
ag1440
ag1447
ag1454
ag1461
ag1468
ag1479
ag1482
ag1489
ag1496
ag1503
ag1510
ag1517
ag1524
ag1531
ag1538
ag1545
ag1552
ag1559
ag1570
ag1573
ag1580
ag1587
ag1594
ag1601
ag1608
ag1615
ag1622
ag1629
ag1636
ag1643
ag1650
asS'tags'
p3532
(lp3533
sb.