(igraph
Graph
p0
(dp1
S'labelingConstraints'
p2
I-1
sS'edges'
p3
(lp4
(igraph
Edge
p5
(dp6
S'direction'
p7
I1
sS'selected'
p8
I00
sS'height'
p9
I5
sS'vs'
p10
(lp11
(igraph
Vertex
p12
(dp13
S'xnorm'
p14
F0.16666666666666671
sg8
I00
sS'label'
p15
S'NULL'
p16
sS'y'
p17
F-308.0
sS'x'
p18
F132.33333333333331
sS'circle'
p19
I3768090
sS'id'
p20
S'9314.88419366'
p21
sS'ynorm'
p22
F0.0
sba(igraph
Vertex
p23
(dp24
g14
F0.33333333333333343
sg8
I00
sg15
g16
sg17
F-308.0
sg18
F4.6666666666666003
sg19
I3768091
sg20
S'9314.88423752'
p25
sg22
F0.0
sbasS'wrap'
p26
I00
sS'curved'
p27
I00
sS'line'
p28
I3767766
sg20
S'9314.9830931'
p29
sba(igraph
Edge
p30
(dp31
g7
I1
sg8
I00
sg9
I5
sg10
(lp32
g23
a(igraph
Vertex
p33
(dp34
g14
F0.50000000000000011
sg8
I00
sg15
g16
sg17
F-308.0
sg18
F-123.00000000000006
sg19
I3768092
sg20
S'9314.88429256'
p35
sg22
F0.0
sbasg26
I00
sg27
I00
sg28
I3767767
sg20
S'9314.9831716'
p36
sba(igraph
Edge
p37
(dp38
g7
I1
sg8
I00
sg9
I5
sg10
(lp39
g33
a(igraph
Vertex
p40
(dp41
g14
F0.66666666666666685
sg8
I00
sg15
g16
sg17
F-308.0
sg18
F-250.6666666666668
sg19
I3768093
sg20
S'9314.8843596'
p42
sg22
F0.0
sbasg26
I00
sg27
I00
sg28
I3767768
sg20
S'9314.98327078'
p43
sba(igraph
Edge
p44
(dp45
g7
I1
sg8
I00
sg9
I5
sg10
(lp46
g40
a(igraph
Vertex
p47
(dp48
g14
F0.83333333333333337
sg8
I00
sg15
g16
sg17
F-308.0
sg18
F-378.33333333333337
sg19
I3768094
sg20
S'9314.88444146'
p49
sg22
F0.0
sbasg26
I00
sg27
I00
sg28
I3767769
sg20
S'9314.98339146'
p50
sba(igraph
Edge
p51
(dp52
g7
I1
sg8
I00
sg9
I5
sg10
(lp53
g47
a(igraph
Vertex
p54
(dp55
g14
F1.0
sg8
I00
sg15
g16
sg17
F-308.0
sg18
F-506.0
sg19
I3768095
sg20
S'9314.88454007'
p56
sg22
F0.0
sbasg26
I00
sg27
I00
sg28
I3767770
sg20
S'9314.98353422'
p57
sba(igraph
Edge
p58
(dp59
g7
I1
sg8
I00
sg9
I5
sg10
(lp60
(igraph
Vertex
p61
(dp62
g14
F0.16666666666666671
sg8
I00
sg15
g16
sg17
F-273.63978494623655
sg18
F132.33333333333331
sg19
I3768096
sg20
S'9314.884782'
p63
sg22
F0.059139784946236548
sba(igraph
Vertex
p64
(dp65
g14
F0.33333333333333343
sg8
I00
sg15
g16
sg17
F-273.63978494623655
sg18
F4.6666666666666003
sg19
I3768097
sg20
S'9314.88492672'
p66
sg22
F0.059139784946236548
sbasg26
I00
sg27
I00
sg28
I3767771
sg20
S'9314.98414575'
p67
sba(igraph
Edge
p68
(dp69
g7
I1
sg8
I00
sg9
I5
sg10
(lp70
g64
a(igraph
Vertex
p71
(dp72
g14
F0.50000000000000011
sg8
I00
sg15
g16
sg17
F-273.63978494623655
sg18
F-123.00000000000006
sg19
I3768098
sg20
S'9314.88508763'
p73
sg22
F0.059139784946236548
sbasg26
I00
sg27
I00
sg28
I3767772
sg20
S'9314.98437455'
p74
sba(igraph
Edge
p75
(dp76
g7
I1
sg8
I00
sg9
I5
sg10
(lp77
g71
a(igraph
Vertex
p78
(dp79
g14
F0.66666666666666685
sg8
I01
sg15
I0
sg17
F-273.63978494623655
sg18
F-250.6666666666668
sg19
I3768100
sg20
S'9314.88526112'
p80
sg22
F0.059139784946236548
sbasg26
I00
sg27
I00
sg28
I3767773
sg20
S'9314.98463045'
p81
sba(igraph
Edge
p82
(dp83
g7
I1
sg8
I00
sg9
I5
sg10
(lp84
g78
a(igraph
Vertex
p85
(dp86
g14
F0.83333333333333337
sg8
I00
sg15
g16
sg17
F-273.63978494623655
sg18
F-378.33333333333337
sg19
I3768102
sg20
S'9314.8854522'
p87
sg22
F0.059139784946236548
sbasg26
I00
sg27
I00
sg28
I3767774
sg20
S'9314.98490339'
p88
sba(igraph
Edge
p89
(dp90
g7
I1
sg8
I00
sg9
I5
sg10
(lp91
g85
a(igraph
Vertex
p92
(dp93
g14
F1.0
sg8
I00
sg15
g16
sg17
F-273.63978494623655
sg18
F-506.0
sg19
I3768103
sg20
S'9314.88565949'
p94
sg22
F0.059139784946236548
sbasg26
I00
sg27
I00
sg28
I3767775
sg20
S'9314.98519644'
p95
sba(igraph
Edge
p96
(dp97
g7
I1
sg8
I00
sg9
I5
sg10
(lp98
(igraph
Vertex
p99
(dp100
g14
F0.16666666666666671
sg8
I00
sg15
g16
sg17
F-239.27956989247312
sg18
F132.33333333333331
sg19
I3768104
sg20
S'9314.88612044'
p101
sg22
F0.11827956989247311
sba(igraph
Vertex
p102
(dp103
g14
F0.33333333333333343
sg8
I00
sg15
g16
sg17
F-239.27956989247312
sg18
F4.6666666666666003
sg19
I3768105
sg20
S'9314.88637466'
p104
sg22
F0.11827956989247311
sbasg26
I00
sg27
I00
sg28
I3767776
sg20
S'9314.98624071'
p105
sba(igraph
Edge
p106
(dp107
g7
I1
sg8
I00
sg9
I5
sg10
(lp108
g102
a(igraph
Vertex
p109
(dp110
g14
F0.50000000000000011
sg8
I00
sg15
g16
sg17
F-239.27956989247312
sg18
F-123.00000000000006
sg19
I3768106
sg20
S'9314.88664565'
p111
sg22
F0.11827956989247311
sbasg26
I00
sg27
I00
sg28
I3767777
sg20
S'9314.98662176'
p112
sba(igraph
Edge
p113
(dp114
g7
I1
sg8
I00
sg9
I5
sg10
(lp115
g109
a(igraph
Vertex
p116
(dp117
g14
F0.66666666666666685
sg8
I00
sg15
g16
sg17
F-239.27956989247312
sg18
F-250.6666666666668
sg19
I3768107
sg20
S'9314.88693312'
p118
sg22
F0.11827956989247311
sbasg26
I00
sg27
I00
sg28
I3767778
sg20
S'9314.98705701'
p119
sba(igraph
Edge
p120
(dp121
g7
I1
sg8
I00
sg9
I5
sg10
(lp122
g116
a(igraph
Vertex
p123
(dp124
g14
F0.83333333333333337
sg8
I00
sg15
g16
sg17
F-239.27956989247312
sg18
F-378.33333333333337
sg19
I3768108
sg20
S'9314.88723623'
p125
sg22
F0.11827956989247311
sbasg26
I00
sg27
I00
sg28
I3767779
sg20
S'9314.98748528'
p126
sba(igraph
Edge
p127
(dp128
g7
I1
sg8
I00
sg9
I5
sg10
(lp129
g123
a(igraph
Vertex
p130
(dp131
g14
F1.0
sg8
I00
sg15
g16
sg17
F-239.27956989247312
sg18
F-506.0
sg19
I3768109
sg20
S'9314.88755331'
p132
sg22
F0.11827956989247311
sbasg26
I00
sg27
I00
sg28
I3767780
sg20
S'9314.98793897'
p133
sba(igraph
Edge
p134
(dp135
g7
I1
sg8
I00
sg9
I5
sg10
(lp136
(igraph
Vertex
p137
(dp138
g14
F0.16666666666666671
sg8
I00
sg15
g16
sg17
F-204.91935483870967
sg18
F132.33333333333331
sg19
I3768110
sg20
S'9314.88824222'
p139
sg22
F0.17741935483870969
sba(igraph
Vertex
p140
(dp141
g14
F0.33333333333333343
sg8
I00
sg15
g16
sg17
F-204.91935483870967
sg18
F4.6666666666666003
sg19
I3768111
sg20
S'9314.88860735'
p142
sg22
F0.17741935483870969
sbasg26
I00
sg27
I00
sg28
I3767781
sg20
S'9314.98941597'
p143
sba(igraph
Edge
p144
(dp145
g7
I1
sg8
I00
sg9
I5
sg10
(lp146
g140
a(igraph
Vertex
p147
(dp148
g14
F0.50000000000000011
sg8
I00
sg15
g16
sg17
F-204.91935483870967
sg18
F-123.00000000000006
sg19
I3768112
sg20
S'9314.88912446'
p149
sg22
F0.17741935483870969
sbasg26
I00
sg27
I00
sg28
I3767782
sg20
S'9314.98997331'
p150
sba(igraph
Edge
p151
(dp152
g7
I1
sg8
I00
sg9
I5
sg10
(lp153
g147
a(igraph
Vertex
p154
(dp155
g14
F0.66666666666666685
sg8
I00
sg15
g16
sg17
F-204.91935483870967
sg18
F-250.6666666666668
sg19
I3768113
sg20
S'9314.8895354'
p156
sg22
F0.17741935483870969
sbasg26
I00
sg27
I00
sg28
I3767783
sg20
S'9314.99052924'
p157
sba(igraph
Edge
p158
(dp159
g7
I1
sg8
I00
sg9
I5
sg10
(lp160
g154
a(igraph
Vertex
p161
(dp162
g14
F0.83333333333333337
sg8
I01
sg15
I0
sg17
F-204.91935483870967
sg18
F-378.33333333333337
sg19
I3768115
sg20
S'9314.89001032'
p163
sg22
F0.17741935483870969
sbasg26
I00
sg27
I00
sg28
I3767784
sg20
S'9314.99110474'
p164
sba(igraph
Edge
p165
(dp166
g7
I1
sg8
I00
sg9
I5
sg10
(lp167
g161
a(igraph
Vertex
p168
(dp169
g14
F1.0
sg8
I00
sg15
g16
sg17
F-204.91935483870967
sg18
F-506.0
sg19
I3768117
sg20
S'9314.89044054'
p170
sg22
F0.17741935483870969
sbasg26
I00
sg27
I00
sg28
I3767785
sg20
S'9314.99170314'
p171
sba(igraph
Edge
p172
(dp173
g7
I1
sg8
I00
sg9
I5
sg10
(lp174
(igraph
Vertex
p175
(dp176
g14
F0.16666666666666671
sg8
I00
sg15
g16
sg17
F-170.55913978494624
sg18
F132.33333333333331
sg19
I3768118
sg20
S'9314.89134681'
p177
sg22
F0.23655913978494622
sba(igraph
Vertex
p178
(dp179
g14
F0.33333333333333343
sg8
I00
sg15
g16
sg17
F-170.55913978494624
sg18
F4.6666666666666003
sg19
I3768119
sg20
S'9314.8918248'
p180
sg22
F0.23655913978494622
sbasg26
I00
sg27
I00
sg28
I3767786
sg20
S'9314.99362321'
p181
sba(igraph
Edge
p182
(dp183
g7
I1
sg8
I00
sg9
I5
sg10
(lp184
g178
a(igraph
Vertex
p185
(dp186
g14
F0.50000000000000011
sg8
I00
sg15
g16
sg17
F-170.55913978494624
sg18
F-123.00000000000006
sg19
I3768120
sg20
S'9314.89232095'
p187
sg22
F0.23655913978494622
sbasg26
I00
sg27
I00
sg28
I3767787
sg20
S'9314.9943071'
p188
sba(igraph
Edge
p189
(dp190
g7
I1
sg8
I00
sg9
I5
sg10
(lp191
g185
a(igraph
Vertex
p192
(dp193
g14
F0.66666666666666685
sg8
I00
sg15
g16
sg17
F-170.55913978494624
sg18
F-250.6666666666668
sg19
I3768121
sg20
S'9314.89282968'
p194
sg22
F0.23655913978494622
sbasg26
I00
sg27
I00
sg28
I3767788
sg20
S'9314.99501166'
p195
sba(igraph
Edge
p196
(dp197
g7
I1
sg8
I00
sg9
I5
sg10
(lp198
g192
a(igraph
Vertex
p199
(dp200
g14
F0.83333333333333337
sg8
I00
sg15
g16
sg17
F-170.55913978494624
sg18
F-378.33333333333337
sg19
I3768122
sg20
S'9314.89335684'
p201
sg22
F0.23655913978494622
sbasg26
I00
sg27
I00
sg28
I3767789
sg20
S'9314.99573773'
p202
sba(igraph
Edge
p203
(dp204
g7
I1
sg8
I00
sg9
I5
sg10
(lp205
g199
a(igraph
Vertex
p206
(dp207
g14
F1.0
sg8
I00
sg15
g16
sg17
F-170.55913978494624
sg18
F-506.0
sg19
I3768123
sg20
S'9314.89390579'
p208
sg22
F0.23655913978494622
sbasg26
I00
sg27
I00
sg28
I3767790
sg20
S'9314.99648559'
p209
sba(igraph
Edge
p210
(dp211
g7
I1
sg8
I00
sg9
I5
sg10
(lp212
(igraph
Vertex
p213
(dp214
g14
F0.16666666666666671
sg8
I00
sg15
g16
sg17
F-136.19892473118279
sg18
F132.33333333333331
sg19
I3768124
sg20
S'9314.89504867'
p215
sg22
F0.29569892473118281
sba(igraph
Vertex
p216
(dp217
g14
F0.33333333333333343
sg8
I00
sg15
g16
sg17
F-136.19892473118279
sg18
F4.6666666666666003
sg19
I3768125
sg20
S'9314.89564009'
p218
sg22
F0.29569892473118281
sbasg26
I00
sg27
I00
sg28
I3767791
sg20
S'9314.99894093'
p219
sba(igraph
Edge
p220
(dp221
g7
I1
sg8
I00
sg9
I5
sg10
(lp222
g216
a(igraph
Vertex
p223
(dp224
g14
F0.50000000000000011
sg8
I00
sg15
g16
sg17
F-136.19892473118279
sg18
F-123.00000000000006
sg19
I3768126
sg20
S'9314.89624352'
p225
sg22
F0.29569892473118281
sbasg26
I00
sg27
I00
sg28
I3767792
sg20
S'9314.999805'
p226
sba(igraph
Edge
p227
(dp228
g7
I1
sg8
I00
sg9
I5
sg10
(lp229
g223
a(igraph
Vertex
p230
(dp231
g14
F0.66666666666666685
sg8
I00
sg15
g16
sg17
F-136.19892473118279
sg18
F-250.6666666666668
sg19
I3768127
sg20
S'9314.89687404'
p232
sg22
F0.29569892473118281
sbasg26
I00
sg27
I00
sg28
I3767793
sg20
S'9315.00067578'
p233
sba(igraph
Edge
p234
(dp235
g7
I1
sg8
I00
sg9
I5
sg10
(lp236
g230
a(igraph
Vertex
p237
(dp238
g14
F0.83333333333333337
sg8
I00
sg15
g16
sg17
F-136.19892473118279
sg18
F-378.33333333333337
sg19
I3768128
sg20
S'9314.89751156'
p239
sg22
F0.29569892473118281
sbasg26
I00
sg27
I00
sg28
I3767794
sg20
S'9315.00156389'
p240
sba(igraph
Edge
p241
(dp242
g7
I1
sg8
I00
sg9
I5
sg10
(lp243
g237
a(igraph
Vertex
p244
(dp245
g14
F1.0
sg8
I01
sg15
I0
sg17
F-136.19892473118279
sg18
F-506.0
sg19
I3768130
sg20
S'9314.89817142'
p246
sg22
F0.29569892473118281
sbasg26
I00
sg27
I00
sg28
I3767795
sg20
S'9315.00246121'
p247
sba(igraph
Edge
p248
(dp249
g7
I1
sg8
I00
sg9
I5
sg10
(lp250
(igraph
Vertex
p251
(dp252
g14
F0.16666666666666671
sg8
I00
sg15
g16
sg17
F-101.83870967741933
sg18
F132.33333333333331
sg19
I3768132
sg20
S'9314.89953919'
p253
sg22
F0.35483870967741937
sba(igraph
Vertex
p254
(dp255
g14
F0.33333333333333343
sg8
I00
sg15
g16
sg17
F-101.83870967741933
sg18
F4.6666666666666003
sg19
I3768133
sg20
S'9314.90025073'
p256
sg22
F0.35483870967741937
sbasg26
I00
sg27
I00
sg28
I3767796
sg20
S'9315.0052881'
p257
sba(igraph
Edge
p258
(dp259
g7
I1
sg8
I00
sg9
I5
sg10
(lp260
g254
a(igraph
Vertex
p261
(dp262
g14
F0.50000000000000011
sg8
I00
sg15
g16
sg17
F-101.83870967741933
sg18
F-123.00000000000006
sg19
I3768134
sg20
S'9314.90116509'
p263
sg22
F0.35483870967741937
sbasg26
I00
sg27
I00
sg28
I3767797
sg20
S'9315.00627538'
p264
sba(igraph
Edge
p265
(dp266
g7
I1
sg8
I00
sg9
I5
sg10
(lp267
g261
a(igraph
Vertex
p268
(dp269
g14
F0.66666666666666685
sg8
I00
sg15
g16
sg17
F-101.83870967741933
sg18
F-250.6666666666668
sg19
I3768135
sg20
S'9314.90192608'
p270
sg22
F0.35483870967741937
sbasg26
I00
sg27
I00
sg28
I3767798
sg20
S'9315.00728305'
p271
sba(igraph
Edge
p272
(dp273
g7
I1
sg8
I00
sg9
I5
sg10
(lp274
g268
a(igraph
Vertex
p275
(dp276
g14
F0.83333333333333337
sg8
I00
sg15
g16
sg17
F-101.83870967741933
sg18
F-378.33333333333337
sg19
I3768136
sg20
S'9314.90269992'
p277
sg22
F0.35483870967741937
sbasg26
I00
sg27
I00
sg28
I3767799
sg20
S'9315.00831307'
p278
sba(igraph
Edge
p279
(dp280
g7
I1
sg8
I00
sg9
I5
sg10
(lp281
g275
a(igraph
Vertex
p282
(dp283
g14
F1.0
sg8
I00
sg15
g16
sg17
F-101.83870967741933
sg18
F-506.0
sg19
I3768137
sg20
S'9314.90349947'
p284
sg22
F0.35483870967741937
sbasg26
I00
sg27
I00
sg28
I3767800
sg20
S'9315.00936572'
p285
sba(igraph
Edge
p286
(dp287
g7
I1
sg8
I00
sg9
I5
sg10
(lp288
(igraph
Vertex
p289
(dp290
g14
F0.16666666666666671
sg8
I00
sg15
I0
sg17
F-67.478494623655905
sg18
F132.33333333333331
sg19
I3768138
sg20
S'9314.90513375'
p291
sg22
F0.41397849462365593
sba(igraph
Vertex
p292
(dp293
g14
F0.33333333333333343
sg8
I00
sg15
g16
sg17
F-67.478494623655905
sg18
F4.6666666666666003
sg19
I3768140
sg20
S'9314.90596738'
p294
sg22
F0.41397849462365593
sbasg26
I00
sg27
I00
sg28
I3767801
sg20
S'9315.01265217'
p295
sba(igraph
Edge
p296
(dp297
g7
I1
sg8
I00
sg9
I5
sg10
(lp298
g292
a(igraph
Vertex
p299
(dp300
g14
F0.50000000000000011
sg8
I00
sg15
g16
sg17
F-67.478494623655905
sg18
F-123.00000000000006
sg19
I3768141
sg20
S'9314.90680855'
p301
sg22
F0.41397849462365593
sbasg26
I00
sg27
I00
sg28
I3767802
sg20
S'9315.0137903'
p302
sba(igraph
Edge
p303
(dp304
g7
I1
sg8
I00
sg9
I5
sg10
(lp305
g299
a(igraph
Vertex
p306
(dp307
g14
F0.66666666666666685
sg8
I00
sg15
g16
sg17
F-67.478494623655905
sg18
F-250.6666666666668
sg19
I3768142
sg20
S'9314.90767877'
p308
sg22
F0.41397849462365593
sbasg26
I00
sg27
I00
sg28
I3767803
sg20
S'9315.01495022'
p309
sba(igraph
Edge
p310
(dp311
g7
I1
sg8
I00
sg9
I5
sg10
(lp312
g306
a(igraph
Vertex
p313
(dp314
g14
F0.83333333333333337
sg8
I00
sg15
g16
sg17
F-67.478494623655905
sg18
F-378.33333333333337
sg19
I3768143
sg20
S'9314.90855514'
p315
sg22
F0.41397849462365593
sbasg26
I00
sg27
I00
sg28
I3767804
sg20
S'9315.01613194'
p316
sba(igraph
Edge
p317
(dp318
g7
I1
sg8
I00
sg9
I5
sg10
(lp319
g313
a(igraph
Vertex
p320
(dp321
g14
F1.0
sg8
I00
sg15
g16
sg17
F-67.478494623655905
sg18
F-506.0
sg19
I3768144
sg20
S'9314.90944715'
p322
sg22
F0.41397849462365593
sbasg26
I00
sg27
I00
sg28
I3767805
sg20
S'9315.01733628'
p323
sba(igraph
Edge
p324
(dp325
g7
I1
sg8
I00
sg9
I5
sg10
(lp326
(igraph
Vertex
p327
(dp328
g14
F0.16666666666666671
sg8
I00
sg15
g16
sg17
F-33.118279569892479
sg18
F132.33333333333331
sg19
I3768145
sg20
S'9314.91140075'
p329
sg22
F0.47311827956989244
sba(igraph
Vertex
p330
(dp331
g14
F0.33333333333333343
sg8
I00
sg15
g16
sg17
F-33.118279569892479
sg18
F4.6666666666666003
sg19
I3768146
sg20
S'9314.91235003'
p332
sg22
F0.47311827956989244
sbasg26
I00
sg27
I00
sg28
I3767806
sg20
S'9315.02124013'
p333
sba(igraph
Edge
p334
(dp335
g7
I1
sg8
I00
sg9
I5
sg10
(lp336
g330
a(igraph
Vertex
p337
(dp338
g14
F0.50000000000000011
sg8
I00
sg15
g16
sg17
F-33.118279569892479
sg18
F-123.00000000000006
sg19
I3768147
sg20
S'9314.91331496'
p339
sg22
F0.47311827956989244
sbasg26
I00
sg27
I00
sg28
I3767807
sg20
S'9315.022547'
p340
sba(igraph
Edge
p341
(dp342
g7
I1
sg8
I00
sg9
I5
sg10
(lp343
g337
a(igraph
Vertex
p344
(dp345
g14
F0.66666666666666685
sg8
I00
sg15
g16
sg17
F-33.118279569892479
sg18
F-250.6666666666668
sg19
I3768148
sg20
S'9314.91428855'
p346
sg22
F0.47311827956989244
sbasg26
I00
sg27
I00
sg28
I3767808
sg20
S'9315.02387817'
p347
sba(igraph
Edge
p348
(dp349
g7
I1
sg8
I00
sg9
I5
sg10
(lp350
g344
a(igraph
Vertex
p351
(dp352
g14
F0.83333333333333337
sg8
I00
sg15
g16
sg17
F-33.118279569892479
sg18
F-378.33333333333337
sg19
I3768149
sg20
S'9314.91527834'
p353
sg22
F0.47311827956989244
sbasg26
I00
sg27
I00
sg28
I3767809
sg20
S'9315.02521913'
p354
sba(igraph
Edge
p355
(dp356
g7
I1
sg8
I00
sg9
I5
sg10
(lp357
g351
a(igraph
Vertex
p358
(dp359
g14
F1.0
sg8
I01
sg15
I0
sg17
F-33.118279569892479
sg18
F-506.0
sg19
I3768151
sg20
S'9314.91628266'
p360
sg22
F0.47311827956989244
sbasg26
I00
sg27
I00
sg28
I3767810
sg20
S'9315.02659025'
p361
sba(igraph
Edge
p362
(dp363
g7
I1
sg8
I00
sg9
I5
sg10
(lp364
(igraph
Vertex
p365
(dp366
g14
F0.16666666666666671
sg8
I00
sg15
g16
sg17
F1.2419354838709751
sg18
F132.33333333333331
sg19
I3768153
sg20
S'9314.91834521'
p367
sg22
F0.532258064516129
sba(igraph
Vertex
p368
(dp369
g14
F0.33333333333333343
sg8
I00
sg15
I0
sg17
F1.2419354838709751
sg18
F4.6666666666666003
sg19
I3768154
sg20
S'9314.91940624'
p370
sg22
F0.532258064516129
sbasg26
I00
sg27
I00
sg28
I3767811
sg20
S'9315.03082738'
p371
sba(igraph
Edge
p372
(dp373
g7
I1
sg8
I00
sg9
I5
sg10
(lp374
g368
a(igraph
Vertex
p375
(dp376
g14
F0.50000000000000011
sg8
I00
sg15
g16
sg17
F1.2419354838709751
sg18
F-123.00000000000006
sg19
I3768156
sg20
S'9314.920479'
p377
sg22
F0.532258064516129
sbasg26
I00
sg27
I00
sg28
I3767812
sg20
S'9315.03230494'
p378
sba(igraph
Edge
p379
(dp380
g7
I1
sg8
I00
sg9
I5
sg10
(lp381
g375
a(igraph
Vertex
p382
(dp383
g14
F0.66666666666666685
sg8
I00
sg15
g16
sg17
F1.2419354838709751
sg18
F-250.6666666666668
sg19
I3768157
sg20
S'9314.92156936'
p384
sg22
F0.532258064516129
sbasg26
I00
sg27
I00
sg28
I3767813
sg20
S'9315.03379815'
p385
sba(igraph
Edge
p386
(dp387
g7
I1
sg8
I00
sg9
I5
sg10
(lp388
g382
a(igraph
Vertex
p389
(dp390
g14
F0.83333333333333337
sg8
I00
sg15
g16
sg17
F1.2419354838709751
sg18
F-378.33333333333337
sg19
I3768158
sg20
S'9314.92282567'
p391
sg22
F0.532258064516129
sbasg26
I00
sg27
I00
sg28
I3767814
sg20
S'9315.03529275'
p392
sba(igraph
Edge
p393
(dp394
g7
I1
sg8
I00
sg9
I5
sg10
(lp395
g389
a(igraph
Vertex
p396
(dp397
g14
F1.0
sg8
I00
sg15
g16
sg17
F1.2419354838709751
sg18
F-506.0
sg19
I3768159
sg20
S'9314.92399202'
p398
sg22
F0.532258064516129
sbasg26
I00
sg27
I00
sg28
I3767815
sg20
S'9315.03680552'
p399
sba(igraph
Edge
p400
(dp401
g7
I1
sg8
I00
sg9
I5
sg10
(lp402
(igraph
Vertex
p403
(dp404
g14
F0.16666666666666671
sg8
I00
sg15
g16
sg17
F35.602150537634429
sg18
F132.33333333333331
sg19
I3768160
sg20
S'9314.9263507'
p405
sg22
F0.59139784946236562
sba(igraph
Vertex
p406
(dp407
g14
F0.33333333333333343
sg8
I00
sg15
g16
sg17
F35.602150537634429
sg18
F4.6666666666666003
sg19
I3768161
sg20
S'9314.92755169'
p408
sg22
F0.59139784946236562
sbasg26
I00
sg27
I00
sg28
I3767816
sg20
S'9315.04159802'
p409
sba(igraph
Edge
p410
(dp411
g7
I1
sg8
I00
sg9
I5
sg10
(lp412
g406
a(igraph
Vertex
p413
(dp414
g14
F0.50000000000000011
sg8
I00
sg15
g16
sg17
F35.602150537634429
sg18
F-123.00000000000006
sg19
I3768162
sg20
S'9314.92877028'
p415
sg22
F0.59139784946236562
sbasg26
I00
sg27
I00
sg28
I3767817
sg20
S'9315.04321499'
p416
sba(igraph
Edge
p417
(dp418
g7
I1
sg8
I00
sg9
I5
sg10
(lp419
g413
a(igraph
Vertex
p420
(dp421
g14
F0.66666666666666685
sg8
I00
sg15
g16
sg17
F35.602150537634429
sg18
F-250.6666666666668
sg19
I3768163
sg20
S'9314.92998021'
p422
sg22
F0.59139784946236562
sbasg26
I00
sg27
I00
sg28
I3767818
sg20
S'9315.04484145'
p423
sba(igraph
Edge
p424
(dp425
g7
I1
sg8
I00
sg9
I5
sg10
(lp426
g420
a(igraph
Vertex
p427
(dp428
g14
F0.83333333333333337
sg8
I00
sg15
g16
sg17
F35.602150537634429
sg18
F-378.33333333333337
sg19
I3768164
sg20
S'9314.93120047'
p429
sg22
F0.59139784946236562
sbasg26
I00
sg27
I00
sg28
I3767819
sg20
S'9315.04648747'
p430
sba(igraph
Edge
p431
(dp432
g7
I1
sg8
I00
sg9
I5
sg10
(lp433
g427
a(igraph
Vertex
p434
(dp435
g14
F1.0
sg8
I00
sg15
g16
sg17
F35.602150537634429
sg18
F-506.0
sg19
I3768165
sg20
S'9314.93244309'
p436
sg22
F0.59139784946236562
sbasg26
I00
sg27
I00
sg28
I3767820
sg20
S'9315.048155'
p437
sba(igraph
Edge
p438
(dp439
g7
I1
sg8
I00
sg9
I5
sg10
(lp440
(igraph
Vertex
p441
(dp442
g14
F0.16666666666666671
sg8
I00
sg15
g16
sg17
F69.962365591397827
sg18
F132.33333333333331
sg19
I3768166
sg20
S'9314.93498922'
p443
sg22
F0.65053763440860213
sba(igraph
Vertex
p444
(dp445
g14
F0.33333333333333343
sg8
I00
sg15
g16
sg17
F69.962365591397827
sg18
F4.6666666666666003
sg19
I3768167
sg20
S'9314.93628967'
p446
sg22
F0.65053763440860213
sbasg26
I00
sg27
I00
sg28
I3767821
sg20
S'9315.05347467'
p447
sba(igraph
Edge
p448
(dp449
g7
I1
sg8
I00
sg9
I5
sg10
(lp450
g444
a(igraph
Vertex
p451
(dp452
g14
F0.50000000000000011
sg8
I00
sg15
I0
sg17
F69.962365591397827
sg18
F-123.00000000000006
sg19
I3768168
sg20
S'9314.93760799'
p453
sg22
F0.65053763440860213
sbasg26
I00
sg27
I00
sg28
I3767822
sg20
S'9315.05523244'
p454
sba(igraph
Edge
p455
(dp456
g7
I1
sg8
I00
sg9
I5
sg10
(lp457
g451
a(igraph
Vertex
p458
(dp459
g14
F0.66666666666666685
sg8
I00
sg15
g16
sg17
F69.962365591397827
sg18
F-250.6666666666668
sg19
I3768170
sg20
S'9314.93893721'
p460
sg22
F0.65053763440860213
sbasg26
I00
sg27
I00
sg28
I3767823
sg20
S'9315.05700473'
p461
sba(igraph
Edge
p462
(dp463
g7
I1
sg8
I00
sg9
I5
sg10
(lp464
g458
a(igraph
Vertex
p465
(dp466
g14
F0.83333333333333337
sg8
I00
sg15
g16
sg17
F69.962365591397827
sg18
F-378.33333333333337
sg19
I3768171
sg20
S'9314.94028124'
p467
sg22
F0.65053763440860213
sbasg26
I00
sg27
I00
sg28
I3767824
sg20
S'9315.05880021'
p468
sba(igraph
Edge
p469
(dp470
g7
I1
sg8
I00
sg9
I5
sg10
(lp471
g465
a(igraph
Vertex
p472
(dp473
g14
F1.0
sg8
I00
sg15
g16
sg17
F69.962365591397827
sg18
F-506.0
sg19
I3768172
sg20
S'9314.94165571'
p474
sg22
F0.65053763440860213
sbasg26
I00
sg27
I00
sg28
I3767825
sg20
S'9315.06061748'
p475
sba(igraph
Edge
p476
(dp477
g7
I1
sg8
I00
sg9
I5
sg10
(lp478
(igraph
Vertex
p479
(dp480
g14
F0.16666666666666671
sg8
I00
sg15
g16
sg17
F104.32258064516134
sg18
F132.33333333333331
sg19
I3768173
sg20
S'9314.9445639'
p481
sg22
F0.70967741935483875
sba(igraph
Vertex
p482
(dp483
g14
F0.33333333333333343
sg8
I00
sg15
g16
sg17
F104.32258064516134
sg18
F4.6666666666666003
sg19
I3768174
sg20
S'9314.94607192'
p484
sg22
F0.70967741935483875
sbasg26
I00
sg27
I00
sg28
I3767826
sg20
S'9315.06625479'
p485
sba(igraph
Edge
p486
(dp487
g7
I1
sg8
I00
sg9
I5
sg10
(lp488
g482
a(igraph
Vertex
p489
(dp490
g14
F0.50000000000000011
sg8
I00
sg15
g16
sg17
F104.32258064516134
sg18
F-123.00000000000006
sg19
I3768175
sg20
S'9314.94753132'
p491
sg22
F0.70967741935483875
sbasg26
I00
sg27
I00
sg28
I3767827
sg20
S'9315.06815503'
p492
sba(igraph
Edge
p493
(dp494
g7
I1
sg8
I00
sg9
I5
sg10
(lp495
g489
a(igraph
Vertex
p496
(dp497
g14
F0.66666666666666685
sg8
I00
sg15
g16
sg17
F104.32258064516134
sg18
F-250.6666666666668
sg19
I3768176
sg20
S'9314.94898178'
p498
sg22
F0.70967741935483875
sbasg26
I00
sg27
I00
sg28
I3767828
sg20
S'9315.0700779'
p499
sba(igraph
Edge
p500
(dp501
g7
I1
sg8
I00
sg9
I5
sg10
(lp502
g496
a(igraph
Vertex
p503
(dp504
g14
F0.83333333333333337
sg8
I00
sg15
g16
sg17
F104.32258064516134
sg18
F-378.33333333333337
sg19
I3768177
sg20
S'9314.95009114'
p505
sg22
F0.70967741935483875
sbasg26
I00
sg27
I00
sg28
I3767829
sg20
S'9315.07201753'
p506
sba(igraph
Edge
p507
(dp508
g7
I1
sg8
I00
sg9
I5
sg10
(lp509
g503
a(igraph
Vertex
p510
(dp511
g14
F1.0
sg8
I00
sg15
g16
sg17
F104.32258064516134
sg18
F-506.0
sg19
I3768178
sg20
S'9314.95085856'
p512
sg22
F0.70967741935483875
sbasg26
I00
sg27
I00
sg28
I3767830
sg20
S'9315.07398734'
p513
sba(igraph
Edge
p514
(dp515
g7
I1
sg8
I00
sg9
I5
sg10
(lp516
(igraph
Vertex
p517
(dp518
g14
F0.16666666666666671
sg8
I00
sg15
g16
sg17
F138.68279569892474
sg18
F132.33333333333331
sg19
I3768179
sg20
S'9314.95244815'
p519
sg22
F0.76881720430107525
sba(igraph
Vertex
p520
(dp521
g14
F0.33333333333333343
sg8
I00
sg15
g16
sg17
F138.68279569892474
sg18
F4.6666666666666003
sg19
I3768180
sg20
S'9314.95321361'
p522
sg22
F0.76881720430107525
sbasg26
I00
sg27
I00
sg28
I3767831
sg20
S'9315.08017164'
p523
sba(igraph
Edge
p524
(dp525
g7
I1
sg8
I00
sg9
I5
sg10
(lp526
g520
a(igraph
Vertex
p527
(dp528
g14
F0.50000000000000011
sg8
I00
sg15
g16
sg17
F138.68279569892474
sg18
F-123.00000000000006
sg19
I3768181
sg20
S'9314.95398912'
p529
sg22
F0.76881720430107525
sbasg26
I00
sg27
I00
sg28
I3767832
sg20
S'9315.08225235'
p530
sba(igraph
Edge
p531
(dp532
g7
I1
sg8
I00
sg9
I5
sg10
(lp533
g527
a(igraph
Vertex
p534
(dp535
g14
F0.66666666666666685
sg8
I00
sg15
I0
sg17
F138.68279569892474
sg18
F-250.6666666666668
sg19
I3768182
sg20
S'9314.9547638'
p536
sg22
F0.76881720430107525
sbasg26
I00
sg27
I00
sg28
I3767833
sg20
S'9315.08434396'
p537
sba(igraph
Edge
p538
(dp539
g7
I1
sg8
I00
sg9
I5
sg10
(lp540
g534
a(igraph
Vertex
p541
(dp542
g14
F0.83333333333333337
sg8
I00
sg15
g16
sg17
F138.68279569892474
sg18
F-378.33333333333337
sg19
I3768184
sg20
S'9314.95554016'
p543
sg22
F0.76881720430107525
sbasg26
I00
sg27
I00
sg28
I3767834
sg20
S'9315.08645568'
p544
sba(igraph
Edge
p545
(dp546
g7
I1
sg8
I00
sg9
I5
sg10
(lp547
g541
a(igraph
Vertex
p548
(dp549
g14
F1.0
sg8
I00
sg15
g16
sg17
F138.68279569892474
sg18
F-506.0
sg19
I3768185
sg20
S'9314.95632545'
p550
sg22
F0.76881720430107525
sbasg26
I00
sg27
I00
sg28
I3767835
sg20
S'9315.08863026'
p551
sba(igraph
Edge
p552
(dp553
g7
I1
sg8
I00
sg9
I5
sg10
(lp554
(igraph
Vertex
p555
(dp556
g14
F0.16666666666666671
sg8
I00
sg15
g16
sg17
F173.04301075268819
sg18
F132.33333333333331
sg19
I3768186
sg20
S'9314.95792538'
p557
sg22
F0.82795698924731187
sba(igraph
Vertex
p558
(dp559
g14
F0.33333333333333343
sg8
I00
sg15
g16
sg17
F173.04301075268819
sg18
F4.6666666666666003
sg19
I3768187
sg20
S'9314.95873526'
p560
sg22
F0.82795698924731187
sbasg26
I00
sg27
I00
sg28
I3767836
sg20
S'9315.09528753'
p561
sba(igraph
Edge
p562
(dp563
g7
I1
sg8
I00
sg9
I5
sg10
(lp564
g558
a(igraph
Vertex
p565
(dp566
g14
F0.50000000000000011
sg8
I00
sg15
I0
sg17
F173.04301075268819
sg18
F-123.00000000000006
sg19
I3768188
sg20
S'9314.95955128'
p567
sg22
F0.82795698924731187
sbasg26
I00
sg27
I00
sg28
I3767837
sg20
S'9315.09757721'
p568
sba(igraph
Edge
p569
(dp570
g7
I1
sg8
I00
sg9
I5
sg10
(lp571
g565
a(igraph
Vertex
p572
(dp573
g14
F0.66666666666666685
sg8
I00
sg15
g16
sg17
F173.04301075268819
sg18
F-250.6666666666668
sg19
I3768190
sg20
S'9314.960381'
p574
sg22
F0.82795698924731187
sbasg26
I00
sg27
I00
sg28
I3767838
sg20
S'9315.09988728'
p575
sba(igraph
Edge
p576
(dp577
g7
I1
sg8
I00
sg9
I5
sg10
(lp578
g572
a(igraph
Vertex
p579
(dp580
g14
F0.83333333333333337
sg8
I00
sg15
g16
sg17
F173.04301075268819
sg18
F-378.33333333333337
sg19
I3768191
sg20
S'9314.96122189'
p581
sg22
F0.82795698924731187
sbasg26
I00
sg27
I00
sg28
I3767839
sg20
S'9315.10211158'
p582
sba(igraph
Edge
p583
(dp584
g7
I1
sg8
I00
sg9
I5
sg10
(lp585
g579
a(igraph
Vertex
p586
(dp587
g14
F1.0
sg8
I00
sg15
g16
sg17
F173.04301075268819
sg18
F-506.0
sg19
I3768192
sg20
S'9314.96206557'
p588
sg22
F0.82795698924731187
sbasg26
I00
sg27
I00
sg28
I3767840
sg20
S'9315.10436913'
p589
sba(igraph
Edge
p590
(dp591
g7
I1
sg8
I00
sg9
I5
sg10
(lp592
(igraph
Vertex
p593
(dp594
g14
F0.16666666666666671
sg8
I00
sg15
g16
sg17
F207.40322580645159
sg18
F132.33333333333331
sg19
I3768193
sg20
S'9314.96378869'
p595
sg22
F0.88709677419354838
sba(igraph
Vertex
p596
(dp597
g14
F0.33333333333333343
sg8
I00
sg15
g16
sg17
F207.40322580645159
sg18
F4.6666666666666003
sg19
I3768194
sg20
S'9314.96465975'
p598
sg22
F0.88709677419354838
sbasg26
I00
sg27
I00
sg28
I3767841
sg20
S'9315.11135801'
p599
sba(igraph
Edge
p600
(dp601
g7
I1
sg8
I00
sg9
I5
sg10
(lp602
g596
a(igraph
Vertex
p603
(dp604
g14
F0.50000000000000011
sg8
I00
sg15
g16
sg17
F207.40322580645159
sg18
F-123.00000000000006
sg19
I3768195
sg20
S'9314.96553864'
p605
sg22
F0.88709677419354838
sbasg26
I00
sg27
I00
sg28
I3767842
sg20
S'9315.1136949'
p606
sba(igraph
Edge
p607
(dp608
g7
I1
sg8
I00
sg9
I5
sg10
(lp609
g603
a(igraph
Vertex
p610
(dp611
g14
F0.66666666666666685
sg8
I00
sg15
g16
sg17
F207.40322580645159
sg18
F-250.6666666666668
sg19
I3768196
sg20
S'9314.96641975'
p612
sg22
F0.88709677419354838
sbasg26
I00
sg27
I00
sg28
I3767843
sg20
S'9315.11605078'
p613
sba(igraph
Edge
p614
(dp615
g7
I1
sg8
I00
sg9
I5
sg10
(lp616
g610
a(igraph
Vertex
p617
(dp618
g14
F0.83333333333333337
sg8
I00
sg15
I0
sg17
F207.40322580645159
sg18
F-378.33333333333337
sg19
I3768197
sg20
S'9314.96731875'
p619
sg22
F0.88709677419354838
sbasg26
I00
sg27
I00
sg28
I3767844
sg20
S'9315.11842734'
p620
sba(igraph
Edge
p621
(dp622
g7
I1
sg8
I00
sg9
I5
sg10
(lp623
g617
a(igraph
Vertex
p624
(dp625
g14
F1.0
sg8
I00
sg15
g16
sg17
F207.40322580645159
sg18
F-506.0
sg19
I3768199
sg20
S'9314.9682197'
p626
sg22
F0.88709677419354838
sbasg26
I00
sg27
I00
sg28
I3767845
sg20
S'9315.12088212'
p627
sba(igraph
Edge
p628
(dp629
g7
I1
sg8
I00
sg9
I5
sg10
(lp630
(igraph
Vertex
p631
(dp632
g14
F0.16666666666666671
sg8
I00
sg15
g16
sg17
F241.76344086021504
sg18
F132.33333333333331
sg19
I3768200
sg20
S'9314.97004591'
p633
sg22
F0.94623655913978488
sba(igraph
Vertex
p634
(dp635
g14
F0.33333333333333343
sg8
I00
sg15
g16
sg17
F241.76344086021504
sg18
F4.6666666666666003
sg19
I3768201
sg20
S'9314.97108208'
p636
sg22
F0.94623655913978488
sbasg26
I00
sg27
I00
sg28
I3767846
sg20
S'9315.1283096'
p637
sba(igraph
Edge
p638
(dp639
g7
I1
sg8
I00
sg9
I5
sg10
(lp640
g634
a(igraph
Vertex
p641
(dp642
g14
F0.50000000000000011
sg8
I00
sg15
g16
sg17
F241.76344086021504
sg18
F-123.00000000000006
sg19
I3768202
sg20
S'9314.97203667'
p643
sg22
F0.94623655913978488
sbasg26
I00
sg27
I00
sg28
I3767847
sg20
S'9315.13079819'
p644
sba(igraph
Edge
p645
(dp646
g7
I1
sg8
I00
sg9
I5
sg10
(lp647
g641
a(igraph
Vertex
p648
(dp649
g14
F0.66666666666666685
sg8
I00
sg15
g16
sg17
F241.76344086021504
sg18
F-250.6666666666668
sg19
I3768203
sg20
S'9314.97299489'
p650
sg22
F0.94623655913978488
sbasg26
I00
sg27
I00
sg28
I3767848
sg20
S'9315.13337757'
p651
sba(igraph
Edge
p652
(dp653
g7
I1
sg8
I00
sg9
I5
sg10
(lp654
g648
a(igraph
Vertex
p655
(dp656
g14
F0.83333333333333337
sg8
I00
sg15
g16
sg17
F241.76344086021504
sg18
F-378.33333333333337
sg19
I3768204
sg20
S'9314.97395786'
p657
sg22
F0.94623655913978488
sbasg26
I00
sg27
I00
sg28
I3767849
sg20
S'9315.13602455'
p658
sba(igraph
Edge
p659
(dp660
g7
I1
sg8
I00
sg9
I5
sg10
(lp661
g655
a(igraph
Vertex
p662
(dp663
g14
F1.0
sg8
I00
sg15
g16
sg17
F241.76344086021504
sg18
F-506.0
sg19
I3768205
sg20
S'9314.97492363'
p664
sg22
F0.94623655913978488
sbasg26
I00
sg27
I00
sg28
I3767850
sg20
S'9315.13861119'
p665
sba(igraph
Edge
p666
(dp667
g7
I1
sg8
I00
sg9
I5
sg10
(lp668
(igraph
Vertex
p669
(dp670
g14
F0.16666666666666671
sg8
I00
sg15
g16
sg17
F276.1236559139785
sg18
F132.33333333333331
sg19
I3768206
sg20
S'9314.97688114'
p671
sg22
F1.0053763440860215
sba(igraph
Vertex
p672
(dp673
g14
F0.33333333333333343
sg8
I00
sg15
g16
sg17
F276.1236559139785
sg18
F4.6666666666666003
sg19
I3768207
sg20
S'9314.97787037'
p674
sg22
F1.0053763440860215
sbasg26
I00
sg27
I00
sg28
I3767851
sg20
S'9315.146546'
p675
sba(igraph
Edge
p676
(dp677
g7
I1
sg8
I00
sg9
I5
sg10
(lp678
g672
a(igraph
Vertex
p679
(dp680
g14
F0.50000000000000011
sg8
I00
sg15
g16
sg17
F276.1236559139785
sg18
F-123.00000000000006
sg19
I3768208
sg20
S'9314.97886743'
p681
sg22
F1.0053763440860215
sbasg26
I00
sg27
I00
sg28
I3767852
sg20
S'9315.14918796'
p682
sba(igraph
Edge
p683
(dp684
g7
I1
sg8
I00
sg9
I5
sg10
(lp685
g679
a(igraph
Vertex
p686
(dp687
g14
F0.66666666666666685
sg8
I00
sg15
g16
sg17
F276.1236559139785
sg18
F-250.6666666666668
sg19
I3768209
sg20
S'9314.97986895'
p688
sg22
F1.0053763440860215
sbasg26
I00
sg27
I00
sg28
I3767853
sg20
S'9315.15184891'
p689
sba(igraph
Edge
p690
(dp691
g7
I1
sg8
I00
sg9
I5
sg10
(lp692
g686
a(igraph
Vertex
p693
(dp694
g14
F0.83333333333333337
sg8
I00
sg15
g16
sg17
F276.1236559139785
sg18
F-378.33333333333337
sg19
I3768210
sg20
S'9314.98089338'
p695
sg22
F1.0053763440860215
sbasg26
I00
sg27
I00
sg28
I3767854
sg20
S'9315.15453472'
p696
sba(igraph
Edge
p697
(dp698
g7
I1
sg8
I00
sg9
I5
sg10
(lp699
g693
a(igraph
Vertex
p700
(dp701
g14
F1.0
sg8
I00
sg15
I0
sg17
F276.1236559139785
sg18
F-506.0
sg19
I3768211
sg20
S'9314.9819248'
p702
sg22
F1.0053763440860215
sbasg26
I00
sg27
I00
sg28
I3767855
sg20
S'9315.15723814'
p703
sba(igraph
Edge
p704
(dp705
g7
I1
sg8
I00
sg9
I5
sg10
(lp706
g12
ag64
asg26
I00
sg27
I00
sg28
I3767856
sg20
S'9315.16634181'
p707
sba(igraph
Edge
p708
(dp709
g7
I1
sg8
I00
sg9
I5
sg10
(lp710
g23
ag64
asg26
I00
sg27
I00
sg28
I3767857
sg20
S'9315.16917066'
p711
sba(igraph
Edge
p712
(dp713
g7
I1
sg8
I00
sg9
I5
sg10
(lp714
g33
ag78
asg26
I00
sg27
I00
sg28
I3767858
sg20
S'9315.17199002'
p715
sba(igraph
Edge
p716
(dp717
g7
I1
sg8
I00
sg9
I5
sg10
(lp718
g40
ag78
asg26
I00
sg27
I00
sg28
I3767859
sg20
S'9315.17494542'
p719
sba(igraph
Edge
p720
(dp721
g7
I1
sg8
I00
sg9
I5
sg10
(lp722
g47
ag92
asg26
I00
sg27
I00
sg28
I3767860
sg20
S'9315.17792373'
p723
sba(igraph
Edge
p724
(dp725
g7
I1
sg8
I00
sg9
I5
sg10
(lp726
g54
ag92
asg26
I00
sg27
I00
sg28
I3767861
sg20
S'9315.18084254'
p727
sba(igraph
Edge
p728
(dp729
g7
I1
sg8
I00
sg9
I5
sg10
(lp730
g12
ag61
asg26
I00
sg27
I00
sg28
I3767862
sg20
S'9315.18671284'
p731
sba(igraph
Edge
p732
(dp733
g7
I1
sg8
I00
sg9
I5
sg10
(lp734
g23
ag71
asg26
I00
sg27
I00
sg28
I3767863
sg20
S'9315.19600061'
p735
sba(igraph
Edge
p736
(dp737
g7
I1
sg8
I00
sg9
I5
sg10
(lp738
g33
ag71
asg26
I00
sg27
I00
sg28
I3767864
sg20
S'9315.19909905'
p739
sba(igraph
Edge
p740
(dp741
g7
I1
sg8
I00
sg9
I5
sg10
(lp742
g40
ag85
asg26
I00
sg27
I00
sg28
I3767865
sg20
S'9315.20221592'
p743
sba(igraph
Edge
p744
(dp745
g7
I1
sg8
I00
sg9
I5
sg10
(lp746
g47
ag85
asg26
I00
sg27
I00
sg28
I3767866
sg20
S'9315.20524983'
p747
sba(igraph
Edge
p748
(dp749
g7
I1
sg8
I00
sg9
I5
sg10
(lp750
g23
ag672
asg26
I00
sg27
I00
sg28
I3767867
sg20
S'9315.21762989'
p751
sba(igraph
Edge
p752
(dp753
g7
I1
sg8
I00
sg9
I5
sg10
(lp754
g33
ag672
asg26
I00
sg27
I00
sg28
I3767868
sg20
S'9315.22074593'
p755
sba(igraph
Edge
p756
(dp757
g7
I1
sg8
I00
sg9
I5
sg10
(lp758
g40
ag686
asg26
I00
sg27
I00
sg28
I3767869
sg20
S'9315.22391449'
p759
sba(igraph
Edge
p760
(dp761
g7
I1
sg8
I00
sg9
I5
sg10
(lp762
g47
ag686
asg26
I00
sg27
I00
sg28
I3767870
sg20
S'9315.22718809'
p763
sba(igraph
Edge
p764
(dp765
g7
I1
sg8
I00
sg9
I5
sg10
(lp766
g54
ag700
asg26
I00
sg27
I00
sg28
I3767871
sg20
S'9315.23044521'
p767
sba(igraph
Edge
p768
(dp769
g7
I1
sg8
I00
sg9
I5
sg10
(lp770
g12
ag669
asg26
I00
sg27
I00
sg28
I3767872
sg20
S'9315.23709494'
p771
sba(igraph
Edge
p772
(dp773
g7
I1
sg8
I00
sg9
I5
sg10
(lp774
g23
ag669
asg26
I00
sg27
I00
sg28
I3767873
sg20
S'9315.24033809'
p775
sba(igraph
Edge
p776
(dp777
g7
I1
sg8
I00
sg9
I5
sg10
(lp778
g33
ag679
asg26
I00
sg27
I00
sg28
I3767874
sg20
S'9315.24362258'
p779
sba(igraph
Edge
p780
(dp781
g7
I1
sg8
I00
sg9
I5
sg10
(lp782
g40
ag679
asg26
I00
sg27
I00
sg28
I3767875
sg20
S'9315.2470381'
p783
sba(igraph
Edge
p784
(dp785
g7
I1
sg8
I00
sg9
I5
sg10
(lp786
g47
ag693
asg26
I00
sg27
I00
sg28
I3767876
sg20
S'9315.25036255'
p787
sba(igraph
Edge
p788
(dp789
g7
I1
sg8
I00
sg9
I5
sg10
(lp790
g54
ag693
asg26
I00
sg27
I00
sg28
I3767877
sg20
S'9315.25379762'
p791
sba(igraph
Edge
p792
(dp793
g7
I1
sg8
I00
sg9
I5
sg10
(lp794
g61
ag102
asg26
I00
sg27
I00
sg28
I3767878
sg20
S'9315.26058368'
p795
sba(igraph
Edge
p796
(dp797
g7
I1
sg8
I00
sg9
I5
sg10
(lp798
g64
ag102
asg26
I00
sg27
I00
sg28
I3767879
sg20
S'9315.26399808'
p799
sba(igraph
Edge
p800
(dp801
g7
I1
sg8
I00
sg9
I5
sg10
(lp802
g71
ag116
asg26
I00
sg27
I00
sg28
I3767880
sg20
S'9315.26749433'
p803
sba(igraph
Edge
p804
(dp805
g7
I1
sg8
I00
sg9
I5
sg10
(lp806
g78
ag116
asg26
I00
sg27
I00
sg28
I3767881
sg20
S'9315.27108054'
p807
sba(igraph
Edge
p808
(dp809
g7
I1
sg8
I00
sg9
I5
sg10
(lp810
g85
ag130
asg26
I00
sg27
I00
sg28
I3767882
sg20
S'9315.27465558'
p811
sba(igraph
Edge
p812
(dp813
g7
I1
sg8
I00
sg9
I5
sg10
(lp814
g92
ag130
asg26
I00
sg27
I00
sg28
I3767883
sg20
S'9315.27811551'
p815
sba(igraph
Edge
p816
(dp817
g7
I1
sg8
I00
sg9
I5
sg10
(lp818
g61
ag99
asg26
I00
sg27
I00
sg28
I3767884
sg20
S'9315.28515356'
p819
sba(igraph
Edge
p820
(dp821
g7
I1
sg8
I00
sg9
I5
sg10
(lp822
g64
ag109
asg26
I00
sg27
I00
sg28
I3767885
sg20
S'9315.28874536'
p823
sba(igraph
Edge
p824
(dp825
g7
I1
sg8
I00
sg9
I5
sg10
(lp826
g71
ag109
asg26
I00
sg27
I00
sg28
I3767886
sg20
S'9315.29242683'
p827
sba(igraph
Edge
p828
(dp829
g7
I1
sg8
I00
sg9
I5
sg10
(lp830
g78
ag123
asg26
I00
sg27
I00
sg28
I3767887
sg20
S'9315.29624855'
p831
sba(igraph
Edge
p832
(dp833
g7
I1
sg8
I00
sg9
I5
sg10
(lp834
g85
ag123
asg26
I00
sg27
I00
sg28
I3767888
sg20
S'9315.29990963'
p835
sba(igraph
Edge
p836
(dp837
g7
I1
sg8
I00
sg9
I5
sg10
(lp838
g99
ag140
asg26
I00
sg27
I00
sg28
I3767889
sg20
S'9315.31115212'
p839
sba(igraph
Edge
p840
(dp841
g7
I1
sg8
I00
sg9
I5
sg10
(lp842
g102
ag140
asg26
I00
sg27
I00
sg28
I3767890
sg20
S'9315.31484085'
p843
sba(igraph
Edge
p844
(dp845
g7
I1
sg8
I00
sg9
I5
sg10
(lp846
g109
ag154
asg26
I00
sg27
I00
sg28
I3767891
sg20
S'9315.31864608'
p847
sba(igraph
Edge
p848
(dp849
g7
I1
sg8
I00
sg9
I5
sg10
(lp850
g116
ag154
asg26
I00
sg27
I00
sg28
I3767892
sg20
S'9315.32243958'
p851
sba(igraph
Edge
p852
(dp853
g7
I1
sg8
I00
sg9
I5
sg10
(lp854
g123
ag168
asg26
I00
sg27
I00
sg28
I3767893
sg20
S'9315.32624565'
p855
sba(igraph
Edge
p856
(dp857
g7
I1
sg8
I00
sg9
I5
sg10
(lp858
g130
ag168
asg26
I00
sg27
I00
sg28
I3767894
sg20
S'9315.33024784'
p859
sba(igraph
Edge
p860
(dp861
g7
I1
sg8
I00
sg9
I5
sg10
(lp862
g99
ag137
asg26
I00
sg27
I00
sg28
I3767895
sg20
S'9315.33809688'
p863
sba(igraph
Edge
p864
(dp865
g7
I1
sg8
I00
sg9
I5
sg10
(lp866
g102
ag147
asg26
I00
sg27
I00
sg28
I3767896
sg20
S'9315.34206917'
p867
sba(igraph
Edge
p868
(dp869
g7
I1
sg8
I00
sg9
I5
sg10
(lp870
g109
ag147
asg26
I00
sg27
I00
sg28
I3767897
sg20
S'9315.34775118'
p871
sba(igraph
Edge
p872
(dp873
g7
I1
sg8
I00
sg9
I5
sg10
(lp874
g116
ag161
asg26
I00
sg27
I00
sg28
I3767898
sg20
S'9315.35235903'
p875
sba(igraph
Edge
p876
(dp877
g7
I1
sg8
I00
sg9
I5
sg10
(lp878
g123
ag161
asg26
I00
sg27
I00
sg28
I3767899
sg20
S'9315.35691603'
p879
sba(igraph
Edge
p880
(dp881
g7
I1
sg8
I00
sg9
I5
sg10
(lp882
g137
ag178
asg26
I00
sg27
I00
sg28
I3767900
sg20
S'9315.37061191'
p883
sba(igraph
Edge
p884
(dp885
g7
I1
sg8
I00
sg9
I5
sg10
(lp886
g140
ag178
asg26
I00
sg27
I00
sg28
I3767901
sg20
S'9315.37489206'
p887
sba(igraph
Edge
p888
(dp889
g7
I1
sg8
I00
sg9
I5
sg10
(lp890
g147
ag192
asg26
I00
sg27
I00
sg28
I3767902
sg20
S'9315.37959266'
p891
sba(igraph
Edge
p892
(dp893
g7
I1
sg8
I00
sg9
I5
sg10
(lp894
g154
ag192
asg26
I00
sg27
I00
sg28
I3767903
sg20
S'9315.38386639'
p895
sba(igraph
Edge
p896
(dp897
g7
I1
sg8
I00
sg9
I5
sg10
(lp898
g161
ag206
asg26
I00
sg27
I00
sg28
I3767904
sg20
S'9315.38812'
p899
sba(igraph
Edge
p900
(dp901
g7
I1
sg8
I00
sg9
I5
sg10
(lp902
g168
ag206
asg26
I00
sg27
I00
sg28
I3767905
sg20
S'9315.39244932'
p903
sba(igraph
Edge
p904
(dp905
g7
I1
sg8
I00
sg9
I5
sg10
(lp906
g137
ag175
asg26
I00
sg27
I00
sg28
I3767906
sg20
S'9315.40242852'
p907
sba(igraph
Edge
p908
(dp909
g7
I1
sg8
I00
sg9
I5
sg10
(lp910
g140
ag185
asg26
I00
sg27
I00
sg28
I3767907
sg20
S'9315.4066975'
p911
sba(igraph
Edge
p912
(dp913
g7
I1
sg8
I00
sg9
I5
sg10
(lp914
g147
ag185
asg26
I00
sg27
I00
sg28
I3767908
sg20
S'9315.41116483'
p915
sba(igraph
Edge
p916
(dp917
g7
I1
sg8
I00
sg9
I5
sg10
(lp918
g154
ag199
asg26
I00
sg27
I00
sg28
I3767909
sg20
S'9315.41551622'
p919
sba(igraph
Edge
p920
(dp921
g7
I1
sg8
I00
sg9
I5
sg10
(lp922
g161
ag199
asg26
I00
sg27
I00
sg28
I3767910
sg20
S'9315.4198528'
p923
sba(igraph
Edge
p924
(dp925
g7
I1
sg8
I00
sg9
I5
sg10
(lp926
g175
ag216
asg26
I00
sg27
I00
sg28
I3767911
sg20
S'9315.43317656'
p927
sba(igraph
Edge
p928
(dp929
g7
I1
sg8
I00
sg9
I5
sg10
(lp930
g178
ag216
asg26
I00
sg27
I00
sg28
I3767912
sg20
S'9315.43761987'
p931
sba(igraph
Edge
p932
(dp933
g7
I1
sg8
I00
sg9
I5
sg10
(lp934
g185
ag230
asg26
I00
sg27
I00
sg28
I3767913
sg20
S'9315.44294177'
p935
sba(igraph
Edge
p936
(dp937
g7
I1
sg8
I00
sg9
I5
sg10
(lp938
g192
ag230
asg26
I00
sg27
I00
sg28
I3767914
sg20
S'9315.44744123'
p939
sba(igraph
Edge
p940
(dp941
g7
I1
sg8
I00
sg9
I5
sg10
(lp942
g199
ag244
asg26
I00
sg27
I00
sg28
I3767915
sg20
S'9315.45245192'
p943
sba(igraph
Edge
p944
(dp945
g7
I1
sg8
I00
sg9
I5
sg10
(lp946
g206
ag244
asg26
I00
sg27
I00
sg28
I3767916
sg20
S'9315.45701283'
p947
sba(igraph
Edge
p948
(dp949
g7
I1
sg8
I00
sg9
I5
sg10
(lp950
g175
ag213
asg26
I00
sg27
I00
sg28
I3767917
sg20
S'9315.46600532'
p951
sba(igraph
Edge
p952
(dp953
g7
I1
sg8
I00
sg9
I5
sg10
(lp954
g178
ag223
asg26
I00
sg27
I00
sg28
I3767918
sg20
S'9315.4704908'
p955
sba(igraph
Edge
p956
(dp957
g7
I1
sg8
I00
sg9
I5
sg10
(lp958
g185
ag223
asg26
I00
sg27
I00
sg28
I3767919
sg20
S'9315.47500423'
p959
sba(igraph
Edge
p960
(dp961
g7
I1
sg8
I00
sg9
I5
sg10
(lp962
g192
ag237
asg26
I00
sg27
I00
sg28
I3767920
sg20
S'9315.47961291'
p963
sba(igraph
Edge
p964
(dp965
g7
I1
sg8
I00
sg9
I5
sg10
(lp966
g199
ag237
asg26
I00
sg27
I00
sg28
I3767921
sg20
S'9315.48417299'
p967
sba(igraph
Edge
p968
(dp969
g7
I1
sg8
I00
sg9
I5
sg10
(lp970
g213
ag254
asg26
I00
sg27
I00
sg28
I3767922
sg20
S'9315.49862427'
p971
sba(igraph
Edge
p972
(dp973
g7
I1
sg8
I00
sg9
I5
sg10
(lp974
g216
ag254
asg26
I00
sg27
I00
sg28
I3767923
sg20
S'9315.50328966'
p975
sba(igraph
Edge
p976
(dp977
g7
I1
sg8
I00
sg9
I5
sg10
(lp978
g223
ag268
asg26
I00
sg27
I00
sg28
I3767924
sg20
S'9315.50794277'
p979
sba(igraph
Edge
p980
(dp981
g7
I1
sg8
I00
sg9
I5
sg10
(lp982
g230
ag268
asg26
I00
sg27
I00
sg28
I3767925
sg20
S'9315.51309706'
p983
sba(igraph
Edge
p984
(dp985
g7
I1
sg8
I00
sg9
I5
sg10
(lp986
g237
ag282
asg26
I00
sg27
I00
sg28
I3767926
sg20
S'9315.51781888'
p987
sba(igraph
Edge
p988
(dp989
g7
I1
sg8
I00
sg9
I5
sg10
(lp990
g244
ag282
asg26
I00
sg27
I00
sg28
I3767927
sg20
S'9315.52260162'
p991
sba(igraph
Edge
p992
(dp993
g7
I1
sg8
I00
sg9
I5
sg10
(lp994
g213
ag251
asg26
I00
sg27
I00
sg28
I3767928
sg20
S'9315.5324984'
p995
sba(igraph
Edge
p996
(dp997
g7
I1
sg8
I00
sg9
I5
sg10
(lp998
g216
ag261
asg26
I00
sg27
I00
sg28
I3767929
sg20
S'9315.53731857'
p999
sba(igraph
Edge
p1000
(dp1001
g7
I1
sg8
I00
sg9
I5
sg10
(lp1002
g223
ag261
asg26
I00
sg27
I00
sg28
I3767930
sg20
S'9315.54215131'
p1003
sba(igraph
Edge
p1004
(dp1005
g7
I1
sg8
I00
sg9
I5
sg10
(lp1006
g230
ag275
asg26
I00
sg27
I00
sg28
I3767931
sg20
S'9315.54697315'
p1007
sba(igraph
Edge
p1008
(dp1009
g7
I1
sg8
I00
sg9
I5
sg10
(lp1010
g237
ag275
asg26
I00
sg27
I00
sg28
I3767932
sg20
S'9315.55185394'
p1011
sba(igraph
Edge
p1012
(dp1013
g7
I1
sg8
I00
sg9
I5
sg10
(lp1014
g251
ag292
asg26
I00
sg27
I00
sg28
I3767933
sg20
S'9315.56657313'
p1015
sba(igraph
Edge
p1016
(dp1017
g7
I1
sg8
I00
sg9
I5
sg10
(lp1018
g254
ag292
asg26
I00
sg27
I00
sg28
I3767934
sg20
S'9315.57151593'
p1019
sba(igraph
Edge
p1020
(dp1021
g7
I1
sg8
I00
sg9
I5
sg10
(lp1022
g261
ag306
asg26
I00
sg27
I00
sg28
I3767935
sg20
S'9315.5764755'
p1023
sba(igraph
Edge
p1024
(dp1025
g7
I1
sg8
I00
sg9
I5
sg10
(lp1026
g268
ag306
asg26
I00
sg27
I00
sg28
I3767936
sg20
S'9315.58165102'
p1027
sba(igraph
Edge
p1028
(dp1029
g7
I1
sg8
I00
sg9
I5
sg10
(lp1030
g275
ag320
asg26
I00
sg27
I00
sg28
I3767937
sg20
S'9315.58663545'
p1031
sba(igraph
Edge
p1032
(dp1033
g7
I1
sg8
I00
sg9
I5
sg10
(lp1034
g282
ag320
asg26
I00
sg27
I00
sg28
I3767938
sg20
S'9315.59170425'
p1035
sba(igraph
Edge
p1036
(dp1037
g7
I1
sg8
I00
sg9
I5
sg10
(lp1038
g251
ag289
asg26
I00
sg27
I00
sg28
I3767939
sg20
S'9315.60178961'
p1039
sba(igraph
Edge
p1040
(dp1041
g7
I1
sg8
I00
sg9
I5
sg10
(lp1042
g254
ag299
asg26
I00
sg27
I00
sg28
I3767940
sg20
S'9315.60685646'
p1043
sba(igraph
Edge
p1044
(dp1045
g7
I1
sg8
I00
sg9
I5
sg10
(lp1046
g261
ag299
asg26
I00
sg27
I00
sg28
I3767941
sg20
S'9315.61197163'
p1047
sba(igraph
Edge
p1048
(dp1049
g7
I1
sg8
I00
sg9
I5
sg10
(lp1050
g268
ag313
asg26
I00
sg27
I00
sg28
I3767942
sg20
S'9315.61708541'
p1051
sba(igraph
Edge
p1052
(dp1053
g7
I1
sg8
I00
sg9
I5
sg10
(lp1054
g275
ag313
asg26
I00
sg27
I00
sg28
I3767943
sg20
S'9315.62224445'
p1055
sba(igraph
Edge
p1056
(dp1057
g7
I1
sg8
I00
sg9
I5
sg10
(lp1058
g289
ag330
asg26
I00
sg27
I00
sg28
I3767944
sg20
S'9315.63852166'
p1059
sba(igraph
Edge
p1060
(dp1061
g7
I1
sg8
I00
sg9
I5
sg10
(lp1062
g292
ag330
asg26
I00
sg27
I00
sg28
I3767945
sg20
S'9315.64391201'
p1063
sba(igraph
Edge
p1064
(dp1065
g7
I1
sg8
I00
sg9
I5
sg10
(lp1066
g299
ag344
asg26
I00
sg27
I00
sg28
I3767946
sg20
S'9315.64928895'
p1067
sba(igraph
Edge
p1068
(dp1069
g7
I1
sg8
I00
sg9
I5
sg10
(lp1070
g306
ag344
asg26
I00
sg27
I00
sg28
I3767947
sg20
S'9315.65477232'
p1071
sba(igraph
Edge
p1072
(dp1073
g7
I1
sg8
I00
sg9
I5
sg10
(lp1074
g313
ag358
asg26
I00
sg27
I00
sg28
I3767948
sg20
S'9315.66008138'
p1075
sba(igraph
Edge
p1076
(dp1077
g7
I1
sg8
I00
sg9
I5
sg10
(lp1078
g320
ag358
asg26
I00
sg27
I00
sg28
I3767949
sg20
S'9315.66552593'
p1079
sba(igraph
Edge
p1080
(dp1081
g7
I1
sg8
I00
sg9
I5
sg10
(lp1082
g289
ag327
asg26
I00
sg27
I00
sg28
I3767950
sg20
S'9315.67634881'
p1083
sba(igraph
Edge
p1084
(dp1085
g7
I1
sg8
I00
sg9
I5
sg10
(lp1086
g292
ag337
asg26
I00
sg27
I00
sg28
I3767951
sg20
S'9315.68172938'
p1087
sba(igraph
Edge
p1088
(dp1089
g7
I1
sg8
I00
sg9
I5
sg10
(lp1090
g299
ag337
asg26
I00
sg27
I00
sg28
I3767952
sg20
S'9315.6871052'
p1091
sba(igraph
Edge
p1092
(dp1093
g7
I1
sg8
I00
sg9
I5
sg10
(lp1094
g306
ag351
asg26
I00
sg27
I00
sg28
I3767953
sg20
S'9315.69250477'
p1095
sba(igraph
Edge
p1096
(dp1097
g7
I1
sg8
I00
sg9
I5
sg10
(lp1098
g313
ag351
asg26
I00
sg27
I00
sg28
I3767954
sg20
S'9315.69806023'
p1099
sba(igraph
Edge
p1100
(dp1101
g7
I1
sg8
I00
sg9
I5
sg10
(lp1102
g327
ag368
asg26
I00
sg27
I00
sg28
I3767955
sg20
S'9315.71479085'
p1103
sba(igraph
Edge
p1104
(dp1105
g7
I1
sg8
I00
sg9
I5
sg10
(lp1106
g330
ag368
asg26
I00
sg27
I00
sg28
I3767956
sg20
S'9315.72047397'
p1107
sba(igraph
Edge
p1108
(dp1109
g7
I1
sg8
I00
sg9
I5
sg10
(lp1110
g337
ag382
asg26
I00
sg27
I00
sg28
I3767957
sg20
S'9315.72606239'
p1111
sba(igraph
Edge
p1112
(dp1113
g7
I1
sg8
I00
sg9
I5
sg10
(lp1114
g344
ag382
asg26
I00
sg27
I00
sg28
I3767958
sg20
S'9315.73165807'
p1115
sba(igraph
Edge
p1116
(dp1117
g7
I1
sg8
I00
sg9
I5
sg10
(lp1118
g351
ag396
asg26
I00
sg27
I00
sg28
I3767959
sg20
S'9315.73730013'
p1119
sba(igraph
Edge
p1120
(dp1121
g7
I1
sg8
I00
sg9
I5
sg10
(lp1122
g358
ag396
asg26
I00
sg27
I00
sg28
I3767960
sg20
S'9315.74301343'
p1123
sba(igraph
Edge
p1124
(dp1125
g7
I1
sg8
I00
sg9
I5
sg10
(lp1126
g327
ag365
asg26
I00
sg27
I00
sg28
I3767961
sg20
S'9315.75437158'
p1127
sba(igraph
Edge
p1128
(dp1129
g7
I1
sg8
I00
sg9
I5
sg10
(lp1130
g330
ag375
asg26
I00
sg27
I00
sg28
I3767962
sg20
S'9315.76006196'
p1131
sba(igraph
Edge
p1132
(dp1133
g7
I1
sg8
I00
sg9
I5
sg10
(lp1134
g337
ag375
asg26
I00
sg27
I00
sg28
I3767963
sg20
S'9315.76584426'
p1135
sba(igraph
Edge
p1136
(dp1137
g7
I1
sg8
I00
sg9
I5
sg10
(lp1138
g344
ag389
asg26
I00
sg27
I00
sg28
I3767964
sg20
S'9315.77161818'
p1139
sba(igraph
Edge
p1140
(dp1141
g7
I1
sg8
I00
sg9
I5
sg10
(lp1142
g351
ag389
asg26
I00
sg27
I00
sg28
I3767965
sg20
S'9315.77740495'
p1143
sba(igraph
Edge
p1144
(dp1145
g7
I1
sg8
I00
sg9
I5
sg10
(lp1146
g365
ag406
asg26
I00
sg27
I00
sg28
I3767966
sg20
S'9315.79503289'
p1147
sba(igraph
Edge
p1148
(dp1149
g7
I1
sg8
I00
sg9
I5
sg10
(lp1150
g368
ag406
asg26
I00
sg27
I00
sg28
I3767967
sg20
S'9315.80093923'
p1151
sba(igraph
Edge
p1152
(dp1153
g7
I1
sg8
I00
sg9
I5
sg10
(lp1154
g375
ag420
asg26
I00
sg27
I00
sg28
I3767968
sg20
S'9315.80681344'
p1155
sba(igraph
Edge
p1156
(dp1157
g7
I1
sg8
I00
sg9
I5
sg10
(lp1158
g382
ag420
asg26
I00
sg27
I00
sg28
I3767969
sg20
S'9315.8128142'
p1159
sba(igraph
Edge
p1160
(dp1161
g7
I1
sg8
I00
sg9
I5
sg10
(lp1162
g389
ag434
asg26
I00
sg27
I00
sg28
I3767970
sg20
S'9315.81880015'
p1163
sba(igraph
Edge
p1164
(dp1165
g7
I1
sg8
I00
sg9
I5
sg10
(lp1166
g396
ag434
asg26
I00
sg27
I00
sg28
I3767971
sg20
S'9315.8247308'
p1167
sba(igraph
Edge
p1168
(dp1169
g7
I1
sg8
I00
sg9
I5
sg10
(lp1170
g365
ag403
asg26
I00
sg27
I00
sg28
I3767972
sg20
S'9315.83669489'
p1171
sba(igraph
Edge
p1172
(dp1173
g7
I1
sg8
I00
sg9
I5
sg10
(lp1174
g368
ag413
asg26
I00
sg27
I00
sg28
I3767973
sg20
S'9315.84282276'
p1175
sba(igraph
Edge
p1176
(dp1177
g7
I1
sg8
I00
sg9
I5
sg10
(lp1178
g375
ag413
asg26
I00
sg27
I00
sg28
I3767974
sg20
S'9315.8492029'
p1179
sba(igraph
Edge
p1180
(dp1181
g7
I1
sg8
I00
sg9
I5
sg10
(lp1182
g382
ag427
asg26
I00
sg27
I00
sg28
I3767975
sg20
S'9315.85529949'
p1183
sba(igraph
Edge
p1184
(dp1185
g7
I1
sg8
I00
sg9
I5
sg10
(lp1186
g389
ag427
asg26
I00
sg27
I00
sg28
I3767976
sg20
S'9315.8615229'
p1187
sba(igraph
Edge
p1188
(dp1189
g7
I1
sg8
I00
sg9
I5
sg10
(lp1190
g403
ag444
asg26
I00
sg27
I00
sg28
I3767977
sg20
S'9315.88006856'
p1191
sba(igraph
Edge
p1192
(dp1193
g7
I1
sg8
I00
sg9
I5
sg10
(lp1194
g406
ag444
asg26
I00
sg27
I00
sg28
I3767978
sg20
S'9315.88625649'
p1195
sba(igraph
Edge
p1196
(dp1197
g7
I1
sg8
I00
sg9
I5
sg10
(lp1198
g413
ag458
asg26
I00
sg27
I00
sg28
I3767979
sg20
S'9315.89251427'
p1199
sba(igraph
Edge
p1200
(dp1201
g7
I1
sg8
I00
sg9
I5
sg10
(lp1202
g420
ag458
asg26
I00
sg27
I00
sg28
I3767980
sg20
S'9315.89867316'
p1203
sba(igraph
Edge
p1204
(dp1205
g7
I1
sg8
I00
sg9
I5
sg10
(lp1206
g427
ag472
asg26
I00
sg27
I00
sg28
I3767981
sg20
S'9315.90493904'
p1207
sba(igraph
Edge
p1208
(dp1209
g7
I1
sg8
I00
sg9
I5
sg10
(lp1210
g434
ag472
asg26
I00
sg27
I00
sg28
I3767982
sg20
S'9315.91131499'
p1211
sba(igraph
Edge
p1212
(dp1213
g7
I1
sg8
I00
sg9
I5
sg10
(lp1214
g403
ag441
asg26
I00
sg27
I00
sg28
I3767983
sg20
S'9315.92383781'
p1215
sba(igraph
Edge
p1216
(dp1217
g7
I1
sg8
I00
sg9
I5
sg10
(lp1218
g406
ag451
asg26
I00
sg27
I00
sg28
I3767984
sg20
S'9315.9302727'
p1219
sba(igraph
Edge
p1220
(dp1221
g7
I1
sg8
I00
sg9
I5
sg10
(lp1222
g413
ag451
asg26
I00
sg27
I00
sg28
I3767985
sg20
S'9315.93669335'
p1223
sba(igraph
Edge
p1224
(dp1225
g7
I1
sg8
I00
sg9
I5
sg10
(lp1226
g420
ag465
asg26
I00
sg27
I00
sg28
I3767986
sg20
S'9315.94316037'
p1227
sba(igraph
Edge
p1228
(dp1229
g7
I1
sg8
I00
sg9
I5
sg10
(lp1230
g427
ag465
asg26
I00
sg27
I00
sg28
I3767987
sg20
S'9315.94955644'
p1231
sba(igraph
Edge
p1232
(dp1233
g7
I1
sg8
I00
sg9
I5
sg10
(lp1234
g441
ag482
asg26
I00
sg27
I00
sg28
I3767988
sg20
S'9315.9687396'
p1235
sba(igraph
Edge
p1236
(dp1237
g7
I1
sg8
I00
sg9
I5
sg10
(lp1238
g444
ag482
asg26
I00
sg27
I00
sg28
I3767989
sg20
S'9315.97521165'
p1239
sba(igraph
Edge
p1240
(dp1241
g7
I1
sg8
I00
sg9
I5
sg10
(lp1242
g451
ag496
asg26
I00
sg27
I00
sg28
I3767990
sg20
S'9315.98172058'
p1243
sba(igraph
Edge
p1244
(dp1245
g7
I1
sg8
I00
sg9
I5
sg10
(lp1246
g458
ag496
asg26
I00
sg27
I00
sg28
I3767991
sg20
S'9315.98826108'
p1247
sba(igraph
Edge
p1248
(dp1249
g7
I1
sg8
I00
sg9
I5
sg10
(lp1250
g465
ag510
asg26
I00
sg27
I00
sg28
I3767992
sg20
S'9315.99490047'
p1251
sba(igraph
Edge
p1252
(dp1253
g7
I1
sg8
I00
sg9
I5
sg10
(lp1254
g472
ag510
asg26
I00
sg27
I00
sg28
I3767993
sg20
S'9316.00167368'
p1255
sba(igraph
Edge
p1256
(dp1257
g7
I1
sg8
I00
sg9
I5
sg10
(lp1258
g441
ag479
asg26
I00
sg27
I00
sg28
I3767994
sg20
S'9316.01477702'
p1259
sba(igraph
Edge
p1260
(dp1261
g7
I1
sg8
I00
sg9
I5
sg10
(lp1262
g444
ag489
asg26
I00
sg27
I00
sg28
I3767995
sg20
S'9316.02148849'
p1263
sba(igraph
Edge
p1264
(dp1265
g7
I1
sg8
I00
sg9
I5
sg10
(lp1266
g451
ag489
asg26
I00
sg27
I00
sg28
I3767996
sg20
S'9316.02817509'
p1267
sba(igraph
Edge
p1268
(dp1269
g7
I1
sg8
I00
sg9
I5
sg10
(lp1270
g458
ag503
asg26
I00
sg27
I00
sg28
I3767997
sg20
S'9316.03488656'
p1271
sba(igraph
Edge
p1272
(dp1273
g7
I1
sg8
I00
sg9
I5
sg10
(lp1274
g465
ag503
asg26
I00
sg27
I00
sg28
I3767998
sg20
S'9316.04167066'
p1275
sba(igraph
Edge
p1276
(dp1277
g7
I1
sg8
I00
sg9
I5
sg10
(lp1278
g479
ag520
asg26
I00
sg27
I00
sg28
I3767999
sg20
S'9316.062009'
p1279
sba(igraph
Edge
p1280
(dp1281
g7
I1
sg8
I00
sg9
I5
sg10
(lp1282
g482
ag520
asg26
I00
sg27
I00
sg28
I3768000
sg20
S'9316.06892133'
p1283
sba(igraph
Edge
p1284
(dp1285
g7
I1
sg8
I00
sg9
I5
sg10
(lp1286
g489
ag534
asg26
I00
sg27
I00
sg28
I3768001
sg20
S'9316.07583422'
p1287
sba(igraph
Edge
p1288
(dp1289
g7
I1
sg8
I00
sg9
I5
sg10
(lp1290
g496
ag534
asg26
I00
sg27
I00
sg28
I3768002
sg20
S'9316.08276639'
p1291
sba(igraph
Edge
p1292
(dp1293
g7
I1
sg8
I00
sg9
I5
sg10
(lp1294
g503
ag548
asg26
I00
sg27
I00
sg28
I3768003
sg20
S'9316.0896262'
p1295
sba(igraph
Edge
p1296
(dp1297
g7
I1
sg8
I00
sg9
I5
sg10
(lp1298
g510
ag548
asg26
I00
sg27
I00
sg28
I3768004
sg20
S'9316.09657009'
p1299
sba(igraph
Edge
p1300
(dp1301
g7
I1
sg8
I00
sg9
I5
sg10
(lp1302
g479
ag517
asg26
I00
sg27
I00
sg28
I3768005
sg20
S'9316.11054729'
p1303
sba(igraph
Edge
p1304
(dp1305
g7
I1
sg8
I00
sg9
I5
sg10
(lp1306
g482
ag527
asg26
I00
sg27
I00
sg28
I3768006
sg20
S'9316.11748728'
p1307
sba(igraph
Edge
p1308
(dp1309
g7
I1
sg8
I00
sg9
I5
sg10
(lp1310
g489
ag527
asg26
I00
sg27
I00
sg28
I3768007
sg20
S'9316.12449431'
p1311
sba(igraph
Edge
p1312
(dp1313
g7
I1
sg8
I00
sg9
I5
sg10
(lp1314
g496
ag541
asg26
I00
sg27
I00
sg28
I3768008
sg20
S'9316.13147397'
p1315
sba(igraph
Edge
p1316
(dp1317
g7
I1
sg8
I00
sg9
I5
sg10
(lp1318
g503
ag541
asg26
I00
sg27
I00
sg28
I3768009
sg20
S'9316.13872266'
p1319
sba(igraph
Edge
p1320
(dp1321
g7
I1
sg8
I00
sg9
I5
sg10
(lp1322
g517
ag558
asg26
I00
sg27
I00
sg28
I3768010
sg20
S'9316.15987199'
p1323
sba(igraph
Edge
p1324
(dp1325
g7
I1
sg8
I00
sg9
I5
sg10
(lp1326
g520
ag558
asg26
I00
sg27
I00
sg28
I3768011
sg20
S'9316.16706928'
p1327
sba(igraph
Edge
p1328
(dp1329
g7
I1
sg8
I00
sg9
I5
sg10
(lp1330
g527
ag572
asg26
I00
sg27
I00
sg28
I3768012
sg20
S'9316.17435596'
p1331
sba(igraph
Edge
p1332
(dp1333
g7
I1
sg8
I00
sg9
I5
sg10
(lp1334
g534
ag572
asg26
I00
sg27
I00
sg28
I3768013
sg20
S'9316.18148396'
p1335
sba(igraph
Edge
p1336
(dp1337
g7
I1
sg8
I00
sg9
I5
sg10
(lp1338
g541
ag586
asg26
I00
sg27
I00
sg28
I3768014
sg20
S'9316.18870024'
p1339
sba(igraph
Edge
p1340
(dp1341
g7
I1
sg8
I00
sg9
I5
sg10
(lp1342
g548
ag586
asg26
I00
sg27
I00
sg28
I3768015
sg20
S'9316.19578662'
p1343
sba(igraph
Edge
p1344
(dp1345
g7
I1
sg8
I00
sg9
I5
sg10
(lp1346
g517
ag555
asg26
I00
sg27
I00
sg28
I3768016
sg20
S'9316.21033008'
p1347
sba(igraph
Edge
p1348
(dp1349
g7
I1
sg8
I00
sg9
I5
sg10
(lp1350
g520
ag565
asg26
I00
sg27
I00
sg28
I3768017
sg20
S'9316.21748267'
p1351
sba(igraph
Edge
p1352
(dp1353
g7
I1
sg8
I00
sg9
I5
sg10
(lp1354
g527
ag565
asg26
I00
sg27
I00
sg28
I3768018
sg20
S'9316.22486936'
p1355
sba(igraph
Edge
p1356
(dp1357
g7
I1
sg8
I00
sg9
I5
sg10
(lp1358
g534
ag579
asg26
I00
sg27
I00
sg28
I3768019
sg20
S'9316.2321038'
p1359
sba(igraph
Edge
p1360
(dp1361
g7
I1
sg8
I00
sg9
I5
sg10
(lp1362
g541
ag579
asg26
I00
sg27
I00
sg28
I3768020
sg20
S'9316.23941842'
p1363
sba(igraph
Edge
p1364
(dp1365
g7
I1
sg8
I00
sg9
I5
sg10
(lp1366
g555
ag596
asg26
I00
sg27
I00
sg28
I3768021
sg20
S'9316.2613902'
p1367
sba(igraph
Edge
p1368
(dp1369
g7
I1
sg8
I00
sg9
I5
sg10
(lp1370
g558
ag596
asg26
I00
sg27
I00
sg28
I3768022
sg20
S'9316.26880316'
p1371
sba(igraph
Edge
p1372
(dp1373
g7
I1
sg8
I00
sg9
I5
sg10
(lp1374
g565
ag610
asg26
I00
sg27
I00
sg28
I3768023
sg20
S'9316.27634043'
p1375
sba(igraph
Edge
p1376
(dp1377
g7
I1
sg8
I00
sg9
I5
sg10
(lp1378
g572
ag610
asg26
I00
sg27
I00
sg28
I3768024
sg20
S'9316.28389446'
p1379
sba(igraph
Edge
p1380
(dp1381
g7
I1
sg8
I00
sg9
I5
sg10
(lp1382
g579
ag624
asg26
I00
sg27
I00
sg28
I3768025
sg20
S'9316.29141553'
p1383
sba(igraph
Edge
p1384
(dp1385
g7
I1
sg8
I00
sg9
I5
sg10
(lp1386
g586
ag624
asg26
I00
sg27
I00
sg28
I3768026
sg20
S'9316.29895112'
p1387
sba(igraph
Edge
p1388
(dp1389
g7
I1
sg8
I00
sg9
I5
sg10
(lp1390
g555
ag593
asg26
I00
sg27
I00
sg28
I3768027
sg20
S'9316.31414831'
p1391
sba(igraph
Edge
p1392
(dp1393
g7
I1
sg8
I00
sg9
I5
sg10
(lp1394
g558
ag603
asg26
I00
sg27
I00
sg28
I3768028
sg20
S'9316.32175402'
p1395
sba(igraph
Edge
p1396
(dp1397
g7
I1
sg8
I00
sg9
I5
sg10
(lp1398
g565
ag603
asg26
I00
sg27
I00
sg28
I3768029
sg20
S'9316.32936644'
p1399
sba(igraph
Edge
p1400
(dp1401
g7
I1
sg8
I00
sg9
I5
sg10
(lp1402
g572
ag617
asg26
I00
sg27
I00
sg28
I3768030
sg20
S'9316.33693277'
p1403
sba(igraph
Edge
p1404
(dp1405
g7
I1
sg8
I00
sg9
I5
sg10
(lp1406
g579
ag617
asg26
I00
sg27
I00
sg28
I3768031
sg20
S'9316.34467509'
p1407
sba(igraph
Edge
p1408
(dp1409
g7
I1
sg8
I00
sg9
I5
sg10
(lp1410
g593
ag634
asg26
I00
sg27
I00
sg28
I3768032
sg20
S'9316.36809371'
p1411
sba(igraph
Edge
p1412
(dp1413
g7
I1
sg8
I00
sg9
I5
sg10
(lp1414
g596
ag634
asg26
I00
sg27
I00
sg28
I3768033
sg20
S'9316.37586984'
p1415
sba(igraph
Edge
p1416
(dp1417
g7
I1
sg8
I00
sg9
I5
sg10
(lp1418
g603
ag648
asg26
I00
sg27
I00
sg28
I3768034
sg20
S'9316.38365966'
p1419
sba(igraph
Edge
p1420
(dp1421
g7
I1
sg8
I00
sg9
I5
sg10
(lp1422
g610
ag648
asg26
I00
sg27
I00
sg28
I3768035
sg20
S'9316.39150199'
p1423
sba(igraph
Edge
p1424
(dp1425
g7
I1
sg8
I00
sg9
I5
sg10
(lp1426
g617
ag662
asg26
I00
sg27
I00
sg28
I3768036
sg20
S'9316.39933232'
p1427
sba(igraph
Edge
p1428
(dp1429
g7
I1
sg8
I00
sg9
I5
sg10
(lp1430
g624
ag662
asg26
I00
sg27
I00
sg28
I3768037
sg20
S'9316.40718304'
p1431
sba(igraph
Edge
p1432
(dp1433
g7
I1
sg8
I00
sg9
I5
sg10
(lp1434
g593
ag631
asg26
I00
sg27
I00
sg28
I3768038
sg20
S'9316.42296353'
p1435
sba(igraph
Edge
p1436
(dp1437
g7
I1
sg8
I00
sg9
I5
sg10
(lp1438
g596
ag641
asg26
I00
sg27
I00
sg28
I3768039
sg20
S'9316.43082263'
p1439
sba(igraph
Edge
p1440
(dp1441
g7
I1
sg8
I00
sg9
I5
sg10
(lp1442
g603
ag641
asg26
I00
sg27
I00
sg28
I3768040
sg20
S'9316.4386619'
p1443
sba(igraph
Edge
p1444
(dp1445
g7
I1
sg8
I00
sg9
I5
sg10
(lp1446
g610
ag655
asg26
I00
sg27
I00
sg28
I3768041
sg20
S'9316.44660956'
p1447
sba(igraph
Edge
p1448
(dp1449
g7
I1
sg8
I00
sg9
I5
sg10
(lp1450
g617
ag655
asg26
I00
sg27
I00
sg28
I3768042
sg20
S'9316.45463041'
p1451
sba(igraph
Edge
p1452
(dp1453
g7
I1
sg8
I00
sg9
I5
sg10
(lp1454
g631
ag672
asg26
I00
sg27
I00
sg28
I3768043
sg20
S'9316.47844461'
p1455
sba(igraph
Edge
p1456
(dp1457
g7
I1
sg8
I00
sg9
I5
sg10
(lp1458
g634
ag672
asg26
I00
sg27
I00
sg28
I3768044
sg20
S'9316.48648809'
p1459
sba(igraph
Edge
p1460
(dp1461
g7
I1
sg8
I00
sg9
I5
sg10
(lp1462
g641
ag686
asg26
I00
sg27
I00
sg28
I3768045
sg20
S'9316.49636336'
p1463
sba(igraph
Edge
p1464
(dp1465
g7
I1
sg8
I00
sg9
I5
sg10
(lp1466
g648
ag686
asg26
I00
sg27
I00
sg28
I3768046
sg20
S'9316.50590257'
p1467
sba(igraph
Edge
p1468
(dp1469
g7
I1
sg8
I00
sg9
I5
sg10
(lp1470
g655
ag700
asg26
I00
sg27
I00
sg28
I3768047
sg20
S'9316.51478386'
p1471
sba(igraph
Edge
p1472
(dp1473
g7
I1
sg8
I00
sg9
I5
sg10
(lp1474
g662
ag700
asg26
I00
sg27
I00
sg28
I3768048
sg20
S'9316.52375651'
p1475
sba(igraph
Edge
p1476
(dp1477
g7
I1
sg8
I00
sg9
I5
sg10
(lp1478
g631
ag669
asg26
I00
sg27
I00
sg28
I3768049
sg20
S'9316.54132858'
p1479
sba(igraph
Edge
p1480
(dp1481
g7
I1
sg8
I00
sg9
I5
sg10
(lp1482
g634
ag679
asg26
I00
sg27
I00
sg28
I3768050
sg20
S'9316.5500389'
p1483
sba(igraph
Edge
p1484
(dp1485
g7
I1
sg8
I00
sg9
I5
sg10
(lp1486
g641
ag679
asg26
I00
sg27
I00
sg28
I3768051
sg20
S'9316.55983707'
p1487
sba(igraph
Edge
p1488
(dp1489
g7
I1
sg8
I00
sg9
I5
sg10
(lp1490
g648
ag693
asg26
I00
sg27
I00
sg28
I3768052
sg20
S'9316.56899299'
p1491
sba(igraph
Edge
p1492
(dp1493
g7
I1
sg8
I00
sg9
I5
sg10
(lp1494
g655
ag693
asg26
I00
sg27
I00
sg28
I3768053
sg20
S'9316.57773851'
p1495
sba(igraph
Edge
p1496
(dp1497
g7
I1
sg8
I00
sg9
I5
sg10
(lp1498
g700
ag669
asg26
I00
sg27
I00
sg28
I3768054
sg20
S'9436.35430397'
p1499
sba(igraph
Edge
p1500
(dp1501
g7
I1
sg8
I00
sg9
I5
sg10
(lp1502
g669
ag662
asg26
I00
sg27
I00
sg28
I3768055
sg20
S'9445.28758627'
p1503
sba(igraph
Edge
p1504
(dp1505
g7
I1
sg8
I00
sg9
I5
sg10
(lp1506
g662
ag631
asg26
I00
sg27
I00
sg28
I3768056
sg20
S'9448.56512154'
p1507
sba(igraph
Edge
p1508
(dp1509
g7
I1
sg8
I00
sg9
I5
sg10
(lp1510
g631
ag624
asg26
I00
sg27
I00
sg28
I3768057
sg20
S'9450.26587401'
p1511
sba(igraph
Edge
p1512
(dp1513
g7
I1
sg8
I00
sg9
I5
sg10
(lp1514
g624
ag593
asg26
I00
sg27
I00
sg28
I3768058
sg20
S'9452.89179714'
p1515
sba(igraph
Edge
p1516
(dp1517
g7
I1
sg8
I00
sg9
I5
sg10
(lp1518
g593
ag586
asg26
I00
sg27
I00
sg28
I3768059
sg20
S'9455.04155891'
p1519
sba(igraph
Edge
p1520
(dp1521
g7
I1
sg8
I00
sg9
I5
sg10
(lp1522
g586
ag555
asg26
I00
sg27
I00
sg28
I3768060
sg20
S'9457.61749524'
p1523
sba(igraph
Edge
p1524
(dp1525
g7
I1
sg8
I00
sg9
I5
sg10
(lp1526
g555
ag548
asg26
I00
sg27
I00
sg28
I3768061
sg20
S'9460.09316352'
p1527
sba(igraph
Edge
p1528
(dp1529
g7
I1
sg8
I00
sg9
I5
sg10
(lp1530
g548
ag517
asg26
I00
sg27
I00
sg28
I3768062
sg20
S'9462.66827013'
p1531
sba(igraph
Edge
p1532
(dp1533
g7
I1
sg8
I00
sg9
I5
sg10
(lp1534
g517
ag510
asg26
I00
sg27
I00
sg28
I3768063
sg20
S'9465.05983135'
p1535
sba(igraph
Edge
p1536
(dp1537
g7
I1
sg8
I00
sg9
I5
sg10
(lp1538
g510
ag479
asg26
I00
sg27
I00
sg28
I3768064
sg20
S'9467.91600273'
p1539
sba(igraph
Edge
p1540
(dp1541
g7
I1
sg8
I00
sg9
I5
sg10
(lp1542
g479
ag472
asg26
I00
sg27
I00
sg28
I3768065
sg20
S'9469.87592138'
p1543
sba(igraph
Edge
p1544
(dp1545
g7
I1
sg8
I00
sg9
I5
sg10
(lp1546
g472
ag441
asg26
I00
sg27
I00
sg28
I3768066
sg20
S'9474.70151318'
p1547
sba(igraph
Edge
p1548
(dp1549
g7
I1
sg8
I00
sg9
I5
sg10
(lp1550
g441
ag434
asg26
I00
sg27
I00
sg28
I3768067
sg20
S'9476.88762622'
p1551
sba(igraph
Edge
p1552
(dp1553
g7
I1
sg8
I00
sg9
I5
sg10
(lp1554
g434
ag403
asg26
I00
sg27
I00
sg28
I3768068
sg20
S'9479.28320331'
p1555
sba(igraph
Edge
p1556
(dp1557
g7
I1
sg8
I00
sg9
I5
sg10
(lp1558
g403
ag396
asg26
I00
sg27
I00
sg28
I3768069
sg20
S'9481.45017062'
p1559
sba(igraph
Edge
p1560
(dp1561
g7
I1
sg8
I00
sg9
I5
sg10
(lp1562
g396
ag365
asg26
I00
sg27
I00
sg28
I3768070
sg20
S'9483.51573259'
p1563
sba(igraph
Edge
p1564
(dp1565
g7
I1
sg8
I00
sg9
I5
sg10
(lp1566
g365
ag358
asg26
I00
sg27
I00
sg28
I3768071
sg20
S'9486.17458839'
p1567
sba(igraph
Edge
p1568
(dp1569
g7
I1
sg8
I00
sg9
I5
sg10
(lp1570
g358
ag327
asg26
I00
sg27
I00
sg28
I3768072
sg20
S'9488.36809036'
p1571
sba(igraph
Edge
p1572
(dp1573
g7
I1
sg8
I00
sg9
I5
sg10
(lp1574
g327
ag320
asg26
I00
sg27
I00
sg28
I3768073
sg20
S'9490.51611504'
p1575
sba(igraph
Edge
p1576
(dp1577
g7
I1
sg8
I00
sg9
I5
sg10
(lp1578
g320
ag289
asg26
I00
sg27
I00
sg28
I3768074
sg20
S'9493.68182632'
p1579
sba(igraph
Edge
p1580
(dp1581
g7
I1
sg8
I00
sg9
I5
sg10
(lp1582
g289
ag282
asg26
I00
sg27
I00
sg28
I3768075
sg20
S'9495.93422879'
p1583
sba(igraph
Edge
p1584
(dp1585
g7
I1
sg8
I00
sg9
I5
sg10
(lp1586
g282
ag251
asg26
I00
sg27
I00
sg28
I3768076
sg20
S'9497.64449476'
p1587
sba(igraph
Edge
p1588
(dp1589
g7
I1
sg8
I00
sg9
I5
sg10
(lp1590
g251
ag244
asg26
I00
sg27
I00
sg28
I3768077
sg20
S'9499.8937161'
p1591
sba(igraph
Edge
p1592
(dp1593
g7
I1
sg8
I00
sg9
I5
sg10
(lp1594
g244
ag213
asg26
I00
sg27
I00
sg28
I3768078
sg20
S'9502.10046417'
p1595
sba(igraph
Edge
p1596
(dp1597
g7
I1
sg8
I00
sg9
I5
sg10
(lp1598
g213
ag206
asg26
I00
sg27
I00
sg28
I3768079
sg20
S'9504.19285133'
p1599
sba(igraph
Edge
p1600
(dp1601
g7
I1
sg8
I00
sg9
I5
sg10
(lp1602
g206
ag175
asg26
I00
sg27
I00
sg28
I3768080
sg20
S'9506.36239075'
p1603
sba(igraph
Edge
p1604
(dp1605
g7
I1
sg8
I00
sg9
I5
sg10
(lp1606
g175
ag168
asg26
I00
sg27
I00
sg28
I3768081
sg20
S'9508.6172223'
p1607
sba(igraph
Edge
p1608
(dp1609
g7
I1
sg8
I00
sg9
I5
sg10
(lp1610
g168
ag137
asg26
I00
sg27
I00
sg28
I3768082
sg20
S'9511.03497065'
p1611
sba(igraph
Edge
p1612
(dp1613
g7
I1
sg8
I00
sg9
I5
sg10
(lp1614
g137
ag130
asg26
I00
sg27
I00
sg28
I3768083
sg20
S'9513.9541749'
p1615
sba(igraph
Edge
p1616
(dp1617
g7
I1
sg8
I00
sg9
I5
sg10
(lp1618
g130
ag99
asg26
I00
sg27
I00
sg28
I3768084
sg20
S'9516.85057822'
p1619
sba(igraph
Edge
p1620
(dp1621
g7
I1
sg8
I00
sg9
I5
sg10
(lp1622
g99
ag92
asg26
I00
sg27
I00
sg28
I3768085
sg20
S'9518.7394166'
p1623
sba(igraph
Edge
p1624
(dp1625
g7
I1
sg8
I00
sg9
I5
sg10
(lp1626
g92
ag61
asg26
I00
sg27
I00
sg28
I3768086
sg20
S'9520.71474754'
p1627
sba(igraph
Edge
p1628
(dp1629
g7
I1
sg8
I00
sg9
I5
sg10
(lp1630
g61
ag54
asg26
I00
sg27
I00
sg28
I3768087
sg20
S'9524.21125897'
p1631
sba(igraph
Edge
p1632
(dp1633
g7
I1
sg8
I00
sg9
I5
sg10
(lp1634
g54
ag12
asg26
I00
sg27
I00
sg28
I3768088
sg20
S'9526.89242376'
p1635
sba(igraph
Edge
p1636
(dp1637
g7
I1
sg8
I00
sg9
I5
sg10
(lp1638
g12
ag700
asg26
I00
sg27
I00
sg28
I3768089
sg20
S'9529.75837627'
p1639
sbasS'vertices'
p1640
(lp1641
g12
ag23
ag33
ag40
ag47
ag54
ag61
ag64
ag71
ag78
ag85
ag92
ag99
ag102
ag109
ag116
ag123
ag130
ag137
ag140
ag147
ag154
ag161
ag168
ag175
ag178
ag185
ag192
ag199
ag206
ag213
ag216
ag223
ag230
ag237
ag244
ag251
ag254
ag261
ag268
ag275
ag282
ag289
ag292
ag299
ag306
ag313
ag320
ag327
ag330
ag337
ag344
ag351
ag358
ag365
ag368
ag375
ag382
ag389
ag396
ag403
ag406
ag413
ag420
ag427
ag434
ag441
ag444
ag451
ag458
ag465
ag472
ag479
ag482
ag489
ag496
ag503
ag510
ag517
ag520
ag527
ag534
ag541
ag548
ag555
ag558
ag565
ag572
ag579
ag586
ag593
ag596
ag603
ag610
ag617
ag624
ag631
ag634
ag641
ag648
ag655
ag662
ag669
ag672
ag679
ag686
ag693
ag700
asS'tags'
p1642
(lp1643
sb.