(igraph
Graph
p0
(dp1
S'labelingConstraints'
p2
I-1
sS'edges'
p3
(lp4
(igraph
Edge
p5
(dp6
S'direction'
p7
I1
sS'selected'
p8
I00
sS'height'
p9
I5
sS'vs'
p10
(lp11
(igraph
Vertex
p12
(dp13
S'xnorm'
p14
F0.87670731707317073
sg8
I00
sS'label'
p15
S'NULL'
p16
sS'y'
p17
F-309.89732142857144
sS'x'
p18
F326.625
sS'circle'
p19
I3605102
sS'id'
p20
S'8641.58206923'
p21
sS'ynorm'
p22
F0.022436093444226979
sba(igraph
Vertex
p23
(dp24
g14
F0.75536585365853659
sg8
I00
sg15
g16
sg17
F-309.89732142857144
sg18
F202.25
sg19
I3605103
sg20
S'8641.58211309'
p25
sg22
F0.022436093444226979
sbasS'wrap'
p26
I00
sS'curved'
p27
I00
sS'line'
p28
I3604670
sg20
S'8641.69852425'
p29
sba(igraph
Edge
p30
(dp31
g7
I1
sg8
I00
sg9
I5
sg10
(lp32
g23
a(igraph
Vertex
p33
(dp34
g14
F0.63402439024390256
sg8
I00
sg15
g16
sg17
F-309.89732142857144
sg18
F77.875000000000114
sg19
I3605104
sg20
S'8641.58216757'
p35
sg22
F0.022436093444226979
sbasg26
I00
sg27
I00
sg28
I3604671
sg20
S'8641.69860303'
p36
sba(igraph
Edge
p37
(dp38
g7
I1
sg8
I00
sg9
I5
sg10
(lp39
g33
a(igraph
Vertex
p40
(dp41
g14
F0.5126829268292683
sg8
I00
sg15
g16
sg17
F-309.89732142857144
sg18
F-46.5
sg19
I3605105
sg20
S'8641.58223461'
p42
sg22
F0.022436093444226979
sbasg26
I00
sg27
I00
sg28
I3604672
sg20
S'8641.69870221'
p43
sba(igraph
Edge
p44
(dp45
g7
I1
sg8
I00
sg9
I5
sg10
(lp46
g40
a(igraph
Vertex
p47
(dp48
g14
F0.39134146341463422
sg8
I00
sg15
g16
sg17
F-309.89732142857144
sg18
F-170.87499999999994
sg19
I3605106
sg20
S'8641.58231675'
p49
sg22
F0.022436093444226979
sbasg26
I00
sg27
I00
sg28
I3604673
sg20
S'8641.69882206'
p50
sba(igraph
Edge
p51
(dp52
g7
I1
sg8
I00
sg9
I5
sg10
(lp53
g47
a(igraph
Vertex
p54
(dp55
g14
F0.27000000000000002
sg8
I00
sg15
g16
sg17
F-309.89732142857144
sg18
F-295.25
sg19
I3605107
sg20
S'8641.58241676'
p56
sg22
F0.022436093444226979
sbasg26
I00
sg27
I00
sg28
I3604674
sg20
S'8641.69896509'
p57
sba(igraph
Edge
p58
(dp59
g7
I1
sg8
I00
sg9
I5
sg10
(lp60
g54
a(igraph
Vertex
p61
(dp62
g14
F0.14865853658536585
sg8
I00
sg15
g16
sg17
F-309.89732142857144
sg18
F-419.625
sg19
I3605108
sg20
S'8641.58252934'
p63
sg22
F0.022436093444226979
sbasg26
I00
sg27
I00
sg28
I3604675
sg20
S'8641.69912964'
p64
sba(igraph
Edge
p65
(dp66
g7
I1
sg8
I00
sg9
I5
sg10
(lp67
g61
a(igraph
Vertex
p68
(dp69
g14
F0.027317073170731707
sg8
I00
sg15
g16
sg17
F-309.89732142857144
sg18
F-544.0
sg19
I3605109
sg20
S'8641.58265785'
p70
sg22
F0.022436093444226979
sbasg26
I00
sg27
I00
sg28
I3604676
sg20
S'8641.69931514'
p71
sba(igraph
Edge
p72
(dp73
g7
I1
sg8
I00
sg9
I5
sg10
(lp74
(igraph
Vertex
p75
(dp76
g14
F0.87670731707317073
sg8
I00
sg15
g16
sg17
F-272.46104550691246
sg18
F326.625
sg19
I3605110
sg20
S'8641.58296432'
p77
sg22
F0.08653930563884854
sba(igraph
Vertex
p78
(dp79
g14
F0.75536585365853659
sg8
I00
sg15
g16
sg17
F-272.46104550691246
sg18
F202.25
sg19
I3605111
sg20
S'8641.58314004'
p80
sg22
F0.08653930563884854
sbasg26
I00
sg27
I00
sg28
I3604677
sg20
S'8641.70000657'
p81
sba(igraph
Edge
p82
(dp83
g7
I1
sg8
I00
sg9
I5
sg10
(lp84
g78
a(igraph
Vertex
p85
(dp86
g14
F0.63402439024390256
sg8
I00
sg15
g16
sg17
F-272.46104550691246
sg18
F77.875000000000114
sg19
I3605112
sg20
S'8641.5833328'
p87
sg22
F0.08653930563884854
sbasg26
I00
sg27
I00
sg28
I3604678
sg20
S'8641.70027978'
p88
sba(igraph
Edge
p89
(dp90
g7
I1
sg8
I00
sg9
I5
sg10
(lp91
g85
a(igraph
Vertex
p92
(dp93
g14
F0.5126829268292683
sg8
I00
sg15
g16
sg17
F-272.46104550691246
sg18
F-46.5
sg19
I3605113
sg20
S'8641.58353981'
p94
sg22
F0.08653930563884854
sbasg26
I00
sg27
I00
sg28
I3604679
sg20
S'8641.70064771'
p95
sba(igraph
Edge
p96
(dp97
g7
I1
sg8
I00
sg9
I5
sg10
(lp98
g92
a(igraph
Vertex
p99
(dp100
g14
F0.39134146341463422
sg8
I00
sg15
g16
sg17
F-272.46104550691246
sg18
F-170.87499999999994
sg19
I3605114
sg20
S'8641.58376302'
p101
sg22
F0.08653930563884854
sbasg26
I00
sg27
I00
sg28
I3604680
sg20
S'8641.7009782'
p102
sba(igraph
Edge
p103
(dp104
g7
I1
sg8
I00
sg9
I5
sg10
(lp105
g99
a(igraph
Vertex
p106
(dp107
g14
F0.27000000000000002
sg8
I00
sg15
g16
sg17
F-272.46104550691246
sg18
F-295.25
sg19
I3605115
sg20
S'8641.58400188'
p108
sg22
F0.08653930563884854
sbasg26
I00
sg27
I00
sg28
I3604681
sg20
S'8641.70131763'
p109
sba(igraph
Edge
p110
(dp111
g7
I1
sg8
I00
sg9
I5
sg10
(lp112
g106
a(igraph
Vertex
p113
(dp114
g14
F0.14865853658536585
sg8
I00
sg15
g16
sg17
F-272.46104550691246
sg18
F-419.625
sg19
I3605116
sg20
S'8641.5842994'
p115
sg22
F0.08653930563884854
sbasg26
I00
sg27
I00
sg28
I3604682
sg20
S'8641.70170091'
p116
sba(igraph
Edge
p117
(dp118
g7
I1
sg8
I00
sg9
I5
sg10
(lp119
g113
a(igraph
Vertex
p120
(dp121
g14
F0.027317073170731707
sg8
I00
sg15
I0
sg17
F-272.46104550691246
sg18
F-544.0
sg19
I3605117
sg20
S'8641.58460698'
p122
sg22
F0.08653930563884854
sbasg26
I00
sg27
I00
sg28
I3604683
sg20
S'8641.70211074'
p123
sba(igraph
Edge
p124
(dp125
g7
I1
sg8
I00
sg9
I5
sg10
(lp126
(igraph
Vertex
p127
(dp128
g14
F0.87670731707317073
sg8
I00
sg15
g16
sg17
F-235.02476958525341
sg18
F326.625
sg19
I3605119
sg20
S'8641.58522298'
p129
sg22
F0.15064251783347019
sba(igraph
Vertex
p130
(dp131
g14
F0.75536585365853659
sg8
I00
sg15
g16
sg17
F-235.02476958525341
sg18
F202.25
sg19
I3605120
sg20
S'8641.58554146'
p132
sg22
F0.15064251783347019
sbasg26
I00
sg27
I00
sg28
I3604684
sg20
S'8641.7033799'
p133
sba(igraph
Edge
p134
(dp135
g7
I1
sg8
I00
sg9
I5
sg10
(lp136
g130
a(igraph
Vertex
p137
(dp138
g14
F0.63402439024390256
sg8
I00
sg15
g16
sg17
F-235.02476958525341
sg18
F77.875000000000114
sg19
I3605121
sg20
S'8641.58588787'
p139
sg22
F0.15064251783347019
sbasg26
I00
sg27
I00
sg28
I3604685
sg20
S'8641.70384504'
p140
sba(igraph
Edge
p141
(dp142
g7
I1
sg8
I00
sg9
I5
sg10
(lp143
g137
a(igraph
Vertex
p144
(dp145
g14
F0.5126829268292683
sg8
I00
sg15
g16
sg17
F-235.02476958525341
sg18
F-46.5
sg19
I3605122
sg20
S'8641.58625747'
p146
sg22
F0.15064251783347019
sbasg26
I00
sg27
I00
sg28
I3604686
sg20
S'8641.70433086'
p147
sba(igraph
Edge
p148
(dp149
g7
I1
sg8
I00
sg9
I5
sg10
(lp150
g144
a(igraph
Vertex
p151
(dp152
g14
F0.39134146341463422
sg8
I00
sg15
g16
sg17
F-235.02476958525341
sg18
F-170.87499999999994
sg19
I3605123
sg20
S'8641.58662707'
p153
sg22
F0.15064251783347019
sbasg26
I00
sg27
I00
sg28
I3604687
sg20
S'8641.70483958'
p154
sba(igraph
Edge
p155
(dp156
g7
I1
sg8
I00
sg9
I5
sg10
(lp157
g151
a(igraph
Vertex
p158
(dp159
g14
F0.27000000000000002
sg8
I00
sg15
g16
sg17
F-235.02476958525341
sg18
F-295.25
sg19
I3605124
sg20
S'8641.5870179'
p160
sg22
F0.15064251783347019
sbasg26
I00
sg27
I00
sg28
I3604688
sg20
S'8641.70536758'
p161
sba(igraph
Edge
p162
(dp163
g7
I1
sg8
I00
sg9
I5
sg10
(lp164
g158
a(igraph
Vertex
p165
(dp166
g14
F0.14865853658536585
sg8
I00
sg15
I0
sg17
F-235.02476958525341
sg18
F-419.625
sg19
I3605125
sg20
S'8641.58745064'
p167
sg22
F0.15064251783347019
sbasg26
I00
sg27
I00
sg28
I3604689
sg20
S'8641.70591793'
p168
sba(igraph
Edge
p169
(dp170
g7
I1
sg8
I00
sg9
I5
sg10
(lp171
(igraph
Vertex
p172
(dp173
g14
F0.87670731707317073
sg8
I00
sg15
I0
sg17
F-197.58849366359448
sg18
F326.625
sg19
I3605127
sg20
S'8641.58877902'
p174
sg22
F0.21474573002809164
sba(igraph
Vertex
p175
(dp176
g14
F0.75536585365853659
sg8
I00
sg15
g16
sg17
F-197.58849366359448
sg18
F202.25
sg19
I3605129
sg20
S'8641.58925422'
p177
sg22
F0.21474573002809164
sbasg26
I00
sg27
I00
sg28
I3604690
sg20
S'8641.70839087'
p178
sba(igraph
Edge
p179
(dp180
g7
I1
sg8
I00
sg9
I5
sg10
(lp181
g175
a(igraph
Vertex
p182
(dp183
g14
F0.63402439024390256
sg8
I00
sg15
g16
sg17
F-197.58849366359448
sg18
F77.875000000000114
sg19
I3605130
sg20
S'8641.58973138'
p184
sg22
F0.21474573002809164
sbasg26
I00
sg27
I00
sg28
I3604691
sg20
S'8641.70905464'
p185
sba(igraph
Edge
p186
(dp187
g7
I1
sg8
I00
sg9
I5
sg10
(lp188
g182
a(igraph
Vertex
p189
(dp190
g14
F0.5126829268292683
sg8
I00
sg15
g16
sg17
F-197.58849366359448
sg18
F-46.5
sg19
I3605131
sg20
S'8641.59023787'
p191
sg22
F0.21474573002809164
sbasg26
I00
sg27
I00
sg28
I3604692
sg20
S'8641.70975613'
p192
sba(igraph
Edge
p193
(dp194
g7
I1
sg8
I00
sg9
I5
sg10
(lp195
g189
a(igraph
Vertex
p196
(dp197
g14
F0.39134146341463422
sg8
I00
sg15
g16
sg17
F-197.58849366359448
sg18
F-170.87499999999994
sg19
I3605132
sg20
S'8641.59075134'
p198
sg22
F0.21474573002809164
sbasg26
I00
sg27
I00
sg28
I3604693
sg20
S'8641.71049086'
p199
sba(igraph
Edge
p200
(dp201
g7
I1
sg8
I00
sg9
I5
sg10
(lp202
g196
a(igraph
Vertex
p203
(dp204
g14
F0.27000000000000002
sg8
I00
sg15
g16
sg17
F-197.58849366359448
sg18
F-295.25
sg19
I3605133
sg20
S'8641.59129023'
p205
sg22
F0.21474573002809164
sbasg26
I00
sg27
I00
sg28
I3604694
sg20
S'8641.71123313'
p206
sba(igraph
Edge
p207
(dp208
g7
I1
sg8
I00
sg9
I5
sg10
(lp209
g203
a(igraph
Vertex
p210
(dp211
g14
F0.14865853658536585
sg8
I00
sg15
g16
sg17
F-197.58849366359448
sg18
F-419.625
sg19
I3605134
sg20
S'8641.59183332'
p212
sg22
F0.21474573002809164
sbasg26
I00
sg27
I00
sg28
I3604695
sg20
S'8641.71198881'
p213
sba(igraph
Edge
p214
(dp215
g7
I1
sg8
I00
sg9
I5
sg10
(lp216
g210
a(igraph
Vertex
p217
(dp218
g14
F0.027317073170731707
sg8
I00
sg15
g16
sg17
F-197.58849366359448
sg18
F-544.0
sg19
I3605135
sg20
S'8641.59245128'
p219
sg22
F0.21474573002809164
sbasg26
I00
sg27
I00
sg28
I3604696
sg20
S'8641.71278612'
p220
sba(igraph
Edge
p221
(dp222
g7
I1
sg8
I00
sg9
I5
sg10
(lp223
(igraph
Vertex
p224
(dp225
g14
F0.87670731707317073
sg8
I00
sg15
g16
sg17
F-160.15221774193546
sg18
F326.625
sg19
I3605136
sg20
S'8641.59362321'
p226
sg22
F0.27884894222271328
sba(igraph
Vertex
p227
(dp228
g14
F0.75536585365853659
sg8
I00
sg15
g16
sg17
F-160.15221774193546
sg18
F202.25
sg19
I3605137
sg20
S'8641.59423223'
p229
sg22
F0.27884894222271328
sbasg26
I00
sg27
I00
sg28
I3604697
sg20
S'8641.71522526'
p230
sba(igraph
Edge
p231
(dp232
g7
I1
sg8
I00
sg9
I5
sg10
(lp233
g227
a(igraph
Vertex
p234
(dp235
g14
F0.63402439024390256
sg8
I00
sg15
g16
sg17
F-160.15221774193546
sg18
F77.875000000000114
sg19
I3605138
sg20
S'8641.59459261'
p236
sg22
F0.27884894222271328
sbasg26
I00
sg27
I00
sg28
I3604698
sg20
S'8641.71608068'
p237
sba(igraph
Edge
p238
(dp239
g7
I1
sg8
I00
sg9
I5
sg10
(lp240
g234
a(igraph
Vertex
p241
(dp242
g14
F0.5126829268292683
sg8
I00
sg15
g16
sg17
F-160.15221774193546
sg18
F-46.5
sg19
I3605139
sg20
S'8641.59490885'
p243
sg22
F0.27884894222271328
sbasg26
I00
sg27
I00
sg28
I3604699
sg20
S'8641.71695956'
p244
sba(igraph
Edge
p245
(dp246
g7
I1
sg8
I00
sg9
I5
sg10
(lp247
g241
a(igraph
Vertex
p248
(dp249
g14
F0.39134146341463422
sg8
I00
sg15
g16
sg17
F-160.15221774193546
sg18
F-170.87499999999994
sg19
I3605140
sg20
S'8641.59523599'
p250
sg22
F0.27884894222271328
sbasg26
I00
sg27
I00
sg28
I3604700
sg20
S'8641.71785995'
p251
sba(igraph
Edge
p252
(dp253
g7
I1
sg8
I00
sg9
I5
sg10
(lp254
g248
a(igraph
Vertex
p255
(dp256
g14
F0.27000000000000002
sg8
I00
sg15
g16
sg17
F-160.15221774193546
sg18
F-295.25
sg19
I3605141
sg20
S'8641.59556759'
p257
sg22
F0.27884894222271328
sbasg26
I00
sg27
I00
sg28
I3604701
sg20
S'8641.71884611'
p258
sba(igraph
Edge
p259
(dp260
g7
I1
sg8
I00
sg9
I5
sg10
(lp261
g255
a(igraph
Vertex
p262
(dp263
g14
F0.14865853658536585
sg8
I00
sg15
g16
sg17
F-160.15221774193546
sg18
F-419.625
sg19
I3605142
sg20
S'8641.59590758'
p264
sg22
F0.27884894222271328
sbasg26
I00
sg27
I00
sg28
I3604702
sg20
S'8641.71979483'
p265
sba(igraph
Edge
p266
(dp267
g7
I1
sg8
I00
sg9
I5
sg10
(lp268
g262
a(igraph
Vertex
p269
(dp270
g14
F0.027317073170731707
sg8
I00
sg15
g16
sg17
F-160.15221774193546
sg18
F-544.0
sg19
I3605143
sg20
S'8641.59627886'
p271
sg22
F0.27884894222271328
sbasg26
I00
sg27
I00
sg28
I3604703
sg20
S'8641.72076451'
p272
sba(igraph
Edge
p273
(dp274
g7
I1
sg8
I00
sg9
I5
sg10
(lp275
(igraph
Vertex
p276
(dp277
g14
F0.87670731707317073
sg8
I00
sg15
g16
sg17
F-122.7159418202765
sg18
F326.625
sg19
I3605144
sg20
S'8641.59701331'
p278
sg22
F0.34295215441733479
sba(igraph
Vertex
p279
(dp280
g14
F0.75536585365853659
sg8
I00
sg15
I0
sg17
F-122.7159418202765
sg18
F202.25
sg19
I3605145
sg20
S'8641.59739045'
p281
sg22
F0.34295215441733479
sbasg26
I00
sg27
I00
sg28
I3604704
sg20
S'8641.72389787'
p282
sba(igraph
Edge
p283
(dp284
g7
I1
sg8
I00
sg9
I5
sg10
(lp285
g279
a(igraph
Vertex
p286
(dp287
g14
F0.63402439024390256
sg8
I00
sg15
g16
sg17
F-122.7159418202765
sg18
F77.875000000000114
sg19
I3605147
sg20
S'8641.59777234'
p288
sg22
F0.34295215441733479
sbasg26
I00
sg27
I00
sg28
I3604705
sg20
S'8641.72496896'
p289
sba(igraph
Edge
p290
(dp291
g7
I1
sg8
I00
sg9
I5
sg10
(lp292
g286
a(igraph
Vertex
p293
(dp294
g14
F0.5126829268292683
sg8
I00
sg15
g16
sg17
F-122.7159418202765
sg18
F-46.5
sg19
I3605148
sg20
S'8641.5981886'
p295
sg22
F0.34295215441733479
sbasg26
I00
sg27
I00
sg28
I3604706
sg20
S'8641.72605066'
p296
sba(igraph
Edge
p297
(dp298
g7
I1
sg8
I00
sg9
I5
sg10
(lp299
g293
a(igraph
Vertex
p300
(dp301
g14
F0.39134146341463422
sg8
I00
sg15
g16
sg17
F-122.7159418202765
sg18
F-170.87499999999994
sg19
I3605149
sg20
S'8641.59859256'
p302
sg22
F0.34295215441733479
sbasg26
I00
sg27
I00
sg28
I3604707
sg20
S'8641.72725249'
p303
sba(igraph
Edge
p304
(dp305
g7
I1
sg8
I00
sg9
I5
sg10
(lp306
g300
a(igraph
Vertex
p307
(dp308
g14
F0.27000000000000002
sg8
I00
sg15
g16
sg17
F-122.7159418202765
sg18
F-295.25
sg19
I3605150
sg20
S'8641.59900127'
p309
sg22
F0.34295215441733479
sbasg26
I00
sg27
I00
sg28
I3604708
sg20
S'8641.72839649'
p310
sba(igraph
Edge
p311
(dp312
g7
I1
sg8
I00
sg9
I5
sg10
(lp313
g307
a(igraph
Vertex
p314
(dp315
g14
F0.14865853658536585
sg8
I00
sg15
g16
sg17
F-122.7159418202765
sg18
F-419.625
sg19
I3605151
sg20
S'8641.59941669'
p316
sg22
F0.34295215441733479
sbasg26
I00
sg27
I00
sg28
I3604709
sg20
S'8641.72955501'
p317
sba(igraph
Edge
p318
(dp319
g7
I1
sg8
I00
sg9
I5
sg10
(lp320
g314
a(igraph
Vertex
p321
(dp322
g14
F0.027317073170731707
sg8
I00
sg15
g16
sg17
F-122.7159418202765
sg18
F-544.0
sg19
I3605152
sg20
S'8641.59983909'
p323
sg22
F0.34295215441733479
sbasg26
I00
sg27
I00
sg28
I3604710
sg20
S'8641.73075964'
p324
sba(igraph
Edge
p325
(dp326
g7
I1
sg8
I00
sg9
I5
sg10
(lp327
(igraph
Vertex
p328
(dp329
g14
F0.87670731707317073
sg8
I00
sg15
g16
sg17
F-85.279665898617509
sg18
F326.625
sg19
I3605153
sg20
S'8641.60070819'
p330
sg22
F0.40705536661195629
sba(igraph
Vertex
p331
(dp332
g14
F0.75536585365853659
sg8
I00
sg15
g16
sg17
F-85.279665898617509
sg18
F202.25
sg19
I3605154
sg20
S'8641.60116048'
p333
sg22
F0.40705536661195629
sbasg26
I00
sg27
I00
sg28
I3604711
sg20
S'8641.73440842'
p334
sba(igraph
Edge
p335
(dp336
g7
I1
sg8
I00
sg9
I5
sg10
(lp337
g331
a(igraph
Vertex
p338
(dp339
g14
F0.63402439024390256
sg8
I00
sg15
g16
sg17
F-85.279665898617509
sg18
F77.875000000000114
sg19
I3605155
sg20
S'8641.6016178'
p340
sg22
F0.40705536661195629
sbasg26
I00
sg27
I00
sg28
I3604712
sg20
S'8641.73616786'
p341
sba(igraph
Edge
p342
(dp343
g7
I1
sg8
I00
sg9
I5
sg10
(lp344
g338
a(igraph
Vertex
p345
(dp346
g14
F0.5126829268292683
sg8
I00
sg15
g16
sg17
F-85.279665898617509
sg18
F-46.5
sg19
I3605156
sg20
S'8641.60211451'
p347
sg22
F0.40705536661195629
sbasg26
I00
sg27
I00
sg28
I3604713
sg20
S'8641.73744456'
p348
sba(igraph
Edge
p349
(dp350
g7
I1
sg8
I00
sg9
I5
sg10
(lp351
g345
a(igraph
Vertex
p352
(dp353
g14
F0.39134146341463422
sg8
I00
sg15
g16
sg17
F-85.279665898617509
sg18
F-170.87499999999994
sg19
I3605157
sg20
S'8641.60259837'
p354
sg22
F0.40705536661195629
sbasg26
I00
sg27
I00
sg28
I3604714
sg20
S'8641.73873802'
p355
sba(igraph
Edge
p356
(dp357
g7
I1
sg8
I00
sg9
I5
sg10
(lp358
g352
a(igraph
Vertex
p359
(dp360
g14
F0.27000000000000002
sg8
I00
sg15
g16
sg17
F-85.279665898617509
sg18
F-295.25
sg19
I3605158
sg20
S'8641.60308307'
p361
sg22
F0.40705536661195629
sbasg26
I00
sg27
I00
sg28
I3604715
sg20
S'8641.74005635'
p362
sba(igraph
Edge
p363
(dp364
g7
I1
sg8
I00
sg9
I5
sg10
(lp365
g359
a(igraph
Vertex
p366
(dp367
g14
F0.14865853658536585
sg8
I00
sg15
g16
sg17
F-85.279665898617509
sg18
F-419.625
sg19
I3605159
sg20
S'8641.60357308'
p368
sg22
F0.40705536661195629
sbasg26
I00
sg27
I00
sg28
I3604716
sg20
S'8641.74138892'
p369
sba(igraph
Edge
p370
(dp371
g7
I1
sg8
I00
sg9
I5
sg10
(lp372
g366
a(igraph
Vertex
p373
(dp374
g14
F0.027317073170731707
sg8
I00
sg15
g16
sg17
F-85.279665898617509
sg18
F-544.0
sg19
I3605160
sg20
S'8641.60407398'
p375
sg22
F0.40705536661195629
sbasg26
I00
sg27
I00
sg28
I3604717
sg20
S'8641.74278379'
p376
sba(igraph
Edge
p377
(dp378
g7
I1
sg8
I00
sg9
I5
sg10
(lp379
(igraph
Vertex
p380
(dp381
g14
F0.87670731707317073
sg8
I00
sg15
g16
sg17
F-47.843389976958463
sg18
F326.625
sg19
I3605161
sg20
S'8641.60509534'
p382
sg22
F0.47115857880657797
sba(igraph
Vertex
p383
(dp384
g14
F0.75536585365853659
sg8
I00
sg15
g16
sg17
F-47.843389976958463
sg18
F202.25
sg19
I3605162
sg20
S'8641.60561915'
p385
sg22
F0.47115857880657797
sbasg26
I00
sg27
I00
sg28
I3604718
sg20
S'8641.74698516'
p386
sba(igraph
Edge
p387
(dp388
g7
I1
sg8
I00
sg9
I5
sg10
(lp389
g383
a(igraph
Vertex
p390
(dp391
g14
F0.63402439024390256
sg8
I00
sg15
I0
sg17
F-47.843389976958463
sg18
F77.875000000000114
sg19
I3605163
sg20
S'8641.60614938'
p392
sg22
F0.47115857880657797
sbasg26
I00
sg27
I00
sg28
I3604719
sg20
S'8641.74853899'
p393
sba(igraph
Edge
p394
(dp395
g7
I1
sg8
I00
sg9
I5
sg10
(lp396
g390
a(igraph
Vertex
p397
(dp398
g14
F0.5126829268292683
sg8
I00
sg15
g16
sg17
F-47.843389976958463
sg18
F-46.5
sg19
I3605165
sg20
S'8641.60668884'
p399
sg22
F0.47115857880657797
sbasg26
I00
sg27
I00
sg28
I3604720
sg20
S'8641.75025541'
p400
sba(igraph
Edge
p401
(dp402
g7
I1
sg8
I00
sg9
I5
sg10
(lp403
g397
a(igraph
Vertex
p404
(dp405
g14
F0.39134146341463422
sg8
I00
sg15
g16
sg17
F-47.843389976958463
sg18
F-170.87499999999994
sg19
I3605166
sg20
S'8641.60723612'
p406
sg22
F0.47115857880657797
sbasg26
I00
sg27
I00
sg28
I3604721
sg20
S'8641.75188411'
p407
sba(igraph
Edge
p408
(dp409
g7
I1
sg8
I00
sg9
I5
sg10
(lp410
g404
a(igraph
Vertex
p411
(dp412
g14
F0.27000000000000002
sg8
I00
sg15
g16
sg17
F-47.843389976958463
sg18
F-295.25
sg19
I3605167
sg20
S'8641.60782837'
p413
sg22
F0.47115857880657797
sbasg26
I00
sg27
I00
sg28
I3604722
sg20
S'8641.75343179'
p414
sba(igraph
Edge
p415
(dp416
g7
I1
sg8
I00
sg9
I5
sg10
(lp417
g411
a(igraph
Vertex
p418
(dp419
g14
F0.14865853658536585
sg8
I00
sg15
g16
sg17
F-47.843389976958463
sg18
F-419.625
sg19
I3605168
sg20
S'8641.60839548'
p420
sg22
F0.47115857880657797
sbasg26
I00
sg27
I00
sg28
I3604723
sg20
S'8641.755013'
p421
sba(igraph
Edge
p422
(dp423
g7
I1
sg8
I00
sg9
I5
sg10
(lp424
g418
a(igraph
Vertex
p425
(dp426
g14
F0.027317073170731707
sg8
I00
sg15
g16
sg17
F-47.843389976958463
sg18
F-544.0
sg19
I3605169
sg20
S'8641.60898494'
p427
sg22
F0.47115857880657797
sbasg26
I00
sg27
I00
sg28
I3604724
sg20
S'8641.75662493'
p428
sba(igraph
Edge
p429
(dp430
g7
I1
sg8
I00
sg9
I5
sg10
(lp431
(igraph
Vertex
p432
(dp433
g14
F0.87670731707317073
sg8
I00
sg15
g16
sg17
F-10.407114055299473
sg18
F326.625
sg19
I3605170
sg20
S'8641.61016721'
p434
sg22
F0.53526179100119953
sba(igraph
Vertex
p435
(dp436
g14
F0.7551219512195122
sg8
I00
sg15
I0
sg17
F-16.0
sg18
F202.0
sg19
I3605171
sg20
S'8641.61077511'
p437
sg22
F0.52568493150684936
sbasg26
I00
sg27
I00
sg28
I3604725
sg20
S'8641.7614979'
p438
sba(igraph
Edge
p439
(dp440
g7
I1
sg8
I00
sg9
I5
sg10
(lp441
g435
a(igraph
Vertex
p442
(dp443
g14
F0.63402439024390256
sg8
I00
sg15
g16
sg17
F-10.407114055299473
sg18
F77.875000000000114
sg19
I3605173
sg20
S'8641.6113886'
p444
sg22
F0.53526179100119953
sbasg26
I00
sg27
I00
sg28
I3604726
sg20
S'8641.76316124'
p445
sba(igraph
Edge
p446
(dp447
g7
I1
sg8
I00
sg9
I5
sg10
(lp448
g442
a(igraph
Vertex
p449
(dp450
g14
F0.5126829268292683
sg8
I00
sg15
g16
sg17
F-10.407114055299473
sg18
F-46.5
sg19
I3605174
sg20
S'8641.61201158'
p451
sg22
F0.53526179100119953
sbasg26
I00
sg27
I00
sg28
I3604727
sg20
S'8641.76480502'
p452
sba(igraph
Edge
p453
(dp454
g7
I1
sg8
I00
sg9
I5
sg10
(lp455
g449
a(igraph
Vertex
p456
(dp457
g14
F0.39134146341463422
sg8
I00
sg15
g16
sg17
F-10.407114055299473
sg18
F-170.87499999999994
sg19
I3605175
sg20
S'8641.61274855'
p458
sg22
F0.53526179100119953
sbasg26
I00
sg27
I00
sg28
I3604728
sg20
S'8641.7665044'
p459
sba(igraph
Edge
p460
(dp461
g7
I1
sg8
I00
sg9
I5
sg10
(lp462
g456
a(igraph
Vertex
p463
(dp464
g14
F0.27000000000000002
sg8
I00
sg15
g16
sg17
F-10.407114055299473
sg18
F-295.25
sg19
I3605176
sg20
S'8641.61337209'
p465
sg22
F0.53526179100119953
sbasg26
I00
sg27
I00
sg28
I3604729
sg20
S'8641.76838676'
p466
sba(igraph
Edge
p467
(dp468
g7
I1
sg8
I00
sg9
I5
sg10
(lp469
g463
a(igraph
Vertex
p470
(dp471
g14
F0.14865853658536585
sg8
I00
sg15
g16
sg17
F-10.407114055299473
sg18
F-419.625
sg19
I3605177
sg20
S'8641.61403167'
p472
sg22
F0.53526179100119953
sbasg26
I00
sg27
I00
sg28
I3604730
sg20
S'8641.77020571'
p473
sba(igraph
Edge
p474
(dp475
g7
I1
sg8
I00
sg9
I5
sg10
(lp476
g470
a(igraph
Vertex
p477
(dp478
g14
F0.027317073170731707
sg8
I00
sg15
g16
sg17
F-10.407114055299473
sg18
F-544.0
sg19
I3605178
sg20
S'8641.61468455'
p479
sg22
F0.53526179100119953
sbasg26
I00
sg27
I00
sg28
I3604731
sg20
S'8641.77199672'
p480
sba(igraph
Edge
p481
(dp482
g7
I1
sg8
I00
sg9
I5
sg10
(lp483
(igraph
Vertex
p484
(dp485
g14
F0.87670731707317073
sg8
I00
sg15
g16
sg17
F27.029161866359402
sg18
F326.625
sg19
I3605179
sg20
S'8641.61605623'
p486
sg22
F0.59936500319582087
sba(igraph
Vertex
p487
(dp488
g14
F0.75536585365853659
sg8
I00
sg15
g16
sg17
F27.029161866359402
sg18
F202.25
sg19
I3605180
sg20
S'8641.61674403'
p489
sg22
F0.59936500319582087
sbasg26
I00
sg27
I00
sg28
I3604732
sg20
S'8641.77745412'
p490
sba(igraph
Edge
p491
(dp492
g7
I1
sg8
I00
sg9
I5
sg10
(lp493
g487
a(igraph
Vertex
p494
(dp495
g14
F0.63402439024390256
sg8
I00
sg15
g16
sg17
F27.029161866359402
sg18
F77.875000000000114
sg19
I3605181
sg20
S'8641.61744551'
p496
sg22
F0.59936500319582087
sbasg26
I00
sg27
I00
sg28
I3604733
sg20
S'8641.7793105'
p497
sba(igraph
Edge
p498
(dp499
g7
I1
sg8
I00
sg9
I5
sg10
(lp500
g494
a(igraph
Vertex
p501
(dp502
g14
F0.5126829268292683
sg8
I00
sg15
I0
sg17
F27.029161866359402
sg18
F-46.5
sg19
I3605182
sg20
S'8641.61813219'
p503
sg22
F0.59936500319582087
sbasg26
I00
sg27
I00
sg28
I3604734
sg20
S'8641.78118951'
p504
sba(igraph
Edge
p505
(dp506
g7
I1
sg8
I00
sg9
I5
sg10
(lp507
g501
a(igraph
Vertex
p508
(dp509
g14
F0.39134146341463422
sg8
I00
sg15
g16
sg17
F27.029161866359402
sg18
F-170.87499999999994
sg19
I3605184
sg20
S'8641.61883284'
p510
sg22
F0.59936500319582087
sbasg26
I00
sg27
I00
sg28
I3604735
sg20
S'8641.78309618'
p511
sba(igraph
Edge
p512
(dp513
g7
I1
sg8
I00
sg9
I5
sg10
(lp514
g508
a(igraph
Vertex
p515
(dp516
g14
F0.27000000000000002
sg8
I00
sg15
g16
sg17
F27.029161866359402
sg18
F-295.25
sg19
I3605185
sg20
S'8641.61957651'
p517
sg22
F0.59936500319582087
sbasg26
I00
sg27
I00
sg28
I3604736
sg20
S'8641.78510733'
p518
sba(igraph
Edge
p519
(dp520
g7
I1
sg8
I00
sg9
I5
sg10
(lp521
g515
a(igraph
Vertex
p522
(dp523
g14
F0.14865853658536585
sg8
I00
sg15
g16
sg17
F27.029161866359402
sg18
F-419.625
sg19
I3605186
sg20
S'8641.62029671'
p524
sg22
F0.59936500319582087
sbasg26
I00
sg27
I00
sg28
I3604737
sg20
S'8641.7870545'
p525
sba(igraph
Edge
p526
(dp527
g7
I1
sg8
I00
sg9
I5
sg10
(lp528
g522
a(igraph
Vertex
p529
(dp530
g14
F0.027317073170731707
sg8
I00
sg15
g16
sg17
F27.029161866359402
sg18
F-544.0
sg19
I3605187
sg20
S'8641.62106301'
p531
sg22
F0.59936500319582087
sbasg26
I00
sg27
I00
sg28
I3604738
sg20
S'8641.78902626'
p532
sba(igraph
Edge
p533
(dp534
g7
I1
sg8
I00
sg9
I5
sg10
(lp535
(igraph
Vertex
p536
(dp537
g14
F0.87670731707317073
sg8
I00
sg15
g16
sg17
F64.465437788018392
sg18
F326.625
sg19
I3605188
sg20
S'8641.62252884'
p538
sg22
F0.66346821539044243
sba(igraph
Vertex
p539
(dp540
g14
F0.75536585365853659
sg8
I00
sg15
g16
sg17
F64.465437788018392
sg18
F202.25
sg19
I3605189
sg20
S'8641.62327083'
p541
sg22
F0.66346821539044243
sbasg26
I00
sg27
I00
sg28
I3604739
sg20
S'8641.79514156'
p542
sba(igraph
Edge
p543
(dp544
g7
I1
sg8
I00
sg9
I5
sg10
(lp545
g539
a(igraph
Vertex
p546
(dp547
g14
F0.63402439024390256
sg8
I00
sg15
g16
sg17
F64.465437788018392
sg18
F77.875000000000114
sg19
I3605190
sg20
S'8641.62401953'
p548
sg22
F0.66346821539044243
sbasg26
I00
sg27
I00
sg28
I3604740
sg20
S'8641.79722451'
p549
sba(igraph
Edge
p550
(dp551
g7
I1
sg8
I00
sg9
I5
sg10
(lp552
g546
a(igraph
Vertex
p553
(dp554
g14
F0.5126829268292683
sg8
I00
sg15
g16
sg17
F64.465437788018392
sg18
F-46.5
sg19
I3605191
sg20
S'8641.62478332'
p555
sg22
F0.66346821539044243
sbasg26
I00
sg27
I00
sg28
I3604741
sg20
S'8641.79932142'
p556
sba(igraph
Edge
p557
(dp558
g7
I1
sg8
I00
sg9
I5
sg10
(lp559
g553
a(igraph
Vertex
p560
(dp561
g14
F0.39134146341463422
sg8
I00
sg15
g16
sg17
F64.465437788018392
sg18
F-170.87499999999994
sg19
I3605192
sg20
S'8641.62557616'
p562
sg22
F0.66346821539044243
sbasg26
I00
sg27
I00
sg28
I3604742
sg20
S'8641.80150382'
p563
sba(igraph
Edge
p564
(dp565
g7
I1
sg8
I00
sg9
I5
sg10
(lp566
g560
a(igraph
Vertex
p567
(dp568
g14
F0.27000000000000002
sg8
I00
sg15
g16
sg17
F64.465437788018392
sg18
F-295.25
sg19
I3605193
sg20
S'8641.62637318'
p569
sg22
F0.66346821539044243
sbasg26
I00
sg27
I00
sg28
I3604743
sg20
S'8641.80363035'
p570
sba(igraph
Edge
p571
(dp572
g7
I1
sg8
I00
sg9
I5
sg10
(lp573
g567
a(igraph
Vertex
p574
(dp575
g14
F0.14865853658536585
sg8
I00
sg15
g16
sg17
F64.465437788018392
sg18
F-419.625
sg19
I3605194
sg20
S'8641.62716491'
p576
sg22
F0.66346821539044243
sbasg26
I00
sg27
I00
sg28
I3604744
sg20
S'8641.80577783'
p577
sba(igraph
Edge
p578
(dp579
g7
I1
sg8
I00
sg9
I5
sg10
(lp580
g574
a(igraph
Vertex
p581
(dp582
g14
F0.027317073170731707
sg8
I00
sg15
g16
sg17
F64.465437788018392
sg18
F-544.0
sg19
I3605195
sg20
S'8641.62808178'
p583
sg22
F0.66346821539044243
sbasg26
I00
sg27
I00
sg28
I3604745
sg20
S'8641.80804376'
p584
sba(igraph
Edge
p585
(dp586
g7
I1
sg8
I00
sg9
I5
sg10
(lp587
(igraph
Vertex
p588
(dp589
g14
F0.87670731707317073
sg8
I00
sg15
g16
sg17
F101.90171370967738
sg18
F326.625
sg19
I3605196
sg20
S'8641.62970741'
p590
sg22
F0.72757142758506399
sba(igraph
Vertex
p591
(dp592
g14
F0.75536585365853659
sg8
I00
sg15
g16
sg17
F101.90171370967738
sg18
F202.25
sg19
I3605197
sg20
S'8641.63054047'
p593
sg22
F0.72757142758506399
sbasg26
I00
sg27
I00
sg28
I3604746
sg20
S'8641.81468567'
p594
sba(igraph
Edge
p595
(dp596
g7
I1
sg8
I00
sg9
I5
sg10
(lp597
g591
a(igraph
Vertex
p598
(dp599
g14
F0.63402439024390256
sg8
I00
sg15
g16
sg17
F101.90171370967738
sg18
F77.875000000000114
sg19
I3605198
sg20
S'8641.63141964'
p600
sg22
F0.72757142758506399
sbasg26
I00
sg27
I00
sg28
I3604747
sg20
S'8641.81710217'
p601
sba(igraph
Edge
p602
(dp603
g7
I1
sg8
I00
sg9
I5
sg10
(lp604
g598
a(igraph
Vertex
p605
(dp606
g14
F0.5126829268292683
sg8
I00
sg15
g16
sg17
F101.90171370967738
sg18
F-46.5
sg19
I3605199
sg20
S'8641.63226779'
p607
sg22
F0.72757142758506399
sbasg26
I00
sg27
I00
sg28
I3604748
sg20
S'8641.81937565'
p608
sba(igraph
Edge
p609
(dp610
g7
I1
sg8
I00
sg9
I5
sg10
(lp611
g605
a(igraph
Vertex
p612
(dp613
g14
F0.39134146341463422
sg8
I00
sg15
I0
sg17
F101.90171370967738
sg18
F-170.87499999999994
sg19
I3605200
sg20
S'8641.63319835'
p614
sg22
F0.72757142758506399
sbasg26
I00
sg27
I00
sg28
I3604749
sg20
S'8641.8216846'
p615
sba(igraph
Edge
p616
(dp617
g7
I1
sg8
I00
sg9
I5
sg10
(lp618
g612
a(igraph
Vertex
p619
(dp620
g14
F0.27000000000000002
sg8
I00
sg15
g16
sg17
F101.90171370967738
sg18
F-295.25
sg19
I3605202
sg20
S'8641.63406941'
p621
sg22
F0.72757142758506399
sbasg26
I00
sg27
I00
sg28
I3604750
sg20
S'8641.82410642'
p622
sba(igraph
Edge
p623
(dp624
g7
I1
sg8
I00
sg9
I5
sg10
(lp625
g619
a(igraph
Vertex
p626
(dp627
g14
F0.14865853658536585
sg8
I00
sg15
g16
sg17
F101.90171370967738
sg18
F-419.625
sg19
I3605203
sg20
S'8641.6349307'
p628
sg22
F0.72757142758506399
sbasg26
I00
sg27
I00
sg28
I3604751
sg20
S'8641.82642878'
p629
sba(igraph
Edge
p630
(dp631
g7
I1
sg8
I00
sg9
I5
sg10
(lp632
g626
a(igraph
Vertex
p633
(dp634
g14
F0.027317073170731707
sg8
I00
sg15
g16
sg17
F101.90171370967738
sg18
F-544.0
sg19
I3605204
sg20
S'8641.63580092'
p635
sg22
F0.72757142758506399
sbasg26
I00
sg27
I00
sg28
I3604752
sg20
S'8641.82878746'
p636
sba(igraph
Edge
p637
(dp638
g7
I1
sg8
I00
sg9
I5
sg10
(lp639
(igraph
Vertex
p640
(dp641
g14
F0.87670731707317073
sg8
I00
sg15
g16
sg17
F139.33798963133637
sg18
F326.625
sg19
I3605205
sg20
S'8641.63757014'
p642
sg22
F0.79167463977968555
sba(igraph
Vertex
p643
(dp644
g14
F0.75536585365853659
sg8
I00
sg15
g16
sg17
F139.33798963133637
sg18
F202.25
sg19
I3605206
sg20
S'8641.63847109'
p645
sg22
F0.79167463977968555
sbasg26
I00
sg27
I00
sg28
I3604753
sg20
S'8641.836011'
p646
sba(igraph
Edge
p647
(dp648
g7
I1
sg8
I00
sg9
I5
sg10
(lp649
g643
a(igraph
Vertex
p650
(dp651
g14
F0.63402439024390256
sg8
I00
sg15
g16
sg17
F139.33798963133637
sg18
F77.875000000000114
sg19
I3605207
sg20
S'8641.63937959'
p652
sg22
F0.79167463977968555
sbasg26
I00
sg27
I00
sg28
I3604754
sg20
S'8641.83862809'
p653
sba(igraph
Edge
p654
(dp655
g7
I1
sg8
I00
sg9
I5
sg10
(lp656
g650
a(igraph
Vertex
p657
(dp658
g14
F0.5126829268292683
sg8
I00
sg15
g16
sg17
F139.33798963133637
sg18
F-46.5
sg19
I3605208
sg20
S'8641.64029227'
p659
sg22
F0.79167463977968555
sbasg26
I00
sg27
I00
sg28
I3604755
sg20
S'8641.84110578'
p660
sba(igraph
Edge
p661
(dp662
g7
I1
sg8
I00
sg9
I5
sg10
(lp663
g657
a(igraph
Vertex
p664
(dp665
g14
F0.39134146341463422
sg8
I00
sg15
g16
sg17
F139.33798963133637
sg18
F-170.87499999999994
sg19
I3605209
sg20
S'8641.64121278'
p666
sg22
F0.79167463977968555
sbasg26
I00
sg27
I00
sg28
I3604756
sg20
S'8641.84364214'
p667
sba(igraph
Edge
p668
(dp669
g7
I1
sg8
I00
sg9
I5
sg10
(lp670
g664
a(igraph
Vertex
p671
(dp672
g14
F0.27000000000000002
sg8
I00
sg15
g16
sg17
F139.33798963133637
sg18
F-295.25
sg19
I3605210
sg20
S'8641.64214558'
p673
sg22
F0.79167463977968555
sbasg26
I00
sg27
I00
sg28
I3604757
sg20
S'8641.84623604'
p674
sba(igraph
Edge
p675
(dp676
g7
I1
sg8
I00
sg9
I5
sg10
(lp677
g671
a(igraph
Vertex
p678
(dp679
g14
F0.14865853658536585
sg8
I00
sg15
g16
sg17
F139.33798963133637
sg18
F-419.625
sg19
I3605211
sg20
S'8641.64308732'
p680
sg22
F0.79167463977968555
sbasg26
I00
sg27
I00
sg28
I3604758
sg20
S'8641.84878944'
p681
sba(igraph
Edge
p682
(dp683
g7
I1
sg8
I00
sg9
I5
sg10
(lp684
g678
a(igraph
Vertex
p685
(dp686
g14
F0.027317073170731707
sg8
I00
sg15
g16
sg17
F139.33798963133637
sg18
F-544.0
sg19
I3605212
sg20
S'8641.64403716'
p687
sg22
F0.79167463977968555
sbasg26
I00
sg27
I00
sg28
I3604759
sg20
S'8641.85139759'
p688
sba(igraph
Edge
p689
(dp690
g7
I1
sg8
I00
sg9
I5
sg10
(lp691
(igraph
Vertex
p692
(dp693
g14
F0.87670731707317073
sg8
I00
sg15
g16
sg17
F176.77426555299536
sg18
F326.625
sg19
I3605213
sg20
S'8641.64596953'
p694
sg22
F0.85577785197430711
sba(igraph
Vertex
p695
(dp696
g14
F0.75536585365853659
sg8
I00
sg15
g16
sg17
F176.77426555299536
sg18
F202.25
sg19
I3605214
sg20
S'8641.64694619'
p697
sg22
F0.85577785197430711
sbasg26
I00
sg27
I00
sg28
I3604760
sg20
S'8641.85922708'
p698
sba(igraph
Edge
p699
(dp700
g7
I1
sg8
I00
sg9
I5
sg10
(lp701
g695
a(igraph
Vertex
p702
(dp703
g14
F0.63402439024390256
sg8
I00
sg15
g16
sg17
F176.77426555299536
sg18
F77.875000000000114
sg19
I3605215
sg20
S'8641.64793123'
p704
sg22
F0.85577785197430711
sbasg26
I00
sg27
I00
sg28
I3604761
sg20
S'8641.86209756'
p705
sba(igraph
Edge
p706
(dp707
g7
I1
sg8
I00
sg9
I5
sg10
(lp708
g702
a(igraph
Vertex
p709
(dp710
g14
F0.5126829268292683
sg8
I00
sg15
g16
sg17
F176.77426555299536
sg18
F-46.5
sg19
I3605216
sg20
S'8641.64898416'
p711
sg22
F0.85577785197430711
sbasg26
I00
sg27
I00
sg28
I3604762
sg20
S'8641.86481354'
p712
sba(igraph
Edge
p713
(dp714
g7
I1
sg8
I00
sg9
I5
sg10
(lp715
g709
a(igraph
Vertex
p716
(dp717
g14
F0.39134146341463422
sg8
I00
sg15
g16
sg17
F176.77426555299536
sg18
F-170.87499999999994
sg19
I3605217
sg20
S'8641.65005804'
p718
sg22
F0.85577785197430711
sbasg26
I00
sg27
I00
sg28
I3604763
sg20
S'8641.86754015'
p719
sba(igraph
Edge
p720
(dp721
g7
I1
sg8
I00
sg9
I5
sg10
(lp722
g716
a(igraph
Vertex
p723
(dp724
g14
F0.27000000000000002
sg8
I00
sg15
I0
sg17
F176.77426555299536
sg18
F-295.25
sg19
I3605218
sg20
S'8641.65108917'
p725
sg22
F0.85577785197430711
sbasg26
I00
sg27
I00
sg28
I3604764
sg20
S'8641.87024217'
p726
sba(igraph
Edge
p727
(dp728
g7
I1
sg8
I00
sg9
I5
sg10
(lp729
g723
a(igraph
Vertex
p730
(dp731
g14
F0.14865853658536585
sg8
I00
sg15
g16
sg17
F176.77426555299536
sg18
F-419.625
sg19
I3605220
sg20
S'8641.65214238'
p732
sg22
F0.85577785197430711
sbasg26
I00
sg27
I00
sg28
I3604765
sg20
S'8641.87292072'
p733
sba(igraph
Edge
p734
(dp735
g7
I1
sg8
I00
sg9
I5
sg10
(lp736
g730
a(igraph
Vertex
p737
(dp738
g14
F0.027317073170731707
sg8
I00
sg15
g16
sg17
F176.77426555299536
sg18
F-544.0
sg19
I3605221
sg20
S'8641.65317603'
p739
sg22
F0.85577785197430711
sbasg26
I00
sg27
I00
sg28
I3604766
sg20
S'8641.87562023'
p740
sba(igraph
Edge
p741
(dp742
g7
I1
sg8
I00
sg9
I5
sg10
(lp743
(igraph
Vertex
p744
(dp745
g14
F0.87670731707317073
sg8
I00
sg15
g16
sg17
F214.21054147465441
sg18
F326.625
sg19
I3605222
sg20
S'8641.65532742'
p746
sg22
F0.91988106416892879
sba(igraph
Vertex
p747
(dp748
g14
F0.75536585365853659
sg8
I00
sg15
g16
sg17
F214.21054147465441
sg18
F202.25
sg19
I3605223
sg20
S'8641.65638566'
p749
sg22
F0.91988106416892879
sbasg26
I00
sg27
I00
sg28
I3604767
sg20
S'8641.88399252'
p750
sba(igraph
Edge
p751
(dp752
g7
I1
sg8
I00
sg9
I5
sg10
(lp753
g747
a(igraph
Vertex
p754
(dp755
g14
F0.63402439024390256
sg8
I00
sg15
g16
sg17
F214.21054147465441
sg18
F77.875000000000114
sg19
I3605224
sg20
S'8641.65745367'
p756
sg22
F0.91988106416892879
sbasg26
I00
sg27
I00
sg28
I3604768
sg20
S'8641.88679483'
p757
sba(igraph
Edge
p758
(dp759
g7
I1
sg8
I00
sg9
I5
sg10
(lp760
g754
a(igraph
Vertex
p761
(dp762
g14
F0.5126829268292683
sg8
I00
sg15
g16
sg17
F214.21054147465441
sg18
F-46.5
sg19
I3605225
sg20
S'8641.65852615'
p763
sg22
F0.91988106416892879
sbasg26
I00
sg27
I00
sg28
I3604769
sg20
S'8641.88969352'
p764
sba(igraph
Edge
p765
(dp766
g7
I1
sg8
I00
sg9
I5
sg10
(lp767
g761
a(igraph
Vertex
p768
(dp769
g14
F0.39134146341463422
sg8
I00
sg15
I0
sg17
F214.21054147465441
sg18
F-170.87499999999994
sg19
I3605226
sg20
S'8641.6596506'
p770
sg22
F0.91988106416892879
sbasg26
I00
sg27
I00
sg28
I3604770
sg20
S'8641.89260088'
p771
sba(igraph
Edge
p772
(dp773
g7
I1
sg8
I00
sg9
I5
sg10
(lp774
g768
a(igraph
Vertex
p775
(dp776
g14
F0.27000000000000002
sg8
I00
sg15
g16
sg17
F214.21054147465441
sg18
F-295.25
sg19
I3605228
sg20
S'8641.6607608'
p777
sg22
F0.91988106416892879
sbasg26
I00
sg27
I00
sg28
I3604771
sg20
S'8641.8954775'
p778
sba(igraph
Edge
p779
(dp780
g7
I1
sg8
I00
sg9
I5
sg10
(lp781
g775
a(igraph
Vertex
p782
(dp783
g14
F0.14865853658536585
sg8
I00
sg15
g16
sg17
F214.21054147465441
sg18
F-419.625
sg19
I3605229
sg20
S'8641.66186624'
p784
sg22
F0.91988106416892879
sbasg26
I00
sg27
I00
sg28
I3604772
sg20
S'8641.89845134'
p785
sba(igraph
Edge
p786
(dp787
g7
I1
sg8
I00
sg9
I5
sg10
(lp788
g782
a(igraph
Vertex
p789
(dp790
g14
F0.027317073170731707
sg8
I00
sg15
g16
sg17
F214.21054147465441
sg18
F-544.0
sg19
I3605230
sg20
S'8641.66297867'
p791
sg22
F0.91988106416892879
sbasg26
I00
sg27
I00
sg28
I3604773
sg20
S'8641.90140116'
p792
sba(igraph
Edge
p793
(dp794
g7
I1
sg8
I00
sg9
I5
sg10
(lp795
(igraph
Vertex
p796
(dp797
g14
F0.87670731707317073
sg8
I00
sg15
g16
sg17
F251.64681739631339
sg18
F326.625
sg19
I3605231
sg20
S'8641.66523511'
p798
sg22
F0.98398427636355035
sba(igraph
Vertex
p799
(dp800
g14
F0.75536585365853659
sg8
I00
sg15
g16
sg17
F251.64681739631339
sg18
F202.25
sg19
I3605232
sg20
S'8641.66646515'
p801
sg22
F0.98398427636355035
sbasg26
I00
sg27
I00
sg28
I3604774
sg20
S'8641.91053109'
p802
sba(igraph
Edge
p803
(dp804
g7
I1
sg8
I00
sg9
I5
sg10
(lp805
g799
a(igraph
Vertex
p806
(dp807
g14
F0.63402439024390256
sg8
I00
sg15
g16
sg17
F251.64681739631339
sg18
F77.875000000000114
sg19
I3605233
sg20
S'8641.66761306'
p808
sg22
F0.98398427636355035
sbasg26
I00
sg27
I00
sg28
I3604775
sg20
S'8641.91357868'
p809
sba(igraph
Edge
p810
(dp811
g7
I1
sg8
I00
sg9
I5
sg10
(lp812
g806
a(igraph
Vertex
p813
(dp814
g14
F0.5126829268292683
sg8
I00
sg15
g16
sg17
F251.64681739631339
sg18
F-46.5
sg19
I3605234
sg20
S'8641.66876488'
p815
sg22
F0.98398427636355035
sbasg26
I00
sg27
I00
sg28
I3604776
sg20
S'8641.91668746'
p816
sba(igraph
Edge
p817
(dp818
g7
I1
sg8
I00
sg9
I5
sg10
(lp819
g813
a(igraph
Vertex
p820
(dp821
g14
F0.39134146341463422
sg8
I00
sg15
g16
sg17
F251.64681739631339
sg18
F-170.87499999999994
sg19
I3605235
sg20
S'8641.66992956'
p822
sg22
F0.98398427636355035
sbasg26
I00
sg27
I00
sg28
I3604777
sg20
S'8641.91972695'
p823
sba(igraph
Edge
p824
(dp825
g7
I1
sg8
I00
sg9
I5
sg10
(lp826
g820
a(igraph
Vertex
p827
(dp828
g14
F0.27000000000000002
sg8
I00
sg15
g16
sg17
F251.64681739631339
sg18
F-295.25
sg19
I3605236
sg20
S'8641.67110149'
p829
sg22
F0.98398427636355035
sbasg26
I00
sg27
I00
sg28
I3604778
sg20
S'8641.92280416'
p830
sba(igraph
Edge
p831
(dp832
g7
I1
sg8
I00
sg9
I5
sg10
(lp833
g827
a(igraph
Vertex
p834
(dp835
g14
F0.14865853658536585
sg8
I00
sg15
I0
sg17
F251.64681739631339
sg18
F-419.625
sg19
I3605237
sg20
S'8641.67232539'
p836
sg22
F0.98398427636355035
sbasg26
I00
sg27
I00
sg28
I3604779
sg20
S'8641.9258998'
p837
sba(igraph
Edge
p838
(dp839
g7
I1
sg8
I00
sg9
I5
sg10
(lp840
g834
a(igraph
Vertex
p841
(dp842
g14
F0.027317073170731707
sg8
I00
sg15
g16
sg17
F251.64681739631339
sg18
F-544.0
sg19
I3605239
sg20
S'8641.67354398'
p843
sg22
F0.98398427636355035
sbasg26
I00
sg27
I00
sg28
I3604780
sg20
S'8641.92900522'
p844
sba(igraph
Edge
p845
(dp846
g7
I1
sg8
I00
sg9
I5
sg10
(lp847
(igraph
Vertex
p848
(dp849
g14
F0.84328183520599254
sg8
I00
sg15
g16
sg17
F289.0830933179725
sg18
F326.625
sg19
I3605240
sg20
S'8641.67595379'
p850
sg22
F0.90156970046082963
sba(igraph
Vertex
p851
(dp852
g14
F0.7268258426966292
sg8
I00
sg15
g16
sg17
F289.0830933179725
sg18
F202.25
sg19
I3605241
sg20
S'8641.67731821'
p853
sg22
F0.90156970046082963
sbasg26
I00
sg27
I00
sg28
I3604781
sg20
S'8641.93873048'
p854
sba(igraph
Edge
p855
(dp856
g7
I1
sg8
I00
sg9
I5
sg10
(lp857
g851
a(igraph
Vertex
p858
(dp859
g14
F0.61036985018726597
sg8
I00
sg15
g16
sg17
F289.0830933179725
sg18
F77.875000000000114
sg19
I3605242
sg20
S'8641.67854658'
p860
sg22
F0.90156970046082963
sbasg26
I00
sg27
I00
sg28
I3604782
sg20
S'8641.94196804'
p861
sba(igraph
Edge
p862
(dp863
g7
I1
sg8
I00
sg9
I5
sg10
(lp864
g858
a(igraph
Vertex
p865
(dp866
g14
F0.49391385767790263
sg8
I00
sg15
g16
sg17
F289.0830933179725
sg18
F-46.5
sg19
I3605243
sg20
S'8641.67978249'
p867
sg22
F0.90156970046082963
sbasg26
I00
sg27
I00
sg28
I3604783
sg20
S'8641.94517571'
p868
sba(igraph
Edge
p869
(dp870
g7
I1
sg8
I00
sg9
I5
sg10
(lp871
g865
a(igraph
Vertex
p872
(dp873
g14
F0.37745786516853935
sg8
I00
sg15
g16
sg17
F289.0830933179725
sg18
F-170.87499999999994
sg19
I3605244
sg20
S'8641.68103265'
p874
sg22
F0.90156970046082963
sbasg26
I00
sg27
I00
sg28
I3604784
sg20
S'8641.94865353'
p875
sba(igraph
Edge
p876
(dp877
g7
I1
sg8
I00
sg9
I5
sg10
(lp878
g872
a(igraph
Vertex
p879
(dp880
g14
F0.26100187265917602
sg8
I00
sg15
g16
sg17
F289.0830933179725
sg18
F-295.25
sg19
I3605245
sg20
S'8641.68228923'
p881
sg22
F0.90156970046082963
sbasg26
I00
sg27
I00
sg28
I3604785
sg20
S'8641.95197518'
p882
sba(igraph
Edge
p883
(dp884
g7
I1
sg8
I00
sg9
I5
sg10
(lp885
g879
a(igraph
Vertex
p886
(dp887
g14
F0.14454588014981273
sg8
I00
sg15
g16
sg17
F289.0830933179725
sg18
F-419.625
sg19
I3605246
sg20
S'8641.68359833'
p888
sg22
F0.90156970046082963
sbasg26
I00
sg27
I00
sg28
I3604786
sg20
S'8641.95529348'
p889
sba(igraph
Edge
p890
(dp891
g7
I1
sg8
I00
sg9
I5
sg10
(lp892
g886
a(igraph
Vertex
p893
(dp894
g14
F0.028089887640449437
sg8
I00
sg15
g16
sg17
F289.0830933179725
sg18
F-544.0
sg19
I3605247
sg20
S'8641.68488369'
p895
sg22
F0.90156970046082963
sbasg26
I00
sg27
I00
sg28
I3604787
sg20
S'8641.95885147'
p896
sba(igraph
Edge
p897
(dp898
g7
I1
sg8
I00
sg9
I5
sg10
(lp899
(igraph
Vertex
p900
(dp901
g14
F0.84328183520599254
sg8
I00
sg15
g16
sg17
F326.51936923963126
sg18
F326.625
sg19
I3605248
sg20
S'8641.68761588'
p902
sg22
F0.95582517281105972
sba(igraph
Vertex
p903
(dp904
g14
F0.7268258426966292
sg8
I00
sg15
g16
sg17
F326.51936923963126
sg18
F202.25
sg19
I3605249
sg20
S'8641.68897891'
p905
sg22
F0.95582517281105972
sbasg26
I00
sg27
I00
sg28
I3604788
sg20
S'8641.96911954'
p906
sba(igraph
Edge
p907
(dp908
g7
I1
sg8
I00
sg9
I5
sg10
(lp909
g903
a(igraph
Vertex
p910
(dp911
g14
F0.61036985018726597
sg8
I00
sg15
g16
sg17
F326.51936923963126
sg18
F77.875000000000114
sg19
I3605250
sg20
S'8641.69030421'
p912
sg22
F0.95582517281105972
sbasg26
I00
sg27
I00
sg28
I3604789
sg20
S'8641.97257249'
p913
sba(igraph
Edge
p914
(dp915
g7
I1
sg8
I00
sg9
I5
sg10
(lp916
g910
a(igraph
Vertex
p917
(dp918
g14
F0.49391385767790263
sg8
I00
sg15
g16
sg17
F326.51936923963126
sg18
F-46.5
sg19
I3605251
sg20
S'8641.69163483'
p919
sg22
F0.95582517281105972
sbasg26
I00
sg27
I00
sg28
I3604790
sg20
S'8641.97603215'
p920
sba(igraph
Edge
p921
(dp922
g7
I1
sg8
I00
sg9
I5
sg10
(lp923
g917
a(igraph
Vertex
p924
(dp925
g14
F0.37745786516853935
sg8
I00
sg15
g16
sg17
F326.51936923963126
sg18
F-170.87499999999994
sg19
I3605252
sg20
S'8641.69297327'
p926
sg22
F0.95582517281105972
sbasg26
I00
sg27
I00
sg28
I3604791
sg20
S'8641.97955913'
p927
sba(igraph
Edge
p928
(dp929
g7
I1
sg8
I00
sg9
I5
sg10
(lp930
g924
a(igraph
Vertex
p931
(dp932
g14
F0.26100187265917602
sg8
I00
sg15
g16
sg17
F326.51936923963126
sg18
F-295.25
sg19
I3605253
sg20
S'8641.69431422'
p933
sg22
F0.95582517281105972
sbasg26
I00
sg27
I00
sg28
I3604792
sg20
S'8641.98303863'
p934
sba(igraph
Edge
p935
(dp936
g7
I1
sg8
I00
sg9
I5
sg10
(lp937
g931
a(igraph
Vertex
p938
(dp939
g14
F0.14454588014981273
sg8
I00
sg15
g16
sg17
F326.51936923963126
sg18
F-419.625
sg19
I3605254
sg20
S'8641.69569345'
p940
sg22
F0.95582517281105972
sbasg26
I00
sg27
I00
sg28
I3604793
sg20
S'8641.98657762'
p941
sba(igraph
Edge
p942
(dp943
g7
I1
sg8
I00
sg9
I5
sg10
(lp944
g938
a(igraph
Vertex
p945
(dp946
g14
F0.028089887640449437
sg8
I00
sg15
I0
sg17
F326.51936923963126
sg18
F-544.0
sg19
I3605255
sg20
S'8641.69704669'
p947
sg22
F0.95582517281105972
sbasg26
I00
sg27
I00
sg28
I3604794
sg20
S'8641.99007192'
p948
sba(igraph
Edge
p949
(dp950
g7
I1
sg8
I00
sg9
I5
sg10
(lp951
g12
ag78
asg26
I00
sg27
I00
sg28
I3604795
sg20
S'8642.00099314'
p952
sba(igraph
Edge
p953
(dp954
g7
I1
sg8
I00
sg9
I5
sg10
(lp955
g23
ag78
asg26
I00
sg27
I00
sg28
I3604796
sg20
S'8642.00474585'
p956
sba(igraph
Edge
p957
(dp958
g7
I1
sg8
I00
sg9
I5
sg10
(lp959
g33
ag92
asg26
I00
sg27
I00
sg28
I3604797
sg20
S'8642.00840693'
p960
sba(igraph
Edge
p961
(dp962
g7
I1
sg8
I00
sg9
I5
sg10
(lp963
g40
ag92
asg26
I00
sg27
I00
sg28
I3604798
sg20
S'8642.01211607'
p964
sba(igraph
Edge
p965
(dp966
g7
I1
sg8
I00
sg9
I5
sg10
(lp967
g47
ag106
asg26
I00
sg27
I00
sg28
I3604799
sg20
S'8642.01577519'
p968
sba(igraph
Edge
p969
(dp970
g7
I1
sg8
I00
sg9
I5
sg10
(lp971
g54
ag106
asg26
I00
sg27
I00
sg28
I3604800
sg20
S'8642.01944884'
p972
sba(igraph
Edge
p973
(dp974
g7
I1
sg8
I00
sg9
I5
sg10
(lp975
g61
ag120
asg26
I00
sg27
I00
sg28
I3604801
sg20
S'8642.02321189'
p976
sba(igraph
Edge
p977
(dp978
g7
I1
sg8
I00
sg9
I5
sg10
(lp979
g68
ag120
asg26
I00
sg27
I00
sg28
I3604802
sg20
S'8642.02694896'
p980
sba(igraph
Edge
p981
(dp982
g7
I1
sg8
I00
sg9
I5
sg10
(lp983
g12
ag75
asg26
I00
sg27
I00
sg28
I3604803
sg20
S'8642.03467675'
p984
sba(igraph
Edge
p985
(dp986
g7
I1
sg8
I00
sg9
I5
sg10
(lp987
g23
ag85
asg26
I00
sg27
I00
sg28
I3604804
sg20
S'8642.03852054'
p988
sba(igraph
Edge
p989
(dp990
g7
I1
sg8
I00
sg9
I5
sg10
(lp991
g33
ag85
asg26
I00
sg27
I00
sg28
I3604805
sg20
S'8642.042366'
p992
sba(igraph
Edge
p993
(dp994
g7
I1
sg8
I00
sg9
I5
sg10
(lp995
g40
ag99
asg26
I00
sg27
I00
sg28
I3604806
sg20
S'8642.04627543'
p996
sba(igraph
Edge
p997
(dp998
g7
I1
sg8
I00
sg9
I5
sg10
(lp999
g47
ag99
asg26
I00
sg27
I00
sg28
I3604807
sg20
S'8642.05025918'
p1000
sba(igraph
Edge
p1001
(dp1002
g7
I1
sg8
I00
sg9
I5
sg10
(lp1003
g54
ag113
asg26
I00
sg27
I00
sg28
I3604808
sg20
S'8642.0548092'
p1004
sba(igraph
Edge
p1005
(dp1006
g7
I1
sg8
I00
sg9
I5
sg10
(lp1007
g61
ag113
asg26
I00
sg27
I00
sg28
I3604809
sg20
S'8642.05878708'
p1008
sba(igraph
Edge
p1009
(dp1010
g7
I1
sg8
I00
sg9
I5
sg10
(lp1011
g23
ag903
asg26
I00
sg27
I00
sg28
I3604810
sg20
S'8642.07496595'
p1012
sba(igraph
Edge
p1013
(dp1014
g7
I1
sg8
I00
sg9
I5
sg10
(lp1015
g33
ag903
asg26
I00
sg27
I00
sg28
I3604811
sg20
S'8642.07904412'
p1016
sba(igraph
Edge
p1017
(dp1018
g7
I1
sg8
I00
sg9
I5
sg10
(lp1019
g40
ag917
asg26
I00
sg27
I00
sg28
I3604812
sg20
S'8642.08312313'
p1020
sba(igraph
Edge
p1021
(dp1022
g7
I1
sg8
I00
sg9
I5
sg10
(lp1023
g47
ag917
asg26
I00
sg27
I00
sg28
I3604813
sg20
S'8642.08727199'
p1024
sba(igraph
Edge
p1025
(dp1026
g7
I1
sg8
I00
sg9
I5
sg10
(lp1027
g54
ag931
asg26
I00
sg27
I00
sg28
I3604814
sg20
S'8642.09144179'
p1028
sba(igraph
Edge
p1029
(dp1030
g7
I1
sg8
I00
sg9
I5
sg10
(lp1031
g61
ag931
asg26
I00
sg27
I00
sg28
I3604815
sg20
S'8642.09567669'
p1032
sba(igraph
Edge
p1033
(dp1034
g7
I1
sg8
I00
sg9
I5
sg10
(lp1035
g68
ag945
asg26
I00
sg27
I00
sg28
I3604816
sg20
S'8642.09987554'
p1036
sba(igraph
Edge
p1037
(dp1038
g7
I1
sg8
I00
sg9
I5
sg10
(lp1039
g12
ag900
asg26
I00
sg27
I00
sg28
I3604817
sg20
S'8642.10831991'
p1040
sba(igraph
Edge
p1041
(dp1042
g7
I1
sg8
I00
sg9
I5
sg10
(lp1043
g23
ag900
asg26
I00
sg27
I00
sg28
I3604818
sg20
S'8642.11249167'
p1044
sba(igraph
Edge
p1045
(dp1046
g7
I1
sg8
I00
sg9
I5
sg10
(lp1047
g33
ag910
asg26
I00
sg27
I00
sg28
I3604819
sg20
S'8642.1168791'
p1048
sba(igraph
Edge
p1049
(dp1050
g7
I1
sg8
I00
sg9
I5
sg10
(lp1051
g40
ag910
asg26
I00
sg27
I00
sg28
I3604820
sg20
S'8642.12131095'
p1052
sba(igraph
Edge
p1053
(dp1054
g7
I1
sg8
I00
sg9
I5
sg10
(lp1055
g47
ag924
asg26
I00
sg27
I00
sg28
I3604821
sg20
S'8642.12568637'
p1056
sba(igraph
Edge
p1057
(dp1058
g7
I1
sg8
I00
sg9
I5
sg10
(lp1059
g54
ag924
asg26
I00
sg27
I00
sg28
I3604822
sg20
S'8642.13003748'
p1060
sba(igraph
Edge
p1061
(dp1062
g7
I1
sg8
I00
sg9
I5
sg10
(lp1063
g61
ag938
asg26
I00
sg27
I00
sg28
I3604823
sg20
S'8642.13437602'
p1064
sba(igraph
Edge
p1065
(dp1066
g7
I1
sg8
I00
sg9
I5
sg10
(lp1067
g68
ag938
asg26
I00
sg27
I00
sg28
I3604824
sg20
S'8642.13874305'
p1068
sba(igraph
Edge
p1069
(dp1070
g7
I1
sg8
I00
sg9
I5
sg10
(lp1071
g75
ag130
asg26
I00
sg27
I00
sg28
I3604825
sg20
S'8642.147583'
p1072
sba(igraph
Edge
p1073
(dp1074
g7
I1
sg8
I00
sg9
I5
sg10
(lp1075
g78
ag130
asg26
I00
sg27
I00
sg28
I3604826
sg20
S'8642.15195088'
p1076
sba(igraph
Edge
p1077
(dp1078
g7
I1
sg8
I00
sg9
I5
sg10
(lp1079
g85
ag144
asg26
I00
sg27
I00
sg28
I3604827
sg20
S'8642.15636401'
p1080
sba(igraph
Edge
p1081
(dp1082
g7
I1
sg8
I00
sg9
I5
sg10
(lp1083
g92
ag144
asg26
I00
sg27
I00
sg28
I3604828
sg20
S'8642.16080815'
p1084
sba(igraph
Edge
p1085
(dp1086
g7
I1
sg8
I00
sg9
I5
sg10
(lp1087
g99
ag158
asg26
I00
sg27
I00
sg28
I3604829
sg20
S'8642.16525145'
p1088
sba(igraph
Edge
p1089
(dp1090
g7
I1
sg8
I00
sg9
I5
sg10
(lp1091
g106
ag158
asg26
I00
sg27
I00
sg28
I3604830
sg20
S'8642.16986014'
p1092
sba(igraph
Edge
p1093
(dp1094
g7
I1
sg8
I00
sg9
I5
sg10
(lp1095
g75
ag127
asg26
I00
sg27
I00
sg28
I3604831
sg20
S'8642.1883988'
p1096
sba(igraph
Edge
p1097
(dp1098
g7
I1
sg8
I00
sg9
I5
sg10
(lp1099
g78
ag137
asg26
I00
sg27
I00
sg28
I3604832
sg20
S'8642.19307985'
p1100
sba(igraph
Edge
p1101
(dp1102
g7
I1
sg8
I00
sg9
I5
sg10
(lp1103
g85
ag137
asg26
I00
sg27
I00
sg28
I3604833
sg20
S'8642.19772988'
p1104
sba(igraph
Edge
p1105
(dp1106
g7
I1
sg8
I00
sg9
I5
sg10
(lp1107
g92
ag151
asg26
I00
sg27
I00
sg28
I3604834
sg20
S'8642.2024816'
p1108
sba(igraph
Edge
p1109
(dp1110
g7
I1
sg8
I00
sg9
I5
sg10
(lp1111
g99
ag151
asg26
I00
sg27
I00
sg28
I3604835
sg20
S'8642.20714001'
p1112
sba(igraph
Edge
p1113
(dp1114
g7
I1
sg8
I00
sg9
I5
sg10
(lp1115
g106
ag165
asg26
I00
sg27
I00
sg28
I3604836
sg20
S'8642.21200572'
p1116
sba(igraph
Edge
p1117
(dp1118
g7
I1
sg8
I00
sg9
I5
sg10
(lp1119
g113
ag165
asg26
I00
sg27
I00
sg28
I3604837
sg20
S'8642.21674794'
p1120
sba(igraph
Edge
p1121
(dp1122
g7
I1
sg8
I00
sg9
I5
sg10
(lp1123
g127
ag175
asg26
I00
sg27
I00
sg28
I3604838
sg20
S'8642.23117463'
p1124
sba(igraph
Edge
p1125
(dp1126
g7
I1
sg8
I00
sg9
I5
sg10
(lp1127
g130
ag175
asg26
I00
sg27
I00
sg28
I3604839
sg20
S'8642.23601659'
p1128
sba(igraph
Edge
p1129
(dp1130
g7
I1
sg8
I00
sg9
I5
sg10
(lp1131
g137
ag189
asg26
I00
sg27
I00
sg28
I3604840
sg20
S'8642.24118177'
p1132
sba(igraph
Edge
p1133
(dp1134
g7
I1
sg8
I00
sg9
I5
sg10
(lp1135
g144
ag189
asg26
I00
sg27
I00
sg28
I3604841
sg20
S'8642.24612905'
p1136
sba(igraph
Edge
p1137
(dp1138
g7
I1
sg8
I00
sg9
I5
sg10
(lp1139
g151
ag203
asg26
I00
sg27
I00
sg28
I3604842
sg20
S'8642.25102492'
p1140
sba(igraph
Edge
p1141
(dp1142
g7
I1
sg8
I00
sg9
I5
sg10
(lp1143
g158
ag203
asg26
I00
sg27
I00
sg28
I3604843
sg20
S'8642.2559979'
p1144
sba(igraph
Edge
p1145
(dp1146
g7
I1
sg8
I00
sg9
I5
sg10
(lp1147
g165
ag217
asg26
I00
sg27
I00
sg28
I3604844
sg20
S'8642.26098205'
p1148
sba(igraph
Edge
p1149
(dp1150
g7
I1
sg8
I00
sg9
I5
sg10
(lp1151
g127
ag172
asg26
I00
sg27
I00
sg28
I3604845
sg20
S'8642.27612169'
p1152
sba(igraph
Edge
p1153
(dp1154
g7
I1
sg8
I00
sg9
I5
sg10
(lp1155
g130
ag182
asg26
I00
sg27
I00
sg28
I3604846
sg20
S'8642.281086'
p1156
sba(igraph
Edge
p1157
(dp1158
g7
I1
sg8
I00
sg9
I5
sg10
(lp1159
g137
ag182
asg26
I00
sg27
I00
sg28
I3604847
sg20
S'8642.28618051'
p1160
sba(igraph
Edge
p1161
(dp1162
g7
I1
sg8
I00
sg9
I5
sg10
(lp1163
g144
ag196
asg26
I00
sg27
I00
sg28
I3604848
sg20
S'8642.29124093'
p1164
sba(igraph
Edge
p1165
(dp1166
g7
I1
sg8
I00
sg9
I5
sg10
(lp1167
g151
ag196
asg26
I00
sg27
I00
sg28
I3604849
sg20
S'8642.29638264'
p1168
sba(igraph
Edge
p1169
(dp1170
g7
I1
sg8
I00
sg9
I5
sg10
(lp1171
g158
ag210
asg26
I00
sg27
I00
sg28
I3604850
sg20
S'8642.30151653'
p1172
sba(igraph
Edge
p1173
(dp1174
g7
I1
sg8
I00
sg9
I5
sg10
(lp1175
g165
ag210
asg26
I00
sg27
I00
sg28
I3604851
sg20
S'8642.30683034'
p1176
sba(igraph
Edge
p1177
(dp1178
g7
I1
sg8
I00
sg9
I5
sg10
(lp1179
g172
ag227
asg26
I00
sg27
I00
sg28
I3604852
sg20
S'8642.32244908'
p1180
sba(igraph
Edge
p1181
(dp1182
g7
I1
sg8
I00
sg9
I5
sg10
(lp1183
g175
ag227
asg26
I00
sg27
I00
sg28
I3604853
sg20
S'8642.32766315'
p1184
sba(igraph
Edge
p1185
(dp1186
g7
I1
sg8
I00
sg9
I5
sg10
(lp1187
g182
ag241
asg26
I00
sg27
I00
sg28
I3604854
sg20
S'8642.33333762'
p1188
sba(igraph
Edge
p1189
(dp1190
g7
I1
sg8
I00
sg9
I5
sg10
(lp1191
g189
ag241
asg26
I00
sg27
I00
sg28
I3604855
sg20
S'8642.33857515'
p1192
sba(igraph
Edge
p1193
(dp1194
g7
I1
sg8
I00
sg9
I5
sg10
(lp1195
g196
ag255
asg26
I00
sg27
I00
sg28
I3604856
sg20
S'8642.34385041'
p1196
sba(igraph
Edge
p1197
(dp1198
g7
I1
sg8
I00
sg9
I5
sg10
(lp1199
g203
ag255
asg26
I00
sg27
I00
sg28
I3604857
sg20
S'8642.34910191'
p1200
sba(igraph
Edge
p1201
(dp1202
g7
I1
sg8
I00
sg9
I5
sg10
(lp1203
g210
ag269
asg26
I00
sg27
I00
sg28
I3604858
sg20
S'8642.35445622'
p1204
sba(igraph
Edge
p1205
(dp1206
g7
I1
sg8
I00
sg9
I5
sg10
(lp1207
g217
ag269
asg26
I00
sg27
I00
sg28
I3604859
sg20
S'8642.35973706'
p1208
sba(igraph
Edge
p1209
(dp1210
g7
I1
sg8
I00
sg9
I5
sg10
(lp1211
g172
ag224
asg26
I00
sg27
I00
sg28
I3604860
sg20
S'8642.37043842'
p1212
sba(igraph
Edge
p1213
(dp1214
g7
I1
sg8
I00
sg9
I5
sg10
(lp1215
g175
ag234
asg26
I00
sg27
I00
sg28
I3604861
sg20
S'8642.37578826'
p1216
sba(igraph
Edge
p1217
(dp1218
g7
I1
sg8
I00
sg9
I5
sg10
(lp1219
g182
ag234
asg26
I00
sg27
I00
sg28
I3604862
sg20
S'8642.38121074'
p1220
sba(igraph
Edge
p1221
(dp1222
g7
I1
sg8
I00
sg9
I5
sg10
(lp1223
g189
ag248
asg26
I00
sg27
I00
sg28
I3604863
sg20
S'8642.38666479'
p1224
sba(igraph
Edge
p1225
(dp1226
g7
I1
sg8
I00
sg9
I5
sg10
(lp1227
g196
ag248
asg26
I00
sg27
I00
sg28
I3604864
sg20
S'8642.39213475'
p1228
sba(igraph
Edge
p1229
(dp1230
g7
I1
sg8
I00
sg9
I5
sg10
(lp1231
g203
ag262
asg26
I00
sg27
I00
sg28
I3604865
sg20
S'8642.3976497'
p1232
sba(igraph
Edge
p1233
(dp1234
g7
I1
sg8
I00
sg9
I5
sg10
(lp1235
g210
ag262
asg26
I00
sg27
I00
sg28
I3604866
sg20
S'8642.40319342'
p1236
sba(igraph
Edge
p1237
(dp1238
g7
I1
sg8
I00
sg9
I5
sg10
(lp1239
g224
ag279
asg26
I00
sg27
I00
sg28
I3604867
sg20
S'8642.41976033'
p1240
sba(igraph
Edge
p1241
(dp1242
g7
I1
sg8
I00
sg9
I5
sg10
(lp1243
g227
ag279
asg26
I00
sg27
I00
sg28
I3604868
sg20
S'8642.42539932'
p1244
sba(igraph
Edge
p1245
(dp1246
g7
I1
sg8
I00
sg9
I5
sg10
(lp1247
g234
ag293
asg26
I00
sg27
I00
sg28
I3604869
sg20
S'8642.43095114'
p1248
sba(igraph
Edge
p1249
(dp1250
g7
I1
sg8
I00
sg9
I5
sg10
(lp1251
g241
ag293
asg26
I00
sg27
I00
sg28
I3604870
sg20
S'8642.436539'
p1252
sba(igraph
Edge
p1253
(dp1254
g7
I1
sg8
I00
sg9
I5
sg10
(lp1255
g248
ag307
asg26
I00
sg27
I00
sg28
I3604871
sg20
S'8642.44220676'
p1256
sba(igraph
Edge
p1257
(dp1258
g7
I1
sg8
I00
sg9
I5
sg10
(lp1259
g255
ag307
asg26
I00
sg27
I00
sg28
I3604872
sg20
S'8642.44786949'
p1260
sba(igraph
Edge
p1261
(dp1262
g7
I1
sg8
I00
sg9
I5
sg10
(lp1263
g262
ag321
asg26
I00
sg27
I00
sg28
I3604873
sg20
S'8642.45355206'
p1264
sba(igraph
Edge
p1265
(dp1266
g7
I1
sg8
I00
sg9
I5
sg10
(lp1267
g269
ag321
asg26
I00
sg27
I00
sg28
I3604874
sg20
S'8642.45927066'
p1268
sba(igraph
Edge
p1269
(dp1270
g7
I1
sg8
I00
sg9
I5
sg10
(lp1271
g224
ag276
asg26
I00
sg27
I00
sg28
I3604875
sg20
S'8642.47091097'
p1272
sba(igraph
Edge
p1273
(dp1274
g7
I1
sg8
I00
sg9
I5
sg10
(lp1275
g227
ag286
asg26
I00
sg27
I00
sg28
I3604876
sg20
S'8642.47886198'
p1276
sba(igraph
Edge
p1277
(dp1278
g7
I1
sg8
I00
sg9
I5
sg10
(lp1279
g234
ag286
asg26
I00
sg27
I00
sg28
I3604877
sg20
S'8642.48506025'
p1280
sba(igraph
Edge
p1281
(dp1282
g7
I1
sg8
I00
sg9
I5
sg10
(lp1283
g241
ag300
asg26
I00
sg27
I00
sg28
I3604878
sg20
S'8642.49144123'
p1284
sba(igraph
Edge
p1285
(dp1286
g7
I1
sg8
I00
sg9
I5
sg10
(lp1287
g248
ag300
asg26
I00
sg27
I00
sg28
I3604879
sg20
S'8642.49785434'
p1288
sba(igraph
Edge
p1289
(dp1290
g7
I1
sg8
I00
sg9
I5
sg10
(lp1291
g255
ag314
asg26
I00
sg27
I00
sg28
I3604880
sg20
S'8642.50461162'
p1292
sba(igraph
Edge
p1293
(dp1294
g7
I1
sg8
I00
sg9
I5
sg10
(lp1295
g262
ag314
asg26
I00
sg27
I00
sg28
I3604881
sg20
S'8642.5112024'
p1296
sba(igraph
Edge
p1297
(dp1298
g7
I1
sg8
I00
sg9
I5
sg10
(lp1299
g276
ag331
asg26
I00
sg27
I00
sg28
I3604882
sg20
S'8642.53063783'
p1300
sba(igraph
Edge
p1301
(dp1302
g7
I1
sg8
I00
sg9
I5
sg10
(lp1303
g279
ag331
asg26
I00
sg27
I00
sg28
I3604883
sg20
S'8642.53732611'
p1304
sba(igraph
Edge
p1305
(dp1306
g7
I1
sg8
I00
sg9
I5
sg10
(lp1307
g286
ag345
asg26
I00
sg27
I00
sg28
I3604884
sg20
S'8642.54360875'
p1308
sba(igraph
Edge
p1309
(dp1310
g7
I1
sg8
I00
sg9
I5
sg10
(lp1311
g293
ag345
asg26
I00
sg27
I00
sg28
I3604885
sg20
S'8642.54989335'
p1312
sba(igraph
Edge
p1313
(dp1314
g7
I1
sg8
I00
sg9
I5
sg10
(lp1315
g300
ag359
asg26
I00
sg27
I00
sg28
I3604886
sg20
S'8642.5563682'
p1316
sba(igraph
Edge
p1317
(dp1318
g7
I1
sg8
I00
sg9
I5
sg10
(lp1319
g307
ag359
asg26
I00
sg27
I00
sg28
I3604887
sg20
S'8642.56299222'
p1320
sba(igraph
Edge
p1321
(dp1322
g7
I1
sg8
I00
sg9
I5
sg10
(lp1323
g314
ag373
asg26
I00
sg27
I00
sg28
I3604888
sg20
S'8642.56985986'
p1324
sba(igraph
Edge
p1325
(dp1326
g7
I1
sg8
I00
sg9
I5
sg10
(lp1327
g321
ag373
asg26
I00
sg27
I00
sg28
I3604889
sg20
S'8642.57660429'
p1328
sba(igraph
Edge
p1329
(dp1330
g7
I1
sg8
I00
sg9
I5
sg10
(lp1331
g276
ag328
asg26
I00
sg27
I00
sg28
I3604890
sg20
S'8642.5918607'
p1332
sba(igraph
Edge
p1333
(dp1334
g7
I1
sg8
I00
sg9
I5
sg10
(lp1335
g279
ag338
asg26
I00
sg27
I00
sg28
I3604891
sg20
S'8642.59961112'
p1336
sba(igraph
Edge
p1337
(dp1338
g7
I1
sg8
I00
sg9
I5
sg10
(lp1339
g286
ag338
asg26
I00
sg27
I00
sg28
I3604892
sg20
S'8642.60781133'
p1340
sba(igraph
Edge
p1341
(dp1342
g7
I1
sg8
I00
sg9
I5
sg10
(lp1343
g293
ag352
asg26
I00
sg27
I00
sg28
I3604893
sg20
S'8642.61553549'
p1344
sba(igraph
Edge
p1345
(dp1346
g7
I1
sg8
I00
sg9
I5
sg10
(lp1347
g300
ag352
asg26
I00
sg27
I00
sg28
I3604894
sg20
S'8642.62373151'
p1348
sba(igraph
Edge
p1349
(dp1350
g7
I1
sg8
I00
sg9
I5
sg10
(lp1351
g307
ag366
asg26
I00
sg27
I00
sg28
I3604895
sg20
S'8642.63165291'
p1352
sba(igraph
Edge
p1353
(dp1354
g7
I1
sg8
I00
sg9
I5
sg10
(lp1355
g314
ag366
asg26
I00
sg27
I00
sg28
I3604896
sg20
S'8642.63851635'
p1356
sba(igraph
Edge
p1357
(dp1358
g7
I1
sg8
I00
sg9
I5
sg10
(lp1359
g328
ag383
asg26
I00
sg27
I00
sg28
I3604897
sg20
S'8642.66037834'
p1360
sba(igraph
Edge
p1361
(dp1362
g7
I1
sg8
I00
sg9
I5
sg10
(lp1363
g331
ag383
asg26
I00
sg27
I00
sg28
I3604898
sg20
S'8642.66747757'
p1364
sba(igraph
Edge
p1365
(dp1366
g7
I1
sg8
I00
sg9
I5
sg10
(lp1367
g338
ag397
asg26
I00
sg27
I00
sg28
I3604899
sg20
S'8642.6746472'
p1368
sba(igraph
Edge
p1369
(dp1370
g7
I1
sg8
I00
sg9
I5
sg10
(lp1371
g345
ag397
asg26
I00
sg27
I00
sg28
I3604900
sg20
S'8642.68177548'
p1372
sba(igraph
Edge
p1373
(dp1374
g7
I1
sg8
I00
sg9
I5
sg10
(lp1375
g352
ag411
asg26
I00
sg27
I00
sg28
I3604901
sg20
S'8642.68862551'
p1376
sba(igraph
Edge
p1377
(dp1378
g7
I1
sg8
I00
sg9
I5
sg10
(lp1379
g359
ag411
asg26
I00
sg27
I00
sg28
I3604902
sg20
S'8642.69556466'
p1380
sba(igraph
Edge
p1381
(dp1382
g7
I1
sg8
I00
sg9
I5
sg10
(lp1383
g366
ag425
asg26
I00
sg27
I00
sg28
I3604903
sg20
S'8642.7023834'
p1384
sba(igraph
Edge
p1385
(dp1386
g7
I1
sg8
I00
sg9
I5
sg10
(lp1387
g373
ag425
asg26
I00
sg27
I00
sg28
I3604904
sg20
S'8642.71074089'
p1388
sba(igraph
Edge
p1389
(dp1390
g7
I1
sg8
I00
sg9
I5
sg10
(lp1391
g328
ag380
asg26
I00
sg27
I00
sg28
I3604905
sg20
S'8642.72639092'
p1392
sba(igraph
Edge
p1393
(dp1394
g7
I1
sg8
I00
sg9
I5
sg10
(lp1395
g331
ag390
asg26
I00
sg27
I00
sg28
I3604906
sg20
S'8642.73423857'
p1396
sba(igraph
Edge
p1397
(dp1398
g7
I1
sg8
I00
sg9
I5
sg10
(lp1399
g338
ag390
asg26
I00
sg27
I00
sg28
I3604907
sg20
S'8642.74189764'
p1400
sba(igraph
Edge
p1401
(dp1402
g7
I1
sg8
I00
sg9
I5
sg10
(lp1403
g345
ag404
asg26
I00
sg27
I00
sg28
I3604908
sg20
S'8642.74990425'
p1404
sba(igraph
Edge
p1405
(dp1406
g7
I1
sg8
I00
sg9
I5
sg10
(lp1407
g352
ag404
asg26
I00
sg27
I00
sg28
I3604909
sg20
S'8642.75801422'
p1408
sba(igraph
Edge
p1409
(dp1410
g7
I1
sg8
I00
sg9
I5
sg10
(lp1411
g359
ag418
asg26
I00
sg27
I00
sg28
I3604910
sg20
S'8642.76529168'
p1412
sba(igraph
Edge
p1413
(dp1414
g7
I1
sg8
I00
sg9
I5
sg10
(lp1415
g366
ag418
asg26
I00
sg27
I00
sg28
I3604911
sg20
S'8642.77277112'
p1416
sba(igraph
Edge
p1417
(dp1418
g7
I1
sg8
I00
sg9
I5
sg10
(lp1419
g380
ag435
asg26
I00
sg27
I00
sg28
I3604912
sg20
S'8642.79520721'
p1420
sba(igraph
Edge
p1421
(dp1422
g7
I1
sg8
I00
sg9
I5
sg10
(lp1423
g383
ag435
asg26
I00
sg27
I00
sg28
I3604913
sg20
S'8642.80262547'
p1424
sba(igraph
Edge
p1425
(dp1426
g7
I1
sg8
I00
sg9
I5
sg10
(lp1427
g390
ag449
asg26
I00
sg27
I00
sg28
I3604914
sg20
S'8642.80975487'
p1428
sba(igraph
Edge
p1429
(dp1430
g7
I1
sg8
I00
sg9
I5
sg10
(lp1431
g397
ag449
asg26
I00
sg27
I00
sg28
I3604915
sg20
S'8642.81756089'
p1432
sba(igraph
Edge
p1433
(dp1434
g7
I1
sg8
I00
sg9
I5
sg10
(lp1435
g404
ag463
asg26
I00
sg27
I00
sg28
I3604916
sg20
S'8642.82474281'
p1436
sba(igraph
Edge
p1437
(dp1438
g7
I1
sg8
I00
sg9
I5
sg10
(lp1439
g411
ag463
asg26
I00
sg27
I00
sg28
I3604917
sg20
S'8642.83404483'
p1440
sba(igraph
Edge
p1441
(dp1442
g7
I1
sg8
I00
sg9
I5
sg10
(lp1443
g418
ag477
asg26
I00
sg27
I00
sg28
I3604918
sg20
S'8642.84149326'
p1444
sba(igraph
Edge
p1445
(dp1446
g7
I1
sg8
I00
sg9
I5
sg10
(lp1447
g425
ag477
asg26
I00
sg27
I00
sg28
I3604919
sg20
S'8642.84890175'
p1448
sba(igraph
Edge
p1449
(dp1450
g7
I1
sg8
I00
sg9
I5
sg10
(lp1451
g380
ag432
asg26
I00
sg27
I00
sg28
I3604920
sg20
S'8642.87156356'
p1452
sba(igraph
Edge
p1453
(dp1454
g7
I1
sg8
I00
sg9
I5
sg10
(lp1455
g383
ag442
asg26
I00
sg27
I00
sg28
I3604921
sg20
S'8642.88044067'
p1456
sba(igraph
Edge
p1457
(dp1458
g7
I1
sg8
I00
sg9
I5
sg10
(lp1459
g390
ag442
asg26
I00
sg27
I00
sg28
I3604922
sg20
S'8642.88984522'
p1460
sba(igraph
Edge
p1461
(dp1462
g7
I1
sg8
I00
sg9
I5
sg10
(lp1463
g397
ag456
asg26
I00
sg27
I00
sg28
I3604923
sg20
S'8642.89908382'
p1464
sba(igraph
Edge
p1465
(dp1466
g7
I1
sg8
I00
sg9
I5
sg10
(lp1467
g404
ag456
asg26
I00
sg27
I00
sg28
I3604924
sg20
S'8642.90818582'
p1468
sba(igraph
Edge
p1469
(dp1470
g7
I1
sg8
I00
sg9
I5
sg10
(lp1471
g411
ag470
asg26
I00
sg27
I00
sg28
I3604925
sg20
S'8642.91673467'
p1472
sba(igraph
Edge
p1473
(dp1474
g7
I1
sg8
I00
sg9
I5
sg10
(lp1475
g418
ag470
asg26
I00
sg27
I00
sg28
I3604926
sg20
S'8642.92433899'
p1476
sba(igraph
Edge
p1477
(dp1478
g7
I1
sg8
I00
sg9
I5
sg10
(lp1479
g432
ag487
asg26
I00
sg27
I00
sg28
I3604927
sg20
S'8642.94847474'
p1480
sba(igraph
Edge
p1481
(dp1482
g7
I1
sg8
I00
sg9
I5
sg10
(lp1483
g435
ag487
asg26
I00
sg27
I00
sg28
I3604928
sg20
S'8642.95680065'
p1484
sba(igraph
Edge
p1485
(dp1486
g7
I1
sg8
I00
sg9
I5
sg10
(lp1487
g442
ag501
asg26
I00
sg27
I00
sg28
I3604929
sg20
S'8642.96491314'
p1488
sba(igraph
Edge
p1489
(dp1490
g7
I1
sg8
I00
sg9
I5
sg10
(lp1491
g449
ag501
asg26
I00
sg27
I00
sg28
I3604930
sg20
S'8642.97275408'
p1492
sba(igraph
Edge
p1493
(dp1494
g7
I1
sg8
I00
sg9
I5
sg10
(lp1495
g456
ag515
asg26
I00
sg27
I00
sg28
I3604931
sg20
S'8642.98046148'
p1496
sba(igraph
Edge
p1497
(dp1498
g7
I1
sg8
I00
sg9
I5
sg10
(lp1499
g463
ag515
asg26
I00
sg27
I00
sg28
I3604932
sg20
S'8642.98823929'
p1500
sba(igraph
Edge
p1501
(dp1502
g7
I1
sg8
I00
sg9
I5
sg10
(lp1503
g470
ag529
asg26
I00
sg27
I00
sg28
I3604933
sg20
S'8642.99963878'
p1504
sba(igraph
Edge
p1505
(dp1506
g7
I1
sg8
I00
sg9
I5
sg10
(lp1507
g477
ag529
asg26
I00
sg27
I00
sg28
I3604934
sg20
S'8643.01123048'
p1508
sba(igraph
Edge
p1509
(dp1510
g7
I1
sg8
I00
sg9
I5
sg10
(lp1511
g432
ag484
asg26
I00
sg27
I00
sg28
I3604935
sg20
S'8643.03106233'
p1512
sba(igraph
Edge
p1513
(dp1514
g7
I1
sg8
I00
sg9
I5
sg10
(lp1515
g435
ag494
asg26
I00
sg27
I00
sg28
I3604936
sg20
S'8643.04041491'
p1516
sba(igraph
Edge
p1517
(dp1518
g7
I1
sg8
I00
sg9
I5
sg10
(lp1519
g442
ag494
asg26
I00
sg27
I00
sg28
I3604937
sg20
S'8643.04977337'
p1520
sba(igraph
Edge
p1521
(dp1522
g7
I1
sg8
I00
sg9
I5
sg10
(lp1523
g449
ag508
asg26
I00
sg27
I00
sg28
I3604938
sg20
S'8643.05938129'
p1524
sba(igraph
Edge
p1525
(dp1526
g7
I1
sg8
I00
sg9
I5
sg10
(lp1527
g456
ag508
asg26
I00
sg27
I00
sg28
I3604939
sg20
S'8643.0678888'
p1528
sba(igraph
Edge
p1529
(dp1530
g7
I1
sg8
I00
sg9
I5
sg10
(lp1531
g463
ag522
asg26
I00
sg27
I00
sg28
I3604940
sg20
S'8643.07612951'
p1532
sba(igraph
Edge
p1533
(dp1534
g7
I1
sg8
I00
sg9
I5
sg10
(lp1535
g470
ag522
asg26
I00
sg27
I00
sg28
I3604941
sg20
S'8643.08431155'
p1536
sba(igraph
Edge
p1537
(dp1538
g7
I1
sg8
I00
sg9
I5
sg10
(lp1539
g484
ag539
asg26
I00
sg27
I00
sg28
I3604942
sg20
S'8643.10912756'
p1540
sba(igraph
Edge
p1541
(dp1542
g7
I1
sg8
I00
sg9
I5
sg10
(lp1543
g487
ag539
asg26
I00
sg27
I00
sg28
I3604943
sg20
S'8643.11678579'
p1544
sba(igraph
Edge
p1545
(dp1546
g7
I1
sg8
I00
sg9
I5
sg10
(lp1547
g494
ag553
asg26
I00
sg27
I00
sg28
I3604944
sg20
S'8643.12441023'
p1548
sba(igraph
Edge
p1549
(dp1550
g7
I1
sg8
I00
sg9
I5
sg10
(lp1551
g501
ag553
asg26
I00
sg27
I00
sg28
I3604945
sg20
S'8643.13209332'
p1552
sba(igraph
Edge
p1553
(dp1554
g7
I1
sg8
I00
sg9
I5
sg10
(lp1555
g508
ag567
asg26
I00
sg27
I00
sg28
I3604946
sg20
S'8643.13970854'
p1556
sba(igraph
Edge
p1557
(dp1558
g7
I1
sg8
I00
sg9
I5
sg10
(lp1559
g515
ag567
asg26
I00
sg27
I00
sg28
I3604947
sg20
S'8643.14744779'
p1560
sba(igraph
Edge
p1561
(dp1562
g7
I1
sg8
I00
sg9
I5
sg10
(lp1563
g522
ag581
asg26
I00
sg27
I00
sg28
I3604948
sg20
S'8643.15517643'
p1564
sba(igraph
Edge
p1565
(dp1566
g7
I1
sg8
I00
sg9
I5
sg10
(lp1567
g529
ag581
asg26
I00
sg27
I00
sg28
I3604949
sg20
S'8643.16301876'
p1568
sba(igraph
Edge
p1569
(dp1570
g7
I1
sg8
I00
sg9
I5
sg10
(lp1571
g484
ag536
asg26
I00
sg27
I00
sg28
I3604950
sg20
S'8643.17913226'
p1572
sba(igraph
Edge
p1573
(dp1574
g7
I1
sg8
I00
sg9
I5
sg10
(lp1575
g487
ag546
asg26
I00
sg27
I00
sg28
I3604951
sg20
S'8643.18725061'
p1576
sba(igraph
Edge
p1577
(dp1578
g7
I1
sg8
I00
sg9
I5
sg10
(lp1579
g494
ag546
asg26
I00
sg27
I00
sg28
I3604952
sg20
S'8643.19501054'
p1580
sba(igraph
Edge
p1581
(dp1582
g7
I1
sg8
I00
sg9
I5
sg10
(lp1583
g501
ag560
asg26
I00
sg27
I00
sg28
I3604953
sg20
S'8643.20280119'
p1584
sba(igraph
Edge
p1585
(dp1586
g7
I1
sg8
I00
sg9
I5
sg10
(lp1587
g508
ag560
asg26
I00
sg27
I00
sg28
I3604954
sg20
S'8643.2106765'
p1588
sba(igraph
Edge
p1589
(dp1590
g7
I1
sg8
I00
sg9
I5
sg10
(lp1591
g515
ag574
asg26
I00
sg27
I00
sg28
I3604955
sg20
S'8643.2186222'
p1592
sba(igraph
Edge
p1593
(dp1594
g7
I1
sg8
I00
sg9
I5
sg10
(lp1595
g522
ag574
asg26
I00
sg27
I00
sg28
I3604956
sg20
S'8643.22640475'
p1596
sba(igraph
Edge
p1597
(dp1598
g7
I1
sg8
I00
sg9
I5
sg10
(lp1599
g536
ag591
asg26
I00
sg27
I00
sg28
I3604957
sg20
S'8643.25058157'
p1600
sba(igraph
Edge
p1601
(dp1602
g7
I1
sg8
I00
sg9
I5
sg10
(lp1603
g539
ag591
asg26
I00
sg27
I00
sg28
I3604958
sg20
S'8643.25867617'
p1604
sba(igraph
Edge
p1605
(dp1606
g7
I1
sg8
I00
sg9
I5
sg10
(lp1607
g546
ag605
asg26
I00
sg27
I00
sg28
I3604959
sg20
S'8643.26656991'
p1608
sba(igraph
Edge
p1609
(dp1610
g7
I1
sg8
I00
sg9
I5
sg10
(lp1611
g553
ag605
asg26
I00
sg27
I00
sg28
I3604960
sg20
S'8643.27506038'
p1612
sba(igraph
Edge
p1613
(dp1614
g7
I1
sg8
I00
sg9
I5
sg10
(lp1615
g560
ag619
asg26
I00
sg27
I00
sg28
I3604961
sg20
S'8643.28312565'
p1616
sba(igraph
Edge
p1617
(dp1618
g7
I1
sg8
I00
sg9
I5
sg10
(lp1619
g567
ag619
asg26
I00
sg27
I00
sg28
I3604962
sg20
S'8643.29117751'
p1620
sba(igraph
Edge
p1621
(dp1622
g7
I1
sg8
I00
sg9
I5
sg10
(lp1623
g574
ag633
asg26
I00
sg27
I00
sg28
I3604963
sg20
S'8643.29929251'
p1624
sba(igraph
Edge
p1625
(dp1626
g7
I1
sg8
I00
sg9
I5
sg10
(lp1627
g581
ag633
asg26
I00
sg27
I00
sg28
I3604964
sg20
S'8643.30755194'
p1628
sba(igraph
Edge
p1629
(dp1630
g7
I1
sg8
I00
sg9
I5
sg10
(lp1631
g536
ag588
asg26
I00
sg27
I00
sg28
I3604965
sg20
S'8643.32385513'
p1632
sba(igraph
Edge
p1633
(dp1634
g7
I1
sg8
I00
sg9
I5
sg10
(lp1635
g539
ag598
asg26
I00
sg27
I00
sg28
I3604966
sg20
S'8643.33312977'
p1636
sba(igraph
Edge
p1637
(dp1638
g7
I1
sg8
I00
sg9
I5
sg10
(lp1639
g546
ag598
asg26
I00
sg27
I00
sg28
I3604967
sg20
S'8643.34155766'
p1640
sba(igraph
Edge
p1641
(dp1642
g7
I1
sg8
I00
sg9
I5
sg10
(lp1643
g553
ag612
asg26
I00
sg27
I00
sg28
I3604968
sg20
S'8643.34993554'
p1644
sba(igraph
Edge
p1645
(dp1646
g7
I1
sg8
I00
sg9
I5
sg10
(lp1647
g560
ag612
asg26
I00
sg27
I00
sg28
I3604969
sg20
S'8643.35819106'
p1648
sba(igraph
Edge
p1649
(dp1650
g7
I1
sg8
I00
sg9
I5
sg10
(lp1651
g567
ag626
asg26
I00
sg27
I00
sg28
I3604970
sg20
S'8643.36647647'
p1652
sba(igraph
Edge
p1653
(dp1654
g7
I1
sg8
I00
sg9
I5
sg10
(lp1655
g574
ag626
asg26
I00
sg27
I00
sg28
I3604971
sg20
S'8643.37503426'
p1656
sba(igraph
Edge
p1657
(dp1658
g7
I1
sg8
I00
sg9
I5
sg10
(lp1659
g588
ag643
asg26
I00
sg27
I00
sg28
I3604972
sg20
S'8643.40019835'
p1660
sba(igraph
Edge
p1661
(dp1662
g7
I1
sg8
I00
sg9
I5
sg10
(lp1663
g591
ag643
asg26
I00
sg27
I00
sg28
I3604973
sg20
S'8643.4086349'
p1664
sba(igraph
Edge
p1665
(dp1666
g7
I1
sg8
I00
sg9
I5
sg10
(lp1667
g598
ag657
asg26
I00
sg27
I00
sg28
I3604974
sg20
S'8643.41728432'
p1668
sba(igraph
Edge
p1669
(dp1670
g7
I1
sg8
I00
sg9
I5
sg10
(lp1671
g605
ag657
asg26
I00
sg27
I00
sg28
I3604975
sg20
S'8643.42569461'
p1672
sba(igraph
Edge
p1673
(dp1674
g7
I1
sg8
I00
sg9
I5
sg10
(lp1675
g612
ag671
asg26
I00
sg27
I00
sg28
I3604976
sg20
S'8643.43417837'
p1676
sba(igraph
Edge
p1677
(dp1678
g7
I1
sg8
I00
sg9
I5
sg10
(lp1679
g619
ag671
asg26
I00
sg27
I00
sg28
I3604977
sg20
S'8643.44268531'
p1680
sba(igraph
Edge
p1681
(dp1682
g7
I1
sg8
I00
sg9
I5
sg10
(lp1683
g626
ag685
asg26
I00
sg27
I00
sg28
I3604978
sg20
S'8643.45122802'
p1684
sba(igraph
Edge
p1685
(dp1686
g7
I1
sg8
I00
sg9
I5
sg10
(lp1687
g633
ag685
asg26
I00
sg27
I00
sg28
I3604979
sg20
S'8643.46006993'
p1688
sba(igraph
Edge
p1689
(dp1690
g7
I1
sg8
I00
sg9
I5
sg10
(lp1691
g588
ag640
asg26
I00
sg27
I00
sg28
I3604980
sg20
S'8643.47791717'
p1692
sba(igraph
Edge
p1693
(dp1694
g7
I1
sg8
I00
sg9
I5
sg10
(lp1695
g591
ag650
asg26
I00
sg27
I00
sg28
I3604981
sg20
S'8643.48656994'
p1696
sba(igraph
Edge
p1697
(dp1698
g7
I1
sg8
I00
sg9
I5
sg10
(lp1699
g598
ag650
asg26
I00
sg27
I00
sg28
I3604982
sg20
S'8643.49569876'
p1700
sba(igraph
Edge
p1701
(dp1702
g7
I1
sg8
I00
sg9
I5
sg10
(lp1703
g605
ag664
asg26
I00
sg27
I00
sg28
I3604983
sg20
S'8643.50440936'
p1704
sba(igraph
Edge
p1705
(dp1706
g7
I1
sg8
I00
sg9
I5
sg10
(lp1707
g612
ag664
asg26
I00
sg27
I00
sg28
I3604984
sg20
S'8643.51299565'
p1708
sba(igraph
Edge
p1709
(dp1710
g7
I1
sg8
I00
sg9
I5
sg10
(lp1711
g619
ag678
asg26
I00
sg27
I00
sg28
I3604985
sg20
S'8643.52161993'
p1712
sba(igraph
Edge
p1713
(dp1714
g7
I1
sg8
I00
sg9
I5
sg10
(lp1715
g626
ag678
asg26
I00
sg27
I00
sg28
I3604986
sg20
S'8643.53020482'
p1716
sba(igraph
Edge
p1717
(dp1718
g7
I1
sg8
I00
sg9
I5
sg10
(lp1719
g640
ag695
asg26
I00
sg27
I00
sg28
I3604987
sg20
S'8643.55643273'
p1720
sba(igraph
Edge
p1721
(dp1722
g7
I1
sg8
I00
sg9
I5
sg10
(lp1723
g643
ag695
asg26
I00
sg27
I00
sg28
I3604988
sg20
S'8643.5655892'
p1724
sba(igraph
Edge
p1725
(dp1726
g7
I1
sg8
I00
sg9
I5
sg10
(lp1727
g650
ag709
asg26
I00
sg27
I00
sg28
I3604989
sg20
S'8643.57456548'
p1728
sba(igraph
Edge
p1729
(dp1730
g7
I1
sg8
I00
sg9
I5
sg10
(lp1731
g657
ag709
asg26
I00
sg27
I00
sg28
I3604990
sg20
S'8643.583418'
p1732
sba(igraph
Edge
p1733
(dp1734
g7
I1
sg8
I00
sg9
I5
sg10
(lp1735
g664
ag723
asg26
I00
sg27
I00
sg28
I3604991
sg20
S'8643.59232361'
p1736
sba(igraph
Edge
p1737
(dp1738
g7
I1
sg8
I00
sg9
I5
sg10
(lp1739
g671
ag723
asg26
I00
sg27
I00
sg28
I3604992
sg20
S'8643.60151639'
p1740
sba(igraph
Edge
p1741
(dp1742
g7
I1
sg8
I00
sg9
I5
sg10
(lp1743
g678
ag737
asg26
I00
sg27
I00
sg28
I3604993
sg20
S'8643.61035746'
p1744
sba(igraph
Edge
p1745
(dp1746
g7
I1
sg8
I00
sg9
I5
sg10
(lp1747
g685
ag737
asg26
I00
sg27
I00
sg28
I3604994
sg20
S'8643.61919546'
p1748
sba(igraph
Edge
p1749
(dp1750
g7
I1
sg8
I00
sg9
I5
sg10
(lp1751
g640
ag692
asg26
I00
sg27
I00
sg28
I3604995
sg20
S'8643.63715193'
p1752
sba(igraph
Edge
p1753
(dp1754
g7
I1
sg8
I00
sg9
I5
sg10
(lp1755
g643
ag702
asg26
I00
sg27
I00
sg28
I3604996
sg20
S'8643.64635533'
p1756
sba(igraph
Edge
p1757
(dp1758
g7
I1
sg8
I00
sg9
I5
sg10
(lp1759
g650
ag702
asg26
I00
sg27
I00
sg28
I3604997
sg20
S'8643.65547605'
p1760
sba(igraph
Edge
p1761
(dp1762
g7
I1
sg8
I00
sg9
I5
sg10
(lp1763
g657
ag716
asg26
I00
sg27
I00
sg28
I3604998
sg20
S'8643.66455066'
p1764
sba(igraph
Edge
p1765
(dp1766
g7
I1
sg8
I00
sg9
I5
sg10
(lp1767
g664
ag716
asg26
I00
sg27
I00
sg28
I3604999
sg20
S'8643.67365992'
p1768
sba(igraph
Edge
p1769
(dp1770
g7
I1
sg8
I00
sg9
I5
sg10
(lp1771
g671
ag730
asg26
I00
sg27
I00
sg28
I3605000
sg20
S'8643.6878296'
p1772
sba(igraph
Edge
p1773
(dp1774
g7
I1
sg8
I00
sg9
I5
sg10
(lp1775
g678
ag730
asg26
I00
sg27
I00
sg28
I3605001
sg20
S'8643.69703496'
p1776
sba(igraph
Edge
p1777
(dp1778
g7
I1
sg8
I00
sg9
I5
sg10
(lp1779
g692
ag747
asg26
I00
sg27
I00
sg28
I3605002
sg20
S'8643.72730249'
p1780
sba(igraph
Edge
p1781
(dp1782
g7
I1
sg8
I00
sg9
I5
sg10
(lp1783
g695
ag747
asg26
I00
sg27
I00
sg28
I3605003
sg20
S'8643.73765409'
p1784
sba(igraph
Edge
p1785
(dp1786
g7
I1
sg8
I00
sg9
I5
sg10
(lp1787
g702
ag761
asg26
I00
sg27
I00
sg28
I3605004
sg20
S'8643.7478322'
p1788
sba(igraph
Edge
p1789
(dp1790
g7
I1
sg8
I00
sg9
I5
sg10
(lp1791
g709
ag761
asg26
I00
sg27
I00
sg28
I3605005
sg20
S'8643.75781475'
p1792
sba(igraph
Edge
p1793
(dp1794
g7
I1
sg8
I00
sg9
I5
sg10
(lp1795
g716
ag775
asg26
I00
sg27
I00
sg28
I3605006
sg20
S'8643.76784005'
p1796
sba(igraph
Edge
p1797
(dp1798
g7
I1
sg8
I00
sg9
I5
sg10
(lp1799
g723
ag775
asg26
I00
sg27
I00
sg28
I3605007
sg20
S'8643.77811426'
p1800
sba(igraph
Edge
p1801
(dp1802
g7
I1
sg8
I00
sg9
I5
sg10
(lp1803
g730
ag789
asg26
I00
sg27
I00
sg28
I3605008
sg20
S'8643.7885748'
p1804
sba(igraph
Edge
p1805
(dp1806
g7
I1
sg8
I00
sg9
I5
sg10
(lp1807
g737
ag789
asg26
I00
sg27
I00
sg28
I3605009
sg20
S'8643.79892444'
p1808
sba(igraph
Edge
p1809
(dp1810
g7
I1
sg8
I00
sg9
I5
sg10
(lp1811
g692
ag744
asg26
I00
sg27
I00
sg28
I3605010
sg20
S'8643.82198073'
p1812
sba(igraph
Edge
p1813
(dp1814
g7
I1
sg8
I00
sg9
I5
sg10
(lp1815
g695
ag754
asg26
I00
sg27
I00
sg28
I3605011
sg20
S'8643.8333344'
p1816
sba(igraph
Edge
p1817
(dp1818
g7
I1
sg8
I00
sg9
I5
sg10
(lp1819
g702
ag754
asg26
I00
sg27
I00
sg28
I3605012
sg20
S'8643.84482413'
p1820
sba(igraph
Edge
p1821
(dp1822
g7
I1
sg8
I00
sg9
I5
sg10
(lp1823
g709
ag768
asg26
I00
sg27
I00
sg28
I3605013
sg20
S'8643.85645438'
p1824
sba(igraph
Edge
p1825
(dp1826
g7
I1
sg8
I00
sg9
I5
sg10
(lp1827
g716
ag768
asg26
I00
sg27
I00
sg28
I3605014
sg20
S'8643.86788153'
p1828
sba(igraph
Edge
p1829
(dp1830
g7
I1
sg8
I00
sg9
I5
sg10
(lp1831
g723
ag782
asg26
I00
sg27
I00
sg28
I3605015
sg20
S'8643.87902569'
p1832
sba(igraph
Edge
p1833
(dp1834
g7
I1
sg8
I00
sg9
I5
sg10
(lp1835
g730
ag782
asg26
I00
sg27
I00
sg28
I3605016
sg20
S'8643.88954937'
p1836
sba(igraph
Edge
p1837
(dp1838
g7
I1
sg8
I00
sg9
I5
sg10
(lp1839
g744
ag799
asg26
I00
sg27
I00
sg28
I3605017
sg20
S'8643.92074915'
p1840
sba(igraph
Edge
p1841
(dp1842
g7
I1
sg8
I00
sg9
I5
sg10
(lp1843
g747
ag799
asg26
I00
sg27
I00
sg28
I3605018
sg20
S'8643.9330887'
p1844
sba(igraph
Edge
p1845
(dp1846
g7
I1
sg8
I00
sg9
I5
sg10
(lp1847
g754
ag813
asg26
I00
sg27
I00
sg28
I3605019
sg20
S'8643.94372385'
p1848
sba(igraph
Edge
p1849
(dp1850
g7
I1
sg8
I00
sg9
I5
sg10
(lp1851
g761
ag813
asg26
I00
sg27
I00
sg28
I3605020
sg20
S'8643.95386229'
p1852
sba(igraph
Edge
p1853
(dp1854
g7
I1
sg8
I00
sg9
I5
sg10
(lp1855
g768
ag827
asg26
I00
sg27
I00
sg28
I3605021
sg20
S'8643.96630661'
p1856
sba(igraph
Edge
p1857
(dp1858
g7
I1
sg8
I00
sg9
I5
sg10
(lp1859
g775
ag827
asg26
I00
sg27
I00
sg28
I3605022
sg20
S'8643.97863751'
p1860
sba(igraph
Edge
p1861
(dp1862
g7
I1
sg8
I00
sg9
I5
sg10
(lp1863
g782
ag841
asg26
I00
sg27
I00
sg28
I3605023
sg20
S'8643.99069854'
p1864
sba(igraph
Edge
p1865
(dp1866
g7
I1
sg8
I00
sg9
I5
sg10
(lp1867
g789
ag841
asg26
I00
sg27
I00
sg28
I3605024
sg20
S'8644.0028674'
p1868
sba(igraph
Edge
p1869
(dp1870
g7
I1
sg8
I00
sg9
I5
sg10
(lp1871
g744
ag796
asg26
I00
sg27
I00
sg28
I3605025
sg20
S'8644.02488137'
p1872
sba(igraph
Edge
p1873
(dp1874
g7
I1
sg8
I00
sg9
I5
sg10
(lp1875
g747
ag806
asg26
I00
sg27
I00
sg28
I3605026
sg20
S'8644.03557687'
p1876
sba(igraph
Edge
p1877
(dp1878
g7
I1
sg8
I00
sg9
I5
sg10
(lp1879
g754
ag806
asg26
I00
sg27
I00
sg28
I3605027
sg20
S'8644.04804018'
p1880
sba(igraph
Edge
p1881
(dp1882
g7
I1
sg8
I00
sg9
I5
sg10
(lp1883
g761
ag820
asg26
I00
sg27
I00
sg28
I3605028
sg20
S'8644.05830825'
p1884
sba(igraph
Edge
p1885
(dp1886
g7
I1
sg8
I00
sg9
I5
sg10
(lp1887
g768
ag820
asg26
I00
sg27
I00
sg28
I3605029
sg20
S'8644.06937278'
p1888
sba(igraph
Edge
p1889
(dp1890
g7
I1
sg8
I00
sg9
I5
sg10
(lp1891
g775
ag834
asg26
I00
sg27
I00
sg28
I3605030
sg20
S'8644.08018785'
p1892
sba(igraph
Edge
p1893
(dp1894
g7
I1
sg8
I00
sg9
I5
sg10
(lp1895
g782
ag834
asg26
I00
sg27
I00
sg28
I3605031
sg20
S'8644.09238744'
p1896
sba(igraph
Edge
p1897
(dp1898
g7
I1
sg8
I00
sg9
I5
sg10
(lp1899
g796
ag851
asg26
I00
sg27
I00
sg28
I3605032
sg20
S'8644.12902115'
p1900
sba(igraph
Edge
p1901
(dp1902
g7
I1
sg8
I00
sg9
I5
sg10
(lp1903
g799
ag851
asg26
I00
sg27
I00
sg28
I3605033
sg20
S'8644.14024883'
p1904
sba(igraph
Edge
p1905
(dp1906
g7
I1
sg8
I00
sg9
I5
sg10
(lp1907
g806
ag865
asg26
I00
sg27
I00
sg28
I3605034
sg20
S'8644.15187154'
p1908
sba(igraph
Edge
p1909
(dp1910
g7
I1
sg8
I00
sg9
I5
sg10
(lp1911
g813
ag865
asg26
I00
sg27
I00
sg28
I3605035
sg20
S'8644.16273409'
p1912
sba(igraph
Edge
p1913
(dp1914
g7
I1
sg8
I00
sg9
I5
sg10
(lp1915
g820
ag879
asg26
I00
sg27
I00
sg28
I3605036
sg20
S'8644.17384696'
p1916
sba(igraph
Edge
p1917
(dp1918
g7
I1
sg8
I00
sg9
I5
sg10
(lp1919
g827
ag879
asg26
I00
sg27
I00
sg28
I3605037
sg20
S'8644.18547106'
p1920
sba(igraph
Edge
p1921
(dp1922
g7
I1
sg8
I00
sg9
I5
sg10
(lp1923
g834
ag893
asg26
I00
sg27
I00
sg28
I3605038
sg20
S'8644.19611571'
p1924
sba(igraph
Edge
p1925
(dp1926
g7
I1
sg8
I00
sg9
I5
sg10
(lp1927
g841
ag893
asg26
I00
sg27
I00
sg28
I3605039
sg20
S'8644.20729087'
p1928
sba(igraph
Edge
p1929
(dp1930
g7
I1
sg8
I00
sg9
I5
sg10
(lp1931
g796
ag848
asg26
I00
sg27
I00
sg28
I3605040
sg20
S'8644.2310464'
p1932
sba(igraph
Edge
p1933
(dp1934
g7
I1
sg8
I00
sg9
I5
sg10
(lp1935
g799
ag858
asg26
I00
sg27
I00
sg28
I3605041
sg20
S'8644.24310799'
p1936
sba(igraph
Edge
p1937
(dp1938
g7
I1
sg8
I00
sg9
I5
sg10
(lp1939
g806
ag858
asg26
I00
sg27
I00
sg28
I3605042
sg20
S'8644.25672453'
p1940
sba(igraph
Edge
p1941
(dp1942
g7
I1
sg8
I00
sg9
I5
sg10
(lp1943
g813
ag872
asg26
I00
sg27
I00
sg28
I3605043
sg20
S'8644.26802932'
p1944
sba(igraph
Edge
p1945
(dp1946
g7
I1
sg8
I00
sg9
I5
sg10
(lp1947
g820
ag872
asg26
I00
sg27
I00
sg28
I3605044
sg20
S'8644.27976545'
p1948
sba(igraph
Edge
p1949
(dp1950
g7
I1
sg8
I00
sg9
I5
sg10
(lp1951
g827
ag886
asg26
I00
sg27
I00
sg28
I3605045
sg20
S'8644.29085065'
p1952
sba(igraph
Edge
p1953
(dp1954
g7
I1
sg8
I00
sg9
I5
sg10
(lp1955
g834
ag886
asg26
I00
sg27
I00
sg28
I3605046
sg20
S'8644.30135171'
p1956
sba(igraph
Edge
p1957
(dp1958
g7
I1
sg8
I00
sg9
I5
sg10
(lp1959
g848
ag903
asg26
I00
sg27
I00
sg28
I3605047
sg20
S'8644.33223971'
p1960
sba(igraph
Edge
p1961
(dp1962
g7
I1
sg8
I00
sg9
I5
sg10
(lp1963
g851
ag903
asg26
I00
sg27
I00
sg28
I3605048
sg20
S'8644.34268825'
p1964
sba(igraph
Edge
p1965
(dp1966
g7
I1
sg8
I00
sg9
I5
sg10
(lp1967
g858
ag917
asg26
I00
sg27
I00
sg28
I3605049
sg20
S'8644.35311946'
p1968
sba(igraph
Edge
p1969
(dp1970
g7
I1
sg8
I00
sg9
I5
sg10
(lp1971
g865
ag917
asg26
I00
sg27
I00
sg28
I3605050
sg20
S'8644.36357861'
p1972
sba(igraph
Edge
p1973
(dp1974
g7
I1
sg8
I00
sg9
I5
sg10
(lp1975
g872
ag931
asg26
I00
sg27
I00
sg28
I3605051
sg20
S'8644.37418247'
p1976
sba(igraph
Edge
p1977
(dp1978
g7
I1
sg8
I00
sg9
I5
sg10
(lp1979
g879
ag931
asg26
I00
sg27
I00
sg28
I3605052
sg20
S'8644.38470392'
p1980
sba(igraph
Edge
p1981
(dp1982
g7
I1
sg8
I00
sg9
I5
sg10
(lp1983
g886
ag945
asg26
I00
sg27
I00
sg28
I3605053
sg20
S'8644.39506082'
p1984
sba(igraph
Edge
p1985
(dp1986
g7
I1
sg8
I00
sg9
I5
sg10
(lp1987
g893
ag945
asg26
I00
sg27
I00
sg28
I3605054
sg20
S'8644.40543896'
p1988
sba(igraph
Edge
p1989
(dp1990
g7
I1
sg8
I00
sg9
I5
sg10
(lp1991
g848
ag900
asg26
I00
sg27
I00
sg28
I3605055
sg20
S'8644.42653577'
p1992
sba(igraph
Edge
p1993
(dp1994
g7
I1
sg8
I00
sg9
I5
sg10
(lp1995
g851
ag910
asg26
I00
sg27
I00
sg28
I3605056
sg20
S'8644.43707929'
p1996
sba(igraph
Edge
p1997
(dp1998
g7
I1
sg8
I00
sg9
I5
sg10
(lp1999
g858
ag910
asg26
I00
sg27
I00
sg28
I3605057
sg20
S'8644.44772841'
p2000
sba(igraph
Edge
p2001
(dp2002
g7
I1
sg8
I00
sg9
I5
sg10
(lp2003
g865
ag924
asg26
I00
sg27
I00
sg28
I3605058
sg20
S'8644.45838619'
p2004
sba(igraph
Edge
p2005
(dp2006
g7
I1
sg8
I00
sg9
I5
sg10
(lp2007
g872
ag924
asg26
I00
sg27
I00
sg28
I3605059
sg20
S'8644.46898055'
p2008
sba(igraph
Edge
p2009
(dp2010
g7
I1
sg8
I00
sg9
I5
sg10
(lp2011
g879
ag938
asg26
I00
sg27
I00
sg28
I3605060
sg20
S'8644.48275046'
p2012
sba(igraph
Edge
p2013
(dp2014
g7
I1
sg8
I00
sg9
I5
sg10
(lp2015
g886
ag938
asg26
I00
sg27
I00
sg28
I3605061
sg20
S'8644.49514505'
p2016
sba(igraph
Edge
p2017
(dp2018
g7
I1
sg8
I00
sg9
I5
sg10
(lp2019
g945
ag900
asg26
I00
sg27
I00
sg28
I3605062
sg20
S'8764.90714379'
p2020
sba(igraph
Edge
p2021
(dp2022
g7
I1
sg8
I00
sg9
I5
sg10
(lp2023
g900
ag893
asg26
I00
sg27
I00
sg28
I3605063
sg20
S'8767.1820128'
p2024
sba(igraph
Edge
p2025
(dp2026
g7
I1
sg8
I00
sg9
I5
sg10
(lp2027
g893
ag848
asg26
I00
sg27
I00
sg28
I3605064
sg20
S'8769.77009927'
p2028
sba(igraph
Edge
p2029
(dp2030
g7
I1
sg8
I00
sg9
I5
sg10
(lp2031
g848
ag841
asg26
I00
sg27
I00
sg28
I3605065
sg20
S'8771.65374203'
p2032
sba(igraph
Edge
p2033
(dp2034
g7
I1
sg8
I00
sg9
I5
sg10
(lp2035
g841
ag796
asg26
I00
sg27
I00
sg28
I3605066
sg20
S'8774.39757874'
p2036
sba(igraph
Edge
p2037
(dp2038
g7
I1
sg8
I00
sg9
I5
sg10
(lp2039
g796
ag789
asg26
I00
sg27
I00
sg28
I3605067
sg20
S'8776.83007896'
p2040
sba(igraph
Edge
p2041
(dp2042
g7
I1
sg8
I00
sg9
I5
sg10
(lp2043
g789
ag744
asg26
I00
sg27
I00
sg28
I3605068
sg20
S'8779.21206103'
p2044
sba(igraph
Edge
p2045
(dp2046
g7
I1
sg8
I00
sg9
I5
sg10
(lp2047
g744
ag737
asg26
I00
sg27
I00
sg28
I3605069
sg20
S'8781.22806865'
p2048
sba(igraph
Edge
p2049
(dp2050
g7
I1
sg8
I00
sg9
I5
sg10
(lp2051
g737
ag692
asg26
I00
sg27
I00
sg28
I3605070
sg20
S'8784.16943634'
p2052
sba(igraph
Edge
p2053
(dp2054
g7
I1
sg8
I00
sg9
I5
sg10
(lp2055
g692
ag685
asg26
I00
sg27
I00
sg28
I3605071
sg20
S'8786.58353059'
p2056
sba(igraph
Edge
p2057
(dp2058
g7
I1
sg8
I00
sg9
I5
sg10
(lp2059
g685
ag640
asg26
I00
sg27
I00
sg28
I3605072
sg20
S'8789.27466983'
p2060
sba(igraph
Edge
p2061
(dp2062
g7
I1
sg8
I00
sg9
I5
sg10
(lp2063
g640
ag633
asg26
I00
sg27
I00
sg28
I3605073
sg20
S'8791.80199159'
p2064
sba(igraph
Edge
p2065
(dp2066
g7
I1
sg8
I00
sg9
I5
sg10
(lp2067
g633
ag588
asg26
I00
sg27
I00
sg28
I3605074
sg20
S'8794.98500703'
p2068
sba(igraph
Edge
p2069
(dp2070
g7
I1
sg8
I00
sg9
I5
sg10
(lp2071
g588
ag581
asg26
I00
sg27
I00
sg28
I3605075
sg20
S'8798.89981464'
p2072
sba(igraph
Edge
p2073
(dp2074
g7
I1
sg8
I00
sg9
I5
sg10
(lp2075
g581
ag536
asg26
I00
sg27
I00
sg28
I3605076
sg20
S'8801.81761704'
p2076
sba(igraph
Edge
p2077
(dp2078
g7
I1
sg8
I00
sg9
I5
sg10
(lp2079
g536
ag529
asg26
I00
sg27
I00
sg28
I3605077
sg20
S'8804.92891164'
p2080
sba(igraph
Edge
p2081
(dp2082
g7
I1
sg8
I00
sg9
I5
sg10
(lp2083
g529
ag484
asg26
I00
sg27
I00
sg28
I3605078
sg20
S'8808.007763'
p2084
sba(igraph
Edge
p2085
(dp2086
g7
I1
sg8
I00
sg9
I5
sg10
(lp2087
g484
ag477
asg26
I00
sg27
I00
sg28
I3605079
sg20
S'8811.11755935'
p2088
sba(igraph
Edge
p2089
(dp2090
g7
I1
sg8
I00
sg9
I5
sg10
(lp2091
g477
ag432
asg26
I00
sg27
I00
sg28
I3605080
sg20
S'8814.34337157'
p2092
sba(igraph
Edge
p2093
(dp2094
g7
I1
sg8
I00
sg9
I5
sg10
(lp2095
g432
ag425
asg26
I00
sg27
I00
sg28
I3605081
sg20
S'8816.94561208'
p2096
sba(igraph
Edge
p2097
(dp2098
g7
I1
sg8
I00
sg9
I5
sg10
(lp2099
g425
ag380
asg26
I00
sg27
I00
sg28
I3605082
sg20
S'8820.04807902'
p2100
sba(igraph
Edge
p2101
(dp2102
g7
I1
sg8
I00
sg9
I5
sg10
(lp2103
g380
ag373
asg26
I00
sg27
I00
sg28
I3605083
sg20
S'8822.7823092'
p2104
sba(igraph
Edge
p2105
(dp2106
g7
I1
sg8
I00
sg9
I5
sg10
(lp2107
g373
ag328
asg26
I00
sg27
I00
sg28
I3605084
sg20
S'8825.23608699'
p2108
sba(igraph
Edge
p2109
(dp2110
g7
I1
sg8
I00
sg9
I5
sg10
(lp2111
g328
ag321
asg26
I00
sg27
I00
sg28
I3605085
sg20
S'8827.41544582'
p2112
sba(igraph
Edge
p2113
(dp2114
g7
I1
sg8
I00
sg9
I5
sg10
(lp2115
g321
ag276
asg26
I00
sg27
I00
sg28
I3605086
sg20
S'8830.54497289'
p2116
sba(igraph
Edge
p2117
(dp2118
g7
I1
sg8
I00
sg9
I5
sg10
(lp2119
g276
ag269
asg26
I00
sg27
I00
sg28
I3605087
sg20
S'8832.6896681'
p2120
sba(igraph
Edge
p2121
(dp2122
g7
I1
sg8
I00
sg9
I5
sg10
(lp2123
g269
ag224
asg26
I00
sg27
I00
sg28
I3605088
sg20
S'8835.12151042'
p2124
sba(igraph
Edge
p2125
(dp2126
g7
I1
sg8
I00
sg9
I5
sg10
(lp2127
g224
ag217
asg26
I00
sg27
I00
sg28
I3605089
sg20
S'8838.28253898'
p2128
sba(igraph
Edge
p2129
(dp2130
g7
I1
sg8
I00
sg9
I5
sg10
(lp2131
g127
a(igraph
Vertex
p2132
(dp2133
g14
F0.027317073170731707
sg17
F-235.0
sg18
F-544.0
sg19
I3605257
sg8
I00
sg20
S'8849.7236456'
p2134
sg22
F0.15068493150684931
sg15
g16
sbasg26
I00
sg27
I00
sg28
I3605090
sg20
S'8849.72976789'
p2135
sba(igraph
Edge
p2136
(dp2137
g7
I1
sg8
I00
sg9
I5
sg10
(lp2138
g2132
ag217
asg26
I00
sg27
I00
sg28
I3605091
sg20
S'8851.80030982'
p2139
sba(igraph
Edge
p2140
(dp2141
g7
I1
sg8
I00
sg9
I5
sg10
(lp2142
g217
ag172
asg26
I00
sg27
I00
sg28
I3605092
sg20
S'8923.65816968'
p2143
sba(igraph
Edge
p2144
(dp2145
g7
I1
sg8
I00
sg9
I5
sg10
(lp2146
g172
ag2132
asg26
I00
sg27
I00
sg28
I3605093
sg20
S'8927.31748951'
p2147
sba(igraph
Edge
p2148
(dp2149
g7
I1
sg8
I00
sg9
I5
sg10
(lp2150
g2132
ag165
asg26
I00
sg27
I00
sg28
I3605094
sg20
S'8929.56751207'
p2151
sba(igraph
Edge
p2152
(dp2153
g7
I1
sg8
I00
sg9
I5
sg10
(lp2154
g2132
ag120
asg26
I00
sg27
I00
sg28
I3605095
sg20
S'8932.67604821'
p2155
sba(igraph
Edge
p2156
(dp2157
g7
I1
sg8
I00
sg9
I5
sg10
(lp2158
g2132
ag113
asg26
I00
sg27
I00
sg28
I3605096
sg20
S'8936.32658341'
p2159
sba(igraph
Edge
p2160
(dp2161
g7
I1
sg8
I00
sg9
I5
sg10
(lp2162
g75
ag120
asg26
I00
sg27
I00
sg28
I3605097
sg20
S'8945.502703'
p2163
sba(igraph
Edge
p2164
(dp2165
g7
I1
sg8
I00
sg9
I5
sg10
(lp2166
g12
ag68
asg26
I00
sg27
I00
sg28
I3605098
sg20
S'8951.74260751'
p2167
sba(igraph
Edge
p2168
(dp2169
g7
I1
sg8
I00
sg9
I5
sg10
(lp2170
g127
ag120
asg26
I00
sg27
I00
sg28
I3605099
sg20
S'9027.07812725'
p2171
sba(igraph
Edge
p2172
(dp2173
g7
I1
sg8
I00
sg9
I5
sg10
(lp2174
g75
ag68
asg26
I00
sg27
I00
sg28
I3605100
sg20
S'9032.63440298'
p2175
sba(igraph
Edge
p2176
(dp2177
g7
I1
sg8
I00
sg9
I5
sg10
(lp2178
g12
ag945
asg26
I00
sg27
I00
sg28
I3605101
sg20
S'9038.67163983'
p2179
sbasS'vertices'
p2180
(lp2181
g12
ag23
ag33
ag40
ag47
ag54
ag61
ag68
ag75
ag78
ag85
ag92
ag99
ag106
ag113
ag120
ag127
ag130
ag137
ag144
ag151
ag158
ag165
ag172
ag175
ag182
ag189
ag196
ag203
ag210
ag217
ag224
ag227
ag234
ag241
ag248
ag255
ag262
ag269
ag276
ag279
ag286
ag293
ag300
ag307
ag314
ag321
ag328
ag331
ag338
ag345
ag352
ag359
ag366
ag373
ag380
ag383
ag390
ag397
ag404
ag411
ag418
ag425
ag432
ag435
ag442
ag449
ag456
ag463
ag470
ag477
ag484
ag487
ag494
ag501
ag508
ag515
ag522
ag529
ag536
ag539
ag546
ag553
ag560
ag567
ag574
ag581
ag588
ag591
ag598
ag605
ag612
ag619
ag626
ag633
ag640
ag643
ag650
ag657
ag664
ag671
ag678
ag685
ag692
ag695
ag702
ag709
ag716
ag723
ag730
ag737
ag744
ag747
ag754
ag761
ag768
ag775
ag782
ag789
ag796
ag799
ag806
ag813
ag820
ag827
ag834
ag841
ag848
ag851
ag858
ag865
ag872
ag879
ag886
ag893
ag900
ag903
ag910
ag917
ag924
ag931
ag938
ag945
ag2132
asS'tags'
p2182
(lp2183
sb.