(igraph
Graph
p0
(dp1
S'labelingConstraints'
p2
I-1
sS'edges'
p3
(lp4
(igraph
Edge
p5
(dp6
S'direction'
p7
I1
sS'selected'
p8
I00
sS'height'
p9
I5
sS'vs'
p10
(lp11
(igraph
Vertex
p12
(dp13
S'xnorm'
p14
F0.25
sg8
I00
sS'label'
p15
S'NULL'
p16
sS'y'
p17
F-178.0
sS'x'
p18
F-3.25
sS'circle'
p19
I3829177
sS'id'
p20
S'9610.33262412'
p21
sS'ynorm'
p22
F0.0
sba(igraph
Vertex
p23
(dp24
g14
F0.5
sg8
I00
sg15
g16
sg17
F-178.0
sg18
F-100.5
sg19
I3829178
sg20
S'9610.33266826'
p25
sg22
F0.0
sbasS'wrap'
p26
I00
sS'curved'
p27
I00
sS'line'
p28
I3828961
sg20
S'9610.40384825'
p29
sba(igraph
Edge
p30
(dp31
g7
I1
sg8
I00
sg9
I5
sg10
(lp32
g23
a(igraph
Vertex
p33
(dp34
g14
F0.75
sg8
I00
sg15
g16
sg17
F-178.0
sg18
F-197.75
sg19
I3829179
sg20
S'9610.33272273'
p35
sg22
F0.0
sbasg26
I00
sg27
I00
sg28
I3828962
sg20
S'9610.40402342'
p36
sba(igraph
Edge
p37
(dp38
g7
I1
sg8
I00
sg9
I5
sg10
(lp39
g33
a(igraph
Vertex
p40
(dp41
g14
F1.0
sg8
I00
sg15
g16
sg17
F-178.0
sg18
F-295.0
sg19
I3829180
sg20
S'9610.33279537'
p42
sg22
F0.0
sbasg26
I00
sg27
I00
sg28
I3828963
sg20
S'9610.4042416'
p43
sba(igraph
Edge
p44
(dp45
g7
I1
sg8
I00
sg9
I5
sg10
(lp46
(igraph
Vertex
p47
(dp48
g14
F0.25
sg8
I00
sg15
I0
sg17
F-152.03763440860214
sg18
F-3.25
sg19
I3829181
sg20
S'9610.33298115'
p49
sg22
F0.059139784946236562
sba(igraph
Vertex
p50
(dp51
g14
F0.5
sg8
I00
sg15
g16
sg17
F-152.03763440860214
sg18
F-100.5
sg19
I3829183
sg20
S'9610.3330996'
p52
sg22
F0.059139784946236562
sbasg26
I00
sg27
I00
sg28
I3828964
sg20
S'9610.40517412'
p53
sba(igraph
Edge
p54
(dp55
g7
I1
sg8
I00
sg9
I5
sg10
(lp56
g50
a(igraph
Vertex
p57
(dp58
g14
F0.75
sg8
I00
sg15
g16
sg17
F-152.03763440860214
sg18
F-197.75
sg19
I3829184
sg20
S'9610.33323397'
p59
sg22
F0.059139784946236562
sbasg26
I00
sg27
I00
sg28
I3828965
sg20
S'9610.40557892'
p60
sba(igraph
Edge
p61
(dp62
g7
I1
sg8
I00
sg9
I5
sg10
(lp63
g57
a(igraph
Vertex
p64
(dp65
g14
F1.0
sg8
I00
sg15
g16
sg17
F-152.03763440860214
sg18
F-295.0
sg19
I3829185
sg20
S'9610.33338343'
p66
sg22
F0.059139784946236562
sbasg26
I00
sg27
I00
sg28
I3828966
sg20
S'9610.40603596'
p67
sba(igraph
Edge
p68
(dp69
g7
I1
sg8
I00
sg9
I5
sg10
(lp70
(igraph
Vertex
p71
(dp72
g14
F0.25
sg8
I00
sg15
g16
sg17
F-126.07526881720429
sg18
F-3.25
sg19
I3829186
sg20
S'9610.33373236'
p73
sg22
F0.11827956989247312
sba(igraph
Vertex
p74
(dp75
g14
F0.5
sg8
I00
sg15
g16
sg17
F-126.07526881720429
sg18
F-100.5
sg19
I3829187
sg20
S'9610.33392987'
p76
sg22
F0.11827956989247312
sbasg26
I00
sg27
I00
sg28
I3828967
sg20
S'9610.4078658'
p77
sba(igraph
Edge
p78
(dp79
g7
I1
sg8
I00
sg9
I5
sg10
(lp80
g74
a(igraph
Vertex
p81
(dp82
g14
F0.75
sg8
I00
sg15
g16
sg17
F-126.07526881720429
sg18
F-197.75
sg19
I3829188
sg20
S'9610.33414722'
p83
sg22
F0.11827956989247312
sbasg26
I00
sg27
I00
sg28
I3828968
sg20
S'9610.4085103'
p84
sba(igraph
Edge
p85
(dp86
g7
I1
sg8
I00
sg9
I5
sg10
(lp87
g81
a(igraph
Vertex
p88
(dp89
g14
F1.0
sg8
I00
sg15
g16
sg17
F-126.07526881720429
sg18
F-295.0
sg19
I3829189
sg20
S'9610.33438105'
p90
sg22
F0.11827956989247312
sbasg26
I00
sg27
I00
sg28
I3828969
sg20
S'9610.4092034'
p91
sba(igraph
Edge
p92
(dp93
g7
I1
sg8
I00
sg9
I5
sg10
(lp94
(igraph
Vertex
p95
(dp96
g14
F0.25
sg8
I00
sg15
g16
sg17
F-100.11290322580645
sg18
F-3.25
sg19
I3829190
sg20
S'9610.3350004'
p97
sg22
F0.17741935483870969
sba(igraph
Vertex
p98
(dp99
g14
F0.5
sg8
I00
sg15
I0
sg17
F-100.11290322580645
sg18
F-100.5
sg19
I3829191
sg20
S'9610.3352806'
p100
sg22
F0.17741935483870969
sbasg26
I00
sg27
I00
sg28
I3828970
sg20
S'9610.41158276'
p101
sba(igraph
Edge
p102
(dp103
g7
I1
sg8
I00
sg9
I5
sg10
(lp104
g98
a(igraph
Vertex
p105
(dp106
g14
F0.75
sg8
I00
sg15
g16
sg17
F-100.11290322580645
sg18
F-197.75
sg19
I3829193
sg20
S'9610.33557421'
p107
sg22
F0.17741935483870969
sbasg26
I00
sg27
I00
sg28
I3828971
sg20
S'9610.41256305'
p108
sba(igraph
Edge
p109
(dp110
g7
I1
sg8
I00
sg9
I5
sg10
(lp111
g105
a(igraph
Vertex
p112
(dp113
g14
F1.0
sg8
I00
sg15
g16
sg17
F-100.11290322580645
sg18
F-295.0
sg19
I3829194
sg20
S'9610.33589297'
p114
sg22
F0.17741935483870969
sbasg26
I00
sg27
I00
sg28
I3828972
sg20
S'9610.41349669'
p115
sba(igraph
Edge
p116
(dp117
g7
I1
sg8
I00
sg9
I5
sg10
(lp118
(igraph
Vertex
p119
(dp120
g14
F0.25
sg8
I00
sg15
g16
sg17
F-74.150537634408593
sg18
F-3.25
sg19
I3829195
sg20
S'9610.33657658'
p121
sg22
F0.23655913978494625
sba(igraph
Vertex
p122
(dp123
g14
F0.5
sg8
I00
sg15
g16
sg17
F-74.150537634408593
sg18
F-100.5
sg19
I3829196
sg20
S'9610.33694729'
p124
sg22
F0.23655913978494625
sbasg26
I00
sg27
I00
sg28
I3828973
sg20
S'9610.416651'
p125
sba(igraph
Edge
p126
(dp127
g7
I1
sg8
I00
sg9
I5
sg10
(lp128
g122
a(igraph
Vertex
p129
(dp130
g14
F0.75
sg8
I00
sg15
g16
sg17
F-74.150537634408593
sg18
F-197.75
sg19
I3829197
sg20
S'9610.33732835'
p131
sg22
F0.23655913978494625
sbasg26
I00
sg27
I00
sg28
I3828974
sg20
S'9610.4177841'
p132
sba(igraph
Edge
p133
(dp134
g7
I1
sg8
I00
sg9
I5
sg10
(lp135
g129
a(igraph
Vertex
p136
(dp137
g14
F1.0
sg8
I00
sg15
g16
sg17
F-74.150537634408593
sg18
F-295.0
sg19
I3829198
sg20
S'9610.33772365'
p138
sg22
F0.23655913978494625
sbasg26
I00
sg27
I00
sg28
I3828975
sg20
S'9610.41896442'
p139
sba(igraph
Edge
p140
(dp141
g7
I1
sg8
I00
sg9
I5
sg10
(lp142
(igraph
Vertex
p143
(dp144
g14
F0.25
sg8
I00
sg15
g16
sg17
F-48.188172043010752
sg18
F-3.25
sg19
I3829199
sg20
S'9610.3385637'
p145
sg22
F0.29569892473118281
sba(igraph
Vertex
p146
(dp147
g14
F0.5
sg8
I00
sg15
g16
sg17
F-48.188172043010752
sg18
F-100.5
sg19
I3829200
sg20
S'9610.33900677'
p148
sg22
F0.29569892473118281
sbasg26
I00
sg27
I00
sg28
I3828976
sg20
S'9610.42280402'
p149
sba(igraph
Edge
p150
(dp151
g7
I1
sg8
I00
sg9
I5
sg10
(lp152
g146
a(igraph
Vertex
p153
(dp154
g14
F0.75
sg8
I00
sg15
I0
sg17
F-48.188172043010752
sg18
F-197.75
sg19
I3829201
sg20
S'9610.33946996'
p155
sg22
F0.29569892473118281
sbasg26
I00
sg27
I00
sg28
I3828977
sg20
S'9610.42418464'
p156
sba(igraph
Edge
p157
(dp158
g7
I1
sg8
I00
sg9
I5
sg10
(lp159
g153
a(igraph
Vertex
p160
(dp161
g14
F1.0
sg8
I00
sg15
g16
sg17
F-48.188172043010752
sg18
F-295.0
sg19
I3829203
sg20
S'9610.33994907'
p162
sg22
F0.29569892473118281
sbasg26
I00
sg27
I00
sg28
I3828978
sg20
S'9610.4256161'
p163
sba(igraph
Edge
p164
(dp165
g7
I1
sg8
I00
sg9
I5
sg10
(lp166
(igraph
Vertex
p167
(dp168
g14
F0.25
sg8
I00
sg15
g16
sg17
F-22.225806451612897
sg18
F-3.25
sg19
I3829204
sg20
S'9610.34096009'
p169
sg22
F0.35483870967741937
sba(igraph
Vertex
p170
(dp171
g14
F0.5
sg8
I00
sg15
g16
sg17
F-22.225806451612897
sg18
F-100.5
sg19
I3829205
sg20
S'9610.34149005'
p172
sg22
F0.35483870967741937
sbasg26
I00
sg27
I00
sg28
I3828979
sg20
S'9610.43017143'
p173
sba(igraph
Edge
p174
(dp175
g7
I1
sg8
I00
sg9
I5
sg10
(lp176
g170
a(igraph
Vertex
p177
(dp178
g14
F0.75
sg8
I00
sg15
g16
sg17
F-22.225806451612897
sg18
F-197.75
sg19
I3829206
sg20
S'9610.34203677'
p179
sg22
F0.35483870967741937
sbasg26
I00
sg27
I00
sg28
I3828980
sg20
S'9610.4317627'
p180
sba(igraph
Edge
p181
(dp182
g7
I1
sg8
I00
sg9
I5
sg10
(lp183
g177
a(igraph
Vertex
p184
(dp185
g14
F1.0
sg8
I00
sg15
g16
sg17
F-22.225806451612897
sg18
F-295.0
sg19
I3829207
sg20
S'9610.34259997'
p186
sg22
F0.35483870967741937
sbasg26
I00
sg27
I00
sg28
I3828981
sg20
S'9610.43351068'
p187
sba(igraph
Edge
p188
(dp189
g7
I1
sg8
I00
sg9
I5
sg10
(lp190
(igraph
Vertex
p191
(dp192
g14
F0.25
sg8
I00
sg15
g16
sg17
F3.7365591397849585
sg18
F-3.25
sg19
I3829208
sg20
S'9610.34382526'
p193
sg22
F0.41397849462365593
sba(igraph
Vertex
p194
(dp195
g14
F0.5
sg8
I00
sg15
g16
sg17
F3.7365591397849585
sg18
F-100.5
sg19
I3829209
sg20
S'9610.34444322'
p196
sg22
F0.41397849462365593
sbasg26
I00
sg27
I00
sg28
I3828982
sg20
S'9610.43877057'
p197
sba(igraph
Edge
p198
(dp199
g7
I1
sg8
I00
sg9
I5
sg10
(lp200
g194
a(igraph
Vertex
p201
(dp202
g14
F0.75
sg8
I00
sg15
g16
sg17
F3.7365591397849585
sg18
F-197.75
sg19
I3829210
sg20
S'9610.34507822'
p203
sg22
F0.41397849462365593
sbasg26
I00
sg27
I00
sg28
I3828983
sg20
S'9610.44060516'
p204
sba(igraph
Edge
p205
(dp206
g7
I1
sg8
I00
sg9
I5
sg10
(lp207
g201
a(igraph
Vertex
p208
(dp209
g14
F1.0
sg8
I00
sg15
I0
sg17
F3.7365591397849585
sg18
F-295.0
sg19
I3829211
sg20
S'9610.34585038'
p210
sg22
F0.41397849462365593
sbasg26
I00
sg27
I00
sg28
I3828984
sg20
S'9610.44233583'
p211
sba(igraph
Edge
p212
(dp213
g7
I1
sg8
I00
sg9
I5
sg10
(lp214
(igraph
Vertex
p215
(dp216
g14
F0.25
sg8
I00
sg15
g16
sg17
F29.698924731182814
sg18
F-3.25
sg19
I3829213
sg20
S'9610.347269'
p217
sg22
F0.4731182795698925
sba(igraph
Vertex
p218
(dp219
g14
F0.5
sg8
I00
sg15
g16
sg17
F29.698924731182814
sg18
F-100.5
sg19
I3829214
sg20
S'9610.34798333'
p220
sg22
F0.4731182795698925
sbasg26
I00
sg27
I00
sg28
I3828985
sg20
S'9610.44513507'
p221
sba(igraph
Edge
p222
(dp223
g7
I1
sg8
I00
sg9
I5
sg10
(lp224
g218
a(igraph
Vertex
p225
(dp226
g14
F0.75
sg8
I00
sg15
g16
sg17
F29.698924731182814
sg18
F-197.75
sg19
I3829215
sg20
S'9610.34870074'
p227
sg22
F0.4731182795698925
sbasg26
I00
sg27
I00
sg28
I3828986
sg20
S'9610.44609916'
p228
sba(igraph
Edge
p229
(dp230
g7
I1
sg8
I00
sg9
I5
sg10
(lp231
g225
a(igraph
Vertex
p232
(dp233
g14
F1.0
sg8
I00
sg15
g16
sg17
F29.698924731182814
sg18
F-295.0
sg19
I3829216
sg20
S'9610.3494405'
p234
sg22
F0.4731182795698925
sbasg26
I00
sg27
I00
sg28
I3828987
sg20
S'9610.44708364'
p235
sba(igraph
Edge
p236
(dp237
g7
I1
sg8
I00
sg9
I5
sg10
(lp238
(igraph
Vertex
p239
(dp240
g14
F0.25
sg8
I00
sg15
g16
sg17
F55.661290322580641
sg18
F-3.25
sg19
I3829217
sg20
S'9610.35097254'
p241
sg22
F0.532258064516129
sba(igraph
Vertex
p242
(dp243
g14
F0.5
sg8
I00
sg15
g16
sg17
F55.661290322580641
sg18
F-100.5
sg19
I3829218
sg20
S'9610.35175756'
p244
sg22
F0.532258064516129
sbasg26
I00
sg27
I00
sg28
I3828988
sg20
S'9610.4501723'
p245
sba(igraph
Edge
p246
(dp247
g7
I1
sg8
I00
sg9
I5
sg10
(lp248
g242
a(igraph
Vertex
p249
(dp250
g14
F0.75
sg8
I01
sg15
I0
sg17
F55.661290322580641
sg18
F-197.75
sg19
I3829220
sg20
S'9610.35255933'
p251
sg22
F0.532258064516129
sbasg26
I00
sg27
I00
sg28
I3828989
sg20
S'9610.45128836'
p252
sba(igraph
Edge
p253
(dp254
g7
I1
sg8
I00
sg9
I5
sg10
(lp255
g249
a(igraph
Vertex
p256
(dp257
g14
F1.0
sg8
I00
sg15
g16
sg17
F55.661290322580641
sg18
F-295.0
sg19
I3829222
sg20
S'9610.35338346'
p258
sg22
F0.532258064516129
sbasg26
I00
sg27
I00
sg28
I3828990
sg20
S'9610.45239577'
p259
sba(igraph
Edge
p260
(dp261
g7
I1
sg8
I00
sg9
I5
sg10
(lp262
(igraph
Vertex
p263
(dp264
g14
F0.25
sg8
I00
sg15
g16
sg17
F81.623655913978496
sg18
F-3.25
sg19
I3829223
sg20
S'9610.35507893'
p265
sg22
F0.59139784946236562
sba(igraph
Vertex
p266
(dp267
g14
F0.5
sg8
I00
sg15
g16
sg17
F81.623655913978496
sg18
F-100.5
sg19
I3829224
sg20
S'9610.35618661'
p268
sg22
F0.59139784946236562
sbasg26
I00
sg27
I00
sg28
I3828991
sg20
S'9610.45578502'
p269
sba(igraph
Edge
p270
(dp271
g7
I1
sg8
I00
sg9
I5
sg10
(lp272
g266
a(igraph
Vertex
p273
(dp274
g14
F0.75
sg8
I00
sg15
g16
sg17
F81.623655913978496
sg18
F-197.75
sg19
I3829225
sg20
S'9610.35715629'
p275
sg22
F0.59139784946236562
sbasg26
I00
sg27
I00
sg28
I3828992
sg20
S'9610.45695724'
p276
sba(igraph
Edge
p277
(dp278
g7
I1
sg8
I00
sg9
I5
sg10
(lp279
g273
a(igraph
Vertex
p280
(dp281
g14
F1.0
sg8
I00
sg15
g16
sg17
F81.623655913978496
sg18
F-295.0
sg19
I3829226
sg20
S'9610.35803545'
p282
sg22
F0.59139784946236562
sbasg26
I00
sg27
I00
sg28
I3828993
sg20
S'9610.45815208'
p283
sba(igraph
Edge
p284
(dp285
g7
I1
sg8
I00
sg9
I5
sg10
(lp286
(igraph
Vertex
p287
(dp288
g14
F0.25
sg8
I00
sg15
I0
sg17
F107.58602150537632
sg18
F-3.25
sg19
I3829227
sg20
S'9610.35987786'
p289
sg22
F0.65053763440860213
sba(igraph
Vertex
p290
(dp291
g14
F0.5
sg8
I00
sg15
g16
sg17
F107.58602150537632
sg18
F-100.5
sg19
I3829229
sg20
S'9610.36082379'
p292
sg22
F0.65053763440860213
sbasg26
I00
sg27
I00
sg28
I3828994
sg20
S'9610.46191429'
p293
sba(igraph
Edge
p294
(dp295
g7
I1
sg8
I00
sg9
I5
sg10
(lp296
g290
a(igraph
Vertex
p297
(dp298
g14
F0.75
sg8
I00
sg15
g16
sg17
F107.58602150537632
sg18
F-197.75
sg19
I3829230
sg20
S'9610.36178984'
p299
sg22
F0.65053763440860213
sbasg26
I00
sg27
I00
sg28
I3828995
sg20
S'9610.46317451'
p300
sba(igraph
Edge
p301
(dp302
g7
I1
sg8
I00
sg9
I5
sg10
(lp303
g297
a(igraph
Vertex
p304
(dp305
g14
F1.0
sg8
I00
sg15
g16
sg17
F107.58602150537632
sg18
F-295.0
sg19
I3829231
sg20
S'9610.36278326'
p306
sg22
F0.65053763440860213
sbasg26
I00
sg27
I00
sg28
I3828996
sg20
S'9610.46445596'
p307
sba(igraph
Edge
p308
(dp309
g7
I1
sg8
I00
sg9
I5
sg10
(lp310
(igraph
Vertex
p311
(dp312
g14
F0.25
sg8
I00
sg15
g16
sg17
F133.54838709677421
sg18
F-3.25
sg19
I3829232
sg20
S'9610.36499639'
p313
sg22
F0.70967741935483875
sba(igraph
Vertex
p314
(dp315
g14
F0.5
sg8
I00
sg15
g16
sg17
F133.54838709677421
sg18
F-100.5
sg19
I3829233
sg20
S'9610.36603144'
p316
sg22
F0.70967741935483875
sbasg26
I00
sg27
I00
sg28
I3828997
sg20
S'9610.46842685'
p317
sba(igraph
Edge
p318
(dp319
g7
I1
sg8
I00
sg9
I5
sg10
(lp320
g314
a(igraph
Vertex
p321
(dp322
g14
F0.75
sg8
I00
sg15
g16
sg17
F133.54838709677421
sg18
F-197.75
sg19
I3829234
sg20
S'9610.36718996'
p323
sg22
F0.70967741935483875
sbasg26
I00
sg27
I00
sg28
I3828998
sg20
S'9610.46979239'
p324
sba(igraph
Edge
p325
(dp326
g7
I1
sg8
I00
sg9
I5
sg10
(lp327
g321
a(igraph
Vertex
p328
(dp329
g14
F1.0
sg8
I00
sg15
g16
sg17
F133.54838709677421
sg18
F-295.0
sg19
I3829235
sg20
S'9610.36827222'
p330
sg22
F0.70967741935483875
sbasg26
I00
sg27
I00
sg28
I3828999
sg20
S'9610.47117916'
p331
sba(igraph
Edge
p332
(dp333
g7
I1
sg8
I00
sg9
I5
sg10
(lp334
(igraph
Vertex
p335
(dp336
g14
F0.25
sg8
I00
sg15
g16
sg17
F159.51075268817198
sg18
F-3.25
sg19
I3829236
sg20
S'9610.37046887'
p337
sg22
F0.76881720430107514
sba(igraph
Vertex
p338
(dp339
g14
F0.5
sg8
I00
sg15
I0
sg17
F159.51075268817198
sg18
F-100.5
sg19
I3829237
sg20
S'9610.37159527'
p340
sg22
F0.76881720430107514
sbasg26
I00
sg27
I00
sg28
I3829000
sg20
S'9610.475473'
p341
sba(igraph
Edge
p342
(dp343
g7
I1
sg8
I00
sg9
I5
sg10
(lp344
g338
a(igraph
Vertex
p345
(dp346
g14
F0.75
sg8
I00
sg15
g16
sg17
F159.51075268817198
sg18
F-197.75
sg19
I3829239
sg20
S'9610.3727457'
p347
sg22
F0.76881720430107514
sbasg26
I00
sg27
I00
sg28
I3829001
sg20
S'9610.47694944'
p348
sba(igraph
Edge
p349
(dp350
g7
I1
sg8
I00
sg9
I5
sg10
(lp351
g345
a(igraph
Vertex
p352
(dp353
g14
F1.0
sg8
I00
sg15
g16
sg17
F159.51075268817198
sg18
F-295.0
sg19
I3829240
sg20
S'9610.37399055'
p354
sg22
F0.76881720430107514
sbasg26
I00
sg27
I00
sg28
I3829002
sg20
S'9610.47844405'
p355
sba(igraph
Edge
p356
(dp357
g7
I1
sg8
I00
sg9
I5
sg10
(lp358
(igraph
Vertex
p359
(dp360
g14
F0.25
sg8
I00
sg15
I0
sg17
F185.47311827956992
sg18
F-3.25
sg19
I3829241
sg20
S'9610.37637102'
p361
sg22
F0.82795698924731187
sba(igraph
Vertex
p362
(dp363
g14
F0.5
sg8
I00
sg15
g16
sg17
F185.47311827956992
sg18
F-100.5
sg19
I3829243
sg20
S'9610.37759687'
p364
sg22
F0.82795698924731187
sbasg26
I00
sg27
I00
sg28
I3829003
sg20
S'9610.48324522'
p365
sba(igraph
Edge
p366
(dp367
g7
I1
sg8
I00
sg9
I5
sg10
(lp368
g362
a(igraph
Vertex
p369
(dp370
g14
F0.75
sg8
I00
sg15
g16
sg17
F185.47311827956992
sg18
F-197.75
sg19
I3829244
sg20
S'9610.37883865'
p371
sg22
F0.82795698924731187
sbasg26
I00
sg27
I00
sg28
I3829004
sg20
S'9610.48485436'
p372
sba(igraph
Edge
p373
(dp374
g7
I1
sg8
I00
sg9
I5
sg10
(lp375
g369
a(igraph
Vertex
p376
(dp377
g14
F1.0
sg8
I00
sg15
g16
sg17
F185.47311827956992
sg18
F-295.0
sg19
I3829245
sg20
S'9610.38009384'
p378
sg22
F0.82795698924731187
sbasg26
I00
sg27
I00
sg28
I3829005
sg20
S'9610.48648222'
p379
sba(igraph
Edge
p380
(dp381
g7
I1
sg8
I00
sg9
I5
sg10
(lp382
(igraph
Vertex
p383
(dp384
g14
F0.25
sg8
I00
sg15
g16
sg17
F211.43548387096769
sg18
F-3.25
sg19
I3829246
sg20
S'9610.38265673'
p385
sg22
F0.88709677419354827
sba(igraph
Vertex
p386
(dp387
g14
F0.5
sg8
I00
sg15
g16
sg17
F211.43548387096769
sg18
F-100.5
sg19
I3829247
sg20
S'9610.38418849'
p388
sg22
F0.88709677419354827
sbasg26
I00
sg27
I00
sg28
I3829006
sg20
S'9610.49156583'
p389
sba(igraph
Edge
p390
(dp391
g7
I1
sg8
I00
sg9
I5
sg10
(lp392
g386
a(igraph
Vertex
p393
(dp394
g14
F0.75
sg8
I00
sg15
I0
sg17
F211.43548387096769
sg18
F-197.75
sg19
I3829248
sg20
S'9610.38552889'
p395
sg22
F0.88709677419354827
sbasg26
I00
sg27
I00
sg28
I3829007
sg20
S'9610.49533949'
p396
sba(igraph
Edge
p397
(dp398
g7
I1
sg8
I00
sg9
I5
sg10
(lp399
g393
a(igraph
Vertex
p400
(dp401
g14
F1.0
sg8
I00
sg15
g16
sg17
F211.43548387096769
sg18
F-295.0
sg19
I3829250
sg20
S'9610.386869'
p402
sg22
F0.88709677419354827
sbasg26
I00
sg27
I00
sg28
I3829008
sg20
S'9610.497297'
p403
sba(igraph
Edge
p404
(dp405
g7
I1
sg8
I00
sg9
I5
sg10
(lp406
(igraph
Vertex
p407
(dp408
g14
F0.25
sg8
I00
sg15
g16
sg17
F237.39784946236563
sg18
F-3.25
sg19
I3829251
sg20
S'9610.38973892'
p409
sg22
F0.94623655913978499
sba(igraph
Vertex
p410
(dp411
g14
F0.5
sg8
I00
sg15
g16
sg17
F237.39784946236563
sg18
F-100.5
sg19
I3829252
sg20
S'9610.39130755'
p412
sg22
F0.94623655913978499
sbasg26
I00
sg27
I00
sg28
I3829009
sg20
S'9610.50328436'
p413
sba(igraph
Edge
p414
(dp415
g7
I1
sg8
I00
sg9
I5
sg10
(lp416
g410
a(igraph
Vertex
p417
(dp418
g14
F0.75
sg8
I00
sg15
g16
sg17
F237.39784946236563
sg18
F-197.75
sg19
I3829253
sg20
S'9610.39272561'
p419
sg22
F0.94623655913978499
sbasg26
I00
sg27
I00
sg28
I3829010
sg20
S'9610.50519018'
p420
sba(igraph
Edge
p421
(dp422
g7
I1
sg8
I00
sg9
I5
sg10
(lp423
g417
a(igraph
Vertex
p424
(dp425
g14
F1.0
sg8
I00
sg15
g16
sg17
F237.39784946236563
sg18
F-295.0
sg19
I3829254
sg20
S'9610.39436968'
p426
sg22
F0.94623655913978499
sbasg26
I00
sg27
I00
sg28
I3829011
sg20
S'9610.50731196'
p427
sba(igraph
Edge
p428
(dp429
g7
I1
sg8
I00
sg9
I5
sg10
(lp430
(igraph
Vertex
p431
(dp432
g14
F0.25
sg8
I00
sg15
g16
sg17
F263.36021505376345
sg18
F-3.25
sg19
I3829255
sg20
S'9610.39732759'
p433
sg22
F1.0053763440860215
sba(igraph
Vertex
p434
(dp435
g14
F0.5
sg8
I00
sg15
g16
sg17
F263.36021505376345
sg18
F-100.5
sg19
I3829256
sg20
S'9610.39913788'
p436
sg22
F1.0053763440860215
sbasg26
I00
sg27
I00
sg28
I3829012
sg20
S'9610.51341749'
p437
sba(igraph
Edge
p438
(dp439
g7
I1
sg8
I00
sg9
I5
sg10
(lp440
g434
a(igraph
Vertex
p441
(dp442
g14
F0.75
sg8
I00
sg15
g16
sg17
F263.36021505376345
sg18
F-197.75
sg19
I3829257
sg20
S'9610.4006079'
p443
sg22
F1.0053763440860215
sbasg26
I00
sg27
I00
sg28
I3829013
sg20
S'9610.51542417'
p444
sba(igraph
Edge
p445
(dp446
g7
I1
sg8
I00
sg9
I5
sg10
(lp447
g441
a(igraph
Vertex
p448
(dp449
g14
F1.0
sg8
I00
sg15
I0
sg17
F263.36021505376345
sg18
F-295.0
sg19
I3829258
sg20
S'9610.40212038'
p450
sg22
F1.0053763440860215
sbasg26
I00
sg27
I00
sg28
I3829014
sg20
S'9610.5175236'
p451
sba(igraph
Edge
p452
(dp453
g7
I1
sg8
I00
sg9
I5
sg10
(lp454
g12
ag50
asg26
I00
sg27
I00
sg28
I3829015
sg20
S'9610.52388362'
p455
sba(igraph
Edge
p456
(dp457
g7
I1
sg8
I00
sg9
I5
sg10
(lp458
g23
ag50
asg26
I00
sg27
I00
sg28
I3829016
sg20
S'9610.52620794'
p459
sba(igraph
Edge
p460
(dp461
g7
I1
sg8
I00
sg9
I5
sg10
(lp462
g33
ag64
asg26
I00
sg27
I00
sg28
I3829017
sg20
S'9610.52840291'
p463
sba(igraph
Edge
p464
(dp465
g7
I1
sg8
I00
sg9
I5
sg10
(lp466
g40
ag64
asg26
I00
sg27
I00
sg28
I3829018
sg20
S'9610.53064286'
p467
sba(igraph
Edge
p468
(dp469
g7
I1
sg8
I00
sg9
I5
sg10
(lp470
g12
ag47
asg26
I00
sg27
I00
sg28
I3829019
sg20
S'9610.53539682'
p471
sba(igraph
Edge
p472
(dp473
g7
I1
sg8
I00
sg9
I5
sg10
(lp474
g23
ag57
asg26
I00
sg27
I00
sg28
I3829020
sg20
S'9610.53780355'
p475
sba(igraph
Edge
p476
(dp477
g7
I1
sg8
I00
sg9
I5
sg10
(lp478
g33
ag57
asg26
I00
sg27
I00
sg28
I3829021
sg20
S'9610.54014686'
p479
sba(igraph
Edge
p480
(dp481
g7
I1
sg8
I00
sg9
I5
sg10
(lp482
g23
ag434
asg26
I00
sg27
I00
sg28
I3829022
sg20
S'9610.54981764'
p483
sba(igraph
Edge
p484
(dp485
g7
I1
sg8
I00
sg9
I5
sg10
(lp486
g33
ag434
asg26
I00
sg27
I00
sg28
I3829023
sg20
S'9610.55228332'
p487
sba(igraph
Edge
p488
(dp489
g7
I1
sg8
I00
sg9
I5
sg10
(lp490
g40
ag448
asg26
I00
sg27
I00
sg28
I3829024
sg20
S'9610.5547937'
p491
sba(igraph
Edge
p492
(dp493
g7
I1
sg8
I00
sg9
I5
sg10
(lp494
g12
ag431
asg26
I00
sg27
I00
sg28
I3829025
sg20
S'9610.55965102'
p495
sba(igraph
Edge
p496
(dp497
g7
I1
sg8
I00
sg9
I5
sg10
(lp498
g23
ag431
asg26
I00
sg27
I00
sg28
I3829026
sg20
S'9610.56213234'
p499
sba(igraph
Edge
p500
(dp501
g7
I1
sg8
I00
sg9
I5
sg10
(lp502
g33
ag441
asg26
I00
sg27
I00
sg28
I3829027
sg20
S'9610.5646212'
p503
sba(igraph
Edge
p504
(dp505
g7
I1
sg8
I00
sg9
I5
sg10
(lp506
g40
ag441
asg26
I00
sg27
I00
sg28
I3829028
sg20
S'9610.56714834'
p507
sba(igraph
Edge
p508
(dp509
g7
I1
sg8
I00
sg9
I5
sg10
(lp510
g47
ag74
asg26
I00
sg27
I00
sg28
I3829029
sg20
S'9610.57224116'
p511
sba(igraph
Edge
p512
(dp513
g7
I1
sg8
I00
sg9
I5
sg10
(lp514
g50
ag74
asg26
I00
sg27
I00
sg28
I3829030
sg20
S'9610.57488787'
p515
sba(igraph
Edge
p516
(dp517
g7
I1
sg8
I00
sg9
I5
sg10
(lp518
g57
ag88
asg26
I00
sg27
I00
sg28
I3829031
sg20
S'9610.57750384'
p519
sba(igraph
Edge
p520
(dp521
g7
I1
sg8
I00
sg9
I5
sg10
(lp522
g64
ag88
asg26
I00
sg27
I00
sg28
I3829032
sg20
S'9610.58009943'
p523
sba(igraph
Edge
p524
(dp525
g7
I1
sg8
I00
sg9
I5
sg10
(lp526
g47
ag71
asg26
I00
sg27
I00
sg28
I3829033
sg20
S'9610.58634631'
p527
sba(igraph
Edge
p528
(dp529
g7
I1
sg8
I00
sg9
I5
sg10
(lp530
g50
ag81
asg26
I00
sg27
I00
sg28
I3829034
sg20
S'9610.58919527'
p531
sba(igraph
Edge
p532
(dp533
g7
I1
sg8
I00
sg9
I5
sg10
(lp534
g57
ag81
asg26
I00
sg27
I00
sg28
I3829035
sg20
S'9610.59210821'
p535
sba(igraph
Edge
p536
(dp537
g7
I1
sg8
I00
sg9
I5
sg10
(lp538
g71
ag98
asg26
I00
sg27
I00
sg28
I3829036
sg20
S'9610.60052157'
p539
sba(igraph
Edge
p540
(dp541
g7
I1
sg8
I00
sg9
I5
sg10
(lp542
g74
ag98
asg26
I00
sg27
I00
sg28
I3829037
sg20
S'9610.60323449'
p543
sba(igraph
Edge
p544
(dp545
g7
I1
sg8
I00
sg9
I5
sg10
(lp546
g81
ag112
asg26
I00
sg27
I00
sg28
I3829038
sg20
S'9610.60618822'
p547
sba(igraph
Edge
p548
(dp549
g7
I1
sg8
I00
sg9
I5
sg10
(lp550
g88
ag112
asg26
I00
sg27
I00
sg28
I3829039
sg20
S'9610.60912351'
p551
sba(igraph
Edge
p552
(dp553
g7
I1
sg8
I00
sg9
I5
sg10
(lp554
g71
ag95
asg26
I00
sg27
I00
sg28
I3829040
sg20
S'9610.6147745'
p555
sba(igraph
Edge
p556
(dp557
g7
I1
sg8
I00
sg9
I5
sg10
(lp558
g74
ag105
asg26
I00
sg27
I00
sg28
I3829041
sg20
S'9610.61762347'
p559
sba(igraph
Edge
p560
(dp561
g7
I1
sg8
I00
sg9
I5
sg10
(lp562
g81
ag105
asg26
I00
sg27
I00
sg28
I3829042
sg20
S'9610.62066156'
p563
sba(igraph
Edge
p564
(dp565
g7
I1
sg8
I00
sg9
I5
sg10
(lp566
g95
ag122
asg26
I00
sg27
I00
sg28
I3829043
sg20
S'9610.62943363'
p567
sba(igraph
Edge
p568
(dp569
g7
I1
sg8
I00
sg9
I5
sg10
(lp570
g98
ag122
asg26
I00
sg27
I00
sg28
I3829044
sg20
S'9610.6323949'
p571
sba(igraph
Edge
p572
(dp573
g7
I1
sg8
I00
sg9
I5
sg10
(lp574
g105
ag136
asg26
I00
sg27
I00
sg28
I3829045
sg20
S'9610.63538019'
p575
sba(igraph
Edge
p576
(dp577
g7
I1
sg8
I00
sg9
I5
sg10
(lp578
g112
ag136
asg26
I00
sg27
I00
sg28
I3829046
sg20
S'9610.63841997'
p579
sba(igraph
Edge
p580
(dp581
g7
I1
sg8
I00
sg9
I5
sg10
(lp582
g95
ag119
asg26
I00
sg27
I00
sg28
I3829047
sg20
S'9610.64459757'
p583
sba(igraph
Edge
p584
(dp585
g7
I1
sg8
I00
sg9
I5
sg10
(lp586
g98
ag129
asg26
I00
sg27
I00
sg28
I3829048
sg20
S'9610.64769573'
p587
sba(igraph
Edge
p588
(dp589
g7
I1
sg8
I00
sg9
I5
sg10
(lp590
g105
ag129
asg26
I00
sg27
I00
sg28
I3829049
sg20
S'9610.65091597'
p591
sba(igraph
Edge
p592
(dp593
g7
I1
sg8
I00
sg9
I5
sg10
(lp594
g119
ag146
asg26
I00
sg27
I00
sg28
I3829050
sg20
S'9610.66087366'
p595
sba(igraph
Edge
p596
(dp597
g7
I1
sg8
I00
sg9
I5
sg10
(lp598
g122
ag146
asg26
I00
sg27
I00
sg28
I3829051
sg20
S'9610.664347'
p599
sba(igraph
Edge
p600
(dp601
g7
I1
sg8
I00
sg9
I5
sg10
(lp602
g129
ag160
asg26
I00
sg27
I00
sg28
I3829052
sg20
S'9610.66770972'
p603
sba(igraph
Edge
p604
(dp605
g7
I1
sg8
I00
sg9
I5
sg10
(lp606
g136
ag160
asg26
I00
sg27
I00
sg28
I3829053
sg20
S'9610.67118475'
p607
sba(igraph
Edge
p608
(dp609
g7
I1
sg8
I00
sg9
I5
sg10
(lp610
g119
ag143
asg26
I00
sg27
I00
sg28
I3829054
sg20
S'9610.68321812'
p611
sba(igraph
Edge
p612
(dp613
g7
I1
sg8
I00
sg9
I5
sg10
(lp614
g122
ag153
asg26
I00
sg27
I00
sg28
I3829055
sg20
S'9610.68759689'
p615
sba(igraph
Edge
p616
(dp617
g7
I1
sg8
I00
sg9
I5
sg10
(lp618
g129
ag153
asg26
I00
sg27
I00
sg28
I3829056
sg20
S'9610.69108979'
p619
sba(igraph
Edge
p620
(dp621
g7
I1
sg8
I00
sg9
I5
sg10
(lp622
g143
ag170
asg26
I00
sg27
I00
sg28
I3829057
sg20
S'9610.70151318'
p623
sba(igraph
Edge
p624
(dp625
g7
I1
sg8
I00
sg9
I5
sg10
(lp626
g146
ag170
asg26
I00
sg27
I00
sg28
I3829058
sg20
S'9610.70504911'
p627
sba(igraph
Edge
p628
(dp629
g7
I1
sg8
I00
sg9
I5
sg10
(lp630
g153
ag184
asg26
I00
sg27
I00
sg28
I3829059
sg20
S'9610.70894597'
p631
sba(igraph
Edge
p632
(dp633
g7
I1
sg8
I00
sg9
I5
sg10
(lp634
g160
ag184
asg26
I00
sg27
I00
sg28
I3829060
sg20
S'9610.71250452'
p635
sba(igraph
Edge
p636
(dp637
g7
I1
sg8
I00
sg9
I5
sg10
(lp638
g143
ag167
asg26
I00
sg27
I00
sg28
I3829061
sg20
S'9610.72026975'
p639
sba(igraph
Edge
p640
(dp641
g7
I1
sg8
I00
sg9
I5
sg10
(lp642
g146
ag177
asg26
I00
sg27
I00
sg28
I3829062
sg20
S'9610.72380624'
p643
sba(igraph
Edge
p644
(dp645
g7
I1
sg8
I00
sg9
I5
sg10
(lp646
g153
ag177
asg26
I00
sg27
I00
sg28
I3829063
sg20
S'9610.72733685'
p647
sba(igraph
Edge
p648
(dp649
g7
I1
sg8
I00
sg9
I5
sg10
(lp650
g167
ag194
asg26
I00
sg27
I00
sg28
I3829064
sg20
S'9610.73858409'
p651
sba(igraph
Edge
p652
(dp653
g7
I1
sg8
I00
sg9
I5
sg10
(lp654
g170
ag194
asg26
I00
sg27
I00
sg28
I3829065
sg20
S'9610.74232144'
p655
sba(igraph
Edge
p656
(dp657
g7
I1
sg8
I00
sg9
I5
sg10
(lp658
g177
ag208
asg26
I00
sg27
I00
sg28
I3829066
sg20
S'9610.74601549'
p659
sba(igraph
Edge
p660
(dp661
g7
I1
sg8
I00
sg9
I5
sg10
(lp662
g184
ag208
asg26
I00
sg27
I00
sg28
I3829067
sg20
S'9610.7497154'
p663
sba(igraph
Edge
p664
(dp665
g7
I1
sg8
I00
sg9
I5
sg10
(lp666
g167
ag191
asg26
I00
sg27
I00
sg28
I3829068
sg20
S'9610.75720462'
p667
sba(igraph
Edge
p668
(dp669
g7
I1
sg8
I00
sg9
I5
sg10
(lp670
g170
ag201
asg26
I00
sg27
I00
sg28
I3829069
sg20
S'9610.76099812'
p671
sba(igraph
Edge
p672
(dp673
g7
I1
sg8
I00
sg9
I5
sg10
(lp674
g177
ag201
asg26
I00
sg27
I00
sg28
I3829070
sg20
S'9610.7647349'
p675
sba(igraph
Edge
p676
(dp677
g7
I1
sg8
I00
sg9
I5
sg10
(lp678
g191
ag218
asg26
I00
sg27
I00
sg28
I3829071
sg20
S'9610.77665904'
p679
sba(igraph
Edge
p680
(dp681
g7
I1
sg8
I00
sg9
I5
sg10
(lp682
g194
ag218
asg26
I00
sg27
I00
sg28
I3829072
sg20
S'9610.78132724'
p683
sba(igraph
Edge
p684
(dp685
g7
I1
sg8
I00
sg9
I5
sg10
(lp686
g201
ag232
asg26
I00
sg27
I00
sg28
I3829073
sg20
S'9610.78544173'
p687
sba(igraph
Edge
p688
(dp689
g7
I1
sg8
I00
sg9
I5
sg10
(lp690
g208
ag232
asg26
I00
sg27
I00
sg28
I3829074
sg20
S'9610.78980094'
p691
sba(igraph
Edge
p692
(dp693
g7
I1
sg8
I00
sg9
I5
sg10
(lp694
g191
ag215
asg26
I00
sg27
I00
sg28
I3829075
sg20
S'9610.79819027'
p695
sba(igraph
Edge
p696
(dp697
g7
I1
sg8
I00
sg9
I5
sg10
(lp698
g194
ag225
asg26
I00
sg27
I00
sg28
I3829076
sg20
S'9610.80250507'
p699
sba(igraph
Edge
p700
(dp701
g7
I1
sg8
I00
sg9
I5
sg10
(lp702
g201
ag225
asg26
I00
sg27
I00
sg28
I3829077
sg20
S'9610.8067869'
p703
sba(igraph
Edge
p704
(dp705
g7
I1
sg8
I00
sg9
I5
sg10
(lp706
g215
ag242
asg26
I00
sg27
I00
sg28
I3829078
sg20
S'9610.81960724'
p707
sba(igraph
Edge
p708
(dp709
g7
I1
sg8
I00
sg9
I5
sg10
(lp710
g218
ag242
asg26
I00
sg27
I00
sg28
I3829079
sg20
S'9610.82401423'
p711
sba(igraph
Edge
p712
(dp713
g7
I1
sg8
I00
sg9
I5
sg10
(lp714
g225
ag256
asg26
I00
sg27
I00
sg28
I3829080
sg20
S'9610.82825555'
p715
sba(igraph
Edge
p716
(dp717
g7
I1
sg8
I00
sg9
I5
sg10
(lp718
g232
ag256
asg26
I00
sg27
I00
sg28
I3829081
sg20
S'9610.83278825'
p719
sba(igraph
Edge
p720
(dp721
g7
I1
sg8
I00
sg9
I5
sg10
(lp722
g215
ag239
asg26
I00
sg27
I00
sg28
I3829082
sg20
S'9610.8431675'
p723
sba(igraph
Edge
p724
(dp725
g7
I1
sg8
I00
sg9
I5
sg10
(lp726
g218
ag249
asg26
I00
sg27
I00
sg28
I3829083
sg20
S'9610.84785664'
p727
sba(igraph
Edge
p728
(dp729
g7
I1
sg8
I00
sg9
I5
sg10
(lp730
g225
ag249
asg26
I00
sg27
I00
sg28
I3829084
sg20
S'9610.85225357'
p731
sba(igraph
Edge
p732
(dp733
g7
I1
sg8
I00
sg9
I5
sg10
(lp734
g239
ag266
asg26
I00
sg27
I00
sg28
I3829085
sg20
S'9610.86718703'
p735
sba(igraph
Edge
p736
(dp737
g7
I1
sg8
I00
sg9
I5
sg10
(lp738
g242
ag266
asg26
I00
sg27
I00
sg28
I3829086
sg20
S'9610.87162838'
p739
sba(igraph
Edge
p740
(dp741
g7
I1
sg8
I00
sg9
I5
sg10
(lp742
g249
ag280
asg26
I00
sg27
I00
sg28
I3829087
sg20
S'9610.8759591'
p743
sba(igraph
Edge
p744
(dp745
g7
I1
sg8
I00
sg9
I5
sg10
(lp746
g256
ag280
asg26
I00
sg27
I00
sg28
I3829088
sg20
S'9610.88049543'
p747
sba(igraph
Edge
p748
(dp749
g7
I1
sg8
I00
sg9
I5
sg10
(lp750
g239
ag263
asg26
I00
sg27
I00
sg28
I3829089
sg20
S'9610.88932644'
p751
sba(igraph
Edge
p752
(dp753
g7
I1
sg8
I00
sg9
I5
sg10
(lp754
g242
ag273
asg26
I00
sg27
I00
sg28
I3829090
sg20
S'9610.89386752'
p755
sba(igraph
Edge
p756
(dp757
g7
I1
sg8
I00
sg9
I5
sg10
(lp758
g249
ag273
asg26
I00
sg27
I00
sg28
I3829091
sg20
S'9610.89852872'
p759
sba(igraph
Edge
p760
(dp761
g7
I1
sg8
I00
sg9
I5
sg10
(lp762
g263
ag290
asg26
I00
sg27
I00
sg28
I3829092
sg20
S'9610.9122137'
p763
sba(igraph
Edge
p764
(dp765
g7
I1
sg8
I00
sg9
I5
sg10
(lp766
g266
ag290
asg26
I00
sg27
I00
sg28
I3829093
sg20
S'9610.91784598'
p767
sba(igraph
Edge
p768
(dp769
g7
I1
sg8
I00
sg9
I5
sg10
(lp770
g273
ag304
asg26
I00
sg27
I00
sg28
I3829094
sg20
S'9610.92279438'
p771
sba(igraph
Edge
p772
(dp773
g7
I1
sg8
I00
sg9
I5
sg10
(lp774
g280
ag304
asg26
I00
sg27
I00
sg28
I3829095
sg20
S'9610.92812858'
p775
sba(igraph
Edge
p776
(dp777
g7
I1
sg8
I00
sg9
I5
sg10
(lp778
g263
ag287
asg26
I00
sg27
I00
sg28
I3829096
sg20
S'9610.93835362'
p779
sba(igraph
Edge
p780
(dp781
g7
I1
sg8
I00
sg9
I5
sg10
(lp782
g266
ag297
asg26
I00
sg27
I00
sg28
I3829097
sg20
S'9610.94351182'
p783
sba(igraph
Edge
p784
(dp785
g7
I1
sg8
I00
sg9
I5
sg10
(lp786
g273
ag297
asg26
I00
sg27
I00
sg28
I3829098
sg20
S'9610.94978105'
p787
sba(igraph
Edge
p788
(dp789
g7
I1
sg8
I00
sg9
I5
sg10
(lp790
g287
ag314
asg26
I00
sg27
I00
sg28
I3829099
sg20
S'9610.96491398'
p791
sba(igraph
Edge
p792
(dp793
g7
I1
sg8
I00
sg9
I5
sg10
(lp794
g290
ag314
asg26
I00
sg27
I00
sg28
I3829100
sg20
S'9610.97011603'
p795
sba(igraph
Edge
p796
(dp797
g7
I1
sg8
I00
sg9
I5
sg10
(lp798
g297
ag328
asg26
I00
sg27
I00
sg28
I3829101
sg20
S'9610.97504878'
p799
sba(igraph
Edge
p800
(dp801
g7
I1
sg8
I00
sg9
I5
sg10
(lp802
g304
ag328
asg26
I00
sg27
I00
sg28
I3829102
sg20
S'9610.98026202'
p803
sba(igraph
Edge
p804
(dp805
g7
I1
sg8
I00
sg9
I5
sg10
(lp806
g287
ag311
asg26
I00
sg27
I00
sg28
I3829103
sg20
S'9610.99032195'
p807
sba(igraph
Edge
p808
(dp809
g7
I1
sg8
I00
sg9
I5
sg10
(lp810
g290
ag321
asg26
I00
sg27
I00
sg28
I3829104
sg20
S'9610.99568716'
p811
sba(igraph
Edge
p812
(dp813
g7
I1
sg8
I00
sg9
I5
sg10
(lp814
g297
ag321
asg26
I00
sg27
I00
sg28
I3829105
sg20
S'9611.00068389'
p815
sba(igraph
Edge
p816
(dp817
g7
I1
sg8
I00
sg9
I5
sg10
(lp818
g311
ag338
asg26
I00
sg27
I00
sg28
I3829106
sg20
S'9611.01590845'
p819
sba(igraph
Edge
p820
(dp821
g7
I1
sg8
I00
sg9
I5
sg10
(lp822
g314
ag338
asg26
I00
sg27
I00
sg28
I3829107
sg20
S'9611.02104485'
p823
sba(igraph
Edge
p824
(dp825
g7
I1
sg8
I00
sg9
I5
sg10
(lp826
g321
ag352
asg26
I00
sg27
I00
sg28
I3829108
sg20
S'9611.02616869'
p827
sba(igraph
Edge
p828
(dp829
g7
I1
sg8
I00
sg9
I5
sg10
(lp830
g328
ag352
asg26
I00
sg27
I00
sg28
I3829109
sg20
S'9611.03222477'
p831
sba(igraph
Edge
p832
(dp833
g7
I1
sg8
I00
sg9
I5
sg10
(lp834
g311
ag335
asg26
I00
sg27
I00
sg28
I3829110
sg20
S'9611.0429278'
p835
sba(igraph
Edge
p836
(dp837
g7
I1
sg8
I00
sg9
I5
sg10
(lp838
g314
ag345
asg26
I00
sg27
I00
sg28
I3829111
sg20
S'9611.04823406'
p839
sba(igraph
Edge
p840
(dp841
g7
I1
sg8
I00
sg9
I5
sg10
(lp842
g321
ag345
asg26
I00
sg27
I00
sg28
I3829112
sg20
S'9611.05335231'
p843
sba(igraph
Edge
p844
(dp845
g7
I1
sg8
I00
sg9
I5
sg10
(lp846
g335
ag362
asg26
I00
sg27
I00
sg28
I3829113
sg20
S'9611.07019998'
p847
sba(igraph
Edge
p848
(dp849
g7
I1
sg8
I00
sg9
I5
sg10
(lp850
g338
ag362
asg26
I00
sg27
I00
sg28
I3829114
sg20
S'9611.0756395'
p851
sba(igraph
Edge
p852
(dp853
g7
I1
sg8
I00
sg9
I5
sg10
(lp854
g345
ag376
asg26
I00
sg27
I00
sg28
I3829115
sg20
S'9611.08109075'
p855
sba(igraph
Edge
p856
(dp857
g7
I1
sg8
I00
sg9
I5
sg10
(lp858
g352
ag376
asg26
I00
sg27
I00
sg28
I3829116
sg20
S'9611.08666046'
p859
sba(igraph
Edge
p860
(dp861
g7
I1
sg8
I00
sg9
I5
sg10
(lp862
g335
ag359
asg26
I00
sg27
I00
sg28
I3829117
sg20
S'9611.09728583'
p863
sba(igraph
Edge
p864
(dp865
g7
I1
sg8
I00
sg9
I5
sg10
(lp866
g338
ag369
asg26
I00
sg27
I00
sg28
I3829118
sg20
S'9611.1025527'
p867
sba(igraph
Edge
p868
(dp869
g7
I1
sg8
I00
sg9
I5
sg10
(lp870
g345
ag369
asg26
I00
sg27
I00
sg28
I3829119
sg20
S'9611.10785002'
p871
sba(igraph
Edge
p872
(dp873
g7
I1
sg8
I00
sg9
I5
sg10
(lp874
g359
ag386
asg26
I00
sg27
I00
sg28
I3829120
sg20
S'9611.12375483'
p875
sba(igraph
Edge
p876
(dp877
g7
I1
sg8
I00
sg9
I5
sg10
(lp878
g362
ag386
asg26
I00
sg27
I00
sg28
I3829121
sg20
S'9611.12917536'
p879
sba(igraph
Edge
p880
(dp881
g7
I1
sg8
I00
sg9
I5
sg10
(lp882
g369
ag400
asg26
I00
sg27
I00
sg28
I3829122
sg20
S'9611.1345171'
p883
sba(igraph
Edge
p884
(dp885
g7
I1
sg8
I00
sg9
I5
sg10
(lp886
g376
ag400
asg26
I00
sg27
I00
sg28
I3829123
sg20
S'9611.13991555'
p887
sba(igraph
Edge
p888
(dp889
g7
I1
sg8
I00
sg9
I5
sg10
(lp890
g359
ag383
asg26
I00
sg27
I00
sg28
I3829124
sg20
S'9611.15078062'
p891
sba(igraph
Edge
p892
(dp893
g7
I1
sg8
I00
sg9
I5
sg10
(lp894
g362
ag393
asg26
I00
sg27
I00
sg28
I3829125
sg20
S'9611.15616007'
p895
sba(igraph
Edge
p896
(dp897
g7
I1
sg8
I00
sg9
I5
sg10
(lp898
g369
ag393
asg26
I00
sg27
I00
sg28
I3829126
sg20
S'9611.161544'
p899
sba(igraph
Edge
p900
(dp901
g7
I1
sg8
I00
sg9
I5
sg10
(lp902
g383
ag410
asg26
I00
sg27
I00
sg28
I3829127
sg20
S'9611.17789859'
p903
sba(igraph
Edge
p904
(dp905
g7
I1
sg8
I00
sg9
I5
sg10
(lp906
g386
ag410
asg26
I00
sg27
I00
sg28
I3829128
sg20
S'9611.18339426'
p907
sba(igraph
Edge
p908
(dp909
g7
I1
sg8
I00
sg9
I5
sg10
(lp910
g393
ag424
asg26
I00
sg27
I00
sg28
I3829129
sg20
S'9611.18898491'
p911
sba(igraph
Edge
p912
(dp913
g7
I1
sg8
I00
sg9
I5
sg10
(lp914
g400
ag424
asg26
I00
sg27
I00
sg28
I3829130
sg20
S'9611.19454093'
p915
sba(igraph
Edge
p916
(dp917
g7
I1
sg8
I00
sg9
I5
sg10
(lp918
g383
ag407
asg26
I00
sg27
I00
sg28
I3829131
sg20
S'9611.20580549'
p919
sba(igraph
Edge
p920
(dp921
g7
I1
sg8
I00
sg9
I5
sg10
(lp922
g386
ag417
asg26
I00
sg27
I00
sg28
I3829132
sg20
S'9611.21140676'
p923
sba(igraph
Edge
p924
(dp925
g7
I1
sg8
I00
sg9
I5
sg10
(lp926
g393
ag417
asg26
I00
sg27
I00
sg28
I3829133
sg20
S'9611.21700021'
p927
sba(igraph
Edge
p928
(dp929
g7
I1
sg8
I00
sg9
I5
sg10
(lp930
g407
ag434
asg26
I00
sg27
I00
sg28
I3829134
sg20
S'9611.23408729'
p931
sba(igraph
Edge
p932
(dp933
g7
I1
sg8
I00
sg9
I5
sg10
(lp934
g410
ag434
asg26
I00
sg27
I00
sg28
I3829135
sg20
S'9611.23990172'
p935
sba(igraph
Edge
p936
(dp937
g7
I1
sg8
I00
sg9
I5
sg10
(lp938
g417
ag448
asg26
I00
sg27
I00
sg28
I3829136
sg20
S'9611.24573766'
p939
sba(igraph
Edge
p940
(dp941
g7
I1
sg8
I00
sg9
I5
sg10
(lp942
g424
ag448
asg26
I00
sg27
I00
sg28
I3829137
sg20
S'9611.25147917'
p943
sba(igraph
Edge
p944
(dp945
g7
I1
sg8
I00
sg9
I5
sg10
(lp946
g407
ag431
asg26
I00
sg27
I00
sg28
I3829138
sg20
S'9611.26306695'
p947
sba(igraph
Edge
p948
(dp949
g7
I1
sg8
I00
sg9
I5
sg10
(lp950
g410
ag441
asg26
I00
sg27
I00
sg28
I3829139
sg20
S'9611.26887356'
p951
sba(igraph
Edge
p952
(dp953
g7
I1
sg8
I00
sg9
I5
sg10
(lp954
g417
ag441
asg26
I00
sg27
I00
sg28
I3829140
sg20
S'9611.27482515'
p955
sba(igraph
Edge
p956
(dp957
g7
I1
sg8
I00
sg9
I5
sg10
(lp958
g448
ag431
asg26
I00
sg27
I00
sg28
I3829141
sg20
S'9680.05998584'
p959
sba(igraph
Edge
p960
(dp961
g7
I1
sg8
I00
sg9
I5
sg10
(lp962
g431
ag424
asg26
I00
sg27
I00
sg28
I3829142
sg20
S'9681.71910229'
p963
sba(igraph
Edge
p964
(dp965
g7
I1
sg8
I00
sg9
I5
sg10
(lp966
g424
ag407
asg26
I00
sg27
I00
sg28
I3829143
sg20
S'9683.34321262'
p967
sba(igraph
Edge
p968
(dp969
g7
I1
sg8
I00
sg9
I5
sg10
(lp970
g407
ag400
asg26
I00
sg27
I00
sg28
I3829144
sg20
S'9684.97989856'
p971
sba(igraph
Edge
p972
(dp973
g7
I1
sg8
I00
sg9
I5
sg10
(lp974
g400
ag383
asg26
I00
sg27
I00
sg28
I3829145
sg20
S'9686.4827432'
p975
sba(igraph
Edge
p976
(dp977
g7
I1
sg8
I00
sg9
I5
sg10
(lp978
g383
ag376
asg26
I00
sg27
I00
sg28
I3829146
sg20
S'9688.19153272'
p979
sba(igraph
Edge
p980
(dp981
g7
I1
sg8
I00
sg9
I5
sg10
(lp982
g376
ag359
asg26
I00
sg27
I00
sg28
I3829147
sg20
S'9689.91917576'
p983
sba(igraph
Edge
p984
(dp985
g7
I1
sg8
I00
sg9
I5
sg10
(lp986
g359
ag352
asg26
I00
sg27
I00
sg28
I3829148
sg20
S'9691.42138875'
p987
sba(igraph
Edge
p988
(dp989
g7
I1
sg8
I00
sg9
I5
sg10
(lp990
g352
ag335
asg26
I00
sg27
I00
sg28
I3829149
sg20
S'9693.01657306'
p991
sba(igraph
Edge
p992
(dp993
g7
I1
sg8
I00
sg9
I5
sg10
(lp994
g335
ag328
asg26
I00
sg27
I00
sg28
I3829150
sg20
S'9695.49072941'
p995
sba(igraph
Edge
p996
(dp997
g7
I1
sg8
I00
sg9
I5
sg10
(lp998
g328
ag311
asg26
I00
sg27
I00
sg28
I3829151
sg20
S'9697.07840969'
p999
sba(igraph
Edge
p1000
(dp1001
g7
I1
sg8
I00
sg9
I5
sg10
(lp1002
g311
ag304
asg26
I00
sg27
I00
sg28
I3829152
sg20
S'9698.82790327'
p1003
sba(igraph
Edge
p1004
(dp1005
g7
I1
sg8
I00
sg9
I5
sg10
(lp1006
g304
ag287
asg26
I00
sg27
I00
sg28
I3829153
sg20
S'9700.84461684'
p1007
sba(igraph
Edge
p1008
(dp1009
g7
I1
sg8
I00
sg9
I5
sg10
(lp1010
g287
ag280
asg26
I00
sg27
I00
sg28
I3829154
sg20
S'9702.30730442'
p1011
sba(igraph
Edge
p1012
(dp1013
g7
I1
sg8
I00
sg9
I5
sg10
(lp1014
g280
ag263
asg26
I00
sg27
I00
sg28
I3829155
sg20
S'9703.92181911'
p1015
sba(igraph
Edge
p1016
(dp1017
g7
I1
sg8
I00
sg9
I5
sg10
(lp1018
g263
ag256
asg26
I00
sg27
I00
sg28
I3829156
sg20
S'9706.14372022'
p1019
sba(igraph
Edge
p1020
(dp1021
g7
I1
sg8
I00
sg9
I5
sg10
(lp1022
g256
ag239
asg26
I00
sg27
I00
sg28
I3829157
sg20
S'9708.03708488'
p1023
sba(igraph
Edge
p1024
(dp1025
g7
I1
sg8
I00
sg9
I5
sg10
(lp1026
g239
ag232
asg26
I00
sg27
I00
sg28
I3829158
sg20
S'9709.78591888'
p1027
sba(igraph
Edge
p1028
(dp1029
g7
I1
sg8
I00
sg9
I5
sg10
(lp1030
g232
ag215
asg26
I00
sg27
I00
sg28
I3829159
sg20
S'9711.58149458'
p1031
sba(igraph
Edge
p1032
(dp1033
g7
I1
sg8
I00
sg9
I5
sg10
(lp1034
g215
ag208
asg26
I00
sg27
I00
sg28
I3829160
sg20
S'9713.44505182'
p1035
sba(igraph
Edge
p1036
(dp1037
g7
I1
sg8
I00
sg9
I5
sg10
(lp1038
g208
ag191
asg26
I00
sg27
I00
sg28
I3829161
sg20
S'9715.69612702'
p1039
sba(igraph
Edge
p1040
(dp1041
g7
I1
sg8
I00
sg9
I5
sg10
(lp1042
g191
ag184
asg26
I00
sg27
I00
sg28
I3829162
sg20
S'9717.62501491'
p1043
sba(igraph
Edge
p1044
(dp1045
g7
I1
sg8
I00
sg9
I5
sg10
(lp1046
g184
ag167
asg26
I00
sg27
I00
sg28
I3829163
sg20
S'9719.21160958'
p1047
sba(igraph
Edge
p1048
(dp1049
g7
I1
sg8
I00
sg9
I5
sg10
(lp1050
g167
ag160
asg26
I00
sg27
I00
sg28
I3829164
sg20
S'9720.98192117'
p1051
sba(igraph
Edge
p1052
(dp1053
g7
I1
sg8
I00
sg9
I5
sg10
(lp1054
g160
ag143
asg26
I00
sg27
I00
sg28
I3829165
sg20
S'9751.12544611'
p1055
sba(igraph
Edge
p1056
(dp1057
g7
I1
sg8
I00
sg9
I5
sg10
(lp1058
g143
ag136
asg26
I00
sg27
I00
sg28
I3829166
sg20
S'9752.81212333'
p1059
sba(igraph
Edge
p1060
(dp1061
g7
I1
sg8
I00
sg9
I5
sg10
(lp1062
g136
ag119
asg26
I00
sg27
I00
sg28
I3829167
sg20
S'9754.49222401'
p1063
sba(igraph
Edge
p1064
(dp1065
g7
I1
sg8
I00
sg9
I5
sg10
(lp1066
g119
ag112
asg26
I00
sg27
I00
sg28
I3829168
sg20
S'9756.11086074'
p1067
sba(igraph
Edge
p1068
(dp1069
g7
I1
sg8
I00
sg9
I5
sg10
(lp1070
g112
ag95
asg26
I00
sg27
I00
sg28
I3829169
sg20
S'9759.05387249'
p1071
sba(igraph
Edge
p1072
(dp1073
g7
I1
sg8
I00
sg9
I5
sg10
(lp1074
g95
ag88
asg26
I00
sg27
I00
sg28
I3829170
sg20
S'9761.35828632'
p1075
sba(igraph
Edge
p1076
(dp1077
g7
I1
sg8
I00
sg9
I5
sg10
(lp1078
g88
ag71
asg26
I00
sg27
I00
sg28
I3829171
sg20
S'9762.66540021'
p1079
sba(igraph
Edge
p1080
(dp1081
g7
I1
sg8
I00
sg9
I5
sg10
(lp1082
g71
ag64
asg26
I00
sg27
I00
sg28
I3829172
sg20
S'9764.3218004'
p1083
sba(igraph
Edge
p1084
(dp1085
g7
I1
sg8
I00
sg9
I5
sg10
(lp1086
g64
ag47
asg26
I00
sg27
I00
sg28
I3829173
sg20
S'9765.79460742'
p1087
sba(igraph
Edge
p1088
(dp1089
g7
I1
sg8
I00
sg9
I5
sg10
(lp1090
g47
ag40
asg26
I00
sg27
I00
sg28
I3829174
sg20
S'9767.74169035'
p1091
sba(igraph
Edge
p1092
(dp1093
g7
I1
sg8
I00
sg9
I5
sg10
(lp1094
g40
ag12
asg26
I00
sg27
I00
sg28
I3829175
sg20
S'9769.81029321'
p1095
sba(igraph
Edge
p1096
(dp1097
g7
I1
sg8
I00
sg9
I5
sg10
(lp1098
g12
ag448
asg26
I00
sg27
I00
sg28
I3829176
sg20
S'9772.54539082'
p1099
sbasS'vertices'
p1100
(lp1101
g12
ag23
ag33
ag40
ag47
ag50
ag57
ag64
ag71
ag74
ag81
ag88
ag95
ag98
ag105
ag112
ag119
ag122
ag129
ag136
ag143
ag146
ag153
ag160
ag167
ag170
ag177
ag184
ag191
ag194
ag201
ag208
ag215
ag218
ag225
ag232
ag239
ag242
ag249
ag256
ag263
ag266
ag273
ag280
ag287
ag290
ag297
ag304
ag311
ag314
ag321
ag328
ag335
ag338
ag345
ag352
ag359
ag362
ag369
ag376
ag383
ag386
ag393
ag400
ag407
ag410
ag417
ag424
ag431
ag434
ag441
ag448
asS'tags'
p1102
(lp1103
sb.