(igraph
Graph
p0
(dp1
S'labelingConstraints'
p2
I-1
sS'edges'
p3
(lp4
(igraph
Edge
p5
(dp6
S'direction'
p7
I1
sS'selected'
p8
I00
sS'height'
p9
I5
sS'vs'
p10
(lp11
(igraph
Vertex
p12
(dp13
S'xnorm'
p14
F0.0
sg8
I00
sS'label'
p15
S'NULL'
p16
sS'y'
p17
F-308.0
sS'x'
p18
F413.0
sS'circle'
p19
I3094192
sS'id'
p20
S'8037.89351635'
p21
sS'ynorm'
p22
F0.0
sba(igraph
Vertex
p23
(dp24
g14
F0.10000000000000002
sg8
I00
sg15
g16
sg17
F-308.0
sg18
F321.5
sg19
I3094193
sg20
S'8037.89354038'
p25
sg22
F0.0
sbasS'wrap'
p26
I00
sS'curved'
p27
I00
sS'line'
p28
I3093597
sg20
S'8038.05982883'
p29
sba(igraph
Edge
p30
(dp31
g7
I1
sg8
I00
sg9
I5
sg10
(lp32
g23
a(igraph
Vertex
p33
(dp34
g14
F0.20000000000000004
sg8
I00
sg15
g16
sg17
F-308.0
sg18
F229.99999999999997
sg19
I3094194
sg20
S'8037.89356357'
p35
sg22
F0.0
sbasg26
I00
sg27
I00
sg28
I3093598
sg20
S'8038.05988806'
p36
sba(igraph
Edge
p37
(dp38
g7
I1
sg8
I00
sg9
I5
sg10
(lp39
g33
a(igraph
Vertex
p40
(dp41
g14
F0.3000000000000001
sg8
I00
sg15
g16
sg17
F-308.0
sg18
F138.49999999999989
sg19
I3094195
sg20
S'8037.8935915'
p42
sg22
F0.0
sbasg26
I00
sg27
I00
sg28
I3093599
sg20
S'8038.05996628'
p43
sba(igraph
Edge
p44
(dp45
g7
I1
sg8
I00
sg9
I5
sg10
(lp46
g40
a(igraph
Vertex
p47
(dp48
g14
F0.40000000000000008
sg8
I00
sg15
g16
sg17
F-308.0
sg18
F46.999999999999943
sg19
I3094196
sg20
S'8037.89362559'
p49
sg22
F0.0
sbasg26
I00
sg27
I00
sg28
I3093600
sg20
S'8038.06006629'
p50
sba(igraph
Edge
p51
(dp52
g7
I1
sg8
I00
sg9
I5
sg10
(lp53
g47
a(igraph
Vertex
p54
(dp55
g14
F0.50000000000000022
sg8
I00
sg15
g16
sg17
F-308.0
sg18
F-44.500000000000227
sg19
I3094197
sg20
S'8037.89366721'
p56
sg22
F0.0
sbasg26
I00
sg27
I00
sg28
I3093601
sg20
S'8038.06018642'
p57
sba(igraph
Edge
p58
(dp59
g7
I1
sg8
I00
sg9
I5
sg10
(lp60
g54
a(igraph
Vertex
p61
(dp62
g14
F0.59999999999999998
sg8
I00
sg15
g16
sg17
F-308.0
sg18
F-136.0
sg19
I3094198
sg20
S'8037.89371694'
p63
sg22
F0.0
sbasg26
I00
sg27
I00
sg28
I3093602
sg20
S'8038.06032973'
p64
sba(igraph
Edge
p65
(dp66
g7
I1
sg8
I00
sg9
I5
sg10
(lp67
g61
a(igraph
Vertex
p68
(dp69
g14
F0.70000000000000007
sg8
I00
sg15
g16
sg17
F-308.0
sg18
F-227.50000000000011
sg19
I3094199
sg20
S'8037.89377281'
p70
sg22
F0.0
sbasg26
I00
sg27
I00
sg28
I3093603
sg20
S'8038.06049372'
p71
sba(igraph
Edge
p72
(dp73
g7
I1
sg8
I00
sg9
I5
sg10
(lp74
g68
a(igraph
Vertex
p75
(dp76
g14
F0.80000000000000004
sg8
I00
sg15
g16
sg17
F-308.0
sg18
F-319.0
sg19
I3094200
sg20
S'8037.89383623'
p77
sg22
F0.0
sbasg26
I00
sg27
I00
sg28
I3093604
sg20
S'8038.06068062'
p78
sba(igraph
Edge
p79
(dp80
g7
I1
sg8
I00
sg9
I5
sg10
(lp81
g75
a(igraph
Vertex
p82
(dp83
g14
F0.90000000000000002
sg8
I00
sg15
g16
sg17
F-308.0
sg18
F-410.5
sg19
I3094201
sg20
S'8037.89390775'
p84
sg22
F0.0
sbasg26
I00
sg27
I00
sg28
I3093605
sg20
S'8038.06088819'
p85
sba(igraph
Edge
p86
(dp87
g7
I1
sg8
I00
sg9
I5
sg10
(lp88
g82
a(igraph
Vertex
p89
(dp90
g14
F1.0
sg8
I00
sg15
g16
sg17
F-308.0
sg18
F-502.0
sg19
I3094202
sg20
S'8037.89398653'
p91
sg22
F0.0
sbasg26
I00
sg27
I00
sg28
I3093606
sg20
S'8038.06111838'
p92
sba(igraph
Edge
p93
(dp94
g7
I1
sg8
I00
sg9
I5
sg10
(lp95
g89
ag12
asg26
I00
sg27
I00
sg28
I3093607
sg20
S'8038.06136981'
p96
sba(igraph
Edge
p97
(dp98
g7
I1
sg8
I00
sg9
I5
sg10
(lp99
(igraph
Vertex
p100
(dp101
g14
F0.0
sg8
I00
sg15
g16
sg17
F-270.91935483870969
sg18
F413.0
sg19
I3094203
sg20
S'8037.89407313'
p102
sg22
F0.0591397849462365
sba(igraph
Vertex
p103
(dp104
g14
F0.10000000000000002
sg8
I00
sg15
g16
sg17
F-270.91935483870969
sg18
F321.5
sg19
I3094204
sg20
S'8037.89416755'
p105
sg22
F0.0591397849462365
sbasg26
I00
sg27
I00
sg28
I3093608
sg20
S'8038.06164303'
p106
sba(igraph
Edge
p107
(dp108
g7
I1
sg8
I00
sg9
I5
sg10
(lp109
g103
a(igraph
Vertex
p110
(dp111
g14
F0.20000000000000004
sg8
I01
sg15
I0
sg17
F-270.91935483870969
sg18
F229.99999999999997
sg19
I3094206
sg20
S'8037.89426924'
p112
sg22
F0.0591397849462365
sbasg26
I00
sg27
I00
sg28
I3093609
sg20
S'8038.06193748'
p113
sba(igraph
Edge
p114
(dp115
g7
I1
sg8
I00
sg9
I5
sg10
(lp116
g110
a(igraph
Vertex
p117
(dp118
g14
F0.3000000000000001
sg8
I00
sg15
g16
sg17
F-270.91935483870969
sg18
F138.49999999999989
sg19
I3094208
sg20
S'8037.89437903'
p119
sg22
F0.0591397849462365
sbasg26
I00
sg27
I00
sg28
I3093610
sg20
S'8038.06225512'
p120
sba(igraph
Edge
p121
(dp122
g7
I1
sg8
I00
sg9
I5
sg10
(lp123
g117
a(igraph
Vertex
p124
(dp125
g14
F0.40000000000000008
sg8
I00
sg15
g16
sg17
F-270.91935483870969
sg18
F46.999999999999943
sg19
I3094209
sg20
S'8037.89449693'
p126
sg22
F0.0591397849462365
sbasg26
I00
sg27
I00
sg28
I3093611
sg20
S'8038.06259371'
p127
sba(igraph
Edge
p128
(dp129
g7
I1
sg8
I00
sg9
I5
sg10
(lp130
g124
a(igraph
Vertex
p131
(dp132
g14
F0.50000000000000022
sg8
I00
sg15
g16
sg17
F-270.91935483870969
sg18
F-44.500000000000227
sg19
I3094210
sg20
S'8037.89473634'
p133
sg22
F0.0591397849462365
sbasg26
I00
sg27
I00
sg28
I3093612
sg20
S'8038.06295409'
p134
sba(igraph
Edge
p135
(dp136
g7
I1
sg8
I00
sg9
I5
sg10
(lp137
g131
a(igraph
Vertex
p138
(dp139
g14
F0.59999999999999998
sg8
I00
sg15
g16
sg17
F-270.91935483870969
sg18
F-136.0
sg19
I3094211
sg20
S'8037.89487435'
p140
sg22
F0.0591397849462365
sbasg26
I00
sg27
I00
sg28
I3093613
sg20
S'8038.06333626'
p141
sba(igraph
Edge
p142
(dp143
g7
I1
sg8
I00
sg9
I5
sg10
(lp144
g138
a(igraph
Vertex
p145
(dp146
g14
F0.70000000000000007
sg8
I00
sg15
g16
sg17
F-270.91935483870969
sg18
F-227.50000000000011
sg19
I3094212
sg20
S'8037.8950199'
p147
sg22
F0.0591397849462365
sbasg26
I00
sg27
I00
sg28
I3093614
sg20
S'8038.06373994'
p148
sba(igraph
Edge
p149
(dp150
g7
I1
sg8
I00
sg9
I5
sg10
(lp151
g145
a(igraph
Vertex
p152
(dp153
g14
F0.80000000000000004
sg8
I00
sg15
g16
sg17
F-270.91935483870969
sg18
F-319.0
sg19
I3094213
sg20
S'8037.89517215'
p154
sg22
F0.0591397849462365
sbasg26
I00
sg27
I00
sg28
I3093615
sg20
S'8038.06416654'
p155
sba(igraph
Edge
p156
(dp157
g7
I1
sg8
I00
sg9
I5
sg10
(lp158
g152
a(igraph
Vertex
p159
(dp160
g14
F0.90000000000000002
sg8
I00
sg15
g16
sg17
F-270.91935483870969
sg18
F-410.5
sg19
I3094214
sg20
S'8037.89532832'
p161
sg22
F0.0591397849462365
sbasg26
I00
sg27
I00
sg28
I3093616
sg20
S'8038.06461436'
p162
sba(igraph
Edge
p163
(dp164
g7
I1
sg8
I00
sg9
I5
sg10
(lp165
g159
a(igraph
Vertex
p166
(dp167
g14
F1.0
sg8
I00
sg15
g16
sg17
F-270.91935483870969
sg18
F-502.0
sg19
I3094215
sg20
S'8037.89549426'
p168
sg22
F0.0591397849462365
sbasg26
I00
sg27
I00
sg28
I3093617
sg20
S'8038.06508425'
p169
sba(igraph
Edge
p170
(dp171
g7
I1
sg8
I00
sg9
I5
sg10
(lp172
g166
ag100
asg26
I00
sg27
I00
sg28
I3093618
sg20
S'8038.06557454'
p173
sba(igraph
Edge
p174
(dp175
g7
I1
sg8
I00
sg9
I5
sg10
(lp176
(igraph
Vertex
p177
(dp178
g14
F0.0
sg8
I00
sg15
g16
sg17
F-233.83870967741933
sg18
F413.0
sg19
I3094216
sg20
S'8037.89567222'
p179
sg22
F0.11827956989247314
sba(igraph
Vertex
p180
(dp181
g14
F0.10000000000000002
sg8
I01
sg15
I0
sg17
F-233.83870967741933
sg18
F321.5
sg19
I3094218
sg20
S'8037.89585324'
p182
sg22
F0.11827956989247314
sbasg26
I00
sg27
I00
sg28
I3093619
sg20
S'8038.06608717'
p183
sba(igraph
Edge
p184
(dp185
g7
I1
sg8
I00
sg9
I5
sg10
(lp186
g180
a(igraph
Vertex
p187
(dp188
g14
F0.20000000000000004
sg8
I00
sg15
g16
sg17
F-233.83870967741933
sg18
F229.99999999999997
sg19
I3094220
sg20
S'8037.89604349'
p189
sg22
F0.11827956989247314
sbasg26
I00
sg27
I00
sg28
I3093620
sg20
S'8038.06662215'
p190
sba(igraph
Edge
p191
(dp192
g7
I1
sg8
I00
sg9
I5
sg10
(lp193
g187
a(igraph
Vertex
p194
(dp195
g14
F0.3000000000000001
sg8
I00
sg15
g16
sg17
F-233.83870967741933
sg18
F138.49999999999989
sg19
I3094221
sg20
S'8037.89624072'
p196
sg22
F0.11827956989247314
sbasg26
I00
sg27
I00
sg28
I3093621
sg20
S'8038.06717781'
p197
sba(igraph
Edge
p198
(dp199
g7
I1
sg8
I00
sg9
I5
sg10
(lp200
g194
a(igraph
Vertex
p201
(dp202
g14
F0.40000000000000008
sg8
I00
sg15
g16
sg17
F-233.83870967741933
sg18
F46.999999999999943
sg19
I3094222
sg20
S'8037.89644634'
p203
sg22
F0.11827956989247314
sbasg26
I00
sg27
I00
sg28
I3093622
sg20
S'8038.0677547'
p204
sba(igraph
Edge
p205
(dp206
g7
I1
sg8
I00
sg9
I5
sg10
(lp207
g201
a(igraph
Vertex
p208
(dp209
g14
F0.50000000000000022
sg8
I00
sg15
g16
sg17
F-233.83870967741933
sg18
F-44.500000000000227
sg19
I3094223
sg20
S'8037.89666145'
p210
sg22
F0.11827956989247314
sbasg26
I00
sg27
I00
sg28
I3093623
sg20
S'8038.06835478'
p211
sba(igraph
Edge
p212
(dp213
g7
I1
sg8
I00
sg9
I5
sg10
(lp214
g208
a(igraph
Vertex
p215
(dp216
g14
F0.59999999999999998
sg8
I00
sg15
g16
sg17
F-233.83870967741933
sg18
F-136.0
sg19
I3094224
sg20
S'8037.89688298'
p217
sg22
F0.11827956989247314
sbasg26
I00
sg27
I00
sg28
I3093624
sg20
S'8038.06897664'
p218
sba(igraph
Edge
p219
(dp220
g7
I1
sg8
I00
sg9
I5
sg10
(lp221
g215
a(igraph
Vertex
p222
(dp223
g14
F0.70000000000000007
sg8
I00
sg15
g16
sg17
F-233.83870967741933
sg18
F-227.50000000000011
sg19
I3094225
sg20
S'8037.89711206'
p224
sg22
F0.11827956989247314
sbasg26
I00
sg27
I00
sg28
I3093625
sg20
S'8038.0700712'
p225
sba(igraph
Edge
p226
(dp227
g7
I1
sg8
I00
sg9
I5
sg10
(lp228
g222
a(igraph
Vertex
p229
(dp230
g14
F0.80000000000000004
sg8
I00
sg15
g16
sg17
F-233.83870967741933
sg18
F-319.0
sg19
I3094226
sg20
S'8037.89734701'
p231
sg22
F0.11827956989247314
sbasg26
I00
sg27
I00
sg28
I3093626
sg20
S'8038.07074139'
p232
sba(igraph
Edge
p233
(dp234
g7
I1
sg8
I00
sg9
I5
sg10
(lp235
g229
a(igraph
Vertex
p236
(dp237
g14
F0.90000000000000002
sg8
I00
sg15
g16
sg17
F-233.83870967741933
sg18
F-410.5
sg19
I3094227
sg20
S'8037.89759062'
p238
sg22
F0.11827956989247314
sbasg26
I00
sg27
I00
sg28
I3093627
sg20
S'8038.07142668'
p239
sba(igraph
Edge
p240
(dp241
g7
I1
sg8
I00
sg9
I5
sg10
(lp242
g236
a(igraph
Vertex
p243
(dp244
g14
F1.0
sg8
I00
sg15
g16
sg17
F-233.83870967741933
sg18
F-502.0
sg19
I3094228
sg20
S'8037.8978426'
p245
sg22
F0.11827956989247314
sbasg26
I00
sg27
I00
sg28
I3093628
sg20
S'8038.07213487'
p246
sba(igraph
Edge
p247
(dp248
g7
I1
sg8
I00
sg9
I5
sg10
(lp249
g243
ag177
asg26
I00
sg27
I00
sg28
I3093629
sg20
S'8038.07286429'
p250
sba(igraph
Edge
p251
(dp252
g7
I1
sg8
I00
sg9
I5
sg10
(lp253
(igraph
Vertex
p254
(dp255
g14
F0.0
sg8
I00
sg15
g16
sg17
F-196.75806451612902
sg18
F413.0
sg19
I3094229
sg20
S'8037.89810185'
p256
sg22
F0.17741935483870971
sba(igraph
Vertex
p257
(dp258
g14
F0.10000000000000002
sg8
I00
sg15
g16
sg17
F-196.75806451612902
sg18
F321.5
sg19
I3094230
sg20
S'8037.89836753'
p259
sg22
F0.17741935483870971
sbasg26
I00
sg27
I00
sg28
I3093630
sg20
S'8038.07361606'
p260
sba(igraph
Edge
p261
(dp262
g7
I1
sg8
I00
sg9
I5
sg10
(lp263
g257
a(igraph
Vertex
p264
(dp265
g14
F0.20000000000000004
sg8
I00
sg15
g16
sg17
F-196.75806451612902
sg18
F229.99999999999997
sg19
I3094231
sg20
S'8037.89864382'
p266
sg22
F0.17741935483870971
sbasg26
I00
sg27
I00
sg28
I3093631
sg20
S'8038.074417'
p267
sba(igraph
Edge
p268
(dp269
g7
I1
sg8
I00
sg9
I5
sg10
(lp270
g264
a(igraph
Vertex
p271
(dp272
g14
F0.3000000000000001
sg8
I01
sg15
I0
sg17
F-196.75806451612902
sg18
F138.49999999999989
sg19
I3094233
sg20
S'8037.8989285'
p273
sg22
F0.17741935483870971
sbasg26
I00
sg27
I00
sg28
I3093632
sg20
S'8038.07522409'
p274
sba(igraph
Edge
p275
(dp276
g7
I1
sg8
I00
sg9
I5
sg10
(lp277
g271
a(igraph
Vertex
p278
(dp279
g14
F0.40000000000000008
sg8
I00
sg15
g16
sg17
F-196.75806451612902
sg18
F46.999999999999943
sg19
I3094235
sg20
S'8037.89921931'
p280
sg22
F0.17741935483870971
sbasg26
I00
sg27
I00
sg28
I3093633
sg20
S'8038.07604123'
p281
sba(igraph
Edge
p282
(dp283
g7
I1
sg8
I00
sg9
I5
sg10
(lp284
g278
a(igraph
Vertex
p285
(dp286
g14
F0.50000000000000022
sg8
I00
sg15
g16
sg17
F-196.75806451612902
sg18
F-44.500000000000227
sg19
I3094236
sg20
S'8037.89951963'
p287
sg22
F0.17741935483870971
sbasg26
I00
sg27
I00
sg28
I3093634
sg20
S'8038.07689357'
p288
sba(igraph
Edge
p289
(dp290
g7
I1
sg8
I00
sg9
I5
sg10
(lp291
g285
a(igraph
Vertex
p292
(dp293
g14
F0.59999999999999998
sg8
I00
sg15
g16
sg17
F-196.75806451612902
sg18
F-136.0
sg19
I3094237
sg20
S'8037.89982637'
p294
sg22
F0.17741935483870971
sbasg26
I00
sg27
I00
sg28
I3093635
sg20
S'8038.07775849'
p295
sba(igraph
Edge
p296
(dp297
g7
I1
sg8
I00
sg9
I5
sg10
(lp298
g292
a(igraph
Vertex
p299
(dp300
g14
F0.70000000000000007
sg8
I00
sg15
g16
sg17
F-196.75806451612902
sg18
F-227.50000000000011
sg19
I3094238
sg20
S'8037.90014178'
p301
sg22
F0.17741935483870971
sbasg26
I00
sg27
I00
sg28
I3093636
sg20
S'8038.07864491'
p302
sba(igraph
Edge
p303
(dp304
g7
I1
sg8
I00
sg9
I5
sg10
(lp305
g299
a(igraph
Vertex
p306
(dp307
g14
F0.80000000000000004
sg8
I00
sg15
g16
sg17
F-196.75806451612902
sg18
F-319.0
sg19
I3094239
sg20
S'8037.90055384'
p308
sg22
F0.17741935483870971
sbasg26
I00
sg27
I00
sg28
I3093637
sg20
S'8038.07955313'
p309
sba(igraph
Edge
p310
(dp311
g7
I1
sg8
I00
sg9
I5
sg10
(lp312
g306
a(igraph
Vertex
p313
(dp314
g14
F0.90000000000000002
sg8
I00
sg15
g16
sg17
F-196.75806451612902
sg18
F-410.5
sg19
I3094240
sg20
S'8037.9008969'
p315
sg22
F0.17741935483870971
sbasg26
I00
sg27
I00
sg28
I3093638
sg20
S'8038.08053482'
p316
sba(igraph
Edge
p317
(dp318
g7
I1
sg8
I00
sg9
I5
sg10
(lp319
g313
a(igraph
Vertex
p320
(dp321
g14
F1.0
sg8
I00
sg15
g16
sg17
F-196.75806451612902
sg18
F-502.0
sg19
I3094241
sg20
S'8037.9012489'
p322
sg22
F0.17741935483870971
sbasg26
I00
sg27
I00
sg28
I3093639
sg20
S'8038.08154724'
p323
sba(igraph
Edge
p324
(dp325
g7
I1
sg8
I00
sg9
I5
sg10
(lp326
g320
ag254
asg26
I00
sg27
I00
sg28
I3093640
sg20
S'8038.08251999'
p327
sba(igraph
Edge
p328
(dp329
g7
I1
sg8
I00
sg9
I5
sg10
(lp330
(igraph
Vertex
p331
(dp332
g14
F0.0
sg8
I00
sg15
g16
sg17
F-159.67741935483869
sg18
F413.0
sg19
I3094242
sg20
S'8037.90160565'
p333
sg22
F0.23655913978494628
sba(igraph
Vertex
p334
(dp335
g14
F0.10000000000000002
sg8
I00
sg15
g16
sg17
F-159.67741935483869
sg18
F321.5
sg19
I3094243
sg20
S'8037.90196268'
p336
sg22
F0.23655913978494628
sbasg26
I00
sg27
I00
sg28
I3093641
sg20
S'8038.08351117'
p337
sba(igraph
Edge
p338
(dp339
g7
I1
sg8
I00
sg9
I5
sg10
(lp340
g334
a(igraph
Vertex
p341
(dp342
g14
F0.20000000000000004
sg8
I00
sg15
g16
sg17
F-159.67741935483869
sg18
F229.99999999999997
sg19
I3094244
sg20
S'8037.90233535'
p343
sg22
F0.23655913978494628
sbasg26
I00
sg27
I00
sg28
I3093642
sg20
S'8038.0845208'
p344
sba(igraph
Edge
p345
(dp346
g7
I1
sg8
I00
sg9
I5
sg10
(lp347
g341
a(igraph
Vertex
p348
(dp349
g14
F0.3000000000000001
sg8
I00
sg15
g16
sg17
F-159.67741935483869
sg18
F138.49999999999989
sg19
I3094245
sg20
S'8037.90273568'
p350
sg22
F0.23655913978494628
sbasg26
I00
sg27
I00
sg28
I3093643
sg20
S'8038.08555417'
p351
sba(igraph
Edge
p352
(dp353
g7
I1
sg8
I00
sg9
I5
sg10
(lp354
g348
a(igraph
Vertex
p355
(dp356
g14
F0.40000000000000008
sg8
I00
sg15
g16
sg17
F-159.67741935483869
sg18
F46.999999999999943
sg19
I3094246
sg20
S'8037.90312316'
p357
sg22
F0.23655913978494628
sbasg26
I00
sg27
I00
sg28
I3093644
sg20
S'8038.0866856'
p358
sba(igraph
Edge
p359
(dp360
g7
I1
sg8
I00
sg9
I5
sg10
(lp361
g355
a(igraph
Vertex
p362
(dp363
g14
F0.50000000000000022
sg8
I00
sg15
g16
sg17
F-159.67741935483869
sg18
F-44.500000000000227
sg19
I3094247
sg20
S'8037.90351791'
p364
sg22
F0.23655913978494628
sbasg26
I00
sg27
I00
sg28
I3093645
sg20
S'8038.08778602'
p365
sba(igraph
Edge
p366
(dp367
g7
I1
sg8
I00
sg9
I5
sg10
(lp368
g362
a(igraph
Vertex
p369
(dp370
g14
F0.59999999999999998
sg8
I00
sg15
g16
sg17
F-159.67741935483869
sg18
F-136.0
sg19
I3094248
sg20
S'8037.90391656'
p371
sg22
F0.23655913978494628
sbasg26
I00
sg27
I00
sg28
I3093646
sg20
S'8038.08889789'
p372
sba(igraph
Edge
p373
(dp374
g7
I1
sg8
I00
sg9
I5
sg10
(lp375
g369
a(igraph
Vertex
p376
(dp377
g14
F0.70000000000000007
sg8
I00
sg15
g16
sg17
F-159.67741935483869
sg18
F-227.50000000000011
sg19
I3094249
sg20
S'8037.90432331'
p378
sg22
F0.23655913978494628
sbasg26
I00
sg27
I00
sg28
I3093647
sg20
S'8038.09002429'
p379
sba(igraph
Edge
p380
(dp381
g7
I1
sg8
I00
sg9
I5
sg10
(lp382
g376
a(igraph
Vertex
p383
(dp384
g14
F0.80000000000000004
sg8
I00
sg15
g16
sg17
F-159.67741935483869
sg18
F-319.0
sg19
I3094250
sg20
S'8037.90473901'
p385
sg22
F0.23655913978494628
sbasg26
I00
sg27
I00
sg28
I3093648
sg20
S'8038.09117192'
p386
sba(igraph
Edge
p387
(dp388
g7
I1
sg8
I00
sg9
I5
sg10
(lp389
g383
a(igraph
Vertex
p390
(dp391
g14
F0.90000000000000002
sg8
I00
sg15
g16
sg17
F-159.67741935483869
sg18
F-410.5
sg19
I3094251
sg20
S'8037.90516057'
p392
sg22
F0.23655913978494628
sbasg26
I00
sg27
I00
sg28
I3093649
sg20
S'8038.09235112'
p393
sba(igraph
Edge
p394
(dp395
g7
I1
sg8
I00
sg9
I5
sg10
(lp396
g390
a(igraph
Vertex
p397
(dp398
g14
F1.0
sg8
I00
sg15
g16
sg17
F-159.67741935483869
sg18
F-502.0
sg19
I3094252
sg20
S'8037.90559331'
p399
sg22
F0.23655913978494628
sbasg26
I00
sg27
I00
sg28
I3093650
sg20
S'8038.09356664'
p400
sba(igraph
Edge
p401
(dp402
g7
I1
sg8
I00
sg9
I5
sg10
(lp403
g397
ag331
asg26
I00
sg27
I00
sg28
I3093651
sg20
S'8038.09477434'
p404
sba(igraph
Edge
p405
(dp406
g7
I1
sg8
I00
sg9
I5
sg10
(lp407
(igraph
Vertex
p408
(dp409
g14
F0.0
sg8
I00
sg15
g16
sg17
F-122.59677419354841
sg18
F413.0
sg19
I3094253
sg20
S'8037.90603331'
p410
sg22
F0.29569892473118276
sba(igraph
Vertex
p411
(dp412
g14
F0.10000000000000002
sg8
I00
sg15
g16
sg17
F-122.59677419354841
sg18
F321.5
sg19
I3094254
sg20
S'8037.90650627'
p413
sg22
F0.29569892473118276
sbasg26
I00
sg27
I00
sg28
I3093652
sg20
S'8038.09599768'
p414
sba(igraph
Edge
p415
(dp416
g7
I1
sg8
I00
sg9
I5
sg10
(lp417
g411
a(igraph
Vertex
p418
(dp419
g14
F0.20000000000000004
sg8
I00
sg15
g16
sg17
F-122.59677419354841
sg18
F229.99999999999997
sg19
I3094255
sg20
S'8037.90697896'
p420
sg22
F0.29569892473118276
sbasg26
I00
sg27
I00
sg28
I3093653
sg20
S'8038.09723945'
p421
sba(igraph
Edge
p422
(dp423
g7
I1
sg8
I00
sg9
I5
sg10
(lp424
g418
a(igraph
Vertex
p425
(dp426
g14
F0.3000000000000001
sg8
I00
sg15
g16
sg17
F-122.59677419354841
sg18
F138.49999999999989
sg19
I3094256
sg20
S'8037.907455'
p427
sg22
F0.29569892473118276
sbasg26
I00
sg27
I00
sg28
I3093654
sg20
S'8038.09860248'
p428
sba(igraph
Edge
p429
(dp430
g7
I1
sg8
I00
sg9
I5
sg10
(lp431
g425
a(igraph
Vertex
p432
(dp433
g14
F0.40000000000000008
sg8
I01
sg15
I0
sg17
F-122.59677419354841
sg18
F46.999999999999943
sg19
I3094258
sg20
S'8037.90793299'
p434
sg22
F0.29569892473118276
sbasg26
I00
sg27
I00
sg28
I3093655
sg20
S'8038.09991801'
p435
sba(igraph
Edge
p436
(dp437
g7
I1
sg8
I00
sg9
I5
sg10
(lp438
g432
a(igraph
Vertex
p439
(dp440
g14
F0.50000000000000022
sg8
I00
sg15
g16
sg17
F-122.59677419354841
sg18
F-44.500000000000227
sg19
I3094260
sg20
S'8037.90842188'
p441
sg22
F0.29569892473118276
sbasg26
I00
sg27
I00
sg28
I3093656
sg20
S'8038.10126706'
p442
sba(igraph
Edge
p443
(dp444
g7
I1
sg8
I00
sg9
I5
sg10
(lp445
g439
a(igraph
Vertex
p446
(dp447
g14
F0.59999999999999998
sg8
I00
sg15
g16
sg17
F-122.59677419354841
sg18
F-136.0
sg19
I3094261
sg20
S'8037.90891217'
p448
sg22
F0.29569892473118276
sbasg26
I00
sg27
I00
sg28
I3093657
sg20
S'8038.1026502'
p449
sba(igraph
Edge
p450
(dp451
g7
I1
sg8
I00
sg9
I5
sg10
(lp452
g446
a(igraph
Vertex
p453
(dp454
g14
F0.70000000000000007
sg8
I00
sg15
g16
sg17
F-122.59677419354841
sg18
F-227.50000000000011
sg19
I3094262
sg20
S'8037.90941614'
p455
sg22
F0.29569892473118276
sbasg26
I00
sg27
I00
sg28
I3093658
sg20
S'8038.10404954'
p456
sba(igraph
Edge
p457
(dp458
g7
I1
sg8
I00
sg9
I5
sg10
(lp459
g453
a(igraph
Vertex
p460
(dp461
g14
F0.80000000000000004
sg8
I00
sg15
g16
sg17
F-122.59677419354841
sg18
F-319.0
sg19
I3094263
sg20
S'8037.90992095'
p462
sg22
F0.29569892473118276
sbasg26
I00
sg27
I00
sg28
I3093659
sg20
S'8038.10543547'
p463
sba(igraph
Edge
p464
(dp465
g7
I1
sg8
I00
sg9
I5
sg10
(lp466
g460
a(igraph
Vertex
p467
(dp468
g14
F0.90000000000000002
sg8
I00
sg15
g16
sg17
F-122.59677419354841
sg18
F-410.5
sg19
I3094264
sg20
S'8037.91044225'
p469
sg22
F0.29569892473118276
sbasg26
I00
sg27
I00
sg28
I3093660
sg20
S'8038.10683118'
p470
sba(igraph
Edge
p471
(dp472
g7
I1
sg8
I00
sg9
I5
sg10
(lp473
g467
a(igraph
Vertex
p474
(dp475
g14
F1.0
sg8
I00
sg15
g16
sg17
F-122.59677419354841
sg18
F-502.0
sg19
I3094265
sg20
S'8037.91096299'
p476
sg22
F0.29569892473118276
sbasg26
I00
sg27
I00
sg28
I3093661
sg20
S'8038.10825063'
p477
sba(igraph
Edge
p478
(dp479
g7
I1
sg8
I00
sg9
I5
sg10
(lp480
g474
ag408
asg26
I00
sg27
I00
sg28
I3093662
sg20
S'8038.10971646'
p481
sba(igraph
Edge
p482
(dp483
g7
I1
sg8
I00
sg9
I5
sg10
(lp484
(igraph
Vertex
p485
(dp486
g14
F0.0
sg8
I00
sg15
g16
sg17
F-85.516129032258021
sg18
F413.0
sg19
I3094266
sg20
S'8037.91149294'
p487
sg22
F0.35483870967741943
sba(igraph
Vertex
p488
(dp489
g14
F0.10000000000000002
sg8
I00
sg15
g16
sg17
F-85.516129032258021
sg18
F321.5
sg19
I3094267
sg20
S'8037.91202541'
p490
sg22
F0.35483870967741943
sbasg26
I00
sg27
I00
sg28
I3093663
sg20
S'8038.11119905'
p491
sba(igraph
Edge
p492
(dp493
g7
I1
sg8
I00
sg9
I5
sg10
(lp494
g488
a(igraph
Vertex
p495
(dp496
g14
F0.20000000000000004
sg8
I00
sg15
g16
sg17
F-85.516129032258021
sg18
F229.99999999999997
sg19
I3094268
sg20
S'8037.91264337'
p497
sg22
F0.35483870967741943
sbasg26
I00
sg27
I00
sg28
I3093664
sg20
S'8038.11275316'
p498
sba(igraph
Edge
p499
(dp500
g7
I1
sg8
I00
sg9
I5
sg10
(lp501
g495
a(igraph
Vertex
p502
(dp503
g14
F0.3000000000000001
sg8
I00
sg15
g16
sg17
F-85.516129032258021
sg18
F138.49999999999989
sg19
I3094269
sg20
S'8037.91322361'
p504
sg22
F0.35483870967741943
sbasg26
I00
sg27
I00
sg28
I3093665
sg20
S'8038.1143028'
p505
sba(igraph
Edge
p506
(dp507
g7
I1
sg8
I00
sg9
I5
sg10
(lp508
g502
a(igraph
Vertex
p509
(dp510
g14
F0.40000000000000008
sg8
I00
sg15
g16
sg17
F-85.516129032258021
sg18
F46.999999999999943
sg19
I3094270
sg20
S'8037.91378541'
p511
sg22
F0.35483870967741943
sbasg26
I00
sg27
I00
sg28
I3093666
sg20
S'8038.11584852'
p512
sba(igraph
Edge
p513
(dp514
g7
I1
sg8
I00
sg9
I5
sg10
(lp515
g509
a(igraph
Vertex
p516
(dp517
g14
F0.50000000000000022
sg8
I00
sg15
g16
sg17
F-85.516129032258021
sg18
F-44.500000000000227
sg19
I3094271
sg20
S'8037.9143528'
p518
sg22
F0.35483870967741943
sbasg26
I00
sg27
I00
sg28
I3093667
sg20
S'8038.11743699'
p519
sba(igraph
Edge
p520
(dp521
g7
I1
sg8
I00
sg9
I5
sg10
(lp522
g516
a(igraph
Vertex
p523
(dp524
g14
F0.59999999999999998
sg8
I00
sg15
g16
sg17
F-85.516129032258021
sg18
F-136.0
sg19
I3094272
sg20
S'8037.91493444'
p525
sg22
F0.35483870967741943
sbasg26
I00
sg27
I00
sg28
I3093668
sg20
S'8038.11906737'
p526
sba(igraph
Edge
p527
(dp528
g7
I1
sg8
I00
sg9
I5
sg10
(lp529
g523
a(igraph
Vertex
p530
(dp531
g14
F0.70000000000000007
sg8
I00
sg15
g16
sg17
F-85.516129032258021
sg18
F-227.50000000000011
sg19
I3094273
sg20
S'8037.91552167'
p532
sg22
F0.35483870967741943
sbasg26
I00
sg27
I00
sg28
I3093669
sg20
S'8038.12068545'
p533
sba(igraph
Edge
p534
(dp535
g7
I1
sg8
I00
sg9
I5
sg10
(lp536
g530
a(igraph
Vertex
p537
(dp538
g14
F0.80000000000000004
sg8
I00
sg15
g16
sg17
F-85.516129032258021
sg18
F-319.0
sg19
I3094274
sg20
S'8037.91616141'
p539
sg22
F0.35483870967741943
sbasg26
I00
sg27
I00
sg28
I3093670
sg20
S'8038.12244796'
p540
sba(igraph
Edge
p541
(dp542
g7
I1
sg8
I00
sg9
I5
sg10
(lp543
g537
a(igraph
Vertex
p544
(dp545
g14
F0.90000000000000002
sg8
I00
sg15
g16
sg17
F-85.516129032258021
sg18
F-410.5
sg19
I3094275
sg20
S'8037.916764'
p546
sg22
F0.35483870967741943
sbasg26
I00
sg27
I00
sg28
I3093671
sg20
S'8038.12410935'
p547
sba(igraph
Edge
p548
(dp549
g7
I1
sg8
I00
sg9
I5
sg10
(lp550
g544
a(igraph
Vertex
p551
(dp552
g14
F1.0
sg8
I00
sg15
g16
sg17
F-85.516129032258021
sg18
F-502.0
sg19
I3094276
sg20
S'8037.91743643'
p553
sg22
F0.35483870967741943
sbasg26
I00
sg27
I00
sg28
I3093672
sg20
S'8038.12579336'
p554
sba(igraph
Edge
p555
(dp556
g7
I1
sg8
I00
sg9
I5
sg10
(lp557
g551
ag485
asg26
I00
sg27
I00
sg28
I3093673
sg20
S'8038.12748576'
p558
sba(igraph
Edge
p559
(dp560
g7
I1
sg8
I00
sg9
I5
sg10
(lp561
(igraph
Vertex
p562
(dp563
g14
F0.0
sg8
I00
sg15
g16
sg17
F-48.435483870967744
sg18
F413.0
sg19
I3094277
sg20
S'8037.9180692'
p564
sg22
F0.41397849462365588
sba(igraph
Vertex
p565
(dp566
g14
F0.10000000000000002
sg8
I00
sg15
g16
sg17
F-48.435483870967744
sg18
F321.5
sg19
I3094278
sg20
S'8037.91870391'
p567
sg22
F0.41397849462365588
sbasg26
I00
sg27
I00
sg28
I3093674
sg20
S'8038.12922592'
p568
sba(igraph
Edge
p569
(dp570
g7
I1
sg8
I00
sg9
I5
sg10
(lp571
g565
a(igraph
Vertex
p572
(dp573
g14
F0.20000000000000004
sg8
I00
sg15
g16
sg17
F-48.435483870967744
sg18
F229.99999999999997
sg19
I3094279
sg20
S'8037.91935092'
p574
sg22
F0.41397849462365588
sbasg26
I00
sg27
I00
sg28
I3093675
sg20
S'8038.13099402'
p575
sba(igraph
Edge
p576
(dp577
g7
I1
sg8
I00
sg9
I5
sg10
(lp578
g572
a(igraph
Vertex
p579
(dp580
g14
F0.3000000000000001
sg8
I00
sg15
g16
sg17
F-48.435483870967744
sg18
F138.49999999999989
sg19
I3094280
sg20
S'8037.92001777'
p581
sg22
F0.41397849462365588
sbasg26
I00
sg27
I00
sg28
I3093676
sg20
S'8038.13277079'
p582
sba(igraph
Edge
p583
(dp584
g7
I1
sg8
I00
sg9
I5
sg10
(lp585
g579
a(igraph
Vertex
p586
(dp587
g14
F0.40000000000000008
sg8
I00
sg15
g16
sg17
F-48.435483870967744
sg18
F46.999999999999943
sg19
I3094281
sg20
S'8037.92068377'
p588
sg22
F0.41397849462365588
sbasg26
I00
sg27
I00
sg28
I3093677
sg20
S'8038.13461348'
p589
sba(igraph
Edge
p590
(dp591
g7
I1
sg8
I00
sg9
I5
sg10
(lp592
g586
a(igraph
Vertex
p593
(dp594
g14
F0.50000000000000022
sg8
I01
sg15
I0
sg17
F-48.435483870967744
sg18
F-44.500000000000227
sg19
I3094283
sg20
S'8037.92135006'
p595
sg22
F0.41397849462365588
sbasg26
I00
sg27
I00
sg28
I3093678
sg20
S'8038.13644388'
p596
sba(igraph
Edge
p597
(dp598
g7
I1
sg8
I00
sg9
I5
sg10
(lp599
g593
a(igraph
Vertex
p600
(dp601
g14
F0.59999999999999998
sg8
I00
sg15
g16
sg17
F-48.435483870967744
sg18
F-136.0
sg19
I3094285
sg20
S'8037.92202948'
p602
sg22
F0.41397849462365588
sbasg26
I00
sg27
I00
sg28
I3093679
sg20
S'8038.13825472'
p603
sba(igraph
Edge
p604
(dp605
g7
I1
sg8
I00
sg9
I5
sg10
(lp606
g600
a(igraph
Vertex
p607
(dp608
g14
F0.70000000000000007
sg8
I00
sg15
g16
sg17
F-48.435483870967744
sg18
F-227.50000000000011
sg19
I3094286
sg20
S'8037.92271057'
p609
sg22
F0.41397849462365588
sbasg26
I00
sg27
I00
sg28
I3093680
sg20
S'8038.14013848'
p610
sba(igraph
Edge
p611
(dp612
g7
I1
sg8
I00
sg9
I5
sg10
(lp613
g607
a(igraph
Vertex
p614
(dp615
g14
F0.80000000000000004
sg8
I00
sg15
g16
sg17
F-48.435483870967744
sg18
F-319.0
sg19
I3094287
sg20
S'8037.92340842'
p616
sg22
F0.41397849462365588
sbasg26
I00
sg27
I00
sg28
I3093681
sg20
S'8038.14202531'
p617
sba(igraph
Edge
p618
(dp619
g7
I1
sg8
I00
sg9
I5
sg10
(lp620
g614
a(igraph
Vertex
p621
(dp622
g14
F0.90000000000000002
sg8
I00
sg15
g16
sg17
F-48.435483870967744
sg18
F-410.5
sg19
I3094288
sg20
S'8037.92415796'
p623
sg22
F0.41397849462365588
sbasg26
I00
sg27
I00
sg28
I3093682
sg20
S'8038.14389902'
p624
sba(igraph
Edge
p625
(dp626
g7
I1
sg8
I00
sg9
I5
sg10
(lp627
g621
a(igraph
Vertex
p628
(dp629
g14
F1.0
sg8
I00
sg15
g16
sg17
F-48.435483870967744
sg18
F-502.0
sg19
I3094289
sg20
S'8037.92486475'
p630
sg22
F0.41397849462365588
sbasg26
I00
sg27
I00
sg28
I3093683
sg20
S'8038.14583613'
p631
sba(igraph
Edge
p632
(dp633
g7
I1
sg8
I00
sg9
I5
sg10
(lp634
g628
ag562
asg26
I00
sg27
I00
sg28
I3093684
sg20
S'8038.14773582'
p635
sba(igraph
Edge
p636
(dp637
g7
I1
sg8
I00
sg9
I5
sg10
(lp638
(igraph
Vertex
p639
(dp640
g14
F0.0
sg8
I00
sg15
g16
sg17
F-11.354838709677381
sg18
F413.0
sg19
I3094290
sg20
S'8037.92557993'
p641
sg22
F0.4731182795698925
sba(igraph
Vertex
p642
(dp643
g14
F0.10000000000000002
sg8
I00
sg15
g16
sg17
F-11.354838709677381
sg18
F321.5
sg19
I3094291
sg20
S'8037.92630767'
p644
sg22
F0.4731182795698925
sbasg26
I00
sg27
I00
sg28
I3093685
sg20
S'8038.14965533'
p645
sba(igraph
Edge
p646
(dp647
g7
I1
sg8
I00
sg9
I5
sg10
(lp648
g642
a(igraph
Vertex
p649
(dp650
g14
F0.20000000000000004
sg8
I00
sg15
g16
sg17
F-11.354838709677381
sg18
F229.99999999999997
sg19
I3094292
sg20
S'8037.92704101'
p651
sg22
F0.4731182795698925
sbasg26
I00
sg27
I00
sg28
I3093686
sg20
S'8038.15162905'
p652
sba(igraph
Edge
p653
(dp654
g7
I1
sg8
I00
sg9
I5
sg10
(lp655
g649
a(igraph
Vertex
p656
(dp657
g14
F0.3000000000000001
sg8
I00
sg15
g16
sg17
F-11.354838709677381
sg18
F138.49999999999989
sg19
I3094293
sg20
S'8037.92777853'
p658
sg22
F0.4731182795698925
sbasg26
I00
sg27
I00
sg28
I3093687
sg20
S'8038.15369747'
p659
sba(igraph
Edge
p660
(dp661
g7
I1
sg8
I00
sg9
I5
sg10
(lp662
g656
a(igraph
Vertex
p663
(dp664
g14
F0.40000000000000008
sg8
I01
sg15
I0
sg17
F-11.354838709677381
sg18
F46.999999999999943
sg19
I3094295
sg20
S'8037.92852779'
p665
sg22
F0.4731182795698925
sbasg26
I00
sg27
I00
sg28
I3093688
sg20
S'8038.15569605'
p666
sba(igraph
Edge
p667
(dp668
g7
I1
sg8
I00
sg9
I5
sg10
(lp669
g663
a(igraph
Vertex
p670
(dp671
g14
F0.50000000000000022
sg8
I00
sg15
g16
sg17
F-11.354838709677381
sg18
F-44.500000000000227
sg19
I3094297
sg20
S'8037.92928766'
p672
sg22
F0.4731182795698925
sbasg26
I00
sg27
I00
sg28
I3093689
sg20
S'8038.15774603'
p673
sba(igraph
Edge
p674
(dp675
g7
I1
sg8
I00
sg9
I5
sg10
(lp676
g670
a(igraph
Vertex
p677
(dp678
g14
F0.59999999999999998
sg8
I00
sg15
g16
sg17
F-11.354838709677381
sg18
F-136.0
sg19
I3094298
sg20
S'8037.9300791'
p679
sg22
F0.4731182795698925
sbasg26
I00
sg27
I00
sg28
I3093690
sg20
S'8038.15988568'
p680
sba(igraph
Edge
p681
(dp682
g7
I1
sg8
I00
sg9
I5
sg10
(lp683
g677
a(igraph
Vertex
p684
(dp685
g14
F0.70000000000000007
sg8
I00
sg15
g16
sg17
F-11.354838709677381
sg18
F-227.50000000000011
sg19
I3094299
sg20
S'8037.93085853'
p686
sg22
F0.4731182795698925
sbasg26
I00
sg27
I00
sg28
I3093691
sg20
S'8038.16194377'
p687
sba(igraph
Edge
p688
(dp689
g7
I1
sg8
I00
sg9
I5
sg10
(lp690
g684
a(igraph
Vertex
p691
(dp692
g14
F0.80000000000000004
sg8
I00
sg15
g16
sg17
F-11.354838709677381
sg18
F-319.0
sg19
I3094300
sg20
S'8037.93163377'
p693
sg22
F0.4731182795698925
sbasg26
I00
sg27
I00
sg28
I3093692
sg20
S'8038.16402168'
p694
sba(igraph
Edge
p695
(dp696
g7
I1
sg8
I00
sg9
I5
sg10
(lp697
g691
a(igraph
Vertex
p698
(dp699
g14
F0.90000000000000002
sg8
I00
sg15
g16
sg17
F-11.354838709677381
sg18
F-410.5
sg19
I3094301
sg20
S'8037.93242745'
p700
sg22
F0.4731182795698925
sbasg26
I00
sg27
I00
sg28
I3093693
sg20
S'8038.16612502'
p701
sba(igraph
Edge
p702
(dp703
g7
I1
sg8
I00
sg9
I5
sg10
(lp704
g698
a(igraph
Vertex
p705
(dp706
g14
F1.0
sg8
I00
sg15
g16
sg17
F-11.354838709677381
sg18
F-502.0
sg19
I3094302
sg20
S'8037.9332552'
p707
sg22
F0.4731182795698925
sbasg26
I00
sg27
I00
sg28
I3093694
sg20
S'8038.16824988'
p708
sba(igraph
Edge
p709
(dp710
g7
I1
sg8
I00
sg9
I5
sg10
(lp711
g705
ag639
asg26
I00
sg27
I00
sg28
I3093695
sg20
S'8038.1703954'
p712
sba(igraph
Edge
p713
(dp714
g7
I1
sg8
I00
sg9
I5
sg10
(lp715
(igraph
Vertex
p716
(dp717
g14
F0.0
sg8
I00
sg15
g16
sg17
F25.725806451612868
sg18
F413.0
sg19
I3094303
sg20
S'8037.93412096'
p718
sg22
F0.532258064516129
sba(igraph
Vertex
p719
(dp720
g14
F0.10000000000000002
sg8
I00
sg15
g16
sg17
F25.725806451612868
sg18
F321.5
sg19
I3094304
sg20
S'8037.93498168'
p721
sg22
F0.532258064516129
sbasg26
I00
sg27
I00
sg28
I3093696
sg20
S'8038.17256216'
p722
sba(igraph
Edge
p723
(dp724
g7
I1
sg8
I00
sg9
I5
sg10
(lp725
g719
a(igraph
Vertex
p726
(dp727
g14
F0.20000000000000004
sg8
I00
sg15
g16
sg17
F25.725806451612868
sg18
F229.99999999999997
sg19
I3094305
sg20
S'8037.93580776'
p728
sg22
F0.532258064516129
sbasg26
I00
sg27
I00
sg28
I3093697
sg20
S'8038.17506806'
p729
sba(igraph
Edge
p730
(dp731
g7
I1
sg8
I00
sg9
I5
sg10
(lp732
g726
a(igraph
Vertex
p733
(dp734
g14
F0.3000000000000001
sg8
I00
sg15
g16
sg17
F25.725806451612868
sg18
F138.49999999999989
sg19
I3094306
sg20
S'8037.93668637'
p735
sg22
F0.532258064516129
sbasg26
I00
sg27
I00
sg28
I3093698
sg20
S'8038.17730857'
p736
sba(igraph
Edge
p737
(dp738
g7
I1
sg8
I00
sg9
I5
sg10
(lp739
g733
a(igraph
Vertex
p740
(dp741
g14
F0.40000000000000008
sg8
I00
sg15
g16
sg17
F25.725806451612868
sg18
F46.999999999999943
sg19
I3094307
sg20
S'8037.93753927'
p742
sg22
F0.532258064516129
sbasg26
I00
sg27
I00
sg28
I3093699
sg20
S'8038.17958037'
p743
sba(igraph
Edge
p744
(dp745
g7
I1
sg8
I00
sg9
I5
sg10
(lp746
g740
a(igraph
Vertex
p747
(dp748
g14
F0.50000000000000022
sg8
I00
sg15
g16
sg17
F25.725806451612868
sg18
F-44.500000000000227
sg19
I3094308
sg20
S'8037.93839971'
p749
sg22
F0.532258064516129
sbasg26
I00
sg27
I00
sg28
I3093700
sg20
S'8038.18185049'
p750
sba(igraph
Edge
p751
(dp752
g7
I1
sg8
I00
sg9
I5
sg10
(lp753
g747
a(igraph
Vertex
p754
(dp755
g14
F0.59999999999999998
sg8
I01
sg15
I0
sg17
F25.725806451612868
sg18
F-136.0
sg19
I3094310
sg20
S'8037.93928446'
p756
sg22
F0.532258064516129
sbasg26
I00
sg27
I00
sg28
I3093701
sg20
S'8038.18413821'
p757
sba(igraph
Edge
p758
(dp759
g7
I1
sg8
I00
sg9
I5
sg10
(lp760
g754
a(igraph
Vertex
p761
(dp762
g14
F0.70000000000000007
sg8
I00
sg15
g16
sg17
F25.725806451612868
sg18
F-227.50000000000011
sg19
I3094312
sg20
S'8037.94014602'
p763
sg22
F0.532258064516129
sbasg26
I00
sg27
I00
sg28
I3093702
sg20
S'8038.18655472'
p764
sba(igraph
Edge
p765
(dp766
g7
I1
sg8
I00
sg9
I5
sg10
(lp767
g761
a(igraph
Vertex
p768
(dp769
g14
F0.80000000000000004
sg8
I00
sg15
g16
sg17
F25.725806451612868
sg18
F-319.0
sg19
I3094313
sg20
S'8037.94104614'
p770
sg22
F0.532258064516129
sbasg26
I00
sg27
I00
sg28
I3093703
sg20
S'8038.1890894'
p771
sba(igraph
Edge
p772
(dp773
g7
I1
sg8
I00
sg9
I5
sg10
(lp774
g768
a(igraph
Vertex
p775
(dp776
g14
F0.90000000000000002
sg8
I00
sg15
g16
sg17
F25.725806451612868
sg18
F-410.5
sg19
I3094314
sg20
S'8037.94194402'
p777
sg22
F0.532258064516129
sbasg26
I00
sg27
I00
sg28
I3093704
sg20
S'8038.19152825'
p778
sba(igraph
Edge
p779
(dp780
g7
I1
sg8
I00
sg9
I5
sg10
(lp781
g775
a(igraph
Vertex
p782
(dp783
g14
F1.0
sg8
I00
sg15
g16
sg17
F25.725806451612868
sg18
F-502.0
sg19
I3094315
sg20
S'8037.94283659'
p784
sg22
F0.532258064516129
sbasg26
I00
sg27
I00
sg28
I3093705
sg20
S'8038.19398303'
p785
sba(igraph
Edge
p786
(dp787
g7
I1
sg8
I00
sg9
I5
sg10
(lp788
g782
ag716
asg26
I00
sg27
I00
sg28
I3093706
sg20
S'8038.19643837'
p789
sba(igraph
Edge
p790
(dp791
g7
I1
sg8
I00
sg9
I5
sg10
(lp792
(igraph
Vertex
p793
(dp794
g14
F0.0
sg8
I00
sg15
g16
sg17
F62.806451612903231
sg18
F413.0
sg19
I3094316
sg20
S'8037.94373475'
p795
sg22
F0.59139784946236562
sba(igraph
Vertex
p796
(dp797
g14
F0.10000000000000002
sg8
I00
sg15
g16
sg17
F62.806451612903231
sg18
F321.5
sg19
I3094317
sg20
S'8037.94463961'
p798
sg22
F0.59139784946236562
sbasg26
I00
sg27
I00
sg28
I3093707
sg20
S'8038.19888729'
p799
sba(igraph
Edge
p800
(dp801
g7
I1
sg8
I00
sg9
I5
sg10
(lp802
g796
a(igraph
Vertex
p803
(dp804
g14
F0.20000000000000004
sg8
I00
sg15
g16
sg17
F62.806451612903231
sg18
F229.99999999999997
sg19
I3094318
sg20
S'8037.9456389'
p805
sg22
F0.59139784946236562
sbasg26
I00
sg27
I00
sg28
I3093708
sg20
S'8038.20133397'
p806
sba(igraph
Edge
p807
(dp808
g7
I1
sg8
I00
sg9
I5
sg10
(lp809
g803
a(igraph
Vertex
p810
(dp811
g14
F0.3000000000000001
sg8
I00
sg15
g16
sg17
F62.806451612903231
sg18
F138.49999999999989
sg19
I3094319
sg20
S'8037.94655941'
p812
sg22
F0.59139784946236562
sbasg26
I00
sg27
I00
sg28
I3093709
sg20
S'8038.20384742'
p813
sba(igraph
Edge
p814
(dp815
g7
I1
sg8
I00
sg9
I5
sg10
(lp816
g810
a(igraph
Vertex
p817
(dp818
g14
F0.40000000000000008
sg8
I00
sg15
g16
sg17
F62.806451612903231
sg18
F46.999999999999943
sg19
I3094320
sg20
S'8037.94749333'
p819
sg22
F0.59139784946236562
sbasg26
I00
sg27
I00
sg28
I3093710
sg20
S'8038.206405'
p820
sba(igraph
Edge
p821
(dp822
g7
I1
sg8
I00
sg9
I5
sg10
(lp823
g817
a(igraph
Vertex
p824
(dp825
g14
F0.50000000000000022
sg8
I00
sg15
g16
sg17
F62.806451612903231
sg18
F-44.500000000000227
sg19
I3094321
sg20
S'8037.94843143'
p826
sg22
F0.59139784946236562
sbasg26
I00
sg27
I00
sg28
I3093711
sg20
S'8038.20895784'
p827
sba(igraph
Edge
p828
(dp829
g7
I1
sg8
I00
sg9
I5
sg10
(lp830
g824
a(igraph
Vertex
p831
(dp832
g14
F0.59999999999999998
sg8
I00
sg15
g16
sg17
F62.806451612903231
sg18
F-136.0
sg19
I3094322
sg20
S'8037.94937038'
p833
sg22
F0.59139784946236562
sbasg26
I00
sg27
I00
sg28
I3093712
sg20
S'8038.21154029'
p834
sba(igraph
Edge
p835
(dp836
g7
I1
sg8
I00
sg9
I5
sg10
(lp837
g831
a(igraph
Vertex
p838
(dp839
g14
F0.70000000000000007
sg8
I00
sg15
g16
sg17
F62.806451612903231
sg18
F-227.50000000000011
sg19
I3094323
sg20
S'8037.95033084'
p840
sg22
F0.59139784946236562
sbasg26
I00
sg27
I00
sg28
I3093713
sg20
S'8038.2141532'
p841
sba(igraph
Edge
p842
(dp843
g7
I1
sg8
I00
sg9
I5
sg10
(lp844
g838
a(igraph
Vertex
p845
(dp846
g14
F0.80000000000000004
sg8
I00
sg15
g16
sg17
F62.806451612903231
sg18
F-319.0
sg19
I3094324
sg20
S'8037.95128962'
p847
sg22
F0.59139784946236562
sbasg26
I00
sg27
I00
sg28
I3093714
sg20
S'8038.21678593'
p848
sba(igraph
Edge
p849
(dp850
g7
I1
sg8
I00
sg9
I5
sg10
(lp851
g845
a(igraph
Vertex
p852
(dp853
g14
F0.90000000000000002
sg8
I00
sg15
g16
sg17
F62.806451612903231
sg18
F-410.5
sg19
I3094325
sg20
S'8037.95226153'
p854
sg22
F0.59139784946236562
sbasg26
I00
sg27
I00
sg28
I3093715
sg20
S'8038.21939157'
p855
sba(igraph
Edge
p856
(dp857
g7
I1
sg8
I00
sg9
I5
sg10
(lp858
g852
a(igraph
Vertex
p859
(dp860
g14
F1.0
sg8
I00
sg15
g16
sg17
F62.806451612903231
sg18
F-502.0
sg19
I3094326
sg20
S'8037.95324071'
p861
sg22
F0.59139784946236562
sbasg26
I00
sg27
I00
sg28
I3093716
sg20
S'8038.22205588'
p862
sba(igraph
Edge
p863
(dp864
g7
I1
sg8
I00
sg9
I5
sg10
(lp865
g859
ag793
asg26
I00
sg27
I00
sg28
I3093717
sg20
S'8038.22471264'
p866
sba(igraph
Edge
p867
(dp868
g7
I1
sg8
I00
sg9
I5
sg10
(lp869
(igraph
Vertex
p870
(dp871
g14
F0.0
sg8
I00
sg15
g16
sg17
F99.887096774193537
sg18
F413.0
sg19
I3094327
sg20
S'8037.95422239'
p872
sg22
F0.65053763440860213
sba(igraph
Vertex
p873
(dp874
g14
F0.10000000000000002
sg8
I00
sg15
g16
sg17
F99.887096774193537
sg18
F321.5
sg19
I3094328
sg20
S'8037.95523453'
p875
sg22
F0.65053763440860213
sbasg26
I00
sg27
I00
sg28
I3093718
sg20
S'8038.22743254'
p876
sba(igraph
Edge
p877
(dp878
g7
I1
sg8
I00
sg9
I5
sg10
(lp879
g873
a(igraph
Vertex
p880
(dp881
g14
F0.20000000000000004
sg8
I00
sg15
g16
sg17
F99.887096774193537
sg18
F229.99999999999997
sg19
I3094329
sg20
S'8037.9562436'
p882
sg22
F0.65053763440860213
sbasg26
I00
sg27
I00
sg28
I3093719
sg20
S'8038.23018484'
p883
sba(igraph
Edge
p884
(dp885
g7
I1
sg8
I00
sg9
I5
sg10
(lp886
g880
a(igraph
Vertex
p887
(dp888
g14
F0.3000000000000001
sg8
I00
sg15
g16
sg17
F99.887096774193537
sg18
F138.49999999999989
sg19
I3094330
sg20
S'8037.95725965'
p889
sg22
F0.65053763440860213
sbasg26
I00
sg27
I00
sg28
I3093720
sg20
S'8038.23295726'
p890
sba(igraph
Edge
p891
(dp892
g7
I1
sg8
I00
sg9
I5
sg10
(lp893
g887
a(igraph
Vertex
p894
(dp895
g14
F0.40000000000000008
sg8
I00
sg15
g16
sg17
F99.887096774193537
sg18
F46.999999999999943
sg19
I3094331
sg20
S'8037.95834331'
p896
sg22
F0.65053763440860213
sbasg26
I00
sg27
I00
sg28
I3093721
sg20
S'8038.23571124'
p897
sba(igraph
Edge
p898
(dp899
g7
I1
sg8
I00
sg9
I5
sg10
(lp900
g894
a(igraph
Vertex
p901
(dp902
g14
F0.50000000000000022
sg8
I00
sg15
g16
sg17
F99.887096774193537
sg18
F-44.500000000000227
sg19
I3094332
sg20
S'8037.95948843'
p903
sg22
F0.65053763440860213
sbasg26
I00
sg27
I00
sg28
I3093722
sg20
S'8038.23855099'
p904
sba(igraph
Edge
p905
(dp906
g7
I1
sg8
I00
sg9
I5
sg10
(lp907
g901
a(igraph
Vertex
p908
(dp909
g14
F0.59999999999999998
sg8
I00
sg15
g16
sg17
F99.887096774193537
sg18
F-136.0
sg19
I3094333
sg20
S'8037.96055085'
p910
sg22
F0.65053763440860213
sbasg26
I00
sg27
I00
sg28
I3093723
sg20
S'8038.24132034'
p911
sba(igraph
Edge
p912
(dp913
g7
I1
sg8
I00
sg9
I5
sg10
(lp914
g908
a(igraph
Vertex
p915
(dp916
g14
F0.70000000000000007
sg8
I01
sg15
I0
sg17
F99.887096774193537
sg18
F-227.50000000000011
sg19
I3094335
sg20
S'8037.96160993'
p917
sg22
F0.65053763440860213
sbasg26
I00
sg27
I00
sg28
I3093724
sg20
S'8038.24413829'
p918
sba(igraph
Edge
p919
(dp920
g7
I1
sg8
I00
sg9
I5
sg10
(lp921
g915
a(igraph
Vertex
p922
(dp923
g14
F0.80000000000000004
sg8
I00
sg15
g16
sg17
F99.887096774193537
sg18
F-319.0
sg19
I3094337
sg20
S'8037.96267487'
p924
sg22
F0.65053763440860213
sbasg26
I00
sg27
I00
sg28
I3093725
sg20
S'8038.24696407'
p925
sba(igraph
Edge
p926
(dp927
g7
I1
sg8
I00
sg9
I5
sg10
(lp928
g922
a(igraph
Vertex
p929
(dp930
g14
F0.90000000000000002
sg8
I00
sg15
g16
sg17
F99.887096774193537
sg18
F-410.5
sg19
I3094338
sg20
S'8037.96373729'
p931
sg22
F0.65053763440860213
sbasg26
I00
sg27
I00
sg28
I3093726
sg20
S'8038.24984796'
p932
sba(igraph
Edge
p933
(dp934
g7
I1
sg8
I00
sg9
I5
sg10
(lp935
g929
a(igraph
Vertex
p936
(dp937
g14
F1.0
sg8
I00
sg15
g16
sg17
F99.887096774193537
sg18
F-502.0
sg19
I3094339
sg20
S'8037.96485363'
p938
sg22
F0.65053763440860213
sbasg26
I00
sg27
I00
sg28
I3093727
sg20
S'8038.25275671'
p939
sba(igraph
Edge
p940
(dp941
g7
I1
sg8
I00
sg9
I5
sg10
(lp942
g936
ag870
asg26
I00
sg27
I00
sg28
I3093728
sg20
S'8038.25566965'
p943
sba(igraph
Edge
p944
(dp945
g7
I1
sg8
I00
sg9
I5
sg10
(lp946
(igraph
Vertex
p947
(dp948
g14
F0.0
sg8
I00
sg15
g16
sg17
F136.96774193548396
sg18
F413.0
sg19
I3094340
sg20
S'8037.96595936'
p949
sg22
F0.70967741935483886
sba(igraph
Vertex
p950
(dp951
g14
F0.10000000000000002
sg8
I00
sg15
g16
sg17
F136.96774193548396
sg18
F321.5
sg19
I3094341
sg20
S'8037.96708548'
p952
sg22
F0.70967741935483886
sbasg26
I00
sg27
I00
sg28
I3093729
sg20
S'8038.25856973'
p953
sba(igraph
Edge
p954
(dp955
g7
I1
sg8
I00
sg9
I5
sg10
(lp956
g950
a(igraph
Vertex
p957
(dp958
g14
F0.20000000000000004
sg8
I00
sg15
g16
sg17
F136.96774193548396
sg18
F229.99999999999997
sg19
I3094342
sg20
S'8037.96818842'
p959
sg22
F0.70967741935483886
sbasg26
I00
sg27
I00
sg28
I3093730
sg20
S'8038.26163437'
p960
sba(igraph
Edge
p961
(dp962
g7
I1
sg8
I00
sg9
I5
sg10
(lp963
g957
a(igraph
Vertex
p964
(dp965
g14
F0.3000000000000001
sg8
I00
sg15
g16
sg17
F136.96774193548396
sg18
F138.49999999999989
sg19
I3094343
sg20
S'8037.96929861'
p966
sg22
F0.70967741935483886
sbasg26
I00
sg27
I00
sg28
I3093731
sg20
S'8038.26460626'
p967
sba(igraph
Edge
p968
(dp969
g7
I1
sg8
I00
sg9
I5
sg10
(lp970
g964
a(igraph
Vertex
p971
(dp972
g14
F0.40000000000000008
sg8
I00
sg15
g16
sg17
F136.96774193548396
sg18
F46.999999999999943
sg19
I3094344
sg20
S'8037.97047167'
p973
sg22
F0.70967741935483886
sbasg26
I00
sg27
I00
sg28
I3093732
sg20
S'8038.26755998'
p974
sba(igraph
Edge
p975
(dp976
g7
I1
sg8
I00
sg9
I5
sg10
(lp977
g971
a(igraph
Vertex
p978
(dp979
g14
F0.50000000000000022
sg8
I00
sg15
g16
sg17
F136.96774193548396
sg18
F-44.500000000000227
sg19
I3094345
sg20
S'8037.97161036'
p980
sg22
F0.70967741935483886
sbasg26
I00
sg27
I00
sg28
I3093733
sg20
S'8038.27059249'
p981
sba(igraph
Edge
p982
(dp983
g7
I1
sg8
I00
sg9
I5
sg10
(lp984
g978
a(igraph
Vertex
p985
(dp986
g14
F0.59999999999999998
sg8
I00
sg15
g16
sg17
F136.96774193548396
sg18
F-136.0
sg19
I3094346
sg20
S'8037.97276134'
p987
sg22
F0.70967741935483886
sbasg26
I00
sg27
I00
sg28
I3093734
sg20
S'8038.27360097'
p988
sba(igraph
Edge
p989
(dp990
g7
I1
sg8
I00
sg9
I5
sg10
(lp991
g985
a(igraph
Vertex
p992
(dp993
g14
F0.70000000000000007
sg8
I00
sg15
g16
sg17
F136.96774193548396
sg18
F-227.50000000000011
sg19
I3094347
sg20
S'8037.97391736'
p994
sg22
F0.70967741935483886
sbasg26
I00
sg27
I00
sg28
I3093735
sg20
S'8038.27660806'
p995
sba(igraph
Edge
p996
(dp997
g7
I1
sg8
I00
sg9
I5
sg10
(lp998
g992
a(igraph
Vertex
p999
(dp1000
g14
F0.80000000000000004
sg8
I00
sg15
g16
sg17
F136.96774193548396
sg18
F-319.0
sg19
I3094348
sg20
S'8037.97507923'
p1001
sg22
F0.70967741935483886
sbasg26
I00
sg27
I00
sg28
I3093736
sg20
S'8038.27964392'
p1002
sba(igraph
Edge
p1003
(dp1004
g7
I1
sg8
I00
sg9
I5
sg10
(lp1005
g999
a(igraph
Vertex
p1006
(dp1007
g14
F0.90000000000000002
sg8
I00
sg15
g16
sg17
F136.96774193548396
sg18
F-410.5
sg19
I3094349
sg20
S'8037.97626654'
p1008
sg22
F0.70967741935483886
sbasg26
I00
sg27
I00
sg28
I3093737
sg20
S'8038.28270409'
p1009
sba(igraph
Edge
p1010
(dp1011
g7
I1
sg8
I00
sg9
I5
sg10
(lp1012
g1006
a(igraph
Vertex
p1013
(dp1014
g14
F1.0
sg8
I00
sg15
g16
sg17
F136.96774193548396
sg18
F-502.0
sg19
I3094350
sg20
S'8037.97745719'
p1015
sg22
F0.70967741935483886
sbasg26
I00
sg27
I00
sg28
I3093738
sg20
S'8038.28578157'
p1016
sba(igraph
Edge
p1017
(dp1018
g7
I1
sg8
I00
sg9
I5
sg10
(lp1019
g1013
ag947
asg26
I00
sg27
I00
sg28
I3093739
sg20
S'8038.28897611'
p1020
sba(igraph
Edge
p1021
(dp1022
g7
I1
sg8
I00
sg9
I5
sg10
(lp1023
(igraph
Vertex
p1024
(dp1025
g14
F0.0
sg8
I00
sg15
g16
sg17
F174.04838709677421
sg18
F413.0
sg19
I3094351
sg20
S'8037.97866461'
p1026
sg22
F0.76881720430107525
sba(igraph
Vertex
p1027
(dp1028
g14
F0.10000000000000002
sg8
I00
sg15
g16
sg17
F174.04838709677421
sg18
F321.5
sg19
I3094352
sg20
S'8037.97985722'
p1029
sg22
F0.76881720430107525
sbasg26
I00
sg27
I00
sg28
I3093740
sg20
S'8038.29229274'
p1030
sba(igraph
Edge
p1031
(dp1032
g7
I1
sg8
I00
sg9
I5
sg10
(lp1033
g1027
a(igraph
Vertex
p1034
(dp1035
g14
F0.20000000000000004
sg8
I00
sg15
g16
sg17
F174.04838709677421
sg18
F229.99999999999997
sg19
I3094353
sg20
S'8037.98111995'
p1036
sg22
F0.76881720430107525
sbasg26
I00
sg27
I00
sg28
I3093741
sg20
S'8038.29546912'
p1037
sba(igraph
Edge
p1038
(dp1039
g7
I1
sg8
I00
sg9
I5
sg10
(lp1040
g1034
a(igraph
Vertex
p1041
(dp1042
g14
F0.3000000000000001
sg8
I00
sg15
g16
sg17
F174.04838709677421
sg18
F138.49999999999989
sg19
I3094354
sg20
S'8037.98246537'
p1043
sg22
F0.76881720430107525
sbasg26
I00
sg27
I00
sg28
I3093742
sg20
S'8038.29862566'
p1044
sba(igraph
Edge
p1045
(dp1046
g7
I1
sg8
I00
sg9
I5
sg10
(lp1047
g1041
a(igraph
Vertex
p1048
(dp1049
g14
F0.40000000000000008
sg8
I00
sg15
g16
sg17
F174.04838709677421
sg18
F46.999999999999943
sg19
I3094355
sg20
S'8037.98385996'
p1050
sg22
F0.76881720430107525
sbasg26
I00
sg27
I00
sg28
I3093743
sg20
S'8038.30184004'
p1051
sba(igraph
Edge
p1052
(dp1053
g7
I1
sg8
I00
sg9
I5
sg10
(lp1054
g1048
a(igraph
Vertex
p1055
(dp1056
g14
F0.50000000000000022
sg8
I00
sg15
g16
sg17
F174.04838709677421
sg18
F-44.500000000000227
sg19
I3094356
sg20
S'8037.98520399'
p1057
sg22
F0.76881720430107525
sbasg26
I00
sg27
I00
sg28
I3093744
sg20
S'8038.30523991'
p1058
sba(igraph
Edge
p1059
(dp1060
g7
I1
sg8
I00
sg9
I5
sg10
(lp1061
g1055
a(igraph
Vertex
p1062
(dp1063
g14
F0.59999999999999998
sg8
I00
sg15
g16
sg17
F174.04838709677421
sg18
F-136.0
sg19
I3094357
sg20
S'8037.98646755'
p1064
sg22
F0.76881720430107525
sbasg26
I00
sg27
I00
sg28
I3093745
sg20
S'8038.30850681'
p1065
sba(igraph
Edge
p1066
(dp1067
g7
I1
sg8
I00
sg9
I5
sg10
(lp1068
g1062
a(igraph
Vertex
p1069
(dp1070
g14
F0.70000000000000007
sg8
I00
sg15
g16
sg17
F174.04838709677421
sg18
F-227.50000000000011
sg19
I3094358
sg20
S'8037.98774621'
p1071
sg22
F0.76881720430107525
sbasg26
I00
sg27
I00
sg28
I3093746
sg20
S'8038.31183684'
p1072
sba(igraph
Edge
p1073
(dp1074
g7
I1
sg8
I00
sg9
I5
sg10
(lp1075
g1069
a(igraph
Vertex
p1076
(dp1077
g14
F0.80000000000000004
sg8
I01
sg15
I0
sg17
F174.04838709677421
sg18
F-319.0
sg19
I3094360
sg20
S'8037.9890366'
p1078
sg22
F0.76881720430107525
sbasg26
I00
sg27
I00
sg28
I3093747
sg20
S'8038.31514508'
p1079
sba(igraph
Edge
p1080
(dp1081
g7
I1
sg8
I00
sg9
I5
sg10
(lp1082
g1076
a(igraph
Vertex
p1083
(dp1084
g14
F0.90000000000000002
sg8
I00
sg15
g16
sg17
F174.04838709677421
sg18
F-410.5
sg19
I3094362
sg20
S'8037.99033425'
p1085
sg22
F0.76881720430107525
sbasg26
I00
sg27
I00
sg28
I3093748
sg20
S'8038.31849048'
p1086
sba(igraph
Edge
p1087
(dp1088
g7
I1
sg8
I00
sg9
I5
sg10
(lp1089
g1083
a(igraph
Vertex
p1090
(dp1091
g14
F1.0
sg8
I00
sg15
g16
sg17
F174.04838709677421
sg18
F-502.0
sg19
I3094363
sg20
S'8037.99171878'
p1092
sg22
F0.76881720430107525
sbasg26
I00
sg27
I00
sg28
I3093749
sg20
S'8038.32183755'
p1093
sba(igraph
Edge
p1094
(dp1095
g7
I1
sg8
I00
sg9
I5
sg10
(lp1096
g1090
ag1024
asg26
I00
sg27
I00
sg28
I3093750
sg20
S'8038.32606435'
p1097
sba(igraph
Edge
p1098
(dp1099
g7
I1
sg8
I00
sg9
I5
sg10
(lp1100
(igraph
Vertex
p1101
(dp1102
g14
F0.0
sg8
I00
sg15
g16
sg17
F211.12903225806451
sg18
F413.0
sg19
I3094364
sg20
S'8037.99307202'
p1103
sg22
F0.82795698924731176
sba(igraph
Vertex
p1104
(dp1105
g14
F0.10000000000000002
sg8
I00
sg15
g16
sg17
F211.12903225806451
sg18
F321.5
sg19
I3094365
sg20
S'8037.99445851'
p1106
sg22
F0.82795698924731176
sbasg26
I00
sg27
I00
sg28
I3093751
sg20
S'8038.32945724'
p1107
sba(igraph
Edge
p1108
(dp1109
g7
I1
sg8
I00
sg9
I5
sg10
(lp1110
g1104
a(igraph
Vertex
p1111
(dp1112
g14
F0.20000000000000004
sg8
I00
sg15
g16
sg17
F211.12903225806451
sg18
F229.99999999999997
sg19
I3094366
sg20
S'8037.99583439'
p1113
sg22
F0.82795698924731176
sbasg26
I00
sg27
I00
sg28
I3093752
sg20
S'8038.33291605'
p1114
sba(igraph
Edge
p1115
(dp1116
g7
I1
sg8
I00
sg9
I5
sg10
(lp1117
g1111
a(igraph
Vertex
p1118
(dp1119
g14
F0.3000000000000001
sg8
I00
sg15
g16
sg17
F211.12903225806451
sg18
F138.49999999999989
sg19
I3094367
sg20
S'8037.99715159'
p1120
sg22
F0.82795698924731176
sbasg26
I00
sg27
I00
sg28
I3093753
sg20
S'8038.33648886'
p1121
sba(igraph
Edge
p1122
(dp1123
g7
I1
sg8
I00
sg9
I5
sg10
(lp1124
g1118
a(igraph
Vertex
p1125
(dp1126
g14
F0.40000000000000008
sg8
I00
sg15
g16
sg17
F211.12903225806451
sg18
F46.999999999999943
sg19
I3094368
sg20
S'8037.99847327'
p1127
sg22
F0.82795698924731176
sbasg26
I00
sg27
I00
sg28
I3093754
sg20
S'8038.33993874'
p1128
sba(igraph
Edge
p1129
(dp1130
g7
I1
sg8
I00
sg9
I5
sg10
(lp1131
g1125
a(igraph
Vertex
p1132
(dp1133
g14
F0.50000000000000022
sg8
I00
sg15
g16
sg17
F211.12903225806451
sg18
F-44.500000000000227
sg19
I3094369
sg20
S'8037.99984942'
p1134
sg22
F0.82795698924731176
sbasg26
I00
sg27
I00
sg28
I3093755
sg20
S'8038.34343499'
p1135
sba(igraph
Edge
p1136
(dp1137
g7
I1
sg8
I00
sg9
I5
sg10
(lp1138
g1132
a(igraph
Vertex
p1139
(dp1140
g14
F0.59999999999999998
sg8
I00
sg15
g16
sg17
F211.12903225806451
sg18
F-136.0
sg19
I3094370
sg20
S'8038.00123759'
p1141
sg22
F0.82795698924731176
sbasg26
I00
sg27
I00
sg28
I3093756
sg20
S'8038.34694773'
p1142
sba(igraph
Edge
p1143
(dp1144
g7
I1
sg8
I00
sg9
I5
sg10
(lp1145
g1139
a(igraph
Vertex
p1146
(dp1147
g14
F0.70000000000000007
sg8
I01
sg15
I0
sg17
F211.12903225806451
sg18
F-227.50000000000011
sg19
I3094372
sg20
S'8038.00259642'
p1148
sg22
F0.82795698924731176
sbasg26
I00
sg27
I00
sg28
I3093757
sg20
S'8038.35049259'
p1149
sba(igraph
Edge
p1150
(dp1151
g7
I1
sg8
I00
sg9
I5
sg10
(lp1152
g1146
a(igraph
Vertex
p1153
(dp1154
g14
F0.80000000000000004
sg8
I00
sg15
g16
sg17
F211.12903225806451
sg18
F-319.0
sg19
I3094374
sg20
S'8038.00395888'
p1155
sg22
F0.82795698924731176
sbasg26
I00
sg27
I00
sg28
I3093758
sg20
S'8038.35403243'
p1156
sba(igraph
Edge
p1157
(dp1158
g7
I1
sg8
I00
sg9
I5
sg10
(lp1159
g1153
a(igraph
Vertex
p1160
(dp1161
g14
F0.90000000000000002
sg8
I00
sg15
g16
sg17
F211.12903225806451
sg18
F-410.5
sg19
I3094375
sg20
S'8038.00542862'
p1162
sg22
F0.82795698924731176
sbasg26
I00
sg27
I00
sg28
I3093759
sg20
S'8038.35760886'
p1163
sba(igraph
Edge
p1164
(dp1165
g7
I1
sg8
I00
sg9
I5
sg10
(lp1166
g1160
a(igraph
Vertex
p1167
(dp1168
g14
F1.0
sg8
I00
sg15
g16
sg17
F211.12903225806451
sg18
F-502.0
sg19
I3094376
sg20
S'8038.00680897'
p1169
sg22
F0.82795698924731176
sbasg26
I00
sg27
I00
sg28
I3093760
sg20
S'8038.36117384'
p1170
sba(igraph
Edge
p1171
(dp1172
g7
I1
sg8
I00
sg9
I5
sg10
(lp1173
g1167
ag1101
asg26
I00
sg27
I00
sg28
I3093761
sg20
S'8038.36479553'
p1174
sba(igraph
Edge
p1175
(dp1176
g7
I1
sg8
I00
sg9
I5
sg10
(lp1177
(igraph
Vertex
p1178
(dp1179
g14
F0.0
sg8
I00
sg15
g16
sg17
F248.20967741935488
sg18
F413.0
sg19
I3094377
sg20
S'8038.00818987'
p1180
sg22
F0.88709677419354849
sba(igraph
Vertex
p1181
(dp1182
g14
F0.10000000000000002
sg8
I00
sg15
g16
sg17
F248.20967741935488
sg18
F321.5
sg19
I3094378
sg20
S'8038.00956937'
p1183
sg22
F0.88709677419354849
sbasg26
I00
sg27
I00
sg28
I3093762
sg20
S'8038.36863763'
p1184
sba(igraph
Edge
p1185
(dp1186
g7
I1
sg8
I00
sg9
I5
sg10
(lp1187
g1181
a(igraph
Vertex
p1188
(dp1189
g14
F0.20000000000000004
sg8
I00
sg15
g16
sg17
F248.20967741935488
sg18
F229.99999999999997
sg19
I3094379
sg20
S'8038.01100112'
p1190
sg22
F0.88709677419354849
sbasg26
I00
sg27
I00
sg28
I3093763
sg20
S'8038.37230179'
p1191
sba(igraph
Edge
p1192
(dp1193
g7
I1
sg8
I00
sg9
I5
sg10
(lp1194
g1188
a(igraph
Vertex
p1195
(dp1196
g14
F0.3000000000000001
sg8
I00
sg15
g16
sg17
F248.20967741935488
sg18
F138.49999999999989
sg19
I3094380
sg20
S'8038.01244851'
p1197
sg22
F0.88709677419354849
sbasg26
I00
sg27
I00
sg28
I3093764
sg20
S'8038.37600421'
p1198
sba(igraph
Edge
p1199
(dp1200
g7
I1
sg8
I00
sg9
I5
sg10
(lp1201
g1195
a(igraph
Vertex
p1202
(dp1203
g14
F0.40000000000000008
sg8
I00
sg15
g16
sg17
F248.20967741935488
sg18
F46.999999999999943
sg19
I3094381
sg20
S'8038.01391406'
p1204
sg22
F0.88709677419354849
sbasg26
I00
sg27
I00
sg28
I3093765
sg20
S'8038.37970385'
p1205
sba(igraph
Edge
p1206
(dp1207
g7
I1
sg8
I00
sg9
I5
sg10
(lp1208
g1202
a(igraph
Vertex
p1209
(dp1210
g14
F0.50000000000000022
sg8
I00
sg15
g16
sg17
F248.20967741935488
sg18
F-44.500000000000227
sg19
I3094382
sg20
S'8038.01539386'
p1211
sg22
F0.88709677419354849
sbasg26
I00
sg27
I00
sg28
I3093766
sg20
S'8038.38342583'
p1212
sba(igraph
Edge
p1213
(dp1214
g7
I1
sg8
I00
sg9
I5
sg10
(lp1215
g1209
a(igraph
Vertex
p1216
(dp1217
g14
F0.59999999999999998
sg8
I00
sg15
g16
sg17
F248.20967741935488
sg18
F-136.0
sg19
I3094383
sg20
S'8038.01686779'
p1218
sg22
F0.88709677419354849
sbasg26
I00
sg27
I00
sg28
I3093767
sg20
S'8038.38720368'
p1219
sba(igraph
Edge
p1220
(dp1221
g7
I1
sg8
I00
sg9
I5
sg10
(lp1222
g1216
a(igraph
Vertex
p1223
(dp1224
g14
F0.70000000000000007
sg8
I00
sg15
g16
sg17
F248.20967741935488
sg18
F-227.50000000000011
sg19
I3094384
sg20
S'8038.01835932'
p1225
sg22
F0.88709677419354849
sbasg26
I00
sg27
I00
sg28
I3093768
sg20
S'8038.39104635'
p1226
sba(igraph
Edge
p1227
(dp1228
g7
I1
sg8
I00
sg9
I5
sg10
(lp1229
g1223
a(igraph
Vertex
p1230
(dp1231
g14
F0.80000000000000004
sg8
I00
sg15
g16
sg17
F248.20967741935488
sg18
F-319.0
sg19
I3094385
sg20
S'8038.01982263'
p1232
sg22
F0.88709677419354849
sbasg26
I00
sg27
I00
sg28
I3093769
sg20
S'8038.39497031'
p1233
sba(igraph
Edge
p1234
(dp1235
g7
I1
sg8
I00
sg9
I5
sg10
(lp1236
g1230
a(igraph
Vertex
p1237
(dp1238
g14
F0.90000000000000002
sg8
I01
sg15
I0
sg17
F248.20967741935488
sg18
F-410.5
sg19
I3094387
sg20
S'8038.02129097'
p1239
sg22
F0.88709677419354849
sbasg26
I00
sg27
I00
sg28
I3093770
sg20
S'8038.39879957'
p1240
sba(igraph
Edge
p1241
(dp1242
g7
I1
sg8
I00
sg9
I5
sg10
(lp1243
g1237
a(igraph
Vertex
p1244
(dp1245
g14
F1.0
sg8
I00
sg15
g16
sg17
F248.20967741935488
sg18
F-502.0
sg19
I3094389
sg20
S'8038.02279983'
p1246
sg22
F0.88709677419354849
sbasg26
I00
sg27
I00
sg28
I3093771
sg20
S'8038.40340267'
p1247
sba(igraph
Edge
p1248
(dp1249
g7
I1
sg8
I00
sg9
I5
sg10
(lp1250
g1244
ag1178
asg26
I00
sg27
I00
sg28
I3093772
sg20
S'8038.40731769'
p1251
sba(igraph
Edge
p1252
(dp1253
g7
I1
sg8
I00
sg9
I5
sg10
(lp1254
(igraph
Vertex
p1255
(dp1256
g14
F0.0
sg8
I00
sg15
g16
sg17
F285.29032258064524
sg18
F413.0
sg19
I3094390
sg20
S'8038.02430253'
p1257
sg22
F0.94623655913978499
sba(igraph
Vertex
p1258
(dp1259
g14
F0.10000000000000002
sg8
I00
sg15
g16
sg17
F285.29032258064524
sg18
F321.5
sg19
I3094391
sg20
S'8038.02584407'
p1260
sg22
F0.94623655913978499
sbasg26
I00
sg27
I00
sg28
I3093773
sg20
S'8038.41119919'
p1261
sba(igraph
Edge
p1262
(dp1263
g7
I1
sg8
I00
sg9
I5
sg10
(lp1264
g1258
a(igraph
Vertex
p1265
(dp1266
g14
F0.20000000000000004
sg8
I00
sg15
g16
sg17
F285.29032258064524
sg18
F229.99999999999997
sg19
I3094392
sg20
S'8038.02740684'
p1267
sg22
F0.94623655913978499
sbasg26
I00
sg27
I00
sg28
I3093774
sg20
S'8038.41505499'
p1268
sba(igraph
Edge
p1269
(dp1270
g7
I1
sg8
I00
sg9
I5
sg10
(lp1271
g1265
a(igraph
Vertex
p1272
(dp1273
g14
F0.3000000000000001
sg8
I00
sg15
g16
sg17
F285.29032258064524
sg18
F138.49999999999989
sg19
I3094393
sg20
S'8038.02893049'
p1274
sg22
F0.94623655913978499
sbasg26
I00
sg27
I00
sg28
I3093775
sg20
S'8038.41909097'
p1275
sba(igraph
Edge
p1276
(dp1277
g7
I1
sg8
I00
sg9
I5
sg10
(lp1278
g1272
a(igraph
Vertex
p1279
(dp1280
g14
F0.40000000000000008
sg8
I00
sg15
g16
sg17
F285.29032258064524
sg18
F46.999999999999943
sg19
I3094394
sg20
S'8038.03049158'
p1281
sg22
F0.94623655913978499
sbasg26
I00
sg27
I00
sg28
I3093776
sg20
S'8038.42310769'
p1282
sba(igraph
Edge
p1283
(dp1284
g7
I1
sg8
I00
sg9
I5
sg10
(lp1285
g1279
a(igraph
Vertex
p1286
(dp1287
g14
F0.50000000000000022
sg8
I00
sg15
g16
sg17
F285.29032258064524
sg18
F-44.500000000000227
sg19
I3094395
sg20
S'8038.03203843'
p1288
sg22
F0.94623655913978499
sbasg26
I00
sg27
I00
sg28
I3093777
sg20
S'8038.42706964'
p1289
sba(igraph
Edge
p1290
(dp1291
g7
I1
sg8
I00
sg9
I5
sg10
(lp1292
g1286
a(igraph
Vertex
p1293
(dp1294
g14
F0.59999999999999998
sg8
I00
sg15
g16
sg17
F285.29032258064524
sg18
F-136.0
sg19
I3094396
sg20
S'8038.03360958'
p1295
sg22
F0.94623655913978499
sbasg26
I00
sg27
I00
sg28
I3093778
sg20
S'8038.43101512'
p1296
sba(igraph
Edge
p1297
(dp1298
g7
I1
sg8
I00
sg9
I5
sg10
(lp1299
g1293
a(igraph
Vertex
p1300
(dp1301
g14
F0.70000000000000007
sg8
I00
sg15
g16
sg17
F285.29032258064524
sg18
F-227.50000000000011
sg19
I3094397
sg20
S'8038.03515754'
p1302
sg22
F0.94623655913978499
sbasg26
I00
sg27
I00
sg28
I3093779
sg20
S'8038.43497623'
p1303
sba(igraph
Edge
p1304
(dp1305
g7
I1
sg8
I00
sg9
I5
sg10
(lp1306
g1300
a(igraph
Vertex
p1307
(dp1308
g14
F0.80000000000000004
sg8
I00
sg15
g16
sg17
F285.29032258064524
sg18
F-319.0
sg19
I3094398
sg20
S'8038.03670243'
p1309
sg22
F0.94623655913978499
sbasg26
I00
sg27
I00
sg28
I3093780
sg20
S'8038.43897004'
p1310
sba(igraph
Edge
p1311
(dp1312
g7
I1
sg8
I00
sg9
I5
sg10
(lp1313
g1307
a(igraph
Vertex
p1314
(dp1315
g14
F0.90000000000000002
sg8
I00
sg15
g16
sg17
F285.29032258064524
sg18
F-410.5
sg19
I3094399
sg20
S'8038.03829258'
p1316
sg22
F0.94623655913978499
sbasg26
I00
sg27
I00
sg28
I3093781
sg20
S'8038.44301049'
p1317
sba(igraph
Edge
p1318
(dp1319
g7
I1
sg8
I00
sg9
I5
sg10
(lp1320
g1314
a(igraph
Vertex
p1321
(dp1322
g14
F1.0
sg8
I00
sg15
g16
sg17
F285.29032258064524
sg18
F-502.0
sg19
I3094400
sg20
S'8038.03986931'
p1323
sg22
F0.94623655913978499
sbasg26
I00
sg27
I00
sg28
I3093782
sg20
S'8038.44704704'
p1324
sba(igraph
Edge
p1325
(dp1326
g7
I1
sg8
I00
sg9
I5
sg10
(lp1327
g1321
ag1255
asg26
I00
sg27
I00
sg28
I3093783
sg20
S'8038.45125121'
p1328
sba(igraph
Edge
p1329
(dp1330
g7
I1
sg8
I00
sg9
I5
sg10
(lp1331
(igraph
Vertex
p1332
(dp1333
g14
F0.0
sg8
I00
sg15
g16
sg17
F322.37096774193549
sg18
F413.0
sg19
I3094401
sg20
S'8038.04146086'
p1334
sg22
F1.0053763440860215
sba(igraph
Vertex
p1335
(dp1336
g14
F0.10000000000000002
sg8
I01
sg15
I0
sg17
F322.37096774193549
sg18
F321.5
sg19
I3094403
sg20
S'8038.04310129'
p1337
sg22
F1.0053763440860215
sbasg26
I00
sg27
I00
sg28
I3093784
sg20
S'8038.45539838'
p1338
sba(igraph
Edge
p1339
(dp1340
g7
I1
sg8
I00
sg9
I5
sg10
(lp1341
g1335
a(igraph
Vertex
p1342
(dp1343
g14
F0.20000000000000004
sg8
I00
sg15
g16
sg17
F322.37096774193549
sg18
F229.99999999999997
sg19
I3094405
sg20
S'8038.04471518'
p1344
sg22
F1.0053763440860215
sbasg26
I00
sg27
I00
sg28
I3093785
sg20
S'8038.45948661'
p1345
sba(igraph
Edge
p1346
(dp1347
g7
I1
sg8
I00
sg9
I5
sg10
(lp1348
g1342
a(igraph
Vertex
p1349
(dp1350
g14
F0.3000000000000001
sg8
I00
sg15
g16
sg17
F322.37096774193549
sg18
F138.49999999999989
sg19
I3094406
sg20
S'8038.04634639'
p1351
sg22
F1.0053763440860215
sbasg26
I00
sg27
I00
sg28
I3093786
sg20
S'8038.46798043'
p1352
sba(igraph
Edge
p1353
(dp1354
g7
I1
sg8
I00
sg9
I5
sg10
(lp1355
g1349
a(igraph
Vertex
p1356
(dp1357
g14
F0.40000000000000008
sg8
I00
sg15
g16
sg17
F322.37096774193549
sg18
F46.999999999999943
sg19
I3094407
sg20
S'8038.04798291'
p1358
sg22
F1.0053763440860215
sbasg26
I00
sg27
I00
sg28
I3093787
sg20
S'8038.47256369'
p1359
sba(igraph
Edge
p1360
(dp1361
g7
I1
sg8
I00
sg9
I5
sg10
(lp1362
g1356
a(igraph
Vertex
p1363
(dp1364
g14
F0.50000000000000022
sg8
I00
sg15
g16
sg17
F322.37096774193549
sg18
F-44.500000000000227
sg19
I3094408
sg20
S'8038.04968481'
p1365
sg22
F1.0053763440860215
sbasg26
I00
sg27
I00
sg28
I3093788
sg20
S'8038.47723579'
p1366
sba(igraph
Edge
p1367
(dp1368
g7
I1
sg8
I00
sg9
I5
sg10
(lp1369
g1363
a(igraph
Vertex
p1370
(dp1371
g14
F0.59999999999999998
sg8
I00
sg15
g16
sg17
F322.37096774193549
sg18
F-136.0
sg19
I3094409
sg20
S'8038.05145207'
p1372
sg22
F1.0053763440860215
sbasg26
I00
sg27
I00
sg28
I3093789
sg20
S'8038.48180788'
p1373
sba(igraph
Edge
p1374
(dp1375
g7
I1
sg8
I00
sg9
I5
sg10
(lp1376
g1370
a(igraph
Vertex
p1377
(dp1378
g14
F0.70000000000000007
sg8
I00
sg15
g16
sg17
F322.37096774193549
sg18
F-227.50000000000011
sg19
I3094410
sg20
S'8038.05313608'
p1379
sg22
F1.0053763440860215
sbasg26
I00
sg27
I00
sg28
I3093790
sg20
S'8038.48613832'
p1380
sba(igraph
Edge
p1381
(dp1382
g7
I1
sg8
I00
sg9
I5
sg10
(lp1383
g1377
a(igraph
Vertex
p1384
(dp1385
g14
F0.80000000000000004
sg8
I00
sg15
g16
sg17
F322.37096774193549
sg18
F-319.0
sg19
I3094411
sg20
S'8038.05479411'
p1386
sg22
F1.0053763440860215
sbasg26
I00
sg27
I00
sg28
I3093791
sg20
S'8038.4905062'
p1387
sba(igraph
Edge
p1388
(dp1389
g7
I1
sg8
I00
sg9
I5
sg10
(lp1390
g1384
a(igraph
Vertex
p1391
(dp1392
g14
F0.90000000000000002
sg8
I00
sg15
g16
sg17
F322.37096774193549
sg18
F-410.5
sg19
I3094412
sg20
S'8038.0564555'
p1393
sg22
F1.0053763440860215
sbasg26
I00
sg27
I00
sg28
I3093792
sg20
S'8038.49481903'
p1394
sba(igraph
Edge
p1395
(dp1396
g7
I1
sg8
I00
sg9
I5
sg10
(lp1397
g1391
a(igraph
Vertex
p1398
(dp1399
g14
F1.0
sg8
I01
sg15
I0
sg17
F322.37096774193549
sg18
F-502.0
sg19
I3094414
sg20
S'8038.05811828'
p1400
sg22
F1.0053763440860215
sbasg26
I00
sg27
I00
sg28
I3093793
sg20
S'8038.49910869'
p1401
sba(igraph
Edge
p1402
(dp1403
g7
I1
sg8
I00
sg9
I5
sg10
(lp1404
g1398
ag1332
asg26
I00
sg27
I00
sg28
I3093794
sg20
S'8038.50358328'
p1405
sba(igraph
Edge
p1406
(dp1407
g7
I1
sg8
I00
sg9
I5
sg10
(lp1408
g12
ag100
asg26
I00
sg27
I00
sg28
I3093795
sg20
S'8038.50801624'
p1409
sba(igraph
Edge
p1410
(dp1411
g7
I1
sg8
I00
sg9
I5
sg10
(lp1412
g23
ag110
asg26
I00
sg27
I00
sg28
I3093796
sg20
S'8038.51246988'
p1413
sba(igraph
Edge
p1414
(dp1415
g7
I1
sg8
I00
sg9
I5
sg10
(lp1416
g33
ag110
asg26
I00
sg27
I00
sg28
I3093797
sg20
S'8038.51693274'
p1417
sba(igraph
Edge
p1418
(dp1419
g7
I1
sg8
I00
sg9
I5
sg10
(lp1420
g40
ag124
asg26
I00
sg27
I00
sg28
I3093798
sg20
S'8038.52141822'
p1421
sba(igraph
Edge
p1422
(dp1423
g7
I1
sg8
I00
sg9
I5
sg10
(lp1424
g47
ag124
asg26
I00
sg27
I00
sg28
I3093799
sg20
S'8038.52592494'
p1425
sba(igraph
Edge
p1426
(dp1427
g7
I1
sg8
I00
sg9
I5
sg10
(lp1428
g54
ag138
asg26
I00
sg27
I00
sg28
I3093800
sg20
S'8038.53046742'
p1429
sba(igraph
Edge
p1430
(dp1431
g7
I1
sg8
I00
sg9
I5
sg10
(lp1432
g61
ag138
asg26
I00
sg27
I00
sg28
I3093801
sg20
S'8038.53499984'
p1433
sba(igraph
Edge
p1434
(dp1435
g7
I1
sg8
I00
sg9
I5
sg10
(lp1436
g68
ag152
asg26
I00
sg27
I00
sg28
I3093802
sg20
S'8038.53957277'
p1437
sba(igraph
Edge
p1438
(dp1439
g7
I1
sg8
I00
sg9
I5
sg10
(lp1440
g75
ag152
asg26
I00
sg27
I00
sg28
I3093803
sg20
S'8038.54413089'
p1441
sba(igraph
Edge
p1442
(dp1443
g7
I1
sg8
I00
sg9
I5
sg10
(lp1444
g82
ag166
asg26
I00
sg27
I00
sg28
I3093804
sg20
S'8038.5487175'
p1445
sba(igraph
Edge
p1446
(dp1447
g7
I1
sg8
I00
sg9
I5
sg10
(lp1448
g89
ag166
asg26
I00
sg27
I00
sg28
I3093805
sg20
S'8038.55334351'
p1449
sba(igraph
Edge
p1450
(dp1451
g7
I1
sg8
I00
sg9
I5
sg10
(lp1452
g12
ag103
asg26
I00
sg27
I00
sg28
I3093806
sg20
S'8038.55794577'
p1453
sba(igraph
Edge
p1454
(dp1455
g7
I1
sg8
I00
sg9
I5
sg10
(lp1456
g23
ag103
asg26
I00
sg27
I00
sg28
I3093807
sg20
S'8038.56257569'
p1457
sba(igraph
Edge
p1458
(dp1459
g7
I1
sg8
I00
sg9
I5
sg10
(lp1460
g33
ag117
asg26
I00
sg27
I00
sg28
I3093808
sg20
S'8038.56722097'
p1461
sba(igraph
Edge
p1462
(dp1463
g7
I1
sg8
I00
sg9
I5
sg10
(lp1464
g40
ag117
asg26
I00
sg27
I00
sg28
I3093809
sg20
S'8038.57187771'
p1465
sba(igraph
Edge
p1466
(dp1467
g7
I1
sg8
I00
sg9
I5
sg10
(lp1468
g47
ag131
asg26
I00
sg27
I00
sg28
I3093810
sg20
S'8038.57662776'
p1469
sba(igraph
Edge
p1470
(dp1471
g7
I1
sg8
I00
sg9
I5
sg10
(lp1472
g54
ag131
asg26
I00
sg27
I00
sg28
I3093811
sg20
S'8038.58137305'
p1473
sba(igraph
Edge
p1474
(dp1475
g7
I1
sg8
I00
sg9
I5
sg10
(lp1476
g61
ag145
asg26
I00
sg27
I00
sg28
I3093812
sg20
S'8038.58613008'
p1477
sba(igraph
Edge
p1478
(dp1479
g7
I1
sg8
I00
sg9
I5
sg10
(lp1480
g68
ag145
asg26
I00
sg27
I00
sg28
I3093813
sg20
S'8038.5908751'
p1481
sba(igraph
Edge
p1482
(dp1483
g7
I1
sg8
I00
sg9
I5
sg10
(lp1484
g75
ag159
asg26
I00
sg27
I00
sg28
I3093814
sg20
S'8038.59563129'
p1485
sba(igraph
Edge
p1486
(dp1487
g7
I1
sg8
I00
sg9
I5
sg10
(lp1488
g82
ag159
asg26
I00
sg27
I00
sg28
I3093815
sg20
S'8038.60042324'
p1489
sba(igraph
Edge
p1490
(dp1491
g7
I1
sg8
I00
sg9
I5
sg10
(lp1492
g89
ag100
asg26
I00
sg27
I00
sg28
I3093816
sg20
S'8038.60535487'
p1493
sba(igraph
Edge
p1494
(dp1495
g7
I1
sg8
I00
sg9
I5
sg10
(lp1496
g12
ag1332
asg26
I00
sg27
I00
sg28
I3093817
sg20
S'8038.61018761'
p1497
sba(igraph
Edge
p1498
(dp1499
g7
I1
sg8
I00
sg9
I5
sg10
(lp1500
g23
ag1332
asg26
I00
sg27
I00
sg28
I3093818
sg20
S'8038.61508125'
p1501
sba(igraph
Edge
p1502
(dp1503
g7
I1
sg8
I00
sg9
I5
sg10
(lp1504
g33
ag1342
asg26
I00
sg27
I00
sg28
I3093819
sg20
S'8038.61989722'
p1505
sba(igraph
Edge
p1506
(dp1507
g7
I1
sg8
I00
sg9
I5
sg10
(lp1508
g40
ag1342
asg26
I00
sg27
I00
sg28
I3093820
sg20
S'8038.62477605'
p1509
sba(igraph
Edge
p1510
(dp1511
g7
I1
sg8
I00
sg9
I5
sg10
(lp1512
g47
ag1356
asg26
I00
sg27
I00
sg28
I3093821
sg20
S'8038.62967416'
p1513
sba(igraph
Edge
p1514
(dp1515
g7
I1
sg8
I00
sg9
I5
sg10
(lp1516
g54
ag1356
asg26
I00
sg27
I00
sg28
I3093822
sg20
S'8038.63459322'
p1517
sba(igraph
Edge
p1518
(dp1519
g7
I1
sg8
I00
sg9
I5
sg10
(lp1520
g61
ag1370
asg26
I00
sg27
I00
sg28
I3093823
sg20
S'8038.63958632'
p1521
sba(igraph
Edge
p1522
(dp1523
g7
I1
sg8
I00
sg9
I5
sg10
(lp1524
g68
ag1370
asg26
I00
sg27
I00
sg28
I3093824
sg20
S'8038.64452214'
p1525
sba(igraph
Edge
p1526
(dp1527
g7
I1
sg8
I00
sg9
I5
sg10
(lp1528
g75
ag1384
asg26
I00
sg27
I00
sg28
I3093825
sg20
S'8038.64958256'
p1529
sba(igraph
Edge
p1530
(dp1531
g7
I1
sg8
I00
sg9
I5
sg10
(lp1532
g82
ag1384
asg26
I00
sg27
I00
sg28
I3093826
sg20
S'8038.65455805'
p1533
sba(igraph
Edge
p1534
(dp1535
g7
I1
sg8
I00
sg9
I5
sg10
(lp1536
g89
ag1398
asg26
I00
sg27
I00
sg28
I3093827
sg20
S'8038.65963132'
p1537
sba(igraph
Edge
p1538
(dp1539
g7
I1
sg8
I00
sg9
I5
sg10
(lp1540
g12
ag1398
asg26
I00
sg27
I00
sg28
I3093828
sg20
S'8038.66466967'
p1541
sba(igraph
Edge
p1542
(dp1543
g7
I1
sg8
I00
sg9
I5
sg10
(lp1544
g23
ag1335
asg26
I00
sg27
I00
sg28
I3093829
sg20
S'8038.66978848'
p1545
sba(igraph
Edge
p1546
(dp1547
g7
I1
sg8
I00
sg9
I5
sg10
(lp1548
g33
ag1335
asg26
I00
sg27
I00
sg28
I3093830
sg20
S'8038.67493718'
p1549
sba(igraph
Edge
p1550
(dp1551
g7
I1
sg8
I00
sg9
I5
sg10
(lp1552
g40
ag1349
asg26
I00
sg27
I00
sg28
I3093831
sg20
S'8038.68015069'
p1553
sba(igraph
Edge
p1554
(dp1555
g7
I1
sg8
I00
sg9
I5
sg10
(lp1556
g47
ag1349
asg26
I00
sg27
I00
sg28
I3093832
sg20
S'8038.68533794'
p1557
sba(igraph
Edge
p1558
(dp1559
g7
I1
sg8
I00
sg9
I5
sg10
(lp1560
g54
ag1363
asg26
I00
sg27
I00
sg28
I3093833
sg20
S'8038.69048413'
p1561
sba(igraph
Edge
p1562
(dp1563
g7
I1
sg8
I00
sg9
I5
sg10
(lp1564
g61
ag1363
asg26
I00
sg27
I00
sg28
I3093834
sg20
S'8038.69565545'
p1565
sba(igraph
Edge
p1566
(dp1567
g7
I1
sg8
I00
sg9
I5
sg10
(lp1568
g68
ag1377
asg26
I00
sg27
I00
sg28
I3093835
sg20
S'8038.70088098'
p1569
sba(igraph
Edge
p1570
(dp1571
g7
I1
sg8
I00
sg9
I5
sg10
(lp1572
g75
ag1377
asg26
I00
sg27
I00
sg28
I3093836
sg20
S'8038.70626378'
p1573
sba(igraph
Edge
p1574
(dp1575
g7
I1
sg8
I00
sg9
I5
sg10
(lp1576
g82
ag1391
asg26
I00
sg27
I00
sg28
I3093837
sg20
S'8038.71155328'
p1577
sba(igraph
Edge
p1578
(dp1579
g7
I1
sg8
I00
sg9
I5
sg10
(lp1580
g89
ag1391
asg26
I00
sg27
I00
sg28
I3093838
sg20
S'8038.71696403'
p1581
sba(igraph
Edge
p1582
(dp1583
g7
I1
sg8
I00
sg9
I5
sg10
(lp1584
g100
ag177
asg26
I00
sg27
I00
sg28
I3093839
sg20
S'8038.72234963'
p1585
sba(igraph
Edge
p1586
(dp1587
g7
I1
sg8
I00
sg9
I5
sg10
(lp1588
g103
ag187
asg26
I00
sg27
I00
sg28
I3093840
sg20
S'8038.72778468'
p1589
sba(igraph
Edge
p1590
(dp1591
g7
I1
sg8
I00
sg9
I5
sg10
(lp1592
g110
ag187
asg26
I00
sg27
I00
sg28
I3093841
sg20
S'8038.73313508'
p1593
sba(igraph
Edge
p1594
(dp1595
g7
I1
sg8
I00
sg9
I5
sg10
(lp1596
g117
ag201
asg26
I00
sg27
I00
sg28
I3093842
sg20
S'8038.73855951'
p1597
sba(igraph
Edge
p1598
(dp1599
g7
I1
sg8
I00
sg9
I5
sg10
(lp1600
g124
ag201
asg26
I00
sg27
I00
sg28
I3093843
sg20
S'8038.74405322'
p1601
sba(igraph
Edge
p1602
(dp1603
g7
I1
sg8
I00
sg9
I5
sg10
(lp1604
g131
ag215
asg26
I00
sg27
I00
sg28
I3093844
sg20
S'8038.74963969'
p1605
sba(igraph
Edge
p1606
(dp1607
g7
I1
sg8
I00
sg9
I5
sg10
(lp1608
g138
ag215
asg26
I00
sg27
I00
sg28
I3093845
sg20
S'8038.75521861'
p1609
sba(igraph
Edge
p1610
(dp1611
g7
I1
sg8
I00
sg9
I5
sg10
(lp1612
g145
ag229
asg26
I00
sg27
I00
sg28
I3093846
sg20
S'8038.76077351'
p1613
sba(igraph
Edge
p1614
(dp1615
g7
I1
sg8
I00
sg9
I5
sg10
(lp1616
g152
ag229
asg26
I00
sg27
I00
sg28
I3093847
sg20
S'8038.76640523'
p1617
sba(igraph
Edge
p1618
(dp1619
g7
I1
sg8
I00
sg9
I5
sg10
(lp1620
g159
ag243
asg26
I00
sg27
I00
sg28
I3093848
sg20
S'8038.77199616'
p1621
sba(igraph
Edge
p1622
(dp1623
g7
I1
sg8
I00
sg9
I5
sg10
(lp1624
g166
ag243
asg26
I00
sg27
I00
sg28
I3093849
sg20
S'8038.77758039'
p1625
sba(igraph
Edge
p1626
(dp1627
g7
I1
sg8
I00
sg9
I5
sg10
(lp1628
g100
ag180
asg26
I00
sg27
I00
sg28
I3093850
sg20
S'8038.78315317'
p1629
sba(igraph
Edge
p1630
(dp1631
g7
I1
sg8
I00
sg9
I5
sg10
(lp1632
g103
ag180
asg26
I00
sg27
I00
sg28
I3093851
sg20
S'8038.7886994'
p1633
sba(igraph
Edge
p1634
(dp1635
g7
I1
sg8
I00
sg9
I5
sg10
(lp1636
g110
ag194
asg26
I00
sg27
I00
sg28
I3093852
sg20
S'8038.79435068'
p1637
sba(igraph
Edge
p1638
(dp1639
g7
I1
sg8
I00
sg9
I5
sg10
(lp1640
g117
ag194
asg26
I00
sg27
I00
sg28
I3093853
sg20
S'8038.80006453'
p1641
sba(igraph
Edge
p1642
(dp1643
g7
I1
sg8
I00
sg9
I5
sg10
(lp1644
g124
ag208
asg26
I00
sg27
I00
sg28
I3093854
sg20
S'8038.80597981'
p1645
sba(igraph
Edge
p1646
(dp1647
g7
I1
sg8
I00
sg9
I5
sg10
(lp1648
g131
ag208
asg26
I00
sg27
I00
sg28
I3093855
sg20
S'8038.81176686'
p1649
sba(igraph
Edge
p1650
(dp1651
g7
I1
sg8
I00
sg9
I5
sg10
(lp1652
g138
ag222
asg26
I00
sg27
I00
sg28
I3093856
sg20
S'8038.81752318'
p1653
sba(igraph
Edge
p1654
(dp1655
g7
I1
sg8
I00
sg9
I5
sg10
(lp1656
g145
ag222
asg26
I00
sg27
I00
sg28
I3093857
sg20
S'8038.82326748'
p1657
sba(igraph
Edge
p1658
(dp1659
g7
I1
sg8
I00
sg9
I5
sg10
(lp1660
g152
ag236
asg26
I00
sg27
I00
sg28
I3093858
sg20
S'8038.8291984'
p1661
sba(igraph
Edge
p1662
(dp1663
g7
I1
sg8
I00
sg9
I5
sg10
(lp1664
g159
ag236
asg26
I00
sg27
I00
sg28
I3093859
sg20
S'8038.83491366'
p1665
sba(igraph
Edge
p1666
(dp1667
g7
I1
sg8
I00
sg9
I5
sg10
(lp1668
g166
ag177
asg26
I00
sg27
I00
sg28
I3093860
sg20
S'8038.84157288'
p1669
sba(igraph
Edge
p1670
(dp1671
g7
I1
sg8
I00
sg9
I5
sg10
(lp1672
g177
ag254
asg26
I00
sg27
I00
sg28
I3093861
sg20
S'8038.84742698'
p1673
sba(igraph
Edge
p1674
(dp1675
g7
I1
sg8
I00
sg9
I5
sg10
(lp1676
g180
ag264
asg26
I00
sg27
I00
sg28
I3093862
sg20
S'8038.85338081'
p1677
sba(igraph
Edge
p1678
(dp1679
g7
I1
sg8
I00
sg9
I5
sg10
(lp1680
g187
ag264
asg26
I00
sg27
I00
sg28
I3093863
sg20
S'8038.85925725'
p1681
sba(igraph
Edge
p1682
(dp1683
g7
I1
sg8
I00
sg9
I5
sg10
(lp1684
g194
ag278
asg26
I00
sg27
I00
sg28
I3093864
sg20
S'8038.86512867'
p1685
sba(igraph
Edge
p1686
(dp1687
g7
I1
sg8
I00
sg9
I5
sg10
(lp1688
g201
ag278
asg26
I00
sg27
I00
sg28
I3093865
sg20
S'8038.87107021'
p1689
sba(igraph
Edge
p1690
(dp1691
g7
I1
sg8
I00
sg9
I5
sg10
(lp1692
g208
ag292
asg26
I00
sg27
I00
sg28
I3093866
sg20
S'8038.87695531'
p1693
sba(igraph
Edge
p1694
(dp1695
g7
I1
sg8
I00
sg9
I5
sg10
(lp1696
g215
ag292
asg26
I00
sg27
I00
sg28
I3093867
sg20
S'8038.88287841'
p1697
sba(igraph
Edge
p1698
(dp1699
g7
I1
sg8
I00
sg9
I5
sg10
(lp1700
g222
ag306
asg26
I00
sg27
I00
sg28
I3093868
sg20
S'8038.88913898'
p1701
sba(igraph
Edge
p1702
(dp1703
g7
I1
sg8
I00
sg9
I5
sg10
(lp1704
g229
ag306
asg26
I00
sg27
I00
sg28
I3093869
sg20
S'8038.89519841'
p1705
sba(igraph
Edge
p1706
(dp1707
g7
I1
sg8
I00
sg9
I5
sg10
(lp1708
g236
ag320
asg26
I00
sg27
I00
sg28
I3093870
sg20
S'8038.90128215'
p1709
sba(igraph
Edge
p1710
(dp1711
g7
I1
sg8
I00
sg9
I5
sg10
(lp1712
g243
ag320
asg26
I00
sg27
I00
sg28
I3093871
sg20
S'8038.90763044'
p1713
sba(igraph
Edge
p1714
(dp1715
g7
I1
sg8
I00
sg9
I5
sg10
(lp1716
g177
ag257
asg26
I00
sg27
I00
sg28
I3093872
sg20
S'8038.91376111'
p1717
sba(igraph
Edge
p1718
(dp1719
g7
I1
sg8
I00
sg9
I5
sg10
(lp1720
g180
ag257
asg26
I00
sg27
I00
sg28
I3093873
sg20
S'8038.91980796'
p1721
sba(igraph
Edge
p1722
(dp1723
g7
I1
sg8
I00
sg9
I5
sg10
(lp1724
g187
ag271
asg26
I00
sg27
I00
sg28
I3093874
sg20
S'8038.92597914'
p1725
sba(igraph
Edge
p1726
(dp1727
g7
I1
sg8
I01
sg9
I5
sg10
(lp1728
g194
ag271
asg26
I00
sg27
I00
sg28
I3093876
sg20
S'8038.9320883'
p1729
sba(igraph
Edge
p1730
(dp1731
g7
I1
sg8
I00
sg9
I5
sg10
(lp1732
g201
ag285
asg26
I00
sg27
I00
sg28
I3093877
sg20
S'8038.93831395'
p1733
sba(igraph
Edge
p1734
(dp1735
g7
I1
sg8
I00
sg9
I5
sg10
(lp1736
g208
ag285
asg26
I00
sg27
I00
sg28
I3093878
sg20
S'8038.94467593'
p1737
sba(igraph
Edge
p1738
(dp1739
g7
I1
sg8
I00
sg9
I5
sg10
(lp1740
g215
ag299
asg26
I00
sg27
I00
sg28
I3093879
sg20
S'8038.95075184'
p1741
sba(igraph
Edge
p1742
(dp1743
g7
I1
sg8
I00
sg9
I5
sg10
(lp1744
g222
ag299
asg26
I00
sg27
I00
sg28
I3093880
sg20
S'8038.95695822'
p1745
sba(igraph
Edge
p1746
(dp1747
g7
I1
sg8
I00
sg9
I5
sg10
(lp1748
g229
ag313
asg26
I00
sg27
I00
sg28
I3093881
sg20
S'8038.9633797'
p1749
sba(igraph
Edge
p1750
(dp1751
g7
I1
sg8
I00
sg9
I5
sg10
(lp1752
g236
ag313
asg26
I00
sg27
I00
sg28
I3093882
sg20
S'8038.96968302'
p1753
sba(igraph
Edge
p1754
(dp1755
g7
I1
sg8
I00
sg9
I5
sg10
(lp1756
g243
ag254
asg26
I00
sg27
I00
sg28
I3093883
sg20
S'8038.97593018'
p1757
sba(igraph
Edge
p1758
(dp1759
g7
I1
sg8
I00
sg9
I5
sg10
(lp1760
g254
ag331
asg26
I00
sg27
I00
sg28
I3093884
sg20
S'8038.98221282'
p1761
sba(igraph
Edge
p1762
(dp1763
g7
I1
sg8
I00
sg9
I5
sg10
(lp1764
g257
ag341
asg26
I00
sg27
I00
sg28
I3093885
sg20
S'8038.98850496'
p1765
sba(igraph
Edge
p1766
(dp1767
g7
I1
sg8
I00
sg9
I5
sg10
(lp1768
g264
ag341
asg26
I00
sg27
I00
sg28
I3093886
sg20
S'8038.99475995'
p1769
sba(igraph
Edge
p1770
(dp1771
g7
I1
sg8
I00
sg9
I5
sg10
(lp1772
g271
ag355
asg26
I00
sg27
I00
sg28
I3093887
sg20
S'8039.00114037'
p1773
sba(igraph
Edge
p1774
(dp1775
g7
I1
sg8
I00
sg9
I5
sg10
(lp1776
g278
ag355
asg26
I00
sg27
I00
sg28
I3093888
sg20
S'8039.00759063'
p1777
sba(igraph
Edge
p1778
(dp1779
g7
I1
sg8
I00
sg9
I5
sg10
(lp1780
g285
ag369
asg26
I00
sg27
I00
sg28
I3093889
sg20
S'8039.01413252'
p1781
sba(igraph
Edge
p1782
(dp1783
g7
I1
sg8
I00
sg9
I5
sg10
(lp1784
g292
ag369
asg26
I00
sg27
I00
sg28
I3093890
sg20
S'8039.02067106'
p1785
sba(igraph
Edge
p1786
(dp1787
g7
I1
sg8
I00
sg9
I5
sg10
(lp1788
g299
ag383
asg26
I00
sg27
I00
sg28
I3093891
sg20
S'8039.0273342'
p1789
sba(igraph
Edge
p1790
(dp1791
g7
I1
sg8
I00
sg9
I5
sg10
(lp1792
g306
ag383
asg26
I00
sg27
I00
sg28
I3093892
sg20
S'8039.03388811'
p1793
sba(igraph
Edge
p1794
(dp1795
g7
I1
sg8
I00
sg9
I5
sg10
(lp1796
g313
ag397
asg26
I00
sg27
I00
sg28
I3093893
sg20
S'8039.04058421'
p1797
sba(igraph
Edge
p1798
(dp1799
g7
I1
sg8
I00
sg9
I5
sg10
(lp1800
g320
ag397
asg26
I00
sg27
I00
sg28
I3093894
sg20
S'8039.04706911'
p1801
sba(igraph
Edge
p1802
(dp1803
g7
I1
sg8
I00
sg9
I5
sg10
(lp1804
g254
ag334
asg26
I00
sg27
I00
sg28
I3093895
sg20
S'8039.05369258'
p1805
sba(igraph
Edge
p1806
(dp1807
g7
I1
sg8
I00
sg9
I5
sg10
(lp1808
g257
ag334
asg26
I00
sg27
I00
sg28
I3093896
sg20
S'8039.06026408'
p1809
sba(igraph
Edge
p1810
(dp1811
g7
I1
sg8
I00
sg9
I5
sg10
(lp1812
g264
ag348
asg26
I00
sg27
I00
sg28
I3093897
sg20
S'8039.06676407'
p1813
sba(igraph
Edge
p1814
(dp1815
g7
I1
sg8
I00
sg9
I5
sg10
(lp1816
g271
ag348
asg26
I00
sg27
I00
sg28
I3093898
sg20
S'8039.07346073'
p1817
sba(igraph
Edge
p1818
(dp1819
g7
I1
sg8
I00
sg9
I5
sg10
(lp1820
g278
ag362
asg26
I00
sg27
I00
sg28
I3093899
sg20
S'8039.0806284'
p1821
sba(igraph
Edge
p1822
(dp1823
g7
I1
sg8
I00
sg9
I5
sg10
(lp1824
g285
ag362
asg26
I00
sg27
I00
sg28
I3093900
sg20
S'8039.08799219'
p1825
sba(igraph
Edge
p1826
(dp1827
g7
I1
sg8
I00
sg9
I5
sg10
(lp1828
g292
ag376
asg26
I00
sg27
I00
sg28
I3093901
sg20
S'8039.09517439'
p1829
sba(igraph
Edge
p1830
(dp1831
g7
I1
sg8
I00
sg9
I5
sg10
(lp1832
g299
ag376
asg26
I00
sg27
I00
sg28
I3093902
sg20
S'8039.10269043'
p1833
sba(igraph
Edge
p1834
(dp1835
g7
I1
sg8
I00
sg9
I5
sg10
(lp1836
g306
ag390
asg26
I00
sg27
I00
sg28
I3093903
sg20
S'8039.11018076'
p1837
sba(igraph
Edge
p1838
(dp1839
g7
I1
sg8
I00
sg9
I5
sg10
(lp1840
g313
ag390
asg26
I00
sg27
I00
sg28
I3093904
sg20
S'8039.11773647'
p1841
sba(igraph
Edge
p1842
(dp1843
g7
I1
sg8
I00
sg9
I5
sg10
(lp1844
g320
ag331
asg26
I00
sg27
I00
sg28
I3093905
sg20
S'8039.12517904'
p1845
sba(igraph
Edge
p1846
(dp1847
g7
I1
sg8
I00
sg9
I5
sg10
(lp1848
g331
ag408
asg26
I00
sg27
I00
sg28
I3093906
sg20
S'8039.13263809'
p1849
sba(igraph
Edge
p1850
(dp1851
g7
I1
sg8
I00
sg9
I5
sg10
(lp1852
g334
ag418
asg26
I00
sg27
I00
sg28
I3093907
sg20
S'8039.14068436'
p1853
sba(igraph
Edge
p1854
(dp1855
g7
I1
sg8
I00
sg9
I5
sg10
(lp1856
g341
ag418
asg26
I00
sg27
I00
sg28
I3093908
sg20
S'8039.14815458'
p1857
sba(igraph
Edge
p1858
(dp1859
g7
I1
sg8
I00
sg9
I5
sg10
(lp1860
g348
ag432
asg26
I00
sg27
I00
sg28
I3093909
sg20
S'8039.15557564'
p1861
sba(igraph
Edge
p1862
(dp1863
g7
I1
sg8
I00
sg9
I5
sg10
(lp1864
g355
ag432
asg26
I00
sg27
I00
sg28
I3093910
sg20
S'8039.16439939'
p1865
sba(igraph
Edge
p1866
(dp1867
g7
I1
sg8
I00
sg9
I5
sg10
(lp1868
g362
ag446
asg26
I00
sg27
I00
sg28
I3093911
sg20
S'8039.17256746'
p1869
sba(igraph
Edge
p1870
(dp1871
g7
I1
sg8
I00
sg9
I5
sg10
(lp1872
g369
ag446
asg26
I00
sg27
I00
sg28
I3093912
sg20
S'8039.17990555'
p1873
sba(igraph
Edge
p1874
(dp1875
g7
I1
sg8
I00
sg9
I5
sg10
(lp1876
g376
ag460
asg26
I00
sg27
I00
sg28
I3093913
sg20
S'8039.18759787'
p1877
sba(igraph
Edge
p1878
(dp1879
g7
I1
sg8
I00
sg9
I5
sg10
(lp1880
g383
ag460
asg26
I00
sg27
I00
sg28
I3093914
sg20
S'8039.19620902'
p1881
sba(igraph
Edge
p1882
(dp1883
g7
I1
sg8
I00
sg9
I5
sg10
(lp1884
g390
ag474
asg26
I00
sg27
I00
sg28
I3093915
sg20
S'8039.20456036'
p1885
sba(igraph
Edge
p1886
(dp1887
g7
I1
sg8
I00
sg9
I5
sg10
(lp1888
g397
ag474
asg26
I00
sg27
I00
sg28
I3093916
sg20
S'8039.21320754'
p1889
sba(igraph
Edge
p1890
(dp1891
g7
I1
sg8
I00
sg9
I5
sg10
(lp1892
g331
ag411
asg26
I00
sg27
I00
sg28
I3093917
sg20
S'8039.22193491'
p1893
sba(igraph
Edge
p1894
(dp1895
g7
I1
sg8
I00
sg9
I5
sg10
(lp1896
g334
ag411
asg26
I00
sg27
I00
sg28
I3093918
sg20
S'8039.2302544'
p1897
sba(igraph
Edge
p1898
(dp1899
g7
I1
sg8
I00
sg9
I5
sg10
(lp1900
g341
ag425
asg26
I00
sg27
I00
sg28
I3093919
sg20
S'8039.23857669'
p1901
sba(igraph
Edge
p1902
(dp1903
g7
I1
sg8
I00
sg9
I5
sg10
(lp1904
g348
ag425
asg26
I00
sg27
I00
sg28
I3093920
sg20
S'8039.24647239'
p1905
sba(igraph
Edge
p1906
(dp1907
g7
I1
sg8
I00
sg9
I5
sg10
(lp1908
g355
ag439
asg26
I00
sg27
I00
sg28
I3093921
sg20
S'8039.25433707'
p1909
sba(igraph
Edge
p1910
(dp1911
g7
I1
sg8
I00
sg9
I5
sg10
(lp1912
g362
ag439
asg26
I00
sg27
I00
sg28
I3093922
sg20
S'8039.26212996'
p1913
sba(igraph
Edge
p1914
(dp1915
g7
I1
sg8
I00
sg9
I5
sg10
(lp1916
g369
ag453
asg26
I00
sg27
I00
sg28
I3093923
sg20
S'8039.2696907'
p1917
sba(igraph
Edge
p1918
(dp1919
g7
I1
sg8
I00
sg9
I5
sg10
(lp1920
g376
ag453
asg26
I00
sg27
I00
sg28
I3093924
sg20
S'8039.27883348'
p1921
sba(igraph
Edge
p1922
(dp1923
g7
I1
sg8
I00
sg9
I5
sg10
(lp1924
g383
ag467
asg26
I00
sg27
I00
sg28
I3093925
sg20
S'8039.28661911'
p1925
sba(igraph
Edge
p1926
(dp1927
g7
I1
sg8
I00
sg9
I5
sg10
(lp1928
g390
ag467
asg26
I00
sg27
I00
sg28
I3093926
sg20
S'8039.29434886'
p1929
sba(igraph
Edge
p1930
(dp1931
g7
I1
sg8
I00
sg9
I5
sg10
(lp1932
g397
ag408
asg26
I00
sg27
I00
sg28
I3093927
sg20
S'8039.30413335'
p1933
sba(igraph
Edge
p1934
(dp1935
g7
I1
sg8
I00
sg9
I5
sg10
(lp1936
g408
ag485
asg26
I00
sg27
I00
sg28
I3093928
sg20
S'8039.31359572'
p1937
sba(igraph
Edge
p1938
(dp1939
g7
I1
sg8
I00
sg9
I5
sg10
(lp1940
g411
ag495
asg26
I00
sg27
I00
sg28
I3093929
sg20
S'8039.32336121'
p1941
sba(igraph
Edge
p1942
(dp1943
g7
I1
sg8
I00
sg9
I5
sg10
(lp1944
g418
ag495
asg26
I00
sg27
I00
sg28
I3093930
sg20
S'8039.33264786'
p1945
sba(igraph
Edge
p1946
(dp1947
g7
I1
sg8
I00
sg9
I5
sg10
(lp1948
g425
ag509
asg26
I00
sg27
I00
sg28
I3093931
sg20
S'8039.34173114'
p1949
sba(igraph
Edge
p1950
(dp1951
g7
I1
sg8
I00
sg9
I5
sg10
(lp1952
g432
ag509
asg26
I00
sg27
I00
sg28
I3093932
sg20
S'8039.3512885'
p1953
sba(igraph
Edge
p1954
(dp1955
g7
I1
sg8
I00
sg9
I5
sg10
(lp1956
g439
ag523
asg26
I00
sg27
I00
sg28
I3093933
sg20
S'8039.3605542'
p1957
sba(igraph
Edge
p1958
(dp1959
g7
I1
sg8
I00
sg9
I5
sg10
(lp1960
g446
ag523
asg26
I00
sg27
I00
sg28
I3093934
sg20
S'8039.36892957'
p1961
sba(igraph
Edge
p1962
(dp1963
g7
I1
sg8
I00
sg9
I5
sg10
(lp1964
g453
ag537
asg26
I00
sg27
I00
sg28
I3093935
sg20
S'8039.37839921'
p1965
sba(igraph
Edge
p1966
(dp1967
g7
I1
sg8
I00
sg9
I5
sg10
(lp1968
g460
ag537
asg26
I00
sg27
I00
sg28
I3093936
sg20
S'8039.38636028'
p1969
sba(igraph
Edge
p1970
(dp1971
g7
I1
sg8
I00
sg9
I5
sg10
(lp1972
g467
ag551
asg26
I00
sg27
I00
sg28
I3093937
sg20
S'8039.3945359'
p1973
sba(igraph
Edge
p1974
(dp1975
g7
I1
sg8
I00
sg9
I5
sg10
(lp1976
g474
ag551
asg26
I00
sg27
I00
sg28
I3093938
sg20
S'8039.40312833'
p1977
sba(igraph
Edge
p1978
(dp1979
g7
I1
sg8
I00
sg9
I5
sg10
(lp1980
g408
ag488
asg26
I00
sg27
I00
sg28
I3093939
sg20
S'8039.41103269'
p1981
sba(igraph
Edge
p1982
(dp1983
g7
I1
sg8
I00
sg9
I5
sg10
(lp1984
g411
ag488
asg26
I00
sg27
I00
sg28
I3093940
sg20
S'8039.41897615'
p1985
sba(igraph
Edge
p1986
(dp1987
g7
I1
sg8
I00
sg9
I5
sg10
(lp1988
g418
ag502
asg26
I00
sg27
I00
sg28
I3093941
sg20
S'8039.42735487'
p1989
sba(igraph
Edge
p1990
(dp1991
g7
I1
sg8
I00
sg9
I5
sg10
(lp1992
g425
ag502
asg26
I00
sg27
I00
sg28
I3093942
sg20
S'8039.43556793'
p1993
sba(igraph
Edge
p1994
(dp1995
g7
I1
sg8
I00
sg9
I5
sg10
(lp1996
g432
ag516
asg26
I00
sg27
I00
sg28
I3093943
sg20
S'8039.44463835'
p1997
sba(igraph
Edge
p1998
(dp1999
g7
I1
sg8
I00
sg9
I5
sg10
(lp2000
g439
ag516
asg26
I00
sg27
I00
sg28
I3093944
sg20
S'8039.45401105'
p2001
sba(igraph
Edge
p2002
(dp2003
g7
I1
sg8
I00
sg9
I5
sg10
(lp2004
g446
ag530
asg26
I00
sg27
I00
sg28
I3093945
sg20
S'8039.46454396'
p2005
sba(igraph
Edge
p2006
(dp2007
g7
I1
sg8
I00
sg9
I5
sg10
(lp2008
g453
ag530
asg26
I00
sg27
I00
sg28
I3093946
sg20
S'8039.47365126'
p2009
sba(igraph
Edge
p2010
(dp2011
g7
I1
sg8
I00
sg9
I5
sg10
(lp2012
g460
ag544
asg26
I00
sg27
I00
sg28
I3093947
sg20
S'8039.48280047'
p2013
sba(igraph
Edge
p2014
(dp2015
g7
I1
sg8
I00
sg9
I5
sg10
(lp2016
g467
ag544
asg26
I00
sg27
I00
sg28
I3093948
sg20
S'8039.49194213'
p2017
sba(igraph
Edge
p2018
(dp2019
g7
I1
sg8
I00
sg9
I5
sg10
(lp2020
g474
ag485
asg26
I00
sg27
I00
sg28
I3093949
sg20
S'8039.50076588'
p2021
sba(igraph
Edge
p2022
(dp2023
g7
I1
sg8
I00
sg9
I5
sg10
(lp2024
g485
ag562
asg26
I00
sg27
I00
sg28
I3093950
sg20
S'8039.50938709'
p2025
sba(igraph
Edge
p2026
(dp2027
g7
I1
sg8
I00
sg9
I5
sg10
(lp2028
g488
ag572
asg26
I00
sg27
I00
sg28
I3093951
sg20
S'8039.51878912'
p2029
sba(igraph
Edge
p2030
(dp2031
g7
I1
sg8
I00
sg9
I5
sg10
(lp2032
g495
ag572
asg26
I00
sg27
I00
sg28
I3093952
sg20
S'8039.52761957'
p2033
sba(igraph
Edge
p2034
(dp2035
g7
I1
sg8
I00
sg9
I5
sg10
(lp2036
g502
ag586
asg26
I00
sg27
I00
sg28
I3093953
sg20
S'8039.53607931'
p2037
sba(igraph
Edge
p2038
(dp2039
g7
I1
sg8
I00
sg9
I5
sg10
(lp2040
g509
ag586
asg26
I00
sg27
I00
sg28
I3093954
sg20
S'8039.54468682'
p2041
sba(igraph
Edge
p2042
(dp2043
g7
I1
sg8
I00
sg9
I5
sg10
(lp2044
g516
ag600
asg26
I00
sg27
I00
sg28
I3093955
sg20
S'8039.55329602'
p2045
sba(igraph
Edge
p2046
(dp2047
g7
I1
sg8
I00
sg9
I5
sg10
(lp2048
g523
ag600
asg26
I00
sg27
I00
sg28
I3093956
sg20
S'8039.56167725'
p2049
sba(igraph
Edge
p2050
(dp2051
g7
I1
sg8
I00
sg9
I5
sg10
(lp2052
g530
ag614
asg26
I00
sg27
I00
sg28
I3093957
sg20
S'8039.56990958'
p2053
sba(igraph
Edge
p2054
(dp2055
g7
I1
sg8
I00
sg9
I5
sg10
(lp2056
g537
ag614
asg26
I00
sg27
I00
sg28
I3093958
sg20
S'8039.57917584'
p2057
sba(igraph
Edge
p2058
(dp2059
g7
I1
sg8
I00
sg9
I5
sg10
(lp2060
g544
ag628
asg26
I00
sg27
I00
sg28
I3093959
sg20
S'8039.58983307'
p2061
sba(igraph
Edge
p2062
(dp2063
g7
I1
sg8
I00
sg9
I5
sg10
(lp2064
g551
ag628
asg26
I00
sg27
I00
sg28
I3093960
sg20
S'8039.60237628'
p2065
sba(igraph
Edge
p2066
(dp2067
g7
I1
sg8
I00
sg9
I5
sg10
(lp2068
g485
ag565
asg26
I00
sg27
I00
sg28
I3093961
sg20
S'8039.61349417'
p2069
sba(igraph
Edge
p2070
(dp2071
g7
I1
sg8
I00
sg9
I5
sg10
(lp2072
g488
ag565
asg26
I00
sg27
I00
sg28
I3093962
sg20
S'8039.62374827'
p2073
sba(igraph
Edge
p2074
(dp2075
g7
I1
sg8
I00
sg9
I5
sg10
(lp2076
g495
ag579
asg26
I00
sg27
I00
sg28
I3093963
sg20
S'8039.63259241'
p2077
sba(igraph
Edge
p2078
(dp2079
g7
I1
sg8
I00
sg9
I5
sg10
(lp2080
g502
ag579
asg26
I00
sg27
I00
sg28
I3093964
sg20
S'8039.64151086'
p2081
sba(igraph
Edge
p2082
(dp2083
g7
I1
sg8
I00
sg9
I5
sg10
(lp2084
g509
ag593
asg26
I00
sg27
I00
sg28
I3093965
sg20
S'8039.65051955'
p2085
sba(igraph
Edge
p2086
(dp2087
g7
I1
sg8
I00
sg9
I5
sg10
(lp2088
g516
ag593
asg26
I00
sg27
I00
sg28
I3093966
sg20
S'8039.65882452'
p2089
sba(igraph
Edge
p2090
(dp2091
g7
I1
sg8
I00
sg9
I5
sg10
(lp2092
g523
ag607
asg26
I00
sg27
I00
sg28
I3093967
sg20
S'8039.66710909'
p2093
sba(igraph
Edge
p2094
(dp2095
g7
I1
sg8
I00
sg9
I5
sg10
(lp2096
g530
ag607
asg26
I00
sg27
I00
sg28
I3093968
sg20
S'8039.67534757'
p2097
sba(igraph
Edge
p2098
(dp2099
g7
I1
sg8
I00
sg9
I5
sg10
(lp2100
g537
ag621
asg26
I00
sg27
I00
sg28
I3093969
sg20
S'8039.6836665'
p2101
sba(igraph
Edge
p2102
(dp2103
g7
I1
sg8
I00
sg9
I5
sg10
(lp2104
g544
ag621
asg26
I00
sg27
I00
sg28
I3093970
sg20
S'8039.69188263'
p2105
sba(igraph
Edge
p2106
(dp2107
g7
I1
sg8
I00
sg9
I5
sg10
(lp2108
g551
ag562
asg26
I00
sg27
I00
sg28
I3093971
sg20
S'8039.70016133'
p2109
sba(igraph
Edge
p2110
(dp2111
g7
I1
sg8
I00
sg9
I5
sg10
(lp2112
g562
ag639
asg26
I00
sg27
I00
sg28
I3093972
sg20
S'8039.70832326'
p2113
sba(igraph
Edge
p2114
(dp2115
g7
I1
sg8
I00
sg9
I5
sg10
(lp2116
g565
ag649
asg26
I00
sg27
I00
sg28
I3093973
sg20
S'8039.71664639'
p2117
sba(igraph
Edge
p2118
(dp2119
g7
I1
sg8
I00
sg9
I5
sg10
(lp2120
g572
ag649
asg26
I00
sg27
I00
sg28
I3093974
sg20
S'8039.72524497'
p2121
sba(igraph
Edge
p2122
(dp2123
g7
I1
sg8
I00
sg9
I5
sg10
(lp2124
g579
ag663
asg26
I00
sg27
I00
sg28
I3093975
sg20
S'8039.7336167'
p2125
sba(igraph
Edge
p2126
(dp2127
g7
I1
sg8
I00
sg9
I5
sg10
(lp2128
g586
ag663
asg26
I00
sg27
I00
sg28
I3093976
sg20
S'8039.74199514'
p2129
sba(igraph
Edge
p2130
(dp2131
g7
I1
sg8
I00
sg9
I5
sg10
(lp2132
g593
ag677
asg26
I00
sg27
I00
sg28
I3093977
sg20
S'8039.75043225'
p2133
sba(igraph
Edge
p2134
(dp2135
g7
I1
sg8
I00
sg9
I5
sg10
(lp2136
g600
ag677
asg26
I00
sg27
I00
sg28
I3093978
sg20
S'8039.75891517'
p2137
sba(igraph
Edge
p2138
(dp2139
g7
I1
sg8
I00
sg9
I5
sg10
(lp2140
g607
ag691
asg26
I00
sg27
I00
sg28
I3093979
sg20
S'8039.767352'
p2141
sba(igraph
Edge
p2142
(dp2143
g7
I1
sg8
I00
sg9
I5
sg10
(lp2144
g614
ag691
asg26
I00
sg27
I00
sg28
I3093980
sg20
S'8039.77608216'
p2145
sba(igraph
Edge
p2146
(dp2147
g7
I1
sg8
I00
sg9
I5
sg10
(lp2148
g621
ag705
asg26
I00
sg27
I00
sg28
I3093981
sg20
S'8039.7845905'
p2149
sba(igraph
Edge
p2150
(dp2151
g7
I1
sg8
I00
sg9
I5
sg10
(lp2152
g628
ag705
asg26
I00
sg27
I00
sg28
I3093982
sg20
S'8039.7931631'
p2153
sba(igraph
Edge
p2154
(dp2155
g7
I1
sg8
I00
sg9
I5
sg10
(lp2156
g562
ag642
asg26
I00
sg27
I00
sg28
I3093983
sg20
S'8039.80189801'
p2157
sba(igraph
Edge
p2158
(dp2159
g7
I1
sg8
I00
sg9
I5
sg10
(lp2160
g565
ag642
asg26
I00
sg27
I00
sg28
I3093984
sg20
S'8039.81047787'
p2161
sba(igraph
Edge
p2162
(dp2163
g7
I1
sg8
I00
sg9
I5
sg10
(lp2164
g572
ag656
asg26
I00
sg27
I00
sg28
I3093985
sg20
S'8039.81949298'
p2165
sba(igraph
Edge
p2166
(dp2167
g7
I1
sg8
I00
sg9
I5
sg10
(lp2168
g579
ag656
asg26
I00
sg27
I00
sg28
I3093986
sg20
S'8039.82809882'
p2169
sba(igraph
Edge
p2170
(dp2171
g7
I1
sg8
I00
sg9
I5
sg10
(lp2172
g586
ag670
asg26
I00
sg27
I00
sg28
I3093987
sg20
S'8039.83664795'
p2173
sba(igraph
Edge
p2174
(dp2175
g7
I1
sg8
I00
sg9
I5
sg10
(lp2176
g593
ag670
asg26
I00
sg27
I00
sg28
I3093988
sg20
S'8039.84529654'
p2177
sba(igraph
Edge
p2178
(dp2179
g7
I1
sg8
I00
sg9
I5
sg10
(lp2180
g600
ag684
asg26
I00
sg27
I00
sg28
I3093989
sg20
S'8039.85398619'
p2181
sba(igraph
Edge
p2182
(dp2183
g7
I1
sg8
I00
sg9
I5
sg10
(lp2184
g607
ag684
asg26
I00
sg27
I00
sg28
I3093990
sg20
S'8039.86295633'
p2185
sba(igraph
Edge
p2186
(dp2187
g7
I1
sg8
I00
sg9
I5
sg10
(lp2188
g614
ag698
asg26
I00
sg27
I00
sg28
I3093991
sg20
S'8039.87164877'
p2189
sba(igraph
Edge
p2190
(dp2191
g7
I1
sg8
I00
sg9
I5
sg10
(lp2192
g621
ag698
asg26
I00
sg27
I00
sg28
I3093992
sg20
S'8039.8802887'
p2193
sba(igraph
Edge
p2194
(dp2195
g7
I1
sg8
I00
sg9
I5
sg10
(lp2196
g628
ag639
asg26
I00
sg27
I00
sg28
I3093993
sg20
S'8039.88902947'
p2197
sba(igraph
Edge
p2198
(dp2199
g7
I1
sg8
I00
sg9
I5
sg10
(lp2200
g639
ag716
asg26
I00
sg27
I00
sg28
I3093994
sg20
S'8039.89781578'
p2201
sba(igraph
Edge
p2202
(dp2203
g7
I1
sg8
I00
sg9
I5
sg10
(lp2204
g642
ag726
asg26
I00
sg27
I00
sg28
I3093995
sg20
S'8039.90654902'
p2205
sba(igraph
Edge
p2206
(dp2207
g7
I1
sg8
I00
sg9
I5
sg10
(lp2208
g649
ag726
asg26
I00
sg27
I00
sg28
I3093996
sg20
S'8039.91529035'
p2209
sba(igraph
Edge
p2210
(dp2211
g7
I1
sg8
I00
sg9
I5
sg10
(lp2212
g656
ag740
asg26
I00
sg27
I00
sg28
I3093997
sg20
S'8039.92405711'
p2213
sba(igraph
Edge
p2214
(dp2215
g7
I1
sg8
I00
sg9
I5
sg10
(lp2216
g663
ag740
asg26
I00
sg27
I00
sg28
I3093998
sg20
S'8039.9330183'
p2217
sba(igraph
Edge
p2218
(dp2219
g7
I1
sg8
I00
sg9
I5
sg10
(lp2220
g670
ag754
asg26
I00
sg27
I00
sg28
I3093999
sg20
S'8039.94196246'
p2221
sba(igraph
Edge
p2222
(dp2223
g7
I1
sg8
I00
sg9
I5
sg10
(lp2224
g677
ag754
asg26
I00
sg27
I00
sg28
I3094000
sg20
S'8039.95093734'
p2225
sba(igraph
Edge
p2226
(dp2227
g7
I1
sg8
I00
sg9
I5
sg10
(lp2228
g684
ag768
asg26
I00
sg27
I00
sg28
I3094001
sg20
S'8039.95981277'
p2229
sba(igraph
Edge
p2230
(dp2231
g7
I1
sg8
I00
sg9
I5
sg10
(lp2232
g691
ag768
asg26
I00
sg27
I00
sg28
I3094002
sg20
S'8039.96906422'
p2233
sba(igraph
Edge
p2234
(dp2235
g7
I1
sg8
I00
sg9
I5
sg10
(lp2236
g698
ag782
asg26
I00
sg27
I00
sg28
I3094003
sg20
S'8039.97808381'
p2237
sba(igraph
Edge
p2238
(dp2239
g7
I1
sg8
I00
sg9
I5
sg10
(lp2240
g705
ag782
asg26
I00
sg27
I00
sg28
I3094004
sg20
S'8039.98693828'
p2241
sba(igraph
Edge
p2242
(dp2243
g7
I1
sg8
I00
sg9
I5
sg10
(lp2244
g639
ag719
asg26
I00
sg27
I00
sg28
I3094005
sg20
S'8039.99590786'
p2245
sba(igraph
Edge
p2246
(dp2247
g7
I1
sg8
I00
sg9
I5
sg10
(lp2248
g642
ag719
asg26
I00
sg27
I00
sg28
I3094006
sg20
S'8040.00489029'
p2249
sba(igraph
Edge
p2250
(dp2251
g7
I1
sg8
I00
sg9
I5
sg10
(lp2252
g649
ag733
asg26
I00
sg27
I00
sg28
I3094007
sg20
S'8040.01390344'
p2253
sba(igraph
Edge
p2254
(dp2255
g7
I1
sg8
I00
sg9
I5
sg10
(lp2256
g656
ag733
asg26
I00
sg27
I00
sg28
I3094008
sg20
S'8040.02294956'
p2257
sba(igraph
Edge
p2258
(dp2259
g7
I1
sg8
I00
sg9
I5
sg10
(lp2260
g663
ag747
asg26
I00
sg27
I00
sg28
I3094009
sg20
S'8040.03197585'
p2261
sba(igraph
Edge
p2262
(dp2263
g7
I1
sg8
I00
sg9
I5
sg10
(lp2264
g670
ag747
asg26
I00
sg27
I00
sg28
I3094010
sg20
S'8040.04103874'
p2265
sba(igraph
Edge
p2266
(dp2267
g7
I1
sg8
I00
sg9
I5
sg10
(lp2268
g677
ag761
asg26
I00
sg27
I00
sg28
I3094011
sg20
S'8040.05030137'
p2269
sba(igraph
Edge
p2270
(dp2271
g7
I1
sg8
I00
sg9
I5
sg10
(lp2272
g684
ag761
asg26
I00
sg27
I00
sg28
I3094012
sg20
S'8040.05932793'
p2273
sba(igraph
Edge
p2274
(dp2275
g7
I1
sg8
I00
sg9
I5
sg10
(lp2276
g691
ag775
asg26
I00
sg27
I00
sg28
I3094013
sg20
S'8040.06849781'
p2277
sba(igraph
Edge
p2278
(dp2279
g7
I1
sg8
I00
sg9
I5
sg10
(lp2280
g698
ag775
asg26
I00
sg27
I00
sg28
I3094014
sg20
S'8040.07782861'
p2281
sba(igraph
Edge
p2282
(dp2283
g7
I1
sg8
I00
sg9
I5
sg10
(lp2284
g705
ag716
asg26
I00
sg27
I00
sg28
I3094015
sg20
S'8040.08709459'
p2285
sba(igraph
Edge
p2286
(dp2287
g7
I1
sg8
I00
sg9
I5
sg10
(lp2288
g716
ag793
asg26
I00
sg27
I00
sg28
I3094016
sg20
S'8040.09636811'
p2289
sba(igraph
Edge
p2290
(dp2291
g7
I1
sg8
I00
sg9
I5
sg10
(lp2292
g719
ag803
asg26
I00
sg27
I00
sg28
I3094017
sg20
S'8040.10564778'
p2293
sba(igraph
Edge
p2294
(dp2295
g7
I1
sg8
I00
sg9
I5
sg10
(lp2296
g726
ag803
asg26
I00
sg27
I00
sg28
I3094018
sg20
S'8040.11493248'
p2297
sba(igraph
Edge
p2298
(dp2299
g7
I1
sg8
I00
sg9
I5
sg10
(lp2300
g733
ag817
asg26
I00
sg27
I00
sg28
I3094019
sg20
S'8040.12427976'
p2301
sba(igraph
Edge
p2302
(dp2303
g7
I1
sg8
I00
sg9
I5
sg10
(lp2304
g740
ag817
asg26
I00
sg27
I00
sg28
I3094020
sg20
S'8040.13356977'
p2305
sba(igraph
Edge
p2306
(dp2307
g7
I1
sg8
I00
sg9
I5
sg10
(lp2308
g747
ag831
asg26
I00
sg27
I00
sg28
I3094021
sg20
S'8040.14294135'
p2309
sba(igraph
Edge
p2310
(dp2311
g7
I1
sg8
I00
sg9
I5
sg10
(lp2312
g754
ag831
asg26
I00
sg27
I00
sg28
I3094022
sg20
S'8040.15273226'
p2313
sba(igraph
Edge
p2314
(dp2315
g7
I1
sg8
I00
sg9
I5
sg10
(lp2316
g761
ag845
asg26
I00
sg27
I00
sg28
I3094023
sg20
S'8040.16233935'
p2317
sba(igraph
Edge
p2318
(dp2319
g7
I1
sg8
I00
sg9
I5
sg10
(lp2320
g768
ag845
asg26
I00
sg27
I00
sg28
I3094024
sg20
S'8040.17283873'
p2321
sba(igraph
Edge
p2322
(dp2323
g7
I1
sg8
I00
sg9
I5
sg10
(lp2324
g775
ag859
asg26
I00
sg27
I00
sg28
I3094025
sg20
S'8040.18328167'
p2325
sba(igraph
Edge
p2326
(dp2327
g7
I1
sg8
I00
sg9
I5
sg10
(lp2328
g782
ag859
asg26
I00
sg27
I00
sg28
I3094026
sg20
S'8040.19337542'
p2329
sba(igraph
Edge
p2330
(dp2331
g7
I1
sg8
I00
sg9
I5
sg10
(lp2332
g716
ag796
asg26
I00
sg27
I00
sg28
I3094027
sg20
S'8040.20574235'
p2333
sba(igraph
Edge
p2334
(dp2335
g7
I1
sg8
I00
sg9
I5
sg10
(lp2336
g719
ag796
asg26
I00
sg27
I00
sg28
I3094028
sg20
S'8040.21659876'
p2337
sba(igraph
Edge
p2338
(dp2339
g7
I1
sg8
I00
sg9
I5
sg10
(lp2340
g726
ag810
asg26
I00
sg27
I00
sg28
I3094029
sg20
S'8040.23372105'
p2341
sba(igraph
Edge
p2342
(dp2343
g7
I1
sg8
I00
sg9
I5
sg10
(lp2344
g733
ag810
asg26
I00
sg27
I00
sg28
I3094030
sg20
S'8040.24639836'
p2345
sba(igraph
Edge
p2346
(dp2347
g7
I1
sg8
I00
sg9
I5
sg10
(lp2348
g740
ag824
asg26
I00
sg27
I00
sg28
I3094031
sg20
S'8040.25947069'
p2349
sba(igraph
Edge
p2350
(dp2351
g7
I1
sg8
I00
sg9
I5
sg10
(lp2352
g747
ag824
asg26
I00
sg27
I00
sg28
I3094032
sg20
S'8040.27082269'
p2353
sba(igraph
Edge
p2354
(dp2355
g7
I1
sg8
I00
sg9
I5
sg10
(lp2356
g754
ag838
asg26
I00
sg27
I00
sg28
I3094033
sg20
S'8040.2814936'
p2357
sba(igraph
Edge
p2358
(dp2359
g7
I1
sg8
I00
sg9
I5
sg10
(lp2360
g761
ag838
asg26
I00
sg27
I00
sg28
I3094034
sg20
S'8040.29124456'
p2361
sba(igraph
Edge
p2362
(dp2363
g7
I1
sg8
I00
sg9
I5
sg10
(lp2364
g768
ag852
asg26
I00
sg27
I00
sg28
I3094035
sg20
S'8040.30090249'
p2365
sba(igraph
Edge
p2366
(dp2367
g7
I1
sg8
I00
sg9
I5
sg10
(lp2368
g775
ag852
asg26
I00
sg27
I00
sg28
I3094036
sg20
S'8040.31055595'
p2369
sba(igraph
Edge
p2370
(dp2371
g7
I1
sg8
I00
sg9
I5
sg10
(lp2372
g782
ag793
asg26
I00
sg27
I00
sg28
I3094037
sg20
S'8040.32008621'
p2373
sba(igraph
Edge
p2374
(dp2375
g7
I1
sg8
I00
sg9
I5
sg10
(lp2376
g793
ag870
asg26
I00
sg27
I00
sg28
I3094038
sg20
S'8040.32984835'
p2377
sba(igraph
Edge
p2378
(dp2379
g7
I1
sg8
I00
sg9
I5
sg10
(lp2380
g796
ag880
asg26
I00
sg27
I00
sg28
I3094039
sg20
S'8040.33949203'
p2381
sba(igraph
Edge
p2382
(dp2383
g7
I1
sg8
I00
sg9
I5
sg10
(lp2384
g803
ag880
asg26
I00
sg27
I00
sg28
I3094040
sg20
S'8040.34920416'
p2385
sba(igraph
Edge
p2386
(dp2387
g7
I1
sg8
I00
sg9
I5
sg10
(lp2388
g810
ag894
asg26
I00
sg27
I00
sg28
I3094041
sg20
S'8040.35896992'
p2389
sba(igraph
Edge
p2390
(dp2391
g7
I1
sg8
I00
sg9
I5
sg10
(lp2392
g817
ag894
asg26
I00
sg27
I00
sg28
I3094042
sg20
S'8040.36893683'
p2393
sba(igraph
Edge
p2394
(dp2395
g7
I1
sg8
I00
sg9
I5
sg10
(lp2396
g824
ag908
asg26
I00
sg27
I00
sg28
I3094043
sg20
S'8040.37866265'
p2397
sba(igraph
Edge
p2398
(dp2399
g7
I1
sg8
I00
sg9
I5
sg10
(lp2400
g831
ag908
asg26
I00
sg27
I00
sg28
I3094044
sg20
S'8040.388472'
p2401
sba(igraph
Edge
p2402
(dp2403
g7
I1
sg8
I00
sg9
I5
sg10
(lp2404
g838
ag922
asg26
I00
sg27
I00
sg28
I3094045
sg20
S'8040.39845427'
p2405
sba(igraph
Edge
p2406
(dp2407
g7
I1
sg8
I00
sg9
I5
sg10
(lp2408
g845
ag922
asg26
I00
sg27
I00
sg28
I3094046
sg20
S'8040.40815383'
p2409
sba(igraph
Edge
p2410
(dp2411
g7
I1
sg8
I00
sg9
I5
sg10
(lp2412
g852
ag936
asg26
I00
sg27
I00
sg28
I3094047
sg20
S'8040.41791541'
p2413
sba(igraph
Edge
p2414
(dp2415
g7
I1
sg8
I00
sg9
I5
sg10
(lp2416
g859
ag936
asg26
I00
sg27
I00
sg28
I3094048
sg20
S'8040.42807703'
p2417
sba(igraph
Edge
p2418
(dp2419
g7
I1
sg8
I00
sg9
I5
sg10
(lp2420
g793
ag873
asg26
I00
sg27
I00
sg28
I3094049
sg20
S'8040.43803556'
p2421
sba(igraph
Edge
p2422
(dp2423
g7
I1
sg8
I00
sg9
I5
sg10
(lp2424
g796
ag873
asg26
I00
sg27
I00
sg28
I3094050
sg20
S'8040.44807902'
p2425
sba(igraph
Edge
p2426
(dp2427
g7
I1
sg8
I00
sg9
I5
sg10
(lp2428
g803
ag887
asg26
I00
sg27
I00
sg28
I3094051
sg20
S'8040.46019704'
p2429
sba(igraph
Edge
p2430
(dp2431
g7
I1
sg8
I00
sg9
I5
sg10
(lp2432
g810
ag887
asg26
I00
sg27
I00
sg28
I3094052
sg20
S'8040.47106127'
p2433
sba(igraph
Edge
p2434
(dp2435
g7
I1
sg8
I00
sg9
I5
sg10
(lp2436
g817
ag901
asg26
I00
sg27
I00
sg28
I3094053
sg20
S'8040.48198305'
p2437
sba(igraph
Edge
p2438
(dp2439
g7
I1
sg8
I00
sg9
I5
sg10
(lp2440
g824
ag901
asg26
I00
sg27
I00
sg28
I3094054
sg20
S'8040.49283051'
p2441
sba(igraph
Edge
p2442
(dp2443
g7
I1
sg8
I00
sg9
I5
sg10
(lp2444
g831
ag915
asg26
I00
sg27
I00
sg28
I3094055
sg20
S'8040.50374028'
p2445
sba(igraph
Edge
p2446
(dp2447
g7
I1
sg8
I00
sg9
I5
sg10
(lp2448
g838
ag915
asg26
I00
sg27
I00
sg28
I3094056
sg20
S'8040.51464474'
p2449
sba(igraph
Edge
p2450
(dp2451
g7
I1
sg8
I00
sg9
I5
sg10
(lp2452
g845
ag929
asg26
I00
sg27
I00
sg28
I3094057
sg20
S'8040.52909909'
p2453
sba(igraph
Edge
p2454
(dp2455
g7
I1
sg8
I00
sg9
I5
sg10
(lp2456
g852
ag929
asg26
I00
sg27
I00
sg28
I3094058
sg20
S'8040.54165934'
p2457
sba(igraph
Edge
p2458
(dp2459
g7
I1
sg8
I00
sg9
I5
sg10
(lp2460
g859
ag870
asg26
I00
sg27
I00
sg28
I3094059
sg20
S'8040.55321137'
p2461
sba(igraph
Edge
p2462
(dp2463
g7
I1
sg8
I00
sg9
I5
sg10
(lp2464
g870
ag947
asg26
I00
sg27
I00
sg28
I3094060
sg20
S'8040.5655188'
p2465
sba(igraph
Edge
p2466
(dp2467
g7
I1
sg8
I00
sg9
I5
sg10
(lp2468
g873
ag957
asg26
I00
sg27
I00
sg28
I3094061
sg20
S'8040.5776575'
p2469
sba(igraph
Edge
p2470
(dp2471
g7
I1
sg8
I00
sg9
I5
sg10
(lp2472
g880
ag957
asg26
I00
sg27
I00
sg28
I3094062
sg20
S'8040.58970232'
p2473
sba(igraph
Edge
p2474
(dp2475
g7
I1
sg8
I00
sg9
I5
sg10
(lp2476
g887
ag971
asg26
I00
sg27
I00
sg28
I3094063
sg20
S'8040.60187677'
p2477
sba(igraph
Edge
p2478
(dp2479
g7
I1
sg8
I00
sg9
I5
sg10
(lp2480
g894
ag971
asg26
I00
sg27
I00
sg28
I3094064
sg20
S'8040.61326705'
p2481
sba(igraph
Edge
p2482
(dp2483
g7
I1
sg8
I00
sg9
I5
sg10
(lp2484
g901
ag985
asg26
I00
sg27
I00
sg28
I3094065
sg20
S'8040.62473387'
p2485
sba(igraph
Edge
p2486
(dp2487
g7
I1
sg8
I00
sg9
I5
sg10
(lp2488
g908
ag985
asg26
I00
sg27
I00
sg28
I3094066
sg20
S'8040.63640798'
p2489
sba(igraph
Edge
p2490
(dp2491
g7
I1
sg8
I00
sg9
I5
sg10
(lp2492
g915
ag999
asg26
I00
sg27
I00
sg28
I3094067
sg20
S'8040.64841202'
p2493
sba(igraph
Edge
p2494
(dp2495
g7
I1
sg8
I00
sg9
I5
sg10
(lp2496
g922
ag999
asg26
I00
sg27
I00
sg28
I3094068
sg20
S'8040.6596397'
p2497
sba(igraph
Edge
p2498
(dp2499
g7
I1
sg8
I00
sg9
I5
sg10
(lp2500
g929
ag1013
asg26
I00
sg27
I00
sg28
I3094069
sg20
S'8040.67064613'
p2501
sba(igraph
Edge
p2502
(dp2503
g7
I1
sg8
I00
sg9
I5
sg10
(lp2504
g936
ag1013
asg26
I00
sg27
I00
sg28
I3094070
sg20
S'8040.68168273'
p2505
sba(igraph
Edge
p2506
(dp2507
g7
I1
sg8
I00
sg9
I5
sg10
(lp2508
g870
ag950
asg26
I00
sg27
I00
sg28
I3094071
sg20
S'8040.69606109'
p2509
sba(igraph
Edge
p2510
(dp2511
g7
I1
sg8
I00
sg9
I5
sg10
(lp2512
g873
ag950
asg26
I00
sg27
I00
sg28
I3094072
sg20
S'8040.71053053'
p2513
sba(igraph
Edge
p2514
(dp2515
g7
I1
sg8
I00
sg9
I5
sg10
(lp2516
g880
ag964
asg26
I00
sg27
I00
sg28
I3094073
sg20
S'8040.72388949'
p2517
sba(igraph
Edge
p2518
(dp2519
g7
I1
sg8
I00
sg9
I5
sg10
(lp2520
g887
ag964
asg26
I00
sg27
I00
sg28
I3094074
sg20
S'8040.73646902'
p2521
sba(igraph
Edge
p2522
(dp2523
g7
I1
sg8
I00
sg9
I5
sg10
(lp2524
g894
ag978
asg26
I00
sg27
I00
sg28
I3094075
sg20
S'8040.74844065'
p2525
sba(igraph
Edge
p2526
(dp2527
g7
I1
sg8
I00
sg9
I5
sg10
(lp2528
g901
ag978
asg26
I00
sg27
I00
sg28
I3094076
sg20
S'8040.75982311'
p2529
sba(igraph
Edge
p2530
(dp2531
g7
I1
sg8
I00
sg9
I5
sg10
(lp2532
g908
ag992
asg26
I00
sg27
I00
sg28
I3094077
sg20
S'8040.77163941'
p2533
sba(igraph
Edge
p2534
(dp2535
g7
I1
sg8
I00
sg9
I5
sg10
(lp2536
g915
ag992
asg26
I00
sg27
I00
sg28
I3094078
sg20
S'8040.78301209'
p2537
sba(igraph
Edge
p2538
(dp2539
g7
I1
sg8
I00
sg9
I5
sg10
(lp2540
g922
ag1006
asg26
I00
sg27
I00
sg28
I3094079
sg20
S'8040.79441326'
p2541
sba(igraph
Edge
p2542
(dp2543
g7
I1
sg8
I00
sg9
I5
sg10
(lp2544
g929
ag1006
asg26
I00
sg27
I00
sg28
I3094080
sg20
S'8040.81016945'
p2545
sba(igraph
Edge
p2546
(dp2547
g7
I1
sg8
I00
sg9
I5
sg10
(lp2548
g936
ag947
asg26
I00
sg27
I00
sg28
I3094081
sg20
S'8040.82284173'
p2549
sba(igraph
Edge
p2550
(dp2551
g7
I1
sg8
I00
sg9
I5
sg10
(lp2552
g947
ag1024
asg26
I00
sg27
I00
sg28
I3094082
sg20
S'8040.83443035'
p2553
sba(igraph
Edge
p2554
(dp2555
g7
I1
sg8
I00
sg9
I5
sg10
(lp2556
g950
ag1034
asg26
I00
sg27
I00
sg28
I3094083
sg20
S'8040.84833938'
p2557
sba(igraph
Edge
p2558
(dp2559
g7
I1
sg8
I00
sg9
I5
sg10
(lp2560
g957
ag1034
asg26
I00
sg27
I00
sg28
I3094084
sg20
S'8040.86260516'
p2561
sba(igraph
Edge
p2562
(dp2563
g7
I1
sg8
I00
sg9
I5
sg10
(lp2564
g964
ag1048
asg26
I00
sg27
I00
sg28
I3094085
sg20
S'8040.87594373'
p2565
sba(igraph
Edge
p2566
(dp2567
g7
I1
sg8
I00
sg9
I5
sg10
(lp2568
g971
ag1048
asg26
I00
sg27
I00
sg28
I3094086
sg20
S'8040.88865875'
p2569
sba(igraph
Edge
p2570
(dp2571
g7
I1
sg8
I00
sg9
I5
sg10
(lp2572
g978
ag1062
asg26
I00
sg27
I00
sg28
I3094087
sg20
S'8040.90099691'
p2573
sba(igraph
Edge
p2574
(dp2575
g7
I1
sg8
I00
sg9
I5
sg10
(lp2576
g985
ag1062
asg26
I00
sg27
I00
sg28
I3094088
sg20
S'8040.91274953'
p2577
sba(igraph
Edge
p2578
(dp2579
g7
I1
sg8
I00
sg9
I5
sg10
(lp2580
g992
ag1076
asg26
I00
sg27
I00
sg28
I3094089
sg20
S'8040.92430016'
p2581
sba(igraph
Edge
p2582
(dp2583
g7
I1
sg8
I00
sg9
I5
sg10
(lp2584
g999
ag1076
asg26
I00
sg27
I00
sg28
I3094090
sg20
S'8040.93600723'
p2585
sba(igraph
Edge
p2586
(dp2587
g7
I1
sg8
I00
sg9
I5
sg10
(lp2588
g1006
ag1090
asg26
I00
sg27
I00
sg28
I3094091
sg20
S'8040.94794227'
p2589
sba(igraph
Edge
p2590
(dp2591
g7
I1
sg8
I00
sg9
I5
sg10
(lp2592
g1013
ag1090
asg26
I00
sg27
I00
sg28
I3094092
sg20
S'8040.9615345'
p2593
sba(igraph
Edge
p2594
(dp2595
g7
I1
sg8
I00
sg9
I5
sg10
(lp2596
g947
ag1027
asg26
I00
sg27
I00
sg28
I3094093
sg20
S'8040.9746194'
p2597
sba(igraph
Edge
p2598
(dp2599
g7
I1
sg8
I00
sg9
I5
sg10
(lp2600
g950
ag1027
asg26
I00
sg27
I00
sg28
I3094094
sg20
S'8040.98830159'
p2601
sba(igraph
Edge
p2602
(dp2603
g7
I1
sg8
I00
sg9
I5
sg10
(lp2604
g957
ag1041
asg26
I00
sg27
I00
sg28
I3094095
sg20
S'8041.00188963'
p2605
sba(igraph
Edge
p2606
(dp2607
g7
I1
sg8
I00
sg9
I5
sg10
(lp2608
g964
ag1041
asg26
I00
sg27
I00
sg28
I3094096
sg20
S'8041.01540559'
p2609
sba(igraph
Edge
p2610
(dp2611
g7
I1
sg8
I00
sg9
I5
sg10
(lp2612
g971
ag1055
asg26
I00
sg27
I00
sg28
I3094097
sg20
S'8041.02841534'
p2613
sba(igraph
Edge
p2614
(dp2615
g7
I1
sg8
I00
sg9
I5
sg10
(lp2616
g978
ag1055
asg26
I00
sg27
I00
sg28
I3094098
sg20
S'8041.04028277'
p2617
sba(igraph
Edge
p2618
(dp2619
g7
I1
sg8
I00
sg9
I5
sg10
(lp2620
g985
ag1069
asg26
I00
sg27
I00
sg28
I3094099
sg20
S'8041.05293382'
p2621
sba(igraph
Edge
p2622
(dp2623
g7
I1
sg8
I00
sg9
I5
sg10
(lp2624
g992
ag1069
asg26
I00
sg27
I00
sg28
I3094100
sg20
S'8041.06495881'
p2625
sba(igraph
Edge
p2626
(dp2627
g7
I1
sg8
I00
sg9
I5
sg10
(lp2628
g999
ag1083
asg26
I00
sg27
I00
sg28
I3094101
sg20
S'8041.07613314'
p2629
sba(igraph
Edge
p2630
(dp2631
g7
I1
sg8
I00
sg9
I5
sg10
(lp2632
g1006
ag1083
asg26
I00
sg27
I00
sg28
I3094102
sg20
S'8041.08725969'
p2633
sba(igraph
Edge
p2634
(dp2635
g7
I1
sg8
I00
sg9
I5
sg10
(lp2636
g1013
ag1024
asg26
I00
sg27
I00
sg28
I3094103
sg20
S'8041.09844212'
p2637
sba(igraph
Edge
p2638
(dp2639
g7
I1
sg8
I00
sg9
I5
sg10
(lp2640
g1024
ag1101
asg26
I00
sg27
I00
sg28
I3094104
sg20
S'8041.10969104'
p2641
sba(igraph
Edge
p2642
(dp2643
g7
I1
sg8
I00
sg9
I5
sg10
(lp2644
g1027
ag1111
asg26
I00
sg27
I00
sg28
I3094105
sg20
S'8041.12089358'
p2645
sba(igraph
Edge
p2646
(dp2647
g7
I1
sg8
I00
sg9
I5
sg10
(lp2648
g1034
ag1111
asg26
I00
sg27
I00
sg28
I3094106
sg20
S'8041.13210003'
p2649
sba(igraph
Edge
p2650
(dp2651
g7
I1
sg8
I00
sg9
I5
sg10
(lp2652
g1041
ag1125
asg26
I00
sg27
I00
sg28
I3094107
sg20
S'8041.14342018'
p2653
sba(igraph
Edge
p2654
(dp2655
g7
I1
sg8
I00
sg9
I5
sg10
(lp2656
g1048
ag1125
asg26
I00
sg27
I00
sg28
I3094108
sg20
S'8041.15489902'
p2657
sba(igraph
Edge
p2658
(dp2659
g7
I1
sg8
I00
sg9
I5
sg10
(lp2660
g1055
ag1139
asg26
I00
sg27
I00
sg28
I3094109
sg20
S'8041.16631527'
p2661
sba(igraph
Edge
p2662
(dp2663
g7
I1
sg8
I00
sg9
I5
sg10
(lp2664
g1062
ag1139
asg26
I00
sg27
I00
sg28
I3094110
sg20
S'8041.17756251'
p2665
sba(igraph
Edge
p2666
(dp2667
g7
I1
sg8
I00
sg9
I5
sg10
(lp2668
g1069
ag1153
asg26
I00
sg27
I00
sg28
I3094111
sg20
S'8041.18880053'
p2669
sba(igraph
Edge
p2670
(dp2671
g7
I1
sg8
I00
sg9
I5
sg10
(lp2672
g1076
ag1153
asg26
I00
sg27
I00
sg28
I3094112
sg20
S'8041.20018606'
p2673
sba(igraph
Edge
p2674
(dp2675
g7
I1
sg8
I00
sg9
I5
sg10
(lp2676
g1083
ag1167
asg26
I00
sg27
I00
sg28
I3094113
sg20
S'8041.2114509'
p2677
sba(igraph
Edge
p2678
(dp2679
g7
I1
sg8
I00
sg9
I5
sg10
(lp2680
g1090
ag1167
asg26
I00
sg27
I00
sg28
I3094114
sg20
S'8041.22280485'
p2681
sba(igraph
Edge
p2682
(dp2683
g7
I1
sg8
I00
sg9
I5
sg10
(lp2684
g1024
ag1104
asg26
I00
sg27
I00
sg28
I3094115
sg20
S'8041.23420183'
p2685
sba(igraph
Edge
p2686
(dp2687
g7
I1
sg8
I00
sg9
I5
sg10
(lp2688
g1027
ag1104
asg26
I00
sg27
I00
sg28
I3094116
sg20
S'8041.24560635'
p2689
sba(igraph
Edge
p2690
(dp2691
g7
I1
sg8
I00
sg9
I5
sg10
(lp2692
g1034
ag1118
asg26
I00
sg27
I00
sg28
I3094117
sg20
S'8041.25705558'
p2693
sba(igraph
Edge
p2694
(dp2695
g7
I1
sg8
I00
sg9
I5
sg10
(lp2696
g1041
ag1118
asg26
I00
sg27
I00
sg28
I3094118
sg20
S'8041.26857268'
p2697
sba(igraph
Edge
p2698
(dp2699
g7
I1
sg8
I00
sg9
I5
sg10
(lp2700
g1048
ag1132
asg26
I00
sg27
I00
sg28
I3094119
sg20
S'8041.28010655'
p2701
sba(igraph
Edge
p2702
(dp2703
g7
I1
sg8
I00
sg9
I5
sg10
(lp2704
g1055
ag1132
asg26
I00
sg27
I00
sg28
I3094120
sg20
S'8041.291615'
p2705
sba(igraph
Edge
p2706
(dp2707
g7
I1
sg8
I00
sg9
I5
sg10
(lp2708
g1062
ag1146
asg26
I00
sg27
I00
sg28
I3094121
sg20
S'8041.30332682'
p2709
sba(igraph
Edge
p2710
(dp2711
g7
I1
sg8
I00
sg9
I5
sg10
(lp2712
g1069
ag1146
asg26
I00
sg27
I00
sg28
I3094122
sg20
S'8041.31473777'
p2713
sba(igraph
Edge
p2714
(dp2715
g7
I1
sg8
I00
sg9
I5
sg10
(lp2716
g1076
ag1160
asg26
I00
sg27
I00
sg28
I3094123
sg20
S'8041.32656637'
p2717
sba(igraph
Edge
p2718
(dp2719
g7
I1
sg8
I00
sg9
I5
sg10
(lp2720
g1083
ag1160
asg26
I00
sg27
I00
sg28
I3094124
sg20
S'8041.33824187'
p2721
sba(igraph
Edge
p2722
(dp2723
g7
I1
sg8
I00
sg9
I5
sg10
(lp2724
g1090
ag1101
asg26
I00
sg27
I00
sg28
I3094125
sg20
S'8041.34979306'
p2725
sba(igraph
Edge
p2726
(dp2727
g7
I1
sg8
I00
sg9
I5
sg10
(lp2728
g1101
ag1178
asg26
I00
sg27
I00
sg28
I3094126
sg20
S'8041.3613409'
p2729
sba(igraph
Edge
p2730
(dp2731
g7
I1
sg8
I00
sg9
I5
sg10
(lp2732
g1104
ag1188
asg26
I00
sg27
I00
sg28
I3094127
sg20
S'8041.37309155'
p2733
sba(igraph
Edge
p2734
(dp2735
g7
I1
sg8
I00
sg9
I5
sg10
(lp2736
g1111
ag1188
asg26
I00
sg27
I00
sg28
I3094128
sg20
S'8041.38478466'
p2737
sba(igraph
Edge
p2738
(dp2739
g7
I1
sg8
I00
sg9
I5
sg10
(lp2740
g1118
ag1202
asg26
I00
sg27
I00
sg28
I3094129
sg20
S'8041.39657359'
p2741
sba(igraph
Edge
p2742
(dp2743
g7
I1
sg8
I00
sg9
I5
sg10
(lp2744
g1125
ag1202
asg26
I00
sg27
I00
sg28
I3094130
sg20
S'8041.40839939'
p2745
sba(igraph
Edge
p2746
(dp2747
g7
I1
sg8
I00
sg9
I5
sg10
(lp2748
g1132
ag1216
asg26
I00
sg27
I00
sg28
I3094131
sg20
S'8041.42020229'
p2749
sba(igraph
Edge
p2750
(dp2751
g7
I1
sg8
I00
sg9
I5
sg10
(lp2752
g1139
ag1216
asg26
I00
sg27
I00
sg28
I3094132
sg20
S'8041.43198786'
p2753
sba(igraph
Edge
p2754
(dp2755
g7
I1
sg8
I00
sg9
I5
sg10
(lp2756
g1146
ag1230
asg26
I00
sg27
I00
sg28
I3094133
sg20
S'8041.44380501'
p2757
sba(igraph
Edge
p2758
(dp2759
g7
I1
sg8
I00
sg9
I5
sg10
(lp2760
g1153
ag1230
asg26
I00
sg27
I00
sg28
I3094134
sg20
S'8041.45584006'
p2761
sba(igraph
Edge
p2762
(dp2763
g7
I1
sg8
I00
sg9
I5
sg10
(lp2764
g1160
ag1244
asg26
I00
sg27
I00
sg28
I3094135
sg20
S'8041.47204798'
p2765
sba(igraph
Edge
p2766
(dp2767
g7
I1
sg8
I00
sg9
I5
sg10
(lp2768
g1167
ag1244
asg26
I00
sg27
I00
sg28
I3094136
sg20
S'8041.48406627'
p2769
sba(igraph
Edge
p2770
(dp2771
g7
I1
sg8
I00
sg9
I5
sg10
(lp2772
g1101
ag1181
asg26
I00
sg27
I00
sg28
I3094137
sg20
S'8041.49599572'
p2773
sba(igraph
Edge
p2774
(dp2775
g7
I1
sg8
I00
sg9
I5
sg10
(lp2776
g1104
ag1181
asg26
I00
sg27
I00
sg28
I3094138
sg20
S'8041.50776593'
p2777
sba(igraph
Edge
p2778
(dp2779
g7
I1
sg8
I00
sg9
I5
sg10
(lp2780
g1111
ag1195
asg26
I00
sg27
I00
sg28
I3094139
sg20
S'8041.51954313'
p2781
sba(igraph
Edge
p2782
(dp2783
g7
I1
sg8
I00
sg9
I5
sg10
(lp2784
g1118
ag1195
asg26
I00
sg27
I00
sg28
I3094140
sg20
S'8041.53131362'
p2785
sba(igraph
Edge
p2786
(dp2787
g7
I1
sg8
I00
sg9
I5
sg10
(lp2788
g1125
ag1209
asg26
I00
sg27
I00
sg28
I3094141
sg20
S'8041.54326793'
p2789
sba(igraph
Edge
p2790
(dp2791
g7
I1
sg8
I00
sg9
I5
sg10
(lp2792
g1132
ag1209
asg26
I00
sg27
I00
sg28
I3094142
sg20
S'8041.55519905'
p2793
sba(igraph
Edge
p2794
(dp2795
g7
I1
sg8
I00
sg9
I5
sg10
(lp2796
g1139
ag1223
asg26
I00
sg27
I00
sg28
I3094143
sg20
S'8041.56741234'
p2797
sba(igraph
Edge
p2798
(dp2799
g7
I1
sg8
I00
sg9
I5
sg10
(lp2800
g1146
ag1223
asg26
I00
sg27
I00
sg28
I3094144
sg20
S'8041.57947644'
p2801
sba(igraph
Edge
p2802
(dp2803
g7
I1
sg8
I00
sg9
I5
sg10
(lp2804
g1153
ag1237
asg26
I00
sg27
I00
sg28
I3094145
sg20
S'8041.59164251'
p2805
sba(igraph
Edge
p2806
(dp2807
g7
I1
sg8
I00
sg9
I5
sg10
(lp2808
g1160
ag1237
asg26
I00
sg27
I00
sg28
I3094146
sg20
S'8041.60374461'
p2809
sba(igraph
Edge
p2810
(dp2811
g7
I1
sg8
I00
sg9
I5
sg10
(lp2812
g1167
ag1178
asg26
I00
sg27
I00
sg28
I3094147
sg20
S'8041.61580341'
p2813
sba(igraph
Edge
p2814
(dp2815
g7
I1
sg8
I00
sg9
I5
sg10
(lp2816
g1178
ag1255
asg26
I00
sg27
I00
sg28
I3094148
sg20
S'8041.62789433'
p2817
sba(igraph
Edge
p2818
(dp2819
g7
I1
sg8
I00
sg9
I5
sg10
(lp2820
g1181
ag1265
asg26
I00
sg27
I00
sg28
I3094149
sg20
S'8041.64006403'
p2821
sba(igraph
Edge
p2822
(dp2823
g7
I1
sg8
I00
sg9
I5
sg10
(lp2824
g1188
ag1265
asg26
I00
sg27
I00
sg28
I3094150
sg20
S'8041.65217283'
p2825
sba(igraph
Edge
p2826
(dp2827
g7
I1
sg8
I00
sg9
I5
sg10
(lp2828
g1195
ag1279
asg26
I00
sg27
I00
sg28
I3094151
sg20
S'8041.66438835'
p2829
sba(igraph
Edge
p2830
(dp2831
g7
I1
sg8
I00
sg9
I5
sg10
(lp2832
g1202
ag1279
asg26
I00
sg27
I00
sg28
I3094152
sg20
S'8041.67765959'
p2833
sba(igraph
Edge
p2834
(dp2835
g7
I1
sg8
I00
sg9
I5
sg10
(lp2836
g1209
ag1293
asg26
I00
sg27
I00
sg28
I3094153
sg20
S'8041.68990975'
p2837
sba(igraph
Edge
p2838
(dp2839
g7
I1
sg8
I00
sg9
I5
sg10
(lp2840
g1216
ag1293
asg26
I00
sg27
I00
sg28
I3094154
sg20
S'8041.70216215'
p2841
sba(igraph
Edge
p2842
(dp2843
g7
I1
sg8
I00
sg9
I5
sg10
(lp2844
g1223
ag1307
asg26
I00
sg27
I00
sg28
I3094155
sg20
S'8041.71443661'
p2845
sba(igraph
Edge
p2846
(dp2847
g7
I1
sg8
I00
sg9
I5
sg10
(lp2848
g1230
ag1307
asg26
I00
sg27
I00
sg28
I3094156
sg20
S'8041.7267798'
p2849
sba(igraph
Edge
p2850
(dp2851
g7
I1
sg8
I00
sg9
I5
sg10
(lp2852
g1237
ag1321
asg26
I00
sg27
I00
sg28
I3094157
sg20
S'8041.73900649'
p2853
sba(igraph
Edge
p2854
(dp2855
g7
I1
sg8
I00
sg9
I5
sg10
(lp2856
g1244
ag1321
asg26
I00
sg27
I00
sg28
I3094158
sg20
S'8041.7512614'
p2857
sba(igraph
Edge
p2858
(dp2859
g7
I1
sg8
I00
sg9
I5
sg10
(lp2860
g1178
ag1258
asg26
I00
sg27
I00
sg28
I3094159
sg20
S'8041.76354676'
p2861
sba(igraph
Edge
p2862
(dp2863
g7
I1
sg8
I00
sg9
I5
sg10
(lp2864
g1181
ag1258
asg26
I00
sg27
I00
sg28
I3094160
sg20
S'8041.77598438'
p2865
sba(igraph
Edge
p2866
(dp2867
g7
I1
sg8
I00
sg9
I5
sg10
(lp2868
g1188
ag1272
asg26
I00
sg27
I00
sg28
I3094161
sg20
S'8041.78858486'
p2869
sba(igraph
Edge
p2870
(dp2871
g7
I1
sg8
I00
sg9
I5
sg10
(lp2872
g1195
ag1272
asg26
I00
sg27
I00
sg28
I3094162
sg20
S'8041.80102806'
p2873
sba(igraph
Edge
p2874
(dp2875
g7
I1
sg8
I00
sg9
I5
sg10
(lp2876
g1202
ag1286
asg26
I00
sg27
I00
sg28
I3094163
sg20
S'8041.81341148'
p2877
sba(igraph
Edge
p2878
(dp2879
g7
I1
sg8
I00
sg9
I5
sg10
(lp2880
g1209
ag1286
asg26
I00
sg27
I00
sg28
I3094164
sg20
S'8041.82598543'
p2881
sba(igraph
Edge
p2882
(dp2883
g7
I1
sg8
I00
sg9
I5
sg10
(lp2884
g1216
ag1300
asg26
I00
sg27
I00
sg28
I3094165
sg20
S'8041.83859457'
p2885
sba(igraph
Edge
p2886
(dp2887
g7
I1
sg8
I00
sg9
I5
sg10
(lp2888
g1223
ag1300
asg26
I00
sg27
I00
sg28
I3094166
sg20
S'8041.85109616'
p2889
sba(igraph
Edge
p2890
(dp2891
g7
I1
sg8
I00
sg9
I5
sg10
(lp2892
g1230
ag1314
asg26
I00
sg27
I00
sg28
I3094167
sg20
S'8041.86356339'
p2893
sba(igraph
Edge
p2894
(dp2895
g7
I1
sg8
I00
sg9
I5
sg10
(lp2896
g1237
ag1314
asg26
I00
sg27
I00
sg28
I3094168
sg20
S'8041.87607894'
p2897
sba(igraph
Edge
p2898
(dp2899
g7
I1
sg8
I00
sg9
I5
sg10
(lp2900
g1244
ag1255
asg26
I00
sg27
I00
sg28
I3094169
sg20
S'8041.88888476'
p2901
sba(igraph
Edge
p2902
(dp2903
g7
I1
sg8
I00
sg9
I5
sg10
(lp2904
g1255
ag1332
asg26
I00
sg27
I00
sg28
I3094170
sg20
S'8041.9015238'
p2905
sba(igraph
Edge
p2906
(dp2907
g7
I1
sg8
I00
sg9
I5
sg10
(lp2908
g1258
ag1342
asg26
I00
sg27
I00
sg28
I3094171
sg20
S'8041.91396728'
p2909
sba(igraph
Edge
p2910
(dp2911
g7
I1
sg8
I00
sg9
I5
sg10
(lp2912
g1265
ag1342
asg26
I00
sg27
I00
sg28
I3094172
sg20
S'8041.9265672'
p2913
sba(igraph
Edge
p2914
(dp2915
g7
I1
sg8
I00
sg9
I5
sg10
(lp2916
g1272
ag1356
asg26
I00
sg27
I00
sg28
I3094173
sg20
S'8041.93907578'
p2917
sba(igraph
Edge
p2918
(dp2919
g7
I1
sg8
I00
sg9
I5
sg10
(lp2920
g1279
ag1356
asg26
I00
sg27
I00
sg28
I3094174
sg20
S'8041.95163994'
p2921
sba(igraph
Edge
p2922
(dp2923
g7
I1
sg8
I00
sg9
I5
sg10
(lp2924
g1286
ag1370
asg26
I00
sg27
I00
sg28
I3094175
sg20
S'8041.96428652'
p2925
sba(igraph
Edge
p2926
(dp2927
g7
I1
sg8
I00
sg9
I5
sg10
(lp2928
g1293
ag1370
asg26
I00
sg27
I00
sg28
I3094176
sg20
S'8041.97694595'
p2929
sba(igraph
Edge
p2930
(dp2931
g7
I1
sg8
I00
sg9
I5
sg10
(lp2932
g1300
ag1384
asg26
I00
sg27
I00
sg28
I3094177
sg20
S'8041.9894928'
p2933
sba(igraph
Edge
p2934
(dp2935
g7
I1
sg8
I00
sg9
I5
sg10
(lp2936
g1307
ag1384
asg26
I00
sg27
I00
sg28
I3094178
sg20
S'8042.00217877'
p2937
sba(igraph
Edge
p2938
(dp2939
g7
I1
sg8
I00
sg9
I5
sg10
(lp2940
g1314
ag1398
asg26
I00
sg27
I00
sg28
I3094179
sg20
S'8042.01520277'
p2941
sba(igraph
Edge
p2942
(dp2943
g7
I1
sg8
I00
sg9
I5
sg10
(lp2944
g1321
ag1398
asg26
I00
sg27
I00
sg28
I3094180
sg20
S'8042.0287679'
p2945
sba(igraph
Edge
p2946
(dp2947
g7
I1
sg8
I00
sg9
I5
sg10
(lp2948
g1255
ag1335
asg26
I00
sg27
I00
sg28
I3094181
sg20
S'8042.04160948'
p2949
sba(igraph
Edge
p2950
(dp2951
g7
I1
sg8
I00
sg9
I5
sg10
(lp2952
g1258
ag1335
asg26
I00
sg27
I00
sg28
I3094182
sg20
S'8042.05457509'
p2953
sba(igraph
Edge
p2954
(dp2955
g7
I1
sg8
I00
sg9
I5
sg10
(lp2956
g1265
ag1349
asg26
I00
sg27
I00
sg28
I3094183
sg20
S'8042.06746556'
p2957
sba(igraph
Edge
p2958
(dp2959
g7
I1
sg8
I00
sg9
I5
sg10
(lp2960
g1272
ag1349
asg26
I00
sg27
I00
sg28
I3094184
sg20
S'8042.08068148'
p2961
sba(igraph
Edge
p2962
(dp2963
g7
I1
sg8
I00
sg9
I5
sg10
(lp2964
g1279
ag1363
asg26
I00
sg27
I00
sg28
I3094185
sg20
S'8042.09387897'
p2965
sba(igraph
Edge
p2966
(dp2967
g7
I1
sg8
I00
sg9
I5
sg10
(lp2968
g1286
ag1363
asg26
I00
sg27
I00
sg28
I3094186
sg20
S'8042.10687979'
p2969
sba(igraph
Edge
p2970
(dp2971
g7
I1
sg8
I00
sg9
I5
sg10
(lp2972
g1293
ag1377
asg26
I00
sg27
I00
sg28
I3094187
sg20
S'8042.11994737'
p2973
sba(igraph
Edge
p2974
(dp2975
g7
I1
sg8
I00
sg9
I5
sg10
(lp2976
g1300
ag1377
asg26
I00
sg27
I00
sg28
I3094188
sg20
S'8042.13306915'
p2977
sba(igraph
Edge
p2978
(dp2979
g7
I1
sg8
I00
sg9
I5
sg10
(lp2980
g1307
ag1391
asg26
I00
sg27
I00
sg28
I3094189
sg20
S'8042.14611801'
p2981
sba(igraph
Edge
p2982
(dp2983
g7
I1
sg8
I00
sg9
I5
sg10
(lp2984
g1314
ag1391
asg26
I00
sg27
I00
sg28
I3094190
sg20
S'8042.15916073'
p2985
sba(igraph
Edge
p2986
(dp2987
g7
I1
sg8
I00
sg9
I5
sg10
(lp2988
g1321
ag1332
asg26
I00
sg27
I00
sg28
I3094191
sg20
S'8042.17234984'
p2989
sbasS'vertices'
p2990
(lp2991
g12
ag23
ag33
ag40
ag47
ag54
ag61
ag68
ag75
ag82
ag89
ag100
ag103
ag110
ag117
ag124
ag131
ag138
ag145
ag152
ag159
ag166
ag177
ag180
ag187
ag194
ag201
ag208
ag215
ag222
ag229
ag236
ag243
ag254
ag257
ag264
ag271
ag278
ag285
ag292
ag299
ag306
ag313
ag320
ag331
ag334
ag341
ag348
ag355
ag362
ag369
ag376
ag383
ag390
ag397
ag408
ag411
ag418
ag425
ag432
ag439
ag446
ag453
ag460
ag467
ag474
ag485
ag488
ag495
ag502
ag509
ag516
ag523
ag530
ag537
ag544
ag551
ag562
ag565
ag572
ag579
ag586
ag593
ag600
ag607
ag614
ag621
ag628
ag639
ag642
ag649
ag656
ag663
ag670
ag677
ag684
ag691
ag698
ag705
ag716
ag719
ag726
ag733
ag740
ag747
ag754
ag761
ag768
ag775
ag782
ag793
ag796
ag803
ag810
ag817
ag824
ag831
ag838
ag845
ag852
ag859
ag870
ag873
ag880
ag887
ag894
ag901
ag908
ag915
ag922
ag929
ag936
ag947
ag950
ag957
ag964
ag971
ag978
ag985
ag992
ag999
ag1006
ag1013
ag1024
ag1027
ag1034
ag1041
ag1048
ag1055
ag1062
ag1069
ag1076
ag1083
ag1090
ag1101
ag1104
ag1111
ag1118
ag1125
ag1132
ag1139
ag1146
ag1153
ag1160
ag1167
ag1178
ag1181
ag1188
ag1195
ag1202
ag1209
ag1216
ag1223
ag1230
ag1237
ag1244
ag1255
ag1258
ag1265
ag1272
ag1279
ag1286
ag1293
ag1300
ag1307
ag1314
ag1321
ag1332
ag1335
ag1342
ag1349
ag1356
ag1363
ag1370
ag1377
ag1384
ag1391
ag1398
asS'tags'
p2992
(lp2993
sb.