(igraph
Graph
p0
(dp1
S'labelingConstraints'
p2
I-1
sS'edges'
p3
(lp4
(igraph
Edge
p5
(dp6
S'direction'
p7
I1
sS'selected'
p8
I00
sS'height'
p9
I5
sS'vs'
p10
(lp11
(igraph
Vertex
p12
(dp13
S'xnorm'
p14
F0.0
sg8
I00
sS'label'
p15
S'NULL'
p16
sS'y'
p17
F-322.0
sS'x'
p18
F-484.0
sS'circle'
p19
I4147511
sS'id'
p20
S'6512.40868043'
p21
sS'ynorm'
p22
F0.0
sba(igraph
Vertex
p23
(dp24
g14
F0.055555555555555552
sg8
I00
sg15
g16
sg17
F-322.0
sg18
F-434.16666666666669
sg19
I4147512
sg20
S'6512.40870502'
p25
sg22
F0.0
sbasS'wrap'
p26
I00
sS'curved'
p27
I00
sS'line'
p28
I4146884
sg20
S'6512.62590972'
p29
sba(igraph
Edge
p30
(dp31
g7
I1
sg8
I00
sg9
I5
sg10
(lp32
g23
a(igraph
Vertex
p33
(dp34
g14
F0.1111111111111111
sg8
I00
sg15
g16
sg17
F-322.0
sg18
F-384.33333333333337
sg19
I4147513
sg20
S'6512.40872932'
p35
sg22
F0.0
sbasg26
I00
sg27
I00
sg28
I4146885
sg20
S'6512.62597006'
p36
sba(igraph
Edge
p37
(dp38
g7
I1
sg8
I00
sg9
I5
sg10
(lp39
g33
a(igraph
Vertex
p40
(dp41
g14
F0.1666666666666666
sg8
I00
sg15
g16
sg17
F-322.0
sg18
F-334.50000000000006
sg19
I4147514
sg20
S'6512.40875893'
p42
sg22
F0.0
sbasg26
I00
sg27
I00
sg28
I4146886
sg20
S'6512.6260494'
p43
sba(igraph
Edge
p44
(dp45
g7
I1
sg8
I00
sg9
I5
sg10
(lp46
g40
a(igraph
Vertex
p47
(dp48
g14
F0.22222222222222215
sg8
I00
sg15
g16
sg17
F-322.0
sg18
F-284.66666666666674
sg19
I4147515
sg20
S'6512.40879413'
p49
sg22
F0.0
sbasg26
I00
sg27
I00
sg28
I4146887
sg20
S'6512.62615025'
p50
sba(igraph
Edge
p51
(dp52
g7
I1
sg8
I00
sg9
I5
sg10
(lp53
g47
a(igraph
Vertex
p54
(dp55
g14
F0.27777777777777768
sg8
I00
sg15
g16
sg17
F-322.0
sg18
F-234.83333333333343
sg19
I4147516
sg20
S'6512.40883744'
p56
sg22
F0.0
sbasg26
I00
sg27
I00
sg28
I4146888
sg20
S'6512.62627233'
p57
sba(igraph
Edge
p58
(dp59
g7
I1
sg8
I00
sg9
I5
sg10
(lp60
g54
a(igraph
Vertex
p61
(dp62
g14
F0.33333333333333326
sg8
I00
sg15
g16
sg17
F-322.0
sg18
F-185.00000000000006
sg19
I4147517
sg20
S'6512.40889052'
p63
sg22
F0.0
sbasg26
I00
sg27
I00
sg28
I4146889
sg20
S'6512.62641732'
p64
sba(igraph
Edge
p65
(dp66
g7
I1
sg8
I00
sg9
I5
sg10
(lp67
g61
a(igraph
Vertex
p68
(dp69
g14
F0.38888888888888884
sg8
I00
sg15
g16
sg17
F-322.0
sg18
F-135.16666666666669
sg19
I4147518
sg20
S'6512.40895086'
p70
sg22
F0.0
sbasg26
I00
sg27
I00
sg28
I4146890
sg20
S'6512.62658299'
p71
sba(igraph
Edge
p72
(dp73
g7
I1
sg8
I00
sg9
I5
sg10
(lp74
g68
a(igraph
Vertex
p75
(dp76
g14
F0.44444444444444436
sg8
I00
sg15
g16
sg17
F-322.0
sg18
F-85.333333333333428
sg19
I4147519
sg20
S'6512.4090193'
p77
sg22
F0.0
sbasg26
I00
sg27
I00
sg28
I4146891
sg20
S'6512.626771'
p78
sba(igraph
Edge
p79
(dp80
g7
I1
sg8
I00
sg9
I5
sg10
(lp81
g75
a(igraph
Vertex
p82
(dp83
g14
F0.5
sg8
I00
sg15
g16
sg17
F-322.0
sg18
F-35.5
sg19
I4147520
sg20
S'6512.40909557'
p84
sg22
F0.0
sbasg26
I00
sg27
I00
sg28
I4146892
sg20
S'6512.62697969'
p85
sba(igraph
Edge
p86
(dp87
g7
I1
sg8
I00
sg9
I5
sg10
(lp88
g82
a(igraph
Vertex
p89
(dp90
g14
F0.55555555555555558
sg8
I00
sg15
g16
sg17
F-322.0
sg18
F14.333333333333371
sg19
I4147521
sg20
S'6512.40917854'
p91
sg22
F0.0
sbasg26
I00
sg27
I00
sg28
I4146893
sg20
S'6512.62721072'
p92
sba(igraph
Edge
p93
(dp94
g7
I1
sg8
I00
sg9
I5
sg10
(lp95
g89
a(igraph
Vertex
p96
(dp97
g14
F0.61111111111111116
sg8
I00
sg15
g16
sg17
F-322.0
sg18
F64.166666666666742
sg19
I4147522
sg20
S'6512.40927269'
p98
sg22
F0.0
sbasg26
I00
sg27
I00
sg28
I4146894
sg20
S'6512.62746466'
p99
sba(igraph
Edge
p100
(dp101
g7
I1
sg8
I00
sg9
I5
sg10
(lp102
g96
a(igraph
Vertex
p103
(dp104
g14
F0.66666666666666663
sg8
I00
sg15
g16
sg17
F-322.0
sg18
F114.0
sg19
I4147523
sg20
S'6512.40941377'
p105
sg22
F0.0
sbasg26
I00
sg27
I00
sg28
I4146895
sg20
S'6512.627739'
p106
sba(igraph
Edge
p107
(dp108
g7
I1
sg8
I00
sg9
I5
sg10
(lp109
g103
a(igraph
Vertex
p110
(dp111
g14
F0.72222222222222221
sg8
I00
sg15
g16
sg17
F-322.0
sg18
F163.83333333333337
sg19
I4147524
sg20
S'6512.40952272'
p112
sg22
F0.0
sbasg26
I00
sg27
I00
sg28
I4146896
sg20
S'6512.62803541'
p113
sba(igraph
Edge
p114
(dp115
g7
I1
sg8
I00
sg9
I5
sg10
(lp116
g110
a(igraph
Vertex
p117
(dp118
g14
F0.77777777777777779
sg8
I00
sg15
g16
sg17
F-322.0
sg18
F213.66666666666663
sg19
I4147525
sg20
S'6512.40964005'
p119
sg22
F0.0
sbasg26
I00
sg27
I00
sg28
I4146897
sg20
S'6512.62835304'
p120
sba(igraph
Edge
p121
(dp122
g7
I1
sg8
I00
sg9
I5
sg10
(lp123
g117
a(igraph
Vertex
p124
(dp125
g14
F0.83333333333333337
sg8
I00
sg15
g16
sg17
F-322.0
sg18
F263.5
sg19
I4147526
sg20
S'6512.40976437'
p126
sg22
F0.0
sbasg26
I00
sg27
I00
sg28
I4146898
sg20
S'6512.62869219'
p127
sba(igraph
Edge
p128
(dp129
g7
I1
sg8
I00
sg9
I5
sg10
(lp130
g124
a(igraph
Vertex
p131
(dp132
g14
F0.88888888888888884
sg8
I00
sg15
g16
sg17
F-322.0
sg18
F313.33333333333326
sg19
I4147527
sg20
S'6512.40989846'
p133
sg22
F0.0
sbasg26
I00
sg27
I00
sg28
I4146899
sg20
S'6512.6290699'
p134
sba(igraph
Edge
p135
(dp136
g7
I1
sg8
I00
sg9
I5
sg10
(lp137
g131
a(igraph
Vertex
p138
(dp139
g14
F0.94444444444444442
sg8
I00
sg15
g16
sg17
F-322.0
sg18
F363.16666666666663
sg19
I4147528
sg20
S'6512.41003899'
p140
sg22
F0.0
sbasg26
I00
sg27
I00
sg28
I4146900
sg20
S'6512.62945402'
p141
sba(igraph
Edge
p142
(dp143
g7
I1
sg8
I00
sg9
I5
sg10
(lp144
g138
a(igraph
Vertex
p145
(dp146
g14
F1.0
sg8
I00
sg15
g16
sg17
F-322.0
sg18
F413.0
sg19
I4147529
sg20
S'6512.41018705'
p147
sg22
F0.0
sbasg26
I00
sg27
I00
sg28
I4146901
sg20
S'6512.62985826'
p148
sba(igraph
Edge
p149
(dp150
g7
I1
sg8
I00
sg9
I5
sg10
(lp151
g145
ag12
asg26
I00
sg27
I00
sg28
I4146902
sg20
S'6512.63031531'
p152
sba(igraph
Edge
p153
(dp154
g7
I1
sg8
I00
sg9
I5
sg10
(lp155
(igraph
Vertex
p156
(dp157
g14
F0.0
sg8
I00
sg15
g16
sg17
F-259.60000000000002
sg18
F-484.0
sg19
I4147530
sg20
S'6512.41040942'
p158
sg22
F0.099999999999999964
sba(igraph
Vertex
p159
(dp160
g14
F0.055555555555555552
sg8
I00
sg15
g16
sg17
F-259.60000000000002
sg18
F-434.16666666666669
sg19
I4147531
sg20
S'6512.41058347'
p161
sg22
F0.099999999999999964
sbasg26
I00
sg27
I00
sg28
I4146903
sg20
S'6512.63076536'
p162
sba(igraph
Edge
p163
(dp164
g7
I1
sg8
I00
sg9
I5
sg10
(lp165
g159
a(igraph
Vertex
p166
(dp167
g14
F0.1111111111111111
sg8
I00
sg15
g16
sg17
F-259.60000000000002
sg18
F-384.33333333333337
sg19
I4147532
sg20
S'6512.41075779'
p168
sg22
F0.099999999999999964
sbasg26
I00
sg27
I00
sg28
I4146904
sg20
S'6512.63123553'
p169
sba(igraph
Edge
p170
(dp171
g7
I1
sg8
I00
sg9
I5
sg10
(lp172
g166
a(igraph
Vertex
p173
(dp174
g14
F0.1666666666666666
sg8
I00
sg15
g16
sg17
F-259.60000000000002
sg18
F-334.50000000000006
sg19
I4147533
sg20
S'6512.41094329'
p175
sg22
F0.099999999999999964
sbasg26
I00
sg27
I00
sg28
I4146905
sg20
S'6512.63172582'
p176
sba(igraph
Edge
p177
(dp178
g7
I1
sg8
I00
sg9
I5
sg10
(lp179
g173
a(igraph
Vertex
p180
(dp181
g14
F0.22222222222222215
sg8
I00
sg15
g16
sg17
F-259.60000000000002
sg18
F-284.66666666666674
sg19
I4147534
sg20
S'6512.41113382'
p182
sg22
F0.099999999999999964
sbasg26
I00
sg27
I00
sg28
I4146906
sg20
S'6512.63223706'
p183
sba(igraph
Edge
p184
(dp185
g7
I1
sg8
I00
sg9
I5
sg10
(lp186
g180
a(igraph
Vertex
p187
(dp188
g14
F0.27777777777777768
sg8
I00
sg15
g16
sg17
F-259.60000000000002
sg18
F-234.83333333333343
sg19
I4147535
sg20
S'6512.41136373'
p189
sg22
F0.099999999999999964
sbasg26
I00
sg27
I00
sg28
I4146907
sg20
S'6512.63277204'
p190
sba(igraph
Edge
p191
(dp192
g7
I1
sg8
I00
sg9
I5
sg10
(lp193
g187
a(igraph
Vertex
p194
(dp195
g14
F0.33333333333333326
sg8
I00
sg15
g16
sg17
F-259.60000000000002
sg18
F-185.00000000000006
sg19
I4147536
sg20
S'6512.41157298'
p196
sg22
F0.099999999999999964
sbasg26
I00
sg27
I00
sg28
I4146908
sg20
S'6512.63332742'
p197
sba(igraph
Edge
p198
(dp199
g7
I1
sg8
I00
sg9
I5
sg10
(lp200
g194
a(igraph
Vertex
p201
(dp202
g14
F0.38888888888888884
sg8
I00
sg15
g16
sg17
F-259.60000000000002
sg18
F-135.16666666666669
sg19
I4147537
sg20
S'6512.41179591'
p203
sg22
F0.099999999999999964
sbasg26
I00
sg27
I00
sg28
I4146909
sg20
S'6512.63390375'
p204
sba(igraph
Edge
p205
(dp206
g7
I1
sg8
I00
sg9
I5
sg10
(lp207
g201
a(igraph
Vertex
p208
(dp209
g14
F0.44444444444444436
sg8
I00
sg15
g16
sg17
F-259.60000000000002
sg18
F-85.333333333333428
sg19
I4147538
sg20
S'6512.41202052'
p210
sg22
F0.099999999999999964
sbasg26
I00
sg27
I00
sg28
I4146910
sg20
S'6512.63450271'
p211
sba(igraph
Edge
p212
(dp213
g7
I1
sg8
I00
sg9
I5
sg10
(lp214
g208
a(igraph
Vertex
p215
(dp216
g14
F0.5
sg8
I00
sg15
g16
sg17
F-259.60000000000002
sg18
F-35.5
sg19
I4147539
sg20
S'6512.41337991'
p217
sg22
F0.099999999999999964
sbasg26
I00
sg27
I00
sg28
I4146911
sg20
S'6512.63512877'
p218
sba(igraph
Edge
p219
(dp220
g7
I1
sg8
I00
sg9
I5
sg10
(lp221
g215
a(igraph
Vertex
p222
(dp223
g14
F0.55555555555555558
sg8
I00
sg15
g16
sg17
F-259.60000000000002
sg18
F14.333333333333371
sg19
I4147540
sg20
S'6512.41363106'
p224
sg22
F0.099999999999999964
sbasg26
I00
sg27
I00
sg28
I4146912
sg20
S'6512.63577773'
p225
sba(igraph
Edge
p226
(dp227
g7
I1
sg8
I00
sg9
I5
sg10
(lp228
g222
a(igraph
Vertex
p229
(dp230
g14
F0.61111111111111116
sg8
I00
sg15
g16
sg17
F-259.60000000000002
sg18
F64.166666666666742
sg19
I4147541
sg20
S'6512.41388305'
p231
sg22
F0.099999999999999964
sbasg26
I00
sg27
I00
sg28
I4146913
sg20
S'6512.63651134'
p232
sba(igraph
Edge
p233
(dp234
g7
I1
sg8
I00
sg9
I5
sg10
(lp235
g229
a(igraph
Vertex
p236
(dp237
g14
F0.66666666666666663
sg8
I00
sg15
g16
sg17
F-259.60000000000002
sg18
F114.0
sg19
I4147542
sg20
S'6512.4141532'
p238
sg22
F0.099999999999999964
sbasg26
I00
sg27
I00
sg28
I4146914
sg20
S'6512.63719327'
p239
sba(igraph
Edge
p240
(dp241
g7
I1
sg8
I00
sg9
I5
sg10
(lp242
g236
a(igraph
Vertex
p243
(dp244
g14
F0.72222222222222221
sg8
I00
sg15
g16
sg17
F-259.60000000000002
sg18
F163.83333333333337
sg19
I4147543
sg20
S'6512.41443982'
p245
sg22
F0.099999999999999964
sbasg26
I00
sg27
I00
sg28
I4146915
sg20
S'6512.6378956'
p246
sba(igraph
Edge
p247
(dp248
g7
I1
sg8
I00
sg9
I5
sg10
(lp249
g243
a(igraph
Vertex
p250
(dp251
g14
F0.77777777777777779
sg8
I00
sg15
g16
sg17
F-259.60000000000002
sg18
F213.66666666666663
sg19
I4147544
sg20
S'6512.41472031'
p252
sg22
F0.099999999999999964
sbasg26
I00
sg27
I00
sg28
I4146916
sg20
S'6512.63861915'
p253
sba(igraph
Edge
p254
(dp255
g7
I1
sg8
I00
sg9
I5
sg10
(lp256
g250
a(igraph
Vertex
p257
(dp258
g14
F0.83333333333333337
sg8
I00
sg15
g16
sg17
F-259.60000000000002
sg18
F263.5
sg19
I4147545
sg20
S'6512.41500805'
p259
sg22
F0.099999999999999964
sbasg26
I00
sg27
I00
sg28
I4146917
sg20
S'6512.63936422'
p260
sba(igraph
Edge
p261
(dp262
g7
I1
sg8
I00
sg9
I5
sg10
(lp263
g257
a(igraph
Vertex
p264
(dp265
g14
F0.88888888888888884
sg8
I00
sg15
g16
sg17
F-259.60000000000002
sg18
F313.33333333333326
sg19
I4147546
sg20
S'6512.41530027'
p266
sg22
F0.099999999999999964
sbasg26
I00
sg27
I00
sg28
I4146918
sg20
S'6512.64013192'
p267
sba(igraph
Edge
p268
(dp269
g7
I1
sg8
I00
sg9
I5
sg10
(lp270
g264
a(igraph
Vertex
p271
(dp272
g14
F0.94444444444444442
sg8
I00
sg15
g16
sg17
F-259.60000000000002
sg18
F363.16666666666663
sg19
I4147547
sg20
S'6512.41560394'
p273
sg22
F0.099999999999999964
sbasg26
I00
sg27
I00
sg28
I4146919
sg20
S'6512.64092503'
p274
sba(igraph
Edge
p275
(dp276
g7
I1
sg8
I00
sg9
I5
sg10
(lp277
g271
a(igraph
Vertex
p278
(dp279
g14
F1.0
sg8
I01
sg15
I0
sg17
F-259.60000000000002
sg18
F413.0
sg19
I4147549
sg20
S'6512.4159185'
p280
sg22
F0.099999999999999964
sbasg26
I00
sg27
I00
sg28
I4146920
sg20
S'6512.64174078'
p281
sba(igraph
Edge
p282
(dp283
g7
I1
sg8
I00
sg9
I5
sg10
(lp284
g278
ag156
asg26
I00
sg27
I00
sg28
I4146921
sg20
S'6512.64257608'
p285
sba(igraph
Edge
p286
(dp287
g7
I1
sg8
I00
sg9
I5
sg10
(lp288
(igraph
Vertex
p289
(dp290
g14
F0.0
sg8
I00
sg15
g16
sg17
F-197.19999999999999
sg18
F-484.0
sg19
I4147551
sg20
S'6512.41624117'
p291
sg22
F0.20000000000000001
sba(igraph
Vertex
p292
(dp293
g14
F0.055555555555555552
sg8
I00
sg15
g16
sg17
F-197.19999999999999
sg18
F-434.16666666666669
sg19
I4147552
sg20
S'6512.41656663'
p294
sg22
F0.20000000000000001
sbasg26
I00
sg27
I00
sg28
I4146922
sg20
S'6512.64343541'
p295
sba(igraph
Edge
p296
(dp297
g7
I1
sg8
I00
sg9
I5
sg10
(lp298
g292
a(igraph
Vertex
p299
(dp300
g14
F0.1111111111111111
sg8
I00
sg15
g16
sg17
F-197.19999999999999
sg18
F-384.33333333333337
sg19
I4147553
sg20
S'6512.41690355'
p301
sg22
F0.20000000000000001
sbasg26
I00
sg27
I00
sg28
I4146923
sg20
S'6512.64431457'
p302
sba(igraph
Edge
p303
(dp304
g7
I1
sg8
I00
sg9
I5
sg10
(lp305
g299
a(igraph
Vertex
p306
(dp307
g14
F0.1666666666666666
sg8
I00
sg15
g16
sg17
F-197.19999999999999
sg18
F-334.50000000000006
sg19
I4147554
sg20
S'6512.41724688'
p308
sg22
F0.20000000000000001
sbasg26
I00
sg27
I00
sg28
I4146924
sg20
S'6512.6452186'
p309
sba(igraph
Edge
p310
(dp311
g7
I1
sg8
I00
sg9
I5
sg10
(lp312
g306
a(igraph
Vertex
p313
(dp314
g14
F0.22222222222222215
sg8
I00
sg15
g16
sg17
F-197.19999999999999
sg18
F-284.66666666666674
sg19
I4147555
sg20
S'6512.41760056'
p315
sg22
F0.20000000000000001
sbasg26
I00
sg27
I00
sg28
I4146925
sg20
S'6512.64614246'
p316
sba(igraph
Edge
p317
(dp318
g7
I1
sg8
I00
sg9
I5
sg10
(lp319
g313
a(igraph
Vertex
p320
(dp321
g14
F0.27777777777777768
sg8
I00
sg15
g16
sg17
F-197.19999999999999
sg18
F-234.83333333333343
sg19
I4147556
sg20
S'6512.41796401'
p322
sg22
F0.20000000000000001
sbasg26
I00
sg27
I00
sg28
I4146926
sg20
S'6512.64709034'
p323
sba(igraph
Edge
p324
(dp325
g7
I1
sg8
I00
sg9
I5
sg10
(lp326
g320
a(igraph
Vertex
p327
(dp328
g14
F0.33333333333333326
sg8
I00
sg15
g16
sg17
F-197.19999999999999
sg18
F-185.00000000000006
sg19
I4147557
sg20
S'6512.41833026'
p329
sg22
F0.20000000000000001
sbasg26
I00
sg27
I00
sg28
I4146927
sg20
S'6512.64806421'
p330
sba(igraph
Edge
p331
(dp332
g7
I1
sg8
I00
sg9
I5
sg10
(lp333
g327
a(igraph
Vertex
p334
(dp335
g14
F0.38888888888888884
sg8
I00
sg15
g16
sg17
F-197.19999999999999
sg18
F-135.16666666666669
sg19
I4147558
sg20
S'6512.41871104'
p336
sg22
F0.20000000000000001
sbasg26
I00
sg27
I00
sg28
I4146928
sg20
S'6512.64905847'
p337
sba(igraph
Edge
p338
(dp339
g7
I1
sg8
I00
sg9
I5
sg10
(lp340
g334
a(igraph
Vertex
p341
(dp342
g14
F0.44444444444444436
sg8
I00
sg15
g16
sg17
F-197.19999999999999
sg18
F-85.333333333333428
sg19
I4147559
sg20
S'6512.41910215'
p343
sg22
F0.20000000000000001
sbasg26
I00
sg27
I00
sg28
I4146929
sg20
S'6512.65007564'
p344
sba(igraph
Edge
p345
(dp346
g7
I1
sg8
I00
sg9
I5
sg10
(lp347
g341
a(igraph
Vertex
p348
(dp349
g14
F0.5
sg8
I00
sg15
g16
sg17
F-197.19999999999999
sg18
F-35.5
sg19
I4147560
sg20
S'6512.41949969'
p350
sg22
F0.20000000000000001
sbasg26
I00
sg27
I00
sg28
I4146930
sg20
S'6512.65111627'
p351
sba(igraph
Edge
p352
(dp353
g7
I1
sg8
I00
sg9
I5
sg10
(lp354
g348
a(igraph
Vertex
p355
(dp356
g14
F0.55555555555555558
sg8
I00
sg15
g16
sg17
F-197.19999999999999
sg18
F14.333333333333371
sg19
I4147561
sg20
S'6512.41990923'
p357
sg22
F0.20000000000000001
sbasg26
I00
sg27
I00
sg28
I4146931
sg20
S'6512.65220887'
p358
sba(igraph
Edge
p359
(dp360
g7
I1
sg8
I00
sg9
I5
sg10
(lp361
g355
a(igraph
Vertex
p362
(dp363
g14
F0.61111111111111116
sg8
I00
sg15
g16
sg17
F-197.19999999999999
sg18
F64.166666666666742
sg19
I4147562
sg20
S'6512.42032549'
p364
sg22
F0.20000000000000001
sbasg26
I00
sg27
I00
sg28
I4146932
sg20
S'6512.65329392'
p365
sba(igraph
Edge
p366
(dp367
g7
I1
sg8
I00
sg9
I5
sg10
(lp368
g362
a(igraph
Vertex
p369
(dp370
g14
F0.66666666666666663
sg8
I00
sg15
g16
sg17
F-197.19999999999999
sg18
F114.0
sg19
I4147563
sg20
S'6512.42074705'
p371
sg22
F0.20000000000000001
sbasg26
I00
sg27
I00
sg28
I4146933
sg20
S'6512.65441362'
p372
sba(igraph
Edge
p373
(dp374
g7
I1
sg8
I00
sg9
I5
sg10
(lp375
g369
a(igraph
Vertex
p376
(dp377
g14
F0.72222222222222221
sg8
I00
sg15
g16
sg17
F-197.19999999999999
sg18
F163.83333333333337
sg19
I4147564
sg20
S'6512.42118258'
p378
sg22
F0.20000000000000001
sbasg26
I00
sg27
I00
sg28
I4146934
sg20
S'6512.65553695'
p379
sba(igraph
Edge
p380
(dp381
g7
I1
sg8
I00
sg9
I5
sg10
(lp382
g376
a(igraph
Vertex
p383
(dp384
g14
F0.77777777777777779
sg8
I00
sg15
g16
sg17
F-197.19999999999999
sg18
F213.66666666666663
sg19
I4147565
sg20
S'6512.42162593'
p385
sg22
F0.20000000000000001
sbasg26
I00
sg27
I00
sg28
I4146935
sg20
S'6512.65667871'
p386
sba(igraph
Edge
p387
(dp388
g7
I1
sg8
I00
sg9
I5
sg10
(lp389
g383
a(igraph
Vertex
p390
(dp391
g14
F0.83333333333333337
sg8
I00
sg15
g16
sg17
F-197.19999999999999
sg18
F263.5
sg19
I4147566
sg20
S'6512.42207655'
p392
sg22
F0.20000000000000001
sbasg26
I00
sg27
I00
sg28
I4146936
sg20
S'6512.65784366'
p393
sba(igraph
Edge
p394
(dp395
g7
I1
sg8
I00
sg9
I5
sg10
(lp396
g390
a(igraph
Vertex
p397
(dp398
g14
F0.88888888888888884
sg8
I01
sg15
I0
sg17
F-197.19999999999999
sg18
F313.33333333333326
sg19
I4147568
sg20
S'6512.42550548'
p399
sg22
F0.20000000000000001
sbasg26
I00
sg27
I00
sg28
I4146937
sg20
S'6512.65902845'
p400
sba(igraph
Edge
p401
(dp402
g7
I1
sg8
I00
sg9
I5
sg10
(lp403
g397
a(igraph
Vertex
p404
(dp405
g14
F0.94444444444444442
sg8
I00
sg15
g16
sg17
F-197.19999999999999
sg18
F363.16666666666663
sg19
I4147570
sg20
S'6512.4259952'
p406
sg22
F0.20000000000000001
sbasg26
I00
sg27
I00
sg28
I4146938
sg20
S'6512.66023475'
p407
sba(igraph
Edge
p408
(dp409
g7
I1
sg8
I00
sg9
I5
sg10
(lp410
g404
a(igraph
Vertex
p411
(dp412
g14
F1.0
sg8
I00
sg15
g16
sg17
F-197.19999999999999
sg18
F413.0
sg19
I4147571
sg20
S'6512.42646873'
p413
sg22
F0.20000000000000001
sbasg26
I00
sg27
I00
sg28
I4146939
sg20
S'6512.66146647'
p414
sba(igraph
Edge
p415
(dp416
g7
I1
sg8
I00
sg9
I5
sg10
(lp417
g411
ag289
asg26
I00
sg27
I00
sg28
I4146940
sg20
S'6512.66271747'
p418
sba(igraph
Edge
p419
(dp420
g7
I1
sg8
I00
sg9
I5
sg10
(lp421
(igraph
Vertex
p422
(dp423
g14
F0.0
sg8
I00
sg15
g16
sg17
F-134.80000000000001
sg18
F-484.0
sg19
I4147572
sg20
S'6512.42696097'
p424
sg22
F0.29999999999999999
sba(igraph
Vertex
p425
(dp426
g14
F0.055555555555555552
sg8
I00
sg15
g16
sg17
F-134.80000000000001
sg18
F-434.16666666666669
sg19
I4147573
sg20
S'6512.42745349'
p427
sg22
F0.29999999999999999
sbasg26
I00
sg27
I00
sg28
I4146941
sg20
S'6512.66404389'
p428
sba(igraph
Edge
p429
(dp430
g7
I1
sg8
I00
sg9
I5
sg10
(lp431
g425
a(igraph
Vertex
p432
(dp433
g14
F0.1111111111111111
sg8
I00
sg15
g16
sg17
F-134.80000000000001
sg18
F-384.33333333333337
sg19
I4147574
sg20
S'6512.42796864'
p434
sg22
F0.29999999999999999
sbasg26
I00
sg27
I00
sg28
I4146942
sg20
S'6512.66535551'
p435
sba(igraph
Edge
p436
(dp437
g7
I1
sg8
I00
sg9
I5
sg10
(lp438
g432
a(igraph
Vertex
p439
(dp440
g14
F0.1666666666666666
sg8
I00
sg15
g16
sg17
F-134.80000000000001
sg18
F-334.50000000000006
sg19
I4147575
sg20
S'6512.42848071'
p441
sg22
F0.29999999999999999
sbasg26
I00
sg27
I00
sg28
I4146943
sg20
S'6512.66668361'
p442
sba(igraph
Edge
p443
(dp444
g7
I1
sg8
I00
sg9
I5
sg10
(lp445
g439
a(igraph
Vertex
p446
(dp447
g14
F0.22222222222222215
sg8
I00
sg15
g16
sg17
F-134.80000000000001
sg18
F-284.66666666666674
sg19
I4147576
sg20
S'6512.42936602'
p448
sg22
F0.29999999999999999
sbasg26
I00
sg27
I00
sg28
I4146944
sg20
S'6512.66803518'
p449
sba(igraph
Edge
p450
(dp451
g7
I1
sg8
I00
sg9
I5
sg10
(lp452
g446
a(igraph
Vertex
p453
(dp454
g14
F0.27777777777777768
sg8
I00
sg15
g16
sg17
F-134.80000000000001
sg18
F-234.83333333333343
sg19
I4147577
sg20
S'6512.4299052'
p455
sg22
F0.29999999999999999
sbasg26
I00
sg27
I00
sg28
I4146945
sg20
S'6512.66940882'
p456
sba(igraph
Edge
p457
(dp458
g7
I1
sg8
I00
sg9
I5
sg10
(lp459
g453
a(igraph
Vertex
p460
(dp461
g14
F0.33333333333333326
sg8
I00
sg15
g16
sg17
F-134.80000000000001
sg18
F-185.00000000000006
sg19
I4147578
sg20
S'6512.43044046'
p462
sg22
F0.29999999999999999
sbasg26
I00
sg27
I00
sg28
I4146946
sg20
S'6512.67080369'
p463
sba(igraph
Edge
p464
(dp465
g7
I1
sg8
I00
sg9
I5
sg10
(lp466
g460
a(igraph
Vertex
p467
(dp468
g14
F0.38888888888888884
sg8
I00
sg15
g16
sg17
F-134.80000000000001
sg18
F-135.16666666666669
sg19
I4147579
sg20
S'6512.43099193'
p469
sg22
F0.29999999999999999
sbasg26
I00
sg27
I00
sg28
I4146947
sg20
S'6512.67222091'
p470
sba(igraph
Edge
p471
(dp472
g7
I1
sg8
I00
sg9
I5
sg10
(lp473
g467
a(igraph
Vertex
p474
(dp475
g14
F0.44444444444444436
sg8
I00
sg15
g16
sg17
F-134.80000000000001
sg18
F-85.333333333333428
sg19
I4147580
sg20
S'6512.43154507'
p476
sg22
F0.29999999999999999
sbasg26
I00
sg27
I00
sg28
I4146948
sg20
S'6512.67365629'
p477
sba(igraph
Edge
p478
(dp479
g7
I1
sg8
I00
sg9
I5
sg10
(lp480
g474
a(igraph
Vertex
p481
(dp482
g14
F0.5
sg8
I00
sg15
g16
sg17
F-134.80000000000001
sg18
F-35.5
sg19
I4147581
sg20
S'6512.43211162'
p483
sg22
F0.29999999999999999
sbasg26
I00
sg27
I00
sg28
I4146949
sg20
S'6512.67511457'
p484
sba(igraph
Edge
p485
(dp486
g7
I1
sg8
I00
sg9
I5
sg10
(lp487
g481
a(igraph
Vertex
p488
(dp489
g14
F0.55555555555555558
sg8
I00
sg15
g16
sg17
F-134.80000000000001
sg18
F14.333333333333371
sg19
I4147582
sg20
S'6512.43268125'
p490
sg22
F0.29999999999999999
sbasg26
I00
sg27
I00
sg28
I4146950
sg20
S'6512.67659549'
p491
sba(igraph
Edge
p492
(dp493
g7
I1
sg8
I00
sg9
I5
sg10
(lp494
g488
a(igraph
Vertex
p495
(dp496
g14
F0.61111111111111116
sg8
I00
sg15
g16
sg17
F-134.80000000000001
sg18
F64.166666666666742
sg19
I4147583
sg20
S'6512.43332407'
p497
sg22
F0.29999999999999999
sbasg26
I00
sg27
I00
sg28
I4146951
sg20
S'6512.67810015'
p498
sba(igraph
Edge
p499
(dp500
g7
I1
sg8
I00
sg9
I5
sg10
(lp501
g495
a(igraph
Vertex
p502
(dp503
g14
F0.66666666666666663
sg8
I00
sg15
g16
sg17
F-134.80000000000001
sg18
F114.0
sg19
I4147584
sg20
S'6512.43392498'
p504
sg22
F0.29999999999999999
sbasg26
I00
sg27
I00
sg28
I4146952
sg20
S'6512.67962604'
p505
sba(igraph
Edge
p506
(dp507
g7
I1
sg8
I00
sg9
I5
sg10
(lp508
g502
a(igraph
Vertex
p509
(dp510
g14
F0.72222222222222221
sg8
I00
sg15
g16
sg17
F-134.80000000000001
sg18
F163.83333333333337
sg19
I4147585
sg20
S'6512.43452338'
p511
sg22
F0.29999999999999999
sbasg26
I00
sg27
I00
sg28
I4146953
sg20
S'6512.68117317'
p512
sba(igraph
Edge
p513
(dp514
g7
I1
sg8
I00
sg9
I5
sg10
(lp515
g509
a(igraph
Vertex
p516
(dp517
g14
F0.77777777777777779
sg8
I01
sg15
I0
sg17
F-134.80000000000001
sg18
F213.66666666666663
sg19
I4147587
sg20
S'6512.43661527'
p518
sg22
F0.29999999999999999
sbasg26
I00
sg27
I00
sg28
I4146954
sg20
S'6512.68273929'
p519
sba(igraph
Edge
p520
(dp521
g7
I1
sg8
I00
sg9
I5
sg10
(lp522
g516
a(igraph
Vertex
p523
(dp524
g14
F0.83333333333333337
sg8
I00
sg15
g16
sg17
F-134.80000000000001
sg18
F263.5
sg19
I4147589
sg20
S'6512.43724105'
p525
sg22
F0.29999999999999999
sbasg26
I00
sg27
I00
sg28
I4146955
sg20
S'6512.68433614'
p526
sba(igraph
Edge
p527
(dp528
g7
I1
sg8
I00
sg9
I5
sg10
(lp529
g523
a(igraph
Vertex
p530
(dp531
g14
F0.88888888888888884
sg8
I00
sg15
g16
sg17
F-134.80000000000001
sg18
F313.33333333333326
sg19
I4147590
sg20
S'6512.43785872'
p532
sg22
F0.29999999999999999
sbasg26
I00
sg27
I00
sg28
I4146956
sg20
S'6512.68596847'
p533
sba(igraph
Edge
p534
(dp535
g7
I1
sg8
I00
sg9
I5
sg10
(lp536
g530
a(igraph
Vertex
p537
(dp538
g14
F0.94444444444444442
sg8
I00
sg15
g16
sg17
F-134.80000000000001
sg18
F363.16666666666663
sg19
I4147591
sg20
S'6512.43848087'
p539
sg22
F0.29999999999999999
sbasg26
I00
sg27
I00
sg28
I4146957
sg20
S'6512.68761365'
p540
sba(igraph
Edge
p541
(dp542
g7
I1
sg8
I00
sg9
I5
sg10
(lp543
g537
a(igraph
Vertex
p544
(dp545
g14
F1.0
sg8
I00
sg15
g16
sg17
F-134.80000000000001
sg18
F413.0
sg19
I4147592
sg20
S'6512.44026238'
p546
sg22
F0.29999999999999999
sbasg26
I00
sg27
I00
sg28
I4146958
sg20
S'6512.6892904'
p547
sba(igraph
Edge
p548
(dp549
g7
I1
sg8
I00
sg9
I5
sg10
(lp550
g544
ag422
asg26
I00
sg27
I00
sg28
I4146959
sg20
S'6512.6909624'
p551
sba(igraph
Edge
p552
(dp553
g7
I1
sg8
I00
sg9
I5
sg10
(lp554
(igraph
Vertex
p555
(dp556
g14
F0.0
sg8
I00
sg15
g16
sg17
F-72.399999999999977
sg18
F-484.0
sg19
I4147593
sg20
S'6512.44094403'
p557
sg22
F0.40000000000000002
sba(igraph
Vertex
p558
(dp559
g14
F0.055555555555555552
sg8
I00
sg15
g16
sg17
F-72.399999999999977
sg18
F-434.16666666666669
sg19
I4147594
sg20
S'6512.44160613'
p560
sg22
F0.40000000000000002
sbasg26
I00
sg27
I00
sg28
I4146960
sg20
S'6512.69266206'
p561
sba(igraph
Edge
p562
(dp563
g7
I1
sg8
I00
sg9
I5
sg10
(lp564
g558
a(igraph
Vertex
p565
(dp566
g14
F0.1111111111111111
sg8
I00
sg15
g16
sg17
F-72.399999999999977
sg18
F-384.33333333333337
sg19
I4147595
sg20
S'6512.44228135'
p567
sg22
F0.40000000000000002
sbasg26
I00
sg27
I00
sg28
I4146961
sg20
S'6512.69438015'
p568
sba(igraph
Edge
p569
(dp570
g7
I1
sg8
I00
sg9
I5
sg10
(lp571
g565
a(igraph
Vertex
p572
(dp573
g14
F0.1666666666666666
sg8
I00
sg15
g16
sg17
F-72.399999999999977
sg18
F-334.50000000000006
sg19
I4147596
sg20
S'6512.44305156'
p574
sg22
F0.40000000000000002
sbasg26
I00
sg27
I00
sg28
I4146962
sg20
S'6512.69611724'
p575
sba(igraph
Edge
p576
(dp577
g7
I1
sg8
I00
sg9
I5
sg10
(lp578
g572
a(igraph
Vertex
p579
(dp580
g14
F0.22222222222222215
sg8
I00
sg15
g16
sg17
F-72.399999999999977
sg18
F-284.66666666666674
sg19
I4147597
sg20
S'6512.44373824'
p581
sg22
F0.40000000000000002
sbasg26
I00
sg27
I00
sg28
I4146963
sg20
S'6512.69787836'
p582
sba(igraph
Edge
p583
(dp584
g7
I1
sg8
I00
sg9
I5
sg10
(lp585
g579
a(igraph
Vertex
p586
(dp587
g14
F0.27777777777777768
sg8
I00
sg15
g16
sg17
F-72.399999999999977
sg18
F-234.83333333333343
sg19
I4147598
sg20
S'6512.44447744'
p588
sg22
F0.40000000000000002
sbasg26
I00
sg27
I00
sg28
I4146964
sg20
S'6512.69966267'
p589
sba(igraph
Edge
p590
(dp591
g7
I1
sg8
I00
sg9
I5
sg10
(lp592
g586
a(igraph
Vertex
p593
(dp594
g14
F0.33333333333333326
sg8
I00
sg15
g16
sg17
F-72.399999999999977
sg18
F-185.00000000000006
sg19
I4147599
sg20
S'6512.4455854'
p595
sg22
F0.40000000000000002
sbasg26
I00
sg27
I00
sg28
I4146965
sg20
S'6512.70191714'
p596
sba(igraph
Edge
p597
(dp598
g7
I1
sg8
I00
sg9
I5
sg10
(lp599
g593
a(igraph
Vertex
p600
(dp601
g14
F0.38888888888888884
sg8
I00
sg15
g16
sg17
F-72.399999999999977
sg18
F-135.16666666666669
sg19
I4147600
sg20
S'6512.4471275'
p602
sg22
F0.40000000000000002
sbasg26
I00
sg27
I00
sg28
I4146966
sg20
S'6512.70374335'
p603
sba(igraph
Edge
p604
(dp605
g7
I1
sg8
I00
sg9
I5
sg10
(lp606
g600
a(igraph
Vertex
p607
(dp608
g14
F0.44444444444444436
sg8
I00
sg15
g16
sg17
F-72.399999999999977
sg18
F-85.333333333333428
sg19
I4147601
sg20
S'6512.44821423'
p609
sg22
F0.40000000000000002
sbasg26
I00
sg27
I00
sg28
I4146967
sg20
S'6512.70557319'
p610
sba(igraph
Edge
p611
(dp612
g7
I1
sg8
I00
sg9
I5
sg10
(lp613
g607
a(igraph
Vertex
p614
(dp615
g14
F0.5
sg8
I00
sg15
g16
sg17
F-72.399999999999977
sg18
F-35.5
sg19
I4147602
sg20
S'6512.44931772'
p616
sg22
F0.40000000000000002
sbasg26
I00
sg27
I00
sg28
I4146968
sg20
S'6512.70742064'
p617
sba(igraph
Edge
p618
(dp619
g7
I1
sg8
I00
sg9
I5
sg10
(lp620
g614
a(igraph
Vertex
p621
(dp622
g14
F0.55555555555555558
sg8
I00
sg15
g16
sg17
F-72.399999999999977
sg18
F14.333333333333371
sg19
I4147603
sg20
S'6512.45075617'
p623
sg22
F0.40000000000000002
sbasg26
I00
sg27
I00
sg28
I4146969
sg20
S'6512.70928735'
p624
sba(igraph
Edge
p625
(dp626
g7
I1
sg8
I00
sg9
I5
sg10
(lp627
g621
a(igraph
Vertex
p628
(dp629
g14
F0.61111111111111116
sg8
I00
sg15
g16
sg17
F-72.399999999999977
sg18
F64.166666666666742
sg19
I4147604
sg20
S'6512.4518686'
p630
sg22
F0.40000000000000002
sbasg26
I00
sg27
I00
sg28
I4146970
sg20
S'6512.71121358'
p631
sba(igraph
Edge
p632
(dp633
g7
I1
sg8
I00
sg9
I5
sg10
(lp634
g628
a(igraph
Vertex
p635
(dp636
g14
F0.66666666666666663
sg8
I01
sg15
I0
sg17
F-72.399999999999977
sg18
F114.0
sg19
I4147606
sg20
S'6512.45303523'
p637
sg22
F0.40000000000000002
sbasg26
I00
sg27
I00
sg28
I4146971
sg20
S'6512.71320126'
p638
sba(igraph
Edge
p639
(dp640
g7
I1
sg8
I00
sg9
I5
sg10
(lp641
g635
a(igraph
Vertex
p642
(dp643
g14
F0.72222222222222221
sg8
I00
sg15
g16
sg17
F-72.399999999999977
sg18
F163.83333333333337
sg19
I4147608
sg20
S'6512.45414543'
p644
sg22
F0.40000000000000002
sbasg26
I00
sg27
I00
sg28
I4146972
sg20
S'6512.71521241'
p645
sba(igraph
Edge
p646
(dp647
g7
I1
sg8
I00
sg9
I5
sg10
(lp648
g642
a(igraph
Vertex
p649
(dp650
g14
F0.77777777777777779
sg8
I00
sg15
g16
sg17
F-72.399999999999977
sg18
F213.66666666666663
sg19
I4147609
sg20
S'6512.45525116'
p651
sg22
F0.40000000000000002
sbasg26
I00
sg27
I00
sg28
I4146973
sg20
S'6512.71720735'
p652
sba(igraph
Edge
p653
(dp654
g7
I1
sg8
I00
sg9
I5
sg10
(lp655
g649
a(igraph
Vertex
p656
(dp657
g14
F0.83333333333333337
sg8
I01
sg15
I0
sg17
F-72.399999999999977
sg18
F263.5
sg19
I4147611
sg20
S'6512.45635716'
p658
sg22
F0.40000000000000002
sbasg26
I00
sg27
I00
sg28
I4146974
sg20
S'6512.7192104'
p659
sba(igraph
Edge
p660
(dp661
g7
I1
sg8
I00
sg9
I5
sg10
(lp662
g656
a(igraph
Vertex
p663
(dp664
g14
F0.88888888888888884
sg8
I00
sg15
g16
sg17
F-72.399999999999977
sg18
F313.33333333333326
sg19
I4147613
sg20
S'6512.45747742'
p665
sg22
F0.40000000000000002
sbasg26
I00
sg27
I00
sg28
I4146975
sg20
S'6512.7212263'
p666
sba(igraph
Edge
p667
(dp668
g7
I1
sg8
I00
sg9
I5
sg10
(lp669
g663
a(igraph
Vertex
p670
(dp671
g14
F0.94444444444444442
sg8
I00
sg15
g16
sg17
F-72.399999999999977
sg18
F363.16666666666663
sg19
I4147614
sg20
S'6512.45881641'
p672
sg22
F0.40000000000000002
sbasg26
I00
sg27
I00
sg28
I4146976
sg20
S'6512.7232883'
p673
sba(igraph
Edge
p674
(dp675
g7
I1
sg8
I00
sg9
I5
sg10
(lp676
g670
a(igraph
Vertex
p677
(dp678
g14
F1.0
sg8
I00
sg15
g16
sg17
F-72.399999999999977
sg18
F413.0
sg19
I4147615
sg20
S'6512.45998695'
p679
sg22
F0.40000000000000002
sbasg26
I00
sg27
I00
sg28
I4146977
sg20
S'6512.72534889'
p680
sba(igraph
Edge
p681
(dp682
g7
I1
sg8
I00
sg9
I5
sg10
(lp683
g677
ag555
asg26
I00
sg27
I00
sg28
I4146978
sg20
S'6512.72754275'
p684
sba(igraph
Edge
p685
(dp686
g7
I1
sg8
I00
sg9
I5
sg10
(lp687
(igraph
Vertex
p688
(dp689
g14
F0.0
sg8
I00
sg15
g16
sg17
F-10.0
sg18
F-484.0
sg19
I4147616
sg20
S'6512.46116532'
p690
sg22
F0.5
sba(igraph
Vertex
p691
(dp692
g14
F0.055555555555555552
sg8
I00
sg15
g16
sg17
F-10.0
sg18
F-434.16666666666669
sg19
I4147617
sg20
S'6512.46246325'
p693
sg22
F0.5
sbasg26
I00
sg27
I00
sg28
I4146979
sg20
S'6512.7297123'
p694
sba(igraph
Edge
p695
(dp696
g7
I1
sg8
I00
sg9
I5
sg10
(lp697
g691
a(igraph
Vertex
p698
(dp699
g14
F0.1111111111111111
sg8
I00
sg15
g16
sg17
F-10.0
sg18
F-384.33333333333337
sg19
I4147618
sg20
S'6512.46370894'
p700
sg22
F0.5
sbasg26
I00
sg27
I00
sg28
I4146980
sg20
S'6512.73189302'
p701
sba(igraph
Edge
p702
(dp703
g7
I1
sg8
I00
sg9
I5
sg10
(lp704
g698
a(igraph
Vertex
p705
(dp706
g14
F0.1666666666666666
sg8
I00
sg15
g16
sg17
F-10.0
sg18
F-334.50000000000006
sg19
I4147619
sg20
S'6512.464932'
p707
sg22
F0.5
sbasg26
I00
sg27
I00
sg28
I4146981
sg20
S'6512.73405391'
p708
sba(igraph
Edge
p709
(dp710
g7
I1
sg8
I00
sg9
I5
sg10
(lp711
g705
a(igraph
Vertex
p712
(dp713
g14
F0.22222222222222215
sg8
I00
sg15
g16
sg17
F-10.0
sg18
F-284.66666666666674
sg19
I4147620
sg20
S'6512.46616735'
p714
sg22
F0.5
sbasg26
I00
sg27
I00
sg28
I4146982
sg20
S'6512.73622569'
p715
sba(igraph
Edge
p716
(dp717
g7
I1
sg8
I00
sg9
I5
sg10
(lp718
g712
a(igraph
Vertex
p719
(dp720
g14
F0.27777777777777768
sg8
I00
sg15
g16
sg17
F-10.0
sg18
F-234.83333333333343
sg19
I4147621
sg20
S'6512.46761502'
p721
sg22
F0.5
sbasg26
I00
sg27
I00
sg28
I4146983
sg20
S'6512.73841843'
p722
sba(igraph
Edge
p723
(dp724
g7
I1
sg8
I00
sg9
I5
sg10
(lp725
g719
a(igraph
Vertex
p726
(dp727
g14
F0.33333333333333326
sg8
I00
sg15
g16
sg17
F-10.0
sg18
F-185.00000000000006
sg19
I4147622
sg20
S'6512.46890736'
p728
sg22
F0.5
sbasg26
I00
sg27
I00
sg28
I4146984
sg20
S'6512.74069358'
p729
sba(igraph
Edge
p730
(dp731
g7
I1
sg8
I00
sg9
I5
sg10
(lp732
g726
a(igraph
Vertex
p733
(dp734
g14
F0.38888888888888884
sg8
I00
sg15
g16
sg17
F-10.0
sg18
F-135.16666666666669
sg19
I4147623
sg20
S'6512.47035391'
p735
sg22
F0.5
sbasg26
I00
sg27
I00
sg28
I4146985
sg20
S'6512.74297404'
p736
sba(igraph
Edge
p737
(dp738
g7
I1
sg8
I00
sg9
I5
sg10
(lp739
g733
a(igraph
Vertex
p740
(dp741
g14
F0.44444444444444436
sg8
I00
sg15
g16
sg17
F-10.0
sg18
F-85.333333333333428
sg19
I4147624
sg20
S'6512.47163369'
p742
sg22
F0.5
sbasg26
I00
sg27
I00
sg28
I4146986
sg20
S'6512.74526371'
p743
sba(igraph
Edge
p744
(dp745
g7
I1
sg8
I00
sg9
I5
sg10
(lp746
g740
a(igraph
Vertex
p747
(dp748
g14
F0.5
sg8
I00
sg15
g16
sg17
F-10.0
sg18
F-35.5
sg19
I4147625
sg20
S'6512.47288803'
p749
sg22
F0.5
sbasg26
I00
sg27
I00
sg28
I4146987
sg20
S'6512.74754305'
p750
sba(igraph
Edge
p751
(dp752
g7
I1
sg8
I00
sg9
I5
sg10
(lp753
g747
a(igraph
Vertex
p754
(dp755
g14
F0.55555555555555558
sg8
I01
sg15
I0
sg17
F-10.0
sg18
F14.333333333333371
sg19
I4147627
sg20
S'6512.47419071'
p756
sg22
F0.5
sbasg26
I00
sg27
I00
sg28
I4146988
sg20
S'6512.74983888'
p757
sba(igraph
Edge
p758
(dp759
g7
I1
sg8
I00
sg9
I5
sg10
(lp760
g754
a(igraph
Vertex
p761
(dp762
g14
F0.61111111111111116
sg8
I00
sg15
g16
sg17
F-10.0
sg18
F64.166666666666742
sg19
I4147629
sg20
S'6512.47557972'
p763
sg22
F0.5
sbasg26
I00
sg27
I00
sg28
I4146989
sg20
S'6512.75215844'
p764
sba(igraph
Edge
p765
(dp766
g7
I1
sg8
I00
sg9
I5
sg10
(lp767
g761
a(igraph
Vertex
p768
(dp769
g14
F0.66666666666666663
sg8
I00
sg15
g16
sg17
F-10.0
sg18
F114.0
sg19
I4147630
sg20
S'6512.47662538'
p770
sg22
F0.5
sbasg26
I00
sg27
I00
sg28
I4146990
sg20
S'6512.75450288'
p771
sba(igraph
Edge
p772
(dp773
g7
I1
sg8
I00
sg9
I5
sg10
(lp774
g768
a(igraph
Vertex
p775
(dp776
g14
F0.72222222222222221
sg8
I00
sg15
g16
sg17
F-10.0
sg18
F163.83333333333337
sg19
I4147631
sg20
S'6512.47774508'
p777
sg22
F0.5
sbasg26
I00
sg27
I00
sg28
I4146991
sg20
S'6512.7568705'
p778
sba(igraph
Edge
p779
(dp780
g7
I1
sg8
I00
sg9
I5
sg10
(lp781
g775
a(igraph
Vertex
p782
(dp783
g14
F0.77777777777777779
sg8
I00
sg15
g16
sg17
F-10.0
sg18
F213.66666666666663
sg19
I4147632
sg20
S'6512.47918464'
p784
sg22
F0.5
sbasg26
I00
sg27
I00
sg28
I4146992
sg20
S'6512.75922918'
p785
sba(igraph
Edge
p786
(dp787
g7
I1
sg8
I00
sg9
I5
sg10
(lp788
g782
a(igraph
Vertex
p789
(dp790
g14
F0.83333333333333337
sg8
I00
sg15
g16
sg17
F-10.0
sg18
F263.5
sg19
I4147633
sg20
S'6512.48069489'
p791
sg22
F0.5
sbasg26
I00
sg27
I00
sg28
I4146993
sg20
S'6512.76160713'
p792
sba(igraph
Edge
p793
(dp794
g7
I1
sg8
I00
sg9
I5
sg10
(lp795
g789
a(igraph
Vertex
p796
(dp797
g14
F0.88888888888888884
sg8
I00
sg15
g16
sg17
F-10.0
sg18
F313.33333333333326
sg19
I4147634
sg20
S'6512.48217525'
p798
sg22
F0.5
sbasg26
I00
sg27
I00
sg28
I4146994
sg20
S'6512.76409711'
p799
sba(igraph
Edge
p800
(dp801
g7
I1
sg8
I00
sg9
I5
sg10
(lp802
g796
a(igraph
Vertex
p803
(dp804
g14
F0.94444444444444442
sg8
I00
sg15
g16
sg17
F-10.0
sg18
F363.16666666666663
sg19
I4147635
sg20
S'6512.48368801'
p805
sg22
F0.5
sbasg26
I00
sg27
I00
sg28
I4146995
sg20
S'6512.76656391'
p806
sba(igraph
Edge
p807
(dp808
g7
I1
sg8
I00
sg9
I5
sg10
(lp809
g803
a(igraph
Vertex
p810
(dp811
g14
F1.0
sg8
I00
sg15
g16
sg17
F-10.0
sg18
F413.0
sg19
I4147636
sg20
S'6512.48499516'
p812
sg22
F0.5
sbasg26
I00
sg27
I00
sg28
I4146996
sg20
S'6512.76905137'
p813
sba(igraph
Edge
p814
(dp815
g7
I1
sg8
I00
sg9
I5
sg10
(lp816
g810
ag688
asg26
I00
sg27
I00
sg28
I4146997
sg20
S'6512.77154052'
p817
sba(igraph
Edge
p818
(dp819
g7
I1
sg8
I00
sg9
I5
sg10
(lp820
(igraph
Vertex
p821
(dp822
g14
F0.0
sg8
I00
sg15
g16
sg17
F52.399999999999977
sg18
F-484.0
sg19
I4147637
sg20
S'6512.48634477'
p823
sg22
F0.59999999999999998
sba(igraph
Vertex
p824
(dp825
g14
F0.055555555555555552
sg8
I00
sg15
g16
sg17
F52.399999999999977
sg18
F-434.16666666666669
sg19
I4147638
sg20
S'6512.48798632'
p826
sg22
F0.59999999999999998
sbasg26
I00
sg27
I00
sg28
I4146998
sg20
S'6512.77407603'
p827
sba(igraph
Edge
p828
(dp829
g7
I1
sg8
I00
sg9
I5
sg10
(lp830
g824
a(igraph
Vertex
p831
(dp832
g14
F0.1111111111111111
sg8
I00
sg15
g16
sg17
F52.399999999999977
sg18
F-384.33333333333337
sg19
I4147639
sg20
S'6512.48951221'
p833
sg22
F0.59999999999999998
sbasg26
I00
sg27
I00
sg28
I4146999
sg20
S'6512.77660541'
p834
sba(igraph
Edge
p835
(dp836
g7
I1
sg8
I00
sg9
I5
sg10
(lp837
g831
a(igraph
Vertex
p838
(dp839
g14
F0.1666666666666666
sg8
I00
sg15
g16
sg17
F52.399999999999977
sg18
F-334.50000000000006
sg19
I4147640
sg20
S'6512.49112471'
p840
sg22
F0.59999999999999998
sbasg26
I00
sg27
I00
sg28
I4147000
sg20
S'6512.77915042'
p841
sba(igraph
Edge
p842
(dp843
g7
I1
sg8
I00
sg9
I5
sg10
(lp844
g838
a(igraph
Vertex
p845
(dp846
g14
F0.22222222222222215
sg8
I00
sg15
g16
sg17
F52.399999999999977
sg18
F-284.66666666666674
sg19
I4147641
sg20
S'6512.49251651'
p847
sg22
F0.59999999999999998
sbasg26
I00
sg27
I00
sg28
I4147001
sg20
S'6512.78172114'
p848
sba(igraph
Edge
p849
(dp850
g7
I1
sg8
I00
sg9
I5
sg10
(lp851
g845
a(igraph
Vertex
p852
(dp853
g14
F0.27777777777777768
sg8
I00
sg15
g16
sg17
F52.399999999999977
sg18
F-234.83333333333343
sg19
I4147642
sg20
S'6512.49401502'
p854
sg22
F0.59999999999999998
sbasg26
I00
sg27
I00
sg28
I4147002
sg20
S'6512.78431113'
p855
sba(igraph
Edge
p856
(dp857
g7
I1
sg8
I00
sg9
I5
sg10
(lp858
g852
a(igraph
Vertex
p859
(dp860
g14
F0.33333333333333326
sg8
I00
sg15
g16
sg17
F52.399999999999977
sg18
F-185.00000000000006
sg19
I4147643
sg20
S'6512.49521573'
p861
sg22
F0.59999999999999998
sbasg26
I00
sg27
I00
sg28
I4147003
sg20
S'6512.78692739'
p862
sba(igraph
Edge
p863
(dp864
g7
I1
sg8
I00
sg9
I5
sg10
(lp865
g859
a(igraph
Vertex
p866
(dp867
g14
F0.38888888888888884
sg8
I00
sg15
g16
sg17
F52.399999999999977
sg18
F-135.16666666666669
sg19
I4147644
sg20
S'6512.49656339'
p868
sg22
F0.59999999999999998
sbasg26
I00
sg27
I00
sg28
I4147004
sg20
S'6512.78962103'
p869
sba(igraph
Edge
p870
(dp871
g7
I1
sg8
I00
sg9
I5
sg10
(lp872
g866
a(igraph
Vertex
p873
(dp874
g14
F0.44444444444444436
sg8
I01
sg15
I0
sg17
F52.399999999999977
sg18
F-85.333333333333428
sg19
I4147646
sg20
S'6512.49787305'
p875
sg22
F0.59999999999999998
sbasg26
I00
sg27
I00
sg28
I4147005
sg20
S'6512.79228366'
p876
sba(igraph
Edge
p877
(dp878
g7
I1
sg8
I00
sg9
I5
sg10
(lp879
g873
a(igraph
Vertex
p880
(dp881
g14
F0.5
sg8
I00
sg15
g16
sg17
F52.399999999999977
sg18
F-35.5
sg19
I4147648
sg20
S'6512.49899359'
p882
sg22
F0.59999999999999998
sbasg26
I00
sg27
I00
sg28
I4147006
sg20
S'6512.79496584'
p883
sba(igraph
Edge
p884
(dp885
g7
I1
sg8
I00
sg9
I5
sg10
(lp886
g880
a(igraph
Vertex
p887
(dp888
g14
F0.55555555555555558
sg8
I00
sg15
g16
sg17
F52.399999999999977
sg18
F14.333333333333371
sg19
I4147649
sg20
S'6512.50005741'
p889
sg22
F0.59999999999999998
sbasg26
I00
sg27
I00
sg28
I4147007
sg20
S'6512.79780084'
p890
sba(igraph
Edge
p891
(dp892
g7
I1
sg8
I00
sg9
I5
sg10
(lp893
g887
a(igraph
Vertex
p894
(dp895
g14
F0.61111111111111116
sg8
I00
sg15
g16
sg17
F52.399999999999977
sg18
F64.166666666666742
sg19
I4147650
sg20
S'6512.50111704'
p896
sg22
F0.59999999999999998
sbasg26
I00
sg27
I00
sg28
I4147008
sg20
S'6512.80051822'
p897
sba(igraph
Edge
p898
(dp899
g7
I1
sg8
I00
sg9
I5
sg10
(lp900
g894
a(igraph
Vertex
p901
(dp902
g14
F0.66666666666666663
sg8
I00
sg15
g16
sg17
F52.399999999999977
sg18
F114.0
sg19
I4147651
sg20
S'6512.50256667'
p903
sg22
F0.59999999999999998
sbasg26
I00
sg27
I00
sg28
I4147009
sg20
S'6512.80346608'
p904
sba(igraph
Edge
p905
(dp906
g7
I1
sg8
I00
sg9
I5
sg10
(lp907
g901
a(igraph
Vertex
p908
(dp909
g14
F0.72222222222222221
sg8
I00
sg15
g16
sg17
F52.399999999999977
sg18
F163.83333333333337
sg19
I4147652
sg20
S'6512.50385845'
p910
sg22
F0.59999999999999998
sbasg26
I00
sg27
I00
sg28
I4147010
sg20
S'6512.80622845'
p911
sba(igraph
Edge
p912
(dp913
g7
I1
sg8
I00
sg9
I5
sg10
(lp914
g908
a(igraph
Vertex
p915
(dp916
g14
F0.77777777777777779
sg8
I00
sg15
g16
sg17
F52.399999999999977
sg18
F213.66666666666663
sg19
I4147653
sg20
S'6512.50494462'
p917
sg22
F0.59999999999999998
sbasg26
I00
sg27
I00
sg28
I4147011
sg20
S'6512.80903802'
p918
sba(igraph
Edge
p919
(dp920
g7
I1
sg8
I00
sg9
I5
sg10
(lp921
g915
a(igraph
Vertex
p922
(dp923
g14
F0.83333333333333337
sg8
I00
sg15
g16
sg17
F52.399999999999977
sg18
F263.5
sg19
I4147654
sg20
S'6512.50609812'
p924
sg22
F0.59999999999999998
sbasg26
I00
sg27
I00
sg28
I4147012
sg20
S'6512.81183139'
p925
sba(igraph
Edge
p926
(dp927
g7
I1
sg8
I00
sg9
I5
sg10
(lp928
g922
a(igraph
Vertex
p929
(dp930
g14
F0.88888888888888884
sg8
I00
sg15
g16
sg17
F52.399999999999977
sg18
F313.33333333333326
sg19
I4147655
sg20
S'6512.50736672'
p931
sg22
F0.59999999999999998
sbasg26
I00
sg27
I00
sg28
I4147013
sg20
S'6512.81464041'
p932
sba(igraph
Edge
p933
(dp934
g7
I1
sg8
I00
sg9
I5
sg10
(lp935
g929
a(igraph
Vertex
p936
(dp937
g14
F0.94444444444444442
sg8
I00
sg15
g16
sg17
F52.399999999999977
sg18
F363.16666666666663
sg19
I4147656
sg20
S'6512.50879567'
p938
sg22
F0.59999999999999998
sbasg26
I00
sg27
I00
sg28
I4147014
sg20
S'6512.81747401'
p939
sba(igraph
Edge
p940
(dp941
g7
I1
sg8
I00
sg9
I5
sg10
(lp942
g936
a(igraph
Vertex
p943
(dp944
g14
F1.0
sg8
I00
sg15
g16
sg17
F52.399999999999977
sg18
F413.0
sg19
I4147657
sg20
S'6512.5099'
p945
sg22
F0.59999999999999998
sbasg26
I00
sg27
I00
sg28
I4147015
sg20
S'6512.8203308'
p946
sba(igraph
Edge
p947
(dp948
g7
I1
sg8
I00
sg9
I5
sg10
(lp949
g943
ag821
asg26
I00
sg27
I00
sg28
I4147016
sg20
S'6512.82327223'
p950
sba(igraph
Edge
p951
(dp952
g7
I1
sg8
I00
sg9
I5
sg10
(lp953
(igraph
Vertex
p954
(dp955
g14
F0.0
sg8
I00
sg15
g16
sg17
F114.79999999999995
sg18
F-484.0
sg19
I4147658
sg20
S'6512.51113284'
p956
sg22
F0.69999999999999996
sba(igraph
Vertex
p957
(dp958
g14
F0.055555555555555552
sg8
I00
sg15
g16
sg17
F114.79999999999995
sg18
F-434.16666666666669
sg19
I4147659
sg20
S'6512.51236791'
p959
sg22
F0.69999999999999996
sbasg26
I00
sg27
I00
sg28
I4147017
sg20
S'6512.82617707'
p960
sba(igraph
Edge
p961
(dp962
g7
I1
sg8
I00
sg9
I5
sg10
(lp963
g957
a(igraph
Vertex
p964
(dp965
g14
F0.1111111111111111
sg8
I00
sg15
g16
sg17
F114.79999999999995
sg18
F-384.33333333333337
sg19
I4147660
sg20
S'6512.51376865'
p966
sg22
F0.69999999999999996
sbasg26
I00
sg27
I00
sg28
I4147018
sg20
S'6512.82909057'
p967
sba(igraph
Edge
p968
(dp969
g7
I1
sg8
I00
sg9
I5
sg10
(lp970
g964
a(igraph
Vertex
p971
(dp972
g14
F0.1666666666666666
sg8
I00
sg15
g16
sg17
F114.79999999999995
sg18
F-334.50000000000006
sg19
I4147661
sg20
S'6512.51526884'
p973
sg22
F0.69999999999999996
sbasg26
I00
sg27
I00
sg28
I4147019
sg20
S'6512.83207419'
p974
sba(igraph
Edge
p975
(dp976
g7
I1
sg8
I00
sg9
I5
sg10
(lp977
g971
a(igraph
Vertex
p978
(dp979
g14
F0.22222222222222215
sg8
I00
sg15
g16
sg17
F114.79999999999995
sg18
F-284.66666666666674
sg19
I4147662
sg20
S'6512.51652068'
p980
sg22
F0.69999999999999996
sbasg26
I00
sg27
I00
sg28
I4147020
sg20
S'6512.83506647'
p981
sba(igraph
Edge
p982
(dp983
g7
I1
sg8
I00
sg9
I5
sg10
(lp984
g978
a(igraph
Vertex
p985
(dp986
g14
F0.27777777777777768
sg8
I00
sg15
g16
sg17
F114.79999999999995
sg18
F-234.83333333333343
sg19
I4147663
sg20
S'6512.51781944'
p987
sg22
F0.69999999999999996
sbasg26
I00
sg27
I00
sg28
I4147021
sg20
S'6512.8381082'
p988
sba(igraph
Edge
p989
(dp990
g7
I1
sg8
I00
sg9
I5
sg10
(lp991
g985
a(igraph
Vertex
p992
(dp993
g14
F0.33333333333333326
sg8
I01
sg15
I0
sg17
F114.79999999999995
sg18
F-185.00000000000006
sg19
I4147665
sg20
S'6512.51913022'
p994
sg22
F0.69999999999999996
sbasg26
I00
sg27
I00
sg28
I4147022
sg20
S'6512.84114126'
p995
sba(igraph
Edge
p996
(dp997
g7
I1
sg8
I00
sg9
I5
sg10
(lp998
g992
a(igraph
Vertex
p999
(dp1000
g14
F0.38888888888888884
sg8
I00
sg15
g16
sg17
F114.79999999999995
sg18
F-135.16666666666669
sg19
I4147667
sg20
S'6512.52040078'
p1001
sg22
F0.69999999999999996
sbasg26
I00
sg27
I00
sg28
I4147023
sg20
S'6512.84429194'
p1002
sba(igraph
Edge
p1003
(dp1004
g7
I1
sg8
I00
sg9
I5
sg10
(lp1005
g999
a(igraph
Vertex
p1006
(dp1007
g14
F0.44444444444444436
sg8
I00
sg15
g16
sg17
F114.79999999999995
sg18
F-85.333333333333428
sg19
I4147668
sg20
S'6512.52174313'
p1008
sg22
F0.69999999999999996
sbasg26
I00
sg27
I00
sg28
I4147024
sg20
S'6512.84740966'
p1009
sba(igraph
Edge
p1010
(dp1011
g7
I1
sg8
I00
sg9
I5
sg10
(lp1012
g1006
a(igraph
Vertex
p1013
(dp1014
g14
F0.5
sg8
I01
sg15
I0
sg17
F114.79999999999995
sg18
F-35.5
sg19
I4147670
sg20
S'6512.52311649'
p1015
sg22
F0.69999999999999996
sbasg26
I00
sg27
I00
sg28
I4147025
sg20
S'6512.85058241'
p1016
sba(igraph
Edge
p1017
(dp1018
g7
I1
sg8
I00
sg9
I5
sg10
(lp1019
g1013
a(igraph
Vertex
p1020
(dp1021
g14
F0.55555555555555558
sg8
I00
sg15
g16
sg17
F114.79999999999995
sg18
F14.333333333333371
sg19
I4147672
sg20
S'6512.52443621'
p1022
sg22
F0.69999999999999996
sbasg26
I00
sg27
I00
sg28
I4147026
sg20
S'6512.85370934'
p1023
sba(igraph
Edge
p1024
(dp1025
g7
I1
sg8
I00
sg9
I5
sg10
(lp1026
g1020
a(igraph
Vertex
p1027
(dp1028
g14
F0.61111111111111116
sg8
I00
sg15
g16
sg17
F114.79999999999995
sg18
F64.166666666666742
sg19
I4147673
sg20
S'6512.5258917'
p1029
sg22
F0.69999999999999996
sbasg26
I00
sg27
I00
sg28
I4147027
sg20
S'6512.85685387'
p1030
sba(igraph
Edge
p1031
(dp1032
g7
I1
sg8
I00
sg9
I5
sg10
(lp1033
g1027
a(igraph
Vertex
p1034
(dp1035
g14
F0.66666666666666663
sg8
I00
sg15
g16
sg17
F114.79999999999995
sg18
F114.0
sg19
I4147674
sg20
S'6512.52727539'
p1036
sg22
F0.69999999999999996
sbasg26
I00
sg27
I00
sg28
I4147028
sg20
S'6512.86002383'
p1037
sba(igraph
Edge
p1038
(dp1039
g7
I1
sg8
I00
sg9
I5
sg10
(lp1040
g1034
a(igraph
Vertex
p1041
(dp1042
g14
F0.72222222222222221
sg8
I00
sg15
g16
sg17
F114.79999999999995
sg18
F163.83333333333337
sg19
I4147675
sg20
S'6512.52861886'
p1043
sg22
F0.69999999999999996
sbasg26
I00
sg27
I00
sg28
I4147029
sg20
S'6512.8632139'
p1044
sba(igraph
Edge
p1045
(dp1046
g7
I1
sg8
I00
sg9
I5
sg10
(lp1047
g1041
a(igraph
Vertex
p1048
(dp1049
g14
F0.77777777777777779
sg8
I00
sg15
g16
sg17
F114.79999999999995
sg18
F213.66666666666663
sg19
I4147676
sg20
S'6512.52998859'
p1050
sg22
F0.69999999999999996
sbasg26
I00
sg27
I00
sg28
I4147030
sg20
S'6512.86715155'
p1051
sba(igraph
Edge
p1052
(dp1053
g7
I1
sg8
I00
sg9
I5
sg10
(lp1054
g1048
a(igraph
Vertex
p1055
(dp1056
g14
F0.83333333333333337
sg8
I00
sg15
g16
sg17
F114.79999999999995
sg18
F263.5
sg19
I4147677
sg20
S'6512.53143682'
p1057
sg22
F0.69999999999999996
sbasg26
I00
sg27
I00
sg28
I4147031
sg20
S'6512.87036006'
p1058
sba(igraph
Edge
p1059
(dp1060
g7
I1
sg8
I00
sg9
I5
sg10
(lp1061
g1055
a(igraph
Vertex
p1062
(dp1063
g14
F0.88888888888888884
sg8
I00
sg15
g16
sg17
F114.79999999999995
sg18
F313.33333333333326
sg19
I4147678
sg20
S'6512.53279118'
p1064
sg22
F0.69999999999999996
sbasg26
I00
sg27
I00
sg28
I4147032
sg20
S'6512.87366132'
p1065
sba(igraph
Edge
p1066
(dp1067
g7
I1
sg8
I00
sg9
I5
sg10
(lp1068
g1062
a(igraph
Vertex
p1069
(dp1070
g14
F0.94444444444444442
sg8
I00
sg15
g16
sg17
F114.79999999999995
sg18
F363.16666666666663
sg19
I4147679
sg20
S'6512.5342341'
p1071
sg22
F0.69999999999999996
sbasg26
I00
sg27
I00
sg28
I4147033
sg20
S'6512.87694553'
p1072
sba(igraph
Edge
p1073
(dp1074
g7
I1
sg8
I00
sg9
I5
sg10
(lp1075
g1069
a(igraph
Vertex
p1076
(dp1077
g14
F1.0
sg8
I00
sg15
g16
sg17
F114.79999999999995
sg18
F413.0
sg19
I4147680
sg20
S'6512.53566249'
p1078
sg22
F0.69999999999999996
sbasg26
I00
sg27
I00
sg28
I4147034
sg20
S'6512.88024372'
p1079
sba(igraph
Edge
p1080
(dp1081
g7
I1
sg8
I00
sg9
I5
sg10
(lp1082
g1076
ag954
asg26
I00
sg27
I00
sg28
I4147035
sg20
S'6512.88354274'
p1083
sba(igraph
Edge
p1084
(dp1085
g7
I1
sg8
I00
sg9
I5
sg10
(lp1086
(igraph
Vertex
p1087
(dp1088
g14
F0.0
sg8
I00
sg15
g16
sg17
F177.20000000000005
sg18
F-484.0
sg19
I4147681
sg20
S'6512.53701406'
p1089
sg22
F0.80000000000000004
sba(igraph
Vertex
p1090
(dp1091
g14
F0.055555555555555552
sg8
I00
sg15
g16
sg17
F177.20000000000005
sg18
F-434.16666666666669
sg19
I4147682
sg20
S'6512.53850364'
p1092
sg22
F0.80000000000000004
sbasg26
I00
sg27
I00
sg28
I4147036
sg20
S'6512.88693004'
p1093
sba(igraph
Edge
p1094
(dp1095
g7
I1
sg8
I00
sg9
I5
sg10
(lp1096
g1090
a(igraph
Vertex
p1097
(dp1098
g14
F0.1111111111111111
sg8
I00
sg15
g16
sg17
F177.20000000000005
sg18
F-384.33333333333337
sg19
I4147683
sg20
S'6512.53997002'
p1099
sg22
F0.80000000000000004
sbasg26
I00
sg27
I00
sg28
I4147037
sg20
S'6512.89035729'
p1100
sba(igraph
Edge
p1101
(dp1102
g7
I1
sg8
I00
sg9
I5
sg10
(lp1103
g1097
a(igraph
Vertex
p1104
(dp1105
g14
F0.1666666666666666
sg8
I00
sg15
g16
sg17
F177.20000000000005
sg18
F-334.50000000000006
sg19
I4147684
sg20
S'6512.54147413'
p1106
sg22
F0.80000000000000004
sbasg26
I00
sg27
I00
sg28
I4147038
sg20
S'6512.89373566'
p1107
sba(igraph
Edge
p1108
(dp1109
g7
I1
sg8
I00
sg9
I5
sg10
(lp1110
g1104
a(igraph
Vertex
p1111
(dp1112
g14
F0.22222222222222215
sg8
I01
sg15
I0
sg17
F177.20000000000005
sg18
F-284.66666666666674
sg19
I4147686
sg20
S'6512.54290867'
p1113
sg22
F0.80000000000000004
sbasg26
I00
sg27
I00
sg28
I4147039
sg20
S'6512.89720984'
p1114
sba(igraph
Edge
p1115
(dp1116
g7
I1
sg8
I00
sg9
I5
sg10
(lp1117
g1111
a(igraph
Vertex
p1118
(dp1119
g14
F0.27777777777777768
sg8
I00
sg15
g16
sg17
F177.20000000000005
sg18
F-234.83333333333343
sg19
I4147688
sg20
S'6512.54438148'
p1120
sg22
F0.80000000000000004
sbasg26
I00
sg27
I00
sg28
I4147040
sg20
S'6512.90070414'
p1121
sba(igraph
Edge
p1122
(dp1123
g7
I1
sg8
I00
sg9
I5
sg10
(lp1124
g1118
a(igraph
Vertex
p1125
(dp1126
g14
F0.33333333333333326
sg8
I00
sg15
g16
sg17
F177.20000000000005
sg18
F-185.00000000000006
sg19
I4147689
sg20
S'6512.54573947'
p1127
sg22
F0.80000000000000004
sbasg26
I00
sg27
I00
sg28
I4147041
sg20
S'6512.90416436'
p1128
sba(igraph
Edge
p1129
(dp1130
g7
I1
sg8
I00
sg9
I5
sg10
(lp1131
g1125
a(igraph
Vertex
p1132
(dp1133
g14
F0.38888888888888884
sg8
I00
sg15
g16
sg17
F177.20000000000005
sg18
F-135.16666666666669
sg19
I4147690
sg20
S'6512.54707903'
p1134
sg22
F0.80000000000000004
sbasg26
I00
sg27
I00
sg28
I4147042
sg20
S'6512.90764552'
p1135
sba(igraph
Edge
p1136
(dp1137
g7
I1
sg8
I00
sg9
I5
sg10
(lp1138
g1132
a(igraph
Vertex
p1139
(dp1140
g14
F0.44444444444444436
sg8
I00
sg15
g16
sg17
F177.20000000000005
sg18
F-85.333333333333428
sg19
I4147691
sg20
S'6512.54843199'
p1141
sg22
F0.80000000000000004
sbasg26
I00
sg27
I00
sg28
I4147043
sg20
S'6512.91114709'
p1142
sba(igraph
Edge
p1143
(dp1144
g7
I1
sg8
I00
sg9
I5
sg10
(lp1145
g1139
a(igraph
Vertex
p1146
(dp1147
g14
F0.5
sg8
I00
sg15
g16
sg17
F177.20000000000005
sg18
F-35.5
sg19
I4147692
sg20
S'6512.54978943'
p1148
sg22
F0.80000000000000004
sbasg26
I00
sg27
I00
sg28
I4147044
sg20
S'6512.91545127'
p1149
sba(igraph
Edge
p1150
(dp1151
g7
I1
sg8
I00
sg9
I5
sg10
(lp1152
g1146
a(igraph
Vertex
p1153
(dp1154
g14
F0.55555555555555558
sg8
I00
sg15
g16
sg17
F177.20000000000005
sg18
F14.333333333333371
sg19
I4147693
sg20
S'6512.55115664'
p1155
sg22
F0.80000000000000004
sbasg26
I00
sg27
I00
sg28
I4147045
sg20
S'6512.91969175'
p1156
sba(igraph
Edge
p1157
(dp1158
g7
I1
sg8
I00
sg9
I5
sg10
(lp1159
g1153
a(igraph
Vertex
p1160
(dp1161
g14
F0.61111111111111116
sg8
I00
sg15
g16
sg17
F177.20000000000005
sg18
F64.166666666666742
sg19
I4147694
sg20
S'6512.55252553'
p1162
sg22
F0.80000000000000004
sbasg26
I00
sg27
I00
sg28
I4147046
sg20
S'6512.9232774'
p1163
sba(igraph
Edge
p1164
(dp1165
g7
I1
sg8
I00
sg9
I5
sg10
(lp1166
g1160
a(igraph
Vertex
p1167
(dp1168
g14
F0.66666666666666663
sg8
I00
sg15
g16
sg17
F177.20000000000005
sg18
F114.0
sg19
I4147695
sg20
S'6512.55390112'
p1169
sg22
F0.80000000000000004
sbasg26
I00
sg27
I00
sg28
I4147047
sg20
S'6512.92684908'
p1170
sba(igraph
Edge
p1171
(dp1172
g7
I1
sg8
I00
sg9
I5
sg10
(lp1173
g1167
a(igraph
Vertex
p1174
(dp1175
g14
F0.72222222222222221
sg8
I00
sg15
g16
sg17
F177.20000000000005
sg18
F163.83333333333337
sg19
I4147696
sg20
S'6512.55528566'
p1176
sg22
F0.80000000000000004
sbasg26
I00
sg27
I00
sg28
I4147048
sg20
S'6512.93046099'
p1177
sba(igraph
Edge
p1178
(dp1179
g7
I1
sg8
I00
sg9
I5
sg10
(lp1180
g1174
a(igraph
Vertex
p1181
(dp1182
g14
F0.77777777777777779
sg8
I00
sg15
g16
sg17
F177.20000000000005
sg18
F213.66666666666663
sg19
I4147697
sg20
S'6512.55668304'
p1183
sg22
F0.80000000000000004
sbasg26
I00
sg27
I00
sg28
I4147049
sg20
S'6512.93408995'
p1184
sba(igraph
Edge
p1185
(dp1186
g7
I1
sg8
I00
sg9
I5
sg10
(lp1187
g1181
a(igraph
Vertex
p1188
(dp1189
g14
F0.83333333333333337
sg8
I00
sg15
g16
sg17
F177.20000000000005
sg18
F263.5
sg19
I4147698
sg20
S'6512.55808825'
p1190
sg22
F0.80000000000000004
sbasg26
I00
sg27
I00
sg28
I4147050
sg20
S'6512.93790468'
p1191
sba(igraph
Edge
p1192
(dp1193
g7
I1
sg8
I00
sg9
I5
sg10
(lp1194
g1188
a(igraph
Vertex
p1195
(dp1196
g14
F0.88888888888888884
sg8
I00
sg15
g16
sg17
F177.20000000000005
sg18
F313.33333333333326
sg19
I4147699
sg20
S'6512.5595524'
p1197
sg22
F0.80000000000000004
sbasg26
I00
sg27
I00
sg28
I4147051
sg20
S'6512.94155738'
p1198
sba(igraph
Edge
p1199
(dp1200
g7
I1
sg8
I00
sg9
I5
sg10
(lp1201
g1195
a(igraph
Vertex
p1202
(dp1203
g14
F0.94444444444444442
sg8
I00
sg15
g16
sg17
F177.20000000000005
sg18
F363.16666666666663
sg19
I4147700
sg20
S'6512.56098387'
p1204
sg22
F0.80000000000000004
sbasg26
I00
sg27
I00
sg28
I4147052
sg20
S'6512.94525617'
p1205
sba(igraph
Edge
p1206
(dp1207
g7
I1
sg8
I00
sg9
I5
sg10
(lp1208
g1202
a(igraph
Vertex
p1209
(dp1210
g14
F1.0
sg8
I00
sg15
g16
sg17
F177.20000000000005
sg18
F413.0
sg19
I4147701
sg20
S'6512.56241869'
p1211
sg22
F0.80000000000000004
sbasg26
I00
sg27
I00
sg28
I4147053
sg20
S'6512.94902425'
p1212
sba(igraph
Edge
p1213
(dp1214
g7
I1
sg8
I00
sg9
I5
sg10
(lp1215
g1209
ag1087
asg26
I00
sg27
I00
sg28
I4147054
sg20
S'6512.95278311'
p1216
sba(igraph
Edge
p1217
(dp1218
g7
I1
sg8
I00
sg9
I5
sg10
(lp1219
(igraph
Vertex
p1220
(dp1221
g14
F0.0
sg8
I00
sg15
g16
sg17
F239.60000000000002
sg18
F-484.0
sg19
I4147702
sg20
S'6512.56386217'
p1222
sg22
F0.90000000000000002
sba(igraph
Vertex
p1223
(dp1224
g14
F0.055555555555555552
sg8
I00
sg15
g16
sg17
F239.60000000000002
sg18
F-434.16666666666669
sg19
I4147703
sg20
S'6512.56531906'
p1225
sg22
F0.90000000000000002
sbasg26
I00
sg27
I00
sg28
I4147055
sg20
S'6512.95651431'
p1226
sba(igraph
Edge
p1227
(dp1228
g7
I1
sg8
I00
sg9
I5
sg10
(lp1229
g1223
a(igraph
Vertex
p1230
(dp1231
g14
F0.1111111111111111
sg8
I01
sg15
I0
sg17
F239.60000000000002
sg18
F-384.33333333333337
sg19
I4147705
sg20
S'6512.56678237'
p1232
sg22
F0.90000000000000002
sbasg26
I00
sg27
I00
sg28
I4147056
sg20
S'6512.96026394'
p1233
sba(igraph
Edge
p1234
(dp1235
g7
I1
sg8
I00
sg9
I5
sg10
(lp1236
g1230
a(igraph
Vertex
p1237
(dp1238
g14
F0.1666666666666666
sg8
I00
sg15
g16
sg17
F239.60000000000002
sg18
F-334.50000000000006
sg19
I4147707
sg20
S'6512.56824764'
p1239
sg22
F0.90000000000000002
sbasg26
I00
sg27
I00
sg28
I4147057
sg20
S'6512.96411024'
p1240
sba(igraph
Edge
p1241
(dp1242
g7
I1
sg8
I00
sg9
I5
sg10
(lp1243
g1237
a(igraph
Vertex
p1244
(dp1245
g14
F0.22222222222222215
sg8
I00
sg15
g16
sg17
F239.60000000000002
sg18
F-284.66666666666674
sg19
I4147708
sg20
S'6512.56972185'
p1246
sg22
F0.90000000000000002
sbasg26
I00
sg27
I00
sg28
I4147058
sg20
S'6512.9679381'
p1247
sba(igraph
Edge
p1248
(dp1249
g7
I1
sg8
I00
sg9
I5
sg10
(lp1250
g1244
a(igraph
Vertex
p1251
(dp1252
g14
F0.27777777777777768
sg8
I00
sg15
g16
sg17
F239.60000000000002
sg18
F-234.83333333333343
sg19
I4147709
sg20
S'6512.57120668'
p1253
sg22
F0.90000000000000002
sbasg26
I00
sg27
I00
sg28
I4147059
sg20
S'6512.9717749'
p1254
sba(igraph
Edge
p1255
(dp1256
g7
I1
sg8
I00
sg9
I5
sg10
(lp1257
g1251
a(igraph
Vertex
p1258
(dp1259
g14
F0.33333333333333326
sg8
I00
sg15
g16
sg17
F239.60000000000002
sg18
F-185.00000000000006
sg19
I4147710
sg20
S'6512.57273508'
p1260
sg22
F0.90000000000000002
sbasg26
I00
sg27
I00
sg28
I4147060
sg20
S'6512.97569412'
p1261
sba(igraph
Edge
p1262
(dp1263
g7
I1
sg8
I00
sg9
I5
sg10
(lp1264
g1258
a(igraph
Vertex
p1265
(dp1266
g14
F0.38888888888888884
sg8
I00
sg15
g16
sg17
F239.60000000000002
sg18
F-135.16666666666669
sg19
I4147711
sg20
S'6512.57423555'
p1267
sg22
F0.90000000000000002
sbasg26
I00
sg27
I00
sg28
I4147061
sg20
S'6512.97956556'
p1268
sba(igraph
Edge
p1269
(dp1270
g7
I1
sg8
I00
sg9
I5
sg10
(lp1271
g1265
a(igraph
Vertex
p1272
(dp1273
g14
F0.44444444444444436
sg8
I00
sg15
g16
sg17
F239.60000000000002
sg18
F-85.333333333333428
sg19
I4147712
sg20
S'6512.57573407'
p1274
sg22
F0.90000000000000002
sbasg26
I00
sg27
I00
sg28
I4147062
sg20
S'6512.98345879'
p1275
sba(igraph
Edge
p1276
(dp1277
g7
I1
sg8
I00
sg9
I5
sg10
(lp1278
g1272
a(igraph
Vertex
p1279
(dp1280
g14
F0.5
sg8
I00
sg15
g16
sg17
F239.60000000000002
sg18
F-35.5
sg19
I4147713
sg20
S'6512.57733399'
p1281
sg22
F0.90000000000000002
sbasg26
I00
sg27
I00
sg28
I4147063
sg20
S'6512.9873794'
p1282
sba(igraph
Edge
p1283
(dp1284
g7
I1
sg8
I00
sg9
I5
sg10
(lp1285
g1279
a(igraph
Vertex
p1286
(dp1287
g14
F0.55555555555555558
sg8
I00
sg15
g16
sg17
F239.60000000000002
sg18
F14.333333333333371
sg19
I4147714
sg20
S'6512.57888894'
p1288
sg22
F0.90000000000000002
sbasg26
I00
sg27
I00
sg28
I4147064
sg20
S'6512.99130811'
p1289
sba(igraph
Edge
p1290
(dp1291
g7
I1
sg8
I00
sg9
I5
sg10
(lp1292
g1286
a(igraph
Vertex
p1293
(dp1294
g14
F0.61111111111111116
sg8
I00
sg15
g16
sg17
F239.60000000000002
sg18
F64.166666666666742
sg19
I4147715
sg20
S'6512.58044137'
p1295
sg22
F0.90000000000000002
sbasg26
I00
sg27
I00
sg28
I4147065
sg20
S'6512.99525247'
p1296
sba(igraph
Edge
p1297
(dp1298
g7
I1
sg8
I00
sg9
I5
sg10
(lp1299
g1293
a(igraph
Vertex
p1300
(dp1301
g14
F0.66666666666666663
sg8
I00
sg15
g16
sg17
F239.60000000000002
sg18
F114.0
sg19
I4147716
sg20
S'6512.5819938'
p1302
sg22
F0.90000000000000002
sbasg26
I00
sg27
I00
sg28
I4147066
sg20
S'6512.99930159'
p1303
sba(igraph
Edge
p1304
(dp1305
g7
I1
sg8
I00
sg9
I5
sg10
(lp1306
g1300
a(igraph
Vertex
p1307
(dp1308
g14
F0.72222222222222221
sg8
I00
sg15
g16
sg17
F239.60000000000002
sg18
F163.83333333333337
sg19
I4147717
sg20
S'6512.58355936'
p1309
sg22
F0.90000000000000002
sbasg26
I00
sg27
I00
sg28
I4147067
sg20
S'6513.00330657'
p1310
sba(igraph
Edge
p1311
(dp1312
g7
I1
sg8
I00
sg9
I5
sg10
(lp1313
g1307
a(igraph
Vertex
p1314
(dp1315
g14
F0.77777777777777779
sg8
I00
sg15
g16
sg17
F239.60000000000002
sg18
F213.66666666666663
sg19
I4147718
sg20
S'6512.58515593'
p1316
sg22
F0.90000000000000002
sbasg26
I00
sg27
I00
sg28
I4147068
sg20
S'6513.00731266'
p1317
sba(igraph
Edge
p1318
(dp1319
g7
I1
sg8
I00
sg9
I5
sg10
(lp1320
g1314
a(igraph
Vertex
p1321
(dp1322
g14
F0.83333333333333337
sg8
I00
sg15
g16
sg17
F239.60000000000002
sg18
F263.5
sg19
I4147719
sg20
S'6512.58674413'
p1323
sg22
F0.90000000000000002
sbasg26
I00
sg27
I00
sg28
I4147069
sg20
S'6513.0114481'
p1324
sba(igraph
Edge
p1325
(dp1326
g7
I1
sg8
I00
sg9
I5
sg10
(lp1327
g1321
a(igraph
Vertex
p1328
(dp1329
g14
F0.88888888888888884
sg8
I00
sg15
g16
sg17
F239.60000000000002
sg18
F313.33333333333326
sg19
I4147720
sg20
S'6512.5883583'
p1330
sg22
F0.90000000000000002
sbasg26
I00
sg27
I00
sg28
I4147070
sg20
S'6513.0155422'
p1331
sba(igraph
Edge
p1332
(dp1333
g7
I1
sg8
I00
sg9
I5
sg10
(lp1334
g1328
a(igraph
Vertex
p1335
(dp1336
g14
F0.94444444444444442
sg8
I00
sg15
g16
sg17
F239.60000000000002
sg18
F363.16666666666663
sg19
I4147721
sg20
S'6512.58996269'
p1337
sg22
F0.90000000000000002
sbasg26
I00
sg27
I00
sg28
I4147071
sg20
S'6513.01961702'
p1338
sba(igraph
Edge
p1339
(dp1340
g7
I1
sg8
I00
sg9
I5
sg10
(lp1341
g1335
a(igraph
Vertex
p1342
(dp1343
g14
F1.0
sg8
I00
sg15
g16
sg17
F239.60000000000002
sg18
F413.0
sg19
I4147722
sg20
S'6512.59165928'
p1344
sg22
F0.90000000000000002
sbasg26
I00
sg27
I00
sg28
I4147072
sg20
S'6513.02378682'
p1345
sba(igraph
Edge
p1346
(dp1347
g7
I1
sg8
I00
sg9
I5
sg10
(lp1348
g1342
ag1220
asg26
I00
sg27
I00
sg28
I4147073
sg20
S'6513.02791668'
p1349
sba(igraph
Edge
p1350
(dp1351
g7
I1
sg8
I00
sg9
I5
sg10
(lp1352
(igraph
Vertex
p1353
(dp1354
g14
F0.0
sg8
I01
sg15
I0
sg17
F302.0
sg18
F-484.0
sg19
I4147724
sg20
S'6512.5932849'
p1355
sg22
F1.0
sba(igraph
Vertex
p1356
(dp1357
g14
F0.055555555555555552
sg8
I00
sg15
g16
sg17
F302.0
sg18
F-434.16666666666669
sg19
I4147726
sg20
S'6512.59490522'
p1358
sg22
F1.0
sbasg26
I00
sg27
I00
sg28
I4147074
sg20
S'6513.03204932'
p1359
sba(igraph
Edge
p1360
(dp1361
g7
I1
sg8
I00
sg9
I5
sg10
(lp1362
g1356
a(igraph
Vertex
p1363
(dp1364
g14
F0.1111111111111111
sg8
I00
sg15
g16
sg17
F302.0
sg18
F-384.33333333333337
sg19
I4147727
sg20
S'6512.59653811'
p1365
sg22
F1.0
sbasg26
I00
sg27
I00
sg28
I4147075
sg20
S'6513.03619594'
p1366
sba(igraph
Edge
p1367
(dp1368
g7
I1
sg8
I00
sg9
I5
sg10
(lp1369
g1363
a(igraph
Vertex
p1370
(dp1371
g14
F0.1666666666666666
sg8
I01
sg15
I0
sg17
F302.0
sg18
F-334.50000000000006
sg19
I4147729
sg20
S'6512.59818636'
p1372
sg22
F1.0
sbasg26
I00
sg27
I00
sg28
I4147076
sg20
S'6513.04051465'
p1373
sba(igraph
Edge
p1374
(dp1375
g7
I1
sg8
I00
sg9
I5
sg10
(lp1376
g1370
a(igraph
Vertex
p1377
(dp1378
g14
F0.22222222222222215
sg8
I00
sg15
g16
sg17
F302.0
sg18
F-284.66666666666674
sg19
I4147731
sg20
S'6512.59984048'
p1379
sg22
F1.0
sbasg26
I00
sg27
I00
sg28
I4147077
sg20
S'6513.04470233'
p1380
sba(igraph
Edge
p1381
(dp1382
g7
I1
sg8
I00
sg9
I5
sg10
(lp1383
g1377
a(igraph
Vertex
p1384
(dp1385
g14
F0.27777777777777768
sg8
I00
sg15
g16
sg17
F302.0
sg18
F-234.83333333333343
sg19
I4147732
sg20
S'6512.60152757'
p1386
sg22
F1.0
sbasg26
I00
sg27
I00
sg28
I4147078
sg20
S'6513.04890398'
p1387
sba(igraph
Edge
p1388
(dp1389
g7
I1
sg8
I00
sg9
I5
sg10
(lp1390
g1384
a(igraph
Vertex
p1391
(dp1392
g14
F0.33333333333333326
sg8
I00
sg15
g16
sg17
F302.0
sg18
F-185.00000000000006
sg19
I4147733
sg20
S'6512.60329902'
p1393
sg22
F1.0
sbasg26
I00
sg27
I00
sg28
I4147079
sg20
S'6513.05313245'
p1394
sba(igraph
Edge
p1395
(dp1396
g7
I1
sg8
I00
sg9
I5
sg10
(lp1397
g1391
a(igraph
Vertex
p1398
(dp1399
g14
F0.38888888888888884
sg8
I00
sg15
g16
sg17
F302.0
sg18
F-135.16666666666669
sg19
I4147734
sg20
S'6512.60498583'
p1400
sg22
F1.0
sbasg26
I00
sg27
I00
sg28
I4147080
sg20
S'6513.05737461'
p1401
sba(igraph
Edge
p1402
(dp1403
g7
I1
sg8
I00
sg9
I5
sg10
(lp1404
g1398
a(igraph
Vertex
p1405
(dp1406
g14
F0.44444444444444436
sg8
I00
sg15
g16
sg17
F302.0
sg18
F-85.333333333333428
sg19
I4147735
sg20
S'6512.60668325'
p1407
sg22
F1.0
sbasg26
I00
sg27
I00
sg28
I4147081
sg20
S'6513.06178662'
p1408
sba(igraph
Edge
p1409
(dp1410
g7
I1
sg8
I00
sg9
I5
sg10
(lp1411
g1405
a(igraph
Vertex
p1412
(dp1413
g14
F0.5
sg8
I00
sg15
g16
sg17
F302.0
sg18
F-35.5
sg19
I4147736
sg20
S'6512.60837537'
p1414
sg22
F1.0
sbasg26
I00
sg27
I00
sg28
I4147082
sg20
S'6513.06624781'
p1415
sba(igraph
Edge
p1416
(dp1417
g7
I1
sg8
I00
sg9
I5
sg10
(lp1418
g1412
a(igraph
Vertex
p1419
(dp1420
g14
F0.55555555555555558
sg8
I00
sg15
g16
sg17
F302.0
sg18
F14.333333333333371
sg19
I4147737
sg20
S'6512.61008117'
p1421
sg22
F1.0
sbasg26
I00
sg27
I00
sg28
I4147083
sg20
S'6513.07067407'
p1422
sba(igraph
Edge
p1423
(dp1424
g7
I1
sg8
I00
sg9
I5
sg10
(lp1425
g1419
a(igraph
Vertex
p1426
(dp1427
g14
F0.61111111111111116
sg8
I00
sg15
g16
sg17
F302.0
sg18
F64.166666666666742
sg19
I4147738
sg20
S'6512.6117934'
p1428
sg22
F1.0
sbasg26
I00
sg27
I00
sg28
I4147084
sg20
S'6513.07531823'
p1429
sba(igraph
Edge
p1430
(dp1431
g7
I1
sg8
I00
sg9
I5
sg10
(lp1432
g1426
a(igraph
Vertex
p1433
(dp1434
g14
F0.66666666666666663
sg8
I00
sg15
g16
sg17
F302.0
sg18
F114.0
sg19
I4147739
sg20
S'6512.6135182'
p1435
sg22
F1.0
sbasg26
I00
sg27
I00
sg28
I4147085
sg20
S'6513.07976265'
p1436
sba(igraph
Edge
p1437
(dp1438
g7
I1
sg8
I00
sg9
I5
sg10
(lp1439
g1433
a(igraph
Vertex
p1440
(dp1441
g14
F0.72222222222222221
sg8
I00
sg15
g16
sg17
F302.0
sg18
F163.83333333333337
sg19
I4147740
sg20
S'6512.61524663'
p1442
sg22
F1.0
sbasg26
I00
sg27
I00
sg28
I4147086
sg20
S'6513.08418388'
p1443
sba(igraph
Edge
p1444
(dp1445
g7
I1
sg8
I00
sg9
I5
sg10
(lp1446
g1440
a(igraph
Vertex
p1447
(dp1448
g14
F0.77777777777777779
sg8
I00
sg15
g16
sg17
F302.0
sg18
F213.66666666666663
sg19
I4147741
sg20
S'6512.61698484'
p1449
sg22
F1.0
sbasg26
I00
sg27
I00
sg28
I4147087
sg20
S'6513.08871379'
p1450
sba(igraph
Edge
p1451
(dp1452
g7
I1
sg8
I00
sg9
I5
sg10
(lp1453
g1447
a(igraph
Vertex
p1454
(dp1455
g14
F0.83333333333333337
sg8
I00
sg15
g16
sg17
F302.0
sg18
F263.5
sg19
I4147742
sg20
S'6512.61873367'
p1456
sg22
F1.0
sbasg26
I00
sg27
I00
sg28
I4147088
sg20
S'6513.09333421'
p1457
sba(igraph
Edge
p1458
(dp1459
g7
I1
sg8
I00
sg9
I5
sg10
(lp1460
g1454
a(igraph
Vertex
p1461
(dp1462
g14
F0.88888888888888884
sg8
I00
sg15
g16
sg17
F302.0
sg18
F313.33333333333326
sg19
I4147743
sg20
S'6512.62049562'
p1463
sg22
F1.0
sbasg26
I00
sg27
I00
sg28
I4147089
sg20
S'6513.09796133'
p1464
sba(igraph
Edge
p1465
(dp1466
g7
I1
sg8
I00
sg9
I5
sg10
(lp1467
g1461
a(igraph
Vertex
p1468
(dp1469
g14
F0.94444444444444442
sg8
I00
sg15
g16
sg17
F302.0
sg18
F363.16666666666663
sg19
I4147744
sg20
S'6512.622264'
p1470
sg22
F1.0
sbasg26
I00
sg27
I00
sg28
I4147090
sg20
S'6513.10252392'
p1471
sba(igraph
Edge
p1472
(dp1473
g7
I1
sg8
I00
sg9
I5
sg10
(lp1474
g1468
a(igraph
Vertex
p1475
(dp1476
g14
F1.0
sg8
I00
sg15
g16
sg17
F302.0
sg18
F413.0
sg19
I4147745
sg20
S'6512.62406311'
p1477
sg22
F1.0
sbasg26
I00
sg27
I00
sg28
I4147091
sg20
S'6513.10711808'
p1478
sba(igraph
Edge
p1479
(dp1480
g7
I1
sg8
I00
sg9
I5
sg10
(lp1481
g1475
ag1353
asg26
I00
sg27
I00
sg28
I4147092
sg20
S'6513.11167034'
p1482
sba(igraph
Edge
p1483
(dp1484
g7
I1
sg8
I00
sg9
I5
sg10
(lp1485
g12
ag156
asg26
I00
sg27
I00
sg28
I4147093
sg20
S'6513.1162279'
p1486
sba(igraph
Edge
p1487
(dp1488
g7
I1
sg8
I00
sg9
I5
sg10
(lp1489
g23
ag156
asg26
I00
sg27
I00
sg28
I4147094
sg20
S'6513.12083212'
p1490
sba(igraph
Edge
p1491
(dp1492
g7
I1
sg8
I00
sg9
I5
sg10
(lp1493
g33
ag166
asg26
I00
sg27
I00
sg28
I4147095
sg20
S'6513.12554165'
p1494
sba(igraph
Edge
p1495
(dp1496
g7
I1
sg8
I00
sg9
I5
sg10
(lp1497
g40
ag166
asg26
I00
sg27
I00
sg28
I4147096
sg20
S'6513.13012855'
p1498
sba(igraph
Edge
p1499
(dp1500
g7
I1
sg8
I00
sg9
I5
sg10
(lp1501
g47
ag180
asg26
I00
sg27
I00
sg28
I4147097
sg20
S'6513.1347973'
p1502
sba(igraph
Edge
p1503
(dp1504
g7
I1
sg8
I00
sg9
I5
sg10
(lp1505
g54
ag180
asg26
I00
sg27
I00
sg28
I4147098
sg20
S'6513.13946577'
p1506
sba(igraph
Edge
p1507
(dp1508
g7
I1
sg8
I00
sg9
I5
sg10
(lp1509
g61
ag194
asg26
I00
sg27
I00
sg28
I4147099
sg20
S'6513.14414178'
p1510
sba(igraph
Edge
p1511
(dp1512
g7
I1
sg8
I00
sg9
I5
sg10
(lp1513
g68
ag194
asg26
I00
sg27
I00
sg28
I4147100
sg20
S'6513.14883149'
p1514
sba(igraph
Edge
p1515
(dp1516
g7
I1
sg8
I00
sg9
I5
sg10
(lp1517
g75
ag208
asg26
I00
sg27
I00
sg28
I4147101
sg20
S'6513.15357902'
p1518
sba(igraph
Edge
p1519
(dp1520
g7
I1
sg8
I00
sg9
I5
sg10
(lp1521
g82
ag208
asg26
I00
sg27
I00
sg28
I4147102
sg20
S'6513.15828408'
p1522
sba(igraph
Edge
p1523
(dp1524
g7
I1
sg8
I00
sg9
I5
sg10
(lp1525
g89
ag222
asg26
I00
sg27
I00
sg28
I4147103
sg20
S'6513.1630115'
p1526
sba(igraph
Edge
p1527
(dp1528
g7
I1
sg8
I00
sg9
I5
sg10
(lp1529
g96
ag222
asg26
I00
sg27
I00
sg28
I4147104
sg20
S'6513.16782496'
p1530
sba(igraph
Edge
p1531
(dp1532
g7
I1
sg8
I00
sg9
I5
sg10
(lp1533
g103
ag236
asg26
I00
sg27
I00
sg28
I4147105
sg20
S'6513.1726035'
p1534
sba(igraph
Edge
p1535
(dp1536
g7
I1
sg8
I00
sg9
I5
sg10
(lp1537
g110
ag236
asg26
I00
sg27
I00
sg28
I4147106
sg20
S'6513.17740216'
p1538
sba(igraph
Edge
p1539
(dp1540
g7
I1
sg8
I00
sg9
I5
sg10
(lp1541
g117
ag250
asg26
I00
sg27
I00
sg28
I4147107
sg20
S'6513.18222176'
p1542
sba(igraph
Edge
p1543
(dp1544
g7
I1
sg8
I00
sg9
I5
sg10
(lp1545
g124
ag250
asg26
I00
sg27
I00
sg28
I4147108
sg20
S'6513.18709613'
p1546
sba(igraph
Edge
p1547
(dp1548
g7
I1
sg8
I00
sg9
I5
sg10
(lp1549
g131
ag264
asg26
I00
sg27
I00
sg28
I4147109
sg20
S'6513.19199591'
p1550
sba(igraph
Edge
p1551
(dp1552
g7
I1
sg8
I00
sg9
I5
sg10
(lp1553
g138
ag264
asg26
I00
sg27
I00
sg28
I4147110
sg20
S'6513.19690799'
p1554
sba(igraph
Edge
p1555
(dp1556
g7
I1
sg8
I00
sg9
I5
sg10
(lp1557
g145
ag278
asg26
I00
sg27
I00
sg28
I4147111
sg20
S'6513.20209803'
p1558
sba(igraph
Edge
p1559
(dp1560
g7
I1
sg8
I00
sg9
I5
sg10
(lp1561
g12
ag278
asg26
I00
sg27
I00
sg28
I4147112
sg20
S'6513.20709532'
p1562
sba(igraph
Edge
p1563
(dp1564
g7
I1
sg8
I00
sg9
I5
sg10
(lp1565
g23
ag159
asg26
I00
sg27
I00
sg28
I4147113
sg20
S'6513.21216048'
p1566
sba(igraph
Edge
p1567
(dp1568
g7
I1
sg8
I00
sg9
I5
sg10
(lp1569
g33
ag159
asg26
I00
sg27
I00
sg28
I4147114
sg20
S'6513.21726029'
p1570
sba(igraph
Edge
p1571
(dp1572
g7
I1
sg8
I00
sg9
I5
sg10
(lp1573
g40
ag173
asg26
I00
sg27
I00
sg28
I4147115
sg20
S'6513.2223425'
p1574
sba(igraph
Edge
p1575
(dp1576
g7
I1
sg8
I00
sg9
I5
sg10
(lp1577
g47
ag173
asg26
I00
sg27
I00
sg28
I4147116
sg20
S'6513.22750098'
p1578
sba(igraph
Edge
p1579
(dp1580
g7
I1
sg8
I00
sg9
I5
sg10
(lp1581
g54
ag187
asg26
I00
sg27
I00
sg28
I4147117
sg20
S'6513.23269997'
p1582
sba(igraph
Edge
p1583
(dp1584
g7
I1
sg8
I00
sg9
I5
sg10
(lp1585
g61
ag187
asg26
I00
sg27
I00
sg28
I4147118
sg20
S'6513.2378604'
p1586
sba(igraph
Edge
p1587
(dp1588
g7
I1
sg8
I00
sg9
I5
sg10
(lp1589
g68
ag201
asg26
I00
sg27
I00
sg28
I4147119
sg20
S'6513.24316247'
p1590
sba(igraph
Edge
p1591
(dp1592
g7
I1
sg8
I00
sg9
I5
sg10
(lp1593
g75
ag201
asg26
I00
sg27
I00
sg28
I4147120
sg20
S'6513.24838548'
p1594
sba(igraph
Edge
p1595
(dp1596
g7
I1
sg8
I00
sg9
I5
sg10
(lp1597
g82
ag215
asg26
I00
sg27
I00
sg28
I4147121
sg20
S'6513.25355988'
p1598
sba(igraph
Edge
p1599
(dp1600
g7
I1
sg8
I00
sg9
I5
sg10
(lp1601
g89
ag215
asg26
I00
sg27
I00
sg28
I4147122
sg20
S'6513.25870942'
p1602
sba(igraph
Edge
p1603
(dp1604
g7
I1
sg8
I00
sg9
I5
sg10
(lp1605
g96
ag229
asg26
I00
sg27
I00
sg28
I4147123
sg20
S'6513.26391008'
p1606
sba(igraph
Edge
p1607
(dp1608
g7
I1
sg8
I00
sg9
I5
sg10
(lp1609
g103
ag229
asg26
I00
sg27
I00
sg28
I4147124
sg20
S'6513.26975663'
p1610
sba(igraph
Edge
p1611
(dp1612
g7
I1
sg8
I00
sg9
I5
sg10
(lp1613
g110
ag243
asg26
I00
sg27
I00
sg28
I4147125
sg20
S'6513.27548976'
p1614
sba(igraph
Edge
p1615
(dp1616
g7
I1
sg8
I00
sg9
I5
sg10
(lp1617
g117
ag243
asg26
I00
sg27
I00
sg28
I4147126
sg20
S'6513.28094828'
p1618
sba(igraph
Edge
p1619
(dp1620
g7
I1
sg8
I00
sg9
I5
sg10
(lp1621
g124
ag257
asg26
I00
sg27
I00
sg28
I4147127
sg20
S'6513.28635511'
p1622
sba(igraph
Edge
p1623
(dp1624
g7
I1
sg8
I00
sg9
I5
sg10
(lp1625
g131
ag257
asg26
I00
sg27
I00
sg28
I4147128
sg20
S'6513.29177088'
p1626
sba(igraph
Edge
p1627
(dp1628
g7
I1
sg8
I00
sg9
I5
sg10
(lp1629
g138
ag271
asg26
I00
sg27
I00
sg28
I4147129
sg20
S'6513.29715341'
p1630
sba(igraph
Edge
p1631
(dp1632
g7
I1
sg8
I00
sg9
I5
sg10
(lp1633
g145
ag271
asg26
I00
sg27
I00
sg28
I4147130
sg20
S'6513.30255773'
p1634
sba(igraph
Edge
p1635
(dp1636
g7
I1
sg8
I00
sg9
I5
sg10
(lp1637
g12
ag1353
asg26
I00
sg27
I00
sg28
I4147131
sg20
S'6513.30797741'
p1638
sba(igraph
Edge
p1639
(dp1640
g7
I1
sg8
I00
sg9
I5
sg10
(lp1641
g23
ag1363
asg26
I00
sg27
I00
sg28
I4147132
sg20
S'6513.31355019'
p1642
sba(igraph
Edge
p1643
(dp1644
g7
I1
sg8
I00
sg9
I5
sg10
(lp1645
g33
ag1363
asg26
I00
sg27
I00
sg28
I4147133
sg20
S'6513.31900702'
p1646
sba(igraph
Edge
p1647
(dp1648
g7
I1
sg8
I00
sg9
I5
sg10
(lp1649
g40
ag1377
asg26
I00
sg27
I00
sg28
I4147134
sg20
S'6513.32513965'
p1650
sba(igraph
Edge
p1651
(dp1652
g7
I1
sg8
I00
sg9
I5
sg10
(lp1653
g47
ag1377
asg26
I00
sg27
I00
sg28
I4147135
sg20
S'6513.33066856'
p1654
sba(igraph
Edge
p1655
(dp1656
g7
I1
sg8
I00
sg9
I5
sg10
(lp1657
g54
ag1391
asg26
I00
sg27
I00
sg28
I4147136
sg20
S'6513.33626927'
p1658
sba(igraph
Edge
p1659
(dp1660
g7
I1
sg8
I00
sg9
I5
sg10
(lp1661
g61
ag1391
asg26
I00
sg27
I00
sg28
I4147137
sg20
S'6513.34180461'
p1662
sba(igraph
Edge
p1663
(dp1664
g7
I1
sg8
I00
sg9
I5
sg10
(lp1665
g68
ag1405
asg26
I00
sg27
I00
sg28
I4147138
sg20
S'6513.34746874'
p1666
sba(igraph
Edge
p1667
(dp1668
g7
I1
sg8
I00
sg9
I5
sg10
(lp1669
g75
ag1405
asg26
I00
sg27
I00
sg28
I4147139
sg20
S'6513.35323149'
p1670
sba(igraph
Edge
p1671
(dp1672
g7
I1
sg8
I00
sg9
I5
sg10
(lp1673
g82
ag1419
asg26
I00
sg27
I00
sg28
I4147140
sg20
S'6513.35889031'
p1674
sba(igraph
Edge
p1675
(dp1676
g7
I1
sg8
I00
sg9
I5
sg10
(lp1677
g89
ag1419
asg26
I00
sg27
I00
sg28
I4147141
sg20
S'6513.36445945'
p1678
sba(igraph
Edge
p1679
(dp1680
g7
I1
sg8
I00
sg9
I5
sg10
(lp1681
g96
ag1433
asg26
I00
sg27
I00
sg28
I4147142
sg20
S'6513.37004759'
p1682
sba(igraph
Edge
p1683
(dp1684
g7
I1
sg8
I00
sg9
I5
sg10
(lp1685
g103
ag1433
asg26
I00
sg27
I00
sg28
I4147143
sg20
S'6513.37570809'
p1686
sba(igraph
Edge
p1687
(dp1688
g7
I1
sg8
I00
sg9
I5
sg10
(lp1689
g110
ag1447
asg26
I00
sg27
I00
sg28
I4147144
sg20
S'6513.38133757'
p1690
sba(igraph
Edge
p1691
(dp1692
g7
I1
sg8
I00
sg9
I5
sg10
(lp1693
g117
ag1447
asg26
I00
sg27
I00
sg28
I4147145
sg20
S'6513.38703271'
p1694
sba(igraph
Edge
p1695
(dp1696
g7
I1
sg8
I00
sg9
I5
sg10
(lp1697
g124
ag1461
asg26
I00
sg27
I00
sg28
I4147146
sg20
S'6513.39270801'
p1698
sba(igraph
Edge
p1699
(dp1700
g7
I1
sg8
I00
sg9
I5
sg10
(lp1701
g131
ag1461
asg26
I00
sg27
I00
sg28
I4147147
sg20
S'6513.3984051'
p1702
sba(igraph
Edge
p1703
(dp1704
g7
I1
sg8
I00
sg9
I5
sg10
(lp1705
g138
ag1475
asg26
I00
sg27
I00
sg28
I4147148
sg20
S'6513.40412455'
p1706
sba(igraph
Edge
p1707
(dp1708
g7
I1
sg8
I00
sg9
I5
sg10
(lp1709
g145
ag1475
asg26
I00
sg27
I00
sg28
I4147149
sg20
S'6513.41011777'
p1710
sba(igraph
Edge
p1711
(dp1712
g7
I1
sg8
I00
sg9
I5
sg10
(lp1713
g12
ag1356
asg26
I00
sg27
I00
sg28
I4147150
sg20
S'6513.41609702'
p1714
sba(igraph
Edge
p1715
(dp1716
g7
I1
sg8
I00
sg9
I5
sg10
(lp1717
g23
ag1356
asg26
I00
sg27
I00
sg28
I4147151
sg20
S'6513.42195726'
p1718
sba(igraph
Edge
p1719
(dp1720
g7
I1
sg8
I00
sg9
I5
sg10
(lp1721
g33
ag1370
asg26
I00
sg27
I00
sg28
I4147152
sg20
S'6513.42783175'
p1722
sba(igraph
Edge
p1723
(dp1724
g7
I1
sg8
I00
sg9
I5
sg10
(lp1725
g40
ag1370
asg26
I00
sg27
I00
sg28
I4147153
sg20
S'6513.43396996'
p1726
sba(igraph
Edge
p1727
(dp1728
g7
I1
sg8
I00
sg9
I5
sg10
(lp1729
g47
ag1384
asg26
I00
sg27
I00
sg28
I4147154
sg20
S'6513.43993245'
p1730
sba(igraph
Edge
p1731
(dp1732
g7
I1
sg8
I00
sg9
I5
sg10
(lp1733
g54
ag1384
asg26
I00
sg27
I00
sg28
I4147155
sg20
S'6513.44599439'
p1734
sba(igraph
Edge
p1735
(dp1736
g7
I1
sg8
I00
sg9
I5
sg10
(lp1737
g61
ag1398
asg26
I00
sg27
I00
sg28
I4147156
sg20
S'6513.45201024'
p1738
sba(igraph
Edge
p1739
(dp1740
g7
I1
sg8
I00
sg9
I5
sg10
(lp1741
g68
ag1398
asg26
I00
sg27
I00
sg28
I4147157
sg20
S'6513.45800206'
p1742
sba(igraph
Edge
p1743
(dp1744
g7
I1
sg8
I00
sg9
I5
sg10
(lp1745
g75
ag1412
asg26
I00
sg27
I00
sg28
I4147158
sg20
S'6513.46401568'
p1746
sba(igraph
Edge
p1747
(dp1748
g7
I1
sg8
I00
sg9
I5
sg10
(lp1749
g82
ag1412
asg26
I00
sg27
I00
sg28
I4147159
sg20
S'6513.4704461'
p1750
sba(igraph
Edge
p1751
(dp1752
g7
I1
sg8
I00
sg9
I5
sg10
(lp1753
g89
ag1426
asg26
I00
sg27
I00
sg28
I4147160
sg20
S'6513.47646391'
p1754
sba(igraph
Edge
p1755
(dp1756
g7
I1
sg8
I00
sg9
I5
sg10
(lp1757
g96
ag1426
asg26
I00
sg27
I00
sg28
I4147161
sg20
S'6513.48256496'
p1758
sba(igraph
Edge
p1759
(dp1760
g7
I1
sg8
I00
sg9
I5
sg10
(lp1761
g103
ag1440
asg26
I00
sg27
I00
sg28
I4147162
sg20
S'6513.4886188'
p1762
sba(igraph
Edge
p1763
(dp1764
g7
I1
sg8
I00
sg9
I5
sg10
(lp1765
g110
ag1440
asg26
I00
sg27
I00
sg28
I4147163
sg20
S'6513.49467488'
p1766
sba(igraph
Edge
p1767
(dp1768
g7
I1
sg8
I00
sg9
I5
sg10
(lp1769
g117
ag1454
asg26
I00
sg27
I00
sg28
I4147164
sg20
S'6513.50083069'
p1770
sba(igraph
Edge
p1771
(dp1772
g7
I1
sg8
I00
sg9
I5
sg10
(lp1773
g124
ag1454
asg26
I00
sg27
I00
sg28
I4147165
sg20
S'6513.50710747'
p1774
sba(igraph
Edge
p1775
(dp1776
g7
I1
sg8
I00
sg9
I5
sg10
(lp1777
g131
ag1468
asg26
I00
sg27
I00
sg28
I4147166
sg20
S'6513.5133063'
p1778
sba(igraph
Edge
p1779
(dp1780
g7
I1
sg8
I00
sg9
I5
sg10
(lp1781
g138
ag1468
asg26
I00
sg27
I00
sg28
I4147167
sg20
S'6513.51952245'
p1782
sba(igraph
Edge
p1783
(dp1784
g7
I1
sg8
I00
sg9
I5
sg10
(lp1785
g145
ag1353
asg26
I00
sg27
I00
sg28
I4147168
sg20
S'6513.52575313'
p1786
sba(igraph
Edge
p1787
(dp1788
g7
I1
sg8
I00
sg9
I5
sg10
(lp1789
g156
ag289
asg26
I00
sg27
I00
sg28
I4147169
sg20
S'6513.53203522'
p1790
sba(igraph
Edge
p1791
(dp1792
g7
I1
sg8
I00
sg9
I5
sg10
(lp1793
g159
ag289
asg26
I00
sg27
I00
sg28
I4147170
sg20
S'6513.53827651'
p1794
sba(igraph
Edge
p1795
(dp1796
g7
I1
sg8
I00
sg9
I5
sg10
(lp1797
g166
ag299
asg26
I00
sg27
I00
sg28
I4147171
sg20
S'6513.54463794'
p1798
sba(igraph
Edge
p1799
(dp1800
g7
I1
sg8
I00
sg9
I5
sg10
(lp1801
g173
ag299
asg26
I00
sg27
I00
sg28
I4147172
sg20
S'6513.55092644'
p1802
sba(igraph
Edge
p1803
(dp1804
g7
I1
sg8
I00
sg9
I5
sg10
(lp1805
g180
ag313
asg26
I00
sg27
I00
sg28
I4147173
sg20
S'6513.55723507'
p1806
sba(igraph
Edge
p1807
(dp1808
g7
I1
sg8
I00
sg9
I5
sg10
(lp1809
g187
ag313
asg26
I00
sg27
I00
sg28
I4147174
sg20
S'6513.56367192'
p1810
sba(igraph
Edge
p1811
(dp1812
g7
I1
sg8
I00
sg9
I5
sg10
(lp1813
g194
ag327
asg26
I00
sg27
I00
sg28
I4147175
sg20
S'6513.5700948'
p1814
sba(igraph
Edge
p1815
(dp1816
g7
I1
sg8
I00
sg9
I5
sg10
(lp1817
g201
ag327
asg26
I00
sg27
I00
sg28
I4147176
sg20
S'6513.57679342'
p1818
sba(igraph
Edge
p1819
(dp1820
g7
I1
sg8
I00
sg9
I5
sg10
(lp1821
g208
ag341
asg26
I00
sg27
I00
sg28
I4147177
sg20
S'6513.58319339'
p1822
sba(igraph
Edge
p1823
(dp1824
g7
I1
sg8
I00
sg9
I5
sg10
(lp1825
g215
ag341
asg26
I00
sg27
I00
sg28
I4147178
sg20
S'6513.58966405'
p1826
sba(igraph
Edge
p1827
(dp1828
g7
I1
sg8
I00
sg9
I5
sg10
(lp1829
g222
ag355
asg26
I00
sg27
I00
sg28
I4147179
sg20
S'6513.59619002'
p1830
sba(igraph
Edge
p1831
(dp1832
g7
I1
sg8
I00
sg9
I5
sg10
(lp1833
g229
ag355
asg26
I00
sg27
I00
sg28
I4147180
sg20
S'6513.60280818'
p1834
sba(igraph
Edge
p1835
(dp1836
g7
I1
sg8
I00
sg9
I5
sg10
(lp1837
g236
ag369
asg26
I00
sg27
I00
sg28
I4147181
sg20
S'6513.60925118'
p1838
sba(igraph
Edge
p1839
(dp1840
g7
I1
sg8
I00
sg9
I5
sg10
(lp1841
g243
ag369
asg26
I00
sg27
I00
sg28
I4147182
sg20
S'6513.61580201'
p1842
sba(igraph
Edge
p1843
(dp1844
g7
I1
sg8
I00
sg9
I5
sg10
(lp1845
g250
ag383
asg26
I00
sg27
I00
sg28
I4147183
sg20
S'6513.62235647'
p1846
sba(igraph
Edge
p1847
(dp1848
g7
I1
sg8
I00
sg9
I5
sg10
(lp1849
g257
ag383
asg26
I00
sg27
I00
sg28
I4147184
sg20
S'6513.62895955'
p1850
sba(igraph
Edge
p1851
(dp1852
g7
I1
sg8
I00
sg9
I5
sg10
(lp1853
g264
ag397
asg26
I00
sg27
I00
sg28
I4147185
sg20
S'6513.63555759'
p1854
sba(igraph
Edge
p1855
(dp1856
g7
I1
sg8
I00
sg9
I5
sg10
(lp1857
g271
ag397
asg26
I00
sg27
I00
sg28
I4147186
sg20
S'6513.64210256'
p1858
sba(igraph
Edge
p1859
(dp1860
g7
I1
sg8
I00
sg9
I5
sg10
(lp1861
g278
ag411
asg26
I00
sg27
I00
sg28
I4147187
sg20
S'6513.64866177'
p1862
sba(igraph
Edge
p1863
(dp1864
g7
I1
sg8
I00
sg9
I5
sg10
(lp1865
g156
ag411
asg26
I00
sg27
I00
sg28
I4147188
sg20
S'6513.65524725'
p1866
sba(igraph
Edge
p1867
(dp1868
g7
I1
sg8
I00
sg9
I5
sg10
(lp1869
g159
ag292
asg26
I00
sg27
I00
sg28
I4147189
sg20
S'6513.66191988'
p1870
sba(igraph
Edge
p1871
(dp1872
g7
I1
sg8
I00
sg9
I5
sg10
(lp1873
g166
ag292
asg26
I00
sg27
I00
sg28
I4147190
sg20
S'6513.66868387'
p1874
sba(igraph
Edge
p1875
(dp1876
g7
I1
sg8
I00
sg9
I5
sg10
(lp1877
g173
ag306
asg26
I00
sg27
I00
sg28
I4147191
sg20
S'6513.67537187'
p1878
sba(igraph
Edge
p1879
(dp1880
g7
I1
sg8
I00
sg9
I5
sg10
(lp1881
g180
ag306
asg26
I00
sg27
I00
sg28
I4147192
sg20
S'6513.68207468'
p1882
sba(igraph
Edge
p1883
(dp1884
g7
I1
sg8
I00
sg9
I5
sg10
(lp1885
g187
ag320
asg26
I00
sg27
I00
sg28
I4147193
sg20
S'6513.68890096'
p1886
sba(igraph
Edge
p1887
(dp1888
g7
I1
sg8
I00
sg9
I5
sg10
(lp1889
g194
ag320
asg26
I00
sg27
I00
sg28
I4147194
sg20
S'6513.69573088'
p1890
sba(igraph
Edge
p1891
(dp1892
g7
I1
sg8
I00
sg9
I5
sg10
(lp1893
g201
ag334
asg26
I00
sg27
I00
sg28
I4147195
sg20
S'6513.70259069'
p1894
sba(igraph
Edge
p1895
(dp1896
g7
I1
sg8
I00
sg9
I5
sg10
(lp1897
g208
ag334
asg26
I00
sg27
I00
sg28
I4147196
sg20
S'6513.70943849'
p1898
sba(igraph
Edge
p1899
(dp1900
g7
I1
sg8
I00
sg9
I5
sg10
(lp1901
g215
ag348
asg26
I00
sg27
I00
sg28
I4147197
sg20
S'6513.71645139'
p1902
sba(igraph
Edge
p1903
(dp1904
g7
I1
sg8
I00
sg9
I5
sg10
(lp1905
g222
ag348
asg26
I00
sg27
I00
sg28
I4147198
sg20
S'6513.72334668'
p1906
sba(igraph
Edge
p1907
(dp1908
g7
I1
sg8
I00
sg9
I5
sg10
(lp1909
g229
ag362
asg26
I00
sg27
I00
sg28
I4147199
sg20
S'6513.73030902'
p1910
sba(igraph
Edge
p1911
(dp1912
g7
I1
sg8
I00
sg9
I5
sg10
(lp1913
g236
ag362
asg26
I00
sg27
I00
sg28
I4147200
sg20
S'6513.73725851'
p1914
sba(igraph
Edge
p1915
(dp1916
g7
I1
sg8
I00
sg9
I5
sg10
(lp1917
g243
ag376
asg26
I00
sg27
I00
sg28
I4147201
sg20
S'6513.74430018'
p1918
sba(igraph
Edge
p1919
(dp1920
g7
I1
sg8
I00
sg9
I5
sg10
(lp1921
g250
ag376
asg26
I00
sg27
I00
sg28
I4147202
sg20
S'6513.75139131'
p1922
sba(igraph
Edge
p1923
(dp1924
g7
I1
sg8
I00
sg9
I5
sg10
(lp1925
g257
ag390
asg26
I00
sg27
I00
sg28
I4147203
sg20
S'6513.75920571'
p1926
sba(igraph
Edge
p1927
(dp1928
g7
I1
sg8
I00
sg9
I5
sg10
(lp1929
g264
ag390
asg26
I00
sg27
I00
sg28
I4147204
sg20
S'6513.76652703'
p1930
sba(igraph
Edge
p1931
(dp1932
g7
I1
sg8
I00
sg9
I5
sg10
(lp1933
g271
ag404
asg26
I00
sg27
I00
sg28
I4147205
sg20
S'6513.77356759'
p1934
sba(igraph
Edge
p1935
(dp1936
g7
I1
sg8
I00
sg9
I5
sg10
(lp1937
g278
ag404
asg26
I00
sg27
I00
sg28
I4147206
sg20
S'6513.78074755'
p1938
sba(igraph
Edge
p1939
(dp1940
g7
I1
sg8
I00
sg9
I5
sg10
(lp1941
g289
ag422
asg26
I00
sg27
I00
sg28
I4147207
sg20
S'6513.78784399'
p1942
sba(igraph
Edge
p1943
(dp1944
g7
I1
sg8
I00
sg9
I5
sg10
(lp1945
g292
ag422
asg26
I00
sg27
I00
sg28
I4147208
sg20
S'6513.79506557'
p1946
sba(igraph
Edge
p1947
(dp1948
g7
I1
sg8
I00
sg9
I5
sg10
(lp1949
g299
ag432
asg26
I00
sg27
I00
sg28
I4147209
sg20
S'6513.80212401'
p1950
sba(igraph
Edge
p1951
(dp1952
g7
I1
sg8
I00
sg9
I5
sg10
(lp1953
g306
ag432
asg26
I00
sg27
I00
sg28
I4147210
sg20
S'6513.80919893'
p1954
sba(igraph
Edge
p1955
(dp1956
g7
I1
sg8
I00
sg9
I5
sg10
(lp1957
g313
ag446
asg26
I00
sg27
I00
sg28
I4147211
sg20
S'6513.81648226'
p1958
sba(igraph
Edge
p1959
(dp1960
g7
I1
sg8
I00
sg9
I5
sg10
(lp1961
g320
ag446
asg26
I00
sg27
I00
sg28
I4147212
sg20
S'6513.8237695'
p1962
sba(igraph
Edge
p1963
(dp1964
g7
I1
sg8
I00
sg9
I5
sg10
(lp1965
g327
ag460
asg26
I00
sg27
I00
sg28
I4147213
sg20
S'6513.83106093'
p1966
sba(igraph
Edge
p1967
(dp1968
g7
I1
sg8
I00
sg9
I5
sg10
(lp1969
g334
ag460
asg26
I00
sg27
I00
sg28
I4147214
sg20
S'6513.83830403'
p1970
sba(igraph
Edge
p1971
(dp1972
g7
I1
sg8
I00
sg9
I5
sg10
(lp1973
g341
ag474
asg26
I00
sg27
I00
sg28
I4147215
sg20
S'6513.84560496'
p1974
sba(igraph
Edge
p1975
(dp1976
g7
I1
sg8
I00
sg9
I5
sg10
(lp1977
g348
ag474
asg26
I00
sg27
I00
sg28
I4147216
sg20
S'6513.85289778'
p1978
sba(igraph
Edge
p1979
(dp1980
g7
I1
sg8
I00
sg9
I5
sg10
(lp1981
g355
ag488
asg26
I00
sg27
I00
sg28
I4147217
sg20
S'6513.86015318'
p1982
sba(igraph
Edge
p1983
(dp1984
g7
I1
sg8
I00
sg9
I5
sg10
(lp1985
g362
ag488
asg26
I00
sg27
I00
sg28
I4147218
sg20
S'6513.86743986'
p1986
sba(igraph
Edge
p1987
(dp1988
g7
I1
sg8
I00
sg9
I5
sg10
(lp1989
g369
ag502
asg26
I00
sg27
I00
sg28
I4147219
sg20
S'6513.87480783'
p1990
sba(igraph
Edge
p1991
(dp1992
g7
I1
sg8
I00
sg9
I5
sg10
(lp1993
g376
ag502
asg26
I00
sg27
I00
sg28
I4147220
sg20
S'6513.88209842'
p1994
sba(igraph
Edge
p1995
(dp1996
g7
I1
sg8
I00
sg9
I5
sg10
(lp1997
g383
ag516
asg26
I00
sg27
I00
sg28
I4147221
sg20
S'6513.88944656'
p1998
sba(igraph
Edge
p1999
(dp2000
g7
I1
sg8
I00
sg9
I5
sg10
(lp2001
g390
ag516
asg26
I00
sg27
I00
sg28
I4147222
sg20
S'6513.89690757'
p2002
sba(igraph
Edge
p2003
(dp2004
g7
I1
sg8
I00
sg9
I5
sg10
(lp2005
g397
ag530
asg26
I00
sg27
I00
sg28
I4147223
sg20
S'6513.90439232'
p2006
sba(igraph
Edge
p2007
(dp2008
g7
I1
sg8
I00
sg9
I5
sg10
(lp2009
g404
ag530
asg26
I00
sg27
I00
sg28
I4147224
sg20
S'6513.91180751'
p2010
sba(igraph
Edge
p2011
(dp2012
g7
I1
sg8
I00
sg9
I5
sg10
(lp2013
g411
ag544
asg26
I00
sg27
I00
sg28
I4147225
sg20
S'6513.92216245'
p2014
sba(igraph
Edge
p2015
(dp2016
g7
I1
sg8
I00
sg9
I5
sg10
(lp2017
g289
ag544
asg26
I00
sg27
I00
sg28
I4147226
sg20
S'6513.93032019'
p2018
sba(igraph
Edge
p2019
(dp2020
g7
I1
sg8
I00
sg9
I5
sg10
(lp2021
g292
ag425
asg26
I00
sg27
I00
sg28
I4147227
sg20
S'6513.93851118'
p2022
sba(igraph
Edge
p2023
(dp2024
g7
I1
sg8
I00
sg9
I5
sg10
(lp2025
g299
ag425
asg26
I00
sg27
I00
sg28
I4147228
sg20
S'6513.94603476'
p2026
sba(igraph
Edge
p2027
(dp2028
g7
I1
sg8
I00
sg9
I5
sg10
(lp2029
g306
ag439
asg26
I00
sg27
I00
sg28
I4147229
sg20
S'6513.95364299'
p2030
sba(igraph
Edge
p2031
(dp2032
g7
I1
sg8
I00
sg9
I5
sg10
(lp2033
g313
ag439
asg26
I00
sg27
I00
sg28
I4147230
sg20
S'6513.96116769'
p2034
sba(igraph
Edge
p2035
(dp2036
g7
I1
sg8
I00
sg9
I5
sg10
(lp2037
g320
ag453
asg26
I00
sg27
I00
sg28
I4147231
sg20
S'6513.96869379'
p2038
sba(igraph
Edge
p2039
(dp2040
g7
I1
sg8
I00
sg9
I5
sg10
(lp2041
g327
ag453
asg26
I00
sg27
I00
sg28
I4147232
sg20
S'6513.97635929'
p2042
sba(igraph
Edge
p2043
(dp2044
g7
I1
sg8
I00
sg9
I5
sg10
(lp2045
g334
ag467
asg26
I00
sg27
I00
sg28
I4147233
sg20
S'6513.98412145'
p2046
sba(igraph
Edge
p2047
(dp2048
g7
I1
sg8
I00
sg9
I5
sg10
(lp2049
g341
ag467
asg26
I00
sg27
I00
sg28
I4147234
sg20
S'6513.9917618'
p2050
sba(igraph
Edge
p2051
(dp2052
g7
I1
sg8
I00
sg9
I5
sg10
(lp2053
g348
ag481
asg26
I00
sg27
I00
sg28
I4147235
sg20
S'6513.99941277'
p2054
sba(igraph
Edge
p2055
(dp2056
g7
I1
sg8
I00
sg9
I5
sg10
(lp2057
g355
ag481
asg26
I00
sg27
I00
sg28
I4147236
sg20
S'6514.00712884'
p2058
sba(igraph
Edge
p2059
(dp2060
g7
I1
sg8
I00
sg9
I5
sg10
(lp2061
g362
ag495
asg26
I00
sg27
I00
sg28
I4147237
sg20
S'6514.01493598'
p2062
sba(igraph
Edge
p2063
(dp2064
g7
I1
sg8
I00
sg9
I5
sg10
(lp2065
g369
ag495
asg26
I00
sg27
I00
sg28
I4147238
sg20
S'6514.02265986'
p2066
sba(igraph
Edge
p2067
(dp2068
g7
I1
sg8
I00
sg9
I5
sg10
(lp2069
g376
ag509
asg26
I00
sg27
I00
sg28
I4147239
sg20
S'6514.03045918'
p2070
sba(igraph
Edge
p2071
(dp2072
g7
I1
sg8
I00
sg9
I5
sg10
(lp2073
g383
ag509
asg26
I00
sg27
I00
sg28
I4147240
sg20
S'6514.03821296'
p2074
sba(igraph
Edge
p2075
(dp2076
g7
I1
sg8
I00
sg9
I5
sg10
(lp2077
g390
ag523
asg26
I00
sg27
I00
sg28
I4147241
sg20
S'6514.04608575'
p2078
sba(igraph
Edge
p2079
(dp2080
g7
I1
sg8
I00
sg9
I5
sg10
(lp2081
g397
ag523
asg26
I00
sg27
I00
sg28
I4147242
sg20
S'6514.05393842'
p2082
sba(igraph
Edge
p2083
(dp2084
g7
I1
sg8
I00
sg9
I5
sg10
(lp2085
g404
ag537
asg26
I00
sg27
I00
sg28
I4147243
sg20
S'6514.06178662'
p2086
sba(igraph
Edge
p2087
(dp2088
g7
I1
sg8
I00
sg9
I5
sg10
(lp2089
g411
ag537
asg26
I00
sg27
I00
sg28
I4147244
sg20
S'6514.06962756'
p2090
sba(igraph
Edge
p2091
(dp2092
g7
I1
sg8
I00
sg9
I5
sg10
(lp2093
g422
ag555
asg26
I00
sg27
I00
sg28
I4147245
sg20
S'6514.07757969'
p2094
sba(igraph
Edge
p2095
(dp2096
g7
I1
sg8
I00
sg9
I5
sg10
(lp2097
g425
ag555
asg26
I00
sg27
I00
sg28
I4147246
sg20
S'6514.08554188'
p2098
sba(igraph
Edge
p2099
(dp2100
g7
I1
sg8
I00
sg9
I5
sg10
(lp2101
g432
ag565
asg26
I00
sg27
I00
sg28
I4147247
sg20
S'6514.09345601'
p2102
sba(igraph
Edge
p2103
(dp2104
g7
I1
sg8
I00
sg9
I5
sg10
(lp2105
g439
ag565
asg26
I00
sg27
I00
sg28
I4147248
sg20
S'6514.10138635'
p2106
sba(igraph
Edge
p2107
(dp2108
g7
I1
sg8
I00
sg9
I5
sg10
(lp2109
g446
ag579
asg26
I00
sg27
I00
sg28
I4147249
sg20
S'6514.10941027'
p2110
sba(igraph
Edge
p2111
(dp2112
g7
I1
sg8
I00
sg9
I5
sg10
(lp2113
g453
ag579
asg26
I00
sg27
I00
sg28
I4147250
sg20
S'6514.11737637'
p2114
sba(igraph
Edge
p2115
(dp2116
g7
I1
sg8
I00
sg9
I5
sg10
(lp2117
g460
ag593
asg26
I00
sg27
I00
sg28
I4147251
sg20
S'6514.12575704'
p2118
sba(igraph
Edge
p2119
(dp2120
g7
I1
sg8
I00
sg9
I5
sg10
(lp2121
g467
ag593
asg26
I00
sg27
I00
sg28
I4147252
sg20
S'6514.13375024'
p2122
sba(igraph
Edge
p2123
(dp2124
g7
I1
sg8
I00
sg9
I5
sg10
(lp2125
g474
ag607
asg26
I00
sg27
I00
sg28
I4147253
sg20
S'6514.14185099'
p2126
sba(igraph
Edge
p2127
(dp2128
g7
I1
sg8
I00
sg9
I5
sg10
(lp2129
g481
ag607
asg26
I00
sg27
I00
sg28
I4147254
sg20
S'6514.14990844'
p2130
sba(igraph
Edge
p2131
(dp2132
g7
I1
sg8
I00
sg9
I5
sg10
(lp2133
g488
ag621
asg26
I00
sg27
I00
sg28
I4147255
sg20
S'6514.1580307'
p2134
sba(igraph
Edge
p2135
(dp2136
g7
I1
sg8
I00
sg9
I5
sg10
(lp2137
g495
ag621
asg26
I00
sg27
I00
sg28
I4147256
sg20
S'6514.16619263'
p2138
sba(igraph
Edge
p2139
(dp2140
g7
I1
sg8
I00
sg9
I5
sg10
(lp2141
g502
ag635
asg26
I00
sg27
I00
sg28
I4147257
sg20
S'6514.17427075'
p2142
sba(igraph
Edge
p2143
(dp2144
g7
I1
sg8
I00
sg9
I5
sg10
(lp2145
g509
ag635
asg26
I00
sg27
I00
sg28
I4147258
sg20
S'6514.18237737'
p2146
sba(igraph
Edge
p2147
(dp2148
g7
I1
sg8
I00
sg9
I5
sg10
(lp2149
g516
ag649
asg26
I00
sg27
I00
sg28
I4147259
sg20
S'6514.19067982'
p2150
sba(igraph
Edge
p2151
(dp2152
g7
I1
sg8
I00
sg9
I5
sg10
(lp2153
g523
ag649
asg26
I00
sg27
I00
sg28
I4147260
sg20
S'6514.19897976'
p2154
sba(igraph
Edge
p2155
(dp2156
g7
I1
sg8
I00
sg9
I5
sg10
(lp2157
g530
ag663
asg26
I00
sg27
I00
sg28
I4147261
sg20
S'6514.20719728'
p2158
sba(igraph
Edge
p2159
(dp2160
g7
I1
sg8
I00
sg9
I5
sg10
(lp2161
g537
ag663
asg26
I00
sg27
I00
sg28
I4147262
sg20
S'6514.2155855'
p2162
sba(igraph
Edge
p2163
(dp2164
g7
I1
sg8
I00
sg9
I5
sg10
(lp2165
g544
ag677
asg26
I00
sg27
I00
sg28
I4147263
sg20
S'6514.22409524'
p2166
sba(igraph
Edge
p2167
(dp2168
g7
I1
sg8
I00
sg9
I5
sg10
(lp2169
g422
ag677
asg26
I00
sg27
I00
sg28
I4147264
sg20
S'6514.23310058'
p2170
sba(igraph
Edge
p2171
(dp2172
g7
I1
sg8
I00
sg9
I5
sg10
(lp2173
g425
ag558
asg26
I00
sg27
I00
sg28
I4147265
sg20
S'6514.24139968'
p2174
sba(igraph
Edge
p2175
(dp2176
g7
I1
sg8
I00
sg9
I5
sg10
(lp2177
g432
ag558
asg26
I00
sg27
I00
sg28
I4147266
sg20
S'6514.24968369'
p2178
sba(igraph
Edge
p2179
(dp2180
g7
I1
sg8
I00
sg9
I5
sg10
(lp2181
g439
ag572
asg26
I00
sg27
I00
sg28
I4147267
sg20
S'6514.25799173'
p2182
sba(igraph
Edge
p2183
(dp2184
g7
I1
sg8
I00
sg9
I5
sg10
(lp2185
g446
ag572
asg26
I00
sg27
I00
sg28
I4147268
sg20
S'6514.26636849'
p2186
sba(igraph
Edge
p2187
(dp2188
g7
I1
sg8
I00
sg9
I5
sg10
(lp2189
g453
ag586
asg26
I00
sg27
I00
sg28
I4147269
sg20
S'6514.27478604'
p2190
sba(igraph
Edge
p2191
(dp2192
g7
I1
sg8
I00
sg9
I5
sg10
(lp2193
g460
ag586
asg26
I00
sg27
I00
sg28
I4147270
sg20
S'6514.28315666'
p2194
sba(igraph
Edge
p2195
(dp2196
g7
I1
sg8
I00
sg9
I5
sg10
(lp2197
g467
ag600
asg26
I00
sg27
I00
sg28
I4147271
sg20
S'6514.29170328'
p2198
sba(igraph
Edge
p2199
(dp2200
g7
I1
sg8
I00
sg9
I5
sg10
(lp2201
g474
ag600
asg26
I00
sg27
I00
sg28
I4147272
sg20
S'6514.3001767'
p2202
sba(igraph
Edge
p2203
(dp2204
g7
I1
sg8
I00
sg9
I5
sg10
(lp2205
g481
ag614
asg26
I00
sg27
I00
sg28
I4147273
sg20
S'6514.30862274'
p2206
sba(igraph
Edge
p2207
(dp2208
g7
I1
sg8
I00
sg9
I5
sg10
(lp2209
g488
ag614
asg26
I00
sg27
I00
sg28
I4147274
sg20
S'6514.31707354'
p2210
sba(igraph
Edge
p2211
(dp2212
g7
I1
sg8
I00
sg9
I5
sg10
(lp2213
g495
ag628
asg26
I00
sg27
I00
sg28
I4147275
sg20
S'6514.3255668'
p2214
sba(igraph
Edge
p2215
(dp2216
g7
I1
sg8
I00
sg9
I5
sg10
(lp2217
g502
ag628
asg26
I00
sg27
I00
sg28
I4147276
sg20
S'6514.33403994'
p2218
sba(igraph
Edge
p2219
(dp2220
g7
I1
sg8
I00
sg9
I5
sg10
(lp2221
g509
ag642
asg26
I00
sg27
I00
sg28
I4147277
sg20
S'6514.3426212'
p2222
sba(igraph
Edge
p2223
(dp2224
g7
I1
sg8
I00
sg9
I5
sg10
(lp2225
g516
ag642
asg26
I00
sg27
I00
sg28
I4147278
sg20
S'6514.35118486'
p2226
sba(igraph
Edge
p2227
(dp2228
g7
I1
sg8
I00
sg9
I5
sg10
(lp2229
g523
ag656
asg26
I00
sg27
I00
sg28
I4147279
sg20
S'6514.3597636'
p2230
sba(igraph
Edge
p2231
(dp2232
g7
I1
sg8
I00
sg9
I5
sg10
(lp2233
g530
ag656
asg26
I00
sg27
I00
sg28
I4147280
sg20
S'6514.36854852'
p2234
sba(igraph
Edge
p2235
(dp2236
g7
I1
sg8
I00
sg9
I5
sg10
(lp2237
g537
ag670
asg26
I00
sg27
I00
sg28
I4147281
sg20
S'6514.37723845'
p2238
sba(igraph
Edge
p2239
(dp2240
g7
I1
sg8
I00
sg9
I5
sg10
(lp2241
g544
ag670
asg26
I00
sg27
I00
sg28
I4147282
sg20
S'6514.38593872'
p2242
sba(igraph
Edge
p2243
(dp2244
g7
I1
sg8
I00
sg9
I5
sg10
(lp2245
g555
ag688
asg26
I00
sg27
I00
sg28
I4147283
sg20
S'6514.39479431'
p2246
sba(igraph
Edge
p2247
(dp2248
g7
I1
sg8
I00
sg9
I5
sg10
(lp2249
g558
ag688
asg26
I00
sg27
I00
sg28
I4147284
sg20
S'6514.40353453'
p2250
sba(igraph
Edge
p2251
(dp2252
g7
I1
sg8
I00
sg9
I5
sg10
(lp2253
g565
ag698
asg26
I00
sg27
I00
sg28
I4147285
sg20
S'6514.4122482'
p2254
sba(igraph
Edge
p2255
(dp2256
g7
I1
sg8
I00
sg9
I5
sg10
(lp2257
g572
ag698
asg26
I00
sg27
I00
sg28
I4147286
sg20
S'6514.42120325'
p2258
sba(igraph
Edge
p2259
(dp2260
g7
I1
sg8
I00
sg9
I5
sg10
(lp2261
g579
ag712
asg26
I00
sg27
I00
sg28
I4147287
sg20
S'6514.43058741'
p2262
sba(igraph
Edge
p2263
(dp2264
g7
I1
sg8
I00
sg9
I5
sg10
(lp2265
g586
ag712
asg26
I00
sg27
I00
sg28
I4147288
sg20
S'6514.43953324'
p2266
sba(igraph
Edge
p2267
(dp2268
g7
I1
sg8
I00
sg9
I5
sg10
(lp2269
g593
ag726
asg26
I00
sg27
I00
sg28
I4147289
sg20
S'6514.44832206'
p2270
sba(igraph
Edge
p2271
(dp2272
g7
I1
sg8
I00
sg9
I5
sg10
(lp2273
g600
ag726
asg26
I00
sg27
I00
sg28
I4147290
sg20
S'6514.45784869'
p2274
sba(igraph
Edge
p2275
(dp2276
g7
I1
sg8
I00
sg9
I5
sg10
(lp2277
g607
ag740
asg26
I00
sg27
I00
sg28
I4147291
sg20
S'6514.46726386'
p2278
sba(igraph
Edge
p2279
(dp2280
g7
I1
sg8
I00
sg9
I5
sg10
(lp2281
g614
ag740
asg26
I00
sg27
I00
sg28
I4147292
sg20
S'6514.47702795'
p2282
sba(igraph
Edge
p2283
(dp2284
g7
I1
sg8
I00
sg9
I5
sg10
(lp2285
g621
ag754
asg26
I00
sg27
I00
sg28
I4147293
sg20
S'6514.48649982'
p2286
sba(igraph
Edge
p2287
(dp2288
g7
I1
sg8
I00
sg9
I5
sg10
(lp2289
g628
ag754
asg26
I00
sg27
I00
sg28
I4147294
sg20
S'6514.49604656'
p2290
sba(igraph
Edge
p2291
(dp2292
g7
I1
sg8
I00
sg9
I5
sg10
(lp2293
g635
ag768
asg26
I00
sg27
I00
sg28
I4147295
sg20
S'6514.50612243'
p2294
sba(igraph
Edge
p2295
(dp2296
g7
I1
sg8
I00
sg9
I5
sg10
(lp2297
g642
ag768
asg26
I00
sg27
I00
sg28
I4147296
sg20
S'6514.5158597'
p2298
sba(igraph
Edge
p2299
(dp2300
g7
I1
sg8
I00
sg9
I5
sg10
(lp2301
g649
ag782
asg26
I00
sg27
I00
sg28
I4147297
sg20
S'6514.52560842'
p2302
sba(igraph
Edge
p2303
(dp2304
g7
I1
sg8
I00
sg9
I5
sg10
(lp2305
g656
ag782
asg26
I00
sg27
I00
sg28
I4147298
sg20
S'6514.53521411'
p2306
sba(igraph
Edge
p2307
(dp2308
g7
I1
sg8
I00
sg9
I5
sg10
(lp2309
g663
ag796
asg26
I00
sg27
I00
sg28
I4147299
sg20
S'6514.54492429'
p2310
sba(igraph
Edge
p2311
(dp2312
g7
I1
sg8
I00
sg9
I5
sg10
(lp2313
g670
ag796
asg26
I00
sg27
I00
sg28
I4147300
sg20
S'6514.55470933'
p2314
sba(igraph
Edge
p2315
(dp2316
g7
I1
sg8
I00
sg9
I5
sg10
(lp2317
g677
ag810
asg26
I00
sg27
I00
sg28
I4147301
sg20
S'6514.56453013'
p2318
sba(igraph
Edge
p2319
(dp2320
g7
I1
sg8
I00
sg9
I5
sg10
(lp2321
g555
ag810
asg26
I00
sg27
I00
sg28
I4147302
sg20
S'6514.57543096'
p2322
sba(igraph
Edge
p2323
(dp2324
g7
I1
sg8
I00
sg9
I5
sg10
(lp2325
g558
ag691
asg26
I00
sg27
I00
sg28
I4147303
sg20
S'6514.58558169'
p2326
sba(igraph
Edge
p2327
(dp2328
g7
I1
sg8
I00
sg9
I5
sg10
(lp2329
g565
ag691
asg26
I00
sg27
I00
sg28
I4147304
sg20
S'6514.59560391'
p2330
sba(igraph
Edge
p2331
(dp2332
g7
I1
sg8
I00
sg9
I5
sg10
(lp2333
g572
ag705
asg26
I00
sg27
I00
sg28
I4147305
sg20
S'6514.60594489'
p2334
sba(igraph
Edge
p2335
(dp2336
g7
I1
sg8
I00
sg9
I5
sg10
(lp2337
g579
ag705
asg26
I00
sg27
I00
sg28
I4147306
sg20
S'6514.61559165'
p2338
sba(igraph
Edge
p2339
(dp2340
g7
I1
sg8
I00
sg9
I5
sg10
(lp2341
g586
ag719
asg26
I00
sg27
I00
sg28
I4147307
sg20
S'6514.62549039'
p2342
sba(igraph
Edge
p2343
(dp2344
g7
I1
sg8
I00
sg9
I5
sg10
(lp2345
g593
ag719
asg26
I00
sg27
I00
sg28
I4147308
sg20
S'6514.63545842'
p2346
sba(igraph
Edge
p2347
(dp2348
g7
I1
sg8
I00
sg9
I5
sg10
(lp2349
g600
ag733
asg26
I00
sg27
I00
sg28
I4147309
sg20
S'6514.64561306'
p2350
sba(igraph
Edge
p2351
(dp2352
g7
I1
sg8
I00
sg9
I5
sg10
(lp2353
g607
ag733
asg26
I00
sg27
I00
sg28
I4147310
sg20
S'6514.65593281'
p2354
sba(igraph
Edge
p2355
(dp2356
g7
I1
sg8
I00
sg9
I5
sg10
(lp2357
g614
ag747
asg26
I00
sg27
I00
sg28
I4147311
sg20
S'6514.66784941'
p2358
sba(igraph
Edge
p2359
(dp2360
g7
I1
sg8
I00
sg9
I5
sg10
(lp2361
g621
ag747
asg26
I00
sg27
I00
sg28
I4147312
sg20
S'6514.677742'
p2362
sba(igraph
Edge
p2363
(dp2364
g7
I1
sg8
I00
sg9
I5
sg10
(lp2365
g628
ag761
asg26
I00
sg27
I00
sg28
I4147313
sg20
S'6514.68814975'
p2366
sba(igraph
Edge
p2367
(dp2368
g7
I1
sg8
I00
sg9
I5
sg10
(lp2369
g635
ag761
asg26
I00
sg27
I00
sg28
I4147314
sg20
S'6514.69781858'
p2370
sba(igraph
Edge
p2371
(dp2372
g7
I1
sg8
I00
sg9
I5
sg10
(lp2373
g642
ag775
asg26
I00
sg27
I00
sg28
I4147315
sg20
S'6514.70749327'
p2374
sba(igraph
Edge
p2375
(dp2376
g7
I1
sg8
I00
sg9
I5
sg10
(lp2377
g649
ag775
asg26
I00
sg27
I00
sg28
I4147316
sg20
S'6514.71705342'
p2378
sba(igraph
Edge
p2379
(dp2380
g7
I1
sg8
I00
sg9
I5
sg10
(lp2381
g656
ag789
asg26
I00
sg27
I00
sg28
I4147317
sg20
S'6514.72646104'
p2382
sba(igraph
Edge
p2383
(dp2384
g7
I1
sg8
I00
sg9
I5
sg10
(lp2385
g663
ag789
asg26
I00
sg27
I00
sg28
I4147318
sg20
S'6514.73616032'
p2386
sba(igraph
Edge
p2387
(dp2388
g7
I1
sg8
I00
sg9
I5
sg10
(lp2389
g670
ag803
asg26
I00
sg27
I00
sg28
I4147319
sg20
S'6514.74602834'
p2390
sba(igraph
Edge
p2391
(dp2392
g7
I1
sg8
I00
sg9
I5
sg10
(lp2393
g677
ag803
asg26
I00
sg27
I00
sg28
I4147320
sg20
S'6514.75565163'
p2394
sba(igraph
Edge
p2395
(dp2396
g7
I1
sg8
I00
sg9
I5
sg10
(lp2397
g688
ag821
asg26
I00
sg27
I00
sg28
I4147321
sg20
S'6514.76521429'
p2398
sba(igraph
Edge
p2399
(dp2400
g7
I1
sg8
I00
sg9
I5
sg10
(lp2401
g691
ag821
asg26
I00
sg27
I00
sg28
I4147322
sg20
S'6514.77471383'
p2402
sba(igraph
Edge
p2403
(dp2404
g7
I1
sg8
I00
sg9
I5
sg10
(lp2405
g698
ag831
asg26
I00
sg27
I00
sg28
I4147323
sg20
S'6514.78437651'
p2406
sba(igraph
Edge
p2407
(dp2408
g7
I1
sg8
I00
sg9
I5
sg10
(lp2409
g705
ag831
asg26
I00
sg27
I00
sg28
I4147324
sg20
S'6514.79397968'
p2410
sba(igraph
Edge
p2411
(dp2412
g7
I1
sg8
I00
sg9
I5
sg10
(lp2413
g712
ag845
asg26
I00
sg27
I00
sg28
I4147325
sg20
S'6514.80352978'
p2414
sba(igraph
Edge
p2415
(dp2416
g7
I1
sg8
I00
sg9
I5
sg10
(lp2417
g719
ag845
asg26
I00
sg27
I00
sg28
I4147326
sg20
S'6514.81321257'
p2418
sba(igraph
Edge
p2419
(dp2420
g7
I1
sg8
I00
sg9
I5
sg10
(lp2421
g726
ag859
asg26
I00
sg27
I00
sg28
I4147327
sg20
S'6514.82301019'
p2422
sba(igraph
Edge
p2423
(dp2424
g7
I1
sg8
I00
sg9
I5
sg10
(lp2425
g733
ag859
asg26
I00
sg27
I00
sg28
I4147328
sg20
S'6514.83284719'
p2426
sba(igraph
Edge
p2427
(dp2428
g7
I1
sg8
I00
sg9
I5
sg10
(lp2429
g740
ag873
asg26
I00
sg27
I00
sg28
I4147329
sg20
S'6514.84296496'
p2430
sba(igraph
Edge
p2431
(dp2432
g7
I1
sg8
I00
sg9
I5
sg10
(lp2433
g747
ag873
asg26
I00
sg27
I00
sg28
I4147330
sg20
S'6514.85271787'
p2434
sba(igraph
Edge
p2435
(dp2436
g7
I1
sg8
I00
sg9
I5
sg10
(lp2437
g754
ag887
asg26
I00
sg27
I00
sg28
I4147331
sg20
S'6514.86243531'
p2438
sba(igraph
Edge
p2439
(dp2440
g7
I1
sg8
I00
sg9
I5
sg10
(lp2441
g761
ag887
asg26
I00
sg27
I00
sg28
I4147332
sg20
S'6514.8721899'
p2442
sba(igraph
Edge
p2443
(dp2444
g7
I1
sg8
I00
sg9
I5
sg10
(lp2445
g768
ag901
asg26
I00
sg27
I00
sg28
I4147333
sg20
S'6514.88222917'
p2446
sba(igraph
Edge
p2447
(dp2448
g7
I1
sg8
I00
sg9
I5
sg10
(lp2449
g775
ag901
asg26
I00
sg27
I00
sg28
I4147334
sg20
S'6514.89223491'
p2450
sba(igraph
Edge
p2451
(dp2452
g7
I1
sg8
I00
sg9
I5
sg10
(lp2453
g782
ag915
asg26
I00
sg27
I00
sg28
I4147335
sg20
S'6514.90207359'
p2454
sba(igraph
Edge
p2455
(dp2456
g7
I1
sg8
I00
sg9
I5
sg10
(lp2457
g789
ag915
asg26
I00
sg27
I00
sg28
I4147336
sg20
S'6514.91200977'
p2458
sba(igraph
Edge
p2459
(dp2460
g7
I1
sg8
I00
sg9
I5
sg10
(lp2461
g796
ag929
asg26
I00
sg27
I00
sg28
I4147337
sg20
S'6514.9248262'
p2462
sba(igraph
Edge
p2463
(dp2464
g7
I1
sg8
I00
sg9
I5
sg10
(lp2465
g803
ag929
asg26
I00
sg27
I00
sg28
I4147338
sg20
S'6514.93470762'
p2466
sba(igraph
Edge
p2467
(dp2468
g7
I1
sg8
I00
sg9
I5
sg10
(lp2469
g810
ag943
asg26
I00
sg27
I00
sg28
I4147339
sg20
S'6514.94484802'
p2470
sba(igraph
Edge
p2471
(dp2472
g7
I1
sg8
I00
sg9
I5
sg10
(lp2473
g688
ag943
asg26
I00
sg27
I00
sg28
I4147340
sg20
S'6514.95486158'
p2474
sba(igraph
Edge
p2475
(dp2476
g7
I1
sg8
I00
sg9
I5
sg10
(lp2477
g691
ag824
asg26
I00
sg27
I00
sg28
I4147341
sg20
S'6514.96484414'
p2478
sba(igraph
Edge
p2479
(dp2480
g7
I1
sg8
I00
sg9
I5
sg10
(lp2481
g698
ag824
asg26
I00
sg27
I00
sg28
I4147342
sg20
S'6514.97501442'
p2482
sba(igraph
Edge
p2483
(dp2484
g7
I1
sg8
I00
sg9
I5
sg10
(lp2485
g705
ag838
asg26
I00
sg27
I00
sg28
I4147343
sg20
S'6514.98504503'
p2486
sba(igraph
Edge
p2487
(dp2488
g7
I1
sg8
I00
sg9
I5
sg10
(lp2489
g712
ag838
asg26
I00
sg27
I00
sg28
I4147344
sg20
S'6514.99558966'
p2490
sba(igraph
Edge
p2491
(dp2492
g7
I1
sg8
I00
sg9
I5
sg10
(lp2493
g719
ag852
asg26
I00
sg27
I00
sg28
I4147345
sg20
S'6515.00571721'
p2494
sba(igraph
Edge
p2495
(dp2496
g7
I1
sg8
I00
sg9
I5
sg10
(lp2497
g726
ag852
asg26
I00
sg27
I00
sg28
I4147346
sg20
S'6515.01586822'
p2498
sba(igraph
Edge
p2499
(dp2500
g7
I1
sg8
I00
sg9
I5
sg10
(lp2501
g733
ag866
asg26
I00
sg27
I00
sg28
I4147347
sg20
S'6515.02603012'
p2502
sba(igraph
Edge
p2503
(dp2504
g7
I1
sg8
I00
sg9
I5
sg10
(lp2505
g740
ag866
asg26
I00
sg27
I00
sg28
I4147348
sg20
S'6515.03617639'
p2506
sba(igraph
Edge
p2507
(dp2508
g7
I1
sg8
I00
sg9
I5
sg10
(lp2509
g747
ag880
asg26
I00
sg27
I00
sg28
I4147349
sg20
S'6515.04645618'
p2510
sba(igraph
Edge
p2511
(dp2512
g7
I1
sg8
I00
sg9
I5
sg10
(lp2513
g754
ag880
asg26
I00
sg27
I00
sg28
I4147350
sg20
S'6515.05659853'
p2514
sba(igraph
Edge
p2515
(dp2516
g7
I1
sg8
I00
sg9
I5
sg10
(lp2517
g761
ag894
asg26
I00
sg27
I00
sg28
I4147351
sg20
S'6515.0667962'
p2518
sba(igraph
Edge
p2519
(dp2520
g7
I1
sg8
I00
sg9
I5
sg10
(lp2521
g768
ag894
asg26
I00
sg27
I00
sg28
I4147352
sg20
S'6515.07708857'
p2522
sba(igraph
Edge
p2523
(dp2524
g7
I1
sg8
I00
sg9
I5
sg10
(lp2525
g775
ag908
asg26
I00
sg27
I00
sg28
I4147353
sg20
S'6515.08732953'
p2526
sba(igraph
Edge
p2527
(dp2528
g7
I1
sg8
I00
sg9
I5
sg10
(lp2529
g782
ag908
asg26
I00
sg27
I00
sg28
I4147354
sg20
S'6515.09763364'
p2530
sba(igraph
Edge
p2531
(dp2532
g7
I1
sg8
I00
sg9
I5
sg10
(lp2533
g789
ag922
asg26
I00
sg27
I00
sg28
I4147355
sg20
S'6515.10805535'
p2534
sba(igraph
Edge
p2535
(dp2536
g7
I1
sg8
I00
sg9
I5
sg10
(lp2537
g796
ag922
asg26
I00
sg27
I00
sg28
I4147356
sg20
S'6515.11835024'
p2538
sba(igraph
Edge
p2539
(dp2540
g7
I1
sg8
I00
sg9
I5
sg10
(lp2541
g803
ag936
asg26
I00
sg27
I00
sg28
I4147357
sg20
S'6515.12882112'
p2542
sba(igraph
Edge
p2543
(dp2544
g7
I1
sg8
I00
sg9
I5
sg10
(lp2545
g810
ag936
asg26
I00
sg27
I00
sg28
I4147358
sg20
S'6515.13937945'
p2546
sba(igraph
Edge
p2547
(dp2548
g7
I1
sg8
I00
sg9
I5
sg10
(lp2549
g821
ag954
asg26
I00
sg27
I00
sg28
I4147359
sg20
S'6515.14984195'
p2550
sba(igraph
Edge
p2551
(dp2552
g7
I1
sg8
I00
sg9
I5
sg10
(lp2553
g824
ag954
asg26
I00
sg27
I00
sg28
I4147360
sg20
S'6515.1602117'
p2554
sba(igraph
Edge
p2555
(dp2556
g7
I1
sg8
I00
sg9
I5
sg10
(lp2557
g831
ag964
asg26
I00
sg27
I00
sg28
I4147361
sg20
S'6515.1707745'
p2558
sba(igraph
Edge
p2559
(dp2560
g7
I1
sg8
I00
sg9
I5
sg10
(lp2561
g838
ag964
asg26
I00
sg27
I00
sg28
I4147362
sg20
S'6515.18134567'
p2562
sba(igraph
Edge
p2563
(dp2564
g7
I1
sg8
I00
sg9
I5
sg10
(lp2565
g845
ag978
asg26
I00
sg27
I00
sg28
I4147363
sg20
S'6515.19176879'
p2566
sba(igraph
Edge
p2567
(dp2568
g7
I1
sg8
I00
sg9
I5
sg10
(lp2569
g852
ag978
asg26
I00
sg27
I00
sg28
I4147364
sg20
S'6515.20233661'
p2570
sba(igraph
Edge
p2571
(dp2572
g7
I1
sg8
I00
sg9
I5
sg10
(lp2573
g859
ag992
asg26
I00
sg27
I00
sg28
I4147365
sg20
S'6515.21290052'
p2574
sba(igraph
Edge
p2575
(dp2576
g7
I1
sg8
I00
sg9
I5
sg10
(lp2577
g866
ag992
asg26
I00
sg27
I00
sg28
I4147366
sg20
S'6515.22355383'
p2578
sba(igraph
Edge
p2579
(dp2580
g7
I1
sg8
I00
sg9
I5
sg10
(lp2581
g873
ag1006
asg26
I00
sg27
I00
sg28
I4147367
sg20
S'6515.23420099'
p2582
sba(igraph
Edge
p2583
(dp2584
g7
I1
sg8
I00
sg9
I5
sg10
(lp2585
g880
ag1006
asg26
I00
sg27
I00
sg28
I4147368
sg20
S'6515.2448557'
p2586
sba(igraph
Edge
p2587
(dp2588
g7
I1
sg8
I00
sg9
I5
sg10
(lp2589
g887
ag1020
asg26
I00
sg27
I00
sg28
I4147369
sg20
S'6515.25542045'
p2590
sba(igraph
Edge
p2591
(dp2592
g7
I1
sg8
I00
sg9
I5
sg10
(lp2593
g894
ag1020
asg26
I00
sg27
I00
sg28
I4147370
sg20
S'6515.26643945'
p2594
sba(igraph
Edge
p2595
(dp2596
g7
I1
sg8
I00
sg9
I5
sg10
(lp2597
g901
ag1034
asg26
I00
sg27
I00
sg28
I4147371
sg20
S'6515.2769975'
p2598
sba(igraph
Edge
p2599
(dp2600
g7
I1
sg8
I00
sg9
I5
sg10
(lp2601
g908
ag1034
asg26
I00
sg27
I00
sg28
I4147372
sg20
S'6515.28757929'
p2602
sba(igraph
Edge
p2603
(dp2604
g7
I1
sg8
I00
sg9
I5
sg10
(lp2605
g915
ag1048
asg26
I00
sg27
I00
sg28
I4147373
sg20
S'6515.29825914'
p2606
sba(igraph
Edge
p2607
(dp2608
g7
I1
sg8
I00
sg9
I5
sg10
(lp2609
g922
ag1048
asg26
I00
sg27
I00
sg28
I4147374
sg20
S'6515.30897921'
p2610
sba(igraph
Edge
p2611
(dp2612
g7
I1
sg8
I00
sg9
I5
sg10
(lp2613
g929
ag1062
asg26
I00
sg27
I00
sg28
I4147375
sg20
S'6515.31971717'
p2614
sba(igraph
Edge
p2615
(dp2616
g7
I1
sg8
I00
sg9
I5
sg10
(lp2617
g936
ag1062
asg26
I00
sg27
I00
sg28
I4147376
sg20
S'6515.33042635'
p2618
sba(igraph
Edge
p2619
(dp2620
g7
I1
sg8
I00
sg9
I5
sg10
(lp2621
g943
ag1076
asg26
I00
sg27
I00
sg28
I4147377
sg20
S'6515.34108301'
p2622
sba(igraph
Edge
p2623
(dp2624
g7
I1
sg8
I00
sg9
I5
sg10
(lp2625
g821
ag1076
asg26
I00
sg27
I00
sg28
I4147378
sg20
S'6515.35200535'
p2626
sba(igraph
Edge
p2627
(dp2628
g7
I1
sg8
I00
sg9
I5
sg10
(lp2629
g824
ag957
asg26
I00
sg27
I00
sg28
I4147379
sg20
S'6515.36279192'
p2630
sba(igraph
Edge
p2631
(dp2632
g7
I1
sg8
I00
sg9
I5
sg10
(lp2633
g831
ag957
asg26
I00
sg27
I00
sg28
I4147380
sg20
S'6515.37356983'
p2634
sba(igraph
Edge
p2635
(dp2636
g7
I1
sg8
I00
sg9
I5
sg10
(lp2637
g838
ag971
asg26
I00
sg27
I00
sg28
I4147381
sg20
S'6515.38457737'
p2638
sba(igraph
Edge
p2639
(dp2640
g7
I1
sg8
I00
sg9
I5
sg10
(lp2641
g845
ag971
asg26
I00
sg27
I00
sg28
I4147382
sg20
S'6515.39540193'
p2642
sba(igraph
Edge
p2643
(dp2644
g7
I1
sg8
I00
sg9
I5
sg10
(lp2645
g852
ag985
asg26
I00
sg27
I00
sg28
I4147383
sg20
S'6515.40630583'
p2646
sba(igraph
Edge
p2647
(dp2648
g7
I1
sg8
I00
sg9
I5
sg10
(lp2649
g859
ag985
asg26
I00
sg27
I00
sg28
I4147384
sg20
S'6515.41746283'
p2650
sba(igraph
Edge
p2651
(dp2652
g7
I1
sg8
I00
sg9
I5
sg10
(lp2653
g866
ag999
asg26
I00
sg27
I00
sg28
I4147385
sg20
S'6515.42838182'
p2654
sba(igraph
Edge
p2655
(dp2656
g7
I1
sg8
I00
sg9
I5
sg10
(lp2657
g873
ag999
asg26
I00
sg27
I00
sg28
I4147386
sg20
S'6515.43940613'
p2658
sba(igraph
Edge
p2659
(dp2660
g7
I1
sg8
I00
sg9
I5
sg10
(lp2661
g880
ag1013
asg26
I00
sg27
I00
sg28
I4147387
sg20
S'6515.45040222'
p2662
sba(igraph
Edge
p2663
(dp2664
g7
I1
sg8
I00
sg9
I5
sg10
(lp2665
g887
ag1013
asg26
I00
sg27
I00
sg28
I4147388
sg20
S'6515.46146033'
p2666
sba(igraph
Edge
p2667
(dp2668
g7
I1
sg8
I00
sg9
I5
sg10
(lp2669
g894
ag1027
asg26
I00
sg27
I00
sg28
I4147389
sg20
S'6515.47256481'
p2670
sba(igraph
Edge
p2671
(dp2672
g7
I1
sg8
I00
sg9
I5
sg10
(lp2673
g901
ag1027
asg26
I00
sg27
I00
sg28
I4147390
sg20
S'6515.48377433'
p2674
sba(igraph
Edge
p2675
(dp2676
g7
I1
sg8
I00
sg9
I5
sg10
(lp2677
g908
ag1041
asg26
I00
sg27
I00
sg28
I4147391
sg20
S'6515.49493916'
p2678
sba(igraph
Edge
p2679
(dp2680
g7
I1
sg8
I00
sg9
I5
sg10
(lp2681
g915
ag1041
asg26
I00
sg27
I00
sg28
I4147392
sg20
S'6515.50605426'
p2682
sba(igraph
Edge
p2683
(dp2684
g7
I1
sg8
I00
sg9
I5
sg10
(lp2685
g922
ag1055
asg26
I00
sg27
I00
sg28
I4147393
sg20
S'6515.51711516'
p2686
sba(igraph
Edge
p2687
(dp2688
g7
I1
sg8
I00
sg9
I5
sg10
(lp2689
g929
ag1055
asg26
I00
sg27
I00
sg28
I4147394
sg20
S'6515.52811489'
p2690
sba(igraph
Edge
p2691
(dp2692
g7
I1
sg8
I00
sg9
I5
sg10
(lp2693
g936
ag1069
asg26
I00
sg27
I00
sg28
I4147395
sg20
S'6515.53996053'
p2694
sba(igraph
Edge
p2695
(dp2696
g7
I1
sg8
I00
sg9
I5
sg10
(lp2697
g943
ag1069
asg26
I00
sg27
I00
sg28
I4147396
sg20
S'6515.55126308'
p2698
sba(igraph
Edge
p2699
(dp2700
g7
I1
sg8
I00
sg9
I5
sg10
(lp2701
g954
ag1087
asg26
I00
sg27
I00
sg28
I4147397
sg20
S'6515.56261704'
p2702
sba(igraph
Edge
p2703
(dp2704
g7
I1
sg8
I00
sg9
I5
sg10
(lp2705
g957
ag1087
asg26
I00
sg27
I00
sg28
I4147398
sg20
S'6515.57386791'
p2706
sba(igraph
Edge
p2707
(dp2708
g7
I1
sg8
I00
sg9
I5
sg10
(lp2709
g964
ag1097
asg26
I00
sg27
I00
sg28
I4147399
sg20
S'6515.58501206'
p2710
sba(igraph
Edge
p2711
(dp2712
g7
I1
sg8
I00
sg9
I5
sg10
(lp2713
g971
ag1097
asg26
I00
sg27
I00
sg28
I4147400
sg20
S'6515.59631294'
p2714
sba(igraph
Edge
p2715
(dp2716
g7
I1
sg8
I00
sg9
I5
sg10
(lp2717
g978
ag1111
asg26
I00
sg27
I00
sg28
I4147401
sg20
S'6515.60766103'
p2718
sba(igraph
Edge
p2719
(dp2720
g7
I1
sg8
I00
sg9
I5
sg10
(lp2721
g985
ag1111
asg26
I00
sg27
I00
sg28
I4147402
sg20
S'6515.61896973'
p2722
sba(igraph
Edge
p2723
(dp2724
g7
I1
sg8
I00
sg9
I5
sg10
(lp2725
g992
ag1125
asg26
I00
sg27
I00
sg28
I4147403
sg20
S'6515.63042426'
p2726
sba(igraph
Edge
p2727
(dp2728
g7
I1
sg8
I00
sg9
I5
sg10
(lp2729
g999
ag1125
asg26
I00
sg27
I00
sg28
I4147404
sg20
S'6515.64186063'
p2730
sba(igraph
Edge
p2731
(dp2732
g7
I1
sg8
I00
sg9
I5
sg10
(lp2733
g1006
ag1139
asg26
I00
sg27
I00
sg28
I4147405
sg20
S'6515.65342243'
p2734
sba(igraph
Edge
p2735
(dp2736
g7
I1
sg8
I00
sg9
I5
sg10
(lp2737
g1013
ag1139
asg26
I00
sg27
I00
sg28
I4147406
sg20
S'6515.66479036'
p2738
sba(igraph
Edge
p2739
(dp2740
g7
I1
sg8
I00
sg9
I5
sg10
(lp2741
g1020
ag1153
asg26
I00
sg27
I00
sg28
I4147407
sg20
S'6515.67633931'
p2742
sba(igraph
Edge
p2743
(dp2744
g7
I1
sg8
I00
sg9
I5
sg10
(lp2745
g1027
ag1153
asg26
I00
sg27
I00
sg28
I4147408
sg20
S'6515.6878011'
p2746
sba(igraph
Edge
p2747
(dp2748
g7
I1
sg8
I00
sg9
I5
sg10
(lp2749
g1034
ag1167
asg26
I00
sg27
I00
sg28
I4147409
sg20
S'6515.69932659'
p2750
sba(igraph
Edge
p2751
(dp2752
g7
I1
sg8
I00
sg9
I5
sg10
(lp2753
g1041
ag1167
asg26
I00
sg27
I00
sg28
I4147410
sg20
S'6515.71077693'
p2754
sba(igraph
Edge
p2755
(dp2756
g7
I1
sg8
I00
sg9
I5
sg10
(lp2757
g1048
ag1181
asg26
I00
sg27
I00
sg28
I4147411
sg20
S'6515.72242422'
p2758
sba(igraph
Edge
p2759
(dp2760
g7
I1
sg8
I00
sg9
I5
sg10
(lp2761
g1055
ag1181
asg26
I00
sg27
I00
sg28
I4147412
sg20
S'6515.73482049'
p2762
sba(igraph
Edge
p2763
(dp2764
g7
I1
sg8
I00
sg9
I5
sg10
(lp2765
g1062
ag1195
asg26
I00
sg27
I00
sg28
I4147413
sg20
S'6515.74654097'
p2766
sba(igraph
Edge
p2767
(dp2768
g7
I1
sg8
I00
sg9
I5
sg10
(lp2769
g1069
ag1195
asg26
I00
sg27
I00
sg28
I4147414
sg20
S'6515.75869615'
p2770
sba(igraph
Edge
p2771
(dp2772
g7
I1
sg8
I00
sg9
I5
sg10
(lp2773
g1076
ag1209
asg26
I00
sg27
I00
sg28
I4147415
sg20
S'6515.77037305'
p2774
sba(igraph
Edge
p2775
(dp2776
g7
I1
sg8
I00
sg9
I5
sg10
(lp2777
g954
ag1209
asg26
I00
sg27
I00
sg28
I4147416
sg20
S'6515.78217651'
p2778
sba(igraph
Edge
p2779
(dp2780
g7
I1
sg8
I00
sg9
I5
sg10
(lp2781
g957
ag1090
asg26
I00
sg27
I00
sg28
I4147417
sg20
S'6515.79380899'
p2782
sba(igraph
Edge
p2783
(dp2784
g7
I1
sg8
I00
sg9
I5
sg10
(lp2785
g964
ag1090
asg26
I00
sg27
I00
sg28
I4147418
sg20
S'6515.80540376'
p2786
sba(igraph
Edge
p2787
(dp2788
g7
I1
sg8
I00
sg9
I5
sg10
(lp2789
g971
ag1104
asg26
I00
sg27
I00
sg28
I4147419
sg20
S'6515.81708988'
p2790
sba(igraph
Edge
p2791
(dp2792
g7
I1
sg8
I00
sg9
I5
sg10
(lp2793
g978
ag1104
asg26
I00
sg27
I00
sg28
I4147420
sg20
S'6515.82889501'
p2794
sba(igraph
Edge
p2795
(dp2796
g7
I1
sg8
I00
sg9
I5
sg10
(lp2797
g985
ag1118
asg26
I00
sg27
I00
sg28
I4147421
sg20
S'6515.84073926'
p2798
sba(igraph
Edge
p2799
(dp2800
g7
I1
sg8
I00
sg9
I5
sg10
(lp2801
g992
ag1118
asg26
I00
sg27
I00
sg28
I4147422
sg20
S'6515.85259467'
p2802
sba(igraph
Edge
p2803
(dp2804
g7
I1
sg8
I00
sg9
I5
sg10
(lp2805
g999
ag1132
asg26
I00
sg27
I00
sg28
I4147423
sg20
S'6515.8643565'
p2806
sba(igraph
Edge
p2807
(dp2808
g7
I1
sg8
I00
sg9
I5
sg10
(lp2809
g1006
ag1132
asg26
I00
sg27
I00
sg28
I4147424
sg20
S'6515.87629433'
p2810
sba(igraph
Edge
p2811
(dp2812
g7
I1
sg8
I00
sg9
I5
sg10
(lp2813
g1013
ag1146
asg26
I00
sg27
I00
sg28
I4147425
sg20
S'6515.88813439'
p2814
sba(igraph
Edge
p2815
(dp2816
g7
I1
sg8
I00
sg9
I5
sg10
(lp2817
g1020
ag1146
asg26
I00
sg27
I00
sg28
I4147426
sg20
S'6515.90006886'
p2818
sba(igraph
Edge
p2819
(dp2820
g7
I1
sg8
I00
sg9
I5
sg10
(lp2821
g1027
ag1160
asg26
I00
sg27
I00
sg28
I4147427
sg20
S'6515.91184913'
p2822
sba(igraph
Edge
p2823
(dp2824
g7
I1
sg8
I00
sg9
I5
sg10
(lp2825
g1034
ag1160
asg26
I00
sg27
I00
sg28
I4147428
sg20
S'6515.92698821'
p2826
sba(igraph
Edge
p2827
(dp2828
g7
I1
sg8
I00
sg9
I5
sg10
(lp2829
g1041
ag1174
asg26
I00
sg27
I00
sg28
I4147429
sg20
S'6515.94025162'
p2830
sba(igraph
Edge
p2831
(dp2832
g7
I1
sg8
I00
sg9
I5
sg10
(lp2833
g1048
ag1174
asg26
I00
sg27
I00
sg28
I4147430
sg20
S'6515.95329155'
p2834
sba(igraph
Edge
p2835
(dp2836
g7
I1
sg8
I00
sg9
I5
sg10
(lp2837
g1055
ag1188
asg26
I00
sg27
I00
sg28
I4147431
sg20
S'6515.96645914'
p2838
sba(igraph
Edge
p2839
(dp2840
g7
I1
sg8
I00
sg9
I5
sg10
(lp2841
g1062
ag1188
asg26
I00
sg27
I00
sg28
I4147432
sg20
S'6515.9815809'
p2842
sba(igraph
Edge
p2843
(dp2844
g7
I1
sg8
I00
sg9
I5
sg10
(lp2845
g1069
ag1202
asg26
I00
sg27
I00
sg28
I4147433
sg20
S'6515.99681999'
p2846
sba(igraph
Edge
p2847
(dp2848
g7
I1
sg8
I00
sg9
I5
sg10
(lp2849
g1076
ag1202
asg26
I00
sg27
I00
sg28
I4147434
sg20
S'6516.01369504'
p2850
sba(igraph
Edge
p2851
(dp2852
g7
I1
sg8
I00
sg9
I5
sg10
(lp2853
g1087
ag1220
asg26
I00
sg27
I00
sg28
I4147435
sg20
S'6516.02849859'
p2854
sba(igraph
Edge
p2855
(dp2856
g7
I1
sg8
I00
sg9
I5
sg10
(lp2857
g1090
ag1220
asg26
I00
sg27
I00
sg28
I4147436
sg20
S'6516.04353626'
p2858
sba(igraph
Edge
p2859
(dp2860
g7
I1
sg8
I00
sg9
I5
sg10
(lp2861
g1097
ag1230
asg26
I00
sg27
I00
sg28
I4147437
sg20
S'6516.05808587'
p2862
sba(igraph
Edge
p2863
(dp2864
g7
I1
sg8
I00
sg9
I5
sg10
(lp2865
g1104
ag1230
asg26
I00
sg27
I00
sg28
I4147438
sg20
S'6516.07182058'
p2866
sba(igraph
Edge
p2867
(dp2868
g7
I1
sg8
I00
sg9
I5
sg10
(lp2869
g1111
ag1244
asg26
I00
sg27
I00
sg28
I4147439
sg20
S'6516.0857338'
p2870
sba(igraph
Edge
p2871
(dp2872
g7
I1
sg8
I00
sg9
I5
sg10
(lp2873
g1118
ag1244
asg26
I00
sg27
I00
sg28
I4147440
sg20
S'6516.09943694'
p2874
sba(igraph
Edge
p2875
(dp2876
g7
I1
sg8
I00
sg9
I5
sg10
(lp2877
g1125
ag1258
asg26
I00
sg27
I00
sg28
I4147441
sg20
S'6516.11321523'
p2878
sba(igraph
Edge
p2879
(dp2880
g7
I1
sg8
I00
sg9
I5
sg10
(lp2881
g1132
ag1258
asg26
I00
sg27
I00
sg28
I4147442
sg20
S'6516.12633896'
p2882
sba(igraph
Edge
p2883
(dp2884
g7
I1
sg8
I00
sg9
I5
sg10
(lp2885
g1139
ag1272
asg26
I00
sg27
I00
sg28
I4147443
sg20
S'6516.13956383'
p2886
sba(igraph
Edge
p2887
(dp2888
g7
I1
sg8
I00
sg9
I5
sg10
(lp2889
g1146
ag1272
asg26
I00
sg27
I00
sg28
I4147444
sg20
S'6516.15378826'
p2890
sba(igraph
Edge
p2891
(dp2892
g7
I1
sg8
I00
sg9
I5
sg10
(lp2893
g1153
ag1286
asg26
I00
sg27
I00
sg28
I4147445
sg20
S'6516.16849767'
p2894
sba(igraph
Edge
p2895
(dp2896
g7
I1
sg8
I00
sg9
I5
sg10
(lp2897
g1160
ag1286
asg26
I00
sg27
I00
sg28
I4147446
sg20
S'6516.18331883'
p2898
sba(igraph
Edge
p2899
(dp2900
g7
I1
sg8
I00
sg9
I5
sg10
(lp2901
g1167
ag1300
asg26
I00
sg27
I00
sg28
I4147447
sg20
S'6516.19743012'
p2902
sba(igraph
Edge
p2903
(dp2904
g7
I1
sg8
I00
sg9
I5
sg10
(lp2905
g1174
ag1300
asg26
I00
sg27
I00
sg28
I4147448
sg20
S'6516.21467952'
p2906
sba(igraph
Edge
p2907
(dp2908
g7
I1
sg8
I00
sg9
I5
sg10
(lp2909
g1181
ag1314
asg26
I00
sg27
I00
sg28
I4147449
sg20
S'6516.22822007'
p2910
sba(igraph
Edge
p2911
(dp2912
g7
I1
sg8
I00
sg9
I5
sg10
(lp2913
g1188
ag1314
asg26
I00
sg27
I00
sg28
I4147450
sg20
S'6516.24188689'
p2914
sba(igraph
Edge
p2915
(dp2916
g7
I1
sg8
I00
sg9
I5
sg10
(lp2917
g1195
ag1328
asg26
I00
sg27
I00
sg28
I4147451
sg20
S'6516.25534642'
p2918
sba(igraph
Edge
p2919
(dp2920
g7
I1
sg8
I00
sg9
I5
sg10
(lp2921
g1202
ag1328
asg26
I00
sg27
I00
sg28
I4147452
sg20
S'6516.26875678'
p2922
sba(igraph
Edge
p2923
(dp2924
g7
I1
sg8
I00
sg9
I5
sg10
(lp2925
g1209
ag1342
asg26
I00
sg27
I00
sg28
I4147453
sg20
S'6516.28391402'
p2926
sba(igraph
Edge
p2927
(dp2928
g7
I1
sg8
I00
sg9
I5
sg10
(lp2929
g1087
ag1342
asg26
I00
sg27
I00
sg28
I4147454
sg20
S'6516.30005322'
p2930
sba(igraph
Edge
p2931
(dp2932
g7
I1
sg8
I00
sg9
I5
sg10
(lp2933
g1090
ag1223
asg26
I00
sg27
I00
sg28
I4147455
sg20
S'6516.31659359'
p2934
sba(igraph
Edge
p2935
(dp2936
g7
I1
sg8
I00
sg9
I5
sg10
(lp2937
g1097
ag1223
asg26
I00
sg27
I00
sg28
I4147456
sg20
S'6516.3328532'
p2938
sba(igraph
Edge
p2939
(dp2940
g7
I1
sg8
I00
sg9
I5
sg10
(lp2941
g1104
ag1237
asg26
I00
sg27
I00
sg28
I4147457
sg20
S'6516.34851105'
p2942
sba(igraph
Edge
p2943
(dp2944
g7
I1
sg8
I00
sg9
I5
sg10
(lp2945
g1111
ag1237
asg26
I00
sg27
I00
sg28
I4147458
sg20
S'6516.36255306'
p2946
sba(igraph
Edge
p2947
(dp2948
g7
I1
sg8
I00
sg9
I5
sg10
(lp2949
g1118
ag1251
asg26
I00
sg27
I00
sg28
I4147459
sg20
S'6516.3768289'
p2950
sba(igraph
Edge
p2951
(dp2952
g7
I1
sg8
I00
sg9
I5
sg10
(lp2953
g1125
ag1251
asg26
I00
sg27
I00
sg28
I4147460
sg20
S'6516.39136175'
p2954
sba(igraph
Edge
p2955
(dp2956
g7
I1
sg8
I00
sg9
I5
sg10
(lp2957
g1132
ag1265
asg26
I00
sg27
I00
sg28
I4147461
sg20
S'6516.40516686'
p2958
sba(igraph
Edge
p2959
(dp2960
g7
I1
sg8
I00
sg9
I5
sg10
(lp2961
g1139
ag1265
asg26
I00
sg27
I00
sg28
I4147462
sg20
S'6516.42159017'
p2962
sba(igraph
Edge
p2963
(dp2964
g7
I1
sg8
I00
sg9
I5
sg10
(lp2965
g1146
ag1279
asg26
I00
sg27
I00
sg28
I4147463
sg20
S'6516.43934215'
p2966
sba(igraph
Edge
p2967
(dp2968
g7
I1
sg8
I00
sg9
I5
sg10
(lp2969
g1153
ag1279
asg26
I00
sg27
I00
sg28
I4147464
sg20
S'6516.45583838'
p2970
sba(igraph
Edge
p2971
(dp2972
g7
I1
sg8
I00
sg9
I5
sg10
(lp2973
g1160
ag1293
asg26
I00
sg27
I00
sg28
I4147465
sg20
S'6516.47200831'
p2974
sba(igraph
Edge
p2975
(dp2976
g7
I1
sg8
I00
sg9
I5
sg10
(lp2977
g1167
ag1293
asg26
I00
sg27
I00
sg28
I4147466
sg20
S'6516.48633332'
p2978
sba(igraph
Edge
p2979
(dp2980
g7
I1
sg8
I00
sg9
I5
sg10
(lp2981
g1174
ag1307
asg26
I00
sg27
I00
sg28
I4147467
sg20
S'6516.50032057'
p2982
sba(igraph
Edge
p2983
(dp2984
g7
I1
sg8
I00
sg9
I5
sg10
(lp2985
g1181
ag1307
asg26
I00
sg27
I00
sg28
I4147468
sg20
S'6516.51428715'
p2986
sba(igraph
Edge
p2987
(dp2988
g7
I1
sg8
I00
sg9
I5
sg10
(lp2989
g1188
ag1321
asg26
I00
sg27
I00
sg28
I4147469
sg20
S'6516.52770087'
p2990
sba(igraph
Edge
p2991
(dp2992
g7
I1
sg8
I00
sg9
I5
sg10
(lp2993
g1195
ag1321
asg26
I00
sg27
I00
sg28
I4147470
sg20
S'6516.54059943'
p2994
sba(igraph
Edge
p2995
(dp2996
g7
I1
sg8
I00
sg9
I5
sg10
(lp2997
g1202
ag1335
asg26
I00
sg27
I00
sg28
I4147471
sg20
S'6516.55344688'
p2998
sba(igraph
Edge
p2999
(dp3000
g7
I1
sg8
I00
sg9
I5
sg10
(lp3001
g1209
ag1335
asg26
I00
sg27
I00
sg28
I4147472
sg20
S'6516.56635801'
p3002
sba(igraph
Edge
p3003
(dp3004
g7
I1
sg8
I00
sg9
I5
sg10
(lp3005
g1220
ag1353
asg26
I00
sg27
I00
sg28
I4147473
sg20
S'6516.57933257'
p3006
sba(igraph
Edge
p3007
(dp3008
g7
I1
sg8
I00
sg9
I5
sg10
(lp3009
g1223
ag1353
asg26
I00
sg27
I00
sg28
I4147474
sg20
S'6516.59233422'
p3010
sba(igraph
Edge
p3011
(dp3012
g7
I1
sg8
I00
sg9
I5
sg10
(lp3013
g1230
ag1363
asg26
I00
sg27
I00
sg28
I4147475
sg20
S'6516.60537666'
p3014
sba(igraph
Edge
p3015
(dp3016
g7
I1
sg8
I00
sg9
I5
sg10
(lp3017
g1237
ag1363
asg26
I00
sg27
I00
sg28
I4147476
sg20
S'6516.61841435'
p3018
sba(igraph
Edge
p3019
(dp3020
g7
I1
sg8
I00
sg9
I5
sg10
(lp3021
g1244
ag1377
asg26
I00
sg27
I00
sg28
I4147477
sg20
S'6516.63322629'
p3022
sba(igraph
Edge
p3023
(dp3024
g7
I1
sg8
I00
sg9
I5
sg10
(lp3025
g1251
ag1377
asg26
I00
sg27
I00
sg28
I4147478
sg20
S'6516.64919173'
p3026
sba(igraph
Edge
p3027
(dp3028
g7
I1
sg8
I00
sg9
I5
sg10
(lp3029
g1258
ag1391
asg26
I00
sg27
I00
sg28
I4147479
sg20
S'6516.66334604'
p3030
sba(igraph
Edge
p3031
(dp3032
g7
I1
sg8
I00
sg9
I5
sg10
(lp3033
g1265
ag1391
asg26
I00
sg27
I00
sg28
I4147480
sg20
S'6516.68487671'
p3034
sba(igraph
Edge
p3035
(dp3036
g7
I1
sg8
I00
sg9
I5
sg10
(lp3037
g1272
ag1405
asg26
I00
sg27
I00
sg28
I4147481
sg20
S'6516.70209231'
p3038
sba(igraph
Edge
p3039
(dp3040
g7
I1
sg8
I00
sg9
I5
sg10
(lp3041
g1279
ag1405
asg26
I00
sg27
I00
sg28
I4147482
sg20
S'6516.7192213'
p3042
sba(igraph
Edge
p3043
(dp3044
g7
I1
sg8
I00
sg9
I5
sg10
(lp3045
g1286
ag1419
asg26
I00
sg27
I00
sg28
I4147483
sg20
S'6516.73524875'
p3046
sba(igraph
Edge
p3047
(dp3048
g7
I1
sg8
I00
sg9
I5
sg10
(lp3049
g1293
ag1419
asg26
I00
sg27
I00
sg28
I4147484
sg20
S'6516.74908962'
p3050
sba(igraph
Edge
p3051
(dp3052
g7
I1
sg8
I00
sg9
I5
sg10
(lp3053
g1300
ag1433
asg26
I00
sg27
I00
sg28
I4147485
sg20
S'6516.76238069'
p3054
sba(igraph
Edge
p3055
(dp3056
g7
I1
sg8
I00
sg9
I5
sg10
(lp3057
g1307
ag1433
asg26
I00
sg27
I00
sg28
I4147486
sg20
S'6516.77586621'
p3058
sba(igraph
Edge
p3059
(dp3060
g7
I1
sg8
I00
sg9
I5
sg10
(lp3061
g1314
ag1447
asg26
I00
sg27
I00
sg28
I4147487
sg20
S'6516.7891679'
p3062
sba(igraph
Edge
p3063
(dp3064
g7
I1
sg8
I00
sg9
I5
sg10
(lp3065
g1321
ag1447
asg26
I00
sg27
I00
sg28
I4147488
sg20
S'6516.80251317'
p3066
sba(igraph
Edge
p3067
(dp3068
g7
I1
sg8
I00
sg9
I5
sg10
(lp3069
g1328
ag1461
asg26
I00
sg27
I00
sg28
I4147489
sg20
S'6516.81584168'
p3070
sba(igraph
Edge
p3071
(dp3072
g7
I1
sg8
I00
sg9
I5
sg10
(lp3073
g1335
ag1461
asg26
I00
sg27
I00
sg28
I4147490
sg20
S'6516.82916041'
p3074
sba(igraph
Edge
p3075
(dp3076
g7
I1
sg8
I00
sg9
I5
sg10
(lp3077
g1342
ag1475
asg26
I00
sg27
I00
sg28
I4147491
sg20
S'6516.8426395'
p3078
sba(igraph
Edge
p3079
(dp3080
g7
I1
sg8
I00
sg9
I5
sg10
(lp3081
g1220
ag1475
asg26
I00
sg27
I00
sg28
I4147492
sg20
S'6516.85630352'
p3082
sba(igraph
Edge
p3083
(dp3084
g7
I1
sg8
I00
sg9
I5
sg10
(lp3085
g1223
ag1356
asg26
I00
sg27
I00
sg28
I4147493
sg20
S'6516.86976166'
p3086
sba(igraph
Edge
p3087
(dp3088
g7
I1
sg8
I00
sg9
I5
sg10
(lp3089
g1230
ag1356
asg26
I00
sg27
I00
sg28
I4147494
sg20
S'6516.88318795'
p3090
sba(igraph
Edge
p3091
(dp3092
g7
I1
sg8
I00
sg9
I5
sg10
(lp3093
g1237
ag1370
asg26
I00
sg27
I00
sg28
I4147495
sg20
S'6516.89670978'
p3094
sba(igraph
Edge
p3095
(dp3096
g7
I1
sg8
I00
sg9
I5
sg10
(lp3097
g1244
ag1370
asg26
I00
sg27
I00
sg28
I4147496
sg20
S'6516.91034168'
p3098
sba(igraph
Edge
p3099
(dp3100
g7
I1
sg8
I00
sg9
I5
sg10
(lp3101
g1251
ag1384
asg26
I00
sg27
I00
sg28
I4147497
sg20
S'6516.92713152'
p3102
sba(igraph
Edge
p3103
(dp3104
g7
I1
sg8
I00
sg9
I5
sg10
(lp3105
g1258
ag1384
asg26
I00
sg27
I00
sg28
I4147498
sg20
S'6516.94061145'
p3106
sba(igraph
Edge
p3107
(dp3108
g7
I1
sg8
I00
sg9
I5
sg10
(lp3109
g1265
ag1398
asg26
I00
sg27
I00
sg28
I4147499
sg20
S'6516.95417686'
p3110
sba(igraph
Edge
p3111
(dp3112
g7
I1
sg8
I00
sg9
I5
sg10
(lp3113
g1272
ag1398
asg26
I00
sg27
I00
sg28
I4147500
sg20
S'6516.96778194'
p3114
sba(igraph
Edge
p3115
(dp3116
g7
I1
sg8
I00
sg9
I5
sg10
(lp3117
g1279
ag1412
asg26
I00
sg27
I00
sg28
I4147501
sg20
S'6516.98135713'
p3118
sba(igraph
Edge
p3119
(dp3120
g7
I1
sg8
I00
sg9
I5
sg10
(lp3121
g1286
ag1412
asg26
I00
sg27
I00
sg28
I4147502
sg20
S'6516.99499909'
p3122
sba(igraph
Edge
p3123
(dp3124
g7
I1
sg8
I00
sg9
I5
sg10
(lp3125
g1293
ag1426
asg26
I00
sg27
I00
sg28
I4147503
sg20
S'6517.00868853'
p3126
sba(igraph
Edge
p3127
(dp3128
g7
I1
sg8
I00
sg9
I5
sg10
(lp3129
g1300
ag1426
asg26
I00
sg27
I00
sg28
I4147504
sg20
S'6517.02232183'
p3130
sba(igraph
Edge
p3131
(dp3132
g7
I1
sg8
I00
sg9
I5
sg10
(lp3133
g1307
ag1440
asg26
I00
sg27
I00
sg28
I4147505
sg20
S'6517.0359515'
p3134
sba(igraph
Edge
p3135
(dp3136
g7
I1
sg8
I00
sg9
I5
sg10
(lp3137
g1314
ag1440
asg26
I00
sg27
I00
sg28
I4147506
sg20
S'6517.04993596'
p3138
sba(igraph
Edge
p3139
(dp3140
g7
I1
sg8
I00
sg9
I5
sg10
(lp3141
g1321
ag1454
asg26
I00
sg27
I00
sg28
I4147507
sg20
S'6517.06350444'
p3142
sba(igraph
Edge
p3143
(dp3144
g7
I1
sg8
I00
sg9
I5
sg10
(lp3145
g1328
ag1454
asg26
I00
sg27
I00
sg28
I4147508
sg20
S'6517.07727211'
p3146
sba(igraph
Edge
p3147
(dp3148
g7
I1
sg8
I00
sg9
I5
sg10
(lp3149
g1335
ag1468
asg26
I00
sg27
I00
sg28
I4147509
sg20
S'6517.09111409'
p3150
sba(igraph
Edge
p3151
(dp3152
g7
I1
sg8
I00
sg9
I5
sg10
(lp3153
g1342
ag1468
asg26
I00
sg27
I00
sg28
I4147510
sg20
S'6517.1049449'
p3154
sbasS'vertices'
p3155
(lp3156
g12
ag23
ag33
ag40
ag47
ag54
ag61
ag68
ag75
ag82
ag89
ag96
ag103
ag110
ag117
ag124
ag131
ag138
ag145
ag156
ag159
ag166
ag173
ag180
ag187
ag194
ag201
ag208
ag215
ag222
ag229
ag236
ag243
ag250
ag257
ag264
ag271
ag278
ag289
ag292
ag299
ag306
ag313
ag320
ag327
ag334
ag341
ag348
ag355
ag362
ag369
ag376
ag383
ag390
ag397
ag404
ag411
ag422
ag425
ag432
ag439
ag446
ag453
ag460
ag467
ag474
ag481
ag488
ag495
ag502
ag509
ag516
ag523
ag530
ag537
ag544
ag555
ag558
ag565
ag572
ag579
ag586
ag593
ag600
ag607
ag614
ag621
ag628
ag635
ag642
ag649
ag656
ag663
ag670
ag677
ag688
ag691
ag698
ag705
ag712
ag719
ag726
ag733
ag740
ag747
ag754
ag761
ag768
ag775
ag782
ag789
ag796
ag803
ag810
ag821
ag824
ag831
ag838
ag845
ag852
ag859
ag866
ag873
ag880
ag887
ag894
ag901
ag908
ag915
ag922
ag929
ag936
ag943
ag954
ag957
ag964
ag971
ag978
ag985
ag992
ag999
ag1006
ag1013
ag1020
ag1027
ag1034
ag1041
ag1048
ag1055
ag1062
ag1069
ag1076
ag1087
ag1090
ag1097
ag1104
ag1111
ag1118
ag1125
ag1132
ag1139
ag1146
ag1153
ag1160
ag1167
ag1174
ag1181
ag1188
ag1195
ag1202
ag1209
ag1220
ag1223
ag1230
ag1237
ag1244
ag1251
ag1258
ag1265
ag1272
ag1279
ag1286
ag1293
ag1300
ag1307
ag1314
ag1321
ag1328
ag1335
ag1342
ag1353
ag1356
ag1363
ag1370
ag1377
ag1384
ag1391
ag1398
ag1405
ag1412
ag1419
ag1426
ag1433
ag1440
ag1447
ag1454
ag1461
ag1468
ag1475
asS'tags'
p3157
(lp3158
sb.