(igraph
Graph
p0
(dp1
S'labelingConstraints'
p2
I-1
sS'edges'
p3
(lp4
(igraph
Edge
p5
(dp6
S'direction'
p7
I1
sS'selected'
p8
I00
sS'height'
p9
I5
sS'vs'
p10
(lp11
(igraph
Vertex
p12
(dp13
S'y'
p14
F-333.78494623655916
sS'x'
p15
F-334.5
sS'circle'
p16
I4999749
sg8
I00
sS'id'
p17
S'17365.0479536'
p18
sS'label'
p19
S'NULL'
p20
sba(igraph
Vertex
p21
(dp22
g14
F-333.78494623655916
sg15
F-297.33333333333331
sg16
I4999750
sg8
I00
sg17
S'17365.0479745'
p23
sg19
g20
sbasS'wrap'
p24
I00
sS'curved'
p25
I00
sS'line'
p26
I4998722
sg17
S'17365.6927769'
p27
sba(igraph
Edge
p28
(dp29
g7
I1
sg8
I00
sg9
I5
sg10
(lp30
g21
a(igraph
Vertex
p31
(dp32
g14
F-333.78494623655916
sg15
F-260.16666666666663
sg16
I4999751
sg8
I00
sg17
S'17365.0479955'
p33
sg19
g20
sbasg24
I00
sg25
I00
sg26
I4998723
sg17
S'17365.6930051'
p34
sba(igraph
Edge
p35
(dp36
g7
I1
sg8
I00
sg9
I5
sg10
(lp37
g31
a(igraph
Vertex
p38
(dp39
g14
F-333.78494623655916
sg15
F-223.00000000000003
sg16
I4999752
sg8
I00
sg17
S'17365.0480215'
p40
sg19
g20
sbasg24
I00
sg25
I00
sg26
I4998724
sg17
S'17365.6930895'
p41
sba(igraph
Edge
p42
(dp43
g7
I1
sg8
I00
sg9
I5
sg10
(lp44
g38
a(igraph
Vertex
p45
(dp46
g14
F-333.78494623655916
sg15
F-185.83333333333334
sg16
I4999753
sg8
I00
sg17
S'17365.0480536'
p47
sg19
g20
sbasg24
I00
sg25
I00
sg26
I4998725
sg17
S'17365.6931937'
p48
sba(igraph
Edge
p49
(dp50
g7
I1
sg8
I00
sg9
I5
sg10
(lp51
g45
a(igraph
Vertex
p52
(dp53
g14
F-333.78494623655916
sg15
F-148.66666666666674
sg16
I4999754
sg8
I00
sg17
S'17365.0480933'
p54
sg19
g20
sbasg24
I00
sg25
I00
sg26
I4998726
sg17
S'17365.6933208'
p55
sba(igraph
Edge
p56
(dp57
g7
I1
sg8
I00
sg9
I5
sg10
(lp58
g52
a(igraph
Vertex
p59
(dp60
g14
F-333.78494623655916
sg15
F-111.50000000000006
sg16
I4999755
sg8
I00
sg17
S'17365.0481419'
p61
sg19
g20
sbasg24
I00
sg25
I00
sg26
I4998727
sg17
S'17365.6935323'
p62
sba(igraph
Edge
p63
(dp64
g7
I1
sg8
I00
sg9
I5
sg10
(lp65
g59
a(igraph
Vertex
p66
(dp67
g14
F-333.78494623655916
sg15
F-74.333333333333371
sg16
I4999756
sg8
I00
sg17
S'17365.0481975'
p68
sg19
g20
sbasg24
I00
sg25
I00
sg26
I4998728
sg17
S'17365.6937066'
p69
sba(igraph
Edge
p70
(dp71
g7
I1
sg8
I00
sg9
I5
sg10
(lp72
g66
a(igraph
Vertex
p73
(dp74
g14
F-333.78494623655916
sg15
F-37.166666666666742
sg16
I4999757
sg8
I00
sg17
S'17365.0482609'
p75
sg19
g20
sbasg24
I00
sg25
I00
sg26
I4998729
sg17
S'17365.6939019'
p76
sba(igraph
Edge
p77
(dp78
g7
I1
sg8
I00
sg9
I5
sg10
(lp79
g73
a(igraph
Vertex
p80
(dp81
g14
F-333.78494623655916
sg15
F0.0
sg16
I4999758
sg8
I00
sg17
S'17365.0483324'
p82
sg19
g20
sbasg24
I00
sg25
I00
sg26
I4998730
sg17
S'17365.6941181'
p83
sba(igraph
Edge
p84
(dp85
g7
I1
sg8
I00
sg9
I5
sg10
(lp86
g80
a(igraph
Vertex
p87
(dp88
g14
F-333.78494623655916
sg15
F37.166666666666686
sg16
I4999759
sg8
I00
sg17
S'17365.0484109'
p89
sg19
g20
sbasg24
I00
sg25
I00
sg26
I4998731
sg17
S'17365.6943581'
p90
sba(igraph
Edge
p91
(dp92
g7
I1
sg8
I00
sg9
I5
sg10
(lp93
g87
a(igraph
Vertex
p94
(dp95
g14
F-333.78494623655916
sg15
F74.333333333333371
sg16
I4999760
sg8
I00
sg17
S'17365.0484972'
p96
sg19
g20
sbasg24
I00
sg25
I00
sg26
I4998732
sg17
S'17365.6946193'
p97
sba(igraph
Edge
p98
(dp99
g7
I1
sg8
I00
sg9
I5
sg10
(lp100
g94
a(igraph
Vertex
p101
(dp102
g14
F-333.78494623655916
sg15
F111.5
sg16
I4999761
sg8
I00
sg17
S'17365.0485917'
p103
sg19
g20
sbasg24
I00
sg25
I00
sg26
I4998733
sg17
S'17365.6949037'
p104
sba(igraph
Edge
p105
(dp106
g7
I1
sg8
I00
sg9
I5
sg10
(lp107
g101
a(igraph
Vertex
p108
(dp109
g14
F-333.78494623655916
sg15
F148.66666666666669
sg16
I4999762
sg8
I00
sg17
S'17365.0486939'
p110
sg19
g20
sbasg24
I00
sg25
I00
sg26
I4998734
sg17
S'17365.6952093'
p111
sba(igraph
Edge
p112
(dp113
g7
I1
sg8
I00
sg9
I5
sg10
(lp114
g108
a(igraph
Vertex
p115
(dp116
g14
F-333.78494623655916
sg15
F185.83333333333337
sg16
I4999763
sg8
I00
sg17
S'17365.0488037'
p117
sg19
g20
sbasg24
I00
sg25
I00
sg26
I4998735
sg17
S'17365.6955367'
p118
sba(igraph
Edge
p119
(dp120
g7
I1
sg8
I00
sg9
I5
sg10
(lp121
g115
a(igraph
Vertex
p122
(dp123
g14
F-333.78494623655916
sg15
F223.0
sg16
I4999764
sg8
I00
sg17
S'17365.0489219'
p124
sg19
g20
sbasg24
I00
sg25
I00
sg26
I4998736
sg17
S'17365.6958845'
p125
sba(igraph
Edge
p126
(dp127
g7
I1
sg8
I00
sg9
I5
sg10
(lp128
g122
a(igraph
Vertex
p129
(dp130
g14
F-333.78494623655916
sg15
F260.16666666666663
sg16
I4999766
sg8
I01
sg17
S'17365.0490467'
p131
sg19
I0
sbasg24
I00
sg25
I00
sg26
I4998737
sg17
S'17365.6962564'
p132
sba(igraph
Edge
p133
(dp134
g7
I1
sg8
I00
sg9
I5
sg10
(lp135
g129
a(igraph
Vertex
p136
(dp137
g14
F-333.78494623655916
sg15
F297.33333333333337
sg16
I4999768
sg8
I00
sg17
S'17365.0491797'
p138
sg19
g20
sbasg24
I00
sg25
I00
sg26
I4998738
sg17
S'17365.6966531'
p139
sba(igraph
Edge
p140
(dp141
g7
I1
sg8
I00
sg9
I5
sg10
(lp142
g136
a(igraph
Vertex
p143
(dp144
g14
F-333.78494623655916
sg15
F334.5
sg16
I4999769
sg8
I00
sg17
S'17365.0493208'
p145
sg19
g20
sbasg24
I00
sg25
I00
sg26
I4998739
sg17
S'17365.6970721'
p146
sba(igraph
Edge
p147
(dp148
g7
I1
sg8
I00
sg9
I5
sg10
(lp149
g143
ag12
asg24
I00
sg25
I00
sg26
I4998740
sg17
S'17365.6975241'
p150
sba(igraph
Edge
p151
(dp152
g7
I1
sg8
I00
sg9
I5
sg10
(lp153
(igraph
Vertex
p154
(dp155
g14
F-294.51612903225811
sg15
F-334.5
sg16
I4999770
sg8
I00
sg17
S'17365.0494711'
p156
sg19
g20
sba(igraph
Vertex
p157
(dp158
g14
F-294.51612903225811
sg15
F-297.33333333333331
sg16
I4999771
sg8
I00
sg17
S'17365.0496289'
p159
sg19
g20
sbasg24
I00
sg25
I00
sg26
I4998741
sg17
S'17365.6979884'
p160
sba(igraph
Edge
p161
(dp162
g7
I1
sg8
I00
sg9
I5
sg10
(lp163
g157
a(igraph
Vertex
p164
(dp165
g14
F-294.51612903225811
sg15
F-260.16666666666663
sg16
I4999772
sg8
I00
sg17
S'17365.0497943'
p166
sg19
g20
sbasg24
I00
sg25
I00
sg26
I4998742
sg17
S'17365.6985002'
p167
sba(igraph
Edge
p168
(dp169
g7
I1
sg8
I00
sg9
I5
sg10
(lp170
g164
a(igraph
Vertex
p171
(dp172
g14
F-294.51612903225811
sg15
F-223.00000000000003
sg16
I4999773
sg8
I00
sg17
S'17365.0499966'
p173
sg19
g20
sbasg24
I00
sg25
I00
sg26
I4998743
sg17
S'17365.699005'
p174
sba(igraph
Edge
p175
(dp176
g7
I1
sg8
I00
sg9
I5
sg10
(lp177
g171
a(igraph
Vertex
p178
(dp179
g14
F-294.51612903225811
sg15
F-185.83333333333334
sg16
I4999774
sg8
I00
sg17
S'17365.0501787'
p180
sg19
g20
sbasg24
I00
sg25
I00
sg26
I4998744
sg17
S'17365.6997783'
p181
sba(igraph
Edge
p182
(dp183
g7
I1
sg8
I00
sg9
I5
sg10
(lp184
g178
a(igraph
Vertex
p185
(dp186
g14
F-294.51612903225811
sg15
F-148.66666666666674
sg16
I4999775
sg8
I00
sg17
S'17365.0503695'
p187
sg19
g20
sbasg24
I00
sg25
I00
sg26
I4998745
sg17
S'17365.7003161'
p188
sba(igraph
Edge
p189
(dp190
g7
I1
sg8
I00
sg9
I5
sg10
(lp191
g185
a(igraph
Vertex
p192
(dp193
g14
F-294.51612903225811
sg15
F-111.50000000000006
sg16
I4999776
sg8
I00
sg17
S'17365.0505701'
p194
sg19
g20
sbasg24
I00
sg25
I00
sg26
I4998746
sg17
S'17365.7008829'
p195
sba(igraph
Edge
p196
(dp197
g7
I1
sg8
I00
sg9
I5
sg10
(lp198
g192
a(igraph
Vertex
p199
(dp200
g14
F-294.51612903225811
sg15
F-74.333333333333371
sg16
I4999777
sg8
I00
sg17
S'17365.050776'
p201
sg19
g20
sbasg24
I00
sg25
I00
sg26
I4998747
sg17
S'17365.7015498'
p202
sba(igraph
Edge
p203
(dp204
g7
I1
sg8
I00
sg9
I5
sg10
(lp205
g199
a(igraph
Vertex
p206
(dp207
g14
F-294.51612903225811
sg15
F-37.166666666666742
sg16
I4999778
sg8
I00
sg17
S'17365.0509886'
p208
sg19
g20
sbasg24
I00
sg25
I00
sg26
I4998748
sg17
S'17365.7021733'
p209
sba(igraph
Edge
p210
(dp211
g7
I1
sg8
I00
sg9
I5
sg10
(lp212
g206
a(igraph
Vertex
p213
(dp214
g14
F-294.51612903225811
sg15
F0.0
sg16
I4999779
sg8
I00
sg17
S'17365.0512093'
p215
sg19
g20
sbasg24
I00
sg25
I00
sg26
I4998749
sg17
S'17365.7028117'
p216
sba(igraph
Edge
p217
(dp218
g7
I1
sg8
I00
sg9
I5
sg10
(lp219
g213
a(igraph
Vertex
p220
(dp221
g14
F-294.51612903225811
sg15
F37.166666666666686
sg16
I4999780
sg8
I00
sg17
S'17365.051437'
p222
sg19
g20
sbasg24
I00
sg25
I00
sg26
I4998750
sg17
S'17365.7034704'
p223
sba(igraph
Edge
p224
(dp225
g7
I1
sg8
I00
sg9
I5
sg10
(lp226
g220
a(igraph
Vertex
p227
(dp228
g14
F-294.51612903225811
sg15
F74.333333333333371
sg16
I4999781
sg8
I00
sg17
S'17365.0516747'
p229
sg19
g20
sbasg24
I00
sg25
I00
sg26
I4998751
sg17
S'17365.7049013'
p230
sba(igraph
Edge
p231
(dp232
g7
I1
sg8
I00
sg9
I5
sg10
(lp233
g227
a(igraph
Vertex
p234
(dp235
g14
F-294.51612903225811
sg15
F111.5
sg16
I4999782
sg8
I00
sg17
S'17365.05192'
p236
sg19
g20
sbasg24
I00
sg25
I00
sg26
I4998752
sg17
S'17365.7058059'
p237
sba(igraph
Edge
p238
(dp239
g7
I1
sg8
I00
sg9
I5
sg10
(lp240
g234
a(igraph
Vertex
p241
(dp242
g14
F-294.51612903225811
sg15
F148.66666666666669
sg16
I4999783
sg8
I00
sg17
S'17365.0521739'
p243
sg19
g20
sbasg24
I00
sg25
I00
sg26
I4998753
sg17
S'17365.7065887'
p244
sba(igraph
Edge
p245
(dp246
g7
I1
sg8
I00
sg9
I5
sg10
(lp247
g241
a(igraph
Vertex
p248
(dp249
g14
F-294.51612903225811
sg15
F185.83333333333337
sg16
I4999784
sg8
I00
sg17
S'17365.0524338'
p250
sg19
g20
sbasg24
I00
sg25
I00
sg26
I4998754
sg17
S'17365.7075363'
p251
sba(igraph
Edge
p252
(dp253
g7
I1
sg8
I00
sg9
I5
sg10
(lp254
g248
a(igraph
Vertex
p255
(dp256
g14
F-294.51612903225811
sg15
F223.0
sg16
I4999785
sg8
I00
sg17
S'17365.0527019'
p257
sg19
g20
sbasg24
I00
sg25
I00
sg26
I4998755
sg17
S'17365.7089594'
p258
sba(igraph
Edge
p259
(dp260
g7
I1
sg8
I00
sg9
I5
sg10
(lp261
g255
a(igraph
Vertex
p262
(dp263
g14
F-294.51612903225811
sg15
F260.16666666666663
sg16
I4999786
sg8
I00
sg17
S'17365.0529824'
p264
sg19
g20
sbasg24
I00
sg25
I00
sg26
I4998756
sg17
S'17365.7099115'
p265
sba(igraph
Edge
p266
(dp267
g7
I1
sg8
I00
sg9
I5
sg10
(lp268
g262
a(igraph
Vertex
p269
(dp270
g14
F-294.51612903225811
sg15
F297.33333333333337
sg16
I4999788
sg8
I01
sg17
S'17365.0532682'
p271
sg19
I0
sbasg24
I00
sg25
I00
sg26
I4998757
sg17
S'17365.7109107'
p272
sba(igraph
Edge
p273
(dp274
g7
I1
sg8
I00
sg9
I5
sg10
(lp275
g269
a(igraph
Vertex
p276
(dp277
g14
F-294.51612903225811
sg15
F334.5
sg16
I4999790
sg8
I00
sg17
S'17365.0535638'
p278
sg19
g20
sbasg24
I00
sg25
I00
sg26
I4998758
sg17
S'17365.7121288'
p279
sba(igraph
Edge
p280
(dp281
g7
I1
sg8
I00
sg9
I5
sg10
(lp282
g276
ag154
asg24
I00
sg25
I00
sg26
I4998759
sg17
S'17365.7131202'
p283
sba(igraph
Edge
p284
(dp285
g7
I1
sg8
I00
sg9
I5
sg10
(lp286
(igraph
Vertex
p287
(dp288
g14
F-255.24731182795705
sg15
F-334.5
sg16
I4999791
sg8
I00
sg17
S'17365.0538845'
p289
sg19
g20
sba(igraph
Vertex
p290
(dp291
g14
F-255.24731182795705
sg15
F-297.33333333333331
sg16
I4999792
sg8
I00
sg17
S'17365.0541943'
p292
sg19
g20
sbasg24
I00
sg25
I00
sg26
I4998760
sg17
S'17365.7141947'
p293
sba(igraph
Edge
p294
(dp295
g7
I1
sg8
I00
sg9
I5
sg10
(lp296
g290
a(igraph
Vertex
p297
(dp298
g14
F-255.24731182795705
sg15
F-260.16666666666663
sg16
I4999793
sg8
I00
sg17
S'17365.0545349'
p299
sg19
g20
sbasg24
I00
sg25
I00
sg26
I4998761
sg17
S'17365.7152613'
p300
sba(igraph
Edge
p301
(dp302
g7
I1
sg8
I00
sg9
I5
sg10
(lp303
g297
a(igraph
Vertex
p304
(dp305
g14
F-255.24731182795705
sg15
F-223.00000000000003
sg16
I4999794
sg8
I00
sg17
S'17365.0548659'
p306
sg19
g20
sbasg24
I00
sg25
I00
sg26
I4998762
sg17
S'17365.7163025'
p307
sba(igraph
Edge
p308
(dp309
g7
I1
sg8
I00
sg9
I5
sg10
(lp310
g304
a(igraph
Vertex
p311
(dp312
g14
F-255.24731182795705
sg15
F-185.83333333333334
sg16
I4999795
sg8
I00
sg17
S'17365.055202'
p313
sg19
g20
sbasg24
I00
sg25
I00
sg26
I4998763
sg17
S'17365.7173968'
p314
sba(igraph
Edge
p315
(dp316
g7
I1
sg8
I00
sg9
I5
sg10
(lp317
g311
a(igraph
Vertex
p318
(dp319
g14
F-255.24731182795705
sg15
F-148.66666666666674
sg16
I4999796
sg8
I00
sg17
S'17365.0555473'
p320
sg19
g20
sbasg24
I00
sg25
I00
sg26
I4998764
sg17
S'17365.7185734'
p321
sba(igraph
Edge
p322
(dp323
g7
I1
sg8
I00
sg9
I5
sg10
(lp324
g318
a(igraph
Vertex
p325
(dp326
g14
F-255.24731182795705
sg15
F-111.50000000000006
sg16
I4999797
sg8
I00
sg17
S'17365.0558973'
p327
sg19
g20
sbasg24
I00
sg25
I00
sg26
I4998765
sg17
S'17365.7196912'
p328
sba(igraph
Edge
p329
(dp330
g7
I1
sg8
I00
sg9
I5
sg10
(lp331
g325
a(igraph
Vertex
p332
(dp333
g14
F-255.24731182795705
sg15
F-74.333333333333371
sg16
I4999798
sg8
I00
sg17
S'17365.0562982'
p334
sg19
g20
sbasg24
I00
sg25
I00
sg26
I4998766
sg17
S'17365.720893'
p335
sba(igraph
Edge
p336
(dp337
g7
I1
sg8
I00
sg9
I5
sg10
(lp338
g332
a(igraph
Vertex
p339
(dp340
g14
F-255.24731182795705
sg15
F-37.166666666666742
sg16
I4999799
sg8
I00
sg17
S'17365.0566656'
p341
sg19
g20
sbasg24
I00
sg25
I00
sg26
I4998767
sg17
S'17365.722087'
p342
sba(igraph
Edge
p343
(dp344
g7
I1
sg8
I00
sg9
I5
sg10
(lp345
g339
a(igraph
Vertex
p346
(dp347
g14
F-255.24731182795705
sg15
F0.0
sg16
I4999800
sg8
I00
sg17
S'17365.057045'
p348
sg19
g20
sbasg24
I00
sg25
I00
sg26
I4998768
sg17
S'17365.723171'
p349
sba(igraph
Edge
p350
(dp351
g7
I1
sg8
I00
sg9
I5
sg10
(lp352
g346
a(igraph
Vertex
p353
(dp354
g14
F-255.24731182795705
sg15
F37.166666666666686
sg16
I4999801
sg8
I00
sg17
S'17365.0574288'
p355
sg19
g20
sbasg24
I00
sg25
I00
sg26
I4998769
sg17
S'17365.7244382'
p356
sba(igraph
Edge
p357
(dp358
g7
I1
sg8
I00
sg9
I5
sg10
(lp359
g353
a(igraph
Vertex
p360
(dp361
g14
F-255.24731182795705
sg15
F74.333333333333371
sg16
I4999802
sg8
I00
sg17
S'17365.0578565'
p362
sg19
g20
sbasg24
I00
sg25
I00
sg26
I4998770
sg17
S'17365.7258853'
p363
sba(igraph
Edge
p364
(dp365
g7
I1
sg8
I00
sg9
I5
sg10
(lp366
g360
a(igraph
Vertex
p367
(dp368
g14
F-255.24731182795705
sg15
F111.5
sg16
I4999803
sg8
I00
sg17
S'17365.0582571'
p369
sg19
g20
sbasg24
I00
sg25
I00
sg26
I4998771
sg17
S'17365.7272617'
p370
sba(igraph
Edge
p371
(dp372
g7
I1
sg8
I00
sg9
I5
sg10
(lp373
g367
a(igraph
Vertex
p374
(dp375
g14
F-255.24731182795705
sg15
F148.66666666666669
sg16
I4999804
sg8
I00
sg17
S'17365.0586675'
p376
sg19
g20
sbasg24
I00
sg25
I00
sg26
I4998772
sg17
S'17365.7285739'
p377
sba(igraph
Edge
p378
(dp379
g7
I1
sg8
I00
sg9
I5
sg10
(lp380
g374
a(igraph
Vertex
p381
(dp382
g14
F-255.24731182795705
sg15
F185.83333333333337
sg16
I4999805
sg8
I00
sg17
S'17365.0590824'
p383
sg19
g20
sbasg24
I00
sg25
I00
sg26
I4998773
sg17
S'17365.7298587'
p384
sba(igraph
Edge
p385
(dp386
g7
I1
sg8
I00
sg9
I5
sg10
(lp387
g381
a(igraph
Vertex
p388
(dp389
g14
F-255.24731182795705
sg15
F223.0
sg16
I4999807
sg8
I01
sg17
S'17365.0595056'
p390
sg19
I0
sbasg24
I00
sg25
I00
sg26
I4998774
sg17
S'17365.7312424'
p391
sba(igraph
Edge
p392
(dp393
g7
I1
sg8
I00
sg9
I5
sg10
(lp394
g388
a(igraph
Vertex
p395
(dp396
g14
F-255.24731182795705
sg15
F260.16666666666663
sg16
I4999809
sg8
I00
sg17
S'17365.0599708'
p397
sg19
g20
sbasg24
I00
sg25
I00
sg26
I4998775
sg17
S'17365.7326931'
p398
sba(igraph
Edge
p399
(dp400
g7
I1
sg8
I00
sg9
I5
sg10
(lp401
g395
a(igraph
Vertex
p402
(dp403
g14
F-255.24731182795705
sg15
F297.33333333333337
sg16
I4999810
sg8
I00
sg17
S'17365.0604169'
p404
sg19
g20
sbasg24
I00
sg25
I00
sg26
I4998776
sg17
S'17365.7341511'
p405
sba(igraph
Edge
p406
(dp407
g7
I1
sg8
I00
sg9
I5
sg10
(lp408
g402
a(igraph
Vertex
p409
(dp410
g14
F-255.24731182795705
sg15
F334.5
sg16
I4999811
sg8
I00
sg17
S'17365.0608695'
p411
sg19
g20
sbasg24
I00
sg25
I00
sg26
I4998777
sg17
S'17365.7360022'
p412
sba(igraph
Edge
p413
(dp414
g7
I1
sg8
I00
sg9
I5
sg10
(lp415
g409
ag287
asg24
I00
sg25
I00
sg26
I4998778
sg17
S'17365.737458'
p416
sba(igraph
Edge
p417
(dp418
g7
I1
sg8
I00
sg9
I5
sg10
(lp419
(igraph
Vertex
p420
(dp421
g14
F-215.97849462365593
sg15
F-334.5
sg16
I4999812
sg8
I00
sg17
S'17365.0613268'
p422
sg19
g20
sba(igraph
Vertex
p423
(dp424
g14
F-215.97849462365593
sg15
F-297.33333333333331
sg16
I4999813
sg8
I00
sg17
S'17365.0618227'
p425
sg19
g20
sbasg24
I00
sg25
I00
sg26
I4998779
sg17
S'17365.7389587'
p426
sba(igraph
Edge
p427
(dp428
g7
I1
sg8
I00
sg9
I5
sg10
(lp429
g423
a(igraph
Vertex
p430
(dp431
g14
F-215.97849462365593
sg15
F-260.16666666666663
sg16
I4999814
sg8
I00
sg17
S'17365.062306'
p432
sg19
g20
sbasg24
I00
sg25
I00
sg26
I4998780
sg17
S'17365.7405899'
p433
sba(igraph
Edge
p434
(dp435
g7
I1
sg8
I00
sg9
I5
sg10
(lp436
g430
a(igraph
Vertex
p437
(dp438
g14
F-215.97849462365593
sg15
F-223.00000000000003
sg16
I4999815
sg8
I00
sg17
S'17365.0627895'
p439
sg19
g20
sbasg24
I00
sg25
I00
sg26
I4998781
sg17
S'17365.7421253'
p440
sba(igraph
Edge
p441
(dp442
g7
I1
sg8
I00
sg9
I5
sg10
(lp443
g437
a(igraph
Vertex
p444
(dp445
g14
F-215.97849462365593
sg15
F-185.83333333333334
sg16
I4999816
sg8
I00
sg17
S'17365.063277'
p446
sg19
g20
sbasg24
I00
sg25
I00
sg26
I4998782
sg17
S'17365.7440476'
p447
sba(igraph
Edge
p448
(dp449
g7
I1
sg8
I00
sg9
I5
sg10
(lp450
g444
a(igraph
Vertex
p451
(dp452
g14
F-215.97849462365593
sg15
F-148.66666666666674
sg16
I4999817
sg8
I00
sg17
S'17365.0637978'
p453
sg19
g20
sbasg24
I00
sg25
I00
sg26
I4998783
sg17
S'17365.7457948'
p454
sba(igraph
Edge
p455
(dp456
g7
I1
sg8
I00
sg9
I5
sg10
(lp457
g451
a(igraph
Vertex
p458
(dp459
g14
F-215.97849462365593
sg15
F-111.50000000000006
sg16
I4999818
sg8
I00
sg17
S'17365.0643029'
p460
sg19
g20
sbasg24
I00
sg25
I00
sg26
I4998784
sg17
S'17365.7474226'
p461
sba(igraph
Edge
p462
(dp463
g7
I1
sg8
I00
sg9
I5
sg10
(lp464
g458
a(igraph
Vertex
p465
(dp466
g14
F-215.97849462365593
sg15
F-74.333333333333371
sg16
I4999819
sg8
I00
sg17
S'17365.064818'
p467
sg19
g20
sbasg24
I00
sg25
I00
sg26
I4998785
sg17
S'17365.7490902'
p468
sba(igraph
Edge
p469
(dp470
g7
I1
sg8
I00
sg9
I5
sg10
(lp471
g465
a(igraph
Vertex
p472
(dp473
g14
F-215.97849462365593
sg15
F-37.166666666666742
sg16
I4999820
sg8
I00
sg17
S'17365.0653407'
p474
sg19
g20
sbasg24
I00
sg25
I00
sg26
I4998786
sg17
S'17365.7507974'
p475
sba(igraph
Edge
p476
(dp477
g7
I1
sg8
I00
sg9
I5
sg10
(lp478
g472
a(igraph
Vertex
p479
(dp480
g14
F-215.97849462365593
sg15
F0.0
sg16
I4999821
sg8
I00
sg17
S'17365.0659028'
p481
sg19
g20
sbasg24
I00
sg25
I00
sg26
I4998787
sg17
S'17365.7525468'
p482
sba(igraph
Edge
p483
(dp484
g7
I1
sg8
I00
sg9
I5
sg10
(lp485
g479
a(igraph
Vertex
p486
(dp487
g14
F-215.97849462365593
sg15
F37.166666666666686
sg16
I4999822
sg8
I00
sg17
S'17365.0664473'
p488
sg19
g20
sbasg24
I00
sg25
I00
sg26
I4998788
sg17
S'17365.7545741'
p489
sba(igraph
Edge
p490
(dp491
g7
I1
sg8
I00
sg9
I5
sg10
(lp492
g486
a(igraph
Vertex
p493
(dp494
g14
F-215.97849462365593
sg15
F74.333333333333371
sg16
I4999823
sg8
I00
sg17
S'17365.0669968'
p495
sg19
g20
sbasg24
I00
sg25
I00
sg26
I4998789
sg17
S'17365.7561802'
p496
sba(igraph
Edge
p497
(dp498
g7
I1
sg8
I00
sg9
I5
sg10
(lp499
g493
a(igraph
Vertex
p500
(dp501
g14
F-215.97849462365593
sg15
F111.5
sg16
I4999824
sg8
I00
sg17
S'17365.0676653'
p502
sg19
g20
sbasg24
I00
sg25
I00
sg26
I4998790
sg17
S'17365.757917'
p503
sba(igraph
Edge
p504
(dp505
g7
I1
sg8
I00
sg9
I5
sg10
(lp506
g500
a(igraph
Vertex
p507
(dp508
g14
F-215.97849462365593
sg15
F148.66666666666669
sg16
I4999826
sg8
I01
sg17
S'17365.0682522'
p509
sg19
I0
sbasg24
I00
sg25
I00
sg26
I4998791
sg17
S'17365.7596127'
p510
sba(igraph
Edge
p511
(dp512
g7
I1
sg8
I00
sg9
I5
sg10
(lp513
g507
a(igraph
Vertex
p514
(dp515
g14
F-215.97849462365593
sg15
F185.83333333333337
sg16
I4999828
sg8
I00
sg17
S'17365.0688266'
p516
sg19
g20
sbasg24
I00
sg25
I00
sg26
I4998792
sg17
S'17365.7613132'
p517
sba(igraph
Edge
p518
(dp519
g7
I1
sg8
I00
sg9
I5
sg10
(lp520
g514
a(igraph
Vertex
p521
(dp522
g14
F-215.97849462365593
sg15
F223.0
sg16
I4999829
sg8
I00
sg17
S'17365.0694259'
p523
sg19
g20
sbasg24
I00
sg25
I00
sg26
I4998793
sg17
S'17365.7629743'
p524
sba(igraph
Edge
p525
(dp526
g7
I1
sg8
I00
sg9
I5
sg10
(lp527
g521
a(igraph
Vertex
p528
(dp529
g14
F-215.97849462365593
sg15
F260.16666666666663
sg16
I4999830
sg8
I00
sg17
S'17365.0700178'
p530
sg19
g20
sbasg24
I00
sg25
I00
sg26
I4998794
sg17
S'17365.7648355'
p531
sba(igraph
Edge
p532
(dp533
g7
I1
sg8
I00
sg9
I5
sg10
(lp534
g528
a(igraph
Vertex
p535
(dp536
g14
F-215.97849462365593
sg15
F297.33333333333337
sg16
I4999831
sg8
I00
sg17
S'17365.0706176'
p537
sg19
g20
sbasg24
I00
sg25
I00
sg26
I4998795
sg17
S'17365.766793'
p538
sba(igraph
Edge
p539
(dp540
g7
I1
sg8
I00
sg9
I5
sg10
(lp541
g535
a(igraph
Vertex
p542
(dp543
g14
F-215.97849462365593
sg15
F334.5
sg16
I4999832
sg8
I00
sg17
S'17365.0712244'
p544
sg19
g20
sbasg24
I00
sg25
I00
sg26
I4998796
sg17
S'17365.7684938'
p545
sba(igraph
Edge
p546
(dp547
g7
I1
sg8
I00
sg9
I5
sg10
(lp548
g542
ag420
asg24
I00
sg25
I00
sg26
I4998797
sg17
S'17365.7703761'
p549
sba(igraph
Edge
p550
(dp551
g7
I1
sg8
I00
sg9
I5
sg10
(lp552
(igraph
Vertex
p553
(dp554
g14
F-176.70967741935485
sg15
F-334.5
sg16
I4999833
sg8
I00
sg17
S'17365.0718717'
p555
sg19
g20
sba(igraph
Vertex
p556
(dp557
g14
F-176.70967741935485
sg15
F-297.33333333333331
sg16
I4999834
sg8
I00
sg17
S'17365.0725321'
p558
sg19
g20
sbasg24
I00
sg25
I00
sg26
I4998798
sg17
S'17365.772209'
p559
sba(igraph
Edge
p560
(dp561
g7
I1
sg8
I00
sg9
I5
sg10
(lp562
g556
a(igraph
Vertex
p563
(dp564
g14
F-176.70967741935485
sg15
F-260.16666666666663
sg16
I4999835
sg8
I00
sg17
S'17365.0731629'
p565
sg19
g20
sbasg24
I00
sg25
I00
sg26
I4998799
sg17
S'17365.7740629'
p566
sba(igraph
Edge
p567
(dp568
g7
I1
sg8
I00
sg9
I5
sg10
(lp569
g563
a(igraph
Vertex
p570
(dp571
g14
F-176.70967741935485
sg15
F-223.00000000000003
sg16
I4999836
sg8
I00
sg17
S'17365.0738192'
p572
sg19
g20
sbasg24
I00
sg25
I00
sg26
I4998800
sg17
S'17365.7779888'
p573
sba(igraph
Edge
p574
(dp575
g7
I1
sg8
I00
sg9
I5
sg10
(lp576
g570
a(igraph
Vertex
p577
(dp578
g14
F-176.70967741935485
sg15
F-185.83333333333334
sg16
I4999837
sg8
I00
sg17
S'17365.074491'
p579
sg19
g20
sbasg24
I00
sg25
I00
sg26
I4998801
sg17
S'17365.7802872'
p580
sba(igraph
Edge
p581
(dp582
g7
I1
sg8
I00
sg9
I5
sg10
(lp583
g577
a(igraph
Vertex
p584
(dp585
g14
F-176.70967741935485
sg15
F-148.66666666666674
sg16
I4999838
sg8
I00
sg17
S'17365.0751464'
p586
sg19
g20
sbasg24
I00
sg25
I00
sg26
I4998802
sg17
S'17365.7824101'
p587
sba(igraph
Edge
p588
(dp589
g7
I1
sg8
I00
sg9
I5
sg10
(lp590
g584
a(igraph
Vertex
p591
(dp592
g14
F-176.70967741935485
sg15
F-111.50000000000006
sg16
I4999839
sg8
I00
sg17
S'17365.0758119'
p593
sg19
g20
sbasg24
I00
sg25
I00
sg26
I4998803
sg17
S'17365.7843466'
p594
sba(igraph
Edge
p595
(dp596
g7
I1
sg8
I00
sg9
I5
sg10
(lp597
g591
a(igraph
Vertex
p598
(dp599
g14
F-176.70967741935485
sg15
F-74.333333333333371
sg16
I4999840
sg8
I00
sg17
S'17365.0764854'
p600
sg19
g20
sbasg24
I00
sg25
I00
sg26
I4998804
sg17
S'17365.7863522'
p601
sba(igraph
Edge
p602
(dp603
g7
I1
sg8
I00
sg9
I5
sg10
(lp604
g598
a(igraph
Vertex
p605
(dp606
g14
F-176.70967741935485
sg15
F-37.166666666666742
sg16
I4999841
sg8
I00
sg17
S'17365.0771665'
p607
sg19
g20
sbasg24
I00
sg25
I00
sg26
I4998805
sg17
S'17365.7883477'
p608
sba(igraph
Edge
p609
(dp610
g7
I1
sg8
I00
sg9
I5
sg10
(lp611
g605
a(igraph
Vertex
p612
(dp613
g14
F-176.70967741935485
sg15
F0.0
sg16
I4999842
sg8
I00
sg17
S'17365.0779521'
p614
sg19
g20
sbasg24
I00
sg25
I00
sg26
I4998806
sg17
S'17365.7903901'
p615
sba(igraph
Edge
p616
(dp617
g7
I1
sg8
I00
sg9
I5
sg10
(lp618
g612
a(igraph
Vertex
p619
(dp620
g14
F-176.70967741935485
sg15
F37.166666666666686
sg16
I4999843
sg8
I00
sg17
S'17365.0786645'
p621
sg19
g20
sbasg24
I00
sg25
I00
sg26
I4998807
sg17
S'17365.7923962'
p622
sba(igraph
Edge
p623
(dp624
g7
I1
sg8
I00
sg9
I5
sg10
(lp625
g619
a(igraph
Vertex
p626
(dp627
g14
F-176.70967741935485
sg15
F74.333333333333371
sg16
I4999844
sg8
I00
sg17
S'17365.0793673'
p628
sg19
g20
sbasg24
I00
sg25
I00
sg26
I4998808
sg17
S'17365.7945474'
p629
sba(igraph
Edge
p630
(dp631
g7
I1
sg8
I00
sg9
I5
sg10
(lp632
g626
a(igraph
Vertex
p633
(dp634
g14
F-176.70967741935485
sg15
F111.5
sg16
I4999845
sg8
I00
sg17
S'17365.0800803'
p635
sg19
g20
sbasg24
I00
sg25
I00
sg26
I4998809
sg17
S'17365.7966465'
p636
sba(igraph
Edge
p637
(dp638
g7
I1
sg8
I00
sg9
I5
sg10
(lp639
g633
a(igraph
Vertex
p640
(dp641
g14
F-176.70967741935485
sg15
F148.66666666666669
sg16
I4999846
sg8
I00
sg17
S'17365.0808013'
p642
sg19
g20
sbasg24
I00
sg25
I00
sg26
I4998810
sg17
S'17365.7988392'
p643
sba(igraph
Edge
p644
(dp645
g7
I1
sg8
I00
sg9
I5
sg10
(lp646
g640
a(igraph
Vertex
p647
(dp648
g14
F-176.70967741935485
sg15
F185.83333333333337
sg16
I4999847
sg8
I00
sg17
S'17365.0821652'
p649
sg19
g20
sbasg24
I00
sg25
I00
sg26
I4998811
sg17
S'17365.8012733'
p650
sba(igraph
Edge
p651
(dp652
g7
I1
sg8
I00
sg9
I5
sg10
(lp653
g647
a(igraph
Vertex
p654
(dp655
g14
F-176.70967741935485
sg15
F223.0
sg16
I4999848
sg8
I00
sg17
S'17365.0829153'
p656
sg19
g20
sbasg24
I00
sg25
I00
sg26
I4998812
sg17
S'17365.8034292'
p657
sba(igraph
Edge
p658
(dp659
g7
I1
sg8
I00
sg9
I5
sg10
(lp660
g654
a(igraph
Vertex
p661
(dp662
g14
F-176.70967741935485
sg15
F260.16666666666663
sg16
I4999849
sg8
I00
sg17
S'17365.0836626'
p663
sg19
g20
sbasg24
I00
sg25
I00
sg26
I4998813
sg17
S'17365.8055518'
p664
sba(igraph
Edge
p665
(dp666
g7
I1
sg8
I00
sg9
I5
sg10
(lp667
g661
a(igraph
Vertex
p668
(dp669
g14
F-176.70967741935485
sg15
F297.33333333333337
sg16
I4999850
sg8
I00
sg17
S'17365.0844208'
p670
sg19
g20
sbasg24
I00
sg25
I00
sg26
I4998814
sg17
S'17365.8078638'
p671
sba(igraph
Edge
p672
(dp673
g7
I1
sg8
I00
sg9
I5
sg10
(lp674
g668
a(igraph
Vertex
p675
(dp676
g14
F-176.70967741935485
sg15
F334.5
sg16
I4999851
sg8
I00
sg17
S'17365.0851882'
p677
sg19
g20
sbasg24
I00
sg25
I00
sg26
I4998815
sg17
S'17365.8100513'
p678
sba(igraph
Edge
p679
(dp680
g7
I1
sg8
I00
sg9
I5
sg10
(lp681
g675
ag553
asg24
I00
sg25
I00
sg26
I4998816
sg17
S'17365.8122289'
p682
sba(igraph
Edge
p683
(dp684
g7
I1
sg8
I00
sg9
I5
sg10
(lp685
(igraph
Vertex
p686
(dp687
g14
F-137.44086021505379
sg15
F-334.5
sg16
I4999852
sg8
I00
sg17
S'17365.0859587'
p688
sg19
g20
sba(igraph
Vertex
p689
(dp690
g14
F-137.44086021505379
sg15
F-297.33333333333331
sg16
I4999853
sg8
I00
sg17
S'17365.086761'
p691
sg19
g20
sbasg24
I00
sg25
I00
sg26
I4998817
sg17
S'17365.8143465'
p692
sba(igraph
Edge
p693
(dp694
g7
I1
sg8
I00
sg9
I5
sg10
(lp695
g689
a(igraph
Vertex
p696
(dp697
g14
F-137.44086021505379
sg15
F-260.16666666666663
sg16
I4999854
sg8
I00
sg17
S'17365.0875536'
p698
sg19
g20
sbasg24
I00
sg25
I00
sg26
I4998818
sg17
S'17365.8164384'
p699
sba(igraph
Edge
p700
(dp701
g7
I1
sg8
I00
sg9
I5
sg10
(lp702
g696
a(igraph
Vertex
p703
(dp704
g14
F-137.44086021505379
sg15
F-223.00000000000003
sg16
I4999855
sg8
I00
sg17
S'17365.088395'
p705
sg19
g20
sbasg24
I00
sg25
I00
sg26
I4998819
sg17
S'17365.8186038'
p706
sba(igraph
Edge
p707
(dp708
g7
I1
sg8
I00
sg9
I5
sg10
(lp709
g703
a(igraph
Vertex
p710
(dp711
g14
F-137.44086021505379
sg15
F-185.83333333333334
sg16
I4999856
sg8
I00
sg17
S'17365.0892166'
p712
sg19
g20
sbasg24
I00
sg25
I00
sg26
I4998820
sg17
S'17365.8208239'
p713
sba(igraph
Edge
p714
(dp715
g7
I1
sg8
I00
sg9
I5
sg10
(lp716
g710
a(igraph
Vertex
p717
(dp718
g14
F-137.44086021505379
sg15
F-148.66666666666674
sg16
I4999857
sg8
I00
sg17
S'17365.0900559'
p719
sg19
g20
sbasg24
I00
sg25
I00
sg26
I4998821
sg17
S'17365.8229917'
p720
sba(igraph
Edge
p721
(dp722
g7
I1
sg8
I00
sg9
I5
sg10
(lp723
g717
a(igraph
Vertex
p724
(dp725
g14
F-137.44086021505379
sg15
F-111.50000000000006
sg16
I4999858
sg8
I00
sg17
S'17365.0908833'
p726
sg19
g20
sbasg24
I00
sg25
I00
sg26
I4998822
sg17
S'17365.8251937'
p727
sba(igraph
Edge
p728
(dp729
g7
I1
sg8
I00
sg9
I5
sg10
(lp730
g724
a(igraph
Vertex
p731
(dp732
g14
F-137.44086021505379
sg15
F-74.333333333333371
sg16
I4999859
sg8
I00
sg17
S'17365.0917103'
p733
sg19
g20
sbasg24
I00
sg25
I00
sg26
I4998823
sg17
S'17365.8275203'
p734
sba(igraph
Edge
p735
(dp736
g7
I1
sg8
I00
sg9
I5
sg10
(lp737
g731
a(igraph
Vertex
p738
(dp739
g14
F-137.44086021505379
sg15
F-37.166666666666742
sg16
I4999860
sg8
I00
sg17
S'17365.0925484'
p740
sg19
g20
sbasg24
I00
sg25
I00
sg26
I4998824
sg17
S'17365.8298915'
p741
sba(igraph
Edge
p742
(dp743
g7
I1
sg8
I00
sg9
I5
sg10
(lp744
g738
a(igraph
Vertex
p745
(dp746
g14
F-137.44086021505379
sg15
F0.0
sg16
I4999861
sg8
I00
sg17
S'17365.0933957'
p747
sg19
g20
sbasg24
I00
sg25
I00
sg26
I4998825
sg17
S'17365.8321946'
p748
sba(igraph
Edge
p749
(dp750
g7
I1
sg8
I00
sg9
I5
sg10
(lp751
g745
a(igraph
Vertex
p752
(dp753
g14
F-137.44086021505379
sg15
F37.166666666666686
sg16
I4999862
sg8
I00
sg17
S'17365.0942771'
p754
sg19
g20
sbasg24
I00
sg25
I00
sg26
I4998826
sg17
S'17365.8344647'
p755
sba(igraph
Edge
p756
(dp757
g7
I1
sg8
I00
sg9
I5
sg10
(lp758
g752
a(igraph
Vertex
p759
(dp760
g14
F-137.44086021505379
sg15
F74.333333333333371
sg16
I4999863
sg8
I00
sg17
S'17365.0951506'
p761
sg19
g20
sbasg24
I00
sg25
I00
sg26
I4998827
sg17
S'17365.836765'
p762
sba(igraph
Edge
p763
(dp764
g7
I1
sg8
I00
sg9
I5
sg10
(lp765
g759
a(igraph
Vertex
p766
(dp767
g14
F-137.44086021505379
sg15
F111.5
sg16
I4999865
sg8
I01
sg17
S'17365.0960474'
p768
sg19
I0
sbasg24
I00
sg25
I00
sg26
I4998828
sg17
S'17365.8390994'
p769
sba(igraph
Edge
p770
(dp771
g7
I1
sg8
I00
sg9
I5
sg10
(lp772
g766
a(igraph
Vertex
p773
(dp774
g14
F-137.44086021505379
sg15
F148.66666666666669
sg16
I4999867
sg8
I00
sg17
S'17365.0969319'
p775
sg19
g20
sbasg24
I00
sg25
I00
sg26
I4998829
sg17
S'17365.8414237'
p776
sba(igraph
Edge
p777
(dp778
g7
I1
sg8
I00
sg9
I5
sg10
(lp779
g773
a(igraph
Vertex
p780
(dp781
g14
F-137.44086021505379
sg15
F185.83333333333337
sg16
I4999868
sg8
I00
sg17
S'17365.0978644'
p782
sg19
g20
sbasg24
I00
sg25
I00
sg26
I4998830
sg17
S'17365.8437947'
p783
sba(igraph
Edge
p784
(dp785
g7
I1
sg8
I00
sg9
I5
sg10
(lp786
g780
a(igraph
Vertex
p787
(dp788
g14
F-137.44086021505379
sg15
F223.0
sg16
I4999869
sg8
I00
sg17
S'17365.0990537'
p789
sg19
g20
sbasg24
I00
sg25
I00
sg26
I4998831
sg17
S'17365.8461749'
p790
sba(igraph
Edge
p791
(dp792
g7
I1
sg8
I00
sg9
I5
sg10
(lp793
g787
a(igraph
Vertex
p794
(dp795
g14
F-137.44086021505379
sg15
F260.16666666666663
sg16
I4999870
sg8
I00
sg17
S'17365.0999943'
p796
sg19
g20
sbasg24
I00
sg25
I00
sg26
I4998832
sg17
S'17365.8489925'
p797
sba(igraph
Edge
p798
(dp799
g7
I1
sg8
I00
sg9
I5
sg10
(lp800
g794
a(igraph
Vertex
p801
(dp802
g14
F-137.44086021505379
sg15
F297.33333333333337
sg16
I4999871
sg8
I00
sg17
S'17365.1009589'
p803
sg19
g20
sbasg24
I00
sg25
I00
sg26
I4998833
sg17
S'17365.8514127'
p804
sba(igraph
Edge
p805
(dp806
g7
I1
sg8
I00
sg9
I5
sg10
(lp807
g801
a(igraph
Vertex
p808
(dp809
g14
F-137.44086021505379
sg15
F334.5
sg16
I4999872
sg8
I00
sg17
S'17365.1019141'
p810
sg19
g20
sbasg24
I00
sg25
I00
sg26
I4998834
sg17
S'17365.8538937'
p811
sba(igraph
Edge
p812
(dp813
g7
I1
sg8
I00
sg9
I5
sg10
(lp814
g808
ag686
asg24
I00
sg25
I00
sg26
I4998835
sg17
S'17365.8563815'
p815
sba(igraph
Edge
p816
(dp817
g7
I1
sg8
I00
sg9
I5
sg10
(lp818
(igraph
Vertex
p819
(dp820
g14
F-98.172043010752674
sg15
F-334.5
sg16
I4999873
sg8
I00
sg17
S'17365.1028969'
p821
sg19
g20
sba(igraph
Vertex
p822
(dp823
g14
F-98.172043010752674
sg15
F-297.33333333333331
sg16
I4999874
sg8
I00
sg17
S'17365.1038674'
p824
sg19
g20
sbasg24
I00
sg25
I00
sg26
I4998836
sg17
S'17365.8589195'
p825
sba(igraph
Edge
p826
(dp827
g7
I1
sg8
I00
sg9
I5
sg10
(lp828
g822
a(igraph
Vertex
p829
(dp830
g14
F-98.172043010752674
sg15
F-260.16666666666663
sg16
I4999875
sg8
I00
sg17
S'17365.104903'
p831
sg19
g20
sbasg24
I00
sg25
I00
sg26
I4998837
sg17
S'17365.861502'
p832
sba(igraph
Edge
p833
(dp834
g7
I1
sg8
I00
sg9
I5
sg10
(lp835
g829
a(igraph
Vertex
p836
(dp837
g14
F-98.172043010752674
sg15
F-223.00000000000003
sg16
I4999876
sg8
I00
sg17
S'17365.1059093'
p838
sg19
g20
sbasg24
I00
sg25
I00
sg26
I4998838
sg17
S'17365.8640838'
p839
sba(igraph
Edge
p840
(dp841
g7
I1
sg8
I00
sg9
I5
sg10
(lp842
g836
a(igraph
Vertex
p843
(dp844
g14
F-98.172043010752674
sg15
F-185.83333333333334
sg16
I4999877
sg8
I00
sg17
S'17365.1068854'
p845
sg19
g20
sbasg24
I00
sg25
I00
sg26
I4998839
sg17
S'17365.8666766'
p846
sba(igraph
Edge
p847
(dp848
g7
I1
sg8
I00
sg9
I5
sg10
(lp849
g843
a(igraph
Vertex
p850
(dp851
g14
F-98.172043010752674
sg15
F-148.66666666666674
sg16
I4999878
sg8
I00
sg17
S'17365.1078673'
p852
sg19
g20
sbasg24
I00
sg25
I00
sg26
I4998840
sg17
S'17365.869275'
p853
sba(igraph
Edge
p854
(dp855
g7
I1
sg8
I00
sg9
I5
sg10
(lp856
g850
a(igraph
Vertex
p857
(dp858
g14
F-98.172043010752674
sg15
F-111.50000000000006
sg16
I4999879
sg8
I00
sg17
S'17365.1088563'
p859
sg19
g20
sbasg24
I00
sg25
I00
sg26
I4998841
sg17
S'17365.8723148'
p860
sba(igraph
Edge
p861
(dp862
g7
I1
sg8
I00
sg9
I5
sg10
(lp863
g857
a(igraph
Vertex
p864
(dp865
g14
F-98.172043010752674
sg15
F-74.333333333333371
sg16
I4999880
sg8
I00
sg17
S'17365.1099718'
p866
sg19
g20
sbasg24
I00
sg25
I00
sg26
I4998842
sg17
S'17365.8749539'
p867
sba(igraph
Edge
p868
(dp869
g7
I1
sg8
I00
sg9
I5
sg10
(lp870
g864
a(igraph
Vertex
p871
(dp872
g14
F-98.172043010752674
sg15
F-37.166666666666742
sg16
I4999881
sg8
I00
sg17
S'17365.1109834'
p873
sg19
g20
sbasg24
I00
sg25
I00
sg26
I4998843
sg17
S'17365.8776233'
p874
sba(igraph
Edge
p875
(dp876
g7
I1
sg8
I00
sg9
I5
sg10
(lp877
g871
a(igraph
Vertex
p878
(dp879
g14
F-98.172043010752674
sg15
F0.0
sg16
I4999882
sg8
I00
sg17
S'17365.1119924'
p880
sg19
g20
sbasg24
I00
sg25
I00
sg26
I4998844
sg17
S'17365.8802948'
p881
sba(igraph
Edge
p882
(dp883
g7
I1
sg8
I00
sg9
I5
sg10
(lp884
g878
a(igraph
Vertex
p885
(dp886
g14
F-98.172043010752674
sg15
F37.166666666666686
sg16
I4999884
sg8
I01
sg17
S'17365.1130722'
p887
sg19
I0
sbasg24
I00
sg25
I00
sg26
I4998845
sg17
S'17365.882993'
p888
sba(igraph
Edge
p889
(dp890
g7
I1
sg8
I00
sg9
I5
sg10
(lp891
g885
a(igraph
Vertex
p892
(dp893
g14
F-98.172043010752674
sg15
F74.333333333333371
sg16
I4999886
sg8
I00
sg17
S'17365.1141265'
p894
sg19
g20
sbasg24
I00
sg25
I00
sg26
I4998846
sg17
S'17365.8858344'
p895
sba(igraph
Edge
p896
(dp897
g7
I1
sg8
I00
sg9
I5
sg10
(lp898
g892
a(igraph
Vertex
p899
(dp900
g14
F-98.172043010752674
sg15
F111.5
sg16
I4999887
sg8
I00
sg17
S'17365.115168'
p901
sg19
g20
sbasg24
I00
sg25
I00
sg26
I4998847
sg17
S'17365.8886124'
p902
sba(igraph
Edge
p903
(dp904
g7
I1
sg8
I00
sg9
I5
sg10
(lp905
g899
a(igraph
Vertex
p906
(dp907
g14
F-98.172043010752674
sg15
F148.66666666666669
sg16
I4999888
sg8
I00
sg17
S'17365.1162187'
p908
sg19
g20
sbasg24
I00
sg25
I00
sg26
I4998848
sg17
S'17365.8917036'
p909
sba(igraph
Edge
p910
(dp911
g7
I1
sg8
I00
sg9
I5
sg10
(lp912
g906
a(igraph
Vertex
p913
(dp914
g14
F-98.172043010752674
sg15
F185.83333333333337
sg16
I4999889
sg8
I00
sg17
S'17365.1173012'
p915
sg19
g20
sbasg24
I00
sg25
I00
sg26
I4998849
sg17
S'17365.8953238'
p916
sba(igraph
Edge
p917
(dp918
g7
I1
sg8
I00
sg9
I5
sg10
(lp919
g913
a(igraph
Vertex
p920
(dp921
g14
F-98.172043010752674
sg15
F223.0
sg16
I4999890
sg8
I00
sg17
S'17365.1183706'
p922
sg19
g20
sbasg24
I00
sg25
I00
sg26
I4998850
sg17
S'17365.8982083'
p923
sba(igraph
Edge
p924
(dp925
g7
I1
sg8
I00
sg9
I5
sg10
(lp926
g920
a(igraph
Vertex
p927
(dp928
g14
F-98.172043010752674
sg15
F260.16666666666663
sg16
I4999891
sg8
I00
sg17
S'17365.1194968'
p929
sg19
g20
sbasg24
I00
sg25
I00
sg26
I4998851
sg17
S'17365.9010332'
p930
sba(igraph
Edge
p931
(dp932
g7
I1
sg8
I00
sg9
I5
sg10
(lp933
g927
a(igraph
Vertex
p934
(dp935
g14
F-98.172043010752674
sg15
F297.33333333333337
sg16
I4999892
sg8
I00
sg17
S'17365.1206732'
p936
sg19
g20
sbasg24
I00
sg25
I00
sg26
I4998852
sg17
S'17365.9038738'
p937
sba(igraph
Edge
p938
(dp939
g7
I1
sg8
I00
sg9
I5
sg10
(lp940
g934
a(igraph
Vertex
p941
(dp942
g14
F-98.172043010752674
sg15
F334.5
sg16
I4999893
sg8
I00
sg17
S'17365.121856'
p943
sg19
g20
sbasg24
I00
sg25
I00
sg26
I4998853
sg17
S'17365.906801'
p944
sba(igraph
Edge
p945
(dp946
g7
I1
sg8
I00
sg9
I5
sg10
(lp947
g941
ag819
asg24
I00
sg25
I00
sg26
I4998854
sg17
S'17365.9097539'
p948
sba(igraph
Edge
p949
(dp950
g7
I1
sg8
I00
sg9
I5
sg10
(lp951
(igraph
Vertex
p952
(dp953
g14
F-58.903225806451644
sg15
F-334.5
sg16
I4999894
sg8
I00
sg17
S'17365.1229572'
p954
sg19
g20
sba(igraph
Vertex
p955
(dp956
g14
F-58.903225806451644
sg15
F-297.33333333333331
sg16
I4999895
sg8
I00
sg17
S'17365.1240635'
p957
sg19
g20
sbasg24
I00
sg25
I00
sg26
I4998855
sg17
S'17365.9127498'
p958
sba(igraph
Edge
p959
(dp960
g7
I1
sg8
I00
sg9
I5
sg10
(lp961
g955
a(igraph
Vertex
p962
(dp963
g14
F-58.903225806451644
sg15
F-260.16666666666663
sg16
I4999896
sg8
I00
sg17
S'17365.1251938'
p964
sg19
g20
sbasg24
I00
sg25
I00
sg26
I4998856
sg17
S'17365.9157116'
p965
sba(igraph
Edge
p966
(dp967
g7
I1
sg8
I00
sg9
I5
sg10
(lp968
g962
a(igraph
Vertex
p969
(dp970
g14
F-58.903225806451644
sg15
F-223.00000000000003
sg16
I4999897
sg8
I00
sg17
S'17365.1263616'
p971
sg19
g20
sbasg24
I00
sg25
I00
sg26
I4998857
sg17
S'17365.9186916'
p972
sba(igraph
Edge
p973
(dp974
g7
I1
sg8
I00
sg9
I5
sg10
(lp975
g969
a(igraph
Vertex
p976
(dp977
g14
F-58.903225806451644
sg15
F-185.83333333333334
sg16
I4999898
sg8
I00
sg17
S'17365.1275271'
p978
sg19
g20
sbasg24
I00
sg25
I00
sg26
I4998858
sg17
S'17365.9217071'
p979
sba(igraph
Edge
p980
(dp981
g7
I1
sg8
I00
sg9
I5
sg10
(lp982
g976
a(igraph
Vertex
p983
(dp984
g14
F-58.903225806451644
sg15
F-148.66666666666674
sg16
I4999899
sg8
I00
sg17
S'17365.1287898'
p985
sg19
g20
sbasg24
I00
sg25
I00
sg26
I4998859
sg17
S'17365.9246862'
p986
sba(igraph
Edge
p987
(dp988
g7
I1
sg8
I00
sg9
I5
sg10
(lp989
g983
a(igraph
Vertex
p990
(dp991
g14
F-58.903225806451644
sg15
F-111.50000000000006
sg16
I4999900
sg8
I00
sg17
S'17365.1301015'
p992
sg19
g20
sbasg24
I00
sg25
I00
sg26
I4998860
sg17
S'17365.9277232'
p993
sba(igraph
Edge
p994
(dp995
g7
I1
sg8
I00
sg9
I5
sg10
(lp996
g990
a(igraph
Vertex
p997
(dp998
g14
F-58.903225806451644
sg15
F-74.333333333333371
sg16
I4999901
sg8
I00
sg17
S'17365.1313795'
p999
sg19
g20
sbasg24
I00
sg25
I00
sg26
I4998861
sg17
S'17365.9307557'
p1000
sba(igraph
Edge
p1001
(dp1002
g7
I1
sg8
I00
sg9
I5
sg10
(lp1003
g997
a(igraph
Vertex
p1004
(dp1005
g14
F-58.903225806451644
sg15
F-37.166666666666742
sg16
I4999902
sg8
I00
sg17
S'17365.1325682'
p1006
sg19
g20
sbasg24
I00
sg25
I00
sg26
I4998862
sg17
S'17365.9338039'
p1007
sba(igraph
Edge
p1008
(dp1009
g7
I1
sg8
I00
sg9
I5
sg10
(lp1010
g1004
a(igraph
Vertex
p1011
(dp1012
g14
F-58.903225806451644
sg15
F0.0
sg16
I4999903
sg8
I00
sg17
S'17365.133784'
p1013
sg19
g20
sbasg24
I00
sg25
I00
sg26
I4998863
sg17
S'17365.9368375'
p1014
sba(igraph
Edge
p1015
(dp1016
g7
I1
sg8
I00
sg9
I5
sg10
(lp1017
g1011
a(igraph
Vertex
p1018
(dp1019
g14
F-58.903225806451644
sg15
F37.166666666666686
sg16
I4999904
sg8
I00
sg17
S'17365.1350409'
p1020
sg19
g20
sbasg24
I00
sg25
I00
sg26
I4998864
sg17
S'17365.9399091'
p1021
sba(igraph
Edge
p1022
(dp1023
g7
I1
sg8
I00
sg9
I5
sg10
(lp1024
g1018
a(igraph
Vertex
p1025
(dp1026
g14
F-58.903225806451644
sg15
F74.333333333333371
sg16
I4999905
sg8
I00
sg17
S'17365.136267'
p1027
sg19
g20
sbasg24
I00
sg25
I00
sg26
I4998865
sg17
S'17365.9430503'
p1028
sba(igraph
Edge
p1029
(dp1030
g7
I1
sg8
I00
sg9
I5
sg10
(lp1031
g1025
a(igraph
Vertex
p1032
(dp1033
g14
F-58.903225806451644
sg15
F111.5
sg16
I4999906
sg8
I00
sg17
S'17365.1375043'
p1034
sg19
g20
sbasg24
I00
sg25
I00
sg26
I4998866
sg17
S'17365.9461803'
p1035
sba(igraph
Edge
p1036
(dp1037
g7
I1
sg8
I00
sg9
I5
sg10
(lp1038
g1032
a(igraph
Vertex
p1039
(dp1040
g14
F-58.903225806451644
sg15
F148.66666666666669
sg16
I4999907
sg8
I00
sg17
S'17365.1387305'
p1041
sg19
g20
sbasg24
I00
sg25
I00
sg26
I4998867
sg17
S'17365.9495888'
p1042
sba(igraph
Edge
p1043
(dp1044
g7
I1
sg8
I00
sg9
I5
sg10
(lp1045
g1039
a(igraph
Vertex
p1046
(dp1047
g14
F-58.903225806451644
sg15
F185.83333333333337
sg16
I4999908
sg8
I00
sg17
S'17365.1399591'
p1048
sg19
g20
sbasg24
I00
sg25
I00
sg26
I4998868
sg17
S'17365.9527778'
p1049
sba(igraph
Edge
p1050
(dp1051
g7
I1
sg8
I00
sg9
I5
sg10
(lp1052
g1046
a(igraph
Vertex
p1053
(dp1054
g14
F-58.903225806451644
sg15
F223.0
sg16
I4999909
sg8
I00
sg17
S'17365.1412241'
p1055
sg19
g20
sbasg24
I00
sg25
I00
sg26
I4998869
sg17
S'17365.9564'
p1056
sba(igraph
Edge
p1057
(dp1058
g7
I1
sg8
I00
sg9
I5
sg10
(lp1059
g1053
a(igraph
Vertex
p1060
(dp1061
g14
F-58.903225806451644
sg15
F260.16666666666663
sg16
I4999910
sg8
I00
sg17
S'17365.142848'
p1062
sg19
g20
sbasg24
I00
sg25
I00
sg26
I4998870
sg17
S'17365.9597474'
p1063
sba(igraph
Edge
p1064
(dp1065
g7
I1
sg8
I00
sg9
I5
sg10
(lp1066
g1060
a(igraph
Vertex
p1067
(dp1068
g14
F-58.903225806451644
sg15
F297.33333333333337
sg16
I4999911
sg8
I00
sg17
S'17365.1441214'
p1069
sg19
g20
sbasg24
I00
sg25
I00
sg26
I4998871
sg17
S'17365.9630417'
p1070
sba(igraph
Edge
p1071
(dp1072
g7
I1
sg8
I00
sg9
I5
sg10
(lp1073
g1067
a(igraph
Vertex
p1074
(dp1075
g14
F-58.903225806451644
sg15
F334.5
sg16
I4999912
sg8
I00
sg17
S'17365.145404'
p1076
sg19
g20
sbasg24
I00
sg25
I00
sg26
I4998872
sg17
S'17365.9662826'
p1077
sba(igraph
Edge
p1078
(dp1079
g7
I1
sg8
I00
sg9
I5
sg10
(lp1080
g1074
ag952
asg24
I00
sg25
I00
sg26
I4998873
sg17
S'17365.9695492'
p1081
sba(igraph
Edge
p1082
(dp1083
g7
I1
sg8
I00
sg9
I5
sg10
(lp1084
(igraph
Vertex
p1085
(dp1086
g14
F-19.634408602150529
sg15
F-334.5
sg16
I4999913
sg8
I00
sg17
S'17365.1467184'
p1087
sg19
g20
sba(igraph
Vertex
p1088
(dp1089
g14
F-19.634408602150529
sg15
F-297.33333333333331
sg16
I4999914
sg8
I00
sg17
S'17365.1480029'
p1090
sg19
g20
sbasg24
I00
sg25
I00
sg26
I4998874
sg17
S'17365.9729521'
p1091
sba(igraph
Edge
p1092
(dp1093
g7
I1
sg8
I00
sg9
I5
sg10
(lp1094
g1088
a(igraph
Vertex
p1095
(dp1096
g14
F-19.634408602150529
sg15
F-260.16666666666663
sg16
I4999915
sg8
I00
sg17
S'17365.1492894'
p1097
sg19
g20
sbasg24
I00
sg25
I00
sg26
I4998875
sg17
S'17365.9762512'
p1098
sba(igraph
Edge
p1099
(dp1100
g7
I1
sg8
I00
sg9
I5
sg10
(lp1101
g1095
a(igraph
Vertex
p1102
(dp1103
g14
F-19.634408602150529
sg15
F-223.00000000000003
sg16
I4999916
sg8
I00
sg17
S'17365.1505915'
p1104
sg19
g20
sbasg24
I00
sg25
I00
sg26
I4998876
sg17
S'17365.9798212'
p1105
sba(igraph
Edge
p1106
(dp1107
g7
I1
sg8
I00
sg9
I5
sg10
(lp1108
g1102
a(igraph
Vertex
p1109
(dp1110
g14
F-19.634408602150529
sg15
F-185.83333333333334
sg16
I4999917
sg8
I00
sg17
S'17365.1519034'
p1111
sg19
g20
sbasg24
I00
sg25
I00
sg26
I4998877
sg17
S'17365.9832278'
p1112
sba(igraph
Edge
p1113
(dp1114
g7
I1
sg8
I00
sg9
I5
sg10
(lp1115
g1109
a(igraph
Vertex
p1116
(dp1117
g14
F-19.634408602150529
sg15
F-148.66666666666674
sg16
I4999918
sg8
I00
sg17
S'17365.1532362'
p1118
sg19
g20
sbasg24
I00
sg25
I00
sg26
I4998878
sg17
S'17365.986981'
p1119
sba(igraph
Edge
p1120
(dp1121
g7
I1
sg8
I00
sg9
I5
sg10
(lp1122
g1116
a(igraph
Vertex
p1123
(dp1124
g14
F-19.634408602150529
sg15
F-111.50000000000006
sg16
I4999919
sg8
I00
sg17
S'17365.1546018'
p1125
sg19
g20
sbasg24
I00
sg25
I00
sg26
I4998879
sg17
S'17365.9904214'
p1126
sba(igraph
Edge
p1127
(dp1128
g7
I1
sg8
I00
sg9
I5
sg10
(lp1129
g1123
a(igraph
Vertex
p1130
(dp1131
g14
F-19.634408602150529
sg15
F-74.333333333333371
sg16
I4999920
sg8
I00
sg17
S'17365.1559366'
p1132
sg19
g20
sbasg24
I00
sg25
I00
sg26
I4998880
sg17
S'17365.9938772'
p1133
sba(igraph
Edge
p1134
(dp1135
g7
I1
sg8
I00
sg9
I5
sg10
(lp1136
g1130
a(igraph
Vertex
p1137
(dp1138
g14
F-19.634408602150529
sg15
F-37.166666666666742
sg16
I4999921
sg8
I00
sg17
S'17365.1573088'
p1139
sg19
g20
sbasg24
I00
sg25
I00
sg26
I4998881
sg17
S'17365.9973905'
p1140
sba(igraph
Edge
p1141
(dp1142
g7
I1
sg8
I00
sg9
I5
sg10
(lp1143
g1137
a(igraph
Vertex
p1144
(dp1145
g14
F-19.634408602150529
sg15
F0.0
sg16
I4999923
sg8
I01
sg17
S'17365.1586841'
p1146
sg19
I0
sbasg24
I00
sg25
I00
sg26
I4998882
sg17
S'17366.0008356'
p1147
sba(igraph
Edge
p1148
(dp1149
g7
I1
sg8
I00
sg9
I5
sg10
(lp1150
g1144
a(igraph
Vertex
p1151
(dp1152
g14
F-19.634408602150529
sg15
F37.166666666666686
sg16
I4999925
sg8
I00
sg17
S'17365.1600597'
p1153
sg19
g20
sbasg24
I00
sg25
I00
sg26
I4998883
sg17
S'17366.0043073'
p1154
sba(igraph
Edge
p1155
(dp1156
g7
I1
sg8
I00
sg9
I5
sg10
(lp1157
g1151
a(igraph
Vertex
p1158
(dp1159
g14
F-19.634408602150529
sg15
F74.333333333333371
sg16
I4999926
sg8
I00
sg17
S'17365.1615387'
p1160
sg19
g20
sbasg24
I00
sg25
I00
sg26
I4998884
sg17
S'17366.0078538'
p1161
sba(igraph
Edge
p1162
(dp1163
g7
I1
sg8
I00
sg9
I5
sg10
(lp1164
g1158
a(igraph
Vertex
p1165
(dp1166
g14
F-19.634408602150529
sg15
F111.5
sg16
I4999927
sg8
I00
sg17
S'17365.1629238'
p1167
sg19
g20
sbasg24
I00
sg25
I00
sg26
I4998885
sg17
S'17366.0115791'
p1168
sba(igraph
Edge
p1169
(dp1170
g7
I1
sg8
I00
sg9
I5
sg10
(lp1171
g1165
a(igraph
Vertex
p1172
(dp1173
g14
F-19.634408602150529
sg15
F148.66666666666669
sg16
I4999928
sg8
I00
sg17
S'17365.1644011'
p1174
sg19
g20
sbasg24
I00
sg25
I00
sg26
I4998886
sg17
S'17366.0151514'
p1175
sba(igraph
Edge
p1176
(dp1177
g7
I1
sg8
I00
sg9
I5
sg10
(lp1178
g1172
a(igraph
Vertex
p1179
(dp1180
g14
F-19.634408602150529
sg15
F185.83333333333337
sg16
I4999929
sg8
I00
sg17
S'17365.1658141'
p1181
sg19
g20
sbasg24
I00
sg25
I00
sg26
I4998887
sg17
S'17366.018787'
p1182
sba(igraph
Edge
p1183
(dp1184
g7
I1
sg8
I00
sg9
I5
sg10
(lp1185
g1179
a(igraph
Vertex
p1186
(dp1187
g14
F-19.634408602150529
sg15
F223.0
sg16
I4999930
sg8
I00
sg17
S'17365.1672221'
p1188
sg19
g20
sbasg24
I00
sg25
I00
sg26
I4998888
sg17
S'17366.0223735'
p1189
sba(igraph
Edge
p1190
(dp1191
g7
I1
sg8
I00
sg9
I5
sg10
(lp1192
g1186
a(igraph
Vertex
p1193
(dp1194
g14
F-19.634408602150529
sg15
F260.16666666666663
sg16
I4999931
sg8
I00
sg17
S'17365.1686466'
p1195
sg19
g20
sbasg24
I00
sg25
I00
sg26
I4998889
sg17
S'17366.0260069'
p1196
sba(igraph
Edge
p1197
(dp1198
g7
I1
sg8
I00
sg9
I5
sg10
(lp1199
g1193
a(igraph
Vertex
p1200
(dp1201
g14
F-19.634408602150529
sg15
F297.33333333333337
sg16
I4999932
sg8
I00
sg17
S'17365.1701267'
p1202
sg19
g20
sbasg24
I00
sg25
I00
sg26
I4998890
sg17
S'17366.0296951'
p1203
sba(igraph
Edge
p1204
(dp1205
g7
I1
sg8
I00
sg9
I5
sg10
(lp1206
g1200
a(igraph
Vertex
p1207
(dp1208
g14
F-19.634408602150529
sg15
F334.5
sg16
I4999933
sg8
I00
sg17
S'17365.1723211'
p1209
sg19
g20
sbasg24
I00
sg25
I00
sg26
I4998891
sg17
S'17366.0333908'
p1210
sba(igraph
Edge
p1211
(dp1212
g7
I1
sg8
I00
sg9
I5
sg10
(lp1213
g1207
ag1085
asg24
I00
sg25
I00
sg26
I4998892
sg17
S'17366.0374617'
p1214
sba(igraph
Edge
p1215
(dp1216
g7
I1
sg8
I00
sg9
I5
sg10
(lp1217
(igraph
Vertex
p1218
(dp1219
g14
F19.634408602150472
sg15
F-334.5
sg16
I4999934
sg8
I00
sg17
S'17365.1746951'
p1220
sg19
g20
sba(igraph
Vertex
p1221
(dp1222
g14
F19.634408602150472
sg15
F-297.33333333333331
sg16
I4999935
sg8
I00
sg17
S'17365.1764244'
p1223
sg19
g20
sbasg24
I00
sg25
I00
sg26
I4998893
sg17
S'17366.0411876'
p1224
sba(igraph
Edge
p1225
(dp1226
g7
I1
sg8
I00
sg9
I5
sg10
(lp1227
g1221
a(igraph
Vertex
p1228
(dp1229
g14
F19.634408602150472
sg15
F-260.16666666666663
sg16
I4999936
sg8
I00
sg17
S'17365.1782039'
p1230
sg19
g20
sbasg24
I00
sg25
I00
sg26
I4998894
sg17
S'17366.0448783'
p1231
sba(igraph
Edge
p1232
(dp1233
g7
I1
sg8
I00
sg9
I5
sg10
(lp1234
g1228
a(igraph
Vertex
p1235
(dp1236
g14
F19.634408602150472
sg15
F-223.00000000000003
sg16
I4999937
sg8
I00
sg17
S'17365.1798586'
p1237
sg19
g20
sbasg24
I00
sg25
I00
sg26
I4998895
sg17
S'17366.0487087'
p1238
sba(igraph
Edge
p1239
(dp1240
g7
I1
sg8
I00
sg9
I5
sg10
(lp1241
g1235
a(igraph
Vertex
p1242
(dp1243
g14
F19.634408602150472
sg15
F-185.83333333333334
sg16
I4999938
sg8
I00
sg17
S'17365.1814826'
p1244
sg19
g20
sbasg24
I00
sg25
I00
sg26
I4998896
sg17
S'17366.0525025'
p1245
sba(igraph
Edge
p1246
(dp1247
g7
I1
sg8
I00
sg9
I5
sg10
(lp1248
g1242
a(igraph
Vertex
p1249
(dp1250
g14
F19.634408602150472
sg15
F-148.66666666666674
sg16
I4999939
sg8
I00
sg17
S'17365.1833205'
p1251
sg19
g20
sbasg24
I00
sg25
I00
sg26
I4998897
sg17
S'17366.0563222'
p1252
sba(igraph
Edge
p1253
(dp1254
g7
I1
sg8
I00
sg9
I5
sg10
(lp1255
g1249
a(igraph
Vertex
p1256
(dp1257
g14
F19.634408602150472
sg15
F-111.50000000000006
sg16
I4999940
sg8
I00
sg17
S'17365.1849833'
p1258
sg19
g20
sbasg24
I00
sg25
I00
sg26
I4998898
sg17
S'17366.0601736'
p1259
sba(igraph
Edge
p1260
(dp1261
g7
I1
sg8
I00
sg9
I5
sg10
(lp1262
g1256
a(igraph
Vertex
p1263
(dp1264
g14
F19.634408602150472
sg15
F-74.333333333333371
sg16
I4999942
sg8
I01
sg17
S'17365.1868668'
p1265
sg19
I0
sbasg24
I00
sg25
I00
sg26
I4998899
sg17
S'17366.0640372'
p1266
sba(igraph
Edge
p1267
(dp1268
g7
I1
sg8
I00
sg9
I5
sg10
(lp1269
g1263
a(igraph
Vertex
p1270
(dp1271
g14
F19.634408602150472
sg15
F-37.166666666666742
sg16
I4999944
sg8
I00
sg17
S'17365.188577'
p1272
sg19
g20
sbasg24
I00
sg25
I00
sg26
I4998900
sg17
S'17366.0695463'
p1273
sba(igraph
Edge
p1274
(dp1275
g7
I1
sg8
I00
sg9
I5
sg10
(lp1276
g1270
a(igraph
Vertex
p1277
(dp1278
g14
F19.634408602150472
sg15
F0.0
sg16
I4999945
sg8
I00
sg17
S'17365.1904035'
p1279
sg19
g20
sbasg24
I00
sg25
I00
sg26
I4998901
sg17
S'17366.0740005'
p1280
sba(igraph
Edge
p1281
(dp1282
g7
I1
sg8
I00
sg9
I5
sg10
(lp1283
g1277
a(igraph
Vertex
p1284
(dp1285
g14
F19.634408602150472
sg15
F37.166666666666686
sg16
I4999946
sg8
I00
sg17
S'17365.1925359'
p1286
sg19
g20
sbasg24
I00
sg25
I00
sg26
I4998902
sg17
S'17366.0814106'
p1287
sba(igraph
Edge
p1288
(dp1289
g7
I1
sg8
I00
sg9
I5
sg10
(lp1290
g1284
a(igraph
Vertex
p1291
(dp1292
g14
F19.634408602150472
sg15
F74.333333333333371
sg16
I4999947
sg8
I00
sg17
S'17365.1943747'
p1293
sg19
g20
sbasg24
I00
sg25
I00
sg26
I4998903
sg17
S'17366.0855748'
p1294
sba(igraph
Edge
p1295
(dp1296
g7
I1
sg8
I00
sg9
I5
sg10
(lp1297
g1291
a(igraph
Vertex
p1298
(dp1299
g14
F19.634408602150472
sg15
F111.5
sg16
I4999948
sg8
I00
sg17
S'17365.1961112'
p1300
sg19
g20
sbasg24
I00
sg25
I00
sg26
I4998904
sg17
S'17366.090609'
p1301
sba(igraph
Edge
p1302
(dp1303
g7
I1
sg8
I00
sg9
I5
sg10
(lp1304
g1298
a(igraph
Vertex
p1305
(dp1306
g14
F19.634408602150472
sg15
F148.66666666666669
sg16
I4999949
sg8
I00
sg17
S'17365.1983314'
p1307
sg19
g20
sbasg24
I00
sg25
I00
sg26
I4998905
sg17
S'17366.0951297'
p1308
sba(igraph
Edge
p1309
(dp1310
g7
I1
sg8
I00
sg9
I5
sg10
(lp1311
g1305
a(igraph
Vertex
p1312
(dp1313
g14
F19.634408602150472
sg15
F185.83333333333337
sg16
I4999950
sg8
I00
sg17
S'17365.2003813'
p1314
sg19
g20
sbasg24
I00
sg25
I00
sg26
I4998906
sg17
S'17366.0997814'
p1315
sba(igraph
Edge
p1316
(dp1317
g7
I1
sg8
I00
sg9
I5
sg10
(lp1318
g1312
a(igraph
Vertex
p1319
(dp1320
g14
F19.634408602150472
sg15
F223.0
sg16
I4999951
sg8
I00
sg17
S'17365.202274'
p1321
sg19
g20
sbasg24
I00
sg25
I00
sg26
I4998907
sg17
S'17366.1041579'
p1322
sba(igraph
Edge
p1323
(dp1324
g7
I1
sg8
I00
sg9
I5
sg10
(lp1325
g1319
a(igraph
Vertex
p1326
(dp1327
g14
F19.634408602150472
sg15
F260.16666666666663
sg16
I4999952
sg8
I00
sg17
S'17365.2041276'
p1328
sg19
g20
sbasg24
I00
sg25
I00
sg26
I4998908
sg17
S'17366.1090641'
p1329
sba(igraph
Edge
p1330
(dp1331
g7
I1
sg8
I00
sg9
I5
sg10
(lp1332
g1326
a(igraph
Vertex
p1333
(dp1334
g14
F19.634408602150472
sg15
F297.33333333333337
sg16
I4999953
sg8
I00
sg17
S'17365.2064371'
p1335
sg19
g20
sbasg24
I00
sg25
I00
sg26
I4998909
sg17
S'17366.1134605'
p1336
sba(igraph
Edge
p1337
(dp1338
g7
I1
sg8
I00
sg9
I5
sg10
(lp1339
g1333
a(igraph
Vertex
p1340
(dp1341
g14
F19.634408602150472
sg15
F334.5
sg16
I4999954
sg8
I00
sg17
S'17365.2082572'
p1342
sg19
g20
sbasg24
I00
sg25
I00
sg26
I4998910
sg17
S'17366.117803'
p1343
sba(igraph
Edge
p1344
(dp1345
g7
I1
sg8
I00
sg9
I5
sg10
(lp1346
g1340
ag1218
asg24
I00
sg25
I00
sg26
I4998911
sg17
S'17366.1235179'
p1347
sba(igraph
Edge
p1348
(dp1349
g7
I1
sg8
I00
sg9
I5
sg10
(lp1350
(igraph
Vertex
p1351
(dp1352
g14
F58.903225806451587
sg15
F-334.5
sg16
I4999955
sg8
I00
sg17
S'17365.2109684'
p1353
sg19
g20
sba(igraph
Vertex
p1354
(dp1355
g14
F58.903225806451587
sg15
F-297.33333333333331
sg16
I4999956
sg8
I00
sg17
S'17365.2129025'
p1356
sg19
g20
sbasg24
I00
sg25
I00
sg26
I4998912
sg17
S'17366.1342134'
p1357
sba(igraph
Edge
p1358
(dp1359
g7
I1
sg8
I00
sg9
I5
sg10
(lp1360
g1354
a(igraph
Vertex
p1361
(dp1362
g14
F58.903225806451587
sg15
F-260.16666666666663
sg16
I4999957
sg8
I00
sg17
S'17365.214979'
p1363
sg19
g20
sbasg24
I00
sg25
I00
sg26
I4998913
sg17
S'17366.1395367'
p1364
sba(igraph
Edge
p1365
(dp1366
g7
I1
sg8
I00
sg9
I5
sg10
(lp1367
g1361
a(igraph
Vertex
p1368
(dp1369
g14
F58.903225806451587
sg15
F-223.00000000000003
sg16
I4999958
sg8
I00
sg17
S'17365.2171511'
p1370
sg19
g20
sbasg24
I00
sg25
I00
sg26
I4998914
sg17
S'17366.1448693'
p1371
sba(igraph
Edge
p1372
(dp1373
g7
I1
sg8
I00
sg9
I5
sg10
(lp1374
g1368
a(igraph
Vertex
p1375
(dp1376
g14
F58.903225806451587
sg15
F-185.83333333333334
sg16
I4999959
sg8
I00
sg17
S'17365.2191144'
p1377
sg19
g20
sbasg24
I00
sg25
I00
sg26
I4998915
sg17
S'17366.1502294'
p1378
sba(igraph
Edge
p1379
(dp1380
g7
I1
sg8
I00
sg9
I5
sg10
(lp1381
g1375
a(igraph
Vertex
p1382
(dp1383
g14
F58.903225806451587
sg15
F-148.66666666666674
sg16
I4999960
sg8
I00
sg17
S'17365.2214494'
p1384
sg19
g20
sbasg24
I00
sg25
I00
sg26
I4998916
sg17
S'17366.1560575'
p1385
sba(igraph
Edge
p1386
(dp1387
g7
I1
sg8
I00
sg9
I5
sg10
(lp1388
g1382
a(igraph
Vertex
p1389
(dp1390
g14
F58.903225806451587
sg15
F-111.50000000000006
sg16
I4999961
sg8
I00
sg17
S'17365.223396'
p1391
sg19
g20
sbasg24
I00
sg25
I00
sg26
I4998917
sg17
S'17366.161979'
p1392
sba(igraph
Edge
p1393
(dp1394
g7
I1
sg8
I00
sg9
I5
sg10
(lp1395
g1389
a(igraph
Vertex
p1396
(dp1397
g14
F58.903225806451587
sg15
F-74.333333333333371
sg16
I4999962
sg8
I00
sg17
S'17365.2252602'
p1398
sg19
g20
sbasg24
I00
sg25
I00
sg26
I4998918
sg17
S'17366.1681311'
p1399
sba(igraph
Edge
p1400
(dp1401
g7
I1
sg8
I00
sg9
I5
sg10
(lp1402
g1396
a(igraph
Vertex
p1403
(dp1404
g14
F58.903225806451587
sg15
F-37.166666666666742
sg16
I4999963
sg8
I00
sg17
S'17365.227185'
p1405
sg19
g20
sbasg24
I00
sg25
I00
sg26
I4998919
sg17
S'17366.1745468'
p1406
sba(igraph
Edge
p1407
(dp1408
g7
I1
sg8
I00
sg9
I5
sg10
(lp1409
g1403
a(igraph
Vertex
p1410
(dp1411
g14
F58.903225806451587
sg15
F0.0
sg16
I4999964
sg8
I00
sg17
S'17365.2294708'
p1412
sg19
g20
sbasg24
I00
sg25
I00
sg26
I4998920
sg17
S'17366.1799497'
p1413
sba(igraph
Edge
p1414
(dp1415
g7
I1
sg8
I00
sg9
I5
sg10
(lp1416
g1410
a(igraph
Vertex
p1417
(dp1418
g14
F58.903225806451587
sg15
F37.166666666666686
sg16
I4999965
sg8
I00
sg17
S'17365.2314132'
p1419
sg19
g20
sbasg24
I00
sg25
I00
sg26
I4998921
sg17
S'17366.1850799'
p1420
sba(igraph
Edge
p1421
(dp1422
g7
I1
sg8
I00
sg9
I5
sg10
(lp1423
g1417
a(igraph
Vertex
p1424
(dp1425
g14
F58.903225806451587
sg15
F74.333333333333371
sg16
I4999966
sg8
I00
sg17
S'17365.2332769'
p1426
sg19
g20
sbasg24
I00
sg25
I00
sg26
I4998922
sg17
S'17366.189476'
p1427
sba(igraph
Edge
p1428
(dp1429
g7
I1
sg8
I00
sg9
I5
sg10
(lp1430
g1424
a(igraph
Vertex
p1431
(dp1432
g14
F58.903225806451587
sg15
F111.5
sg16
I4999967
sg8
I00
sg17
S'17365.2361158'
p1433
sg19
g20
sbasg24
I00
sg25
I00
sg26
I4998923
sg17
S'17366.1939503'
p1434
sba(igraph
Edge
p1435
(dp1436
g7
I1
sg8
I00
sg9
I5
sg10
(lp1437
g1431
a(igraph
Vertex
p1438
(dp1439
g14
F58.903225806451587
sg15
F148.66666666666669
sg16
I4999968
sg8
I00
sg17
S'17365.2381523'
p1440
sg19
g20
sbasg24
I00
sg25
I00
sg26
I4998924
sg17
S'17366.1987211'
p1441
sba(igraph
Edge
p1442
(dp1443
g7
I1
sg8
I00
sg9
I5
sg10
(lp1444
g1438
a(igraph
Vertex
p1445
(dp1446
g14
F58.903225806451587
sg15
F185.83333333333337
sg16
I4999969
sg8
I00
sg17
S'17365.240397'
p1447
sg19
g20
sbasg24
I00
sg25
I00
sg26
I4998925
sg17
S'17366.2031484'
p1448
sba(igraph
Edge
p1449
(dp1450
g7
I1
sg8
I00
sg9
I5
sg10
(lp1451
g1445
a(igraph
Vertex
p1452
(dp1453
g14
F58.903225806451587
sg15
F223.0
sg16
I4999970
sg8
I00
sg17
S'17365.2423601'
p1454
sg19
g20
sbasg24
I00
sg25
I00
sg26
I4998926
sg17
S'17366.2107701'
p1455
sba(igraph
Edge
p1456
(dp1457
g7
I1
sg8
I00
sg9
I5
sg10
(lp1458
g1452
a(igraph
Vertex
p1459
(dp1460
g14
F58.903225806451587
sg15
F260.16666666666663
sg16
I4999971
sg8
I00
sg17
S'17365.2442693'
p1461
sg19
g20
sbasg24
I00
sg25
I00
sg26
I4998927
sg17
S'17366.2152584'
p1462
sba(igraph
Edge
p1463
(dp1464
g7
I1
sg8
I00
sg9
I5
sg10
(lp1465
g1459
a(igraph
Vertex
p1466
(dp1467
g14
F58.903225806451587
sg15
F297.33333333333337
sg16
I4999972
sg8
I00
sg17
S'17365.2466777'
p1468
sg19
g20
sbasg24
I00
sg25
I00
sg26
I4998928
sg17
S'17366.2206968'
p1469
sba(igraph
Edge
p1470
(dp1471
g7
I1
sg8
I00
sg9
I5
sg10
(lp1472
g1466
a(igraph
Vertex
p1473
(dp1474
g14
F58.903225806451587
sg15
F334.5
sg16
I4999973
sg8
I00
sg17
S'17365.2489367'
p1475
sg19
g20
sbasg24
I00
sg25
I00
sg26
I4998929
sg17
S'17366.2252946'
p1476
sba(igraph
Edge
p1477
(dp1478
g7
I1
sg8
I00
sg9
I5
sg10
(lp1479
g1473
ag1351
asg24
I00
sg25
I00
sg26
I4998930
sg17
S'17366.2298099'
p1480
sba(igraph
Edge
p1481
(dp1482
g7
I1
sg8
I00
sg9
I5
sg10
(lp1483
(igraph
Vertex
p1484
(dp1485
g14
F98.172043010752645
sg15
F-334.5
sg16
I4999974
sg8
I00
sg17
S'17365.251425'
p1486
sg19
g20
sba(igraph
Vertex
p1487
(dp1488
g14
F98.172043010752645
sg15
F-297.33333333333331
sg16
I4999975
sg8
I00
sg17
S'17365.2542521'
p1489
sg19
g20
sbasg24
I00
sg25
I00
sg26
I4998931
sg17
S'17366.2343555'
p1490
sba(igraph
Edge
p1491
(dp1492
g7
I1
sg8
I00
sg9
I5
sg10
(lp1493
g1487
a(igraph
Vertex
p1494
(dp1495
g14
F98.172043010752645
sg15
F-260.16666666666663
sg16
I4999976
sg8
I00
sg17
S'17365.2584468'
p1496
sg19
g20
sbasg24
I00
sg25
I00
sg26
I4998932
sg17
S'17366.2390198'
p1497
sba(igraph
Edge
p1498
(dp1499
g7
I1
sg8
I00
sg9
I5
sg10
(lp1500
g1494
a(igraph
Vertex
p1501
(dp1502
g14
F98.172043010752645
sg15
F-223.00000000000003
sg16
I4999977
sg8
I00
sg17
S'17365.2603915'
p1503
sg19
g20
sbasg24
I00
sg25
I00
sg26
I4998933
sg17
S'17366.2436064'
p1504
sba(igraph
Edge
p1505
(dp1506
g7
I1
sg8
I00
sg9
I5
sg10
(lp1507
g1501
a(igraph
Vertex
p1508
(dp1509
g14
F98.172043010752645
sg15
F-185.83333333333334
sg16
I4999978
sg8
I00
sg17
S'17365.2624202'
p1510
sg19
g20
sbasg24
I00
sg25
I00
sg26
I4998934
sg17
S'17366.2482399'
p1511
sba(igraph
Edge
p1512
(dp1513
g7
I1
sg8
I00
sg9
I5
sg10
(lp1514
g1508
a(igraph
Vertex
p1515
(dp1516
g14
F98.172043010752645
sg15
F-148.66666666666674
sg16
I4999979
sg8
I00
sg17
S'17365.2644437'
p1517
sg19
g20
sbasg24
I00
sg25
I00
sg26
I4998935
sg17
S'17366.2528785'
p1518
sba(igraph
Edge
p1519
(dp1520
g7
I1
sg8
I00
sg9
I5
sg10
(lp1521
g1515
a(igraph
Vertex
p1522
(dp1523
g14
F98.172043010752645
sg15
F-111.50000000000006
sg16
I4999981
sg8
I01
sg17
S'17365.2665168'
p1524
sg19
I0
sbasg24
I00
sg25
I00
sg26
I4998936
sg17
S'17366.257597'
p1525
sba(igraph
Edge
p1526
(dp1527
g7
I1
sg8
I00
sg9
I5
sg10
(lp1528
g1522
a(igraph
Vertex
p1529
(dp1530
g14
F98.172043010752645
sg15
F-74.333333333333371
sg16
I4999983
sg8
I00
sg17
S'17365.2721273'
p1531
sg19
g20
sbasg24
I00
sg25
I00
sg26
I4998937
sg17
S'17366.2622881'
p1532
sba(igraph
Edge
p1533
(dp1534
g7
I1
sg8
I00
sg9
I5
sg10
(lp1535
g1529
a(igraph
Vertex
p1536
(dp1537
g14
F98.172043010752645
sg15
F-37.166666666666742
sg16
I4999984
sg8
I00
sg17
S'17365.274241'
p1538
sg19
g20
sbasg24
I00
sg25
I00
sg26
I4998938
sg17
S'17366.2669468'
p1539
sba(igraph
Edge
p1540
(dp1541
g7
I1
sg8
I00
sg9
I5
sg10
(lp1542
g1536
a(igraph
Vertex
p1543
(dp1544
g14
F98.172043010752645
sg15
F0.0
sg16
I4999985
sg8
I00
sg17
S'17365.2762541'
p1545
sg19
g20
sbasg24
I00
sg25
I00
sg26
I4998939
sg17
S'17366.2734177'
p1546
sba(igraph
Edge
p1547
(dp1548
g7
I1
sg8
I00
sg9
I5
sg10
(lp1549
g1543
a(igraph
Vertex
p1550
(dp1551
g14
F98.172043010752645
sg15
F37.166666666666686
sg16
I4999986
sg8
I00
sg17
S'17365.2792679'
p1552
sg19
g20
sbasg24
I00
sg25
I00
sg26
I4998940
sg17
S'17366.2781753'
p1553
sba(igraph
Edge
p1554
(dp1555
g7
I1
sg8
I00
sg9
I5
sg10
(lp1556
g1550
a(igraph
Vertex
p1557
(dp1558
g14
F98.172043010752645
sg15
F74.333333333333371
sg16
I4999987
sg8
I00
sg17
S'17365.2824482'
p1559
sg19
g20
sbasg24
I00
sg25
I00
sg26
I4998941
sg17
S'17366.2829874'
p1560
sba(igraph
Edge
p1561
(dp1562
g7
I1
sg8
I00
sg9
I5
sg10
(lp1563
g1557
a(igraph
Vertex
p1564
(dp1565
g14
F98.172043010752645
sg15
F111.5
sg16
I4999988
sg8
I00
sg17
S'17365.2851002'
p1566
sg19
g20
sbasg24
I00
sg25
I00
sg26
I4998942
sg17
S'17366.2878461'
p1567
sba(igraph
Edge
p1568
(dp1569
g7
I1
sg8
I00
sg9
I5
sg10
(lp1570
g1564
a(igraph
Vertex
p1571
(dp1572
g14
F98.172043010752645
sg15
F148.66666666666669
sg16
I4999989
sg8
I00
sg17
S'17365.2879536'
p1573
sg19
g20
sbasg24
I00
sg25
I00
sg26
I4998943
sg17
S'17366.2927981'
p1574
sba(igraph
Edge
p1575
(dp1576
g7
I1
sg8
I00
sg9
I5
sg10
(lp1577
g1571
a(igraph
Vertex
p1578
(dp1579
g14
F98.172043010752645
sg15
F185.83333333333337
sg16
I4999990
sg8
I00
sg17
S'17365.2910264'
p1580
sg19
g20
sbasg24
I00
sg25
I00
sg26
I4998944
sg17
S'17366.2976529'
p1581
sba(igraph
Edge
p1582
(dp1583
g7
I1
sg8
I00
sg9
I5
sg10
(lp1584
g1578
a(igraph
Vertex
p1585
(dp1586
g14
F98.172043010752645
sg15
F223.0
sg16
I4999991
sg8
I00
sg17
S'17365.294153'
p1587
sg19
g20
sbasg24
I00
sg25
I00
sg26
I4998945
sg17
S'17366.3026399'
p1588
sba(igraph
Edge
p1589
(dp1590
g7
I1
sg8
I00
sg9
I5
sg10
(lp1591
g1585
a(igraph
Vertex
p1592
(dp1593
g14
F98.172043010752645
sg15
F260.16666666666663
sg16
I4999992
sg8
I00
sg17
S'17365.2969931'
p1594
sg19
g20
sbasg24
I00
sg25
I00
sg26
I4998946
sg17
S'17366.3074681'
p1595
sba(igraph
Edge
p1596
(dp1597
g7
I1
sg8
I00
sg9
I5
sg10
(lp1598
g1592
a(igraph
Vertex
p1599
(dp1600
g14
F98.172043010752645
sg15
F297.33333333333337
sg16
I4999993
sg8
I00
sg17
S'17365.2997663'
p1601
sg19
g20
sbasg24
I00
sg25
I00
sg26
I4998947
sg17
S'17366.3123618'
p1602
sba(igraph
Edge
p1603
(dp1604
g7
I1
sg8
I00
sg9
I5
sg10
(lp1605
g1599
a(igraph
Vertex
p1606
(dp1607
g14
F98.172043010752645
sg15
F334.5
sg16
I4999994
sg8
I00
sg17
S'17365.3025513'
p1608
sg19
g20
sbasg24
I00
sg25
I00
sg26
I4998948
sg17
S'17366.3173733'
p1609
sba(igraph
Edge
p1610
(dp1611
g7
I1
sg8
I00
sg9
I5
sg10
(lp1612
g1606
ag1484
asg24
I00
sg25
I00
sg26
I4998949
sg17
S'17366.322379'
p1613
sba(igraph
Edge
p1614
(dp1615
g7
I1
sg8
I00
sg9
I5
sg10
(lp1616
(igraph
Vertex
p1617
(dp1618
g14
F137.44086021505382
sg15
F-334.5
sg16
I4999995
sg8
I00
sg17
S'17365.305272'
p1619
sg19
g20
sba(igraph
Vertex
p1620
(dp1621
g14
F137.44086021505382
sg15
F-297.33333333333331
sg16
I4999996
sg8
I00
sg17
S'17365.3080922'
p1622
sg19
g20
sbasg24
I00
sg25
I00
sg26
I4998950
sg17
S'17366.3273156'
p1623
sba(igraph
Edge
p1624
(dp1625
g7
I1
sg8
I00
sg9
I5
sg10
(lp1626
g1620
a(igraph
Vertex
p1627
(dp1628
g14
F137.44086021505382
sg15
F-260.16666666666663
sg16
I4999997
sg8
I00
sg17
S'17365.3110253'
p1629
sg19
g20
sbasg24
I00
sg25
I00
sg26
I4998951
sg17
S'17366.3323604'
p1630
sba(igraph
Edge
p1631
(dp1632
g7
I1
sg8
I00
sg9
I5
sg10
(lp1633
g1627
a(igraph
Vertex
p1634
(dp1635
g14
F137.44086021505382
sg15
F-223.00000000000003
sg16
I4999998
sg8
I00
sg17
S'17365.3142925'
p1636
sg19
g20
sbasg24
I00
sg25
I00
sg26
I4998952
sg17
S'17366.3374786'
p1637
sba(igraph
Edge
p1638
(dp1639
g7
I1
sg8
I00
sg9
I5
sg10
(lp1640
g1634
a(igraph
Vertex
p1641
(dp1642
g14
F137.44086021505382
sg15
F-185.83333333333334
sg16
I5000000
sg8
I01
sg17
S'17365.3170202'
p1643
sg19
I0
sbasg24
I00
sg25
I00
sg26
I4998953
sg17
S'17366.3425634'
p1644
sba(igraph
Edge
p1645
(dp1646
g7
I1
sg8
I00
sg9
I5
sg10
(lp1647
g1641
a(igraph
Vertex
p1648
(dp1649
g14
F137.44086021505382
sg15
F-148.66666666666674
sg16
I5000002
sg8
I00
sg17
S'17365.3198485'
p1650
sg19
g20
sbasg24
I00
sg25
I00
sg26
I4998954
sg17
S'17366.3476582'
p1651
sba(igraph
Edge
p1652
(dp1653
g7
I1
sg8
I00
sg9
I5
sg10
(lp1654
g1648
a(igraph
Vertex
p1655
(dp1656
g14
F137.44086021505382
sg15
F-111.50000000000006
sg16
I5000003
sg8
I00
sg17
S'17365.3227497'
p1657
sg19
g20
sbasg24
I00
sg25
I00
sg26
I4998955
sg17
S'17366.3527189'
p1658
sba(igraph
Edge
p1659
(dp1660
g7
I1
sg8
I00
sg9
I5
sg10
(lp1661
g1655
a(igraph
Vertex
p1662
(dp1663
g14
F137.44086021505382
sg15
F-74.333333333333371
sg16
I5000004
sg8
I00
sg17
S'17365.3260029'
p1664
sg19
g20
sbasg24
I00
sg25
I00
sg26
I4998956
sg17
S'17366.3578346'
p1665
sba(igraph
Edge
p1666
(dp1667
g7
I1
sg8
I00
sg9
I5
sg10
(lp1668
g1662
a(igraph
Vertex
p1669
(dp1670
g14
F137.44086021505382
sg15
F-37.166666666666742
sg16
I5000005
sg8
I00
sg17
S'17365.3287312'
p1671
sg19
g20
sbasg24
I00
sg25
I00
sg26
I4998957
sg17
S'17366.3631878'
p1672
sba(igraph
Edge
p1673
(dp1674
g7
I1
sg8
I00
sg9
I5
sg10
(lp1675
g1669
a(igraph
Vertex
p1676
(dp1677
g14
F137.44086021505382
sg15
F0.0
sg16
I5000006
sg8
I00
sg17
S'17365.3310711'
p1678
sg19
g20
sbasg24
I00
sg25
I00
sg26
I4998958
sg17
S'17366.3685499'
p1679
sba(igraph
Edge
p1680
(dp1681
g7
I1
sg8
I00
sg9
I5
sg10
(lp1682
g1676
a(igraph
Vertex
p1683
(dp1684
g14
F137.44086021505382
sg15
F37.166666666666686
sg16
I5000007
sg8
I00
sg17
S'17365.3343137'
p1685
sg19
g20
sbasg24
I00
sg25
I00
sg26
I4998959
sg17
S'17366.3737196'
p1686
sba(igraph
Edge
p1687
(dp1688
g7
I1
sg8
I00
sg9
I5
sg10
(lp1689
g1683
a(igraph
Vertex
p1690
(dp1691
g14
F137.44086021505382
sg15
F74.333333333333371
sg16
I5000008
sg8
I00
sg17
S'17365.336633'
p1692
sg19
g20
sbasg24
I00
sg25
I00
sg26
I4998960
sg17
S'17366.3790613'
p1693
sba(igraph
Edge
p1694
(dp1695
g7
I1
sg8
I00
sg9
I5
sg10
(lp1696
g1690
a(igraph
Vertex
p1697
(dp1698
g14
F137.44086021505382
sg15
F111.5
sg16
I5000009
sg8
I00
sg17
S'17365.3390132'
p1699
sg19
g20
sbasg24
I00
sg25
I00
sg26
I4998961
sg17
S'17366.3842664'
p1700
sba(igraph
Edge
p1701
(dp1702
g7
I1
sg8
I00
sg9
I5
sg10
(lp1703
g1697
a(igraph
Vertex
p1704
(dp1705
g14
F137.44086021505382
sg15
F148.66666666666669
sg16
I5000010
sg8
I00
sg17
S'17365.3418068'
p1706
sg19
g20
sbasg24
I00
sg25
I00
sg26
I4998962
sg17
S'17366.3895244'
p1707
sba(igraph
Edge
p1708
(dp1709
g7
I1
sg8
I00
sg9
I5
sg10
(lp1710
g1704
a(igraph
Vertex
p1711
(dp1712
g14
F137.44086021505382
sg15
F185.83333333333337
sg16
I5000011
sg8
I00
sg17
S'17365.3443943'
p1713
sg19
g20
sbasg24
I00
sg25
I00
sg26
I4998963
sg17
S'17366.3948605'
p1714
sba(igraph
Edge
p1715
(dp1716
g7
I1
sg8
I00
sg9
I5
sg10
(lp1717
g1711
a(igraph
Vertex
p1718
(dp1719
g14
F137.44086021505382
sg15
F223.0
sg16
I5000012
sg8
I00
sg17
S'17365.3471774'
p1720
sg19
g20
sbasg24
I00
sg25
I00
sg26
I4998964
sg17
S'17366.4001307'
p1721
sba(igraph
Edge
p1722
(dp1723
g7
I1
sg8
I00
sg9
I5
sg10
(lp1724
g1718
a(igraph
Vertex
p1725
(dp1726
g14
F137.44086021505382
sg15
F260.16666666666663
sg16
I5000013
sg8
I00
sg17
S'17365.3495374'
p1727
sg19
g20
sbasg24
I00
sg25
I00
sg26
I4998965
sg17
S'17366.4055331'
p1728
sba(igraph
Edge
p1729
(dp1730
g7
I1
sg8
I00
sg9
I5
sg10
(lp1731
g1725
a(igraph
Vertex
p1732
(dp1733
g14
F137.44086021505382
sg15
F297.33333333333337
sg16
I5000014
sg8
I00
sg17
S'17365.3521721'
p1734
sg19
g20
sbasg24
I00
sg25
I00
sg26
I4998966
sg17
S'17366.4109556'
p1735
sba(igraph
Edge
p1736
(dp1737
g7
I1
sg8
I00
sg9
I5
sg10
(lp1738
g1732
a(igraph
Vertex
p1739
(dp1740
g14
F137.44086021505382
sg15
F334.5
sg16
I5000015
sg8
I00
sg17
S'17365.3545269'
p1741
sg19
g20
sbasg24
I00
sg25
I00
sg26
I4998967
sg17
S'17366.4163088'
p1742
sba(igraph
Edge
p1743
(dp1744
g7
I1
sg8
I00
sg9
I5
sg10
(lp1745
g1739
ag1617
asg24
I00
sg25
I00
sg26
I4998968
sg17
S'17366.4217047'
p1746
sba(igraph
Edge
p1747
(dp1748
g7
I1
sg8
I00
sg9
I5
sg10
(lp1749
(igraph
Vertex
p1750
(dp1751
g14
F176.70967741935482
sg15
F-334.5
sg16
I5000016
sg8
I00
sg17
S'17365.3569266'
p1752
sg19
g20
sba(igraph
Vertex
p1753
(dp1754
g14
F176.70967741935482
sg15
F-297.33333333333331
sg16
I5000017
sg8
I00
sg17
S'17365.3594532'
p1755
sg19
g20
sbasg24
I00
sg25
I00
sg26
I4998969
sg17
S'17366.4273431'
p1756
sba(igraph
Edge
p1757
(dp1758
g7
I1
sg8
I00
sg9
I5
sg10
(lp1759
g1753
a(igraph
Vertex
p1760
(dp1761
g14
F176.70967741935482
sg15
F-260.16666666666663
sg16
I5000018
sg8
I00
sg17
S'17365.3627604'
p1762
sg19
g20
sbasg24
I00
sg25
I00
sg26
I4998970
sg17
S'17366.4326924'
p1763
sba(igraph
Edge
p1764
(dp1765
g7
I1
sg8
I00
sg9
I5
sg10
(lp1766
g1760
a(igraph
Vertex
p1767
(dp1768
g14
F176.70967741935482
sg15
F-223.00000000000003
sg16
I5000019
sg8
I00
sg17
S'17365.3651224'
p1769
sg19
g20
sbasg24
I00
sg25
I00
sg26
I4998971
sg17
S'17366.4381325'
p1770
sba(igraph
Edge
p1771
(dp1772
g7
I1
sg8
I00
sg9
I5
sg10
(lp1773
g1767
a(igraph
Vertex
p1774
(dp1775
g14
F176.70967741935482
sg15
F-185.83333333333334
sg16
I5000020
sg8
I00
sg17
S'17365.3675668'
p1776
sg19
g20
sbasg24
I00
sg25
I00
sg26
I4998972
sg17
S'17366.4436117'
p1777
sba(igraph
Edge
p1778
(dp1779
g7
I1
sg8
I00
sg9
I5
sg10
(lp1780
g1774
a(igraph
Vertex
p1781
(dp1782
g14
F176.70967741935482
sg15
F-148.66666666666674
sg16
I5000021
sg8
I00
sg17
S'17365.3700018'
p1783
sg19
g20
sbasg24
I00
sg25
I00
sg26
I4998973
sg17
S'17366.4490372'
p1784
sba(igraph
Edge
p1785
(dp1786
g7
I1
sg8
I00
sg9
I5
sg10
(lp1787
g1781
a(igraph
Vertex
p1788
(dp1789
g14
F176.70967741935482
sg15
F-111.50000000000006
sg16
I5000022
sg8
I00
sg17
S'17365.3724571'
p1790
sg19
g20
sbasg24
I00
sg25
I00
sg26
I4998974
sg17
S'17366.4550444'
p1791
sba(igraph
Edge
p1792
(dp1793
g7
I1
sg8
I00
sg9
I5
sg10
(lp1794
g1788
a(igraph
Vertex
p1795
(dp1796
g14
F176.70967741935482
sg15
F-74.333333333333371
sg16
I5000023
sg8
I00
sg17
S'17365.3750192'
p1797
sg19
g20
sbasg24
I00
sg25
I00
sg26
I4998975
sg17
S'17366.4605342'
p1798
sba(igraph
Edge
p1799
(dp1800
g7
I1
sg8
I00
sg9
I5
sg10
(lp1801
g1795
a(igraph
Vertex
p1802
(dp1803
g14
F176.70967741935482
sg15
F-37.166666666666742
sg16
I5000024
sg8
I00
sg17
S'17365.3774279'
p1804
sg19
g20
sbasg24
I00
sg25
I00
sg26
I4998976
sg17
S'17366.4660548'
p1805
sba(igraph
Edge
p1806
(dp1807
g7
I1
sg8
I00
sg9
I5
sg10
(lp1808
g1802
a(igraph
Vertex
p1809
(dp1810
g14
F176.70967741935482
sg15
F0.0
sg16
I5000025
sg8
I00
sg17
S'17365.3805425'
p1811
sg19
g20
sbasg24
I00
sg25
I00
sg26
I4998977
sg17
S'17366.4715502'
p1812
sba(igraph
Edge
p1813
(dp1814
g7
I1
sg8
I00
sg9
I5
sg10
(lp1815
g1809
a(igraph
Vertex
p1816
(dp1817
g14
F176.70967741935482
sg15
F37.166666666666686
sg16
I5000026
sg8
I00
sg17
S'17365.3832294'
p1818
sg19
g20
sbasg24
I00
sg25
I00
sg26
I4998978
sg17
S'17366.477152'
p1819
sba(igraph
Edge
p1820
(dp1821
g7
I1
sg8
I00
sg9
I5
sg10
(lp1822
g1816
a(igraph
Vertex
p1823
(dp1824
g14
F176.70967741935482
sg15
F74.333333333333371
sg16
I5000027
sg8
I00
sg17
S'17365.3858887'
p1825
sg19
g20
sbasg24
I00
sg25
I00
sg26
I4998979
sg17
S'17366.48286'
p1826
sba(igraph
Edge
p1827
(dp1828
g7
I1
sg8
I00
sg9
I5
sg10
(lp1829
g1823
a(igraph
Vertex
p1830
(dp1831
g14
F176.70967741935482
sg15
F111.5
sg16
I5000028
sg8
I00
sg17
S'17365.3883759'
p1832
sg19
g20
sbasg24
I00
sg25
I00
sg26
I4998980
sg17
S'17366.4886258'
p1833
sba(igraph
Edge
p1834
(dp1835
g7
I1
sg8
I00
sg9
I5
sg10
(lp1836
g1830
a(igraph
Vertex
p1837
(dp1838
g14
F176.70967741935482
sg15
F148.66666666666669
sg16
I5000029
sg8
I00
sg17
S'17365.3916858'
p1839
sg19
g20
sbasg24
I00
sg25
I00
sg26
I4998981
sg17
S'17366.4943025'
p1840
sba(igraph
Edge
p1841
(dp1842
g7
I1
sg8
I00
sg9
I5
sg10
(lp1843
g1837
a(igraph
Vertex
p1844
(dp1845
g14
F176.70967741935482
sg15
F185.83333333333337
sg16
I5000030
sg8
I00
sg17
S'17365.3943255'
p1846
sg19
g20
sbasg24
I00
sg25
I00
sg26
I4998982
sg17
S'17366.5000434'
p1847
sba(igraph
Edge
p1848
(dp1849
g7
I1
sg8
I00
sg9
I5
sg10
(lp1850
g1844
a(igraph
Vertex
p1851
(dp1852
g14
F176.70967741935482
sg15
F223.0
sg16
I5000031
sg8
I00
sg17
S'17365.3968817'
p1853
sg19
g20
sbasg24
I00
sg25
I00
sg26
I4998983
sg17
S'17366.5058559'
p1854
sba(igraph
Edge
p1855
(dp1856
g7
I1
sg8
I00
sg9
I5
sg10
(lp1857
g1851
a(igraph
Vertex
p1858
(dp1859
g14
F176.70967741935482
sg15
F260.16666666666663
sg16
I5000032
sg8
I00
sg17
S'17365.3997447'
p1860
sg19
g20
sbasg24
I00
sg25
I00
sg26
I4998984
sg17
S'17366.5116513'
p1861
sba(igraph
Edge
p1862
(dp1863
g7
I1
sg8
I00
sg9
I5
sg10
(lp1864
g1858
a(igraph
Vertex
p1865
(dp1866
g14
F176.70967741935482
sg15
F297.33333333333337
sg16
I5000033
sg8
I00
sg17
S'17365.4023171'
p1867
sg19
g20
sbasg24
I00
sg25
I00
sg26
I4998985
sg17
S'17366.5174057'
p1868
sba(igraph
Edge
p1869
(dp1870
g7
I1
sg8
I00
sg9
I5
sg10
(lp1871
g1865
a(igraph
Vertex
p1872
(dp1873
g14
F176.70967741935482
sg15
F334.5
sg16
I5000034
sg8
I00
sg17
S'17365.4051196'
p1874
sg19
g20
sbasg24
I00
sg25
I00
sg26
I4998986
sg17
S'17366.5231612'
p1875
sba(igraph
Edge
p1876
(dp1877
g7
I1
sg8
I00
sg9
I5
sg10
(lp1878
g1872
ag1750
asg24
I00
sg25
I00
sg26
I4998987
sg17
S'17366.5289141'
p1879
sba(igraph
Edge
p1880
(dp1881
g7
I1
sg8
I00
sg9
I5
sg10
(lp1882
(igraph
Vertex
p1883
(dp1884
g14
F215.97849462365588
sg15
F-334.5
sg16
I5000035
sg8
I00
sg17
S'17365.4084921'
p1885
sg19
g20
sba(igraph
Vertex
p1886
(dp1887
g14
F215.97849462365588
sg15
F-297.33333333333331
sg16
I5000036
sg8
I00
sg17
S'17365.4130503'
p1888
sg19
g20
sbasg24
I00
sg25
I00
sg26
I4998988
sg17
S'17366.534704'
p1889
sba(igraph
Edge
p1890
(dp1891
g7
I1
sg8
I00
sg9
I5
sg10
(lp1892
g1886
a(igraph
Vertex
p1893
(dp1894
g14
F215.97849462365588
sg15
F-260.16666666666663
sg16
I5000037
sg8
I00
sg17
S'17365.416996'
p1895
sg19
g20
sbasg24
I00
sg25
I00
sg26
I4998989
sg17
S'17366.5405709'
p1896
sba(igraph
Edge
p1897
(dp1898
g7
I1
sg8
I00
sg9
I5
sg10
(lp1899
g1893
a(igraph
Vertex
p1900
(dp1901
g14
F215.97849462365588
sg15
F-223.00000000000003
sg16
I5000039
sg8
I01
sg17
S'17365.4211315'
p1902
sg19
I0
sbasg24
I00
sg25
I00
sg26
I4998990
sg17
S'17366.54701'
p1903
sba(igraph
Edge
p1904
(dp1905
g7
I1
sg8
I00
sg9
I5
sg10
(lp1906
g1900
a(igraph
Vertex
p1907
(dp1908
g14
F215.97849462365588
sg15
F-185.83333333333334
sg16
I5000041
sg8
I00
sg17
S'17365.4250719'
p1909
sg19
g20
sbasg24
I00
sg25
I00
sg26
I4998991
sg17
S'17366.5529594'
p1910
sba(igraph
Edge
p1911
(dp1912
g7
I1
sg8
I00
sg9
I5
sg10
(lp1913
g1907
a(igraph
Vertex
p1914
(dp1915
g14
F215.97849462365588
sg15
F-148.66666666666674
sg16
I5000042
sg8
I00
sg17
S'17365.4292593'
p1916
sg19
g20
sbasg24
I00
sg25
I00
sg26
I4998992
sg17
S'17366.5587425'
p1917
sba(igraph
Edge
p1918
(dp1919
g7
I1
sg8
I00
sg9
I5
sg10
(lp1920
g1914
a(igraph
Vertex
p1921
(dp1922
g14
F215.97849462365588
sg15
F-111.50000000000006
sg16
I5000043
sg8
I00
sg17
S'17365.4335741'
p1923
sg19
g20
sbasg24
I00
sg25
I00
sg26
I4998993
sg17
S'17366.5646441'
p1924
sba(igraph
Edge
p1925
(dp1926
g7
I1
sg8
I00
sg9
I5
sg10
(lp1927
g1921
a(igraph
Vertex
p1928
(dp1929
g14
F215.97849462365588
sg15
F-74.333333333333371
sg16
I5000044
sg8
I00
sg17
S'17365.43804'
p1930
sg19
g20
sbasg24
I00
sg25
I00
sg26
I4998994
sg17
S'17366.5705795'
p1931
sba(igraph
Edge
p1932
(dp1933
g7
I1
sg8
I00
sg9
I5
sg10
(lp1934
g1928
a(igraph
Vertex
p1935
(dp1936
g14
F215.97849462365588
sg15
F-37.166666666666742
sg16
I5000045
sg8
I00
sg17
S'17365.4420984'
p1937
sg19
g20
sbasg24
I00
sg25
I00
sg26
I4998995
sg17
S'17366.576518'
p1938
sba(igraph
Edge
p1939
(dp1940
g7
I1
sg8
I00
sg9
I5
sg10
(lp1941
g1935
a(igraph
Vertex
p1942
(dp1943
g14
F215.97849462365588
sg15
F0.0
sg16
I5000046
sg8
I00
sg17
S'17365.4458544'
p1944
sg19
g20
sbasg24
I00
sg25
I00
sg26
I4998996
sg17
S'17366.5826819'
p1945
sba(igraph
Edge
p1946
(dp1947
g7
I1
sg8
I00
sg9
I5
sg10
(lp1948
g1942
a(igraph
Vertex
p1949
(dp1950
g14
F215.97849462365588
sg15
F37.166666666666686
sg16
I5000047
sg8
I00
sg17
S'17365.4500027'
p1951
sg19
g20
sbasg24
I00
sg25
I00
sg26
I4998997
sg17
S'17366.5886578'
p1952
sba(igraph
Edge
p1953
(dp1954
g7
I1
sg8
I00
sg9
I5
sg10
(lp1955
g1949
a(igraph
Vertex
p1956
(dp1957
g14
F215.97849462365588
sg15
F74.333333333333371
sg16
I5000048
sg8
I00
sg17
S'17365.4547028'
p1958
sg19
g20
sbasg24
I00
sg25
I00
sg26
I4998998
sg17
S'17366.594649'
p1959
sba(igraph
Edge
p1960
(dp1961
g7
I1
sg8
I00
sg9
I5
sg10
(lp1962
g1956
a(igraph
Vertex
p1963
(dp1964
g14
F215.97849462365588
sg15
F111.5
sg16
I5000049
sg8
I00
sg17
S'17365.4591449'
p1965
sg19
g20
sbasg24
I00
sg25
I00
sg26
I4998999
sg17
S'17366.6006149'
p1966
sba(igraph
Edge
p1967
(dp1968
g7
I1
sg8
I00
sg9
I5
sg10
(lp1969
g1963
a(igraph
Vertex
p1970
(dp1971
g14
F215.97849462365588
sg15
F148.66666666666669
sg16
I5000050
sg8
I00
sg17
S'17365.4626694'
p1972
sg19
g20
sbasg24
I00
sg25
I00
sg26
I4999000
sg17
S'17366.6067506'
p1973
sba(igraph
Edge
p1974
(dp1975
g7
I1
sg8
I00
sg9
I5
sg10
(lp1976
g1970
a(igraph
Vertex
p1977
(dp1978
g14
F215.97849462365588
sg15
F185.83333333333337
sg16
I5000051
sg8
I00
sg17
S'17365.4663735'
p1979
sg19
g20
sbasg24
I00
sg25
I00
sg26
I4999001
sg17
S'17366.6129321'
p1980
sba(igraph
Edge
p1981
(dp1982
g7
I1
sg8
I00
sg9
I5
sg10
(lp1983
g1977
a(igraph
Vertex
p1984
(dp1985
g14
F215.97849462365588
sg15
F223.0
sg16
I5000052
sg8
I00
sg17
S'17365.4691392'
p1986
sg19
g20
sbasg24
I00
sg25
I00
sg26
I4999002
sg17
S'17366.6190454'
p1987
sba(igraph
Edge
p1988
(dp1989
g7
I1
sg8
I00
sg9
I5
sg10
(lp1990
g1984
a(igraph
Vertex
p1991
(dp1992
g14
F215.97849462365588
sg15
F260.16666666666663
sg16
I5000053
sg8
I00
sg17
S'17365.4728973'
p1993
sg19
g20
sbasg24
I00
sg25
I00
sg26
I4999003
sg17
S'17366.6251253'
p1994
sba(igraph
Edge
p1995
(dp1996
g7
I1
sg8
I00
sg9
I5
sg10
(lp1997
g1991
a(igraph
Vertex
p1998
(dp1999
g14
F215.97849462365588
sg15
F297.33333333333337
sg16
I5000054
sg8
I00
sg17
S'17365.4764245'
p2000
sg19
g20
sbasg24
I00
sg25
I00
sg26
I4999004
sg17
S'17366.6313962'
p2001
sba(igraph
Edge
p2002
(dp2003
g7
I1
sg8
I00
sg9
I5
sg10
(lp2004
g1998
a(igraph
Vertex
p2005
(dp2006
g14
F215.97849462365588
sg15
F334.5
sg16
I5000055
sg8
I00
sg17
S'17365.4799688'
p2007
sg19
g20
sbasg24
I00
sg25
I00
sg26
I4999005
sg17
S'17366.6375788'
p2008
sba(igraph
Edge
p2009
(dp2010
g7
I1
sg8
I00
sg9
I5
sg10
(lp2011
g2005
ag1883
asg24
I00
sg25
I00
sg26
I4999006
sg17
S'17366.6438547'
p2012
sba(igraph
Edge
p2013
(dp2014
g7
I1
sg8
I00
sg9
I5
sg10
(lp2015
(igraph
Vertex
p2016
(dp2017
g14
F255.24731182795693
sg15
F-334.5
sg16
I5000056
sg8
I00
sg17
S'17365.4829281'
p2018
sg19
g20
sba(igraph
Vertex
p2019
(dp2020
g14
F255.24731182795693
sg15
F-297.33333333333331
sg16
I5000058
sg8
I01
sg17
S'17365.4863425'
p2021
sg19
I0
sbasg24
I00
sg25
I00
sg26
I4999007
sg17
S'17366.6501639'
p2022
sba(igraph
Edge
p2023
(dp2024
g7
I1
sg8
I00
sg9
I5
sg10
(lp2025
g2019
a(igraph
Vertex
p2026
(dp2027
g14
F255.24731182795693
sg15
F-260.16666666666663
sg16
I5000060
sg8
I00
sg17
S'17365.4893429'
p2028
sg19
g20
sbasg24
I00
sg25
I00
sg26
I4999008
sg17
S'17366.6565326'
p2029
sba(igraph
Edge
p2030
(dp2031
g7
I1
sg8
I00
sg9
I5
sg10
(lp2032
g2026
a(igraph
Vertex
p2033
(dp2034
g14
F255.24731182795693
sg15
F-223.00000000000003
sg16
I5000061
sg8
I00
sg17
S'17365.4922983'
p2035
sg19
g20
sbasg24
I00
sg25
I00
sg26
I4999009
sg17
S'17366.6628393'
p2036
sba(igraph
Edge
p2037
(dp2038
g7
I1
sg8
I00
sg9
I5
sg10
(lp2039
g2033
a(igraph
Vertex
p2040
(dp2041
g14
F255.24731182795693
sg15
F-185.83333333333334
sg16
I5000062
sg8
I00
sg17
S'17365.4955702'
p2042
sg19
g20
sbasg24
I00
sg25
I00
sg26
I4999010
sg17
S'17366.6693904'
p2043
sba(igraph
Edge
p2044
(dp2045
g7
I1
sg8
I00
sg9
I5
sg10
(lp2046
g2040
a(igraph
Vertex
p2047
(dp2048
g14
F255.24731182795693
sg15
F-148.66666666666674
sg16
I5000063
sg8
I00
sg17
S'17365.4987321'
p2049
sg19
g20
sbasg24
I00
sg25
I00
sg26
I4999011
sg17
S'17366.6758099'
p2050
sba(igraph
Edge
p2051
(dp2052
g7
I1
sg8
I00
sg9
I5
sg10
(lp2053
g2047
a(igraph
Vertex
p2054
(dp2055
g14
F255.24731182795693
sg15
F-111.50000000000006
sg16
I5000064
sg8
I00
sg17
S'17365.501887'
p2056
sg19
g20
sbasg24
I00
sg25
I00
sg26
I4999012
sg17
S'17366.6821624'
p2057
sba(igraph
Edge
p2058
(dp2059
g7
I1
sg8
I00
sg9
I5
sg10
(lp2060
g2054
a(igraph
Vertex
p2061
(dp2062
g14
F255.24731182795693
sg15
F-74.333333333333371
sg16
I5000065
sg8
I00
sg17
S'17365.5049653'
p2063
sg19
g20
sbasg24
I00
sg25
I00
sg26
I4999013
sg17
S'17366.6886761'
p2064
sba(igraph
Edge
p2065
(dp2066
g7
I1
sg8
I00
sg9
I5
sg10
(lp2067
g2061
a(igraph
Vertex
p2068
(dp2069
g14
F255.24731182795693
sg15
F-37.166666666666742
sg16
I5000066
sg8
I00
sg17
S'17365.5084342'
p2070
sg19
g20
sbasg24
I00
sg25
I00
sg26
I4999014
sg17
S'17366.6951951'
p2071
sba(igraph
Edge
p2072
(dp2073
g7
I1
sg8
I00
sg9
I5
sg10
(lp2074
g2068
a(igraph
Vertex
p2075
(dp2076
g14
F255.24731182795693
sg15
F0.0
sg16
I5000067
sg8
I00
sg17
S'17365.5114815'
p2077
sg19
g20
sbasg24
I00
sg25
I00
sg26
I4999015
sg17
S'17366.701573'
p2078
sba(igraph
Edge
p2079
(dp2080
g7
I1
sg8
I00
sg9
I5
sg10
(lp2081
g2075
a(igraph
Vertex
p2082
(dp2083
g14
F255.24731182795693
sg15
F37.166666666666686
sg16
I5000068
sg8
I00
sg17
S'17365.5145352'
p2084
sg19
g20
sbasg24
I00
sg25
I00
sg26
I4999016
sg17
S'17366.7080727'
p2085
sba(igraph
Edge
p2086
(dp2087
g7
I1
sg8
I00
sg9
I5
sg10
(lp2088
g2082
a(igraph
Vertex
p2089
(dp2090
g14
F255.24731182795693
sg15
F74.333333333333371
sg16
I5000069
sg8
I00
sg17
S'17365.5194305'
p2091
sg19
g20
sbasg24
I00
sg25
I00
sg26
I4999017
sg17
S'17366.7146333'
p2092
sba(igraph
Edge
p2093
(dp2094
g7
I1
sg8
I00
sg9
I5
sg10
(lp2095
g2089
a(igraph
Vertex
p2096
(dp2097
g14
F255.24731182795693
sg15
F111.5
sg16
I5000070
sg8
I00
sg17
S'17365.5224332'
p2098
sg19
g20
sbasg24
I00
sg25
I00
sg26
I4999018
sg17
S'17366.7217001'
p2099
sba(igraph
Edge
p2100
(dp2101
g7
I1
sg8
I00
sg9
I5
sg10
(lp2102
g2096
a(igraph
Vertex
p2103
(dp2104
g14
F255.24731182795693
sg15
F148.66666666666669
sg16
I5000071
sg8
I00
sg17
S'17365.5259124'
p2105
sg19
g20
sbasg24
I00
sg25
I00
sg26
I4999019
sg17
S'17366.7281395'
p2106
sba(igraph
Edge
p2107
(dp2108
g7
I1
sg8
I00
sg9
I5
sg10
(lp2109
g2103
a(igraph
Vertex
p2110
(dp2111
g14
F255.24731182795693
sg15
F185.83333333333337
sg16
I5000072
sg8
I00
sg17
S'17365.5291477'
p2112
sg19
g20
sbasg24
I00
sg25
I00
sg26
I4999020
sg17
S'17366.7347289'
p2113
sba(igraph
Edge
p2114
(dp2115
g7
I1
sg8
I00
sg9
I5
sg10
(lp2116
g2110
a(igraph
Vertex
p2117
(dp2118
g14
F255.24731182795693
sg15
F223.0
sg16
I5000073
sg8
I00
sg17
S'17365.532078'
p2119
sg19
g20
sbasg24
I00
sg25
I00
sg26
I4999021
sg17
S'17366.7413104'
p2120
sba(igraph
Edge
p2121
(dp2122
g7
I1
sg8
I00
sg9
I5
sg10
(lp2123
g2117
a(igraph
Vertex
p2124
(dp2125
g14
F255.24731182795693
sg15
F260.16666666666663
sg16
I5000074
sg8
I00
sg17
S'17365.5360181'
p2126
sg19
g20
sbasg24
I00
sg25
I00
sg26
I4999022
sg17
S'17366.7478219'
p2127
sba(igraph
Edge
p2128
(dp2129
g7
I1
sg8
I00
sg9
I5
sg10
(lp2130
g2124
a(igraph
Vertex
p2131
(dp2132
g14
F255.24731182795693
sg15
F297.33333333333337
sg16
I5000075
sg8
I00
sg17
S'17365.5396152'
p2133
sg19
g20
sbasg24
I00
sg25
I00
sg26
I4999023
sg17
S'17366.7544587'
p2134
sba(igraph
Edge
p2135
(dp2136
g7
I1
sg8
I00
sg9
I5
sg10
(lp2137
g2131
a(igraph
Vertex
p2138
(dp2139
g14
F255.24731182795693
sg15
F334.5
sg16
I5000076
sg8
I00
sg17
S'17365.5426793'
p2140
sg19
g20
sbasg24
I00
sg25
I00
sg26
I4999024
sg17
S'17366.761073'
p2141
sba(igraph
Edge
p2142
(dp2143
g7
I1
sg8
I00
sg9
I5
sg10
(lp2144
g2138
ag2016
asg24
I00
sg25
I00
sg26
I4999025
sg17
S'17366.7691198'
p2145
sba(igraph
Edge
p2146
(dp2147
g7
I1
sg8
I00
sg9
I5
sg10
(lp2148
(igraph
Vertex
p2149
(dp2150
g14
F294.51612903225811
sg15
F-334.5
sg16
I5000077
sg8
I00
sg17
S'17365.5467863'
p2151
sg19
g20
sba(igraph
Vertex
p2152
(dp2153
g14
F294.51612903225811
sg15
F-297.33333333333331
sg16
I5000078
sg8
I00
sg17
S'17365.5501797'
p2154
sg19
g20
sbasg24
I00
sg25
I00
sg26
I4999026
sg17
S'17366.775886'
p2155
sba(igraph
Edge
p2156
(dp2157
g7
I1
sg8
I00
sg9
I5
sg10
(lp2158
g2152
a(igraph
Vertex
p2159
(dp2160
g14
F294.51612903225811
sg15
F-260.16666666666663
sg16
I5000079
sg8
I00
sg17
S'17365.5531717'
p2161
sg19
g20
sbasg24
I00
sg25
I00
sg26
I4999027
sg17
S'17366.7827034'
p2162
sba(igraph
Edge
p2163
(dp2164
g7
I1
sg8
I00
sg9
I5
sg10
(lp2165
g2159
a(igraph
Vertex
p2166
(dp2167
g14
F294.51612903225811
sg15
F-223.00000000000003
sg16
I5000080
sg8
I00
sg17
S'17365.5571881'
p2168
sg19
g20
sbasg24
I00
sg25
I00
sg26
I4999028
sg17
S'17366.7894587'
p2169
sba(igraph
Edge
p2170
(dp2171
g7
I1
sg8
I00
sg9
I5
sg10
(lp2172
g2166
a(igraph
Vertex
p2173
(dp2174
g14
F294.51612903225811
sg15
F-185.83333333333334
sg16
I5000081
sg8
I00
sg17
S'17365.5604014'
p2175
sg19
g20
sbasg24
I00
sg25
I00
sg26
I4999029
sg17
S'17366.7961308'
p2176
sba(igraph
Edge
p2177
(dp2178
g7
I1
sg8
I00
sg9
I5
sg10
(lp2179
g2173
a(igraph
Vertex
p2180
(dp2181
g14
F294.51612903225811
sg15
F-148.66666666666674
sg16
I5000082
sg8
I00
sg17
S'17365.5638094'
p2182
sg19
g20
sbasg24
I00
sg25
I00
sg26
I4999030
sg17
S'17366.8029582'
p2183
sba(igraph
Edge
p2184
(dp2185
g7
I1
sg8
I00
sg9
I5
sg10
(lp2186
g2180
a(igraph
Vertex
p2187
(dp2188
g14
F294.51612903225811
sg15
F-111.50000000000006
sg16
I5000083
sg8
I00
sg17
S'17365.5668776'
p2189
sg19
g20
sbasg24
I00
sg25
I00
sg26
I4999031
sg17
S'17366.8098297'
p2190
sba(igraph
Edge
p2191
(dp2192
g7
I1
sg8
I00
sg9
I5
sg10
(lp2193
g2187
a(igraph
Vertex
p2194
(dp2195
g14
F294.51612903225811
sg15
F-74.333333333333371
sg16
I5000084
sg8
I00
sg17
S'17365.5703736'
p2196
sg19
g20
sbasg24
I00
sg25
I00
sg26
I4999032
sg17
S'17366.8166678'
p2197
sba(igraph
Edge
p2198
(dp2199
g7
I1
sg8
I00
sg9
I5
sg10
(lp2200
g2194
a(igraph
Vertex
p2201
(dp2202
g14
F294.51612903225811
sg15
F-37.166666666666742
sg16
I5000085
sg8
I00
sg17
S'17365.5751178'
p2203
sg19
g20
sbasg24
I00
sg25
I00
sg26
I4999033
sg17
S'17366.8236047'
p2204
sba(igraph
Edge
p2205
(dp2206
g7
I1
sg8
I00
sg9
I5
sg10
(lp2207
g2201
a(igraph
Vertex
p2208
(dp2209
g14
F294.51612903225811
sg15
F0.0
sg16
I5000086
sg8
I00
sg17
S'17365.579617'
p2210
sg19
g20
sbasg24
I00
sg25
I00
sg26
I4999034
sg17
S'17366.8305396'
p2211
sba(igraph
Edge
p2212
(dp2213
g7
I1
sg8
I00
sg9
I5
sg10
(lp2214
g2208
a(igraph
Vertex
p2215
(dp2216
g14
F294.51612903225811
sg15
F37.166666666666686
sg16
I5000087
sg8
I00
sg17
S'17365.5841916'
p2217
sg19
g20
sbasg24
I00
sg25
I00
sg26
I4999035
sg17
S'17366.8378537'
p2218
sba(igraph
Edge
p2219
(dp2220
g7
I1
sg8
I00
sg9
I5
sg10
(lp2221
g2215
a(igraph
Vertex
p2222
(dp2223
g14
F294.51612903225811
sg15
F74.333333333333371
sg16
I5000088
sg8
I00
sg17
S'17365.5879951'
p2224
sg19
g20
sbasg24
I00
sg25
I00
sg26
I4999036
sg17
S'17366.844725'
p2225
sba(igraph
Edge
p2226
(dp2227
g7
I1
sg8
I00
sg9
I5
sg10
(lp2228
g2222
a(igraph
Vertex
p2229
(dp2230
g14
F294.51612903225811
sg15
F111.5
sg16
I5000089
sg8
I00
sg17
S'17365.5920937'
p2231
sg19
g20
sbasg24
I00
sg25
I00
sg26
I4999037
sg17
S'17366.8517884'
p2232
sba(igraph
Edge
p2233
(dp2234
g7
I1
sg8
I00
sg9
I5
sg10
(lp2235
g2229
a(igraph
Vertex
p2236
(dp2237
g14
F294.51612903225811
sg15
F148.66666666666669
sg16
I5000090
sg8
I00
sg17
S'17365.5961646'
p2238
sg19
g20
sbasg24
I00
sg25
I00
sg26
I4999038
sg17
S'17366.8586628'
p2239
sba(igraph
Edge
p2240
(dp2241
g7
I1
sg8
I00
sg9
I5
sg10
(lp2242
g2236
a(igraph
Vertex
p2243
(dp2244
g14
F294.51612903225811
sg15
F185.83333333333337
sg16
I5000091
sg8
I00
sg17
S'17365.6003671'
p2245
sg19
g20
sbasg24
I00
sg25
I00
sg26
I4999039
sg17
S'17366.8655522'
p2246
sba(igraph
Edge
p2247
(dp2248
g7
I1
sg8
I00
sg9
I5
sg10
(lp2249
g2243
a(igraph
Vertex
p2250
(dp2251
g14
F294.51612903225811
sg15
F223.0
sg16
I5000092
sg8
I00
sg17
S'17365.604421'
p2252
sg19
g20
sbasg24
I00
sg25
I00
sg26
I4999040
sg17
S'17366.8728445'
p2253
sba(igraph
Edge
p2254
(dp2255
g7
I1
sg8
I00
sg9
I5
sg10
(lp2256
g2250
a(igraph
Vertex
p2257
(dp2258
g14
F294.51612903225811
sg15
F260.16666666666663
sg16
I5000093
sg8
I00
sg17
S'17365.6083879'
p2259
sg19
g20
sbasg24
I00
sg25
I00
sg26
I4999041
sg17
S'17366.8797892'
p2260
sba(igraph
Edge
p2261
(dp2262
g7
I1
sg8
I00
sg9
I5
sg10
(lp2263
g2257
a(igraph
Vertex
p2264
(dp2265
g14
F294.51612903225811
sg15
F297.33333333333337
sg16
I5000094
sg8
I00
sg17
S'17365.6129229'
p2266
sg19
g20
sbasg24
I00
sg25
I00
sg26
I4999042
sg17
S'17366.8867261'
p2267
sba(igraph
Edge
p2268
(dp2269
g7
I1
sg8
I00
sg9
I5
sg10
(lp2270
g2264
a(igraph
Vertex
p2271
(dp2272
g14
F294.51612903225811
sg15
F334.5
sg16
I5000095
sg8
I00
sg17
S'17365.6173961'
p2273
sg19
g20
sbasg24
I00
sg25
I00
sg26
I4999043
sg17
S'17366.8937787'
p2274
sba(igraph
Edge
p2275
(dp2276
g7
I1
sg8
I00
sg9
I5
sg10
(lp2277
g2271
ag2149
asg24
I00
sg25
I00
sg26
I4999044
sg17
S'17366.900781'
p2278
sba(igraph
Edge
p2279
(dp2280
g7
I1
sg8
I00
sg9
I5
sg10
(lp2281
(igraph
Vertex
p2282
(dp2283
g14
F333.78494623655916
sg15
F-334.5
sg16
I5000097
sg8
I01
sg17
S'17365.621396'
p2284
sg19
I0
sba(igraph
Vertex
p2285
(dp2286
g14
F333.78494623655916
sg15
F-297.33333333333331
sg16
I5000099
sg8
I00
sg17
S'17365.6251032'
p2287
sg19
g20
sbasg24
I00
sg25
I00
sg26
I4999045
sg17
S'17366.9077846'
p2288
sba(igraph
Edge
p2289
(dp2290
g7
I1
sg8
I00
sg9
I5
sg10
(lp2291
g2285
a(igraph
Vertex
p2292
(dp2293
g14
F333.78494623655916
sg15
F-260.16666666666663
sg16
I5000100
sg8
I00
sg17
S'17365.6284885'
p2294
sg19
g20
sbasg24
I00
sg25
I00
sg26
I4999046
sg17
S'17366.9150023'
p2295
sba(igraph
Edge
p2296
(dp2297
g7
I1
sg8
I00
sg9
I5
sg10
(lp2298
g2292
a(igraph
Vertex
p2299
(dp2300
g14
F333.78494623655916
sg15
F-223.00000000000003
sg16
I5000101
sg8
I00
sg17
S'17365.6318552'
p2301
sg19
g20
sbasg24
I00
sg25
I00
sg26
I4999047
sg17
S'17366.9231078'
p2302
sba(igraph
Edge
p2303
(dp2304
g7
I1
sg8
I00
sg9
I5
sg10
(lp2305
g2299
a(igraph
Vertex
p2306
(dp2307
g14
F333.78494623655916
sg15
F-185.83333333333334
sg16
I5000102
sg8
I00
sg17
S'17365.6357484'
p2308
sg19
g20
sbasg24
I00
sg25
I00
sg26
I4999048
sg17
S'17366.9303984'
p2309
sba(igraph
Edge
p2310
(dp2311
g7
I1
sg8
I00
sg9
I5
sg10
(lp2312
g2306
a(igraph
Vertex
p2313
(dp2314
g14
F333.78494623655916
sg15
F-148.66666666666674
sg16
I5000103
sg8
I00
sg17
S'17365.6400651'
p2315
sg19
g20
sbasg24
I00
sg25
I00
sg26
I4999049
sg17
S'17366.9375692'
p2316
sba(igraph
Edge
p2317
(dp2318
g7
I1
sg8
I00
sg9
I5
sg10
(lp2319
g2313
a(igraph
Vertex
p2320
(dp2321
g14
F333.78494623655916
sg15
F-111.50000000000006
sg16
I5000104
sg8
I00
sg17
S'17365.6435539'
p2322
sg19
g20
sbasg24
I00
sg25
I00
sg26
I4999050
sg17
S'17366.9447692'
p2323
sba(igraph
Edge
p2324
(dp2325
g7
I1
sg8
I00
sg9
I5
sg10
(lp2326
g2320
a(igraph
Vertex
p2327
(dp2328
g14
F333.78494623655916
sg15
F-74.333333333333371
sg16
I5000105
sg8
I00
sg17
S'17365.647644'
p2329
sg19
g20
sbasg24
I00
sg25
I00
sg26
I4999051
sg17
S'17366.9519319'
p2330
sba(igraph
Edge
p2331
(dp2332
g7
I1
sg8
I00
sg9
I5
sg10
(lp2333
g2327
a(igraph
Vertex
p2334
(dp2335
g14
F333.78494623655916
sg15
F-37.166666666666742
sg16
I5000106
sg8
I00
sg17
S'17365.6510677'
p2336
sg19
g20
sbasg24
I00
sg25
I00
sg26
I4999052
sg17
S'17366.9591292'
p2337
sba(igraph
Edge
p2338
(dp2339
g7
I1
sg8
I00
sg9
I5
sg10
(lp2340
g2334
a(igraph
Vertex
p2341
(dp2342
g14
F333.78494623655916
sg15
F0.0
sg16
I5000107
sg8
I00
sg17
S'17365.6549'
p2343
sg19
g20
sbasg24
I00
sg25
I00
sg26
I4999053
sg17
S'17366.9663209'
p2344
sba(igraph
Edge
p2345
(dp2346
g7
I1
sg8
I00
sg9
I5
sg10
(lp2347
g2341
a(igraph
Vertex
p2348
(dp2349
g14
F333.78494623655916
sg15
F37.166666666666686
sg16
I5000108
sg8
I00
sg17
S'17365.6587943'
p2350
sg19
g20
sbasg24
I00
sg25
I00
sg26
I4999054
sg17
S'17366.9738271'
p2351
sba(igraph
Edge
p2352
(dp2353
g7
I1
sg8
I00
sg9
I5
sg10
(lp2354
g2348
a(igraph
Vertex
p2355
(dp2356
g14
F333.78494623655916
sg15
F74.333333333333371
sg16
I5000109
sg8
I00
sg17
S'17365.6622956'
p2357
sg19
g20
sbasg24
I00
sg25
I00
sg26
I4999055
sg17
S'17366.9814259'
p2358
sba(igraph
Edge
p2359
(dp2360
g7
I1
sg8
I00
sg9
I5
sg10
(lp2361
g2355
a(igraph
Vertex
p2362
(dp2363
g14
F333.78494623655916
sg15
F111.5
sg16
I5000110
sg8
I00
sg17
S'17365.6659522'
p2364
sg19
g20
sbasg24
I00
sg25
I00
sg26
I4999056
sg17
S'17366.9891374'
p2365
sba(igraph
Edge
p2366
(dp2367
g7
I1
sg8
I00
sg9
I5
sg10
(lp2368
g2362
a(igraph
Vertex
p2369
(dp2370
g14
F333.78494623655916
sg15
F148.66666666666669
sg16
I5000111
sg8
I00
sg17
S'17365.6696714'
p2371
sg19
g20
sbasg24
I00
sg25
I00
sg26
I4999057
sg17
S'17366.9964803'
p2372
sba(igraph
Edge
p2373
(dp2374
g7
I1
sg8
I00
sg9
I5
sg10
(lp2375
g2369
a(igraph
Vertex
p2376
(dp2377
g14
F333.78494623655916
sg15
F185.83333333333337
sg16
I5000112
sg8
I00
sg17
S'17365.6733761'
p2378
sg19
g20
sbasg24
I00
sg25
I00
sg26
I4999058
sg17
S'17367.003884'
p2379
sba(igraph
Edge
p2380
(dp2381
g7
I1
sg8
I00
sg9
I5
sg10
(lp2382
g2376
a(igraph
Vertex
p2383
(dp2384
g14
F333.78494623655916
sg15
F223.0
sg16
I5000113
sg8
I00
sg17
S'17365.6769595'
p2385
sg19
g20
sbasg24
I00
sg25
I00
sg26
I4999059
sg17
S'17367.0112302'
p2386
sba(igraph
Edge
p2387
(dp2388
g7
I1
sg8
I00
sg9
I5
sg10
(lp2389
g2383
a(igraph
Vertex
p2390
(dp2391
g14
F333.78494623655916
sg15
F260.16666666666663
sg16
I5000114
sg8
I00
sg17
S'17365.681036'
p2392
sg19
g20
sbasg24
I00
sg25
I00
sg26
I4999060
sg17
S'17367.0187015'
p2393
sba(igraph
Edge
p2394
(dp2395
g7
I1
sg8
I00
sg9
I5
sg10
(lp2396
g2390
a(igraph
Vertex
p2397
(dp2398
g14
F333.78494623655916
sg15
F297.33333333333337
sg16
I5000115
sg8
I00
sg17
S'17365.6849097'
p2399
sg19
g20
sbasg24
I00
sg25
I00
sg26
I4999061
sg17
S'17367.02611'
p2400
sba(igraph
Edge
p2401
(dp2402
g7
I1
sg8
I00
sg9
I5
sg10
(lp2403
g2397
a(igraph
Vertex
p2404
(dp2405
g14
F333.78494623655916
sg15
F334.5
sg16
I5000116
sg8
I00
sg17
S'17365.6889409'
p2406
sg19
g20
sbasg24
I00
sg25
I00
sg26
I4999062
sg17
S'17367.0339306'
p2407
sba(igraph
Edge
p2408
(dp2409
g7
I1
sg8
I00
sg9
I5
sg10
(lp2410
g2404
ag2282
asg24
I00
sg25
I00
sg26
I4999063
sg17
S'17367.0413153'
p2411
sba(igraph
Edge
p2412
(dp2413
g7
I1
sg8
I00
sg9
I5
sg10
(lp2414
g12
ag154
asg24
I00
sg25
I00
sg26
I4999064
sg17
S'17367.0494392'
p2415
sba(igraph
Edge
p2416
(dp2417
g7
I1
sg8
I00
sg9
I5
sg10
(lp2418
g21
ag154
asg24
I00
sg25
I00
sg26
I4999065
sg17
S'17367.0576277'
p2419
sba(igraph
Edge
p2420
(dp2421
g7
I1
sg8
I00
sg9
I5
sg10
(lp2422
g31
ag164
asg24
I00
sg25
I00
sg26
I4999066
sg17
S'17367.0661727'
p2423
sba(igraph
Edge
p2424
(dp2425
g7
I1
sg8
I00
sg9
I5
sg10
(lp2426
g38
ag164
asg24
I00
sg25
I00
sg26
I4999067
sg17
S'17367.0745304'
p2427
sba(igraph
Edge
p2428
(dp2429
g7
I1
sg8
I00
sg9
I5
sg10
(lp2430
g45
ag178
asg24
I00
sg25
I00
sg26
I4999068
sg17
S'17367.0829304'
p2431
sba(igraph
Edge
p2432
(dp2433
g7
I1
sg8
I00
sg9
I5
sg10
(lp2434
g52
ag178
asg24
I00
sg25
I00
sg26
I4999069
sg17
S'17367.0917672'
p2435
sba(igraph
Edge
p2436
(dp2437
g7
I1
sg8
I00
sg9
I5
sg10
(lp2438
g59
ag192
asg24
I00
sg25
I00
sg26
I4999070
sg17
S'17367.0999412'
p2439
sba(igraph
Edge
p2440
(dp2441
g7
I1
sg8
I00
sg9
I5
sg10
(lp2442
g66
ag192
asg24
I00
sg25
I00
sg26
I4999071
sg17
S'17367.1087194'
p2443
sba(igraph
Edge
p2444
(dp2445
g7
I1
sg8
I00
sg9
I5
sg10
(lp2446
g73
ag206
asg24
I00
sg25
I00
sg26
I4999072
sg17
S'17367.1171965'
p2447
sba(igraph
Edge
p2448
(dp2449
g7
I1
sg8
I00
sg9
I5
sg10
(lp2450
g80
ag206
asg24
I00
sg25
I00
sg26
I4999073
sg17
S'17367.1266633'
p2451
sba(igraph
Edge
p2452
(dp2453
g7
I1
sg8
I00
sg9
I5
sg10
(lp2454
g87
ag220
asg24
I00
sg25
I00
sg26
I4999074
sg17
S'17367.1352013'
p2455
sba(igraph
Edge
p2456
(dp2457
g7
I1
sg8
I00
sg9
I5
sg10
(lp2458
g94
ag220
asg24
I00
sg25
I00
sg26
I4999075
sg17
S'17367.1442203'
p2459
sba(igraph
Edge
p2460
(dp2461
g7
I1
sg8
I00
sg9
I5
sg10
(lp2462
g101
ag234
asg24
I00
sg25
I00
sg26
I4999076
sg17
S'17367.1529057'
p2463
sba(igraph
Edge
p2464
(dp2465
g7
I1
sg8
I00
sg9
I5
sg10
(lp2466
g108
ag234
asg24
I00
sg25
I00
sg26
I4999077
sg17
S'17367.1635649'
p2467
sba(igraph
Edge
p2468
(dp2469
g7
I1
sg8
I00
sg9
I5
sg10
(lp2470
g115
ag248
asg24
I00
sg25
I00
sg26
I4999078
sg17
S'17367.1732282'
p2471
sba(igraph
Edge
p2472
(dp2473
g7
I1
sg8
I00
sg9
I5
sg10
(lp2474
g122
ag248
asg24
I00
sg25
I00
sg26
I4999079
sg17
S'17367.1825673'
p2475
sba(igraph
Edge
p2476
(dp2477
g7
I1
sg8
I00
sg9
I5
sg10
(lp2478
g129
ag262
asg24
I00
sg25
I00
sg26
I4999080
sg17
S'17367.1920507'
p2479
sba(igraph
Edge
p2480
(dp2481
g7
I1
sg8
I00
sg9
I5
sg10
(lp2482
g136
ag262
asg24
I00
sg25
I00
sg26
I4999081
sg17
S'17367.2031294'
p2483
sba(igraph
Edge
p2484
(dp2485
g7
I1
sg8
I00
sg9
I5
sg10
(lp2486
g143
ag276
asg24
I00
sg25
I00
sg26
I4999082
sg17
S'17367.2141546'
p2487
sba(igraph
Edge
p2488
(dp2489
g7
I1
sg8
I00
sg9
I5
sg10
(lp2490
g12
ag276
asg24
I00
sg25
I00
sg26
I4999083
sg17
S'17367.2237642'
p2491
sba(igraph
Edge
p2492
(dp2493
g7
I1
sg8
I00
sg9
I5
sg10
(lp2494
g21
ag157
asg24
I00
sg25
I00
sg26
I4999084
sg17
S'17367.2329503'
p2495
sba(igraph
Edge
p2496
(dp2497
g7
I1
sg8
I00
sg9
I5
sg10
(lp2498
g31
ag157
asg24
I00
sg25
I00
sg26
I4999085
sg17
S'17367.2431267'
p2499
sba(igraph
Edge
p2500
(dp2501
g7
I1
sg8
I00
sg9
I5
sg10
(lp2502
g38
ag171
asg24
I00
sg25
I00
sg26
I4999086
sg17
S'17367.2524251'
p2503
sba(igraph
Edge
p2504
(dp2505
g7
I1
sg8
I00
sg9
I5
sg10
(lp2506
g45
ag171
asg24
I00
sg25
I00
sg26
I4999087
sg17
S'17367.2613572'
p2507
sba(igraph
Edge
p2508
(dp2509
g7
I1
sg8
I00
sg9
I5
sg10
(lp2510
g52
ag185
asg24
I00
sg25
I00
sg26
I4999088
sg17
S'17367.271263'
p2511
sba(igraph
Edge
p2512
(dp2513
g7
I1
sg8
I00
sg9
I5
sg10
(lp2514
g59
ag185
asg24
I00
sg25
I00
sg26
I4999089
sg17
S'17367.2820266'
p2515
sba(igraph
Edge
p2516
(dp2517
g7
I1
sg8
I00
sg9
I5
sg10
(lp2518
g66
ag199
asg24
I00
sg25
I00
sg26
I4999090
sg17
S'17367.2915572'
p2519
sba(igraph
Edge
p2520
(dp2521
g7
I1
sg8
I00
sg9
I5
sg10
(lp2522
g73
ag199
asg24
I00
sg25
I00
sg26
I4999091
sg17
S'17367.3061115'
p2523
sba(igraph
Edge
p2524
(dp2525
g7
I1
sg8
I00
sg9
I5
sg10
(lp2526
g80
ag213
asg24
I00
sg25
I00
sg26
I4999092
sg17
S'17367.3201625'
p2527
sba(igraph
Edge
p2528
(dp2529
g7
I1
sg8
I00
sg9
I5
sg10
(lp2530
g87
ag213
asg24
I00
sg25
I00
sg26
I4999093
sg17
S'17367.3306473'
p2531
sba(igraph
Edge
p2532
(dp2533
g7
I1
sg8
I00
sg9
I5
sg10
(lp2534
g94
ag227
asg24
I00
sg25
I00
sg26
I4999094
sg17
S'17367.3406818'
p2535
sba(igraph
Edge
p2536
(dp2537
g7
I1
sg8
I00
sg9
I5
sg10
(lp2538
g101
ag227
asg24
I00
sg25
I00
sg26
I4999095
sg17
S'17367.3508692'
p2539
sba(igraph
Edge
p2540
(dp2541
g7
I1
sg8
I00
sg9
I5
sg10
(lp2542
g108
ag241
asg24
I00
sg25
I00
sg26
I4999096
sg17
S'17367.3620575'
p2543
sba(igraph
Edge
p2544
(dp2545
g7
I1
sg8
I00
sg9
I5
sg10
(lp2546
g115
ag241
asg24
I00
sg25
I00
sg26
I4999097
sg17
S'17367.3720719'
p2547
sba(igraph
Edge
p2548
(dp2549
g7
I1
sg8
I00
sg9
I5
sg10
(lp2550
g122
ag255
asg24
I00
sg25
I00
sg26
I4999098
sg17
S'17367.381696'
p2551
sba(igraph
Edge
p2552
(dp2553
g7
I1
sg8
I00
sg9
I5
sg10
(lp2554
g129
ag255
asg24
I00
sg25
I00
sg26
I4999099
sg17
S'17367.391602'
p2555
sba(igraph
Edge
p2556
(dp2557
g7
I1
sg8
I00
sg9
I5
sg10
(lp2558
g136
ag269
asg24
I00
sg25
I00
sg26
I4999100
sg17
S'17367.401025'
p2559
sba(igraph
Edge
p2560
(dp2561
g7
I1
sg8
I00
sg9
I5
sg10
(lp2562
g143
ag269
asg24
I00
sg25
I00
sg26
I4999101
sg17
S'17367.4106257'
p2563
sba(igraph
Edge
p2564
(dp2565
g7
I1
sg8
I00
sg9
I5
sg10
(lp2566
g12
ag2282
asg24
I00
sg25
I00
sg26
I4999102
sg17
S'17367.4197553'
p2567
sba(igraph
Edge
p2568
(dp2569
g7
I1
sg8
I00
sg9
I5
sg10
(lp2570
g21
ag2292
asg24
I00
sg25
I00
sg26
I4999103
sg17
S'17367.4320661'
p2571
sba(igraph
Edge
p2572
(dp2573
g7
I1
sg8
I00
sg9
I5
sg10
(lp2574
g31
ag2292
asg24
I00
sg25
I00
sg26
I4999104
sg17
S'17367.4411276'
p2575
sba(igraph
Edge
p2576
(dp2577
g7
I1
sg8
I00
sg9
I5
sg10
(lp2578
g38
ag2306
asg24
I00
sg25
I00
sg26
I4999105
sg17
S'17367.4507662'
p2579
sba(igraph
Edge
p2580
(dp2581
g7
I1
sg8
I00
sg9
I5
sg10
(lp2582
g45
ag2306
asg24
I00
sg25
I00
sg26
I4999106
sg17
S'17367.4624599'
p2583
sba(igraph
Edge
p2584
(dp2585
g7
I1
sg8
I00
sg9
I5
sg10
(lp2586
g52
ag2320
asg24
I00
sg25
I00
sg26
I4999107
sg17
S'17367.4739521'
p2587
sba(igraph
Edge
p2588
(dp2589
g7
I1
sg8
I00
sg9
I5
sg10
(lp2590
g59
ag2320
asg24
I00
sg25
I00
sg26
I4999108
sg17
S'17367.4849859'
p2591
sba(igraph
Edge
p2592
(dp2593
g7
I1
sg8
I00
sg9
I5
sg10
(lp2594
g66
ag2334
asg24
I00
sg25
I00
sg26
I4999109
sg17
S'17367.4956865'
p2595
sba(igraph
Edge
p2596
(dp2597
g7
I1
sg8
I00
sg9
I5
sg10
(lp2598
g73
ag2334
asg24
I00
sg25
I00
sg26
I4999110
sg17
S'17367.5067208'
p2599
sba(igraph
Edge
p2600
(dp2601
g7
I1
sg8
I00
sg9
I5
sg10
(lp2602
g80
ag2348
asg24
I00
sg25
I00
sg26
I4999111
sg17
S'17367.5171143'
p2603
sba(igraph
Edge
p2604
(dp2605
g7
I1
sg8
I00
sg9
I5
sg10
(lp2606
g87
ag2348
asg24
I00
sg25
I00
sg26
I4999112
sg17
S'17367.5279936'
p2607
sba(igraph
Edge
p2608
(dp2609
g7
I1
sg8
I00
sg9
I5
sg10
(lp2610
g94
ag2362
asg24
I00
sg25
I00
sg26
I4999113
sg17
S'17367.5388668'
p2611
sba(igraph
Edge
p2612
(dp2613
g7
I1
sg8
I00
sg9
I5
sg10
(lp2614
g101
ag2362
asg24
I00
sg25
I00
sg26
I4999114
sg17
S'17367.5485999'
p2615
sba(igraph
Edge
p2616
(dp2617
g7
I1
sg8
I00
sg9
I5
sg10
(lp2618
g108
ag2376
asg24
I00
sg25
I00
sg26
I4999115
sg17
S'17367.5582003'
p2619
sba(igraph
Edge
p2620
(dp2621
g7
I1
sg8
I00
sg9
I5
sg10
(lp2622
g115
ag2376
asg24
I00
sg25
I00
sg26
I4999116
sg17
S'17367.5680214'
p2623
sba(igraph
Edge
p2624
(dp2625
g7
I1
sg8
I00
sg9
I5
sg10
(lp2626
g122
ag2390
asg24
I00
sg25
I00
sg26
I4999117
sg17
S'17367.5773723'
p2627
sba(igraph
Edge
p2628
(dp2629
g7
I1
sg8
I00
sg9
I5
sg10
(lp2630
g129
ag2390
asg24
I00
sg25
I00
sg26
I4999118
sg17
S'17367.5886966'
p2631
sba(igraph
Edge
p2632
(dp2633
g7
I1
sg8
I00
sg9
I5
sg10
(lp2634
g136
ag2404
asg24
I00
sg25
I00
sg26
I4999119
sg17
S'17367.5992862'
p2635
sba(igraph
Edge
p2636
(dp2637
g7
I1
sg8
I00
sg9
I5
sg10
(lp2638
g143
ag2404
asg24
I00
sg25
I00
sg26
I4999120
sg17
S'17367.6099926'
p2639
sba(igraph
Edge
p2640
(dp2641
g7
I1
sg8
I00
sg9
I5
sg10
(lp2642
g12
ag2285
asg24
I00
sg25
I00
sg26
I4999121
sg17
S'17367.6208066'
p2643
sba(igraph
Edge
p2644
(dp2645
g7
I1
sg8
I00
sg9
I5
sg10
(lp2646
g21
ag2285
asg24
I00
sg25
I00
sg26
I4999122
sg17
S'17367.6322019'
p2647
sba(igraph
Edge
p2648
(dp2649
g7
I1
sg8
I00
sg9
I5
sg10
(lp2650
g31
ag2299
asg24
I00
sg25
I00
sg26
I4999123
sg17
S'17367.6427686'
p2651
sba(igraph
Edge
p2652
(dp2653
g7
I1
sg8
I00
sg9
I5
sg10
(lp2654
g38
ag2299
asg24
I00
sg25
I00
sg26
I4999124
sg17
S'17367.6540231'
p2655
sba(igraph
Edge
p2656
(dp2657
g7
I1
sg8
I00
sg9
I5
sg10
(lp2658
g45
ag2313
asg24
I00
sg25
I00
sg26
I4999125
sg17
S'17367.6640917'
p2659
sba(igraph
Edge
p2660
(dp2661
g7
I1
sg8
I00
sg9
I5
sg10
(lp2662
g52
ag2313
asg24
I00
sg25
I00
sg26
I4999126
sg17
S'17367.6731959'
p2663
sba(igraph
Edge
p2664
(dp2665
g7
I1
sg8
I00
sg9
I5
sg10
(lp2666
g59
ag2327
asg24
I00
sg25
I00
sg26
I4999127
sg17
S'17367.6824426'
p2667
sba(igraph
Edge
p2668
(dp2669
g7
I1
sg8
I00
sg9
I5
sg10
(lp2670
g66
ag2327
asg24
I00
sg25
I00
sg26
I4999128
sg17
S'17367.69128'
p2671
sba(igraph
Edge
p2672
(dp2673
g7
I1
sg8
I00
sg9
I5
sg10
(lp2674
g73
ag2341
asg24
I00
sg25
I00
sg26
I4999129
sg17
S'17367.7002619'
p2675
sba(igraph
Edge
p2676
(dp2677
g7
I1
sg8
I00
sg9
I5
sg10
(lp2678
g80
ag2341
asg24
I00
sg25
I00
sg26
I4999130
sg17
S'17367.7098405'
p2679
sba(igraph
Edge
p2680
(dp2681
g7
I1
sg8
I00
sg9
I5
sg10
(lp2682
g87
ag2355
asg24
I00
sg25
I00
sg26
I4999131
sg17
S'17367.7189355'
p2683
sba(igraph
Edge
p2684
(dp2685
g7
I1
sg8
I00
sg9
I5
sg10
(lp2686
g94
ag2355
asg24
I00
sg25
I00
sg26
I4999132
sg17
S'17367.7280551'
p2687
sba(igraph
Edge
p2688
(dp2689
g7
I1
sg8
I00
sg9
I5
sg10
(lp2690
g101
ag2369
asg24
I00
sg25
I00
sg26
I4999133
sg17
S'17367.7370655'
p2691
sba(igraph
Edge
p2692
(dp2693
g7
I1
sg8
I00
sg9
I5
sg10
(lp2694
g108
ag2369
asg24
I00
sg25
I00
sg26
I4999134
sg17
S'17367.7461334'
p2695
sba(igraph
Edge
p2696
(dp2697
g7
I1
sg8
I00
sg9
I5
sg10
(lp2698
g115
ag2383
asg24
I00
sg25
I00
sg26
I4999135
sg17
S'17367.7552711'
p2699
sba(igraph
Edge
p2700
(dp2701
g7
I1
sg8
I00
sg9
I5
sg10
(lp2702
g122
ag2383
asg24
I00
sg25
I00
sg26
I4999136
sg17
S'17367.7643441'
p2703
sba(igraph
Edge
p2704
(dp2705
g7
I1
sg8
I00
sg9
I5
sg10
(lp2706
g129
ag2397
asg24
I00
sg25
I00
sg26
I4999137
sg17
S'17367.7752175'
p2707
sba(igraph
Edge
p2708
(dp2709
g7
I1
sg8
I00
sg9
I5
sg10
(lp2710
g136
ag2397
asg24
I00
sg25
I00
sg26
I4999138
sg17
S'17367.7843757'
p2711
sba(igraph
Edge
p2712
(dp2713
g7
I1
sg8
I00
sg9
I5
sg10
(lp2714
g143
ag2282
asg24
I00
sg25
I00
sg26
I4999139
sg17
S'17367.7935062'
p2715
sba(igraph
Edge
p2716
(dp2717
g7
I1
sg8
I00
sg9
I5
sg10
(lp2718
g154
ag287
asg24
I00
sg25
I00
sg26
I4999140
sg17
S'17367.802804'
p2719
sba(igraph
Edge
p2720
(dp2721
g7
I1
sg8
I00
sg9
I5
sg10
(lp2722
g157
ag287
asg24
I00
sg25
I00
sg26
I4999141
sg17
S'17367.8120797'
p2723
sba(igraph
Edge
p2724
(dp2725
g7
I1
sg8
I00
sg9
I5
sg10
(lp2726
g164
ag297
asg24
I00
sg25
I00
sg26
I4999142
sg17
S'17367.8219408'
p2727
sba(igraph
Edge
p2728
(dp2729
g7
I1
sg8
I00
sg9
I5
sg10
(lp2730
g171
ag297
asg24
I00
sg25
I00
sg26
I4999143
sg17
S'17367.8312864'
p2731
sba(igraph
Edge
p2732
(dp2733
g7
I1
sg8
I00
sg9
I5
sg10
(lp2734
g178
ag311
asg24
I00
sg25
I00
sg26
I4999144
sg17
S'17367.840589'
p2735
sba(igraph
Edge
p2736
(dp2737
g7
I1
sg8
I00
sg9
I5
sg10
(lp2738
g185
ag311
asg24
I00
sg25
I00
sg26
I4999145
sg17
S'17367.8502617'
p2739
sba(igraph
Edge
p2740
(dp2741
g7
I1
sg8
I00
sg9
I5
sg10
(lp2742
g192
ag325
asg24
I00
sg25
I00
sg26
I4999146
sg17
S'17367.8594651'
p2743
sba(igraph
Edge
p2744
(dp2745
g7
I1
sg8
I00
sg9
I5
sg10
(lp2746
g199
ag325
asg24
I00
sg25
I00
sg26
I4999147
sg17
S'17367.8692817'
p2747
sba(igraph
Edge
p2748
(dp2749
g7
I1
sg8
I00
sg9
I5
sg10
(lp2750
g206
ag339
asg24
I00
sg25
I00
sg26
I4999148
sg17
S'17367.8785653'
p2751
sba(igraph
Edge
p2752
(dp2753
g7
I1
sg8
I00
sg9
I5
sg10
(lp2754
g213
ag339
asg24
I00
sg25
I00
sg26
I4999149
sg17
S'17367.8878176'
p2755
sba(igraph
Edge
p2756
(dp2757
g7
I1
sg8
I00
sg9
I5
sg10
(lp2758
g220
ag353
asg24
I00
sg25
I00
sg26
I4999150
sg17
S'17367.8971031'
p2759
sba(igraph
Edge
p2760
(dp2761
g7
I1
sg8
I00
sg9
I5
sg10
(lp2762
g227
ag353
asg24
I00
sg25
I00
sg26
I4999151
sg17
S'17367.9064982'
p2763
sba(igraph
Edge
p2764
(dp2765
g7
I1
sg8
I00
sg9
I5
sg10
(lp2766
g234
ag367
asg24
I00
sg25
I00
sg26
I4999152
sg17
S'17367.9163857'
p2767
sba(igraph
Edge
p2768
(dp2769
g7
I1
sg8
I00
sg9
I5
sg10
(lp2770
g241
ag367
asg24
I00
sg25
I00
sg26
I4999153
sg17
S'17367.926339'
p2771
sba(igraph
Edge
p2772
(dp2773
g7
I1
sg8
I00
sg9
I5
sg10
(lp2774
g248
ag381
asg24
I00
sg25
I00
sg26
I4999154
sg17
S'17367.9358388'
p2775
sba(igraph
Edge
p2776
(dp2777
g7
I1
sg8
I00
sg9
I5
sg10
(lp2778
g255
ag381
asg24
I00
sg25
I00
sg26
I4999155
sg17
S'17367.9455202'
p2779
sba(igraph
Edge
p2780
(dp2781
g7
I1
sg8
I00
sg9
I5
sg10
(lp2782
g262
ag395
asg24
I00
sg25
I00
sg26
I4999156
sg17
S'17367.9551647'
p2783
sba(igraph
Edge
p2784
(dp2785
g7
I1
sg8
I00
sg9
I5
sg10
(lp2786
g269
ag395
asg24
I00
sg25
I00
sg26
I4999157
sg17
S'17367.9649279'
p2787
sba(igraph
Edge
p2788
(dp2789
g7
I1
sg8
I00
sg9
I5
sg10
(lp2790
g276
ag409
asg24
I00
sg25
I00
sg26
I4999158
sg17
S'17367.9745401'
p2791
sba(igraph
Edge
p2792
(dp2793
g7
I1
sg8
I00
sg9
I5
sg10
(lp2794
g154
ag409
asg24
I00
sg25
I00
sg26
I4999159
sg17
S'17367.9843852'
p2795
sba(igraph
Edge
p2796
(dp2797
g7
I1
sg8
I00
sg9
I5
sg10
(lp2798
g157
ag290
asg24
I00
sg25
I00
sg26
I4999160
sg17
S'17367.9940641'
p2799
sba(igraph
Edge
p2800
(dp2801
g7
I1
sg8
I00
sg9
I5
sg10
(lp2802
g164
ag290
asg24
I00
sg25
I00
sg26
I4999161
sg17
S'17368.0037097'
p2803
sba(igraph
Edge
p2804
(dp2805
g7
I1
sg8
I00
sg9
I5
sg10
(lp2806
g171
ag304
asg24
I00
sg25
I00
sg26
I4999162
sg17
S'17368.0138194'
p2807
sba(igraph
Edge
p2808
(dp2809
g7
I1
sg8
I00
sg9
I5
sg10
(lp2810
g178
ag304
asg24
I00
sg25
I00
sg26
I4999163
sg17
S'17368.0234709'
p2811
sba(igraph
Edge
p2812
(dp2813
g7
I1
sg8
I00
sg9
I5
sg10
(lp2814
g185
ag318
asg24
I00
sg25
I00
sg26
I4999164
sg17
S'17368.0332743'
p2815
sba(igraph
Edge
p2816
(dp2817
g7
I1
sg8
I00
sg9
I5
sg10
(lp2818
g192
ag318
asg24
I00
sg25
I00
sg26
I4999165
sg17
S'17368.0430728'
p2819
sba(igraph
Edge
p2820
(dp2821
g7
I1
sg8
I00
sg9
I5
sg10
(lp2822
g199
ag332
asg24
I00
sg25
I00
sg26
I4999166
sg17
S'17368.0529319'
p2823
sba(igraph
Edge
p2824
(dp2825
g7
I1
sg8
I00
sg9
I5
sg10
(lp2826
g206
ag332
asg24
I00
sg25
I00
sg26
I4999167
sg17
S'17368.0627152'
p2827
sba(igraph
Edge
p2828
(dp2829
g7
I1
sg8
I00
sg9
I5
sg10
(lp2830
g213
ag346
asg24
I00
sg25
I00
sg26
I4999168
sg17
S'17368.0725299'
p2831
sba(igraph
Edge
p2832
(dp2833
g7
I1
sg8
I00
sg9
I5
sg10
(lp2834
g220
ag346
asg24
I00
sg25
I00
sg26
I4999169
sg17
S'17368.0823803'
p2835
sba(igraph
Edge
p2836
(dp2837
g7
I1
sg8
I00
sg9
I5
sg10
(lp2838
g227
ag360
asg24
I00
sg25
I00
sg26
I4999170
sg17
S'17368.0922235'
p2839
sba(igraph
Edge
p2840
(dp2841
g7
I1
sg8
I00
sg9
I5
sg10
(lp2842
g234
ag360
asg24
I00
sg25
I00
sg26
I4999171
sg17
S'17368.1021429'
p2843
sba(igraph
Edge
p2844
(dp2845
g7
I1
sg8
I00
sg9
I5
sg10
(lp2846
g241
ag374
asg24
I00
sg25
I00
sg26
I4999172
sg17
S'17368.1118631'
p2847
sba(igraph
Edge
p2848
(dp2849
g7
I1
sg8
I00
sg9
I5
sg10
(lp2850
g248
ag374
asg24
I00
sg25
I00
sg26
I4999173
sg17
S'17368.1217373'
p2851
sba(igraph
Edge
p2852
(dp2853
g7
I1
sg8
I00
sg9
I5
sg10
(lp2854
g255
ag388
asg24
I00
sg25
I00
sg26
I4999174
sg17
S'17368.1314958'
p2855
sba(igraph
Edge
p2856
(dp2857
g7
I1
sg8
I00
sg9
I5
sg10
(lp2858
g262
ag388
asg24
I00
sg25
I00
sg26
I4999175
sg17
S'17368.1415381'
p2859
sba(igraph
Edge
p2860
(dp2861
g7
I1
sg8
I00
sg9
I5
sg10
(lp2862
g269
ag402
asg24
I00
sg25
I00
sg26
I4999176
sg17
S'17368.1520758'
p2863
sba(igraph
Edge
p2864
(dp2865
g7
I1
sg8
I00
sg9
I5
sg10
(lp2866
g276
ag402
asg24
I00
sg25
I00
sg26
I4999177
sg17
S'17368.1621159'
p2867
sba(igraph
Edge
p2868
(dp2869
g7
I1
sg8
I00
sg9
I5
sg10
(lp2870
g287
ag420
asg24
I00
sg25
I00
sg26
I4999178
sg17
S'17368.1722741'
p2871
sba(igraph
Edge
p2872
(dp2873
g7
I1
sg8
I00
sg9
I5
sg10
(lp2874
g290
ag420
asg24
I00
sg25
I00
sg26
I4999179
sg17
S'17368.1823712'
p2875
sba(igraph
Edge
p2876
(dp2877
g7
I1
sg8
I00
sg9
I5
sg10
(lp2878
g297
ag430
asg24
I00
sg25
I00
sg26
I4999180
sg17
S'17368.1923758'
p2879
sba(igraph
Edge
p2880
(dp2881
g7
I1
sg8
I00
sg9
I5
sg10
(lp2882
g304
ag430
asg24
I00
sg25
I00
sg26
I4999181
sg17
S'17368.2024221'
p2883
sba(igraph
Edge
p2884
(dp2885
g7
I1
sg8
I00
sg9
I5
sg10
(lp2886
g311
ag444
asg24
I00
sg25
I00
sg26
I4999182
sg17
S'17368.2136364'
p2887
sba(igraph
Edge
p2888
(dp2889
g7
I1
sg8
I00
sg9
I5
sg10
(lp2890
g318
ag444
asg24
I00
sg25
I00
sg26
I4999183
sg17
S'17368.2240517'
p2891
sba(igraph
Edge
p2892
(dp2893
g7
I1
sg8
I00
sg9
I5
sg10
(lp2894
g325
ag458
asg24
I00
sg25
I00
sg26
I4999184
sg17
S'17368.2341557'
p2895
sba(igraph
Edge
p2896
(dp2897
g7
I1
sg8
I00
sg9
I5
sg10
(lp2898
g332
ag458
asg24
I00
sg25
I00
sg26
I4999185
sg17
S'17368.2443959'
p2899
sba(igraph
Edge
p2900
(dp2901
g7
I1
sg8
I00
sg9
I5
sg10
(lp2902
g339
ag472
asg24
I00
sg25
I00
sg26
I4999186
sg17
S'17368.254591'
p2903
sba(igraph
Edge
p2904
(dp2905
g7
I1
sg8
I00
sg9
I5
sg10
(lp2906
g346
ag472
asg24
I00
sg25
I00
sg26
I4999187
sg17
S'17368.2668554'
p2907
sba(igraph
Edge
p2908
(dp2909
g7
I1
sg8
I00
sg9
I5
sg10
(lp2910
g353
ag486
asg24
I00
sg25
I00
sg26
I4999188
sg17
S'17368.2773157'
p2911
sba(igraph
Edge
p2912
(dp2913
g7
I1
sg8
I00
sg9
I5
sg10
(lp2914
g360
ag486
asg24
I00
sg25
I00
sg26
I4999189
sg17
S'17368.287634'
p2915
sba(igraph
Edge
p2916
(dp2917
g7
I1
sg8
I00
sg9
I5
sg10
(lp2918
g367
ag500
asg24
I00
sg25
I00
sg26
I4999190
sg17
S'17368.2978753'
p2919
sba(igraph
Edge
p2920
(dp2921
g7
I1
sg8
I00
sg9
I5
sg10
(lp2922
g374
ag500
asg24
I00
sg25
I00
sg26
I4999191
sg17
S'17368.308064'
p2923
sba(igraph
Edge
p2924
(dp2925
g7
I1
sg8
I00
sg9
I5
sg10
(lp2926
g381
ag514
asg24
I00
sg25
I00
sg26
I4999192
sg17
S'17368.3184408'
p2927
sba(igraph
Edge
p2928
(dp2929
g7
I1
sg8
I00
sg9
I5
sg10
(lp2930
g388
ag514
asg24
I00
sg25
I00
sg26
I4999193
sg17
S'17368.3288697'
p2931
sba(igraph
Edge
p2932
(dp2933
g7
I1
sg8
I00
sg9
I5
sg10
(lp2934
g395
ag528
asg24
I00
sg25
I00
sg26
I4999194
sg17
S'17368.3406039'
p2935
sba(igraph
Edge
p2936
(dp2937
g7
I1
sg8
I00
sg9
I5
sg10
(lp2938
g402
ag528
asg24
I00
sg25
I00
sg26
I4999195
sg17
S'17368.3510047'
p2939
sba(igraph
Edge
p2940
(dp2941
g7
I1
sg8
I00
sg9
I5
sg10
(lp2942
g409
ag542
asg24
I00
sg25
I00
sg26
I4999196
sg17
S'17368.3614633'
p2943
sba(igraph
Edge
p2944
(dp2945
g7
I1
sg8
I00
sg9
I5
sg10
(lp2946
g287
ag542
asg24
I00
sg25
I00
sg26
I4999197
sg17
S'17368.3717797'
p2947
sba(igraph
Edge
p2948
(dp2949
g7
I1
sg8
I00
sg9
I5
sg10
(lp2950
g290
ag423
asg24
I00
sg25
I00
sg26
I4999198
sg17
S'17368.3821326'
p2951
sba(igraph
Edge
p2952
(dp2953
g7
I1
sg8
I00
sg9
I5
sg10
(lp2954
g297
ag423
asg24
I00
sg25
I00
sg26
I4999199
sg17
S'17368.3925524'
p2955
sba(igraph
Edge
p2956
(dp2957
g7
I1
sg8
I00
sg9
I5
sg10
(lp2958
g304
ag437
asg24
I00
sg25
I00
sg26
I4999200
sg17
S'17368.4031314'
p2959
sba(igraph
Edge
p2960
(dp2961
g7
I1
sg8
I00
sg9
I5
sg10
(lp2962
g311
ag437
asg24
I00
sg25
I00
sg26
I4999201
sg17
S'17368.4138825'
p2963
sba(igraph
Edge
p2964
(dp2965
g7
I1
sg8
I00
sg9
I5
sg10
(lp2966
g318
ag451
asg24
I00
sg25
I00
sg26
I4999202
sg17
S'17368.424678'
p2967
sba(igraph
Edge
p2968
(dp2969
g7
I1
sg8
I00
sg9
I5
sg10
(lp2970
g325
ag451
asg24
I00
sg25
I00
sg26
I4999203
sg17
S'17368.4356232'
p2971
sba(igraph
Edge
p2972
(dp2973
g7
I1
sg8
I00
sg9
I5
sg10
(lp2974
g332
ag465
asg24
I00
sg25
I00
sg26
I4999204
sg17
S'17368.4461399'
p2975
sba(igraph
Edge
p2976
(dp2977
g7
I1
sg8
I00
sg9
I5
sg10
(lp2978
g339
ag465
asg24
I00
sg25
I00
sg26
I4999205
sg17
S'17368.4568002'
p2979
sba(igraph
Edge
p2980
(dp2981
g7
I1
sg8
I00
sg9
I5
sg10
(lp2982
g346
ag479
asg24
I00
sg25
I00
sg26
I4999206
sg17
S'17368.4674429'
p2983
sba(igraph
Edge
p2984
(dp2985
g7
I1
sg8
I00
sg9
I5
sg10
(lp2986
g353
ag479
asg24
I00
sg25
I00
sg26
I4999207
sg17
S'17368.4782633'
p2987
sba(igraph
Edge
p2988
(dp2989
g7
I1
sg8
I00
sg9
I5
sg10
(lp2990
g360
ag493
asg24
I00
sg25
I00
sg26
I4999208
sg17
S'17368.4889901'
p2991
sba(igraph
Edge
p2992
(dp2993
g7
I1
sg8
I00
sg9
I5
sg10
(lp2994
g367
ag493
asg24
I00
sg25
I00
sg26
I4999209
sg17
S'17368.5000831'
p2995
sba(igraph
Edge
p2996
(dp2997
g7
I1
sg8
I00
sg9
I5
sg10
(lp2998
g374
ag507
asg24
I00
sg25
I00
sg26
I4999210
sg17
S'17368.5109166'
p2999
sba(igraph
Edge
p3000
(dp3001
g7
I1
sg8
I00
sg9
I5
sg10
(lp3002
g381
ag507
asg24
I00
sg25
I00
sg26
I4999211
sg17
S'17368.5223153'
p3003
sba(igraph
Edge
p3004
(dp3005
g7
I1
sg8
I00
sg9
I5
sg10
(lp3006
g388
ag521
asg24
I00
sg25
I00
sg26
I4999212
sg17
S'17368.5333614'
p3007
sba(igraph
Edge
p3008
(dp3009
g7
I1
sg8
I00
sg9
I5
sg10
(lp3010
g395
ag521
asg24
I00
sg25
I00
sg26
I4999213
sg17
S'17368.5443284'
p3011
sba(igraph
Edge
p3012
(dp3013
g7
I1
sg8
I00
sg9
I5
sg10
(lp3014
g402
ag535
asg24
I00
sg25
I00
sg26
I4999214
sg17
S'17368.555108'
p3015
sba(igraph
Edge
p3016
(dp3017
g7
I1
sg8
I00
sg9
I5
sg10
(lp3018
g409
ag535
asg24
I00
sg25
I00
sg26
I4999215
sg17
S'17368.56597'
p3019
sba(igraph
Edge
p3020
(dp3021
g7
I1
sg8
I00
sg9
I5
sg10
(lp3022
g420
ag553
asg24
I00
sg25
I00
sg26
I4999216
sg17
S'17368.5766903'
p3023
sba(igraph
Edge
p3024
(dp3025
g7
I1
sg8
I00
sg9
I5
sg10
(lp3026
g423
ag553
asg24
I00
sg25
I00
sg26
I4999217
sg17
S'17368.587701'
p3027
sba(igraph
Edge
p3028
(dp3029
g7
I1
sg8
I00
sg9
I5
sg10
(lp3030
g430
ag563
asg24
I00
sg25
I00
sg26
I4999218
sg17
S'17368.5986289'
p3031
sba(igraph
Edge
p3032
(dp3033
g7
I1
sg8
I00
sg9
I5
sg10
(lp3034
g437
ag563
asg24
I00
sg25
I00
sg26
I4999219
sg17
S'17368.6095859'
p3035
sba(igraph
Edge
p3036
(dp3037
g7
I1
sg8
I00
sg9
I5
sg10
(lp3038
g444
ag577
asg24
I00
sg25
I00
sg26
I4999220
sg17
S'17368.6206764'
p3039
sba(igraph
Edge
p3040
(dp3041
g7
I1
sg8
I00
sg9
I5
sg10
(lp3042
g451
ag577
asg24
I00
sg25
I00
sg26
I4999221
sg17
S'17368.6317012'
p3043
sba(igraph
Edge
p3044
(dp3045
g7
I1
sg8
I00
sg9
I5
sg10
(lp3046
g458
ag591
asg24
I00
sg25
I00
sg26
I4999222
sg17
S'17368.6427046'
p3047
sba(igraph
Edge
p3048
(dp3049
g7
I1
sg8
I00
sg9
I5
sg10
(lp3050
g465
ag591
asg24
I00
sg25
I00
sg26
I4999223
sg17
S'17368.6536445'
p3051
sba(igraph
Edge
p3052
(dp3053
g7
I1
sg8
I00
sg9
I5
sg10
(lp3054
g472
ag605
asg24
I00
sg25
I00
sg26
I4999224
sg17
S'17368.6649951'
p3055
sba(igraph
Edge
p3056
(dp3057
g7
I1
sg8
I00
sg9
I5
sg10
(lp3058
g479
ag605
asg24
I00
sg25
I00
sg26
I4999225
sg17
S'17368.6759881'
p3059
sba(igraph
Edge
p3060
(dp3061
g7
I1
sg8
I00
sg9
I5
sg10
(lp3062
g486
ag619
asg24
I00
sg25
I00
sg26
I4999226
sg17
S'17368.6874533'
p3063
sba(igraph
Edge
p3064
(dp3065
g7
I1
sg8
I00
sg9
I5
sg10
(lp3066
g493
ag619
asg24
I00
sg25
I00
sg26
I4999227
sg17
S'17368.6986466'
p3067
sba(igraph
Edge
p3068
(dp3069
g7
I1
sg8
I00
sg9
I5
sg10
(lp3070
g500
ag633
asg24
I00
sg25
I00
sg26
I4999228
sg17
S'17368.7105906'
p3071
sba(igraph
Edge
p3072
(dp3073
g7
I1
sg8
I00
sg9
I5
sg10
(lp3074
g507
ag633
asg24
I00
sg25
I00
sg26
I4999229
sg17
S'17368.7217496'
p3075
sba(igraph
Edge
p3076
(dp3077
g7
I1
sg8
I00
sg9
I5
sg10
(lp3078
g514
ag647
asg24
I00
sg25
I00
sg26
I4999230
sg17
S'17368.7329728'
p3079
sba(igraph
Edge
p3080
(dp3081
g7
I1
sg8
I00
sg9
I5
sg10
(lp3082
g521
ag647
asg24
I00
sg25
I00
sg26
I4999231
sg17
S'17368.7442175'
p3083
sba(igraph
Edge
p3084
(dp3085
g7
I1
sg8
I00
sg9
I5
sg10
(lp3086
g528
ag661
asg24
I00
sg25
I00
sg26
I4999232
sg17
S'17368.7553331'
p3087
sba(igraph
Edge
p3088
(dp3089
g7
I1
sg8
I00
sg9
I5
sg10
(lp3090
g535
ag661
asg24
I00
sg25
I00
sg26
I4999233
sg17
S'17368.7665656'
p3091
sba(igraph
Edge
p3092
(dp3093
g7
I1
sg8
I00
sg9
I5
sg10
(lp3094
g542
ag675
asg24
I00
sg25
I00
sg26
I4999234
sg17
S'17368.7792057'
p3095
sba(igraph
Edge
p3096
(dp3097
g7
I1
sg8
I00
sg9
I5
sg10
(lp3098
g420
ag675
asg24
I00
sg25
I00
sg26
I4999235
sg17
S'17368.7905058'
p3099
sba(igraph
Edge
p3100
(dp3101
g7
I1
sg8
I00
sg9
I5
sg10
(lp3102
g423
ag556
asg24
I00
sg25
I00
sg26
I4999236
sg17
S'17368.8023059'
p3103
sba(igraph
Edge
p3104
(dp3105
g7
I1
sg8
I00
sg9
I5
sg10
(lp3106
g430
ag556
asg24
I00
sg25
I00
sg26
I4999237
sg17
S'17368.8135707'
p3107
sba(igraph
Edge
p3108
(dp3109
g7
I1
sg8
I00
sg9
I5
sg10
(lp3110
g437
ag570
asg24
I00
sg25
I00
sg26
I4999238
sg17
S'17368.8253786'
p3111
sba(igraph
Edge
p3112
(dp3113
g7
I1
sg8
I00
sg9
I5
sg10
(lp3114
g444
ag570
asg24
I00
sg25
I00
sg26
I4999239
sg17
S'17368.8367072'
p3115
sba(igraph
Edge
p3116
(dp3117
g7
I1
sg8
I00
sg9
I5
sg10
(lp3118
g451
ag584
asg24
I00
sg25
I00
sg26
I4999240
sg17
S'17368.8480913'
p3119
sba(igraph
Edge
p3120
(dp3121
g7
I1
sg8
I00
sg9
I5
sg10
(lp3122
g458
ag584
asg24
I00
sg25
I00
sg26
I4999241
sg17
S'17368.8594408'
p3123
sba(igraph
Edge
p3124
(dp3125
g7
I1
sg8
I00
sg9
I5
sg10
(lp3126
g465
ag598
asg24
I00
sg25
I00
sg26
I4999242
sg17
S'17368.8707501'
p3127
sba(igraph
Edge
p3128
(dp3129
g7
I1
sg8
I00
sg9
I5
sg10
(lp3130
g472
ag598
asg24
I00
sg25
I00
sg26
I4999243
sg17
S'17368.8821638'
p3131
sba(igraph
Edge
p3132
(dp3133
g7
I1
sg8
I00
sg9
I5
sg10
(lp3134
g479
ag612
asg24
I00
sg25
I00
sg26
I4999244
sg17
S'17368.8939969'
p3135
sba(igraph
Edge
p3136
(dp3137
g7
I1
sg8
I00
sg9
I5
sg10
(lp3138
g486
ag612
asg24
I00
sg25
I00
sg26
I4999245
sg17
S'17368.9058531'
p3139
sba(igraph
Edge
p3140
(dp3141
g7
I1
sg8
I00
sg9
I5
sg10
(lp3142
g493
ag626
asg24
I00
sg25
I00
sg26
I4999246
sg17
S'17368.9177273'
p3143
sba(igraph
Edge
p3144
(dp3145
g7
I1
sg8
I00
sg9
I5
sg10
(lp3146
g500
ag626
asg24
I00
sg25
I00
sg26
I4999247
sg17
S'17368.9291823'
p3147
sba(igraph
Edge
p3148
(dp3149
g7
I1
sg8
I01
sg9
I5
sg10
(lp3150
g507
ag640
asg24
I00
sg25
I00
sg26
I4999249
sg17
S'17368.9406715'
p3151
sba(igraph
Edge
p3152
(dp3153
g7
I1
sg8
I00
sg9
I5
sg10
(lp3154
g514
ag640
asg24
I00
sg25
I00
sg26
I4999250
sg17
S'17368.9521308'
p3155
sba(igraph
Edge
p3156
(dp3157
g7
I1
sg8
I00
sg9
I5
sg10
(lp3158
g521
ag654
asg24
I00
sg25
I00
sg26
I4999251
sg17
S'17368.9637792'
p3159
sba(igraph
Edge
p3160
(dp3161
g7
I1
sg8
I00
sg9
I5
sg10
(lp3162
g528
ag654
asg24
I00
sg25
I00
sg26
I4999252
sg17
S'17368.975446'
p3163
sba(igraph
Edge
p3164
(dp3165
g7
I1
sg8
I00
sg9
I5
sg10
(lp3166
g535
ag668
asg24
I00
sg25
I00
sg26
I4999253
sg17
S'17368.9871559'
p3167
sba(igraph
Edge
p3168
(dp3169
g7
I1
sg8
I00
sg9
I5
sg10
(lp3170
g542
ag668
asg24
I00
sg25
I00
sg26
I4999254
sg17
S'17368.9988395'
p3171
sba(igraph
Edge
p3172
(dp3173
g7
I1
sg8
I00
sg9
I5
sg10
(lp3174
g553
ag686
asg24
I00
sg25
I00
sg26
I4999255
sg17
S'17369.0105801'
p3175
sba(igraph
Edge
p3176
(dp3177
g7
I1
sg8
I00
sg9
I5
sg10
(lp3178
g556
ag686
asg24
I00
sg25
I00
sg26
I4999256
sg17
S'17369.0225065'
p3179
sba(igraph
Edge
p3180
(dp3181
g7
I1
sg8
I00
sg9
I5
sg10
(lp3182
g563
ag696
asg24
I00
sg25
I00
sg26
I4999257
sg17
S'17369.0344552'
p3183
sba(igraph
Edge
p3184
(dp3185
g7
I1
sg8
I00
sg9
I5
sg10
(lp3186
g570
ag696
asg24
I00
sg25
I00
sg26
I4999258
sg17
S'17369.0461564'
p3187
sba(igraph
Edge
p3188
(dp3189
g7
I1
sg8
I00
sg9
I5
sg10
(lp3190
g577
ag710
asg24
I00
sg25
I00
sg26
I4999259
sg17
S'17369.0579331'
p3191
sba(igraph
Edge
p3192
(dp3193
g7
I1
sg8
I00
sg9
I5
sg10
(lp3194
g584
ag710
asg24
I00
sg25
I00
sg26
I4999260
sg17
S'17369.0695792'
p3195
sba(igraph
Edge
p3196
(dp3197
g7
I1
sg8
I00
sg9
I5
sg10
(lp3198
g591
ag724
asg24
I00
sg25
I00
sg26
I4999261
sg17
S'17369.0814095'
p3199
sba(igraph
Edge
p3200
(dp3201
g7
I1
sg8
I00
sg9
I5
sg10
(lp3202
g598
ag724
asg24
I00
sg25
I00
sg26
I4999262
sg17
S'17369.0930934'
p3203
sba(igraph
Edge
p3204
(dp3205
g7
I1
sg8
I00
sg9
I5
sg10
(lp3206
g605
ag738
asg24
I00
sg25
I00
sg26
I4999263
sg17
S'17369.1049276'
p3207
sba(igraph
Edge
p3208
(dp3209
g7
I1
sg8
I00
sg9
I5
sg10
(lp3210
g612
ag738
asg24
I00
sg25
I00
sg26
I4999264
sg17
S'17369.116961'
p3211
sba(igraph
Edge
p3212
(dp3213
g7
I1
sg8
I00
sg9
I5
sg10
(lp3214
g619
ag752
asg24
I00
sg25
I00
sg26
I4999265
sg17
S'17369.128563'
p3215
sba(igraph
Edge
p3216
(dp3217
g7
I1
sg8
I00
sg9
I5
sg10
(lp3218
g626
ag752
asg24
I00
sg25
I00
sg26
I4999266
sg17
S'17369.140443'
p3219
sba(igraph
Edge
p3220
(dp3221
g7
I1
sg8
I00
sg9
I5
sg10
(lp3222
g633
ag766
asg24
I00
sg25
I00
sg26
I4999267
sg17
S'17369.1528091'
p3223
sba(igraph
Edge
p3224
(dp3225
g7
I1
sg8
I00
sg9
I5
sg10
(lp3226
g640
ag766
asg24
I00
sg25
I00
sg26
I4999268
sg17
S'17369.1647785'
p3227
sba(igraph
Edge
p3228
(dp3229
g7
I1
sg8
I00
sg9
I5
sg10
(lp3230
g647
ag780
asg24
I00
sg25
I00
sg26
I4999269
sg17
S'17369.1778665'
p3231
sba(igraph
Edge
p3232
(dp3233
g7
I1
sg8
I00
sg9
I5
sg10
(lp3234
g654
ag780
asg24
I00
sg25
I00
sg26
I4999270
sg17
S'17369.1911567'
p3235
sba(igraph
Edge
p3236
(dp3237
g7
I1
sg8
I00
sg9
I5
sg10
(lp3238
g661
ag794
asg24
I00
sg25
I00
sg26
I4999271
sg17
S'17369.204885'
p3239
sba(igraph
Edge
p3240
(dp3241
g7
I1
sg8
I00
sg9
I5
sg10
(lp3242
g668
ag794
asg24
I00
sg25
I00
sg26
I4999272
sg17
S'17369.2187334'
p3243
sba(igraph
Edge
p3244
(dp3245
g7
I1
sg8
I00
sg9
I5
sg10
(lp3246
g675
ag808
asg24
I00
sg25
I00
sg26
I4999273
sg17
S'17369.2322122'
p3247
sba(igraph
Edge
p3248
(dp3249
g7
I1
sg8
I00
sg9
I5
sg10
(lp3250
g553
ag808
asg24
I00
sg25
I00
sg26
I4999274
sg17
S'17369.2477566'
p3251
sba(igraph
Edge
p3252
(dp3253
g7
I1
sg8
I00
sg9
I5
sg10
(lp3254
g556
ag689
asg24
I00
sg25
I00
sg26
I4999275
sg17
S'17369.2615427'
p3255
sba(igraph
Edge
p3256
(dp3257
g7
I1
sg8
I00
sg9
I5
sg10
(lp3258
g563
ag689
asg24
I00
sg25
I00
sg26
I4999276
sg17
S'17369.2796576'
p3259
sba(igraph
Edge
p3260
(dp3261
g7
I1
sg8
I00
sg9
I5
sg10
(lp3262
g570
ag703
asg24
I00
sg25
I00
sg26
I4999277
sg17
S'17369.2944366'
p3263
sba(igraph
Edge
p3264
(dp3265
g7
I1
sg8
I00
sg9
I5
sg10
(lp3266
g577
ag703
asg24
I00
sg25
I00
sg26
I4999278
sg17
S'17369.3100444'
p3267
sba(igraph
Edge
p3268
(dp3269
g7
I1
sg8
I00
sg9
I5
sg10
(lp3270
g584
ag717
asg24
I00
sg25
I00
sg26
I4999279
sg17
S'17369.3246055'
p3271
sba(igraph
Edge
p3272
(dp3273
g7
I1
sg8
I00
sg9
I5
sg10
(lp3274
g591
ag717
asg24
I00
sg25
I00
sg26
I4999280
sg17
S'17369.3397085'
p3275
sba(igraph
Edge
p3276
(dp3277
g7
I1
sg8
I00
sg9
I5
sg10
(lp3278
g598
ag731
asg24
I00
sg25
I00
sg26
I4999281
sg17
S'17369.3543819'
p3279
sba(igraph
Edge
p3280
(dp3281
g7
I1
sg8
I00
sg9
I5
sg10
(lp3282
g605
ag731
asg24
I00
sg25
I00
sg26
I4999282
sg17
S'17369.3721831'
p3283
sba(igraph
Edge
p3284
(dp3285
g7
I1
sg8
I00
sg9
I5
sg10
(lp3286
g612
ag745
asg24
I00
sg25
I00
sg26
I4999283
sg17
S'17369.3863458'
p3287
sba(igraph
Edge
p3288
(dp3289
g7
I1
sg8
I00
sg9
I5
sg10
(lp3290
g619
ag745
asg24
I00
sg25
I00
sg26
I4999284
sg17
S'17369.3999081'
p3291
sba(igraph
Edge
p3292
(dp3293
g7
I1
sg8
I00
sg9
I5
sg10
(lp3294
g626
ag759
asg24
I00
sg25
I00
sg26
I4999285
sg17
S'17369.4158285'
p3295
sba(igraph
Edge
p3296
(dp3297
g7
I1
sg8
I00
sg9
I5
sg10
(lp3298
g633
ag759
asg24
I00
sg25
I00
sg26
I4999286
sg17
S'17369.4303075'
p3299
sba(igraph
Edge
p3300
(dp3301
g7
I1
sg8
I00
sg9
I5
sg10
(lp3302
g640
ag773
asg24
I00
sg25
I00
sg26
I4999287
sg17
S'17369.4455966'
p3303
sba(igraph
Edge
p3304
(dp3305
g7
I1
sg8
I00
sg9
I5
sg10
(lp3306
g647
ag773
asg24
I00
sg25
I00
sg26
I4999288
sg17
S'17369.461833'
p3307
sba(igraph
Edge
p3308
(dp3309
g7
I1
sg8
I00
sg9
I5
sg10
(lp3310
g654
ag787
asg24
I00
sg25
I00
sg26
I4999289
sg17
S'17369.477002'
p3311
sba(igraph
Edge
p3312
(dp3313
g7
I1
sg8
I00
sg9
I5
sg10
(lp3314
g661
ag787
asg24
I00
sg25
I00
sg26
I4999290
sg17
S'17369.4912004'
p3315
sba(igraph
Edge
p3316
(dp3317
g7
I1
sg8
I00
sg9
I5
sg10
(lp3318
g668
ag801
asg24
I00
sg25
I00
sg26
I4999291
sg17
S'17369.50526'
p3319
sba(igraph
Edge
p3320
(dp3321
g7
I1
sg8
I00
sg9
I5
sg10
(lp3322
g675
ag801
asg24
I00
sg25
I00
sg26
I4999292
sg17
S'17369.5199493'
p3323
sba(igraph
Edge
p3324
(dp3325
g7
I1
sg8
I00
sg9
I5
sg10
(lp3326
g686
ag819
asg24
I00
sg25
I00
sg26
I4999293
sg17
S'17369.5343964'
p3327
sba(igraph
Edge
p3328
(dp3329
g7
I1
sg8
I00
sg9
I5
sg10
(lp3330
g689
ag819
asg24
I00
sg25
I00
sg26
I4999294
sg17
S'17369.5490455'
p3331
sba(igraph
Edge
p3332
(dp3333
g7
I1
sg8
I00
sg9
I5
sg10
(lp3334
g696
ag829
asg24
I00
sg25
I00
sg26
I4999295
sg17
S'17369.5634518'
p3335
sba(igraph
Edge
p3336
(dp3337
g7
I1
sg8
I00
sg9
I5
sg10
(lp3338
g703
ag829
asg24
I00
sg25
I00
sg26
I4999296
sg17
S'17369.5788884'
p3339
sba(igraph
Edge
p3340
(dp3341
g7
I1
sg8
I00
sg9
I5
sg10
(lp3342
g710
ag843
asg24
I00
sg25
I00
sg26
I4999297
sg17
S'17369.5942906'
p3343
sba(igraph
Edge
p3344
(dp3345
g7
I1
sg8
I00
sg9
I5
sg10
(lp3346
g717
ag843
asg24
I00
sg25
I00
sg26
I4999298
sg17
S'17369.6099233'
p3347
sba(igraph
Edge
p3348
(dp3349
g7
I1
sg8
I00
sg9
I5
sg10
(lp3350
g724
ag857
asg24
I00
sg25
I00
sg26
I4999299
sg17
S'17369.6262581'
p3351
sba(igraph
Edge
p3352
(dp3353
g7
I1
sg8
I00
sg9
I5
sg10
(lp3354
g731
ag857
asg24
I00
sg25
I00
sg26
I4999300
sg17
S'17369.6411496'
p3355
sba(igraph
Edge
p3356
(dp3357
g7
I1
sg8
I00
sg9
I5
sg10
(lp3358
g738
ag871
asg24
I00
sg25
I00
sg26
I4999301
sg17
S'17369.6568217'
p3359
sba(igraph
Edge
p3360
(dp3361
g7
I1
sg8
I00
sg9
I5
sg10
(lp3362
g745
ag871
asg24
I00
sg25
I00
sg26
I4999302
sg17
S'17369.6712669'
p3363
sba(igraph
Edge
p3364
(dp3365
g7
I1
sg8
I00
sg9
I5
sg10
(lp3366
g752
ag885
asg24
I00
sg25
I00
sg26
I4999303
sg17
S'17369.6875033'
p3367
sba(igraph
Edge
p3368
(dp3369
g7
I1
sg8
I00
sg9
I5
sg10
(lp3370
g759
ag885
asg24
I00
sg25
I00
sg26
I4999304
sg17
S'17369.7031033'
p3371
sba(igraph
Edge
p3372
(dp3373
g7
I1
sg8
I00
sg9
I5
sg10
(lp3374
g766
ag899
asg24
I00
sg25
I00
sg26
I4999305
sg17
S'17369.7188321'
p3375
sba(igraph
Edge
p3376
(dp3377
g7
I1
sg8
I00
sg9
I5
sg10
(lp3378
g773
ag899
asg24
I00
sg25
I00
sg26
I4999306
sg17
S'17369.7343308'
p3379
sba(igraph
Edge
p3380
(dp3381
g7
I1
sg8
I00
sg9
I5
sg10
(lp3382
g780
ag913
asg24
I00
sg25
I00
sg26
I4999307
sg17
S'17369.7495388'
p3383
sba(igraph
Edge
p3384
(dp3385
g7
I1
sg8
I00
sg9
I5
sg10
(lp3386
g787
ag913
asg24
I00
sg25
I00
sg26
I4999308
sg17
S'17369.76494'
p3387
sba(igraph
Edge
p3388
(dp3389
g7
I1
sg8
I00
sg9
I5
sg10
(lp3390
g794
ag927
asg24
I00
sg25
I00
sg26
I4999309
sg17
S'17369.7817762'
p3391
sba(igraph
Edge
p3392
(dp3393
g7
I1
sg8
I00
sg9
I5
sg10
(lp3394
g801
ag927
asg24
I00
sg25
I00
sg26
I4999310
sg17
S'17369.7969222'
p3395
sba(igraph
Edge
p3396
(dp3397
g7
I1
sg8
I00
sg9
I5
sg10
(lp3398
g808
ag941
asg24
I00
sg25
I00
sg26
I4999311
sg17
S'17369.8100697'
p3399
sba(igraph
Edge
p3400
(dp3401
g7
I1
sg8
I00
sg9
I5
sg10
(lp3402
g686
ag941
asg24
I00
sg25
I00
sg26
I4999312
sg17
S'17369.8230166'
p3403
sba(igraph
Edge
p3404
(dp3405
g7
I1
sg8
I00
sg9
I5
sg10
(lp3406
g689
ag822
asg24
I00
sg25
I00
sg26
I4999313
sg17
S'17369.8365119'
p3407
sba(igraph
Edge
p3408
(dp3409
g7
I1
sg8
I00
sg9
I5
sg10
(lp3410
g696
ag822
asg24
I00
sg25
I00
sg26
I4999314
sg17
S'17369.849539'
p3411
sba(igraph
Edge
p3412
(dp3413
g7
I1
sg8
I00
sg9
I5
sg10
(lp3414
g703
ag836
asg24
I00
sg25
I00
sg26
I4999315
sg17
S'17369.862423'
p3415
sba(igraph
Edge
p3416
(dp3417
g7
I1
sg8
I00
sg9
I5
sg10
(lp3418
g710
ag836
asg24
I00
sg25
I00
sg26
I4999316
sg17
S'17369.8753233'
p3419
sba(igraph
Edge
p3420
(dp3421
g7
I1
sg8
I00
sg9
I5
sg10
(lp3422
g717
ag850
asg24
I00
sg25
I00
sg26
I4999317
sg17
S'17369.8884118'
p3423
sba(igraph
Edge
p3424
(dp3425
g7
I1
sg8
I00
sg9
I5
sg10
(lp3426
g724
ag850
asg24
I00
sg25
I00
sg26
I4999318
sg17
S'17369.9017154'
p3427
sba(igraph
Edge
p3428
(dp3429
g7
I1
sg8
I00
sg9
I5
sg10
(lp3430
g731
ag864
asg24
I00
sg25
I00
sg26
I4999319
sg17
S'17369.9148453'
p3431
sba(igraph
Edge
p3432
(dp3433
g7
I1
sg8
I00
sg9
I5
sg10
(lp3434
g738
ag864
asg24
I00
sg25
I00
sg26
I4999320
sg17
S'17369.9284113'
p3435
sba(igraph
Edge
p3436
(dp3437
g7
I1
sg8
I00
sg9
I5
sg10
(lp3438
g745
ag878
asg24
I00
sg25
I00
sg26
I4999321
sg17
S'17369.9414434'
p3439
sba(igraph
Edge
p3440
(dp3441
g7
I1
sg8
I00
sg9
I5
sg10
(lp3442
g752
ag878
asg24
I00
sg25
I00
sg26
I4999322
sg17
S'17369.9545266'
p3443
sba(igraph
Edge
p3444
(dp3445
g7
I1
sg8
I00
sg9
I5
sg10
(lp3446
g759
ag892
asg24
I00
sg25
I00
sg26
I4999323
sg17
S'17369.9680736'
p3447
sba(igraph
Edge
p3448
(dp3449
g7
I1
sg8
I00
sg9
I5
sg10
(lp3450
g766
ag892
asg24
I00
sg25
I00
sg26
I4999324
sg17
S'17369.9815315'
p3451
sba(igraph
Edge
p3452
(dp3453
g7
I1
sg8
I00
sg9
I5
sg10
(lp3454
g773
ag906
asg24
I00
sg25
I00
sg26
I4999325
sg17
S'17369.9947259'
p3455
sba(igraph
Edge
p3456
(dp3457
g7
I1
sg8
I00
sg9
I5
sg10
(lp3458
g780
ag906
asg24
I00
sg25
I00
sg26
I4999326
sg17
S'17370.0084944'
p3459
sba(igraph
Edge
p3460
(dp3461
g7
I1
sg8
I00
sg9
I5
sg10
(lp3462
g787
ag920
asg24
I00
sg25
I00
sg26
I4999327
sg17
S'17370.021917'
p3463
sba(igraph
Edge
p3464
(dp3465
g7
I1
sg8
I00
sg9
I5
sg10
(lp3466
g794
ag920
asg24
I00
sg25
I00
sg26
I4999328
sg17
S'17370.0353076'
p3467
sba(igraph
Edge
p3468
(dp3469
g7
I1
sg8
I00
sg9
I5
sg10
(lp3470
g801
ag934
asg24
I00
sg25
I00
sg26
I4999329
sg17
S'17370.0486344'
p3471
sba(igraph
Edge
p3472
(dp3473
g7
I1
sg8
I00
sg9
I5
sg10
(lp3474
g808
ag934
asg24
I00
sg25
I00
sg26
I4999330
sg17
S'17370.0621749'
p3475
sba(igraph
Edge
p3476
(dp3477
g7
I1
sg8
I00
sg9
I5
sg10
(lp3478
g819
ag952
asg24
I00
sg25
I00
sg26
I4999331
sg17
S'17370.0755847'
p3479
sba(igraph
Edge
p3480
(dp3481
g7
I1
sg8
I00
sg9
I5
sg10
(lp3482
g822
ag952
asg24
I00
sg25
I00
sg26
I4999332
sg17
S'17370.0890485'
p3483
sba(igraph
Edge
p3484
(dp3485
g7
I1
sg8
I00
sg9
I5
sg10
(lp3486
g829
ag962
asg24
I00
sg25
I00
sg26
I4999333
sg17
S'17370.1033824'
p3487
sba(igraph
Edge
p3488
(dp3489
g7
I1
sg8
I00
sg9
I5
sg10
(lp3490
g836
ag962
asg24
I00
sg25
I00
sg26
I4999334
sg17
S'17370.116888'
p3491
sba(igraph
Edge
p3492
(dp3493
g7
I1
sg8
I00
sg9
I5
sg10
(lp3494
g843
ag976
asg24
I00
sg25
I00
sg26
I4999335
sg17
S'17370.1309963'
p3495
sba(igraph
Edge
p3496
(dp3497
g7
I1
sg8
I00
sg9
I5
sg10
(lp3498
g850
ag976
asg24
I00
sg25
I00
sg26
I4999336
sg17
S'17370.1443225'
p3499
sba(igraph
Edge
p3500
(dp3501
g7
I1
sg8
I00
sg9
I5
sg10
(lp3502
g857
ag990
asg24
I00
sg25
I00
sg26
I4999337
sg17
S'17370.1576795'
p3503
sba(igraph
Edge
p3504
(dp3505
g7
I1
sg8
I00
sg9
I5
sg10
(lp3506
g864
ag990
asg24
I00
sg25
I00
sg26
I4999338
sg17
S'17370.1711757'
p3507
sba(igraph
Edge
p3508
(dp3509
g7
I1
sg8
I00
sg9
I5
sg10
(lp3510
g871
ag1004
asg24
I00
sg25
I00
sg26
I4999339
sg17
S'17370.1850121'
p3511
sba(igraph
Edge
p3512
(dp3513
g7
I1
sg8
I00
sg9
I5
sg10
(lp3514
g878
ag1004
asg24
I00
sg25
I00
sg26
I4999340
sg17
S'17370.1985428'
p3515
sba(igraph
Edge
p3516
(dp3517
g7
I1
sg8
I00
sg9
I5
sg10
(lp3518
g885
ag1018
asg24
I00
sg25
I00
sg26
I4999341
sg17
S'17370.2136302'
p3519
sba(igraph
Edge
p3520
(dp3521
g7
I1
sg8
I00
sg9
I5
sg10
(lp3522
g892
ag1018
asg24
I00
sg25
I00
sg26
I4999342
sg17
S'17370.2273233'
p3523
sba(igraph
Edge
p3524
(dp3525
g7
I1
sg8
I00
sg9
I5
sg10
(lp3526
g899
ag1032
asg24
I00
sg25
I00
sg26
I4999343
sg17
S'17370.2410248'
p3527
sba(igraph
Edge
p3528
(dp3529
g7
I1
sg8
I00
sg9
I5
sg10
(lp3530
g906
ag1032
asg24
I00
sg25
I00
sg26
I4999344
sg17
S'17370.2546522'
p3531
sba(igraph
Edge
p3532
(dp3533
g7
I1
sg8
I00
sg9
I5
sg10
(lp3534
g913
ag1046
asg24
I00
sg25
I00
sg26
I4999345
sg17
S'17370.2680936'
p3535
sba(igraph
Edge
p3536
(dp3537
g7
I1
sg8
I00
sg9
I5
sg10
(lp3538
g920
ag1046
asg24
I00
sg25
I00
sg26
I4999346
sg17
S'17370.283457'
p3539
sba(igraph
Edge
p3540
(dp3541
g7
I1
sg8
I00
sg9
I5
sg10
(lp3542
g927
ag1060
asg24
I00
sg25
I00
sg26
I4999347
sg17
S'17370.2971361'
p3543
sba(igraph
Edge
p3544
(dp3545
g7
I1
sg8
I00
sg9
I5
sg10
(lp3546
g934
ag1060
asg24
I00
sg25
I00
sg26
I4999348
sg17
S'17370.31083'
p3547
sba(igraph
Edge
p3548
(dp3549
g7
I1
sg8
I00
sg9
I5
sg10
(lp3550
g941
ag1074
asg24
I00
sg25
I00
sg26
I4999349
sg17
S'17370.3244538'
p3551
sba(igraph
Edge
p3552
(dp3553
g7
I1
sg8
I00
sg9
I5
sg10
(lp3554
g819
ag1074
asg24
I00
sg25
I00
sg26
I4999350
sg17
S'17370.3388341'
p3555
sba(igraph
Edge
p3556
(dp3557
g7
I1
sg8
I00
sg9
I5
sg10
(lp3558
g822
ag955
asg24
I00
sg25
I00
sg26
I4999351
sg17
S'17370.3524931'
p3559
sba(igraph
Edge
p3560
(dp3561
g7
I1
sg8
I00
sg9
I5
sg10
(lp3562
g829
ag955
asg24
I00
sg25
I00
sg26
I4999352
sg17
S'17370.3663577'
p3563
sba(igraph
Edge
p3564
(dp3565
g7
I1
sg8
I00
sg9
I5
sg10
(lp3566
g836
ag969
asg24
I00
sg25
I00
sg26
I4999353
sg17
S'17370.3800025'
p3567
sba(igraph
Edge
p3568
(dp3569
g7
I1
sg8
I00
sg9
I5
sg10
(lp3570
g843
ag969
asg24
I00
sg25
I00
sg26
I4999354
sg17
S'17370.3939115'
p3571
sba(igraph
Edge
p3572
(dp3573
g7
I1
sg8
I00
sg9
I5
sg10
(lp3574
g850
ag983
asg24
I00
sg25
I00
sg26
I4999355
sg17
S'17370.4083254'
p3575
sba(igraph
Edge
p3576
(dp3577
g7
I1
sg8
I00
sg9
I5
sg10
(lp3578
g857
ag983
asg24
I00
sg25
I00
sg26
I4999356
sg17
S'17370.4224244'
p3579
sba(igraph
Edge
p3580
(dp3581
g7
I1
sg8
I00
sg9
I5
sg10
(lp3582
g864
ag997
asg24
I00
sg25
I00
sg26
I4999357
sg17
S'17370.4363583'
p3583
sba(igraph
Edge
p3584
(dp3585
g7
I1
sg8
I00
sg9
I5
sg10
(lp3586
g871
ag997
asg24
I00
sg25
I00
sg26
I4999358
sg17
S'17370.4509026'
p3587
sba(igraph
Edge
p3588
(dp3589
g7
I1
sg8
I00
sg9
I5
sg10
(lp3590
g878
ag1011
asg24
I00
sg25
I00
sg26
I4999359
sg17
S'17370.4649985'
p3591
sba(igraph
Edge
p3592
(dp3593
g7
I1
sg8
I00
sg9
I5
sg10
(lp3594
g885
ag1011
asg24
I00
sg25
I00
sg26
I4999360
sg17
S'17370.4790469'
p3595
sba(igraph
Edge
p3596
(dp3597
g7
I1
sg8
I00
sg9
I5
sg10
(lp3598
g892
ag1025
asg24
I00
sg25
I00
sg26
I4999361
sg17
S'17370.4930624'
p3599
sba(igraph
Edge
p3600
(dp3601
g7
I1
sg8
I00
sg9
I5
sg10
(lp3602
g899
ag1025
asg24
I00
sg25
I00
sg26
I4999362
sg17
S'17370.507291'
p3603
sba(igraph
Edge
p3604
(dp3605
g7
I1
sg8
I00
sg9
I5
sg10
(lp3606
g906
ag1039
asg24
I00
sg25
I00
sg26
I4999363
sg17
S'17370.5211794'
p3607
sba(igraph
Edge
p3608
(dp3609
g7
I1
sg8
I00
sg9
I5
sg10
(lp3610
g913
ag1039
asg24
I00
sg25
I00
sg26
I4999364
sg17
S'17370.5353175'
p3611
sba(igraph
Edge
p3612
(dp3613
g7
I1
sg8
I00
sg9
I5
sg10
(lp3614
g920
ag1053
asg24
I00
sg25
I00
sg26
I4999365
sg17
S'17370.5491731'
p3615
sba(igraph
Edge
p3616
(dp3617
g7
I1
sg8
I00
sg9
I5
sg10
(lp3618
g927
ag1053
asg24
I00
sg25
I00
sg26
I4999366
sg17
S'17370.5633378'
p3619
sba(igraph
Edge
p3620
(dp3621
g7
I1
sg8
I00
sg9
I5
sg10
(lp3622
g934
ag1067
asg24
I00
sg25
I00
sg26
I4999367
sg17
S'17370.5775684'
p3623
sba(igraph
Edge
p3624
(dp3625
g7
I1
sg8
I00
sg9
I5
sg10
(lp3626
g941
ag1067
asg24
I00
sg25
I00
sg26
I4999368
sg17
S'17370.5919051'
p3627
sba(igraph
Edge
p3628
(dp3629
g7
I1
sg8
I00
sg9
I5
sg10
(lp3630
g952
ag1085
asg24
I00
sg25
I00
sg26
I4999369
sg17
S'17370.6060091'
p3631
sba(igraph
Edge
p3632
(dp3633
g7
I1
sg8
I00
sg9
I5
sg10
(lp3634
g955
ag1085
asg24
I00
sg25
I00
sg26
I4999370
sg17
S'17370.6207208'
p3635
sba(igraph
Edge
p3636
(dp3637
g7
I1
sg8
I00
sg9
I5
sg10
(lp3638
g962
ag1095
asg24
I00
sg25
I00
sg26
I4999371
sg17
S'17370.6354696'
p3639
sba(igraph
Edge
p3640
(dp3641
g7
I1
sg8
I00
sg9
I5
sg10
(lp3642
g969
ag1095
asg24
I00
sg25
I00
sg26
I4999372
sg17
S'17370.6501754'
p3643
sba(igraph
Edge
p3644
(dp3645
g7
I1
sg8
I00
sg9
I5
sg10
(lp3646
g976
ag1109
asg24
I00
sg25
I00
sg26
I4999373
sg17
S'17370.6650007'
p3647
sba(igraph
Edge
p3648
(dp3649
g7
I1
sg8
I00
sg9
I5
sg10
(lp3650
g983
ag1109
asg24
I00
sg25
I00
sg26
I4999374
sg17
S'17370.6793668'
p3651
sba(igraph
Edge
p3652
(dp3653
g7
I1
sg8
I00
sg9
I5
sg10
(lp3654
g990
ag1123
asg24
I00
sg25
I00
sg26
I4999375
sg17
S'17370.693684'
p3655
sba(igraph
Edge
p3656
(dp3657
g7
I1
sg8
I00
sg9
I5
sg10
(lp3658
g997
ag1123
asg24
I00
sg25
I00
sg26
I4999376
sg17
S'17370.7084548'
p3659
sba(igraph
Edge
p3660
(dp3661
g7
I1
sg8
I00
sg9
I5
sg10
(lp3662
g1004
ag1137
asg24
I00
sg25
I00
sg26
I4999377
sg17
S'17370.7227712'
p3663
sba(igraph
Edge
p3664
(dp3665
g7
I1
sg8
I00
sg9
I5
sg10
(lp3666
g1011
ag1137
asg24
I00
sg25
I00
sg26
I4999378
sg17
S'17370.7371054'
p3667
sba(igraph
Edge
p3668
(dp3669
g7
I1
sg8
I00
sg9
I5
sg10
(lp3670
g1018
ag1151
asg24
I00
sg25
I00
sg26
I4999379
sg17
S'17370.7513385'
p3671
sba(igraph
Edge
p3672
(dp3673
g7
I1
sg8
I00
sg9
I5
sg10
(lp3674
g1025
ag1151
asg24
I00
sg25
I00
sg26
I4999380
sg17
S'17370.7661865'
p3675
sba(igraph
Edge
p3676
(dp3677
g7
I1
sg8
I00
sg9
I5
sg10
(lp3678
g1032
ag1165
asg24
I00
sg25
I00
sg26
I4999381
sg17
S'17370.7826953'
p3679
sba(igraph
Edge
p3680
(dp3681
g7
I1
sg8
I00
sg9
I5
sg10
(lp3682
g1039
ag1165
asg24
I00
sg25
I00
sg26
I4999382
sg17
S'17370.7970639'
p3683
sba(igraph
Edge
p3684
(dp3685
g7
I1
sg8
I00
sg9
I5
sg10
(lp3686
g1046
ag1179
asg24
I00
sg25
I00
sg26
I4999383
sg17
S'17370.8116221'
p3687
sba(igraph
Edge
p3688
(dp3689
g7
I1
sg8
I00
sg9
I5
sg10
(lp3690
g1053
ag1179
asg24
I00
sg25
I00
sg26
I4999384
sg17
S'17370.8260508'
p3691
sba(igraph
Edge
p3692
(dp3693
g7
I1
sg8
I00
sg9
I5
sg10
(lp3694
g1060
ag1193
asg24
I00
sg25
I00
sg26
I4999385
sg17
S'17370.8412614'
p3695
sba(igraph
Edge
p3696
(dp3697
g7
I1
sg8
I00
sg9
I5
sg10
(lp3698
g1067
ag1193
asg24
I00
sg25
I00
sg26
I4999386
sg17
S'17370.8560574'
p3699
sba(igraph
Edge
p3700
(dp3701
g7
I1
sg8
I00
sg9
I5
sg10
(lp3702
g1074
ag1207
asg24
I00
sg25
I00
sg26
I4999387
sg17
S'17370.8715775'
p3703
sba(igraph
Edge
p3704
(dp3705
g7
I1
sg8
I00
sg9
I5
sg10
(lp3706
g952
ag1207
asg24
I00
sg25
I00
sg26
I4999388
sg17
S'17370.8865445'
p3707
sba(igraph
Edge
p3708
(dp3709
g7
I1
sg8
I00
sg9
I5
sg10
(lp3710
g955
ag1088
asg24
I00
sg25
I00
sg26
I4999389
sg17
S'17370.9012034'
p3711
sba(igraph
Edge
p3712
(dp3713
g7
I1
sg8
I00
sg9
I5
sg10
(lp3714
g962
ag1088
asg24
I00
sg25
I00
sg26
I4999390
sg17
S'17370.9158035'
p3715
sba(igraph
Edge
p3716
(dp3717
g7
I1
sg8
I00
sg9
I5
sg10
(lp3718
g969
ag1102
asg24
I00
sg25
I00
sg26
I4999391
sg17
S'17370.9302892'
p3719
sba(igraph
Edge
p3720
(dp3721
g7
I1
sg8
I00
sg9
I5
sg10
(lp3722
g976
ag1102
asg24
I00
sg25
I00
sg26
I4999392
sg17
S'17370.9448042'
p3723
sba(igraph
Edge
p3724
(dp3725
g7
I1
sg8
I00
sg9
I5
sg10
(lp3726
g983
ag1116
asg24
I00
sg25
I00
sg26
I4999393
sg17
S'17370.9595787'
p3727
sba(igraph
Edge
p3728
(dp3729
g7
I1
sg8
I00
sg9
I5
sg10
(lp3730
g990
ag1116
asg24
I00
sg25
I00
sg26
I4999394
sg17
S'17370.9743127'
p3731
sba(igraph
Edge
p3732
(dp3733
g7
I1
sg8
I00
sg9
I5
sg10
(lp3734
g997
ag1130
asg24
I00
sg25
I00
sg26
I4999395
sg17
S'17370.9895598'
p3735
sba(igraph
Edge
p3736
(dp3737
g7
I1
sg8
I00
sg9
I5
sg10
(lp3738
g1004
ag1130
asg24
I00
sg25
I00
sg26
I4999396
sg17
S'17371.0043609'
p3739
sba(igraph
Edge
p3740
(dp3741
g7
I1
sg8
I00
sg9
I5
sg10
(lp3742
g1011
ag1144
asg24
I00
sg25
I00
sg26
I4999397
sg17
S'17371.0192184'
p3743
sba(igraph
Edge
p3744
(dp3745
g7
I1
sg8
I00
sg9
I5
sg10
(lp3746
g1018
ag1144
asg24
I00
sg25
I00
sg26
I4999398
sg17
S'17371.034039'
p3747
sba(igraph
Edge
p3748
(dp3749
g7
I1
sg8
I00
sg9
I5
sg10
(lp3750
g1025
ag1158
asg24
I00
sg25
I00
sg26
I4999399
sg17
S'17371.0488104'
p3751
sba(igraph
Edge
p3752
(dp3753
g7
I1
sg8
I00
sg9
I5
sg10
(lp3754
g1032
ag1158
asg24
I00
sg25
I00
sg26
I4999400
sg17
S'17371.0646524'
p3755
sba(igraph
Edge
p3756
(dp3757
g7
I1
sg8
I00
sg9
I5
sg10
(lp3758
g1039
ag1172
asg24
I00
sg25
I00
sg26
I4999401
sg17
S'17371.0803529'
p3759
sba(igraph
Edge
p3760
(dp3761
g7
I1
sg8
I00
sg9
I5
sg10
(lp3762
g1046
ag1172
asg24
I00
sg25
I00
sg26
I4999402
sg17
S'17371.0965086'
p3763
sba(igraph
Edge
p3764
(dp3765
g7
I1
sg8
I00
sg9
I5
sg10
(lp3766
g1053
ag1186
asg24
I00
sg25
I00
sg26
I4999403
sg17
S'17371.1135781'
p3767
sba(igraph
Edge
p3768
(dp3769
g7
I1
sg8
I00
sg9
I5
sg10
(lp3770
g1060
ag1186
asg24
I00
sg25
I00
sg26
I4999404
sg17
S'17371.1400832'
p3771
sba(igraph
Edge
p3772
(dp3773
g7
I1
sg8
I00
sg9
I5
sg10
(lp3774
g1067
ag1200
asg24
I00
sg25
I00
sg26
I4999405
sg17
S'17371.1603841'
p3775
sba(igraph
Edge
p3776
(dp3777
g7
I1
sg8
I00
sg9
I5
sg10
(lp3778
g1074
ag1200
asg24
I00
sg25
I00
sg26
I4999406
sg17
S'17371.1811269'
p3779
sba(igraph
Edge
p3780
(dp3781
g7
I1
sg8
I00
sg9
I5
sg10
(lp3782
g1085
ag1218
asg24
I00
sg25
I00
sg26
I4999407
sg17
S'17371.1976008'
p3783
sba(igraph
Edge
p3784
(dp3785
g7
I1
sg8
I00
sg9
I5
sg10
(lp3786
g1088
ag1218
asg24
I00
sg25
I00
sg26
I4999408
sg17
S'17371.2145812'
p3787
sba(igraph
Edge
p3788
(dp3789
g7
I1
sg8
I00
sg9
I5
sg10
(lp3790
g1095
ag1228
asg24
I00
sg25
I00
sg26
I4999409
sg17
S'17371.2298764'
p3791
sba(igraph
Edge
p3792
(dp3793
g7
I1
sg8
I00
sg9
I5
sg10
(lp3794
g1102
ag1228
asg24
I00
sg25
I00
sg26
I4999410
sg17
S'17371.2451482'
p3795
sba(igraph
Edge
p3796
(dp3797
g7
I1
sg8
I00
sg9
I5
sg10
(lp3798
g1109
ag1242
asg24
I00
sg25
I00
sg26
I4999411
sg17
S'17371.2606546'
p3799
sba(igraph
Edge
p3800
(dp3801
g7
I1
sg8
I00
sg9
I5
sg10
(lp3802
g1116
ag1242
asg24
I00
sg25
I00
sg26
I4999412
sg17
S'17371.2774691'
p3803
sba(igraph
Edge
p3804
(dp3805
g7
I1
sg8
I00
sg9
I5
sg10
(lp3806
g1123
ag1256
asg24
I00
sg25
I00
sg26
I4999413
sg17
S'17371.292564'
p3807
sba(igraph
Edge
p3808
(dp3809
g7
I1
sg8
I00
sg9
I5
sg10
(lp3810
g1130
ag1256
asg24
I00
sg25
I00
sg26
I4999414
sg17
S'17371.3080696'
p3811
sba(igraph
Edge
p3812
(dp3813
g7
I1
sg8
I00
sg9
I5
sg10
(lp3814
g1137
ag1270
asg24
I00
sg25
I00
sg26
I4999415
sg17
S'17371.3231081'
p3815
sba(igraph
Edge
p3816
(dp3817
g7
I1
sg8
I00
sg9
I5
sg10
(lp3818
g1144
ag1270
asg24
I00
sg25
I00
sg26
I4999416
sg17
S'17371.3392504'
p3819
sba(igraph
Edge
p3820
(dp3821
g7
I1
sg8
I00
sg9
I5
sg10
(lp3822
g1151
ag1284
asg24
I00
sg25
I00
sg26
I4999417
sg17
S'17371.354483'
p3823
sba(igraph
Edge
p3824
(dp3825
g7
I1
sg8
I00
sg9
I5
sg10
(lp3826
g1158
ag1284
asg24
I00
sg25
I00
sg26
I4999418
sg17
S'17371.3699001'
p3827
sba(igraph
Edge
p3828
(dp3829
g7
I1
sg8
I00
sg9
I5
sg10
(lp3830
g1165
ag1298
asg24
I00
sg25
I00
sg26
I4999419
sg17
S'17371.3853534'
p3831
sba(igraph
Edge
p3832
(dp3833
g7
I1
sg8
I00
sg9
I5
sg10
(lp3834
g1172
ag1298
asg24
I00
sg25
I00
sg26
I4999420
sg17
S'17371.400804'
p3835
sba(igraph
Edge
p3836
(dp3837
g7
I1
sg8
I00
sg9
I5
sg10
(lp3838
g1179
ag1312
asg24
I00
sg25
I00
sg26
I4999421
sg17
S'17371.4162076'
p3839
sba(igraph
Edge
p3840
(dp3841
g7
I1
sg8
I00
sg9
I5
sg10
(lp3842
g1186
ag1312
asg24
I00
sg25
I00
sg26
I4999422
sg17
S'17371.4316079'
p3843
sba(igraph
Edge
p3844
(dp3845
g7
I1
sg8
I00
sg9
I5
sg10
(lp3846
g1193
ag1326
asg24
I00
sg25
I00
sg26
I4999423
sg17
S'17371.4492264'
p3847
sba(igraph
Edge
p3848
(dp3849
g7
I1
sg8
I00
sg9
I5
sg10
(lp3850
g1200
ag1326
asg24
I00
sg25
I00
sg26
I4999424
sg17
S'17371.4649803'
p3851
sba(igraph
Edge
p3852
(dp3853
g7
I1
sg8
I00
sg9
I5
sg10
(lp3854
g1207
ag1340
asg24
I00
sg25
I00
sg26
I4999425
sg17
S'17371.480349'
p3855
sba(igraph
Edge
p3856
(dp3857
g7
I1
sg8
I00
sg9
I5
sg10
(lp3858
g1085
ag1340
asg24
I00
sg25
I00
sg26
I4999426
sg17
S'17371.4956898'
p3859
sba(igraph
Edge
p3860
(dp3861
g7
I1
sg8
I00
sg9
I5
sg10
(lp3862
g1088
ag1221
asg24
I00
sg25
I00
sg26
I4999427
sg17
S'17371.5111055'
p3863
sba(igraph
Edge
p3864
(dp3865
g7
I1
sg8
I00
sg9
I5
sg10
(lp3866
g1095
ag1221
asg24
I00
sg25
I00
sg26
I4999428
sg17
S'17371.5266532'
p3867
sba(igraph
Edge
p3868
(dp3869
g7
I1
sg8
I00
sg9
I5
sg10
(lp3870
g1102
ag1235
asg24
I00
sg25
I00
sg26
I4999429
sg17
S'17371.5422494'
p3871
sba(igraph
Edge
p3872
(dp3873
g7
I1
sg8
I00
sg9
I5
sg10
(lp3874
g1109
ag1235
asg24
I00
sg25
I00
sg26
I4999430
sg17
S'17371.557846'
p3875
sba(igraph
Edge
p3876
(dp3877
g7
I1
sg8
I00
sg9
I5
sg10
(lp3878
g1116
ag1249
asg24
I00
sg25
I00
sg26
I4999431
sg17
S'17371.573564'
p3879
sba(igraph
Edge
p3880
(dp3881
g7
I1
sg8
I00
sg9
I5
sg10
(lp3882
g1123
ag1249
asg24
I00
sg25
I00
sg26
I4999432
sg17
S'17371.5890575'
p3883
sba(igraph
Edge
p3884
(dp3885
g7
I1
sg8
I00
sg9
I5
sg10
(lp3886
g1130
ag1263
asg24
I00
sg25
I00
sg26
I4999433
sg17
S'17371.6045807'
p3887
sba(igraph
Edge
p3888
(dp3889
g7
I1
sg8
I00
sg9
I5
sg10
(lp3890
g1137
ag1263
asg24
I00
sg25
I00
sg26
I4999434
sg17
S'17371.6200919'
p3891
sba(igraph
Edge
p3892
(dp3893
g7
I1
sg8
I00
sg9
I5
sg10
(lp3894
g1144
ag1277
asg24
I00
sg25
I00
sg26
I4999435
sg17
S'17371.6356774'
p3895
sba(igraph
Edge
p3896
(dp3897
g7
I1
sg8
I00
sg9
I5
sg10
(lp3898
g1151
ag1277
asg24
I00
sg25
I00
sg26
I4999436
sg17
S'17371.6515236'
p3899
sba(igraph
Edge
p3900
(dp3901
g7
I1
sg8
I00
sg9
I5
sg10
(lp3902
g1158
ag1291
asg24
I00
sg25
I00
sg26
I4999437
sg17
S'17371.6672801'
p3903
sba(igraph
Edge
p3904
(dp3905
g7
I1
sg8
I00
sg9
I5
sg10
(lp3906
g1165
ag1291
asg24
I00
sg25
I00
sg26
I4999438
sg17
S'17371.6828217'
p3907
sba(igraph
Edge
p3908
(dp3909
g7
I1
sg8
I00
sg9
I5
sg10
(lp3910
g1172
ag1305
asg24
I00
sg25
I00
sg26
I4999439
sg17
S'17371.6985949'
p3911
sba(igraph
Edge
p3912
(dp3913
g7
I1
sg8
I00
sg9
I5
sg10
(lp3914
g1179
ag1305
asg24
I00
sg25
I00
sg26
I4999440
sg17
S'17371.7145512'
p3915
sba(igraph
Edge
p3916
(dp3917
g7
I1
sg8
I00
sg9
I5
sg10
(lp3918
g1186
ag1319
asg24
I00
sg25
I00
sg26
I4999441
sg17
S'17371.7301878'
p3919
sba(igraph
Edge
p3920
(dp3921
g7
I1
sg8
I00
sg9
I5
sg10
(lp3922
g1193
ag1319
asg24
I00
sg25
I00
sg26
I4999442
sg17
S'17371.7464074'
p3923
sba(igraph
Edge
p3924
(dp3925
g7
I1
sg8
I00
sg9
I5
sg10
(lp3926
g1200
ag1333
asg24
I00
sg25
I00
sg26
I4999443
sg17
S'17371.7621938'
p3927
sba(igraph
Edge
p3928
(dp3929
g7
I1
sg8
I00
sg9
I5
sg10
(lp3930
g1207
ag1333
asg24
I00
sg25
I00
sg26
I4999444
sg17
S'17371.7788278'
p3931
sba(igraph
Edge
p3932
(dp3933
g7
I1
sg8
I00
sg9
I5
sg10
(lp3934
g1218
ag1351
asg24
I00
sg25
I00
sg26
I4999445
sg17
S'17371.7944105'
p3935
sba(igraph
Edge
p3936
(dp3937
g7
I1
sg8
I00
sg9
I5
sg10
(lp3938
g1221
ag1351
asg24
I00
sg25
I00
sg26
I4999446
sg17
S'17371.8100465'
p3939
sba(igraph
Edge
p3940
(dp3941
g7
I1
sg8
I00
sg9
I5
sg10
(lp3942
g1228
ag1361
asg24
I00
sg25
I00
sg26
I4999447
sg17
S'17371.8259128'
p3943
sba(igraph
Edge
p3944
(dp3945
g7
I1
sg8
I00
sg9
I5
sg10
(lp3946
g1235
ag1361
asg24
I00
sg25
I00
sg26
I4999448
sg17
S'17371.8417718'
p3947
sba(igraph
Edge
p3948
(dp3949
g7
I1
sg8
I00
sg9
I5
sg10
(lp3950
g1242
ag1375
asg24
I00
sg25
I00
sg26
I4999449
sg17
S'17371.8577423'
p3951
sba(igraph
Edge
p3952
(dp3953
g7
I1
sg8
I00
sg9
I5
sg10
(lp3954
g1249
ag1375
asg24
I00
sg25
I00
sg26
I4999450
sg17
S'17371.8736384'
p3955
sba(igraph
Edge
p3956
(dp3957
g7
I1
sg8
I00
sg9
I5
sg10
(lp3958
g1256
ag1389
asg24
I00
sg25
I00
sg26
I4999451
sg17
S'17371.8901237'
p3959
sba(igraph
Edge
p3960
(dp3961
g7
I1
sg8
I00
sg9
I5
sg10
(lp3962
g1263
ag1389
asg24
I00
sg25
I00
sg26
I4999452
sg17
S'17371.9067544'
p3963
sba(igraph
Edge
p3964
(dp3965
g7
I1
sg8
I00
sg9
I5
sg10
(lp3966
g1270
ag1403
asg24
I00
sg25
I00
sg26
I4999453
sg17
S'17371.9229218'
p3967
sba(igraph
Edge
p3968
(dp3969
g7
I1
sg8
I00
sg9
I5
sg10
(lp3970
g1277
ag1403
asg24
I00
sg25
I00
sg26
I4999454
sg17
S'17371.9392766'
p3971
sba(igraph
Edge
p3972
(dp3973
g7
I1
sg8
I00
sg9
I5
sg10
(lp3974
g1284
ag1417
asg24
I00
sg25
I00
sg26
I4999455
sg17
S'17371.955303'
p3975
sba(igraph
Edge
p3976
(dp3977
g7
I1
sg8
I00
sg9
I5
sg10
(lp3978
g1291
ag1417
asg24
I00
sg25
I00
sg26
I4999456
sg17
S'17371.9711455'
p3979
sba(igraph
Edge
p3980
(dp3981
g7
I1
sg8
I00
sg9
I5
sg10
(lp3982
g1298
ag1431
asg24
I00
sg25
I00
sg26
I4999457
sg17
S'17371.987404'
p3983
sba(igraph
Edge
p3984
(dp3985
g7
I1
sg8
I00
sg9
I5
sg10
(lp3986
g1305
ag1431
asg24
I00
sg25
I00
sg26
I4999458
sg17
S'17372.0034524'
p3987
sba(igraph
Edge
p3988
(dp3989
g7
I1
sg8
I00
sg9
I5
sg10
(lp3990
g1312
ag1445
asg24
I00
sg25
I00
sg26
I4999459
sg17
S'17372.019755'
p3991
sba(igraph
Edge
p3992
(dp3993
g7
I1
sg8
I00
sg9
I5
sg10
(lp3994
g1319
ag1445
asg24
I00
sg25
I00
sg26
I4999460
sg17
S'17372.0362666'
p3995
sba(igraph
Edge
p3996
(dp3997
g7
I1
sg8
I00
sg9
I5
sg10
(lp3998
g1326
ag1459
asg24
I00
sg25
I00
sg26
I4999461
sg17
S'17372.0523592'
p3999
sba(igraph
Edge
p4000
(dp4001
g7
I1
sg8
I00
sg9
I5
sg10
(lp4002
g1333
ag1459
asg24
I00
sg25
I00
sg26
I4999462
sg17
S'17372.0682659'
p4003
sba(igraph
Edge
p4004
(dp4005
g7
I1
sg8
I00
sg9
I5
sg10
(lp4006
g1340
ag1473
asg24
I00
sg25
I00
sg26
I4999463
sg17
S'17372.0847239'
p4007
sba(igraph
Edge
p4008
(dp4009
g7
I1
sg8
I00
sg9
I5
sg10
(lp4010
g1218
ag1473
asg24
I00
sg25
I00
sg26
I4999464
sg17
S'17372.1009413'
p4011
sba(igraph
Edge
p4012
(dp4013
g7
I1
sg8
I00
sg9
I5
sg10
(lp4014
g1221
ag1354
asg24
I00
sg25
I00
sg26
I4999465
sg17
S'17372.1172104'
p4015
sba(igraph
Edge
p4016
(dp4017
g7
I1
sg8
I00
sg9
I5
sg10
(lp4018
g1228
ag1354
asg24
I00
sg25
I00
sg26
I4999466
sg17
S'17372.1334583'
p4019
sba(igraph
Edge
p4020
(dp4021
g7
I1
sg8
I00
sg9
I5
sg10
(lp4022
g1235
ag1368
asg24
I00
sg25
I00
sg26
I4999467
sg17
S'17372.1502602'
p4023
sba(igraph
Edge
p4024
(dp4025
g7
I1
sg8
I00
sg9
I5
sg10
(lp4026
g1242
ag1368
asg24
I00
sg25
I00
sg26
I4999468
sg17
S'17372.1665991'
p4027
sba(igraph
Edge
p4028
(dp4029
g7
I1
sg8
I00
sg9
I5
sg10
(lp4030
g1249
ag1382
asg24
I00
sg25
I00
sg26
I4999469
sg17
S'17372.1831194'
p4031
sba(igraph
Edge
p4032
(dp4033
g7
I1
sg8
I00
sg9
I5
sg10
(lp4034
g1256
ag1382
asg24
I00
sg25
I00
sg26
I4999470
sg17
S'17372.1996681'
p4035
sba(igraph
Edge
p4036
(dp4037
g7
I1
sg8
I00
sg9
I5
sg10
(lp4038
g1263
ag1396
asg24
I00
sg25
I00
sg26
I4999471
sg17
S'17372.2187789'
p4039
sba(igraph
Edge
p4040
(dp4041
g7
I1
sg8
I00
sg9
I5
sg10
(lp4042
g1270
ag1396
asg24
I00
sg25
I00
sg26
I4999472
sg17
S'17372.2354646'
p4043
sba(igraph
Edge
p4044
(dp4045
g7
I1
sg8
I00
sg9
I5
sg10
(lp4046
g1277
ag1410
asg24
I00
sg25
I00
sg26
I4999473
sg17
S'17372.2519885'
p4047
sba(igraph
Edge
p4048
(dp4049
g7
I1
sg8
I00
sg9
I5
sg10
(lp4050
g1284
ag1410
asg24
I00
sg25
I00
sg26
I4999474
sg17
S'17372.2686576'
p4051
sba(igraph
Edge
p4052
(dp4053
g7
I1
sg8
I00
sg9
I5
sg10
(lp4054
g1291
ag1424
asg24
I00
sg25
I00
sg26
I4999475
sg17
S'17372.2867563'
p4055
sba(igraph
Edge
p4056
(dp4057
g7
I1
sg8
I00
sg9
I5
sg10
(lp4058
g1298
ag1424
asg24
I00
sg25
I00
sg26
I4999476
sg17
S'17372.3031695'
p4059
sba(igraph
Edge
p4060
(dp4061
g7
I1
sg8
I00
sg9
I5
sg10
(lp4062
g1305
ag1438
asg24
I00
sg25
I00
sg26
I4999477
sg17
S'17372.322665'
p4063
sba(igraph
Edge
p4064
(dp4065
g7
I1
sg8
I00
sg9
I5
sg10
(lp4066
g1312
ag1438
asg24
I00
sg25
I00
sg26
I4999478
sg17
S'17372.3397233'
p4067
sba(igraph
Edge
p4068
(dp4069
g7
I1
sg8
I00
sg9
I5
sg10
(lp4070
g1319
ag1452
asg24
I00
sg25
I00
sg26
I4999479
sg17
S'17372.3560564'
p4071
sba(igraph
Edge
p4072
(dp4073
g7
I1
sg8
I00
sg9
I5
sg10
(lp4074
g1326
ag1452
asg24
I00
sg25
I00
sg26
I4999480
sg17
S'17372.372915'
p4075
sba(igraph
Edge
p4076
(dp4077
g7
I1
sg8
I00
sg9
I5
sg10
(lp4078
g1333
ag1466
asg24
I00
sg25
I00
sg26
I4999481
sg17
S'17372.3895065'
p4079
sba(igraph
Edge
p4080
(dp4081
g7
I1
sg8
I00
sg9
I5
sg10
(lp4082
g1340
ag1466
asg24
I00
sg25
I00
sg26
I4999482
sg17
S'17372.4064466'
p4083
sba(igraph
Edge
p4084
(dp4085
g7
I1
sg8
I00
sg9
I5
sg10
(lp4086
g1351
ag1484
asg24
I00
sg25
I00
sg26
I4999483
sg17
S'17372.4230987'
p4087
sba(igraph
Edge
p4088
(dp4089
g7
I1
sg8
I00
sg9
I5
sg10
(lp4090
g1354
ag1484
asg24
I00
sg25
I00
sg26
I4999484
sg17
S'17372.4400788'
p4091
sba(igraph
Edge
p4092
(dp4093
g7
I1
sg8
I00
sg9
I5
sg10
(lp4094
g1361
ag1494
asg24
I00
sg25
I00
sg26
I4999485
sg17
S'17372.4569192'
p4095
sba(igraph
Edge
p4096
(dp4097
g7
I1
sg8
I00
sg9
I5
sg10
(lp4098
g1368
ag1494
asg24
I00
sg25
I00
sg26
I4999486
sg17
S'17372.4739133'
p4099
sba(igraph
Edge
p4100
(dp4101
g7
I1
sg8
I00
sg9
I5
sg10
(lp4102
g1375
ag1508
asg24
I00
sg25
I00
sg26
I4999487
sg17
S'17372.4907411'
p4103
sba(igraph
Edge
p4104
(dp4105
g7
I1
sg8
I00
sg9
I5
sg10
(lp4106
g1382
ag1508
asg24
I00
sg25
I00
sg26
I4999488
sg17
S'17372.5074743'
p4107
sba(igraph
Edge
p4108
(dp4109
g7
I1
sg8
I00
sg9
I5
sg10
(lp4110
g1389
ag1522
asg24
I00
sg25
I00
sg26
I4999489
sg17
S'17372.5243066'
p4111
sba(igraph
Edge
p4112
(dp4113
g7
I1
sg8
I00
sg9
I5
sg10
(lp4114
g1396
ag1522
asg24
I00
sg25
I00
sg26
I4999490
sg17
S'17372.5413032'
p4115
sba(igraph
Edge
p4116
(dp4117
g7
I1
sg8
I00
sg9
I5
sg10
(lp4118
g1403
ag1536
asg24
I00
sg25
I00
sg26
I4999491
sg17
S'17372.5581128'
p4119
sba(igraph
Edge
p4120
(dp4121
g7
I1
sg8
I00
sg9
I5
sg10
(lp4122
g1410
ag1536
asg24
I00
sg25
I00
sg26
I4999492
sg17
S'17372.5750985'
p4123
sba(igraph
Edge
p4124
(dp4125
g7
I1
sg8
I00
sg9
I5
sg10
(lp4126
g1417
ag1550
asg24
I00
sg25
I00
sg26
I4999493
sg17
S'17372.5920417'
p4127
sba(igraph
Edge
p4128
(dp4129
g7
I1
sg8
I00
sg9
I5
sg10
(lp4130
g1424
ag1550
asg24
I00
sg25
I00
sg26
I4999494
sg17
S'17372.6091512'
p4131
sba(igraph
Edge
p4132
(dp4133
g7
I1
sg8
I00
sg9
I5
sg10
(lp4134
g1431
ag1564
asg24
I00
sg25
I00
sg26
I4999495
sg17
S'17372.6265003'
p4135
sba(igraph
Edge
p4136
(dp4137
g7
I1
sg8
I00
sg9
I5
sg10
(lp4138
g1438
ag1564
asg24
I00
sg25
I00
sg26
I4999496
sg17
S'17372.6437528'
p4139
sba(igraph
Edge
p4140
(dp4141
g7
I1
sg8
I00
sg9
I5
sg10
(lp4142
g1445
ag1578
asg24
I00
sg25
I00
sg26
I4999497
sg17
S'17372.6608401'
p4143
sba(igraph
Edge
p4144
(dp4145
g7
I1
sg8
I00
sg9
I5
sg10
(lp4146
g1452
ag1578
asg24
I00
sg25
I00
sg26
I4999498
sg17
S'17372.6780976'
p4147
sba(igraph
Edge
p4148
(dp4149
g7
I1
sg8
I00
sg9
I5
sg10
(lp4150
g1459
ag1592
asg24
I00
sg25
I00
sg26
I4999499
sg17
S'17372.6952607'
p4151
sba(igraph
Edge
p4152
(dp4153
g7
I1
sg8
I00
sg9
I5
sg10
(lp4154
g1466
ag1592
asg24
I00
sg25
I00
sg26
I4999500
sg17
S'17372.7125221'
p4155
sba(igraph
Edge
p4156
(dp4157
g7
I1
sg8
I00
sg9
I5
sg10
(lp4158
g1473
ag1606
asg24
I00
sg25
I00
sg26
I4999501
sg17
S'17372.7294642'
p4159
sba(igraph
Edge
p4160
(dp4161
g7
I1
sg8
I00
sg9
I5
sg10
(lp4162
g1351
ag1606
asg24
I00
sg25
I00
sg26
I4999502
sg17
S'17372.7466519'
p4163
sba(igraph
Edge
p4164
(dp4165
g7
I1
sg8
I00
sg9
I5
sg10
(lp4166
g1354
ag1487
asg24
I00
sg25
I00
sg26
I4999503
sg17
S'17372.7639091'
p4167
sba(igraph
Edge
p4168
(dp4169
g7
I1
sg8
I00
sg9
I5
sg10
(lp4170
g1361
ag1487
asg24
I00
sg25
I00
sg26
I4999504
sg17
S'17372.783304'
p4171
sba(igraph
Edge
p4172
(dp4173
g7
I1
sg8
I00
sg9
I5
sg10
(lp4174
g1368
ag1501
asg24
I00
sg25
I00
sg26
I4999505
sg17
S'17372.800778'
p4175
sba(igraph
Edge
p4176
(dp4177
g7
I1
sg8
I00
sg9
I5
sg10
(lp4178
g1375
ag1501
asg24
I00
sg25
I00
sg26
I4999506
sg17
S'17372.8185619'
p4179
sba(igraph
Edge
p4180
(dp4181
g7
I1
sg8
I00
sg9
I5
sg10
(lp4182
g1382
ag1515
asg24
I00
sg25
I00
sg26
I4999507
sg17
S'17372.8362311'
p4183
sba(igraph
Edge
p4184
(dp4185
g7
I1
sg8
I00
sg9
I5
sg10
(lp4186
g1389
ag1515
asg24
I00
sg25
I00
sg26
I4999508
sg17
S'17372.8541625'
p4187
sba(igraph
Edge
p4188
(dp4189
g7
I1
sg8
I00
sg9
I5
sg10
(lp4190
g1396
ag1529
asg24
I00
sg25
I00
sg26
I4999509
sg17
S'17372.8715608'
p4191
sba(igraph
Edge
p4192
(dp4193
g7
I1
sg8
I00
sg9
I5
sg10
(lp4194
g1403
ag1529
asg24
I00
sg25
I00
sg26
I4999510
sg17
S'17372.8887616'
p4195
sba(igraph
Edge
p4196
(dp4197
g7
I1
sg8
I00
sg9
I5
sg10
(lp4198
g1410
ag1543
asg24
I00
sg25
I00
sg26
I4999511
sg17
S'17372.9062238'
p4199
sba(igraph
Edge
p4200
(dp4201
g7
I1
sg8
I00
sg9
I5
sg10
(lp4202
g1417
ag1543
asg24
I00
sg25
I00
sg26
I4999512
sg17
S'17372.9239275'
p4203
sba(igraph
Edge
p4204
(dp4205
g7
I1
sg8
I00
sg9
I5
sg10
(lp4206
g1424
ag1557
asg24
I00
sg25
I00
sg26
I4999513
sg17
S'17372.9418314'
p4207
sba(igraph
Edge
p4208
(dp4209
g7
I1
sg8
I00
sg9
I5
sg10
(lp4210
g1431
ag1557
asg24
I00
sg25
I00
sg26
I4999514
sg17
S'17372.9594828'
p4211
sba(igraph
Edge
p4212
(dp4213
g7
I1
sg8
I00
sg9
I5
sg10
(lp4214
g1438
ag1571
asg24
I00
sg25
I00
sg26
I4999515
sg17
S'17372.9770974'
p4215
sba(igraph
Edge
p4216
(dp4217
g7
I1
sg8
I00
sg9
I5
sg10
(lp4218
g1445
ag1571
asg24
I00
sg25
I00
sg26
I4999516
sg17
S'17372.9945856'
p4219
sba(igraph
Edge
p4220
(dp4221
g7
I1
sg8
I00
sg9
I5
sg10
(lp4222
g1452
ag1585
asg24
I00
sg25
I00
sg26
I4999517
sg17
S'17373.0119186'
p4223
sba(igraph
Edge
p4224
(dp4225
g7
I1
sg8
I00
sg9
I5
sg10
(lp4226
g1459
ag1585
asg24
I00
sg25
I00
sg26
I4999518
sg17
S'17373.0293314'
p4227
sba(igraph
Edge
p4228
(dp4229
g7
I1
sg8
I00
sg9
I5
sg10
(lp4230
g1466
ag1599
asg24
I00
sg25
I00
sg26
I4999519
sg17
S'17373.0466836'
p4231
sba(igraph
Edge
p4232
(dp4233
g7
I1
sg8
I00
sg9
I5
sg10
(lp4234
g1473
ag1599
asg24
I00
sg25
I00
sg26
I4999520
sg17
S'17373.0641517'
p4235
sba(igraph
Edge
p4236
(dp4237
g7
I1
sg8
I00
sg9
I5
sg10
(lp4238
g1484
ag1617
asg24
I00
sg25
I00
sg26
I4999521
sg17
S'17373.0817612'
p4239
sba(igraph
Edge
p4240
(dp4241
g7
I1
sg8
I00
sg9
I5
sg10
(lp4242
g1487
ag1617
asg24
I00
sg25
I00
sg26
I4999522
sg17
S'17373.0999736'
p4243
sba(igraph
Edge
p4244
(dp4245
g7
I1
sg8
I00
sg9
I5
sg10
(lp4246
g1494
ag1627
asg24
I00
sg25
I00
sg26
I4999523
sg17
S'17373.1179359'
p4247
sba(igraph
Edge
p4248
(dp4249
g7
I1
sg8
I00
sg9
I5
sg10
(lp4250
g1501
ag1627
asg24
I00
sg25
I00
sg26
I4999524
sg17
S'17373.135425'
p4251
sba(igraph
Edge
p4252
(dp4253
g7
I1
sg8
I00
sg9
I5
sg10
(lp4254
g1508
ag1641
asg24
I00
sg25
I00
sg26
I4999525
sg17
S'17373.1531915'
p4255
sba(igraph
Edge
p4256
(dp4257
g7
I1
sg8
I00
sg9
I5
sg10
(lp4258
g1515
ag1641
asg24
I00
sg25
I00
sg26
I4999526
sg17
S'17373.1711245'
p4259
sba(igraph
Edge
p4260
(dp4261
g7
I1
sg8
I00
sg9
I5
sg10
(lp4262
g1522
ag1655
asg24
I00
sg25
I00
sg26
I4999527
sg17
S'17373.1912623'
p4263
sba(igraph
Edge
p4264
(dp4265
g7
I1
sg8
I00
sg9
I5
sg10
(lp4266
g1529
ag1655
asg24
I00
sg25
I00
sg26
I4999528
sg17
S'17373.2127709'
p4267
sba(igraph
Edge
p4268
(dp4269
g7
I1
sg8
I00
sg9
I5
sg10
(lp4270
g1536
ag1669
asg24
I00
sg25
I00
sg26
I4999529
sg17
S'17373.2332607'
p4271
sba(igraph
Edge
p4272
(dp4273
g7
I1
sg8
I00
sg9
I5
sg10
(lp4274
g1543
ag1669
asg24
I00
sg25
I00
sg26
I4999530
sg17
S'17373.2549221'
p4275
sba(igraph
Edge
p4276
(dp4277
g7
I1
sg8
I00
sg9
I5
sg10
(lp4278
g1550
ag1683
asg24
I00
sg25
I00
sg26
I4999531
sg17
S'17373.2777521'
p4279
sba(igraph
Edge
p4280
(dp4281
g7
I1
sg8
I00
sg9
I5
sg10
(lp4282
g1557
ag1683
asg24
I00
sg25
I00
sg26
I4999532
sg17
S'17373.3028765'
p4283
sba(igraph
Edge
p4284
(dp4285
g7
I1
sg8
I00
sg9
I5
sg10
(lp4286
g1564
ag1697
asg24
I00
sg25
I00
sg26
I4999533
sg17
S'17373.3246404'
p4287
sba(igraph
Edge
p4288
(dp4289
g7
I1
sg8
I00
sg9
I5
sg10
(lp4290
g1571
ag1697
asg24
I00
sg25
I00
sg26
I4999534
sg17
S'17373.3461529'
p4291
sba(igraph
Edge
p4292
(dp4293
g7
I1
sg8
I00
sg9
I5
sg10
(lp4294
g1578
ag1711
asg24
I00
sg25
I00
sg26
I4999535
sg17
S'17373.3670967'
p4295
sba(igraph
Edge
p4296
(dp4297
g7
I1
sg8
I00
sg9
I5
sg10
(lp4298
g1585
ag1711
asg24
I00
sg25
I00
sg26
I4999536
sg17
S'17373.3886343'
p4299
sba(igraph
Edge
p4300
(dp4301
g7
I1
sg8
I00
sg9
I5
sg10
(lp4302
g1592
ag1725
asg24
I00
sg25
I00
sg26
I4999537
sg17
S'17373.4150888'
p4303
sba(igraph
Edge
p4304
(dp4305
g7
I1
sg8
I00
sg9
I5
sg10
(lp4306
g1599
ag1725
asg24
I00
sg25
I00
sg26
I4999538
sg17
S'17373.4380294'
p4307
sba(igraph
Edge
p4308
(dp4309
g7
I1
sg8
I00
sg9
I5
sg10
(lp4310
g1606
ag1739
asg24
I00
sg25
I00
sg26
I4999539
sg17
S'17373.4603694'
p4311
sba(igraph
Edge
p4312
(dp4313
g7
I1
sg8
I00
sg9
I5
sg10
(lp4314
g1484
ag1739
asg24
I00
sg25
I00
sg26
I4999540
sg17
S'17373.4820627'
p4315
sba(igraph
Edge
p4316
(dp4317
g7
I1
sg8
I00
sg9
I5
sg10
(lp4318
g1487
ag1620
asg24
I00
sg25
I00
sg26
I4999541
sg17
S'17373.5029301'
p4319
sba(igraph
Edge
p4320
(dp4321
g7
I1
sg8
I00
sg9
I5
sg10
(lp4322
g1494
ag1620
asg24
I00
sg25
I00
sg26
I4999542
sg17
S'17373.5255263'
p4323
sba(igraph
Edge
p4324
(dp4325
g7
I1
sg8
I00
sg9
I5
sg10
(lp4326
g1501
ag1634
asg24
I00
sg25
I00
sg26
I4999543
sg17
S'17373.5467013'
p4327
sba(igraph
Edge
p4328
(dp4329
g7
I1
sg8
I00
sg9
I5
sg10
(lp4330
g1508
ag1634
asg24
I00
sg25
I00
sg26
I4999544
sg17
S'17373.5675291'
p4331
sba(igraph
Edge
p4332
(dp4333
g7
I1
sg8
I00
sg9
I5
sg10
(lp4334
g1515
ag1648
asg24
I00
sg25
I00
sg26
I4999545
sg17
S'17373.590567'
p4335
sba(igraph
Edge
p4336
(dp4337
g7
I1
sg8
I00
sg9
I5
sg10
(lp4338
g1522
ag1648
asg24
I00
sg25
I00
sg26
I4999546
sg17
S'17373.6129313'
p4339
sba(igraph
Edge
p4340
(dp4341
g7
I1
sg8
I00
sg9
I5
sg10
(lp4342
g1529
ag1662
asg24
I00
sg25
I00
sg26
I4999547
sg17
S'17373.6343074'
p4343
sba(igraph
Edge
p4344
(dp4345
g7
I1
sg8
I00
sg9
I5
sg10
(lp4346
g1536
ag1662
asg24
I00
sg25
I00
sg26
I4999548
sg17
S'17373.6548802'
p4347
sba(igraph
Edge
p4348
(dp4349
g7
I1
sg8
I00
sg9
I5
sg10
(lp4350
g1543
ag1676
asg24
I00
sg25
I00
sg26
I4999549
sg17
S'17373.6798937'
p4351
sba(igraph
Edge
p4352
(dp4353
g7
I1
sg8
I00
sg9
I5
sg10
(lp4354
g1550
ag1676
asg24
I00
sg25
I00
sg26
I4999550
sg17
S'17373.7026083'
p4355
sba(igraph
Edge
p4356
(dp4357
g7
I1
sg8
I00
sg9
I5
sg10
(lp4358
g1557
ag1690
asg24
I00
sg25
I00
sg26
I4999551
sg17
S'17373.7261621'
p4359
sba(igraph
Edge
p4360
(dp4361
g7
I1
sg8
I00
sg9
I5
sg10
(lp4362
g1564
ag1690
asg24
I00
sg25
I00
sg26
I4999552
sg17
S'17373.7484926'
p4363
sba(igraph
Edge
p4364
(dp4365
g7
I1
sg8
I00
sg9
I5
sg10
(lp4366
g1571
ag1704
asg24
I00
sg25
I00
sg26
I4999553
sg17
S'17373.7713939'
p4367
sba(igraph
Edge
p4368
(dp4369
g7
I1
sg8
I00
sg9
I5
sg10
(lp4370
g1578
ag1704
asg24
I00
sg25
I00
sg26
I4999554
sg17
S'17373.7923102'
p4371
sba(igraph
Edge
p4372
(dp4373
g7
I1
sg8
I00
sg9
I5
sg10
(lp4374
g1585
ag1718
asg24
I00
sg25
I00
sg26
I4999555
sg17
S'17373.8119454'
p4375
sba(igraph
Edge
p4376
(dp4377
g7
I1
sg8
I00
sg9
I5
sg10
(lp4378
g1592
ag1718
asg24
I00
sg25
I00
sg26
I4999556
sg17
S'17373.8304114'
p4379
sba(igraph
Edge
p4380
(dp4381
g7
I1
sg8
I00
sg9
I5
sg10
(lp4382
g1599
ag1732
asg24
I00
sg25
I00
sg26
I4999557
sg17
S'17373.8486408'
p4383
sba(igraph
Edge
p4384
(dp4385
g7
I1
sg8
I00
sg9
I5
sg10
(lp4386
g1606
ag1732
asg24
I00
sg25
I00
sg26
I4999558
sg17
S'17373.8676128'
p4387
sba(igraph
Edge
p4388
(dp4389
g7
I1
sg8
I00
sg9
I5
sg10
(lp4390
g1617
ag1750
asg24
I00
sg25
I00
sg26
I4999559
sg17
S'17373.8863205'
p4391
sba(igraph
Edge
p4392
(dp4393
g7
I1
sg8
I00
sg9
I5
sg10
(lp4394
g1620
ag1750
asg24
I00
sg25
I00
sg26
I4999560
sg17
S'17373.9045552'
p4395
sba(igraph
Edge
p4396
(dp4397
g7
I1
sg8
I00
sg9
I5
sg10
(lp4398
g1627
ag1760
asg24
I00
sg25
I00
sg26
I4999561
sg17
S'17373.9229025'
p4399
sba(igraph
Edge
p4400
(dp4401
g7
I1
sg8
I00
sg9
I5
sg10
(lp4402
g1634
ag1760
asg24
I00
sg25
I00
sg26
I4999562
sg17
S'17373.9410565'
p4403
sba(igraph
Edge
p4404
(dp4405
g7
I1
sg8
I00
sg9
I5
sg10
(lp4406
g1641
ag1774
asg24
I00
sg25
I00
sg26
I4999563
sg17
S'17373.9596186'
p4407
sba(igraph
Edge
p4408
(dp4409
g7
I1
sg8
I00
sg9
I5
sg10
(lp4410
g1648
ag1774
asg24
I00
sg25
I00
sg26
I4999564
sg17
S'17373.9780349'
p4411
sba(igraph
Edge
p4412
(dp4413
g7
I1
sg8
I00
sg9
I5
sg10
(lp4414
g1655
ag1788
asg24
I00
sg25
I00
sg26
I4999565
sg17
S'17373.9968393'
p4415
sba(igraph
Edge
p4416
(dp4417
g7
I1
sg8
I00
sg9
I5
sg10
(lp4418
g1662
ag1788
asg24
I00
sg25
I00
sg26
I4999566
sg17
S'17374.0152721'
p4419
sba(igraph
Edge
p4420
(dp4421
g7
I1
sg8
I00
sg9
I5
sg10
(lp4422
g1669
ag1802
asg24
I00
sg25
I00
sg26
I4999567
sg17
S'17374.0335274'
p4423
sba(igraph
Edge
p4424
(dp4425
g7
I1
sg8
I00
sg9
I5
sg10
(lp4426
g1676
ag1802
asg24
I00
sg25
I00
sg26
I4999568
sg17
S'17374.0526209'
p4427
sba(igraph
Edge
p4428
(dp4429
g7
I1
sg8
I00
sg9
I5
sg10
(lp4430
g1683
ag1816
asg24
I00
sg25
I00
sg26
I4999569
sg17
S'17374.0710655'
p4431
sba(igraph
Edge
p4432
(dp4433
g7
I1
sg8
I00
sg9
I5
sg10
(lp4434
g1690
ag1816
asg24
I00
sg25
I00
sg26
I4999570
sg17
S'17374.0896726'
p4435
sba(igraph
Edge
p4436
(dp4437
g7
I1
sg8
I00
sg9
I5
sg10
(lp4438
g1697
ag1830
asg24
I00
sg25
I00
sg26
I4999571
sg17
S'17374.1083451'
p4439
sba(igraph
Edge
p4440
(dp4441
g7
I1
sg8
I00
sg9
I5
sg10
(lp4442
g1704
ag1830
asg24
I00
sg25
I00
sg26
I4999572
sg17
S'17374.1271522'
p4443
sba(igraph
Edge
p4444
(dp4445
g7
I1
sg8
I00
sg9
I5
sg10
(lp4446
g1711
ag1844
asg24
I00
sg25
I00
sg26
I4999573
sg17
S'17374.1458537'
p4447
sba(igraph
Edge
p4448
(dp4449
g7
I1
sg8
I00
sg9
I5
sg10
(lp4450
g1718
ag1844
asg24
I00
sg25
I00
sg26
I4999574
sg17
S'17374.164365'
p4451
sba(igraph
Edge
p4452
(dp4453
g7
I1
sg8
I00
sg9
I5
sg10
(lp4454
g1725
ag1858
asg24
I00
sg25
I00
sg26
I4999575
sg17
S'17374.1828827'
p4455
sba(igraph
Edge
p4456
(dp4457
g7
I1
sg8
I00
sg9
I5
sg10
(lp4458
g1732
ag1858
asg24
I00
sg25
I00
sg26
I4999576
sg17
S'17374.2018703'
p4459
sba(igraph
Edge
p4460
(dp4461
g7
I1
sg8
I00
sg9
I5
sg10
(lp4462
g1739
ag1872
asg24
I00
sg25
I00
sg26
I4999577
sg17
S'17374.2217748'
p4463
sba(igraph
Edge
p4464
(dp4465
g7
I1
sg8
I00
sg9
I5
sg10
(lp4466
g1617
ag1872
asg24
I00
sg25
I00
sg26
I4999578
sg17
S'17374.240689'
p4467
sba(igraph
Edge
p4468
(dp4469
g7
I1
sg8
I00
sg9
I5
sg10
(lp4470
g1620
ag1753
asg24
I00
sg25
I00
sg26
I4999579
sg17
S'17374.2595953'
p4471
sba(igraph
Edge
p4472
(dp4473
g7
I1
sg8
I00
sg9
I5
sg10
(lp4474
g1627
ag1753
asg24
I00
sg25
I00
sg26
I4999580
sg17
S'17374.2799898'
p4475
sba(igraph
Edge
p4476
(dp4477
g7
I1
sg8
I00
sg9
I5
sg10
(lp4478
g1634
ag1767
asg24
I00
sg25
I00
sg26
I4999581
sg17
S'17374.2991883'
p4479
sba(igraph
Edge
p4480
(dp4481
g7
I1
sg8
I00
sg9
I5
sg10
(lp4482
g1641
ag1767
asg24
I00
sg25
I00
sg26
I4999582
sg17
S'17374.3183444'
p4483
sba(igraph
Edge
p4484
(dp4485
g7
I1
sg8
I00
sg9
I5
sg10
(lp4486
g1648
ag1781
asg24
I00
sg25
I00
sg26
I4999583
sg17
S'17374.3375468'
p4487
sba(igraph
Edge
p4488
(dp4489
g7
I1
sg8
I00
sg9
I5
sg10
(lp4490
g1655
ag1781
asg24
I00
sg25
I00
sg26
I4999584
sg17
S'17374.3569373'
p4491
sba(igraph
Edge
p4492
(dp4493
g7
I1
sg8
I00
sg9
I5
sg10
(lp4494
g1662
ag1795
asg24
I00
sg25
I00
sg26
I4999585
sg17
S'17374.3757749'
p4495
sba(igraph
Edge
p4496
(dp4497
g7
I1
sg8
I00
sg9
I5
sg10
(lp4498
g1669
ag1795
asg24
I00
sg25
I00
sg26
I4999586
sg17
S'17374.3948521'
p4499
sba(igraph
Edge
p4500
(dp4501
g7
I1
sg8
I00
sg9
I5
sg10
(lp4502
g1676
ag1809
asg24
I00
sg25
I00
sg26
I4999587
sg17
S'17374.4137755'
p4503
sba(igraph
Edge
p4504
(dp4505
g7
I1
sg8
I00
sg9
I5
sg10
(lp4506
g1683
ag1809
asg24
I00
sg25
I00
sg26
I4999588
sg17
S'17374.4327254'
p4507
sba(igraph
Edge
p4508
(dp4509
g7
I1
sg8
I00
sg9
I5
sg10
(lp4510
g1690
ag1823
asg24
I00
sg25
I00
sg26
I4999589
sg17
S'17374.4518211'
p4511
sba(igraph
Edge
p4512
(dp4513
g7
I1
sg8
I00
sg9
I5
sg10
(lp4514
g1697
ag1823
asg24
I00
sg25
I00
sg26
I4999590
sg17
S'17374.4709191'
p4515
sba(igraph
Edge
p4516
(dp4517
g7
I1
sg8
I00
sg9
I5
sg10
(lp4518
g1704
ag1837
asg24
I00
sg25
I00
sg26
I4999591
sg17
S'17374.4901427'
p4519
sba(igraph
Edge
p4520
(dp4521
g7
I1
sg8
I00
sg9
I5
sg10
(lp4522
g1711
ag1837
asg24
I00
sg25
I00
sg26
I4999592
sg17
S'17374.5094645'
p4523
sba(igraph
Edge
p4524
(dp4525
g7
I1
sg8
I00
sg9
I5
sg10
(lp4526
g1718
ag1851
asg24
I00
sg25
I00
sg26
I4999593
sg17
S'17374.5284334'
p4527
sba(igraph
Edge
p4528
(dp4529
g7
I1
sg8
I00
sg9
I5
sg10
(lp4530
g1725
ag1851
asg24
I00
sg25
I00
sg26
I4999594
sg17
S'17374.5474749'
p4531
sba(igraph
Edge
p4532
(dp4533
g7
I1
sg8
I00
sg9
I5
sg10
(lp4534
g1732
ag1865
asg24
I00
sg25
I00
sg26
I4999595
sg17
S'17374.5666525'
p4535
sba(igraph
Edge
p4536
(dp4537
g7
I1
sg8
I00
sg9
I5
sg10
(lp4538
g1739
ag1865
asg24
I00
sg25
I00
sg26
I4999596
sg17
S'17374.5864181'
p4539
sba(igraph
Edge
p4540
(dp4541
g7
I1
sg8
I00
sg9
I5
sg10
(lp4542
g1750
ag1883
asg24
I00
sg25
I00
sg26
I4999597
sg17
S'17374.6056094'
p4543
sba(igraph
Edge
p4544
(dp4545
g7
I1
sg8
I00
sg9
I5
sg10
(lp4546
g1753
ag1883
asg24
I00
sg25
I00
sg26
I4999598
sg17
S'17374.6251739'
p4547
sba(igraph
Edge
p4548
(dp4549
g7
I1
sg8
I00
sg9
I5
sg10
(lp4550
g1760
ag1893
asg24
I00
sg25
I00
sg26
I4999599
sg17
S'17374.6448225'
p4551
sba(igraph
Edge
p4552
(dp4553
g7
I1
sg8
I00
sg9
I5
sg10
(lp4554
g1767
ag1893
asg24
I00
sg25
I00
sg26
I4999600
sg17
S'17374.6638564'
p4555
sba(igraph
Edge
p4556
(dp4557
g7
I1
sg8
I00
sg9
I5
sg10
(lp4558
g1774
ag1907
asg24
I00
sg25
I00
sg26
I4999601
sg17
S'17374.6829181'
p4559
sba(igraph
Edge
p4560
(dp4561
g7
I1
sg8
I00
sg9
I5
sg10
(lp4562
g1781
ag1907
asg24
I00
sg25
I00
sg26
I4999602
sg17
S'17374.7025636'
p4563
sba(igraph
Edge
p4564
(dp4565
g7
I1
sg8
I00
sg9
I5
sg10
(lp4566
g1788
ag1921
asg24
I00
sg25
I00
sg26
I4999603
sg17
S'17374.7219496'
p4567
sba(igraph
Edge
p4568
(dp4569
g7
I1
sg8
I00
sg9
I5
sg10
(lp4570
g1795
ag1921
asg24
I00
sg25
I00
sg26
I4999604
sg17
S'17374.7416353'
p4571
sba(igraph
Edge
p4572
(dp4573
g7
I1
sg8
I00
sg9
I5
sg10
(lp4574
g1802
ag1935
asg24
I00
sg25
I00
sg26
I4999605
sg17
S'17374.7609601'
p4575
sba(igraph
Edge
p4576
(dp4577
g7
I1
sg8
I00
sg9
I5
sg10
(lp4578
g1809
ag1935
asg24
I00
sg25
I00
sg26
I4999606
sg17
S'17374.7820662'
p4579
sba(igraph
Edge
p4580
(dp4581
g7
I1
sg8
I00
sg9
I5
sg10
(lp4582
g1816
ag1949
asg24
I00
sg25
I00
sg26
I4999607
sg17
S'17374.8017201'
p4583
sba(igraph
Edge
p4584
(dp4585
g7
I1
sg8
I00
sg9
I5
sg10
(lp4586
g1823
ag1949
asg24
I00
sg25
I00
sg26
I4999608
sg17
S'17374.8212901'
p4587
sba(igraph
Edge
p4588
(dp4589
g7
I1
sg8
I00
sg9
I5
sg10
(lp4590
g1830
ag1963
asg24
I00
sg25
I00
sg26
I4999609
sg17
S'17374.8407596'
p4591
sba(igraph
Edge
p4592
(dp4593
g7
I1
sg8
I00
sg9
I5
sg10
(lp4594
g1837
ag1963
asg24
I00
sg25
I00
sg26
I4999610
sg17
S'17374.860251'
p4595
sba(igraph
Edge
p4596
(dp4597
g7
I1
sg8
I00
sg9
I5
sg10
(lp4598
g1844
ag1977
asg24
I00
sg25
I00
sg26
I4999611
sg17
S'17374.8797152'
p4599
sba(igraph
Edge
p4600
(dp4601
g7
I1
sg8
I00
sg9
I5
sg10
(lp4602
g1851
ag1977
asg24
I00
sg25
I00
sg26
I4999612
sg17
S'17374.8998524'
p4603
sba(igraph
Edge
p4604
(dp4605
g7
I1
sg8
I00
sg9
I5
sg10
(lp4606
g1858
ag1991
asg24
I00
sg25
I00
sg26
I4999613
sg17
S'17374.9192233'
p4607
sba(igraph
Edge
p4608
(dp4609
g7
I1
sg8
I00
sg9
I5
sg10
(lp4610
g1865
ag1991
asg24
I00
sg25
I00
sg26
I4999614
sg17
S'17374.9386727'
p4611
sba(igraph
Edge
p4612
(dp4613
g7
I1
sg8
I00
sg9
I5
sg10
(lp4614
g1872
ag2005
asg24
I00
sg25
I00
sg26
I4999615
sg17
S'17374.9585263'
p4615
sba(igraph
Edge
p4616
(dp4617
g7
I1
sg8
I00
sg9
I5
sg10
(lp4618
g1750
ag2005
asg24
I00
sg25
I00
sg26
I4999616
sg17
S'17374.9785059'
p4619
sba(igraph
Edge
p4620
(dp4621
g7
I1
sg8
I00
sg9
I5
sg10
(lp4622
g1753
ag1886
asg24
I00
sg25
I00
sg26
I4999617
sg17
S'17374.9981065'
p4623
sba(igraph
Edge
p4624
(dp4625
g7
I1
sg8
I00
sg9
I5
sg10
(lp4626
g1760
ag1886
asg24
I00
sg25
I00
sg26
I4999618
sg17
S'17375.0182297'
p4627
sba(igraph
Edge
p4628
(dp4629
g7
I1
sg8
I00
sg9
I5
sg10
(lp4630
g1767
ag1900
asg24
I00
sg25
I00
sg26
I4999619
sg17
S'17375.0379196'
p4631
sba(igraph
Edge
p4632
(dp4633
g7
I1
sg8
I00
sg9
I5
sg10
(lp4634
g1774
ag1900
asg24
I00
sg25
I00
sg26
I4999620
sg17
S'17375.057811'
p4635
sba(igraph
Edge
p4636
(dp4637
g7
I1
sg8
I00
sg9
I5
sg10
(lp4638
g1781
ag1914
asg24
I00
sg25
I00
sg26
I4999621
sg17
S'17375.0771486'
p4639
sba(igraph
Edge
p4640
(dp4641
g7
I1
sg8
I00
sg9
I5
sg10
(lp4642
g1788
ag1914
asg24
I00
sg25
I00
sg26
I4999622
sg17
S'17375.0966687'
p4643
sba(igraph
Edge
p4644
(dp4645
g7
I1
sg8
I00
sg9
I5
sg10
(lp4646
g1795
ag1928
asg24
I00
sg25
I00
sg26
I4999623
sg17
S'17375.1162692'
p4647
sba(igraph
Edge
p4648
(dp4649
g7
I1
sg8
I00
sg9
I5
sg10
(lp4650
g1802
ag1928
asg24
I00
sg25
I00
sg26
I4999624
sg17
S'17375.136188'
p4651
sba(igraph
Edge
p4652
(dp4653
g7
I1
sg8
I00
sg9
I5
sg10
(lp4654
g1809
ag1942
asg24
I00
sg25
I00
sg26
I4999625
sg17
S'17375.1558863'
p4655
sba(igraph
Edge
p4656
(dp4657
g7
I1
sg8
I00
sg9
I5
sg10
(lp4658
g1816
ag1942
asg24
I00
sg25
I00
sg26
I4999626
sg17
S'17375.1803612'
p4659
sba(igraph
Edge
p4660
(dp4661
g7
I1
sg8
I00
sg9
I5
sg10
(lp4662
g1823
ag1956
asg24
I00
sg25
I00
sg26
I4999627
sg17
S'17375.2041578'
p4663
sba(igraph
Edge
p4664
(dp4665
g7
I1
sg8
I00
sg9
I5
sg10
(lp4666
g1830
ag1956
asg24
I00
sg25
I00
sg26
I4999628
sg17
S'17375.2284257'
p4667
sba(igraph
Edge
p4668
(dp4669
g7
I1
sg8
I00
sg9
I5
sg10
(lp4670
g1837
ag1970
asg24
I00
sg25
I00
sg26
I4999629
sg17
S'17375.2516504'
p4671
sba(igraph
Edge
p4672
(dp4673
g7
I1
sg8
I00
sg9
I5
sg10
(lp4674
g1844
ag1970
asg24
I00
sg25
I00
sg26
I4999630
sg17
S'17375.2785033'
p4675
sba(igraph
Edge
p4676
(dp4677
g7
I1
sg8
I00
sg9
I5
sg10
(lp4678
g1851
ag1984
asg24
I00
sg25
I00
sg26
I4999631
sg17
S'17375.3028329'
p4679
sba(igraph
Edge
p4680
(dp4681
g7
I1
sg8
I00
sg9
I5
sg10
(lp4682
g1858
ag1984
asg24
I00
sg25
I00
sg26
I4999632
sg17
S'17375.3284755'
p4683
sba(igraph
Edge
p4684
(dp4685
g7
I1
sg8
I00
sg9
I5
sg10
(lp4686
g1865
ag1998
asg24
I00
sg25
I00
sg26
I4999633
sg17
S'17375.3526795'
p4687
sba(igraph
Edge
p4688
(dp4689
g7
I1
sg8
I00
sg9
I5
sg10
(lp4690
g1872
ag1998
asg24
I00
sg25
I00
sg26
I4999634
sg17
S'17375.378112'
p4691
sba(igraph
Edge
p4692
(dp4693
g7
I1
sg8
I00
sg9
I5
sg10
(lp4694
g1883
ag2016
asg24
I00
sg25
I00
sg26
I4999635
sg17
S'17375.4012066'
p4695
sba(igraph
Edge
p4696
(dp4697
g7
I1
sg8
I00
sg9
I5
sg10
(lp4698
g1886
ag2016
asg24
I00
sg25
I00
sg26
I4999636
sg17
S'17375.4254535'
p4699
sba(igraph
Edge
p4700
(dp4701
g7
I1
sg8
I00
sg9
I5
sg10
(lp4702
g1893
ag2026
asg24
I00
sg25
I00
sg26
I4999637
sg17
S'17375.4499379'
p4703
sba(igraph
Edge
p4704
(dp4705
g7
I1
sg8
I00
sg9
I5
sg10
(lp4706
g1900
ag2026
asg24
I00
sg25
I00
sg26
I4999638
sg17
S'17375.4754101'
p4707
sba(igraph
Edge
p4708
(dp4709
g7
I1
sg8
I00
sg9
I5
sg10
(lp4710
g1907
ag2040
asg24
I00
sg25
I00
sg26
I4999639
sg17
S'17375.5002083'
p4711
sba(igraph
Edge
p4712
(dp4713
g7
I1
sg8
I00
sg9
I5
sg10
(lp4714
g1914
ag2040
asg24
I00
sg25
I00
sg26
I4999640
sg17
S'17375.5227553'
p4715
sba(igraph
Edge
p4716
(dp4717
g7
I1
sg8
I00
sg9
I5
sg10
(lp4718
g1921
ag2054
asg24
I00
sg25
I00
sg26
I4999641
sg17
S'17375.5463474'
p4719
sba(igraph
Edge
p4720
(dp4721
g7
I1
sg8
I00
sg9
I5
sg10
(lp4722
g1928
ag2054
asg24
I00
sg25
I00
sg26
I4999642
sg17
S'17375.569538'
p4723
sba(igraph
Edge
p4724
(dp4725
g7
I1
sg8
I00
sg9
I5
sg10
(lp4726
g1935
ag2068
asg24
I00
sg25
I00
sg26
I4999643
sg17
S'17375.5942495'
p4727
sba(igraph
Edge
p4728
(dp4729
g7
I1
sg8
I00
sg9
I5
sg10
(lp4730
g1942
ag2068
asg24
I00
sg25
I00
sg26
I4999644
sg17
S'17375.6193002'
p4731
sba(igraph
Edge
p4732
(dp4733
g7
I1
sg8
I00
sg9
I5
sg10
(lp4734
g1949
ag2082
asg24
I00
sg25
I00
sg26
I4999645
sg17
S'17375.6437343'
p4735
sba(igraph
Edge
p4736
(dp4737
g7
I1
sg8
I00
sg9
I5
sg10
(lp4738
g1956
ag2082
asg24
I00
sg25
I00
sg26
I4999646
sg17
S'17375.6677885'
p4739
sba(igraph
Edge
p4740
(dp4741
g7
I1
sg8
I00
sg9
I5
sg10
(lp4742
g1963
ag2096
asg24
I00
sg25
I00
sg26
I4999647
sg17
S'17375.6918485'
p4743
sba(igraph
Edge
p4744
(dp4745
g7
I1
sg8
I00
sg9
I5
sg10
(lp4746
g1970
ag2096
asg24
I00
sg25
I00
sg26
I4999648
sg17
S'17375.7166137'
p4747
sba(igraph
Edge
p4748
(dp4749
g7
I1
sg8
I00
sg9
I5
sg10
(lp4750
g1977
ag2110
asg24
I00
sg25
I00
sg26
I4999649
sg17
S'17375.7421466'
p4751
sba(igraph
Edge
p4752
(dp4753
g7
I1
sg8
I00
sg9
I5
sg10
(lp4754
g1984
ag2110
asg24
I00
sg25
I00
sg26
I4999650
sg17
S'17375.7676674'
p4755
sba(igraph
Edge
p4756
(dp4757
g7
I1
sg8
I00
sg9
I5
sg10
(lp4758
g1991
ag2124
asg24
I00
sg25
I00
sg26
I4999651
sg17
S'17375.789152'
p4759
sba(igraph
Edge
p4760
(dp4761
g7
I1
sg8
I00
sg9
I5
sg10
(lp4762
g1998
ag2124
asg24
I00
sg25
I00
sg26
I4999652
sg17
S'17375.8101326'
p4763
sba(igraph
Edge
p4764
(dp4765
g7
I1
sg8
I00
sg9
I5
sg10
(lp4766
g2005
ag2138
asg24
I00
sg25
I00
sg26
I4999653
sg17
S'17375.8309377'
p4767
sba(igraph
Edge
p4768
(dp4769
g7
I1
sg8
I00
sg9
I5
sg10
(lp4770
g1883
ag2138
asg24
I00
sg25
I00
sg26
I4999654
sg17
S'17375.8519636'
p4771
sba(igraph
Edge
p4772
(dp4773
g7
I1
sg8
I00
sg9
I5
sg10
(lp4774
g1886
ag2019
asg24
I00
sg25
I00
sg26
I4999655
sg17
S'17375.872329'
p4775
sba(igraph
Edge
p4776
(dp4777
g7
I1
sg8
I00
sg9
I5
sg10
(lp4778
g1893
ag2019
asg24
I00
sg25
I00
sg26
I4999656
sg17
S'17375.8927202'
p4779
sba(igraph
Edge
p4780
(dp4781
g7
I1
sg8
I00
sg9
I5
sg10
(lp4782
g1900
ag2033
asg24
I00
sg25
I00
sg26
I4999657
sg17
S'17375.9131526'
p4783
sba(igraph
Edge
p4784
(dp4785
g7
I1
sg8
I00
sg9
I5
sg10
(lp4786
g1907
ag2033
asg24
I00
sg25
I00
sg26
I4999658
sg17
S'17375.9341914'
p4787
sba(igraph
Edge
p4788
(dp4789
g7
I1
sg8
I00
sg9
I5
sg10
(lp4790
g1914
ag2047
asg24
I00
sg25
I00
sg26
I4999659
sg17
S'17375.9549035'
p4791
sba(igraph
Edge
p4792
(dp4793
g7
I1
sg8
I00
sg9
I5
sg10
(lp4794
g1921
ag2047
asg24
I00
sg25
I00
sg26
I4999660
sg17
S'17375.9757852'
p4795
sba(igraph
Edge
p4796
(dp4797
g7
I1
sg8
I00
sg9
I5
sg10
(lp4798
g1928
ag2061
asg24
I00
sg25
I00
sg26
I4999661
sg17
S'17375.996475'
p4799
sba(igraph
Edge
p4800
(dp4801
g7
I1
sg8
I00
sg9
I5
sg10
(lp4802
g1935
ag2061
asg24
I00
sg25
I00
sg26
I4999662
sg17
S'17376.0169038'
p4803
sba(igraph
Edge
p4804
(dp4805
g7
I1
sg8
I00
sg9
I5
sg10
(lp4806
g1942
ag2075
asg24
I00
sg25
I00
sg26
I4999663
sg17
S'17376.0378816'
p4807
sba(igraph
Edge
p4808
(dp4809
g7
I1
sg8
I00
sg9
I5
sg10
(lp4810
g1949
ag2075
asg24
I00
sg25
I00
sg26
I4999664
sg17
S'17376.05877'
p4811
sba(igraph
Edge
p4812
(dp4813
g7
I1
sg8
I00
sg9
I5
sg10
(lp4814
g1956
ag2089
asg24
I00
sg25
I00
sg26
I4999665
sg17
S'17376.084411'
p4815
sba(igraph
Edge
p4816
(dp4817
g7
I1
sg8
I00
sg9
I5
sg10
(lp4818
g1963
ag2089
asg24
I00
sg25
I00
sg26
I4999666
sg17
S'17376.1082939'
p4819
sba(igraph
Edge
p4820
(dp4821
g7
I1
sg8
I00
sg9
I5
sg10
(lp4822
g1970
ag2103
asg24
I00
sg25
I00
sg26
I4999667
sg17
S'17376.1405707'
p4823
sba(igraph
Edge
p4824
(dp4825
g7
I1
sg8
I00
sg9
I5
sg10
(lp4826
g1977
ag2103
asg24
I00
sg25
I00
sg26
I4999668
sg17
S'17376.1681619'
p4827
sba(igraph
Edge
p4828
(dp4829
g7
I1
sg8
I00
sg9
I5
sg10
(lp4830
g1984
ag2117
asg24
I00
sg25
I00
sg26
I4999669
sg17
S'17376.1940294'
p4831
sba(igraph
Edge
p4832
(dp4833
g7
I1
sg8
I00
sg9
I5
sg10
(lp4834
g1991
ag2117
asg24
I00
sg25
I00
sg26
I4999670
sg17
S'17376.2168362'
p4835
sba(igraph
Edge
p4836
(dp4837
g7
I1
sg8
I00
sg9
I5
sg10
(lp4838
g1998
ag2131
asg24
I00
sg25
I00
sg26
I4999671
sg17
S'17376.2381152'
p4839
sba(igraph
Edge
p4840
(dp4841
g7
I1
sg8
I00
sg9
I5
sg10
(lp4842
g2005
ag2131
asg24
I00
sg25
I00
sg26
I4999672
sg17
S'17376.2591243'
p4843
sba(igraph
Edge
p4844
(dp4845
g7
I1
sg8
I00
sg9
I5
sg10
(lp4846
g2016
ag2149
asg24
I00
sg25
I00
sg26
I4999673
sg17
S'17376.2816629'
p4847
sba(igraph
Edge
p4848
(dp4849
g7
I1
sg8
I00
sg9
I5
sg10
(lp4850
g2019
ag2149
asg24
I00
sg25
I00
sg26
I4999674
sg17
S'17376.3029952'
p4851
sba(igraph
Edge
p4852
(dp4853
g7
I1
sg8
I00
sg9
I5
sg10
(lp4854
g2026
ag2159
asg24
I00
sg25
I00
sg26
I4999675
sg17
S'17376.3239934'
p4855
sba(igraph
Edge
p4856
(dp4857
g7
I1
sg8
I00
sg9
I5
sg10
(lp4858
g2033
ag2159
asg24
I00
sg25
I00
sg26
I4999676
sg17
S'17376.3453489'
p4859
sba(igraph
Edge
p4860
(dp4861
g7
I1
sg8
I00
sg9
I5
sg10
(lp4862
g2040
ag2173
asg24
I00
sg25
I00
sg26
I4999677
sg17
S'17376.3666466'
p4863
sba(igraph
Edge
p4864
(dp4865
g7
I1
sg8
I00
sg9
I5
sg10
(lp4866
g2047
ag2173
asg24
I00
sg25
I00
sg26
I4999678
sg17
S'17376.3880046'
p4867
sba(igraph
Edge
p4868
(dp4869
g7
I1
sg8
I00
sg9
I5
sg10
(lp4870
g2054
ag2187
asg24
I00
sg25
I00
sg26
I4999679
sg17
S'17376.4094688'
p4871
sba(igraph
Edge
p4872
(dp4873
g7
I1
sg8
I00
sg9
I5
sg10
(lp4874
g2061
ag2187
asg24
I00
sg25
I00
sg26
I4999680
sg17
S'17376.4305955'
p4875
sba(igraph
Edge
p4876
(dp4877
g7
I1
sg8
I00
sg9
I5
sg10
(lp4878
g2068
ag2201
asg24
I00
sg25
I00
sg26
I4999681
sg17
S'17376.4514331'
p4879
sba(igraph
Edge
p4880
(dp4881
g7
I1
sg8
I00
sg9
I5
sg10
(lp4882
g2075
ag2201
asg24
I00
sg25
I00
sg26
I4999682
sg17
S'17376.4723924'
p4883
sba(igraph
Edge
p4884
(dp4885
g7
I1
sg8
I00
sg9
I5
sg10
(lp4886
g2082
ag2215
asg24
I00
sg25
I00
sg26
I4999683
sg17
S'17376.4943142'
p4887
sba(igraph
Edge
p4888
(dp4889
g7
I1
sg8
I00
sg9
I5
sg10
(lp4890
g2089
ag2215
asg24
I00
sg25
I00
sg26
I4999684
sg17
S'17376.5155267'
p4891
sba(igraph
Edge
p4892
(dp4893
g7
I1
sg8
I00
sg9
I5
sg10
(lp4894
g2096
ag2229
asg24
I00
sg25
I00
sg26
I4999685
sg17
S'17376.5368364'
p4895
sba(igraph
Edge
p4896
(dp4897
g7
I1
sg8
I00
sg9
I5
sg10
(lp4898
g2103
ag2229
asg24
I00
sg25
I00
sg26
I4999686
sg17
S'17376.5579276'
p4899
sba(igraph
Edge
p4900
(dp4901
g7
I1
sg8
I00
sg9
I5
sg10
(lp4902
g2110
ag2243
asg24
I00
sg25
I00
sg26
I4999687
sg17
S'17376.579403'
p4903
sba(igraph
Edge
p4904
(dp4905
g7
I1
sg8
I00
sg9
I5
sg10
(lp4906
g2117
ag2243
asg24
I00
sg25
I00
sg26
I4999688
sg17
S'17376.6006613'
p4907
sba(igraph
Edge
p4908
(dp4909
g7
I1
sg8
I00
sg9
I5
sg10
(lp4910
g2124
ag2257
asg24
I00
sg25
I00
sg26
I4999689
sg17
S'17376.6221713'
p4911
sba(igraph
Edge
p4912
(dp4913
g7
I1
sg8
I00
sg9
I5
sg10
(lp4914
g2131
ag2257
asg24
I00
sg25
I00
sg26
I4999690
sg17
S'17376.6436108'
p4915
sba(igraph
Edge
p4916
(dp4917
g7
I1
sg8
I00
sg9
I5
sg10
(lp4918
g2138
ag2271
asg24
I00
sg25
I00
sg26
I4999691
sg17
S'17376.6648457'
p4919
sba(igraph
Edge
p4920
(dp4921
g7
I1
sg8
I00
sg9
I5
sg10
(lp4922
g2016
ag2271
asg24
I00
sg25
I00
sg26
I4999692
sg17
S'17376.6866429'
p4923
sba(igraph
Edge
p4924
(dp4925
g7
I1
sg8
I00
sg9
I5
sg10
(lp4926
g2019
ag2152
asg24
I00
sg25
I00
sg26
I4999693
sg17
S'17376.7087538'
p4927
sba(igraph
Edge
p4928
(dp4929
g7
I1
sg8
I00
sg9
I5
sg10
(lp4930
g2026
ag2152
asg24
I00
sg25
I00
sg26
I4999694
sg17
S'17376.7299517'
p4931
sba(igraph
Edge
p4932
(dp4933
g7
I1
sg8
I00
sg9
I5
sg10
(lp4934
g2033
ag2166
asg24
I00
sg25
I00
sg26
I4999695
sg17
S'17376.7516846'
p4935
sba(igraph
Edge
p4936
(dp4937
g7
I1
sg8
I00
sg9
I5
sg10
(lp4938
g2040
ag2166
asg24
I00
sg25
I00
sg26
I4999696
sg17
S'17376.7747798'
p4939
sba(igraph
Edge
p4940
(dp4941
g7
I1
sg8
I00
sg9
I5
sg10
(lp4942
g2047
ag2180
asg24
I00
sg25
I00
sg26
I4999697
sg17
S'17376.7963602'
p4943
sba(igraph
Edge
p4944
(dp4945
g7
I1
sg8
I00
sg9
I5
sg10
(lp4946
g2054
ag2180
asg24
I00
sg25
I00
sg26
I4999698
sg17
S'17376.8180107'
p4947
sba(igraph
Edge
p4948
(dp4949
g7
I1
sg8
I00
sg9
I5
sg10
(lp4950
g2061
ag2194
asg24
I00
sg25
I00
sg26
I4999699
sg17
S'17376.8398414'
p4951
sba(igraph
Edge
p4952
(dp4953
g7
I1
sg8
I00
sg9
I5
sg10
(lp4954
g2068
ag2194
asg24
I00
sg25
I00
sg26
I4999700
sg17
S'17376.8614397'
p4955
sba(igraph
Edge
p4956
(dp4957
g7
I1
sg8
I00
sg9
I5
sg10
(lp4958
g2075
ag2208
asg24
I00
sg25
I00
sg26
I4999701
sg17
S'17376.8838394'
p4959
sba(igraph
Edge
p4960
(dp4961
g7
I1
sg8
I00
sg9
I5
sg10
(lp4962
g2082
ag2208
asg24
I00
sg25
I00
sg26
I4999702
sg17
S'17376.9051435'
p4963
sba(igraph
Edge
p4964
(dp4965
g7
I1
sg8
I00
sg9
I5
sg10
(lp4966
g2089
ag2222
asg24
I00
sg25
I00
sg26
I4999703
sg17
S'17376.926851'
p4967
sba(igraph
Edge
p4968
(dp4969
g7
I1
sg8
I00
sg9
I5
sg10
(lp4970
g2096
ag2222
asg24
I00
sg25
I00
sg26
I4999704
sg17
S'17376.9482255'
p4971
sba(igraph
Edge
p4972
(dp4973
g7
I1
sg8
I00
sg9
I5
sg10
(lp4974
g2103
ag2236
asg24
I00
sg25
I00
sg26
I4999705
sg17
S'17376.9698006'
p4975
sba(igraph
Edge
p4976
(dp4977
g7
I1
sg8
I00
sg9
I5
sg10
(lp4978
g2110
ag2236
asg24
I00
sg25
I00
sg26
I4999706
sg17
S'17376.9913794'
p4979
sba(igraph
Edge
p4980
(dp4981
g7
I1
sg8
I00
sg9
I5
sg10
(lp4982
g2117
ag2250
asg24
I00
sg25
I00
sg26
I4999707
sg17
S'17377.0127016'
p4983
sba(igraph
Edge
p4984
(dp4985
g7
I1
sg8
I00
sg9
I5
sg10
(lp4986
g2124
ag2250
asg24
I00
sg25
I00
sg26
I4999708
sg17
S'17377.0342633'
p4987
sba(igraph
Edge
p4988
(dp4989
g7
I1
sg8
I00
sg9
I5
sg10
(lp4990
g2131
ag2264
asg24
I00
sg25
I00
sg26
I4999709
sg17
S'17377.0557982'
p4991
sba(igraph
Edge
p4992
(dp4993
g7
I1
sg8
I00
sg9
I5
sg10
(lp4994
g2138
ag2264
asg24
I00
sg25
I00
sg26
I4999710
sg17
S'17377.077426'
p4995
sba(igraph
Edge
p4996
(dp4997
g7
I1
sg8
I00
sg9
I5
sg10
(lp4998
g2149
ag2282
asg24
I00
sg25
I00
sg26
I4999711
sg17
S'17377.0991458'
p4999
sba(igraph
Edge
p5000
(dp5001
g7
I1
sg8
I00
sg9
I5
sg10
(lp5002
g2152
ag2282
asg24
I00
sg25
I00
sg26
I4999712
sg17
S'17377.1208547'
p5003
sba(igraph
Edge
p5004
(dp5005
g7
I1
sg8
I00
sg9
I5
sg10
(lp5006
g2159
ag2292
asg24
I00
sg25
I00
sg26
I4999713
sg17
S'17377.143112'
p5007
sba(igraph
Edge
p5008
(dp5009
g7
I1
sg8
I00
sg9
I5
sg10
(lp5010
g2166
ag2292
asg24
I00
sg25
I00
sg26
I4999714
sg17
S'17377.165043'
p5011
sba(igraph
Edge
p5012
(dp5013
g7
I1
sg8
I00
sg9
I5
sg10
(lp5014
g2173
ag2306
asg24
I00
sg25
I00
sg26
I4999715
sg17
S'17377.1893554'
p5015
sba(igraph
Edge
p5016
(dp5017
g7
I1
sg8
I00
sg9
I5
sg10
(lp5018
g2180
ag2306
asg24
I00
sg25
I00
sg26
I4999716
sg17
S'17377.2174525'
p5019
sba(igraph
Edge
p5020
(dp5021
g7
I1
sg8
I00
sg9
I5
sg10
(lp5022
g2187
ag2320
asg24
I00
sg25
I00
sg26
I4999717
sg17
S'17377.2441453'
p5023
sba(igraph
Edge
p5024
(dp5025
g7
I1
sg8
I00
sg9
I5
sg10
(lp5026
g2194
ag2320
asg24
I00
sg25
I00
sg26
I4999718
sg17
S'17377.2751839'
p5027
sba(igraph
Edge
p5028
(dp5029
g7
I1
sg8
I00
sg9
I5
sg10
(lp5030
g2201
ag2334
asg24
I00
sg25
I00
sg26
I4999719
sg17
S'17377.3033743'
p5031
sba(igraph
Edge
p5032
(dp5033
g7
I1
sg8
I00
sg9
I5
sg10
(lp5034
g2208
ag2334
asg24
I00
sg25
I00
sg26
I4999720
sg17
S'17377.3344283'
p5035
sba(igraph
Edge
p5036
(dp5037
g7
I1
sg8
I00
sg9
I5
sg10
(lp5038
g2215
ag2348
asg24
I00
sg25
I00
sg26
I4999721
sg17
S'17377.3619826'
p5039
sba(igraph
Edge
p5040
(dp5041
g7
I1
sg8
I00
sg9
I5
sg10
(lp5042
g2222
ag2348
asg24
I00
sg25
I00
sg26
I4999722
sg17
S'17377.3874009'
p5043
sba(igraph
Edge
p5044
(dp5045
g7
I1
sg8
I00
sg9
I5
sg10
(lp5046
g2229
ag2362
asg24
I00
sg25
I00
sg26
I4999723
sg17
S'17377.4135126'
p5047
sba(igraph
Edge
p5048
(dp5049
g7
I1
sg8
I00
sg9
I5
sg10
(lp5050
g2236
ag2362
asg24
I00
sg25
I00
sg26
I4999724
sg17
S'17377.4426923'
p5051
sba(igraph
Edge
p5052
(dp5053
g7
I1
sg8
I00
sg9
I5
sg10
(lp5054
g2243
ag2376
asg24
I00
sg25
I00
sg26
I4999725
sg17
S'17377.4712415'
p5055
sba(igraph
Edge
p5056
(dp5057
g7
I1
sg8
I00
sg9
I5
sg10
(lp5058
g2250
ag2376
asg24
I00
sg25
I00
sg26
I4999726
sg17
S'17377.4977677'
p5059
sba(igraph
Edge
p5060
(dp5061
g7
I1
sg8
I00
sg9
I5
sg10
(lp5062
g2257
ag2390
asg24
I00
sg25
I00
sg26
I4999727
sg17
S'17377.5232092'
p5063
sba(igraph
Edge
p5064
(dp5065
g7
I1
sg8
I00
sg9
I5
sg10
(lp5066
g2264
ag2390
asg24
I00
sg25
I00
sg26
I4999728
sg17
S'17377.5489293'
p5067
sba(igraph
Edge
p5068
(dp5069
g7
I1
sg8
I00
sg9
I5
sg10
(lp5070
g2271
ag2404
asg24
I00
sg25
I00
sg26
I4999729
sg17
S'17377.5775745'
p5071
sba(igraph
Edge
p5072
(dp5073
g7
I1
sg8
I00
sg9
I5
sg10
(lp5074
g2149
ag2404
asg24
I00
sg25
I00
sg26
I4999730
sg17
S'17377.605092'
p5075
sba(igraph
Edge
p5076
(dp5077
g7
I1
sg8
I00
sg9
I5
sg10
(lp5078
g2152
ag2285
asg24
I00
sg25
I00
sg26
I4999731
sg17
S'17377.6325907'
p5079
sba(igraph
Edge
p5080
(dp5081
g7
I1
sg8
I00
sg9
I5
sg10
(lp5082
g2159
ag2285
asg24
I00
sg25
I00
sg26
I4999732
sg17
S'17377.6584446'
p5083
sba(igraph
Edge
p5084
(dp5085
g7
I1
sg8
I00
sg9
I5
sg10
(lp5086
g2166
ag2299
asg24
I00
sg25
I00
sg26
I4999733
sg17
S'17377.6862847'
p5087
sba(igraph
Edge
p5088
(dp5089
g7
I1
sg8
I00
sg9
I5
sg10
(lp5090
g2173
ag2299
asg24
I00
sg25
I00
sg26
I4999734
sg17
S'17377.7127168'
p5091
sba(igraph
Edge
p5092
(dp5093
g7
I1
sg8
I00
sg9
I5
sg10
(lp5094
g2180
ag2313
asg24
I00
sg25
I00
sg26
I4999735
sg17
S'17377.7404106'
p5095
sba(igraph
Edge
p5096
(dp5097
g7
I1
sg8
I00
sg9
I5
sg10
(lp5098
g2187
ag2313
asg24
I00
sg25
I00
sg26
I4999736
sg17
S'17377.7668547'
p5099
sba(igraph
Edge
p5100
(dp5101
g7
I1
sg8
I00
sg9
I5
sg10
(lp5102
g2194
ag2327
asg24
I00
sg25
I00
sg26
I4999737
sg17
S'17377.7950938'
p5103
sba(igraph
Edge
p5104
(dp5105
g7
I1
sg8
I00
sg9
I5
sg10
(lp5106
g2201
ag2327
asg24
I00
sg25
I00
sg26
I4999738
sg17
S'17377.8192639'
p5107
sba(igraph
Edge
p5108
(dp5109
g7
I1
sg8
I00
sg9
I5
sg10
(lp5110
g2208
ag2341
asg24
I00
sg25
I00
sg26
I4999739
sg17
S'17377.8418511'
p5111
sba(igraph
Edge
p5112
(dp5113
g7
I1
sg8
I00
sg9
I5
sg10
(lp5114
g2215
ag2341
asg24
I00
sg25
I00
sg26
I4999740
sg17
S'17377.8641162'
p5115
sba(igraph
Edge
p5116
(dp5117
g7
I1
sg8
I00
sg9
I5
sg10
(lp5118
g2222
ag2355
asg24
I00
sg25
I00
sg26
I4999741
sg17
S'17377.8868661'
p5119
sba(igraph
Edge
p5120
(dp5121
g7
I1
sg8
I00
sg9
I5
sg10
(lp5122
g2229
ag2355
asg24
I00
sg25
I00
sg26
I4999742
sg17
S'17377.9110879'
p5123
sba(igraph
Edge
p5124
(dp5125
g7
I1
sg8
I00
sg9
I5
sg10
(lp5126
g2236
ag2369
asg24
I00
sg25
I00
sg26
I4999743
sg17
S'17377.9334544'
p5127
sba(igraph
Edge
p5128
(dp5129
g7
I1
sg8
I00
sg9
I5
sg10
(lp5130
g2243
ag2369
asg24
I00
sg25
I00
sg26
I4999744
sg17
S'17377.9556843'
p5131
sba(igraph
Edge
p5132
(dp5133
g7
I1
sg8
I00
sg9
I5
sg10
(lp5134
g2250
ag2383
asg24
I00
sg25
I00
sg26
I4999745
sg17
S'17377.9783366'
p5135
sba(igraph
Edge
p5136
(dp5137
g7
I1
sg8
I00
sg9
I5
sg10
(lp5138
g2257
ag2383
asg24
I00
sg25
I00
sg26
I4999746
sg17
S'17378.0010431'
p5139
sba(igraph
Edge
p5140
(dp5141
g7
I1
sg8
I00
sg9
I5
sg10
(lp5142
g2264
ag2397
asg24
I00
sg25
I00
sg26
I4999747
sg17
S'17378.0244006'
p5143
sba(igraph
Edge
p5144
(dp5145
g7
I1
sg8
I00
sg9
I5
sg10
(lp5146
g2271
ag2397
asg24
I00
sg25
I00
sg26
I4999748
sg17
S'17378.0473703'
p5147
sbasS'vertices'
p5148
(lp5149
g12
ag21
ag31
ag38
ag45
ag52
ag59
ag66
ag73
ag80
ag87
ag94
ag101
ag108
ag115
ag122
ag129
ag136
ag143
ag154
ag157
ag164
ag171
ag178
ag185
ag192
ag199
ag206
ag213
ag220
ag227
ag234
ag241
ag248
ag255
ag262
ag269
ag276
ag287
ag290
ag297
ag304
ag311
ag318
ag325
ag332
ag339
ag346
ag353
ag360
ag367
ag374
ag381
ag388
ag395
ag402
ag409
ag420
ag423
ag430
ag437
ag444
ag451
ag458
ag465
ag472
ag479
ag486
ag493
ag500
ag507
ag514
ag521
ag528
ag535
ag542
ag553
ag556
ag563
ag570
ag577
ag584
ag591
ag598
ag605
ag612
ag619
ag626
ag633
ag640
ag647
ag654
ag661
ag668
ag675
ag686
ag689
ag696
ag703
ag710
ag717
ag724
ag731
ag738
ag745
ag752
ag759
ag766
ag773
ag780
ag787
ag794
ag801
ag808
ag819
ag822
ag829
ag836
ag843
ag850
ag857
ag864
ag871
ag878
ag885
ag892
ag899
ag906
ag913
ag920
ag927
ag934
ag941
ag952
ag955
ag962
ag969
ag976
ag983
ag990
ag997
ag1004
ag1011
ag1018
ag1025
ag1032
ag1039
ag1046
ag1053
ag1060
ag1067
ag1074
ag1085
ag1088
ag1095
ag1102
ag1109
ag1116
ag1123
ag1130
ag1137
ag1144
ag1151
ag1158
ag1165
ag1172
ag1179
ag1186
ag1193
ag1200
ag1207
ag1218
ag1221
ag1228
ag1235
ag1242
ag1249
ag1256
ag1263
ag1270
ag1277
ag1284
ag1291
ag1298
ag1305
ag1312
ag1319
ag1326
ag1333
ag1340
ag1351
ag1354
ag1361
ag1368
ag1375
ag1382
ag1389
ag1396
ag1403
ag1410
ag1417
ag1424
ag1431
ag1438
ag1445
ag1452
ag1459
ag1466
ag1473
ag1484
ag1487
ag1494
ag1501
ag1508
ag1515
ag1522
ag1529
ag1536
ag1543
ag1550
ag1557
ag1564
ag1571
ag1578
ag1585
ag1592
ag1599
ag1606
ag1617
ag1620
ag1627
ag1634
ag1641
ag1648
ag1655
ag1662
ag1669
ag1676
ag1683
ag1690
ag1697
ag1704
ag1711
ag1718
ag1725
ag1732
ag1739
ag1750
ag1753
ag1760
ag1767
ag1774
ag1781
ag1788
ag1795
ag1802
ag1809
ag1816
ag1823
ag1830
ag1837
ag1844
ag1851
ag1858
ag1865
ag1872
ag1883
ag1886
ag1893
ag1900
ag1907
ag1914
ag1921
ag1928
ag1935
ag1942
ag1949
ag1956
ag1963
ag1970
ag1977
ag1984
ag1991
ag1998
ag2005
ag2016
ag2019
ag2026
ag2033
ag2040
ag2047
ag2054
ag2061
ag2068
ag2075
ag2082
ag2089
ag2096
ag2103
ag2110
ag2117
ag2124
ag2131
ag2138
ag2149
ag2152
ag2159
ag2166
ag2173
ag2180
ag2187
ag2194
ag2201
ag2208
ag2215
ag2222
ag2229
ag2236
ag2243
ag2250
ag2257
ag2264
ag2271
ag2282
ag2285
ag2292
ag2299
ag2306
ag2313
ag2320
ag2327
ag2334
ag2341
ag2348
ag2355
ag2362
ag2369
ag2376
ag2383
ag2390
ag2397
ag2404
asS'tags'
p5150
(lp5151
sb.