(igraph
Graph
p0
(dp1
S'labelingConstraints'
p2
I-1
sS'edges'
p3
(lp4
(igraph
Edge
p5
(dp6
S'direction'
p7
I1
sS'selected'
p8
I00
sS'height'
p9
I5
sS'vs'
p10
(lp11
(igraph
Vertex
p12
(dp13
S'xnorm'
p14
F0.014297729184188394
sg8
I00
sS'label'
p15
S'NULL'
p16
sS'y'
p17
F-221.34338235294118
sS'x'
p18
F-333.53153910849454
sS'circle'
p19
I5651524
sS'id'
p20
S'18617.6009767'
p21
sS'ynorm'
p22
F0.016911764705882352
sba(igraph
Vertex
p23
(dp24
g14
F0.068217923558545904
sg8
I00
sg15
g16
sg17
F-221.34338235294118
sg18
F-282.73871600784975
sg19
I5651525
sg20
S'18617.6010001'
p25
sg22
F0.016911764705882352
sbasS'wrap'
p26
I00
sS'curved'
p27
I00
sS'line'
p28
I5650780
sg20
S'18617.8672622'
p29
sba(igraph
Edge
p30
(dp31
g7
I1
sg8
I00
sg9
I5
sg10
(lp32
g23
a(igraph
Vertex
p33
(dp34
g14
F0.12213811793290343
sg8
I00
sg15
g16
sg17
F-221.34338235294118
sg18
F-231.94589290720498
sg19
I5651526
sg20
S'18617.6010222'
p35
sg22
F0.016911764705882352
sbasg26
I00
sg27
I00
sg28
I5650781
sg20
S'18617.8673217'
p36
sba(igraph
Edge
p37
(dp38
g7
I1
sg8
I00
sg9
I5
sg10
(lp39
g33
a(igraph
Vertex
p40
(dp41
g14
F0.17605831230726093
sg8
I00
sg15
g16
sg17
F-221.34338235294118
sg18
F-181.15306980656021
sg19
I5651527
sg20
S'18617.6010493'
p42
sg22
F0.016911764705882352
sbasg26
I00
sg27
I00
sg28
I5650782
sg20
S'18617.8674005'
p43
sba(igraph
Edge
p44
(dp45
g7
I1
sg8
I00
sg9
I5
sg10
(lp46
g40
a(igraph
Vertex
p47
(dp48
g14
F0.22997850668161846
sg8
I00
sg15
g16
sg17
F-221.34338235294118
sg18
F-130.36024670591542
sg19
I5651528
sg20
S'18617.6010823'
p49
sg22
F0.016911764705882352
sbasg26
I00
sg27
I00
sg28
I5650783
sg20
S'18617.8674996'
p50
sba(igraph
Edge
p51
(dp52
g7
I1
sg8
I00
sg9
I5
sg10
(lp53
g47
a(igraph
Vertex
p54
(dp55
g14
F0.28389870105597598
sg8
I00
sg15
g16
sg17
F-221.34338235294118
sg18
F-79.567423605270619
sg19
I5651529
sg20
S'18617.6011225'
p56
sg22
F0.016911764705882352
sbasg26
I00
sg27
I00
sg28
I5650784
sg20
S'18617.8676192'
p57
sba(igraph
Edge
p58
(dp59
g7
I1
sg8
I00
sg9
I5
sg10
(lp60
g54
a(igraph
Vertex
p61
(dp62
g14
F0.3378188954303335
sg8
I00
sg15
g16
sg17
F-221.34338235294118
sg18
F-28.774600504625823
sg19
I5651530
sg20
S'18617.6011719'
p63
sg22
F0.016911764705882352
sbasg26
I00
sg27
I00
sg28
I5650785
sg20
S'18617.8677614'
p64
sba(igraph
Edge
p65
(dp66
g7
I1
sg8
I00
sg9
I5
sg10
(lp67
g61
a(igraph
Vertex
p68
(dp69
g14
F0.39173908980469108
sg8
I00
sg15
g16
sg17
F-221.34338235294118
sg18
F22.018222596018973
sg19
I5651531
sg20
S'18617.6012278'
p70
sg22
F0.016911764705882352
sbasg26
I00
sg27
I00
sg28
I5650786
sg20
S'18617.8679254'
p71
sba(igraph
Edge
p72
(dp73
g7
I1
sg8
I00
sg9
I5
sg10
(lp74
g68
a(igraph
Vertex
p75
(dp76
g14
F0.4456592841790486
sg8
I00
sg15
g16
sg17
F-221.34338235294118
sg18
F72.811045696663768
sg19
I5651532
sg20
S'18617.6012926'
p77
sg22
F0.016911764705882352
sbasg26
I00
sg27
I00
sg28
I5650787
sg20
S'18617.8681101'
p78
sba(igraph
Edge
p79
(dp80
g7
I1
sg8
I00
sg9
I5
sg10
(lp81
g75
a(igraph
Vertex
p82
(dp83
g14
F0.49957947855340623
sg8
I00
sg15
g16
sg17
F-221.34338235294118
sg18
F123.60386879730868
sg19
I5651533
sg20
S'18617.6013655'
p84
sg22
F0.016911764705882352
sbasg26
I00
sg27
I00
sg28
I5650788
sg20
S'18617.8683162'
p85
sba(igraph
Edge
p86
(dp87
g7
I1
sg8
I00
sg9
I5
sg10
(lp88
g82
a(igraph
Vertex
p89
(dp90
g14
F0.5534996729277637
sg8
I00
sg15
g16
sg17
F-221.34338235294118
sg18
F174.39669189795336
sg19
I5651534
sg20
S'18617.6014463'
p91
sg22
F0.016911764705882352
sbasg26
I00
sg27
I00
sg28
I5650789
sg20
S'18617.868545'
p92
sba(igraph
Edge
p93
(dp94
g7
I1
sg8
I00
sg9
I5
sg10
(lp95
g89
a(igraph
Vertex
p96
(dp97
g14
F0.60741986730212139
sg8
I00
sg15
g16
sg17
F-221.34338235294118
sg18
F225.18951499859838
sg19
I5651535
sg20
S'18617.601534'
p98
sg22
F0.016911764705882352
sbasg26
I00
sg27
I00
sg28
I5650790
sg20
S'18617.8688934'
p99
sba(igraph
Edge
p100
(dp101
g7
I1
sg8
I00
sg9
I5
sg10
(lp102
g96
a(igraph
Vertex
p103
(dp104
g14
F0.66134006167647874
sg8
I00
sg15
g16
sg17
F-221.34338235294118
sg18
F275.98233809924295
sg19
I5651536
sg20
S'18617.6016281'
p105
sg22
F0.016911764705882352
sbasg26
I00
sg27
I00
sg28
I5650791
sg20
S'18617.8691672'
p106
sba(igraph
Edge
p107
(dp108
g7
I1
sg8
I00
sg9
I5
sg10
(lp109
g103
a(igraph
Vertex
p110
(dp111
g14
F0.71526025605083643
sg8
I00
sg15
g16
sg17
F-221.34338235294118
sg18
F326.77516119988786
sg19
I5651537
sg20
S'18617.6017301'
p112
sg22
F0.016911764705882352
sbasg26
I00
sg27
I00
sg28
I5650792
sg20
S'18617.8694599'
p113
sba(igraph
Edge
p114
(dp115
g7
I1
sg8
I00
sg9
I5
sg10
(lp116
g110
a(igraph
Vertex
p117
(dp118
g14
F0.76918045042519401
sg8
I00
sg15
g16
sg17
F-221.34338235294118
sg18
F377.56798430053277
sg19
I5651538
sg20
S'18617.6018402'
p119
sg22
F0.016911764705882352
sbasg26
I00
sg27
I00
sg28
I5650793
sg20
S'18617.8697731'
p120
sba(igraph
Edge
p121
(dp122
g7
I1
sg8
I00
sg9
I5
sg10
(lp123
g117
a(igraph
Vertex
p124
(dp125
g14
F0.82310064479955147
sg8
I00
sg15
g16
sg17
F-221.34338235294118
sg18
F428.36080740117745
sg19
I5651539
sg20
S'18617.6019578'
p126
sg22
F0.016911764705882352
sbasg26
I00
sg27
I00
sg28
I5650794
sg20
S'18617.8701078'
p127
sba(igraph
Edge
p128
(dp129
g7
I1
sg8
I00
sg9
I5
sg10
(lp130
g124
a(igraph
Vertex
p131
(dp132
g14
F0.87702083917390883
sg8
I00
sg15
g16
sg17
F-221.34338235294118
sg18
F479.15363050182214
sg19
I5651540
sg20
S'18617.6021193'
p133
sg22
F0.016911764705882352
sbasg26
I00
sg27
I00
sg28
I5650795
sg20
S'18617.8704645'
p134
sba(igraph
Edge
p135
(dp136
g7
I1
sg8
I00
sg9
I5
sg10
(lp137
g131
a(igraph
Vertex
p138
(dp139
g14
F0.93094103354826652
sg8
I00
sg15
g16
sg17
F-221.34338235294118
sg18
F529.94645360246705
sg19
I5651541
sg20
S'18617.6022567'
p140
sg22
F0.016911764705882352
sbasg26
I00
sg27
I00
sg28
I5650796
sg20
S'18617.8708436'
p141
sba(igraph
Edge
p142
(dp143
g7
I1
sg8
I00
sg9
I5
sg10
(lp144
g138
a(igraph
Vertex
p145
(dp146
g14
F0.98486122792262409
sg8
I00
sg15
g16
sg17
F-221.34338235294118
sg18
F580.73927670311184
sg19
I5651542
sg20
S'18617.6024098'
p147
sg22
F0.016911764705882352
sbasg26
I00
sg27
I00
sg28
I5650797
sg20
S'18617.8712445'
p148
sba(igraph
Edge
p149
(dp150
g7
I1
sg8
I00
sg9
I5
sg10
(lp151
g145
ag12
asg26
I00
sg27
I00
sg28
I5650798
sg20
S'18617.8716664'
p152
sba(igraph
Edge
p153
(dp154
g7
I1
sg8
I00
sg9
I5
sg10
(lp155
(igraph
Vertex
p156
(dp157
g14
F0.014297729184188394
sg8
I00
sg15
g16
sg17
F-175.36948529411765
sg18
F-333.53153910849454
sg19
I5651543
sg20
S'18617.6025601'
p158
sg22
F0.097426470588235295
sba(igraph
Vertex
p159
(dp160
g14
F0.068217923558545904
sg8
I00
sg15
g16
sg17
F-175.36948529411765
sg18
F-282.73871600784975
sg19
I5651544
sg20
S'18617.6027177'
p161
sg22
F0.097426470588235295
sbasg26
I00
sg27
I00
sg28
I5650799
sg20
S'18617.8721106'
p162
sba(igraph
Edge
p163
(dp164
g7
I1
sg8
I00
sg9
I5
sg10
(lp165
g159
a(igraph
Vertex
p166
(dp167
g14
F0.12213811793290343
sg8
I00
sg15
g16
sg17
F-175.36948529411765
sg18
F-231.94589290720498
sg19
I5651545
sg20
S'18617.602883'
p168
sg22
F0.097426470588235295
sbasg26
I00
sg27
I00
sg28
I5650800
sg20
S'18617.8725902'
p169
sba(igraph
Edge
p170
(dp171
g7
I1
sg8
I00
sg9
I5
sg10
(lp172
g166
a(igraph
Vertex
p173
(dp174
g14
F0.17605831230726093
sg8
I00
sg15
g16
sg17
F-175.36948529411765
sg18
F-181.15306980656021
sg19
I5651546
sg20
S'18617.603066'
p175
sg22
F0.097426470588235295
sbasg26
I00
sg27
I00
sg28
I5650801
sg20
S'18617.8730744'
p176
sba(igraph
Edge
p177
(dp178
g7
I1
sg8
I00
sg9
I5
sg10
(lp179
g173
a(igraph
Vertex
p180
(dp181
g14
F0.22997850668161846
sg8
I00
sg15
g16
sg17
F-175.36948529411765
sg18
F-130.36024670591542
sg19
I5651547
sg20
S'18617.6032479'
p182
sg22
F0.097426470588235295
sbasg26
I00
sg27
I00
sg28
I5650802
sg20
S'18617.8735792'
p183
sba(igraph
Edge
p184
(dp185
g7
I1
sg8
I00
sg9
I5
sg10
(lp186
g180
a(igraph
Vertex
p187
(dp188
g14
F0.28389870105597598
sg8
I00
sg15
g16
sg17
F-175.36948529411765
sg18
F-79.567423605270619
sg19
I5651548
sg20
S'18617.603437'
p189
sg22
F0.097426470588235295
sbasg26
I00
sg27
I00
sg28
I5650803
sg20
S'18617.8741033'
p190
sba(igraph
Edge
p191
(dp192
g7
I1
sg8
I00
sg9
I5
sg10
(lp193
g187
a(igraph
Vertex
p194
(dp195
g14
F0.3378188954303335
sg8
I00
sg15
g16
sg17
F-175.36948529411765
sg18
F-28.774600504625823
sg19
I5651549
sg20
S'18617.6036438'
p196
sg22
F0.097426470588235295
sbasg26
I00
sg27
I00
sg28
I5650804
sg20
S'18617.8746732'
p197
sba(igraph
Edge
p198
(dp199
g7
I1
sg8
I00
sg9
I5
sg10
(lp200
g194
a(igraph
Vertex
p201
(dp202
g14
F0.39173908980469108
sg8
I00
sg15
g16
sg17
F-175.36948529411765
sg18
F22.018222596018973
sg19
I5651550
sg20
S'18617.6038502'
p203
sg22
F0.097426470588235295
sbasg26
I00
sg27
I00
sg28
I5650805
sg20
S'18617.8752618'
p204
sba(igraph
Edge
p205
(dp206
g7
I1
sg8
I00
sg9
I5
sg10
(lp207
g201
a(igraph
Vertex
p208
(dp209
g14
F0.4456592841790486
sg8
I00
sg15
g16
sg17
F-175.36948529411765
sg18
F72.811045696663768
sg19
I5651551
sg20
S'18617.6041055'
p210
sg22
F0.097426470588235295
sbasg26
I00
sg27
I00
sg28
I5650806
sg20
S'18617.8758806'
p211
sba(igraph
Edge
p212
(dp213
g7
I1
sg8
I00
sg9
I5
sg10
(lp214
g208
a(igraph
Vertex
p215
(dp216
g14
F0.49957947855340623
sg8
I00
sg15
g16
sg17
F-175.36948529411765
sg18
F123.60386879730868
sg19
I5651552
sg20
S'18617.6043302'
p217
sg22
F0.097426470588235295
sbasg26
I00
sg27
I00
sg28
I5650807
sg20
S'18617.8765527'
p218
sba(igraph
Edge
p219
(dp220
g7
I1
sg8
I00
sg9
I5
sg10
(lp221
g215
a(igraph
Vertex
p222
(dp223
g14
F0.5534996729277637
sg8
I00
sg15
g16
sg17
F-175.36948529411765
sg18
F174.39669189795336
sg19
I5651553
sg20
S'18617.6045601'
p224
sg22
F0.097426470588235295
sbasg26
I00
sg27
I00
sg28
I5650808
sg20
S'18617.877195'
p225
sba(igraph
Edge
p226
(dp227
g7
I1
sg8
I00
sg9
I5
sg10
(lp228
g222
a(igraph
Vertex
p229
(dp230
g14
F0.60741986730212139
sg8
I00
sg15
g16
sg17
F-175.36948529411765
sg18
F225.18951499859838
sg19
I5651554
sg20
S'18617.6047967'
p231
sg22
F0.097426470588235295
sbasg26
I00
sg27
I00
sg28
I5650809
sg20
S'18617.8778532'
p232
sba(igraph
Edge
p233
(dp234
g7
I1
sg8
I00
sg9
I5
sg10
(lp235
g229
a(igraph
Vertex
p236
(dp237
g14
F0.66134006167647874
sg8
I00
sg15
g16
sg17
F-175.36948529411765
sg18
F275.98233809924295
sg19
I5651555
sg20
S'18617.6050691'
p238
sg22
F0.097426470588235295
sbasg26
I00
sg27
I00
sg28
I5650810
sg20
S'18617.8785343'
p239
sba(igraph
Edge
p240
(dp241
g7
I1
sg8
I00
sg9
I5
sg10
(lp242
g236
a(igraph
Vertex
p243
(dp244
g14
F0.71526025605083643
sg8
I00
sg15
g16
sg17
F-175.36948529411765
sg18
F326.77516119988786
sg19
I5651556
sg20
S'18617.6053219'
p245
sg22
F0.097426470588235295
sbasg26
I00
sg27
I00
sg28
I5650811
sg20
S'18617.8792358'
p246
sba(igraph
Edge
p247
(dp248
g7
I1
sg8
I00
sg9
I5
sg10
(lp249
g243
a(igraph
Vertex
p250
(dp251
g14
F0.76918045042519401
sg8
I00
sg15
g16
sg17
F-175.36948529411765
sg18
F377.56798430053277
sg19
I5651557
sg20
S'18617.6055828'
p252
sg22
F0.097426470588235295
sbasg26
I00
sg27
I00
sg28
I5650812
sg20
S'18617.8799585'
p253
sba(igraph
Edge
p254
(dp255
g7
I1
sg8
I00
sg9
I5
sg10
(lp256
g250
a(igraph
Vertex
p257
(dp258
g14
F0.82310064479955147
sg8
I00
sg15
g16
sg17
F-175.36948529411765
sg18
F428.36080740117745
sg19
I5651558
sg20
S'18617.6058499'
p259
sg22
F0.097426470588235295
sbasg26
I00
sg27
I00
sg28
I5650813
sg20
S'18617.8807343'
p260
sba(igraph
Edge
p261
(dp262
g7
I1
sg8
I00
sg9
I5
sg10
(lp263
g257
a(igraph
Vertex
p264
(dp265
g14
F0.87702083917390883
sg8
I01
sg15
I0
sg17
F-175.36948529411765
sg18
F479.15363050182214
sg19
I5651560
sg20
S'18617.6061284'
p266
sg22
F0.097426470588235295
sbasg26
I00
sg27
I00
sg28
I5650814
sg20
S'18617.8815028'
p267
sba(igraph
Edge
p268
(dp269
g7
I1
sg8
I00
sg9
I5
sg10
(lp270
g264
a(igraph
Vertex
p271
(dp272
g14
F0.93094103354826652
sg8
I00
sg15
g16
sg17
F-175.36948529411765
sg18
F529.94645360246705
sg19
I5651562
sg20
S'18617.6064125'
p273
sg22
F0.097426470588235295
sbasg26
I00
sg27
I00
sg28
I5650815
sg20
S'18617.8822909'
p274
sba(igraph
Edge
p275
(dp276
g7
I1
sg8
I00
sg9
I5
sg10
(lp277
g271
a(igraph
Vertex
p278
(dp279
g14
F0.98486122792262409
sg8
I00
sg15
g16
sg17
F-175.36948529411765
sg18
F580.73927670311184
sg19
I5651563
sg20
S'18617.6067064'
p280
sg22
F0.097426470588235295
sbasg26
I00
sg27
I00
sg28
I5650816
sg20
S'18617.8830999'
p281
sba(igraph
Edge
p282
(dp283
g7
I1
sg8
I00
sg9
I5
sg10
(lp284
g278
ag156
asg26
I00
sg27
I00
sg28
I5650817
sg20
S'18617.8839319'
p285
sba(igraph
Edge
p286
(dp287
g7
I1
sg8
I00
sg9
I5
sg10
(lp288
(igraph
Vertex
p289
(dp290
g14
F0.014297729184188394
sg8
I00
sg15
g16
sg17
F-129.3955882352941
sg18
F-333.53153910849454
sg19
I5651564
sg20
S'18617.6070718'
p291
sg22
F0.17794117647058824
sba(igraph
Vertex
p292
(dp293
g14
F0.068217923558545904
sg8
I00
sg15
g16
sg17
F-129.3955882352941
sg18
F-282.73871600784975
sg19
I5651565
sg20
S'18617.6073805'
p294
sg22
F0.17794117647058824
sbasg26
I00
sg27
I00
sg28
I5650818
sg20
S'18617.8847985'
p295
sba(igraph
Edge
p296
(dp297
g7
I1
sg8
I00
sg9
I5
sg10
(lp298
g292
a(igraph
Vertex
p299
(dp300
g14
F0.12213811793290343
sg8
I00
sg15
g16
sg17
F-129.3955882352941
sg18
F-231.94589290720498
sg19
I5651566
sg20
S'18617.6076976'
p301
sg22
F0.17794117647058824
sbasg26
I00
sg27
I00
sg28
I5650819
sg20
S'18617.885726'
p302
sba(igraph
Edge
p303
(dp304
g7
I1
sg8
I00
sg9
I5
sg10
(lp305
g299
a(igraph
Vertex
p306
(dp307
g14
F0.17605831230726093
sg8
I00
sg15
g16
sg17
F-129.3955882352941
sg18
F-181.15306980656021
sg19
I5651567
sg20
S'18617.6081094'
p308
sg22
F0.17794117647058824
sbasg26
I00
sg27
I00
sg28
I5650820
sg20
S'18617.886644'
p309
sba(igraph
Edge
p310
(dp311
g7
I1
sg8
I00
sg9
I5
sg10
(lp312
g306
a(igraph
Vertex
p313
(dp314
g14
F0.22997850668161846
sg8
I00
sg15
g16
sg17
F-129.3955882352941
sg18
F-130.36024670591542
sg19
I5651568
sg20
S'18617.6084486'
p315
sg22
F0.17794117647058824
sbasg26
I00
sg27
I00
sg28
I5650821
sg20
S'18617.8875905'
p316
sba(igraph
Edge
p317
(dp318
g7
I1
sg8
I00
sg9
I5
sg10
(lp319
g313
a(igraph
Vertex
p320
(dp321
g14
F0.28389870105597598
sg8
I00
sg15
g16
sg17
F-129.3955882352941
sg18
F-79.567423605270619
sg19
I5651569
sg20
S'18617.6087925'
p322
sg22
F0.17794117647058824
sbasg26
I00
sg27
I00
sg28
I5650822
sg20
S'18617.8885445'
p323
sba(igraph
Edge
p324
(dp325
g7
I1
sg8
I00
sg9
I5
sg10
(lp326
g320
a(igraph
Vertex
p327
(dp328
g14
F0.3378188954303335
sg8
I00
sg15
g16
sg17
F-129.3955882352941
sg18
F-28.774600504625823
sg19
I5651570
sg20
S'18617.6091442'
p329
sg22
F0.17794117647058824
sbasg26
I00
sg27
I00
sg28
I5650823
sg20
S'18617.8895119'
p330
sba(igraph
Edge
p331
(dp332
g7
I1
sg8
I00
sg9
I5
sg10
(lp333
g327
a(igraph
Vertex
p334
(dp335
g14
F0.39173908980469108
sg8
I00
sg15
g16
sg17
F-129.3955882352941
sg18
F22.018222596018973
sg19
I5651571
sg20
S'18617.6095015'
p336
sg22
F0.17794117647058824
sbasg26
I00
sg27
I00
sg28
I5650824
sg20
S'18617.8904984'
p337
sba(igraph
Edge
p338
(dp339
g7
I1
sg8
I00
sg9
I5
sg10
(lp340
g334
a(igraph
Vertex
p341
(dp342
g14
F0.4456592841790486
sg8
I00
sg15
g16
sg17
F-129.3955882352941
sg18
F72.811045696663768
sg19
I5651572
sg20
S'18617.6098677'
p343
sg22
F0.17794117647058824
sbasg26
I00
sg27
I00
sg28
I5650825
sg20
S'18617.8915058'
p344
sba(igraph
Edge
p345
(dp346
g7
I1
sg8
I00
sg9
I5
sg10
(lp347
g341
a(igraph
Vertex
p348
(dp349
g14
F0.49957947855340623
sg8
I00
sg15
g16
sg17
F-129.3955882352941
sg18
F123.60386879730868
sg19
I5651573
sg20
S'18617.610239'
p350
sg22
F0.17794117647058824
sbasg26
I00
sg27
I00
sg28
I5650826
sg20
S'18617.8926137'
p351
sba(igraph
Edge
p352
(dp353
g7
I1
sg8
I00
sg9
I5
sg10
(lp354
g348
a(igraph
Vertex
p355
(dp356
g14
F0.5534996729277637
sg8
I00
sg15
g16
sg17
F-129.3955882352941
sg18
F174.39669189795336
sg19
I5651574
sg20
S'18617.6106206'
p357
sg22
F0.17794117647058824
sbasg26
I00
sg27
I00
sg28
I5650827
sg20
S'18617.8936703'
p358
sba(igraph
Edge
p359
(dp360
g7
I1
sg8
I00
sg9
I5
sg10
(lp361
g355
a(igraph
Vertex
p362
(dp363
g14
F0.60741986730212139
sg8
I00
sg15
g16
sg17
F-129.3955882352941
sg18
F225.18951499859838
sg19
I5651575
sg20
S'18617.6110109'
p364
sg22
F0.17794117647058824
sbasg26
I00
sg27
I00
sg28
I5650828
sg20
S'18617.894747'
p365
sba(igraph
Edge
p366
(dp367
g7
I1
sg8
I00
sg9
I5
sg10
(lp368
g362
a(igraph
Vertex
p369
(dp370
g14
F0.66134006167647874
sg8
I00
sg15
g16
sg17
F-129.3955882352941
sg18
F275.98233809924295
sg19
I5651576
sg20
S'18617.6114104'
p371
sg22
F0.17794117647058824
sbasg26
I00
sg27
I00
sg28
I5650829
sg20
S'18617.8958432'
p372
sba(igraph
Edge
p373
(dp374
g7
I1
sg8
I00
sg9
I5
sg10
(lp375
g369
a(igraph
Vertex
p376
(dp377
g14
F0.71526025605083643
sg8
I00
sg15
g16
sg17
F-129.3955882352941
sg18
F326.77516119988786
sg19
I5651577
sg20
S'18617.6118174'
p378
sg22
F0.17794117647058824
sbasg26
I00
sg27
I00
sg28
I5650830
sg20
S'18617.896962'
p379
sba(igraph
Edge
p380
(dp381
g7
I1
sg8
I00
sg9
I5
sg10
(lp382
g376
a(igraph
Vertex
p383
(dp384
g14
F0.76918045042519401
sg8
I01
sg15
I0
sg17
F-129.3955882352941
sg18
F377.56798430053277
sg19
I5651579
sg20
S'18617.6122317'
p385
sg22
F0.17794117647058824
sbasg26
I00
sg27
I00
sg28
I5650831
sg20
S'18617.8981175'
p386
sba(igraph
Edge
p387
(dp388
g7
I1
sg8
I00
sg9
I5
sg10
(lp389
g383
a(igraph
Vertex
p390
(dp391
g14
F0.82310064479955147
sg8
I00
sg15
g16
sg17
F-129.3955882352941
sg18
F428.36080740117745
sg19
I5651581
sg20
S'18617.6126544'
p392
sg22
F0.17794117647058824
sbasg26
I00
sg27
I00
sg28
I5650832
sg20
S'18617.8993964'
p393
sba(igraph
Edge
p394
(dp395
g7
I1
sg8
I00
sg9
I5
sg10
(lp396
g390
a(igraph
Vertex
p397
(dp398
g14
F0.87702083917390883
sg8
I00
sg15
g16
sg17
F-129.3955882352941
sg18
F479.15363050182214
sg19
I5651582
sg20
S'18617.613131'
p399
sg22
F0.17794117647058824
sbasg26
I00
sg27
I00
sg28
I5650833
sg20
S'18617.9005765'
p400
sba(igraph
Edge
p401
(dp402
g7
I1
sg8
I00
sg9
I5
sg10
(lp403
g397
a(igraph
Vertex
p404
(dp405
g14
F0.93094103354826652
sg8
I00
sg15
g16
sg17
F-129.3955882352941
sg18
F529.94645360246705
sg19
I5651583
sg20
S'18617.6135741'
p406
sg22
F0.17794117647058824
sbasg26
I00
sg27
I00
sg28
I5650834
sg20
S'18617.9017727'
p407
sba(igraph
Edge
p408
(dp409
g7
I1
sg8
I00
sg9
I5
sg10
(lp410
g404
a(igraph
Vertex
p411
(dp412
g14
F0.98486122792262409
sg8
I00
sg15
g16
sg17
F-129.3955882352941
sg18
F580.73927670311184
sg19
I5651584
sg20
S'18617.6140306'
p413
sg22
F0.17794117647058824
sbasg26
I00
sg27
I00
sg28
I5650835
sg20
S'18617.9029913'
p414
sba(igraph
Edge
p415
(dp416
g7
I1
sg8
I00
sg9
I5
sg10
(lp417
g411
ag289
asg26
I00
sg27
I00
sg28
I5650836
sg20
S'18617.9042591'
p418
sba(igraph
Edge
p419
(dp420
g7
I1
sg8
I00
sg9
I5
sg10
(lp421
(igraph
Vertex
p422
(dp423
g14
F0.014297729184188394
sg8
I00
sg15
g16
sg17
F-83.421691176470574
sg18
F-333.53153910849454
sg19
I5651585
sg20
S'18617.6144842'
p424
sg22
F0.2584558823529412
sba(igraph
Vertex
p425
(dp426
g14
F0.068217923558545904
sg8
I00
sg15
g16
sg17
F-83.421691176470574
sg18
F-282.73871600784975
sg19
I5651586
sg20
S'18617.61501'
p427
sg22
F0.2584558823529412
sbasg26
I00
sg27
I00
sg28
I5650837
sg20
S'18617.905538'
p428
sba(igraph
Edge
p429
(dp430
g7
I1
sg8
I00
sg9
I5
sg10
(lp431
g425
a(igraph
Vertex
p432
(dp433
g14
F0.12213811793290343
sg8
I00
sg15
g16
sg17
F-83.421691176470574
sg18
F-231.94589290720498
sg19
I5651587
sg20
S'18617.6154872'
p434
sg22
F0.2584558823529412
sbasg26
I00
sg27
I00
sg28
I5650838
sg20
S'18617.9068136'
p435
sba(igraph
Edge
p436
(dp437
g7
I1
sg8
I00
sg9
I5
sg10
(lp438
g432
a(igraph
Vertex
p439
(dp440
g14
F0.17605831230726093
sg8
I00
sg15
g16
sg17
F-83.421691176470574
sg18
F-181.15306980656021
sg19
I5651588
sg20
S'18617.6159668'
p441
sg22
F0.2584558823529412
sbasg26
I00
sg27
I00
sg28
I5650839
sg20
S'18617.9081115'
p442
sba(igraph
Edge
p443
(dp444
g7
I1
sg8
I00
sg9
I5
sg10
(lp445
g439
a(igraph
Vertex
p446
(dp447
g14
F0.22997850668161846
sg8
I00
sg15
g16
sg17
F-83.421691176470574
sg18
F-130.36024670591542
sg19
I5651589
sg20
S'18617.6164538'
p448
sg22
F0.2584558823529412
sbasg26
I00
sg27
I00
sg28
I5650840
sg20
S'18617.9094885'
p449
sba(igraph
Edge
p450
(dp451
g7
I1
sg8
I00
sg9
I5
sg10
(lp452
g446
a(igraph
Vertex
p453
(dp454
g14
F0.28389870105597598
sg8
I00
sg15
g16
sg17
F-83.421691176470574
sg18
F-79.567423605270619
sg19
I5651590
sg20
S'18617.616953'
p455
sg22
F0.2584558823529412
sbasg26
I00
sg27
I00
sg28
I5650841
sg20
S'18617.9109141'
p456
sba(igraph
Edge
p457
(dp458
g7
I1
sg8
I00
sg9
I5
sg10
(lp459
g453
a(igraph
Vertex
p460
(dp461
g14
F0.3378188954303335
sg8
I00
sg15
g16
sg17
F-83.421691176470574
sg18
F-28.774600504625823
sg19
I5651591
sg20
S'18617.6174572'
p462
sg22
F0.2584558823529412
sbasg26
I00
sg27
I00
sg28
I5650842
sg20
S'18617.9123028'
p463
sba(igraph
Edge
p464
(dp465
g7
I1
sg8
I00
sg9
I5
sg10
(lp466
g460
a(igraph
Vertex
p467
(dp468
g14
F0.39173908980469108
sg8
I00
sg15
g16
sg17
F-83.421691176470574
sg18
F22.018222596018973
sg19
I5651592
sg20
S'18617.6180487'
p469
sg22
F0.2584558823529412
sbasg26
I00
sg27
I00
sg28
I5650843
sg20
S'18617.913703'
p470
sba(igraph
Edge
p471
(dp472
g7
I1
sg8
I00
sg9
I5
sg10
(lp473
g467
a(igraph
Vertex
p474
(dp475
g14
F0.4456592841790486
sg8
I00
sg15
g16
sg17
F-83.421691176470574
sg18
F72.811045696663768
sg19
I5651593
sg20
S'18617.6185688'
p476
sg22
F0.2584558823529412
sbasg26
I00
sg27
I00
sg28
I5650844
sg20
S'18617.9150962'
p477
sba(igraph
Edge
p478
(dp479
g7
I1
sg8
I00
sg9
I5
sg10
(lp480
g474
a(igraph
Vertex
p481
(dp482
g14
F0.49957947855340623
sg8
I00
sg15
g16
sg17
F-83.421691176470574
sg18
F123.60386879730868
sg19
I5651594
sg20
S'18617.6190974'
p483
sg22
F0.2584558823529412
sbasg26
I00
sg27
I00
sg28
I5650845
sg20
S'18617.9165682'
p484
sba(igraph
Edge
p485
(dp486
g7
I1
sg8
I00
sg9
I5
sg10
(lp487
g481
a(igraph
Vertex
p488
(dp489
g14
F0.5534996729277637
sg8
I00
sg15
g16
sg17
F-83.421691176470574
sg18
F174.39669189795336
sg19
I5651595
sg20
S'18617.6196335'
p490
sg22
F0.2584558823529412
sbasg26
I00
sg27
I00
sg28
I5650846
sg20
S'18617.9180234'
p491
sba(igraph
Edge
p492
(dp493
g7
I1
sg8
I00
sg9
I5
sg10
(lp494
g488
a(igraph
Vertex
p495
(dp496
g14
F0.60741986730212139
sg8
I00
sg15
g16
sg17
F-83.421691176470574
sg18
F225.18951499859838
sg19
I5651596
sg20
S'18617.6201794'
p497
sg22
F0.2584558823529412
sbasg26
I00
sg27
I00
sg28
I5650847
sg20
S'18617.9194995'
p498
sba(igraph
Edge
p499
(dp500
g7
I1
sg8
I00
sg9
I5
sg10
(lp501
g495
a(igraph
Vertex
p502
(dp503
g14
F0.66134006167647874
sg8
I01
sg15
I0
sg17
F-83.421691176470574
sg18
F275.98233809924295
sg19
I5651598
sg20
S'18617.6207658'
p504
sg22
F0.2584558823529412
sbasg26
I00
sg27
I00
sg28
I5650848
sg20
S'18617.9210581'
p505
sba(igraph
Edge
p506
(dp507
g7
I1
sg8
I00
sg9
I5
sg10
(lp508
g502
a(igraph
Vertex
p509
(dp510
g14
F0.71526025605083643
sg8
I00
sg15
g16
sg17
F-83.421691176470574
sg18
F326.77516119988786
sg19
I5651600
sg20
S'18617.6213309'
p511
sg22
F0.2584558823529412
sbasg26
I00
sg27
I00
sg28
I5650849
sg20
S'18617.9225988'
p512
sba(igraph
Edge
p513
(dp514
g7
I1
sg8
I00
sg9
I5
sg10
(lp515
g509
a(igraph
Vertex
p516
(dp517
g14
F0.76918045042519401
sg8
I00
sg15
g16
sg17
F-83.421691176470574
sg18
F377.56798430053277
sg19
I5651601
sg20
S'18617.6219045'
p518
sg22
F0.2584558823529412
sbasg26
I00
sg27
I00
sg28
I5650850
sg20
S'18617.9241239'
p519
sba(igraph
Edge
p520
(dp521
g7
I1
sg8
I00
sg9
I5
sg10
(lp522
g516
a(igraph
Vertex
p523
(dp524
g14
F0.82310064479955147
sg8
I00
sg15
g16
sg17
F-83.421691176470574
sg18
F428.36080740117745
sg19
I5651602
sg20
S'18617.622483'
p525
sg22
F0.2584558823529412
sbasg26
I00
sg27
I00
sg28
I5650851
sg20
S'18617.9256724'
p526
sba(igraph
Edge
p527
(dp528
g7
I1
sg8
I00
sg9
I5
sg10
(lp529
g523
a(igraph
Vertex
p530
(dp531
g14
F0.87702083917390883
sg8
I00
sg15
g16
sg17
F-83.421691176470574
sg18
F479.15363050182214
sg19
I5651603
sg20
S'18617.6230694'
p532
sg22
F0.2584558823529412
sbasg26
I00
sg27
I00
sg28
I5650852
sg20
S'18617.9272544'
p533
sba(igraph
Edge
p534
(dp535
g7
I1
sg8
I00
sg9
I5
sg10
(lp536
g530
a(igraph
Vertex
p537
(dp538
g14
F0.93094103354826652
sg8
I00
sg15
g16
sg17
F-83.421691176470574
sg18
F529.94645360246705
sg19
I5651604
sg20
S'18617.6236678'
p539
sg22
F0.2584558823529412
sbasg26
I00
sg27
I00
sg28
I5650853
sg20
S'18617.9289013'
p540
sba(igraph
Edge
p541
(dp542
g7
I1
sg8
I00
sg9
I5
sg10
(lp543
g537
a(igraph
Vertex
p544
(dp545
g14
F0.98486122792262409
sg8
I00
sg15
g16
sg17
F-83.421691176470574
sg18
F580.73927670311184
sg19
I5651605
sg20
S'18617.6243056'
p546
sg22
F0.2584558823529412
sbasg26
I00
sg27
I00
sg28
I5650854
sg20
S'18617.9305387'
p547
sba(igraph
Edge
p548
(dp549
g7
I1
sg8
I01
sg9
I5
sg10
(lp550
g544
ag422
asg26
I00
sg27
I00
sg28
I5650856
sg20
S'18617.9322565'
p551
sba(igraph
Edge
p552
(dp553
g7
I1
sg8
I00
sg9
I5
sg10
(lp554
(igraph
Vertex
p555
(dp556
g14
F0.014297729184188394
sg8
I00
sg15
g16
sg17
F-37.447794117647049
sg18
F-333.53153910849454
sg19
I5651606
sg20
S'18617.6249205'
p557
sg22
F0.33897058823529413
sba(igraph
Vertex
p558
(dp559
g14
F0.068217923558545904
sg8
I00
sg15
g16
sg17
F-37.447794117647049
sg18
F-282.73871600784975
sg19
I5651607
sg20
S'18617.6255451'
p560
sg22
F0.33897058823529413
sbasg26
I00
sg27
I00
sg28
I5650857
sg20
S'18617.93396'
p561
sba(igraph
Edge
p562
(dp563
g7
I1
sg8
I00
sg9
I5
sg10
(lp564
g558
a(igraph
Vertex
p565
(dp566
g14
F0.12213811793290343
sg8
I00
sg15
g16
sg17
F-37.447794117647049
sg18
F-231.94589290720498
sg19
I5651608
sg20
S'18617.6261723'
p567
sg22
F0.33897058823529413
sbasg26
I00
sg27
I00
sg28
I5650858
sg20
S'18617.9356558'
p568
sba(igraph
Edge
p569
(dp570
g7
I1
sg8
I00
sg9
I5
sg10
(lp571
g565
a(igraph
Vertex
p572
(dp573
g14
F0.17605831230726093
sg8
I00
sg15
g16
sg17
F-37.447794117647049
sg18
F-181.15306980656021
sg19
I5651609
sg20
S'18617.6268112'
p574
sg22
F0.33897058823529413
sbasg26
I00
sg27
I00
sg28
I5650859
sg20
S'18617.9373957'
p575
sba(igraph
Edge
p576
(dp577
g7
I1
sg8
I00
sg9
I5
sg10
(lp578
g572
a(igraph
Vertex
p579
(dp580
g14
F0.22997850668161846
sg8
I00
sg15
g16
sg17
F-37.447794117647049
sg18
F-130.36024670591542
sg19
I5651610
sg20
S'18617.627458'
p581
sg22
F0.33897058823529413
sbasg26
I00
sg27
I00
sg28
I5650860
sg20
S'18617.9391872'
p582
sba(igraph
Edge
p583
(dp584
g7
I1
sg8
I00
sg9
I5
sg10
(lp585
g579
a(igraph
Vertex
p586
(dp587
g14
F0.28389870105597598
sg8
I00
sg15
g16
sg17
F-37.447794117647049
sg18
F-79.567423605270619
sg19
I5651611
sg20
S'18617.62811'
p588
sg22
F0.33897058823529413
sbasg26
I00
sg27
I00
sg28
I5650861
sg20
S'18617.9410067'
p589
sba(igraph
Edge
p590
(dp591
g7
I1
sg8
I00
sg9
I5
sg10
(lp592
g586
a(igraph
Vertex
p593
(dp594
g14
F0.3378188954303335
sg8
I00
sg15
g16
sg17
F-37.447794117647049
sg18
F-28.774600504625823
sg19
I5651612
sg20
S'18617.628802'
p595
sg22
F0.33897058823529413
sbasg26
I00
sg27
I00
sg28
I5650862
sg20
S'18617.9427888'
p596
sba(igraph
Edge
p597
(dp598
g7
I1
sg8
I00
sg9
I5
sg10
(lp599
g593
a(igraph
Vertex
p600
(dp601
g14
F0.39173908980469108
sg8
I00
sg15
g16
sg17
F-37.447794117647049
sg18
F22.018222596018973
sg19
I5651613
sg20
S'18617.6294772'
p602
sg22
F0.33897058823529413
sbasg26
I00
sg27
I00
sg28
I5650863
sg20
S'18617.9445877'
p603
sba(igraph
Edge
p604
(dp605
g7
I1
sg8
I00
sg9
I5
sg10
(lp606
g600
a(igraph
Vertex
p607
(dp608
g14
F0.4456592841790486
sg8
I00
sg15
g16
sg17
F-37.447794117647049
sg18
F72.811045696663768
sg19
I5651614
sg20
S'18617.6301594'
p609
sg22
F0.33897058823529413
sbasg26
I00
sg27
I00
sg28
I5650864
sg20
S'18617.9464189'
p610
sba(igraph
Edge
p611
(dp612
g7
I1
sg8
I00
sg9
I5
sg10
(lp613
g607
a(igraph
Vertex
p614
(dp615
g14
F0.49957947855340623
sg8
I00
sg15
g16
sg17
F-37.447794117647049
sg18
F123.60386879730868
sg19
I5651615
sg20
S'18617.6308492'
p616
sg22
F0.33897058823529413
sbasg26
I00
sg27
I00
sg28
I5650865
sg20
S'18617.9483155'
p617
sba(igraph
Edge
p618
(dp619
g7
I1
sg8
I00
sg9
I5
sg10
(lp620
g614
a(igraph
Vertex
p621
(dp622
g14
F0.5534996729277637
sg8
I01
sg15
I0
sg17
F-37.447794117647049
sg18
F174.39669189795336
sg19
I5651617
sg20
S'18617.6315562'
p623
sg22
F0.33897058823529413
sbasg26
I00
sg27
I00
sg28
I5650866
sg20
S'18617.9501828'
p624
sba(igraph
Edge
p625
(dp626
g7
I1
sg8
I00
sg9
I5
sg10
(lp627
g621
a(igraph
Vertex
p628
(dp629
g14
F0.60741986730212139
sg8
I00
sg15
g16
sg17
F-37.447794117647049
sg18
F225.18951499859838
sg19
I5651619
sg20
S'18617.6322636'
p630
sg22
F0.33897058823529413
sbasg26
I00
sg27
I00
sg28
I5650867
sg20
S'18617.952054'
p631
sba(igraph
Edge
p632
(dp633
g7
I1
sg8
I00
sg9
I5
sg10
(lp634
g628
a(igraph
Vertex
p635
(dp636
g14
F0.66134006167647874
sg8
I00
sg15
g16
sg17
F-37.447794117647049
sg18
F275.98233809924295
sg19
I5651620
sg20
S'18617.6330673'
p637
sg22
F0.33897058823529413
sbasg26
I00
sg27
I00
sg28
I5650868
sg20
S'18617.9539578'
p638
sba(igraph
Edge
p639
(dp640
g7
I1
sg8
I00
sg9
I5
sg10
(lp641
g635
a(igraph
Vertex
p642
(dp643
g14
F0.71526025605083643
sg8
I01
sg15
I0
sg17
F-37.447794117647049
sg18
F326.77516119988786
sg19
I5651622
sg20
S'18617.6337914'
p644
sg22
F0.33897058823529413
sbasg26
I00
sg27
I00
sg28
I5650869
sg20
S'18617.9558997'
p645
sba(igraph
Edge
p646
(dp647
g7
I1
sg8
I00
sg9
I5
sg10
(lp648
g642
a(igraph
Vertex
p649
(dp650
g14
F0.76918045042519401
sg8
I00
sg15
g16
sg17
F-37.447794117647049
sg18
F377.56798430053277
sg19
I5651624
sg20
S'18617.6345231'
p651
sg22
F0.33897058823529413
sbasg26
I00
sg27
I00
sg28
I5650870
sg20
S'18617.9578798'
p652
sba(igraph
Edge
p653
(dp654
g7
I1
sg8
I00
sg9
I5
sg10
(lp655
g649
a(igraph
Vertex
p656
(dp657
g14
F0.82310064479955147
sg8
I00
sg15
g16
sg17
F-37.447794117647049
sg18
F428.36080740117745
sg19
I5651625
sg20
S'18617.6352629'
p658
sg22
F0.33897058823529413
sbasg26
I00
sg27
I00
sg28
I5650871
sg20
S'18617.9598633'
p659
sba(igraph
Edge
p660
(dp661
g7
I1
sg8
I00
sg9
I5
sg10
(lp662
g656
a(igraph
Vertex
p663
(dp664
g14
F0.87702083917390883
sg8
I00
sg15
g16
sg17
F-37.447794117647049
sg18
F479.15363050182214
sg19
I5651626
sg20
S'18617.6360085'
p665
sg22
F0.33897058823529413
sbasg26
I00
sg27
I00
sg28
I5650872
sg20
S'18617.9618873'
p666
sba(igraph
Edge
p667
(dp668
g7
I1
sg8
I00
sg9
I5
sg10
(lp669
g663
a(igraph
Vertex
p670
(dp671
g14
F0.93094103354826652
sg8
I00
sg15
g16
sg17
F-37.447794117647049
sg18
F529.94645360246705
sg19
I5651627
sg20
S'18617.6368307'
p672
sg22
F0.33897058823529413
sbasg26
I00
sg27
I00
sg28
I5650873
sg20
S'18617.9639189'
p673
sba(igraph
Edge
p674
(dp675
g7
I1
sg8
I00
sg9
I5
sg10
(lp676
g670
a(igraph
Vertex
p677
(dp678
g14
F0.98486122792262409
sg8
I00
sg15
g16
sg17
F-37.447794117647049
sg18
F580.73927670311184
sg19
I5651628
sg20
S'18617.6375998'
p679
sg22
F0.33897058823529413
sbasg26
I00
sg27
I00
sg28
I5650874
sg20
S'18617.96598'
p680
sba(igraph
Edge
p681
(dp682
g7
I1
sg8
I00
sg9
I5
sg10
(lp683
g677
ag555
asg26
I00
sg27
I00
sg28
I5650875
sg20
S'18617.9680633'
p684
sba(igraph
Edge
p685
(dp686
g7
I1
sg8
I00
sg9
I5
sg10
(lp687
(igraph
Vertex
p688
(dp689
g14
F0.014297729184188394
sg8
I00
sg15
g16
sg17
F8.5261029411764753
sg18
F-333.53153910849454
sg19
I5651629
sg20
S'18617.6384021'
p690
sg22
F0.41948529411764707
sba(igraph
Vertex
p691
(dp692
g14
F0.068217923558545904
sg8
I00
sg15
g16
sg17
F8.5261029411764753
sg18
F-282.73871600784975
sg19
I5651630
sg20
S'18617.6391846'
p693
sg22
F0.41948529411764707
sbasg26
I00
sg27
I00
sg28
I5650876
sg20
S'18617.9702001'
p694
sba(igraph
Edge
p695
(dp696
g7
I1
sg8
I00
sg9
I5
sg10
(lp697
g691
a(igraph
Vertex
p698
(dp699
g14
F0.12213811793290343
sg8
I00
sg15
g16
sg17
F8.5261029411764753
sg18
F-231.94589290720498
sg19
I5651631
sg20
S'18617.6399738'
p700
sg22
F0.41948529411764707
sbasg26
I00
sg27
I00
sg28
I5650877
sg20
S'18617.9723029'
p701
sba(igraph
Edge
p702
(dp703
g7
I1
sg8
I00
sg9
I5
sg10
(lp704
g698
a(igraph
Vertex
p705
(dp706
g14
F0.17605831230726093
sg8
I00
sg15
g16
sg17
F8.5261029411764753
sg18
F-181.15306980656021
sg19
I5651632
sg20
S'18617.6409468'
p707
sg22
F0.41948529411764707
sbasg26
I00
sg27
I00
sg28
I5650878
sg20
S'18617.9744669'
p708
sba(igraph
Edge
p709
(dp710
g7
I1
sg8
I00
sg9
I5
sg10
(lp711
g705
a(igraph
Vertex
p712
(dp713
g14
F0.22997850668161846
sg8
I00
sg15
g16
sg17
F8.5261029411764753
sg18
F-130.36024670591542
sg19
I5651633
sg20
S'18617.6417592'
p714
sg22
F0.41948529411764707
sbasg26
I00
sg27
I00
sg28
I5650879
sg20
S'18617.9766292'
p715
sba(igraph
Edge
p716
(dp717
g7
I1
sg8
I00
sg9
I5
sg10
(lp718
g712
a(igraph
Vertex
p719
(dp720
g14
F0.28389870105597598
sg8
I00
sg15
g16
sg17
F8.5261029411764753
sg18
F-79.567423605270619
sg19
I5651634
sg20
S'18617.6425778'
p721
sg22
F0.41948529411764707
sbasg26
I00
sg27
I00
sg28
I5650880
sg20
S'18617.9787797'
p722
sba(igraph
Edge
p723
(dp724
g7
I1
sg8
I00
sg9
I5
sg10
(lp725
g719
a(igraph
Vertex
p726
(dp727
g14
F0.3378188954303335
sg8
I00
sg15
g16
sg17
F8.5261029411764753
sg18
F-28.774600504625823
sg19
I5651635
sg20
S'18617.6434041'
p728
sg22
F0.41948529411764707
sbasg26
I00
sg27
I00
sg28
I5650881
sg20
S'18617.9809889'
p729
sba(igraph
Edge
p730
(dp731
g7
I1
sg8
I00
sg9
I5
sg10
(lp732
g726
a(igraph
Vertex
p733
(dp734
g14
F0.39173908980469108
sg8
I00
sg15
g16
sg17
F8.5261029411764753
sg18
F22.018222596018973
sg19
I5651636
sg20
S'18617.6442403'
p735
sg22
F0.41948529411764707
sbasg26
I00
sg27
I00
sg28
I5650882
sg20
S'18617.9832062'
p736
sba(igraph
Edge
p737
(dp738
g7
I1
sg8
I00
sg9
I5
sg10
(lp739
g733
a(igraph
Vertex
p740
(dp741
g14
F0.4456592841790486
sg8
I01
sg15
I0
sg17
F8.5261029411764753
sg18
F72.811045696663768
sg19
I5651638
sg20
S'18617.6450834'
p742
sg22
F0.41948529411764707
sbasg26
I00
sg27
I00
sg28
I5650883
sg20
S'18617.9854926'
p743
sba(igraph
Edge
p744
(dp745
g7
I1
sg8
I00
sg9
I5
sg10
(lp746
g740
a(igraph
Vertex
p747
(dp748
g14
F0.49957947855340623
sg8
I00
sg15
g16
sg17
F8.5261029411764753
sg18
F123.60386879730868
sg19
I5651640
sg20
S'18617.6459335'
p749
sg22
F0.41948529411764707
sbasg26
I00
sg27
I00
sg28
I5650884
sg20
S'18617.9877317'
p750
sba(igraph
Edge
p751
(dp752
g7
I1
sg8
I00
sg9
I5
sg10
(lp753
g747
a(igraph
Vertex
p754
(dp755
g14
F0.5534996729277637
sg8
I00
sg15
g16
sg17
F8.5261029411764753
sg18
F174.39669189795336
sg19
I5651641
sg20
S'18617.6467984'
p756
sg22
F0.41948529411764707
sbasg26
I00
sg27
I00
sg28
I5650885
sg20
S'18617.9899998'
p757
sba(igraph
Edge
p758
(dp759
g7
I1
sg8
I00
sg9
I5
sg10
(lp760
g754
a(igraph
Vertex
p761
(dp762
g14
F0.60741986730212139
sg8
I00
sg15
g16
sg17
F8.5261029411764753
sg18
F225.18951499859838
sg19
I5651642
sg20
S'18617.6476672'
p763
sg22
F0.41948529411764707
sbasg26
I00
sg27
I00
sg28
I5650886
sg20
S'18617.9922867'
p764
sba(igraph
Edge
p765
(dp766
g7
I1
sg8
I00
sg9
I5
sg10
(lp767
g761
a(igraph
Vertex
p768
(dp769
g14
F0.66134006167647874
sg8
I00
sg15
g16
sg17
F8.5261029411764753
sg18
F275.98233809924295
sg19
I5651643
sg20
S'18617.6485425'
p770
sg22
F0.41948529411764707
sbasg26
I00
sg27
I00
sg28
I5650887
sg20
S'18617.9947256'
p771
sba(igraph
Edge
p772
(dp773
g7
I1
sg8
I00
sg9
I5
sg10
(lp774
g768
a(igraph
Vertex
p775
(dp776
g14
F0.71526025605083643
sg8
I00
sg15
g16
sg17
F8.5261029411764753
sg18
F326.77516119988786
sg19
I5651644
sg20
S'18617.6494644'
p777
sg22
F0.41948529411764707
sbasg26
I00
sg27
I00
sg28
I5650888
sg20
S'18617.9971401'
p778
sba(igraph
Edge
p779
(dp780
g7
I1
sg8
I00
sg9
I5
sg10
(lp781
g775
a(igraph
Vertex
p782
(dp783
g14
F0.76918045042519401
sg8
I00
sg15
g16
sg17
F8.5261029411764753
sg18
F377.56798430053277
sg19
I5651645
sg20
S'18617.6503603'
p784
sg22
F0.41948529411764707
sbasg26
I00
sg27
I00
sg28
I5650889
sg20
S'18617.999491'
p785
sba(igraph
Edge
p786
(dp787
g7
I1
sg8
I00
sg9
I5
sg10
(lp788
g782
a(igraph
Vertex
p789
(dp790
g14
F0.82310064479955147
sg8
I00
sg15
g16
sg17
F8.5261029411764753
sg18
F428.36080740117745
sg19
I5651646
sg20
S'18617.6512652'
p791
sg22
F0.41948529411764707
sbasg26
I00
sg27
I00
sg28
I5650890
sg20
S'18618.0019533'
p792
sba(igraph
Edge
p793
(dp794
g7
I1
sg8
I00
sg9
I5
sg10
(lp795
g789
a(igraph
Vertex
p796
(dp797
g14
F0.87702083917390883
sg8
I00
sg15
g16
sg17
F8.5261029411764753
sg18
F479.15363050182214
sg19
I5651647
sg20
S'18617.6521767'
p798
sg22
F0.41948529411764707
sbasg26
I00
sg27
I00
sg28
I5650891
sg20
S'18618.0043413'
p799
sba(igraph
Edge
p800
(dp801
g7
I1
sg8
I00
sg9
I5
sg10
(lp802
g796
a(igraph
Vertex
p803
(dp804
g14
F0.93094103354826652
sg8
I00
sg15
g16
sg17
F8.5261029411764753
sg18
F529.94645360246705
sg19
I5651648
sg20
S'18617.6531123'
p805
sg22
F0.41948529411764707
sbasg26
I00
sg27
I00
sg28
I5650892
sg20
S'18618.0067729'
p806
sba(igraph
Edge
p807
(dp808
g7
I1
sg8
I00
sg9
I5
sg10
(lp809
g803
a(igraph
Vertex
p810
(dp811
g14
F0.98486122792262409
sg8
I00
sg15
g16
sg17
F8.5261029411764753
sg18
F580.73927670311184
sg19
I5651649
sg20
S'18617.6541027'
p812
sg22
F0.41948529411764707
sbasg26
I00
sg27
I00
sg28
I5650893
sg20
S'18618.0094208'
p813
sba(igraph
Edge
p814
(dp815
g7
I1
sg8
I00
sg9
I5
sg10
(lp816
g810
ag688
asg26
I00
sg27
I00
sg28
I5650894
sg20
S'18618.0120258'
p817
sba(igraph
Edge
p818
(dp819
g7
I1
sg8
I00
sg9
I5
sg10
(lp820
(igraph
Vertex
p821
(dp822
g14
F0.014297729184188394
sg8
I00
sg15
g16
sg17
F54.5
sg18
F-333.53153910849454
sg19
I5651650
sg20
S'18617.6550623'
p823
sg22
F0.5
sba(igraph
Vertex
p824
(dp825
g14
F0.068217923558545904
sg8
I00
sg15
g16
sg17
F54.5
sg18
F-282.73871600784975
sg19
I5651651
sg20
S'18617.6560205'
p826
sg22
F0.5
sbasg26
I00
sg27
I00
sg28
I5650895
sg20
S'18618.014537'
p827
sba(igraph
Edge
p828
(dp829
g7
I1
sg8
I00
sg9
I5
sg10
(lp830
g824
a(igraph
Vertex
p831
(dp832
g14
F0.12213811793290343
sg8
I00
sg15
g16
sg17
F54.5
sg18
F-231.94589290720498
sg19
I5651652
sg20
S'18617.6570505'
p833
sg22
F0.5
sbasg26
I00
sg27
I00
sg28
I5650896
sg20
S'18618.0171161'
p834
sba(igraph
Edge
p835
(dp836
g7
I1
sg8
I00
sg9
I5
sg10
(lp837
g831
a(igraph
Vertex
p838
(dp839
g14
F0.17605831230726093
sg8
I00
sg15
g16
sg17
F54.5
sg18
F-181.15306980656021
sg19
I5651653
sg20
S'18617.6580149'
p840
sg22
F0.5
sbasg26
I00
sg27
I00
sg28
I5650897
sg20
S'18618.01965'
p841
sba(igraph
Edge
p842
(dp843
g7
I1
sg8
I00
sg9
I5
sg10
(lp844
g838
a(igraph
Vertex
p845
(dp846
g14
F0.22997850668161846
sg8
I00
sg15
g16
sg17
F54.5
sg18
F-130.36024670591542
sg19
I5651654
sg20
S'18617.6589865'
p847
sg22
F0.5
sbasg26
I00
sg27
I00
sg28
I5650898
sg20
S'18618.0222959'
p848
sba(igraph
Edge
p849
(dp850
g7
I1
sg8
I00
sg9
I5
sg10
(lp851
g845
a(igraph
Vertex
p852
(dp853
g14
F0.28389870105597598
sg8
I00
sg15
g16
sg17
F54.5
sg18
F-79.567423605270619
sg19
I5651655
sg20
S'18617.660354'
p854
sg22
F0.5
sbasg26
I00
sg27
I00
sg28
I5650899
sg20
S'18618.0249342'
p855
sba(igraph
Edge
p856
(dp857
g7
I1
sg8
I00
sg9
I5
sg10
(lp858
g852
a(igraph
Vertex
p859
(dp860
g14
F0.3378188954303335
sg8
I00
sg15
g16
sg17
F54.5
sg18
F-28.774600504625823
sg19
I5651656
sg20
S'18617.6613785'
p861
sg22
F0.5
sbasg26
I00
sg27
I00
sg28
I5650900
sg20
S'18618.0275205'
p862
sba(igraph
Edge
p863
(dp864
g7
I1
sg8
I00
sg9
I5
sg10
(lp865
g859
a(igraph
Vertex
p866
(dp867
g14
F0.39173908980469108
sg8
I00
sg15
g16
sg17
F54.5
sg18
F22.018222596018973
sg19
I5651657
sg20
S'18617.662385'
p868
sg22
F0.5
sbasg26
I00
sg27
I00
sg28
I5650901
sg20
S'18618.0311115'
p869
sba(igraph
Edge
p870
(dp871
g7
I1
sg8
I00
sg9
I5
sg10
(lp872
g866
a(igraph
Vertex
p873
(dp874
g14
F0.4456592841790486
sg8
I00
sg15
g16
sg17
F54.5
sg18
F72.811045696663768
sg19
I5651658
sg20
S'18617.6633963'
p875
sg22
F0.5
sbasg26
I00
sg27
I00
sg28
I5650902
sg20
S'18618.0338236'
p876
sba(igraph
Edge
p877
(dp878
g7
I1
sg8
I00
sg9
I5
sg10
(lp879
g873
a(igraph
Vertex
p880
(dp881
g14
F0.49957947855340623
sg8
I00
sg15
g16
sg17
F54.5
sg18
F123.60386879730868
sg19
I5651659
sg20
S'18617.6644113'
p882
sg22
F0.5
sbasg26
I00
sg27
I00
sg28
I5650903
sg20
S'18618.0365063'
p883
sba(igraph
Edge
p884
(dp885
g7
I1
sg8
I00
sg9
I5
sg10
(lp886
g880
a(igraph
Vertex
p887
(dp888
g14
F0.5534996729277637
sg8
I00
sg15
g16
sg17
F54.5
sg18
F174.39669189795336
sg19
I5651660
sg20
S'18617.6654544'
p889
sg22
F0.5
sbasg26
I00
sg27
I00
sg28
I5650904
sg20
S'18618.0392122'
p890
sba(igraph
Edge
p891
(dp892
g7
I1
sg8
I00
sg9
I5
sg10
(lp893
g887
a(igraph
Vertex
p894
(dp895
g14
F0.60741986730212139
sg8
I00
sg15
g16
sg17
F54.5
sg18
F225.18951499859838
sg19
I5651661
sg20
S'18617.6665501'
p896
sg22
F0.5
sbasg26
I00
sg27
I00
sg28
I5650905
sg20
S'18618.0422045'
p897
sba(igraph
Edge
p898
(dp899
g7
I1
sg8
I00
sg9
I5
sg10
(lp900
g894
a(igraph
Vertex
p901
(dp902
g14
F0.66134006167647874
sg8
I00
sg15
g16
sg17
F54.5
sg18
F275.98233809924295
sg19
I5651662
sg20
S'18617.6675949'
p903
sg22
F0.5
sbasg26
I00
sg27
I00
sg28
I5650906
sg20
S'18618.045032'
p904
sba(igraph
Edge
p905
(dp906
g7
I1
sg8
I00
sg9
I5
sg10
(lp907
g901
a(igraph
Vertex
p908
(dp909
g14
F0.71526025605083643
sg8
I00
sg15
g16
sg17
F54.5
sg18
F326.77516119988786
sg19
I5651663
sg20
S'18617.6686629'
p910
sg22
F0.5
sbasg26
I00
sg27
I00
sg28
I5650907
sg20
S'18618.0477969'
p911
sba(igraph
Edge
p912
(dp913
g7
I1
sg8
I00
sg9
I5
sg10
(lp914
g908
a(igraph
Vertex
p915
(dp916
g14
F0.76918045042519401
sg8
I00
sg15
g16
sg17
F54.5
sg18
F377.56798430053277
sg19
I5651664
sg20
S'18617.6697295'
p917
sg22
F0.5
sbasg26
I00
sg27
I00
sg28
I5650908
sg20
S'18618.0506631'
p918
sba(igraph
Edge
p919
(dp920
g7
I1
sg8
I00
sg9
I5
sg10
(lp921
g915
a(igraph
Vertex
p922
(dp923
g14
F0.82310064479955147
sg8
I00
sg15
g16
sg17
F54.5
sg18
F428.36080740117745
sg19
I5651665
sg20
S'18617.6708026'
p924
sg22
F0.5
sbasg26
I00
sg27
I00
sg28
I5650909
sg20
S'18618.0535216'
p925
sba(igraph
Edge
p926
(dp927
g7
I1
sg8
I00
sg9
I5
sg10
(lp928
g922
a(igraph
Vertex
p929
(dp930
g14
F0.87702083917390883
sg8
I00
sg15
g16
sg17
F54.5
sg18
F479.15363050182214
sg19
I5651666
sg20
S'18617.6719128'
p931
sg22
F0.5
sbasg26
I00
sg27
I00
sg28
I5650910
sg20
S'18618.0564169'
p932
sba(igraph
Edge
p933
(dp934
g7
I1
sg8
I00
sg9
I5
sg10
(lp935
g929
a(igraph
Vertex
p936
(dp937
g14
F0.93094103354826652
sg8
I00
sg15
g16
sg17
F54.5
sg18
F529.94645360246705
sg19
I5651667
sg20
S'18617.6730503'
p938
sg22
F0.5
sbasg26
I00
sg27
I00
sg28
I5650911
sg20
S'18618.0592799'
p939
sba(igraph
Edge
p940
(dp941
g7
I1
sg8
I00
sg9
I5
sg10
(lp942
g936
a(igraph
Vertex
p943
(dp944
g14
F0.98486122792262409
sg8
I00
sg15
g16
sg17
F54.5
sg18
F580.73927670311184
sg19
I5651668
sg20
S'18617.6741927'
p945
sg22
F0.5
sbasg26
I00
sg27
I00
sg28
I5650912
sg20
S'18618.0621411'
p946
sba(igraph
Edge
p947
(dp948
g7
I1
sg8
I00
sg9
I5
sg10
(lp949
g943
ag821
asg26
I00
sg27
I00
sg28
I5650913
sg20
S'18618.0650158'
p950
sba(igraph
Edge
p951
(dp952
g7
I1
sg8
I00
sg9
I5
sg10
(lp953
(igraph
Vertex
p954
(dp955
g14
F0.014297729184188394
sg8
I00
sg15
g16
sg17
F100.47389705882358
sg18
F-333.53153910849454
sg19
I5651669
sg20
S'18617.6753034'
p956
sg22
F0.58051470588235299
sba(igraph
Vertex
p957
(dp958
g14
F0.068217923558545904
sg8
I00
sg15
g16
sg17
F100.47389705882358
sg18
F-282.73871600784975
sg19
I5651670
sg20
S'18617.6764385'
p959
sg22
F0.58051470588235299
sbasg26
I00
sg27
I00
sg28
I5650914
sg20
S'18618.0679592'
p960
sba(igraph
Edge
p961
(dp962
g7
I1
sg8
I00
sg9
I5
sg10
(lp963
g957
a(igraph
Vertex
p964
(dp965
g14
F0.12213811793290343
sg8
I00
sg15
g16
sg17
F100.47389705882358
sg18
F-231.94589290720498
sg19
I5651671
sg20
S'18617.677561'
p966
sg22
F0.58051470588235299
sbasg26
I00
sg27
I00
sg28
I5650915
sg20
S'18618.0711197'
p967
sba(igraph
Edge
p968
(dp969
g7
I1
sg8
I00
sg9
I5
sg10
(lp970
g964
a(igraph
Vertex
p971
(dp972
g14
F0.17605831230726093
sg8
I00
sg15
g16
sg17
F100.47389705882358
sg18
F-181.15306980656021
sg19
I5651672
sg20
S'18617.6786941'
p973
sg22
F0.58051470588235299
sbasg26
I00
sg27
I00
sg28
I5650916
sg20
S'18618.0740941'
p974
sba(igraph
Edge
p975
(dp976
g7
I1
sg8
I00
sg9
I5
sg10
(lp977
g971
a(igraph
Vertex
p978
(dp979
g14
F0.22997850668161846
sg8
I00
sg15
g16
sg17
F100.47389705882358
sg18
F-130.36024670591542
sg19
I5651673
sg20
S'18617.6798384'
p980
sg22
F0.58051470588235299
sbasg26
I00
sg27
I00
sg28
I5650917
sg20
S'18618.0771'
p981
sba(igraph
Edge
p982
(dp983
g7
I1
sg8
I00
sg9
I5
sg10
(lp984
g978
a(igraph
Vertex
p985
(dp986
g14
F0.28389870105597598
sg8
I00
sg15
g16
sg17
F100.47389705882358
sg18
F-79.567423605270619
sg19
I5651674
sg20
S'18617.6810178'
p987
sg22
F0.58051470588235299
sbasg26
I00
sg27
I00
sg28
I5650918
sg20
S'18618.0802912'
p988
sba(igraph
Edge
p989
(dp990
g7
I1
sg8
I00
sg9
I5
sg10
(lp991
g985
a(igraph
Vertex
p992
(dp993
g14
F0.3378188954303335
sg8
I00
sg15
g16
sg17
F100.47389705882358
sg18
F-28.774600504625823
sg19
I5651675
sg20
S'18617.6822697'
p994
sg22
F0.58051470588235299
sbasg26
I00
sg27
I00
sg28
I5650919
sg20
S'18618.0833528'
p995
sba(igraph
Edge
p996
(dp997
g7
I1
sg8
I00
sg9
I5
sg10
(lp998
g992
a(igraph
Vertex
p999
(dp1000
g14
F0.39173908980469108
sg8
I01
sg15
I0
sg17
F100.47389705882358
sg18
F22.018222596018973
sg19
I5651677
sg20
S'18617.6834941'
p1001
sg22
F0.58051470588235299
sbasg26
I00
sg27
I00
sg28
I5650920
sg20
S'18618.0868479'
p1002
sba(igraph
Edge
p1003
(dp1004
g7
I1
sg8
I00
sg9
I5
sg10
(lp1005
g999
a(igraph
Vertex
p1006
(dp1007
g14
F0.4456592841790486
sg8
I00
sg15
g16
sg17
F100.47389705882358
sg18
F72.811045696663768
sg19
I5651679
sg20
S'18617.6847099'
p1008
sg22
F0.58051470588235299
sbasg26
I00
sg27
I00
sg28
I5650921
sg20
S'18618.0899438'
p1009
sba(igraph
Edge
p1010
(dp1011
g7
I1
sg8
I00
sg9
I5
sg10
(lp1012
g1006
a(igraph
Vertex
p1013
(dp1014
g14
F0.49957947855340623
sg8
I00
sg15
g16
sg17
F100.47389705882358
sg18
F123.60386879730868
sg19
I5651680
sg20
S'18617.6858986'
p1015
sg22
F0.58051470588235299
sbasg26
I00
sg27
I00
sg28
I5650922
sg20
S'18618.0930565'
p1016
sba(igraph
Edge
p1017
(dp1018
g7
I1
sg8
I00
sg9
I5
sg10
(lp1019
g1013
a(igraph
Vertex
p1020
(dp1021
g14
F0.5534996729277637
sg8
I00
sg15
g16
sg17
F100.47389705882358
sg18
F174.39669189795336
sg19
I5651681
sg20
S'18617.6871331'
p1022
sg22
F0.58051470588235299
sbasg26
I00
sg27
I00
sg28
I5650923
sg20
S'18618.0962038'
p1023
sba(igraph
Edge
p1024
(dp1025
g7
I1
sg8
I00
sg9
I5
sg10
(lp1026
g1020
a(igraph
Vertex
p1027
(dp1028
g14
F0.60741986730212139
sg8
I00
sg15
g16
sg17
F100.47389705882358
sg18
F225.18951499859838
sg19
I5651682
sg20
S'18617.6883358'
p1029
sg22
F0.58051470588235299
sbasg26
I00
sg27
I00
sg28
I5650924
sg20
S'18618.0993174'
p1030
sba(igraph
Edge
p1031
(dp1032
g7
I1
sg8
I00
sg9
I5
sg10
(lp1033
g1027
a(igraph
Vertex
p1034
(dp1035
g14
F0.66134006167647874
sg8
I00
sg15
g16
sg17
F100.47389705882358
sg18
F275.98233809924295
sg19
I5651683
sg20
S'18617.6896399'
p1036
sg22
F0.58051470588235299
sbasg26
I00
sg27
I00
sg28
I5650925
sg20
S'18618.1026787'
p1037
sba(igraph
Edge
p1038
(dp1039
g7
I1
sg8
I00
sg9
I5
sg10
(lp1040
g1034
a(igraph
Vertex
p1041
(dp1042
g14
F0.71526025605083643
sg8
I00
sg15
g16
sg17
F100.47389705882358
sg18
F326.77516119988786
sg19
I5651684
sg20
S'18617.6910998'
p1043
sg22
F0.58051470588235299
sbasg26
I00
sg27
I00
sg28
I5650926
sg20
S'18618.1058897'
p1044
sba(igraph
Edge
p1045
(dp1046
g7
I1
sg8
I00
sg9
I5
sg10
(lp1047
g1041
a(igraph
Vertex
p1048
(dp1049
g14
F0.76918045042519401
sg8
I00
sg15
g16
sg17
F100.47389705882358
sg18
F377.56798430053277
sg19
I5651685
sg20
S'18617.6923612'
p1050
sg22
F0.58051470588235299
sbasg26
I00
sg27
I00
sg28
I5650927
sg20
S'18618.1091507'
p1051
sba(igraph
Edge
p1052
(dp1053
g7
I1
sg8
I00
sg9
I5
sg10
(lp1054
g1048
a(igraph
Vertex
p1055
(dp1056
g14
F0.82310064479955147
sg8
I00
sg15
g16
sg17
F100.47389705882358
sg18
F428.36080740117745
sg19
I5651686
sg20
S'18617.6936275'
p1057
sg22
F0.58051470588235299
sbasg26
I00
sg27
I00
sg28
I5650928
sg20
S'18618.11244'
p1058
sba(igraph
Edge
p1059
(dp1060
g7
I1
sg8
I00
sg9
I5
sg10
(lp1061
g1055
a(igraph
Vertex
p1062
(dp1063
g14
F0.87702083917390883
sg8
I00
sg15
g16
sg17
F100.47389705882358
sg18
F479.15363050182214
sg19
I5651687
sg20
S'18617.6949062'
p1064
sg22
F0.58051470588235299
sbasg26
I00
sg27
I00
sg28
I5650929
sg20
S'18618.1159052'
p1065
sba(igraph
Edge
p1066
(dp1067
g7
I1
sg8
I00
sg9
I5
sg10
(lp1068
g1062
a(igraph
Vertex
p1069
(dp1070
g14
F0.93094103354826652
sg8
I00
sg15
g16
sg17
F100.47389705882358
sg18
F529.94645360246705
sg19
I5651688
sg20
S'18617.696172'
p1071
sg22
F0.58051470588235299
sbasg26
I00
sg27
I00
sg28
I5650930
sg20
S'18618.1191735'
p1072
sba(igraph
Edge
p1073
(dp1074
g7
I1
sg8
I00
sg9
I5
sg10
(lp1075
g1069
a(igraph
Vertex
p1076
(dp1077
g14
F0.98486122792262409
sg8
I00
sg15
g16
sg17
F100.47389705882358
sg18
F580.73927670311184
sg19
I5651689
sg20
S'18617.6975266'
p1078
sg22
F0.58051470588235299
sbasg26
I00
sg27
I00
sg28
I5650931
sg20
S'18618.1225645'
p1079
sba(igraph
Edge
p1080
(dp1081
g7
I1
sg8
I00
sg9
I5
sg10
(lp1082
g1076
ag954
asg26
I00
sg27
I00
sg28
I5650932
sg20
S'18618.1259392'
p1083
sba(igraph
Edge
p1084
(dp1085
g7
I1
sg8
I00
sg9
I5
sg10
(lp1086
(igraph
Vertex
p1087
(dp1088
g14
F0.014297729184188394
sg8
I00
sg15
g16
sg17
F146.44779411764705
sg18
F-333.53153910849454
sg19
I5651690
sg20
S'18617.6988274'
p1089
sg22
F0.66102941176470587
sba(igraph
Vertex
p1090
(dp1091
g14
F0.068217923558545904
sg8
I00
sg15
g16
sg17
F146.44779411764705
sg18
F-282.73871600784975
sg19
I5651691
sg20
S'18617.7001898'
p1092
sg22
F0.66102941176470587
sbasg26
I00
sg27
I00
sg28
I5650933
sg20
S'18618.1292896'
p1093
sba(igraph
Edge
p1094
(dp1095
g7
I1
sg8
I00
sg9
I5
sg10
(lp1096
g1090
a(igraph
Vertex
p1097
(dp1098
g14
F0.12213811793290343
sg8
I00
sg15
g16
sg17
F146.44779411764705
sg18
F-231.94589290720498
sg19
I5651692
sg20
S'18617.7015428'
p1099
sg22
F0.66102941176470587
sbasg26
I00
sg27
I00
sg28
I5650934
sg20
S'18618.1326576'
p1100
sba(igraph
Edge
p1101
(dp1102
g7
I1
sg8
I00
sg9
I5
sg10
(lp1103
g1097
a(igraph
Vertex
p1104
(dp1105
g14
F0.17605831230726093
sg8
I00
sg15
g16
sg17
F146.44779411764705
sg18
F-181.15306980656021
sg19
I5651693
sg20
S'18617.7028469'
p1106
sg22
F0.66102941176470587
sbasg26
I00
sg27
I00
sg28
I5650935
sg20
S'18618.1361047'
p1107
sba(igraph
Edge
p1108
(dp1109
g7
I1
sg8
I00
sg9
I5
sg10
(lp1110
g1104
a(igraph
Vertex
p1111
(dp1112
g14
F0.22997850668161846
sg8
I00
sg15
g16
sg17
F146.44779411764705
sg18
F-130.36024670591542
sg19
I5651694
sg20
S'18617.7041504'
p1113
sg22
F0.66102941176470587
sbasg26
I00
sg27
I00
sg28
I5650936
sg20
S'18618.1395378'
p1114
sba(igraph
Edge
p1115
(dp1116
g7
I1
sg8
I00
sg9
I5
sg10
(lp1117
g1111
a(igraph
Vertex
p1118
(dp1119
g14
F0.28389870105597598
sg8
I00
sg15
g16
sg17
F146.44779411764705
sg18
F-79.567423605270619
sg19
I5651695
sg20
S'18617.7055313'
p1120
sg22
F0.66102941176470587
sbasg26
I00
sg27
I00
sg28
I5650937
sg20
S'18618.1429874'
p1121
sba(igraph
Edge
p1122
(dp1123
g7
I1
sg8
I00
sg9
I5
sg10
(lp1124
g1118
a(igraph
Vertex
p1125
(dp1126
g14
F0.3378188954303335
sg8
I00
sg15
g16
sg17
F146.44779411764705
sg18
F-28.774600504625823
sg19
I5651696
sg20
S'18617.7069077'
p1127
sg22
F0.66102941176470587
sbasg26
I00
sg27
I00
sg28
I5650938
sg20
S'18618.1464451'
p1128
sba(igraph
Edge
p1129
(dp1130
g7
I1
sg8
I00
sg9
I5
sg10
(lp1131
g1125
a(igraph
Vertex
p1132
(dp1133
g14
F0.39173908980469108
sg8
I00
sg15
g16
sg17
F146.44779411764705
sg18
F22.018222596018973
sg19
I5651697
sg20
S'18617.7082509'
p1134
sg22
F0.66102941176470587
sbasg26
I00
sg27
I00
sg28
I5650939
sg20
S'18618.150083'
p1135
sba(igraph
Edge
p1136
(dp1137
g7
I1
sg8
I00
sg9
I5
sg10
(lp1138
g1132
a(igraph
Vertex
p1139
(dp1140
g14
F0.4456592841790486
sg8
I00
sg15
g16
sg17
F146.44779411764705
sg18
F72.811045696663768
sg19
I5651698
sg20
S'18617.7096254'
p1141
sg22
F0.66102941176470587
sbasg26
I00
sg27
I00
sg28
I5650940
sg20
S'18618.1535863'
p1142
sba(igraph
Edge
p1143
(dp1144
g7
I1
sg8
I00
sg9
I5
sg10
(lp1145
g1139
a(igraph
Vertex
p1146
(dp1147
g14
F0.49957947855340623
sg8
I00
sg15
g16
sg17
F146.44779411764705
sg18
F123.60386879730868
sg19
I5651699
sg20
S'18617.7109915'
p1148
sg22
F0.66102941176470587
sbasg26
I00
sg27
I00
sg28
I5650941
sg20
S'18618.1571663'
p1149
sba(igraph
Edge
p1150
(dp1151
g7
I1
sg8
I00
sg9
I5
sg10
(lp1152
g1146
a(igraph
Vertex
p1153
(dp1154
g14
F0.5534996729277637
sg8
I00
sg15
g16
sg17
F146.44779411764705
sg18
F174.39669189795336
sg19
I5651700
sg20
S'18617.7123503'
p1155
sg22
F0.66102941176470587
sbasg26
I00
sg27
I00
sg28
I5650942
sg20
S'18618.1606637'
p1156
sba(igraph
Edge
p1157
(dp1158
g7
I1
sg8
I00
sg9
I5
sg10
(lp1159
g1153
a(igraph
Vertex
p1160
(dp1161
g14
F0.60741986730212139
sg8
I00
sg15
g16
sg17
F146.44779411764705
sg18
F225.18951499859838
sg19
I5651701
sg20
S'18617.7138072'
p1162
sg22
F0.66102941176470587
sbasg26
I00
sg27
I00
sg28
I5650943
sg20
S'18618.1641896'
p1163
sba(igraph
Edge
p1164
(dp1165
g7
I1
sg8
I00
sg9
I5
sg10
(lp1166
g1160
a(igraph
Vertex
p1167
(dp1168
g14
F0.66134006167647874
sg8
I00
sg15
g16
sg17
F146.44779411764705
sg18
F275.98233809924295
sg19
I5651702
sg20
S'18617.7151839'
p1169
sg22
F0.66102941176470587
sbasg26
I00
sg27
I00
sg28
I5650944
sg20
S'18618.1681052'
p1170
sba(igraph
Edge
p1171
(dp1172
g7
I1
sg8
I00
sg9
I5
sg10
(lp1173
g1167
a(igraph
Vertex
p1174
(dp1175
g14
F0.71526025605083643
sg8
I00
sg15
g16
sg17
F146.44779411764705
sg18
F326.77516119988786
sg19
I5651703
sg20
S'18617.7165916'
p1176
sg22
F0.66102941176470587
sbasg26
I00
sg27
I00
sg28
I5650945
sg20
S'18618.1717389'
p1177
sba(igraph
Edge
p1178
(dp1179
g7
I1
sg8
I00
sg9
I5
sg10
(lp1180
g1174
a(igraph
Vertex
p1181
(dp1182
g14
F0.76918045042519401
sg8
I00
sg15
g16
sg17
F146.44779411764705
sg18
F377.56798430053277
sg19
I5651704
sg20
S'18617.7179868'
p1183
sg22
F0.66102941176470587
sbasg26
I00
sg27
I00
sg28
I5650946
sg20
S'18618.1753522'
p1184
sba(igraph
Edge
p1185
(dp1186
g7
I1
sg8
I00
sg9
I5
sg10
(lp1187
g1181
a(igraph
Vertex
p1188
(dp1189
g14
F0.82310064479955147
sg8
I00
sg15
g16
sg17
F146.44779411764705
sg18
F428.36080740117745
sg19
I5651705
sg20
S'18617.7194487'
p1190
sg22
F0.66102941176470587
sbasg26
I00
sg27
I00
sg28
I5650947
sg20
S'18618.1791652'
p1191
sba(igraph
Edge
p1192
(dp1193
g7
I1
sg8
I00
sg9
I5
sg10
(lp1194
g1188
a(igraph
Vertex
p1195
(dp1196
g14
F0.87702083917390883
sg8
I00
sg15
g16
sg17
F146.44779411764705
sg18
F479.15363050182214
sg19
I5651706
sg20
S'18617.7208997'
p1197
sg22
F0.66102941176470587
sbasg26
I00
sg27
I00
sg28
I5650948
sg20
S'18618.182833'
p1198
sba(igraph
Edge
p1199
(dp1200
g7
I1
sg8
I00
sg9
I5
sg10
(lp1201
g1195
a(igraph
Vertex
p1202
(dp1203
g14
F0.93094103354826652
sg8
I00
sg15
g16
sg17
F146.44779411764705
sg18
F529.94645360246705
sg19
I5651707
sg20
S'18617.722327'
p1204
sg22
F0.66102941176470587
sbasg26
I00
sg27
I00
sg28
I5650949
sg20
S'18618.1865114'
p1205
sba(igraph
Edge
p1206
(dp1207
g7
I1
sg8
I00
sg9
I5
sg10
(lp1208
g1202
a(igraph
Vertex
p1209
(dp1210
g14
F0.98486122792262409
sg8
I00
sg15
g16
sg17
F146.44779411764705
sg18
F580.73927670311184
sg19
I5651708
sg20
S'18617.7237624'
p1211
sg22
F0.66102941176470587
sbasg26
I00
sg27
I00
sg28
I5650950
sg20
S'18618.1902602'
p1212
sba(igraph
Edge
p1213
(dp1214
g7
I1
sg8
I00
sg9
I5
sg10
(lp1215
g1209
ag1087
asg26
I00
sg27
I00
sg28
I5650951
sg20
S'18618.1939853'
p1216
sba(igraph
Edge
p1217
(dp1218
g7
I1
sg8
I00
sg9
I5
sg10
(lp1219
(igraph
Vertex
p1220
(dp1221
g14
F0.014297729184188394
sg8
I00
sg15
g16
sg17
F192.42169117647063
sg18
F-333.53153910849454
sg19
I5651709
sg20
S'18617.7252374'
p1222
sg22
F0.74154411764705885
sba(igraph
Vertex
p1223
(dp1224
g14
F0.068217923558545904
sg8
I00
sg15
g16
sg17
F192.42169117647063
sg18
F-282.73871600784975
sg19
I5651710
sg20
S'18617.7266921'
p1225
sg22
F0.74154411764705885
sbasg26
I00
sg27
I00
sg28
I5650952
sg20
S'18618.1976975'
p1226
sba(igraph
Edge
p1227
(dp1228
g7
I1
sg8
I00
sg9
I5
sg10
(lp1229
g1223
a(igraph
Vertex
p1230
(dp1231
g14
F0.12213811793290343
sg8
I00
sg15
g16
sg17
F192.42169117647063
sg18
F-231.94589290720498
sg19
I5651711
sg20
S'18617.7281811'
p1232
sg22
F0.74154411764705885
sbasg26
I00
sg27
I00
sg28
I5650953
sg20
S'18618.2015097'
p1233
sba(igraph
Edge
p1234
(dp1235
g7
I1
sg8
I00
sg9
I5
sg10
(lp1236
g1230
a(igraph
Vertex
p1237
(dp1238
g14
F0.17605831230726093
sg8
I01
sg15
I0
sg17
F192.42169117647063
sg18
F-181.15306980656021
sg19
I5651713
sg20
S'18617.7296997'
p1239
sg22
F0.74154411764705885
sbasg26
I00
sg27
I00
sg28
I5650954
sg20
S'18618.2052428'
p1240
sba(igraph
Edge
p1241
(dp1242
g7
I1
sg8
I00
sg9
I5
sg10
(lp1243
g1237
a(igraph
Vertex
p1244
(dp1245
g14
F0.22997850668161846
sg8
I00
sg15
g16
sg17
F192.42169117647063
sg18
F-130.36024670591542
sg19
I5651715
sg20
S'18617.7311966'
p1246
sg22
F0.74154411764705885
sbasg26
I00
sg27
I00
sg28
I5650955
sg20
S'18618.2090173'
p1247
sba(igraph
Edge
p1248
(dp1249
g7
I1
sg8
I00
sg9
I5
sg10
(lp1250
g1244
a(igraph
Vertex
p1251
(dp1252
g14
F0.28389870105597598
sg8
I00
sg15
g16
sg17
F192.42169117647063
sg18
F-79.567423605270619
sg19
I5651716
sg20
S'18617.7326942'
p1253
sg22
F0.74154411764705885
sbasg26
I00
sg27
I00
sg28
I5650956
sg20
S'18618.2128416'
p1254
sba(igraph
Edge
p1255
(dp1256
g7
I1
sg8
I00
sg9
I5
sg10
(lp1257
g1251
a(igraph
Vertex
p1258
(dp1259
g14
F0.3378188954303335
sg8
I01
sg15
I0
sg17
F192.42169117647063
sg18
F-28.774600504625823
sg19
I5651718
sg20
S'18617.734283'
p1260
sg22
F0.74154411764705885
sbasg26
I00
sg27
I00
sg28
I5650957
sg20
S'18618.2167264'
p1261
sba(igraph
Edge
p1262
(dp1263
g7
I1
sg8
I00
sg9
I5
sg10
(lp1264
g1258
a(igraph
Vertex
p1265
(dp1266
g14
F0.39173908980469108
sg8
I00
sg15
g16
sg17
F192.42169117647063
sg18
F22.018222596018973
sg19
I5651720
sg20
S'18617.7357882'
p1267
sg22
F0.74154411764705885
sbasg26
I00
sg27
I00
sg28
I5650958
sg20
S'18618.2206948'
p1268
sba(igraph
Edge
p1269
(dp1270
g7
I1
sg8
I00
sg9
I5
sg10
(lp1271
g1265
a(igraph
Vertex
p1272
(dp1273
g14
F0.4456592841790486
sg8
I00
sg15
g16
sg17
F192.42169117647063
sg18
F72.811045696663768
sg19
I5651721
sg20
S'18617.7373563'
p1274
sg22
F0.74154411764705885
sbasg26
I00
sg27
I00
sg28
I5650959
sg20
S'18618.2245514'
p1275
sba(igraph
Edge
p1276
(dp1277
g7
I1
sg8
I00
sg9
I5
sg10
(lp1278
g1272
a(igraph
Vertex
p1279
(dp1280
g14
F0.49957947855340623
sg8
I00
sg15
g16
sg17
F192.42169117647063
sg18
F123.60386879730868
sg19
I5651722
sg20
S'18617.7388797'
p1281
sg22
F0.74154411764705885
sbasg26
I00
sg27
I00
sg28
I5650960
sg20
S'18618.2286933'
p1282
sba(igraph
Edge
p1283
(dp1284
g7
I1
sg8
I00
sg9
I5
sg10
(lp1285
g1279
a(igraph
Vertex
p1286
(dp1287
g14
F0.5534996729277637
sg8
I00
sg15
g16
sg17
F192.42169117647063
sg18
F174.39669189795336
sg19
I5651723
sg20
S'18617.7404033'
p1288
sg22
F0.74154411764705885
sbasg26
I00
sg27
I00
sg28
I5650961
sg20
S'18618.2325921'
p1289
sba(igraph
Edge
p1290
(dp1291
g7
I1
sg8
I00
sg9
I5
sg10
(lp1292
g1286
a(igraph
Vertex
p1293
(dp1294
g14
F0.60741986730212139
sg8
I00
sg15
g16
sg17
F192.42169117647063
sg18
F225.18951499859838
sg19
I5651724
sg20
S'18617.7419982'
p1295
sg22
F0.74154411764705885
sbasg26
I00
sg27
I00
sg28
I5650962
sg20
S'18618.2364848'
p1296
sba(igraph
Edge
p1297
(dp1298
g7
I1
sg8
I00
sg9
I5
sg10
(lp1299
g1293
a(igraph
Vertex
p1300
(dp1301
g14
F0.66134006167647874
sg8
I00
sg15
g16
sg17
F192.42169117647063
sg18
F275.98233809924295
sg19
I5651725
sg20
S'18617.7436266'
p1302
sg22
F0.74154411764705885
sbasg26
I00
sg27
I00
sg28
I5650963
sg20
S'18618.2404389'
p1303
sba(igraph
Edge
p1304
(dp1305
g7
I1
sg8
I00
sg9
I5
sg10
(lp1306
g1300
a(igraph
Vertex
p1307
(dp1308
g14
F0.71526025605083643
sg8
I00
sg15
g16
sg17
F192.42169117647063
sg18
F326.77516119988786
sg19
I5651726
sg20
S'18617.7452741'
p1309
sg22
F0.74154411764705885
sbasg26
I00
sg27
I00
sg28
I5650964
sg20
S'18618.2444685'
p1310
sba(igraph
Edge
p1311
(dp1312
g7
I1
sg8
I00
sg9
I5
sg10
(lp1313
g1307
a(igraph
Vertex
p1314
(dp1315
g14
F0.76918045042519401
sg8
I00
sg15
g16
sg17
F192.42169117647063
sg18
F377.56798430053277
sg19
I5651727
sg20
S'18617.7468784'
p1316
sg22
F0.74154411764705885
sbasg26
I00
sg27
I00
sg28
I5650965
sg20
S'18618.2485009'
p1317
sba(igraph
Edge
p1318
(dp1319
g7
I1
sg8
I00
sg9
I5
sg10
(lp1320
g1314
a(igraph
Vertex
p1321
(dp1322
g14
F0.82310064479955147
sg8
I00
sg15
g16
sg17
F192.42169117647063
sg18
F428.36080740117745
sg19
I5651728
sg20
S'18617.7484909'
p1323
sg22
F0.74154411764705885
sbasg26
I00
sg27
I00
sg28
I5650966
sg20
S'18618.2535163'
p1324
sba(igraph
Edge
p1325
(dp1326
g7
I1
sg8
I00
sg9
I5
sg10
(lp1327
g1321
a(igraph
Vertex
p1328
(dp1329
g14
F0.87702083917390883
sg8
I00
sg15
g16
sg17
F192.42169117647063
sg18
F479.15363050182214
sg19
I5651729
sg20
S'18617.7501138'
p1330
sg22
F0.74154411764705885
sbasg26
I00
sg27
I00
sg28
I5650967
sg20
S'18618.2576048'
p1331
sba(igraph
Edge
p1332
(dp1333
g7
I1
sg8
I00
sg9
I5
sg10
(lp1334
g1328
a(igraph
Vertex
p1335
(dp1336
g14
F0.93094103354826652
sg8
I00
sg15
g16
sg17
F192.42169117647063
sg18
F529.94645360246705
sg19
I5651730
sg20
S'18617.7517126'
p1337
sg22
F0.74154411764705885
sbasg26
I00
sg27
I00
sg28
I5650968
sg20
S'18618.2617296'
p1338
sba(igraph
Edge
p1339
(dp1340
g7
I1
sg8
I00
sg9
I5
sg10
(lp1341
g1335
a(igraph
Vertex
p1342
(dp1343
g14
F0.98486122792262409
sg8
I00
sg15
g16
sg17
F192.42169117647063
sg18
F580.73927670311184
sg19
I5651731
sg20
S'18617.7533966'
p1344
sg22
F0.74154411764705885
sbasg26
I00
sg27
I00
sg28
I5650969
sg20
S'18618.2658941'
p1345
sba(igraph
Edge
p1346
(dp1347
g7
I1
sg8
I00
sg9
I5
sg10
(lp1348
g1342
ag1220
asg26
I00
sg27
I00
sg28
I5650970
sg20
S'18618.2700067'
p1349
sba(igraph
Edge
p1350
(dp1351
g7
I1
sg8
I00
sg9
I5
sg10
(lp1352
(igraph
Vertex
p1353
(dp1354
g14
F0.014297729184188394
sg8
I00
sg15
g16
sg17
F238.3955882352941
sg18
F-333.53153910849454
sg19
I5651732
sg20
S'18617.7550147'
p1355
sg22
F0.82205882352941173
sba(igraph
Vertex
p1356
(dp1357
g14
F0.068217923558545904
sg8
I00
sg15
g16
sg17
F238.3955882352941
sg18
F-282.73871600784975
sg19
I5651733
sg20
S'18617.7566674'
p1358
sg22
F0.82205882352941173
sbasg26
I00
sg27
I00
sg28
I5650971
sg20
S'18618.2740955'
p1359
sba(igraph
Edge
p1360
(dp1361
g7
I1
sg8
I00
sg9
I5
sg10
(lp1362
g1356
a(igraph
Vertex
p1363
(dp1364
g14
F0.12213811793290343
sg8
I00
sg15
g16
sg17
F238.3955882352941
sg18
F-231.94589290720498
sg19
I5651734
sg20
S'18617.7583218'
p1365
sg22
F0.82205882352941173
sbasg26
I00
sg27
I00
sg28
I5650972
sg20
S'18618.2782206'
p1366
sba(igraph
Edge
p1367
(dp1368
g7
I1
sg8
I00
sg9
I5
sg10
(lp1369
g1363
a(igraph
Vertex
p1370
(dp1371
g14
F0.17605831230726093
sg8
I00
sg15
g16
sg17
F238.3955882352941
sg18
F-181.15306980656021
sg19
I5651735
sg20
S'18617.7600667'
p1372
sg22
F0.82205882352941173
sbasg26
I00
sg27
I00
sg28
I5650973
sg20
S'18618.2824568'
p1373
sba(igraph
Edge
p1374
(dp1375
g7
I1
sg8
I00
sg9
I5
sg10
(lp1376
g1370
a(igraph
Vertex
p1377
(dp1378
g14
F0.22997850668161846
sg8
I01
sg15
I0
sg17
F238.3955882352941
sg18
F-130.36024670591542
sg19
I5651737
sg20
S'18617.761722'
p1379
sg22
F0.82205882352941173
sbasg26
I00
sg27
I00
sg28
I5650974
sg20
S'18618.286651'
p1380
sba(igraph
Edge
p1381
(dp1382
g7
I1
sg8
I00
sg9
I5
sg10
(lp1383
g1377
a(igraph
Vertex
p1384
(dp1385
g14
F0.28389870105597598
sg8
I00
sg15
g16
sg17
F238.3955882352941
sg18
F-79.567423605270619
sg19
I5651739
sg20
S'18617.7633783'
p1386
sg22
F0.82205882352941173
sbasg26
I00
sg27
I00
sg28
I5650975
sg20
S'18618.2924011'
p1387
sba(igraph
Edge
p1388
(dp1389
g7
I1
sg8
I00
sg9
I5
sg10
(lp1390
g1384
a(igraph
Vertex
p1391
(dp1392
g14
F0.3378188954303335
sg8
I00
sg15
g16
sg17
F238.3955882352941
sg18
F-28.774600504625823
sg19
I5651740
sg20
S'18617.7651009'
p1393
sg22
F0.82205882352941173
sbasg26
I00
sg27
I00
sg28
I5650976
sg20
S'18618.2968813'
p1394
sba(igraph
Edge
p1395
(dp1396
g7
I1
sg8
I00
sg9
I5
sg10
(lp1397
g1391
a(igraph
Vertex
p1398
(dp1399
g14
F0.39173908980469108
sg8
I00
sg15
g16
sg17
F238.3955882352941
sg18
F22.018222596018973
sg19
I5651741
sg20
S'18617.7668246'
p1400
sg22
F0.82205882352941173
sbasg26
I00
sg27
I00
sg28
I5650977
sg20
S'18618.3011919'
p1401
sba(igraph
Edge
p1402
(dp1403
g7
I1
sg8
I00
sg9
I5
sg10
(lp1404
g1398
a(igraph
Vertex
p1405
(dp1406
g14
F0.4456592841790486
sg8
I00
sg15
g16
sg17
F238.3955882352941
sg18
F72.811045696663768
sg19
I5651742
sg20
S'18617.7685519'
p1407
sg22
F0.82205882352941173
sbasg26
I00
sg27
I00
sg28
I5650978
sg20
S'18618.3055914'
p1408
sba(igraph
Edge
p1409
(dp1410
g7
I1
sg8
I00
sg9
I5
sg10
(lp1411
g1405
a(igraph
Vertex
p1412
(dp1413
g14
F0.49957947855340623
sg8
I00
sg15
g16
sg17
F238.3955882352941
sg18
F123.60386879730868
sg19
I5651743
sg20
S'18617.7702663'
p1414
sg22
F0.82205882352941173
sbasg26
I00
sg27
I00
sg28
I5650979
sg20
S'18618.3098838'
p1415
sba(igraph
Edge
p1416
(dp1417
g7
I1
sg8
I00
sg9
I5
sg10
(lp1418
g1412
a(igraph
Vertex
p1419
(dp1420
g14
F0.5534996729277637
sg8
I00
sg15
g16
sg17
F238.3955882352941
sg18
F174.39669189795336
sg19
I5651744
sg20
S'18617.7719702'
p1421
sg22
F0.82205882352941173
sbasg26
I00
sg27
I00
sg28
I5650980
sg20
S'18618.3142371'
p1422
sba(igraph
Edge
p1423
(dp1424
g7
I1
sg8
I00
sg9
I5
sg10
(lp1425
g1419
a(igraph
Vertex
p1426
(dp1427
g14
F0.60741986730212139
sg8
I00
sg15
g16
sg17
F238.3955882352941
sg18
F225.18951499859838
sg19
I5651745
sg20
S'18617.7737201'
p1428
sg22
F0.82205882352941173
sbasg26
I00
sg27
I00
sg28
I5650981
sg20
S'18618.3186402'
p1429
sba(igraph
Edge
p1430
(dp1431
g7
I1
sg8
I00
sg9
I5
sg10
(lp1432
g1426
a(igraph
Vertex
p1433
(dp1434
g14
F0.66134006167647874
sg8
I00
sg15
g16
sg17
F238.3955882352941
sg18
F275.98233809924295
sg19
I5651746
sg20
S'18617.7754494'
p1435
sg22
F0.82205882352941173
sbasg26
I00
sg27
I00
sg28
I5650982
sg20
S'18618.323121'
p1436
sba(igraph
Edge
p1437
(dp1438
g7
I1
sg8
I00
sg9
I5
sg10
(lp1439
g1433
a(igraph
Vertex
p1440
(dp1441
g14
F0.71526025605083643
sg8
I00
sg15
g16
sg17
F238.3955882352941
sg18
F326.77516119988786
sg19
I5651747
sg20
S'18617.7772248'
p1442
sg22
F0.82205882352941173
sbasg26
I00
sg27
I00
sg28
I5650983
sg20
S'18618.3274975'
p1443
sba(igraph
Edge
p1444
(dp1445
g7
I1
sg8
I00
sg9
I5
sg10
(lp1446
g1440
a(igraph
Vertex
p1447
(dp1448
g14
F0.76918045042519401
sg8
I00
sg15
g16
sg17
F238.3955882352941
sg18
F377.56798430053277
sg19
I5651748
sg20
S'18617.7789895'
p1449
sg22
F0.82205882352941173
sbasg26
I00
sg27
I00
sg28
I5650984
sg20
S'18618.3318492'
p1450
sba(igraph
Edge
p1451
(dp1452
g7
I1
sg8
I00
sg9
I5
sg10
(lp1453
g1447
a(igraph
Vertex
p1454
(dp1455
g14
F0.82310064479955147
sg8
I00
sg15
g16
sg17
F238.3955882352941
sg18
F428.36080740117745
sg19
I5651749
sg20
S'18617.7809062'
p1456
sg22
F0.82205882352941173
sbasg26
I00
sg27
I00
sg28
I5650985
sg20
S'18618.3363182'
p1457
sba(igraph
Edge
p1458
(dp1459
g7
I1
sg8
I00
sg9
I5
sg10
(lp1460
g1454
a(igraph
Vertex
p1461
(dp1462
g14
F0.87702083917390883
sg8
I00
sg15
g16
sg17
F238.3955882352941
sg18
F479.15363050182214
sg19
I5651750
sg20
S'18617.782714'
p1463
sg22
F0.82205882352941173
sbasg26
I00
sg27
I00
sg28
I5650986
sg20
S'18618.3407969'
p1464
sba(igraph
Edge
p1465
(dp1466
g7
I1
sg8
I00
sg9
I5
sg10
(lp1467
g1461
a(igraph
Vertex
p1468
(dp1469
g14
F0.93094103354826652
sg8
I00
sg15
g16
sg17
F238.3955882352941
sg18
F529.94645360246705
sg19
I5651751
sg20
S'18617.7844955'
p1470
sg22
F0.82205882352941173
sbasg26
I00
sg27
I00
sg28
I5650987
sg20
S'18618.3452458'
p1471
sba(igraph
Edge
p1472
(dp1473
g7
I1
sg8
I00
sg9
I5
sg10
(lp1474
g1468
a(igraph
Vertex
p1475
(dp1476
g14
F0.98486122792262409
sg8
I00
sg15
g16
sg17
F238.3955882352941
sg18
F580.73927670311184
sg19
I5651752
sg20
S'18617.7863066'
p1477
sg22
F0.82205882352941173
sbasg26
I00
sg27
I00
sg28
I5650988
sg20
S'18618.3497523'
p1478
sba(igraph
Edge
p1479
(dp1480
g7
I1
sg8
I00
sg9
I5
sg10
(lp1481
g1475
ag1353
asg26
I00
sg27
I00
sg28
I5650989
sg20
S'18618.3542752'
p1482
sba(igraph
Edge
p1483
(dp1484
g7
I1
sg8
I00
sg9
I5
sg10
(lp1485
(igraph
Vertex
p1486
(dp1487
g14
F0.014297729184188394
sg8
I00
sg15
g16
sg17
F284.36948529411768
sg18
F-333.53153910849454
sg19
I5651753
sg20
S'18617.789723'
p1488
sg22
F0.90257352941176472
sba(igraph
Vertex
p1489
(dp1490
g14
F0.068217923558545904
sg8
I00
sg15
g16
sg17
F284.36948529411768
sg18
F-282.73871600784975
sg19
I5651754
sg20
S'18617.7915584'
p1491
sg22
F0.90257352941176472
sbasg26
I00
sg27
I00
sg28
I5650990
sg20
S'18618.3591951'
p1492
sba(igraph
Edge
p1493
(dp1494
g7
I1
sg8
I00
sg9
I5
sg10
(lp1495
g1489
a(igraph
Vertex
p1496
(dp1497
g14
F0.12213811793290343
sg8
I01
sg15
I0
sg17
F284.36948529411768
sg18
F-231.94589290720498
sg19
I5651756
sg20
S'18617.7933994'
p1498
sg22
F0.90257352941176472
sbasg26
I00
sg27
I00
sg28
I5650991
sg20
S'18618.3639312'
p1499
sba(igraph
Edge
p1500
(dp1501
g7
I1
sg8
I00
sg9
I5
sg10
(lp1502
g1496
a(igraph
Vertex
p1503
(dp1504
g14
F0.17605831230726093
sg8
I00
sg15
g16
sg17
F284.36948529411768
sg18
F-181.15306980656021
sg19
I5651758
sg20
S'18617.7952257'
p1505
sg22
F0.90257352941176472
sbasg26
I00
sg27
I00
sg28
I5650992
sg20
S'18618.3685577'
p1506
sba(igraph
Edge
p1507
(dp1508
g7
I1
sg8
I00
sg9
I5
sg10
(lp1509
g1503
a(igraph
Vertex
p1510
(dp1511
g14
F0.22997850668161846
sg8
I00
sg15
g16
sg17
F284.36948529411768
sg18
F-130.36024670591542
sg19
I5651759
sg20
S'18617.7970795'
p1512
sg22
F0.90257352941176472
sbasg26
I00
sg27
I00
sg28
I5650993
sg20
S'18618.3732002'
p1513
sba(igraph
Edge
p1514
(dp1515
g7
I1
sg8
I00
sg9
I5
sg10
(lp1516
g1510
a(igraph
Vertex
p1517
(dp1518
g14
F0.28389870105597598
sg8
I00
sg15
g16
sg17
F284.36948529411768
sg18
F-79.567423605270619
sg19
I5651760
sg20
S'18617.7989314'
p1519
sg22
F0.90257352941176472
sbasg26
I00
sg27
I00
sg28
I5650994
sg20
S'18618.3778704'
p1520
sba(igraph
Edge
p1521
(dp1522
g7
I1
sg8
I00
sg9
I5
sg10
(lp1523
g1517
a(igraph
Vertex
p1524
(dp1525
g14
F0.3378188954303335
sg8
I00
sg15
g16
sg17
F284.36948529411768
sg18
F-28.774600504625823
sg19
I5651761
sg20
S'18617.8008713'
p1526
sg22
F0.90257352941176472
sbasg26
I00
sg27
I00
sg28
I5650995
sg20
S'18618.3826576'
p1527
sba(igraph
Edge
p1528
(dp1529
g7
I1
sg8
I00
sg9
I5
sg10
(lp1530
g1524
a(igraph
Vertex
p1531
(dp1532
g14
F0.39173908980469108
sg8
I00
sg15
g16
sg17
F284.36948529411768
sg18
F22.018222596018973
sg19
I5651762
sg20
S'18617.8027436'
p1533
sg22
F0.90257352941176472
sbasg26
I00
sg27
I00
sg28
I5650996
sg20
S'18618.3873294'
p1534
sba(igraph
Edge
p1535
(dp1536
g7
I1
sg8
I00
sg9
I5
sg10
(lp1537
g1531
a(igraph
Vertex
p1538
(dp1539
g14
F0.4456592841790486
sg8
I00
sg15
g16
sg17
F284.36948529411768
sg18
F72.811045696663768
sg19
I5651763
sg20
S'18617.8046296'
p1540
sg22
F0.90257352941176472
sbasg26
I00
sg27
I00
sg28
I5650997
sg20
S'18618.3920289'
p1541
sba(igraph
Edge
p1542
(dp1543
g7
I1
sg8
I00
sg9
I5
sg10
(lp1544
g1538
a(igraph
Vertex
p1545
(dp1546
g14
F0.49957947855340623
sg8
I00
sg15
g16
sg17
F284.36948529411768
sg18
F123.60386879730868
sg19
I5651764
sg20
S'18617.8065156'
p1547
sg22
F0.90257352941176472
sbasg26
I00
sg27
I00
sg28
I5650998
sg20
S'18618.3967792'
p1548
sba(igraph
Edge
p1549
(dp1550
g7
I1
sg8
I00
sg9
I5
sg10
(lp1551
g1545
a(igraph
Vertex
p1552
(dp1553
g14
F0.5534996729277637
sg8
I00
sg15
g16
sg17
F284.36948529411768
sg18
F174.39669189795336
sg19
I5651765
sg20
S'18617.8084393'
p1554
sg22
F0.90257352941176472
sbasg26
I00
sg27
I00
sg28
I5650999
sg20
S'18618.4015438'
p1555
sba(igraph
Edge
p1556
(dp1557
g7
I1
sg8
I00
sg9
I5
sg10
(lp1558
g1552
a(igraph
Vertex
p1559
(dp1560
g14
F0.60741986730212139
sg8
I00
sg15
g16
sg17
F284.36948529411768
sg18
F225.18951499859838
sg19
I5651766
sg20
S'18617.810441'
p1561
sg22
F0.90257352941176472
sbasg26
I00
sg27
I00
sg28
I5651000
sg20
S'18618.4063712'
p1562
sba(igraph
Edge
p1563
(dp1564
g7
I1
sg8
I00
sg9
I5
sg10
(lp1565
g1559
a(igraph
Vertex
p1566
(dp1567
g14
F0.66134006167647874
sg8
I00
sg15
g16
sg17
F284.36948529411768
sg18
F275.98233809924295
sg19
I5651767
sg20
S'18617.8125197'
p1568
sg22
F0.90257352941176472
sbasg26
I00
sg27
I00
sg28
I5651001
sg20
S'18618.411155'
p1569
sba(igraph
Edge
p1570
(dp1571
g7
I1
sg8
I00
sg9
I5
sg10
(lp1572
g1566
a(igraph
Vertex
p1573
(dp1574
g14
F0.71526025605083643
sg8
I00
sg15
g16
sg17
F284.36948529411768
sg18
F326.77516119988786
sg19
I5651768
sg20
S'18617.814451'
p1575
sg22
F0.90257352941176472
sbasg26
I00
sg27
I00
sg28
I5651002
sg20
S'18618.4161968'
p1576
sba(igraph
Edge
p1577
(dp1578
g7
I1
sg8
I00
sg9
I5
sg10
(lp1579
g1573
a(igraph
Vertex
p1580
(dp1581
g14
F0.76918045042519401
sg8
I00
sg15
g16
sg17
F284.36948529411768
sg18
F377.56798430053277
sg19
I5651769
sg20
S'18617.816406'
p1582
sg22
F0.90257352941176472
sbasg26
I00
sg27
I00
sg28
I5651003
sg20
S'18618.4210932'
p1583
sba(igraph
Edge
p1584
(dp1585
g7
I1
sg8
I00
sg9
I5
sg10
(lp1586
g1580
a(igraph
Vertex
p1587
(dp1588
g14
F0.82310064479955147
sg8
I00
sg15
g16
sg17
F284.36948529411768
sg18
F428.36080740117745
sg19
I5651770
sg20
S'18617.8184222'
p1589
sg22
F0.90257352941176472
sbasg26
I00
sg27
I00
sg28
I5651004
sg20
S'18618.426'
p1590
sba(igraph
Edge
p1591
(dp1592
g7
I1
sg8
I00
sg9
I5
sg10
(lp1593
g1587
a(igraph
Vertex
p1594
(dp1595
g14
F0.87702083917390883
sg8
I00
sg15
g16
sg17
F284.36948529411768
sg18
F479.15363050182214
sg19
I5651771
sg20
S'18617.8204099'
p1596
sg22
F0.90257352941176472
sbasg26
I00
sg27
I00
sg28
I5651005
sg20
S'18618.4309727'
p1597
sba(igraph
Edge
p1598
(dp1599
g7
I1
sg8
I00
sg9
I5
sg10
(lp1600
g1594
a(igraph
Vertex
p1601
(dp1602
g14
F0.93094103354826652
sg8
I00
sg15
g16
sg17
F284.36948529411768
sg18
F529.94645360246705
sg19
I5651772
sg20
S'18617.8224822'
p1603
sg22
F0.90257352941176472
sbasg26
I00
sg27
I00
sg28
I5651006
sg20
S'18618.4358945'
p1604
sba(igraph
Edge
p1605
(dp1606
g7
I1
sg8
I00
sg9
I5
sg10
(lp1607
g1601
a(igraph
Vertex
p1608
(dp1609
g14
F0.98486122792262409
sg8
I00
sg15
g16
sg17
F284.36948529411768
sg18
F580.73927670311184
sg19
I5651773
sg20
S'18617.8244947'
p1610
sg22
F0.90257352941176472
sbasg26
I00
sg27
I00
sg28
I5651007
sg20
S'18618.4409052'
p1611
sba(igraph
Edge
p1612
(dp1613
g7
I1
sg8
I00
sg9
I5
sg10
(lp1614
g1608
ag1486
asg26
I00
sg27
I00
sg28
I5651008
sg20
S'18618.4460022'
p1615
sba(igraph
Edge
p1616
(dp1617
g7
I1
sg8
I00
sg9
I5
sg10
(lp1618
(igraph
Vertex
p1619
(dp1620
g14
F0.014297729184188394
sg8
I01
sg15
I0
sg17
F330.34338235294115
sg18
F-333.53153910849454
sg19
I5651775
sg20
S'18617.8264995'
p1621
sg22
F0.9830882352941176
sba(igraph
Vertex
p1622
(dp1623
g14
F0.068217923558545904
sg8
I00
sg15
g16
sg17
F330.34338235294115
sg18
F-282.73871600784975
sg19
I5651777
sg20
S'18617.8284835'
p1624
sg22
F0.9830882352941176
sbasg26
I00
sg27
I00
sg28
I5651009
sg20
S'18618.4510308'
p1625
sba(igraph
Edge
p1626
(dp1627
g7
I1
sg8
I00
sg9
I5
sg10
(lp1628
g1622
a(igraph
Vertex
p1629
(dp1630
g14
F0.12213811793290343
sg8
I00
sg15
g16
sg17
F330.34338235294115
sg18
F-231.94589290720498
sg19
I5651778
sg20
S'18617.8305433'
p1631
sg22
F0.9830882352941176
sbasg26
I00
sg27
I00
sg28
I5651010
sg20
S'18618.4560895'
p1632
sba(igraph
Edge
p1633
(dp1634
g7
I1
sg8
I00
sg9
I5
sg10
(lp1635
g1629
a(igraph
Vertex
p1636
(dp1637
g14
F0.17605831230726093
sg8
I00
sg15
g16
sg17
F330.34338235294115
sg18
F-181.15306980656021
sg19
I5651779
sg20
S'18617.8326081'
p1638
sg22
F0.9830882352941176
sbasg26
I00
sg27
I00
sg28
I5651011
sg20
S'18618.461243'
p1639
sba(igraph
Edge
p1640
(dp1641
g7
I1
sg8
I00
sg9
I5
sg10
(lp1642
g1636
a(igraph
Vertex
p1643
(dp1644
g14
F0.22997850668161846
sg8
I00
sg15
g16
sg17
F330.34338235294115
sg18
F-130.36024670591542
sg19
I5651780
sg20
S'18617.834617'
p1645
sg22
F0.9830882352941176
sbasg26
I00
sg27
I00
sg28
I5651012
sg20
S'18618.4662372'
p1646
sba(igraph
Edge
p1647
(dp1648
g7
I1
sg8
I00
sg9
I5
sg10
(lp1649
g1643
a(igraph
Vertex
p1650
(dp1651
g14
F0.28389870105597598
sg8
I00
sg15
g16
sg17
F330.34338235294115
sg18
F-79.567423605270619
sg19
I5651781
sg20
S'18617.8367116'
p1652
sg22
F0.9830882352941176
sbasg26
I00
sg27
I00
sg28
I5651013
sg20
S'18618.4713714'
p1653
sba(igraph
Edge
p1654
(dp1655
g7
I1
sg8
I00
sg9
I5
sg10
(lp1656
g1650
a(igraph
Vertex
p1657
(dp1658
g14
F0.3378188954303335
sg8
I00
sg15
g16
sg17
F330.34338235294115
sg18
F-28.774600504625823
sg19
I5651782
sg20
S'18617.8387748'
p1659
sg22
F0.9830882352941176
sbasg26
I00
sg27
I00
sg28
I5651014
sg20
S'18618.4764804'
p1660
sba(igraph
Edge
p1661
(dp1662
g7
I1
sg8
I00
sg9
I5
sg10
(lp1663
g1657
a(igraph
Vertex
p1664
(dp1665
g14
F0.39173908980469108
sg8
I00
sg15
g16
sg17
F330.34338235294115
sg18
F22.018222596018973
sg19
I5651783
sg20
S'18617.8408463'
p1666
sg22
F0.9830882352941176
sbasg26
I00
sg27
I00
sg28
I5651015
sg20
S'18618.4815953'
p1667
sba(igraph
Edge
p1668
(dp1669
g7
I1
sg8
I00
sg9
I5
sg10
(lp1670
g1664
a(igraph
Vertex
p1671
(dp1672
g14
F0.4456592841790486
sg8
I00
sg15
g16
sg17
F330.34338235294115
sg18
F72.811045696663768
sg19
I5651784
sg20
S'18617.843398'
p1673
sg22
F0.9830882352941176
sbasg26
I00
sg27
I00
sg28
I5651016
sg20
S'18618.4867099'
p1674
sba(igraph
Edge
p1675
(dp1676
g7
I1
sg8
I00
sg9
I5
sg10
(lp1677
g1671
a(igraph
Vertex
p1678
(dp1679
g14
F0.49957947855340623
sg8
I00
sg15
g16
sg17
F330.34338235294115
sg18
F123.60386879730868
sg19
I5651785
sg20
S'18617.8455907'
p1680
sg22
F0.9830882352941176
sbasg26
I00
sg27
I00
sg28
I5651017
sg20
S'18618.4919162'
p1681
sba(igraph
Edge
p1682
(dp1683
g7
I1
sg8
I00
sg9
I5
sg10
(lp1684
g1678
a(igraph
Vertex
p1685
(dp1686
g14
F0.5534996729277637
sg8
I00
sg15
g16
sg17
F330.34338235294115
sg18
F174.39669189795336
sg19
I5651786
sg20
S'18617.8477242'
p1687
sg22
F0.9830882352941176
sbasg26
I00
sg27
I00
sg28
I5651018
sg20
S'18618.4972168'
p1688
sba(igraph
Edge
p1689
(dp1690
g7
I1
sg8
I00
sg9
I5
sg10
(lp1691
g1685
a(igraph
Vertex
p1692
(dp1693
g14
F0.60741986730212139
sg8
I00
sg15
g16
sg17
F330.34338235294115
sg18
F225.18951499859838
sg19
I5651787
sg20
S'18617.8498421'
p1694
sg22
F0.9830882352941176
sbasg26
I00
sg27
I00
sg28
I5651019
sg20
S'18618.5025804'
p1695
sba(igraph
Edge
p1696
(dp1697
g7
I1
sg8
I00
sg9
I5
sg10
(lp1698
g1692
a(igraph
Vertex
p1699
(dp1700
g14
F0.66134006167647874
sg8
I00
sg15
g16
sg17
F330.34338235294115
sg18
F275.98233809924295
sg19
I5651788
sg20
S'18617.8519759'
p1701
sg22
F0.9830882352941176
sbasg26
I00
sg27
I00
sg28
I5651020
sg20
S'18618.5078293'
p1702
sba(igraph
Edge
p1703
(dp1704
g7
I1
sg8
I00
sg9
I5
sg10
(lp1705
g1699
a(igraph
Vertex
p1706
(dp1707
g14
F0.71526025605083643
sg8
I00
sg15
g16
sg17
F330.34338235294115
sg18
F326.77516119988786
sg19
I5651789
sg20
S'18617.8541482'
p1708
sg22
F0.9830882352941176
sbasg26
I00
sg27
I00
sg28
I5651021
sg20
S'18618.5140262'
p1709
sba(igraph
Edge
p1710
(dp1711
g7
I1
sg8
I00
sg9
I5
sg10
(lp1712
g1706
a(igraph
Vertex
p1713
(dp1714
g14
F0.76918045042519401
sg8
I00
sg15
g16
sg17
F330.34338235294115
sg18
F377.56798430053277
sg19
I5651790
sg20
S'18617.8562689'
p1715
sg22
F0.9830882352941176
sbasg26
I00
sg27
I00
sg28
I5651022
sg20
S'18618.5193325'
p1716
sba(igraph
Edge
p1717
(dp1718
g7
I1
sg8
I00
sg9
I5
sg10
(lp1719
g1713
a(igraph
Vertex
p1720
(dp1721
g14
F0.82310064479955147
sg8
I00
sg15
g16
sg17
F330.34338235294115
sg18
F428.36080740117745
sg19
I5651791
sg20
S'18617.8584932'
p1722
sg22
F0.9830882352941176
sbasg26
I00
sg27
I00
sg28
I5651023
sg20
S'18618.5246594'
p1723
sba(igraph
Edge
p1724
(dp1725
g7
I1
sg8
I00
sg9
I5
sg10
(lp1726
g1720
a(igraph
Vertex
p1727
(dp1728
g14
F0.87702083917390883
sg8
I00
sg15
g16
sg17
F330.34338235294115
sg18
F479.15363050182214
sg19
I5651792
sg20
S'18617.8606463'
p1729
sg22
F0.9830882352941176
sbasg26
I00
sg27
I00
sg28
I5651024
sg20
S'18618.5300299'
p1730
sba(igraph
Edge
p1731
(dp1732
g7
I1
sg8
I00
sg9
I5
sg10
(lp1733
g1727
a(igraph
Vertex
p1734
(dp1735
g14
F0.93094103354826652
sg8
I01
sg15
I0
sg17
F330.34338235294115
sg18
F529.94645360246705
sg19
I5651794
sg20
S'18617.862846'
p1736
sg22
F0.9830882352941176
sbasg26
I00
sg27
I00
sg28
I5651025
sg20
S'18618.5353331'
p1737
sba(igraph
Edge
p1738
(dp1739
g7
I1
sg8
I00
sg9
I5
sg10
(lp1740
g1734
a(igraph
Vertex
p1741
(dp1742
g14
F0.98486122792262409
sg8
I00
sg15
g16
sg17
F330.34338235294115
sg18
F580.73927670311184
sg19
I5651796
sg20
S'18617.8650686'
p1743
sg22
F0.9830882352941176
sbasg26
I00
sg27
I00
sg28
I5651026
sg20
S'18618.5407467'
p1744
sba(igraph
Edge
p1745
(dp1746
g7
I1
sg8
I00
sg9
I5
sg10
(lp1747
g1741
ag1619
asg26
I00
sg27
I00
sg28
I5651027
sg20
S'18618.5462004'
p1748
sba(igraph
Edge
p1749
(dp1750
g7
I1
sg8
I00
sg9
I5
sg10
(lp1751
g12
ag156
asg26
I00
sg27
I00
sg28
I5651028
sg20
S'18618.5516411'
p1752
sba(igraph
Edge
p1753
(dp1754
g7
I1
sg8
I00
sg9
I5
sg10
(lp1755
g23
ag156
asg26
I00
sg27
I00
sg28
I5651029
sg20
S'18618.5570945'
p1756
sba(igraph
Edge
p1757
(dp1758
g7
I1
sg8
I00
sg9
I5
sg10
(lp1759
g33
ag166
asg26
I00
sg27
I00
sg28
I5651030
sg20
S'18618.562631'
p1760
sba(igraph
Edge
p1761
(dp1762
g7
I1
sg8
I00
sg9
I5
sg10
(lp1763
g40
ag166
asg26
I00
sg27
I00
sg28
I5651031
sg20
S'18618.5682597'
p1764
sba(igraph
Edge
p1765
(dp1766
g7
I1
sg8
I00
sg9
I5
sg10
(lp1767
g47
ag180
asg26
I00
sg27
I00
sg28
I5651032
sg20
S'18618.5738559'
p1768
sba(igraph
Edge
p1769
(dp1770
g7
I1
sg8
I00
sg9
I5
sg10
(lp1771
g54
ag180
asg26
I00
sg27
I00
sg28
I5651033
sg20
S'18618.5793116'
p1772
sba(igraph
Edge
p1773
(dp1774
g7
I1
sg8
I00
sg9
I5
sg10
(lp1775
g61
ag194
asg26
I00
sg27
I00
sg28
I5651034
sg20
S'18618.5848132'
p1776
sba(igraph
Edge
p1777
(dp1778
g7
I1
sg8
I00
sg9
I5
sg10
(lp1779
g68
ag194
asg26
I00
sg27
I00
sg28
I5651035
sg20
S'18618.5903669'
p1780
sba(igraph
Edge
p1781
(dp1782
g7
I1
sg8
I00
sg9
I5
sg10
(lp1783
g75
ag208
asg26
I00
sg27
I00
sg28
I5651036
sg20
S'18618.5959889'
p1784
sba(igraph
Edge
p1785
(dp1786
g7
I1
sg8
I00
sg9
I5
sg10
(lp1787
g82
ag208
asg26
I00
sg27
I00
sg28
I5651037
sg20
S'18618.6016223'
p1788
sba(igraph
Edge
p1789
(dp1790
g7
I1
sg8
I00
sg9
I5
sg10
(lp1791
g89
ag222
asg26
I00
sg27
I00
sg28
I5651038
sg20
S'18618.6076624'
p1792
sba(igraph
Edge
p1793
(dp1794
g7
I1
sg8
I00
sg9
I5
sg10
(lp1795
g96
ag222
asg26
I00
sg27
I00
sg28
I5651039
sg20
S'18618.6133112'
p1796
sba(igraph
Edge
p1797
(dp1798
g7
I1
sg8
I00
sg9
I5
sg10
(lp1799
g103
ag236
asg26
I00
sg27
I00
sg28
I5651040
sg20
S'18618.618963'
p1800
sba(igraph
Edge
p1801
(dp1802
g7
I1
sg8
I00
sg9
I5
sg10
(lp1803
g110
ag236
asg26
I00
sg27
I00
sg28
I5651041
sg20
S'18618.6246308'
p1804
sba(igraph
Edge
p1805
(dp1806
g7
I1
sg8
I00
sg9
I5
sg10
(lp1807
g117
ag250
asg26
I00
sg27
I00
sg28
I5651042
sg20
S'18618.6303424'
p1808
sba(igraph
Edge
p1809
(dp1810
g7
I1
sg8
I00
sg9
I5
sg10
(lp1811
g124
ag250
asg26
I00
sg27
I00
sg28
I5651043
sg20
S'18618.636156'
p1812
sba(igraph
Edge
p1813
(dp1814
g7
I1
sg8
I00
sg9
I5
sg10
(lp1815
g131
ag264
asg26
I00
sg27
I00
sg28
I5651044
sg20
S'18618.6419478'
p1816
sba(igraph
Edge
p1817
(dp1818
g7
I1
sg8
I00
sg9
I5
sg10
(lp1819
g138
ag264
asg26
I00
sg27
I00
sg28
I5651045
sg20
S'18618.6476815'
p1820
sba(igraph
Edge
p1821
(dp1822
g7
I1
sg8
I00
sg9
I5
sg10
(lp1823
g145
ag278
asg26
I00
sg27
I00
sg28
I5651046
sg20
S'18618.6534417'
p1824
sba(igraph
Edge
p1825
(dp1826
g7
I1
sg8
I00
sg9
I5
sg10
(lp1827
g12
ag278
asg26
I00
sg27
I00
sg28
I5651047
sg20
S'18618.6592321'
p1828
sba(igraph
Edge
p1829
(dp1830
g7
I1
sg8
I00
sg9
I5
sg10
(lp1831
g23
ag159
asg26
I00
sg27
I00
sg28
I5651048
sg20
S'18618.6650524'
p1832
sba(igraph
Edge
p1833
(dp1834
g7
I1
sg8
I00
sg9
I5
sg10
(lp1835
g33
ag159
asg26
I00
sg27
I00
sg28
I5651049
sg20
S'18618.6709115'
p1836
sba(igraph
Edge
p1837
(dp1838
g7
I1
sg8
I00
sg9
I5
sg10
(lp1839
g40
ag173
asg26
I00
sg27
I00
sg28
I5651050
sg20
S'18618.6766938'
p1840
sba(igraph
Edge
p1841
(dp1842
g7
I1
sg8
I00
sg9
I5
sg10
(lp1843
g47
ag173
asg26
I00
sg27
I00
sg28
I5651051
sg20
S'18618.682532'
p1844
sba(igraph
Edge
p1845
(dp1846
g7
I1
sg8
I00
sg9
I5
sg10
(lp1847
g54
ag187
asg26
I00
sg27
I00
sg28
I5651052
sg20
S'18618.6884185'
p1848
sba(igraph
Edge
p1849
(dp1850
g7
I1
sg8
I00
sg9
I5
sg10
(lp1851
g61
ag187
asg26
I00
sg27
I00
sg28
I5651053
sg20
S'18618.694474'
p1852
sba(igraph
Edge
p1853
(dp1854
g7
I1
sg8
I00
sg9
I5
sg10
(lp1855
g68
ag201
asg26
I00
sg27
I00
sg28
I5651054
sg20
S'18618.7004089'
p1856
sba(igraph
Edge
p1857
(dp1858
g7
I1
sg8
I00
sg9
I5
sg10
(lp1859
g75
ag201
asg26
I00
sg27
I00
sg28
I5651055
sg20
S'18618.7064814'
p1860
sba(igraph
Edge
p1861
(dp1862
g7
I1
sg8
I00
sg9
I5
sg10
(lp1863
g82
ag215
asg26
I00
sg27
I00
sg28
I5651056
sg20
S'18618.7125777'
p1864
sba(igraph
Edge
p1865
(dp1866
g7
I1
sg8
I00
sg9
I5
sg10
(lp1867
g89
ag215
asg26
I00
sg27
I00
sg28
I5651057
sg20
S'18618.7186243'
p1868
sba(igraph
Edge
p1869
(dp1870
g7
I1
sg8
I00
sg9
I5
sg10
(lp1871
g96
ag229
asg26
I00
sg27
I00
sg28
I5651058
sg20
S'18618.7245653'
p1872
sba(igraph
Edge
p1873
(dp1874
g7
I1
sg8
I00
sg9
I5
sg10
(lp1875
g103
ag229
asg26
I00
sg27
I00
sg28
I5651059
sg20
S'18618.7307172'
p1876
sba(igraph
Edge
p1877
(dp1878
g7
I1
sg8
I00
sg9
I5
sg10
(lp1879
g110
ag243
asg26
I00
sg27
I00
sg28
I5651060
sg20
S'18618.736704'
p1880
sba(igraph
Edge
p1881
(dp1882
g7
I1
sg8
I00
sg9
I5
sg10
(lp1883
g117
ag243
asg26
I00
sg27
I00
sg28
I5651061
sg20
S'18618.742812'
p1884
sba(igraph
Edge
p1885
(dp1886
g7
I1
sg8
I00
sg9
I5
sg10
(lp1887
g124
ag257
asg26
I00
sg27
I00
sg28
I5651062
sg20
S'18618.7489823'
p1888
sba(igraph
Edge
p1889
(dp1890
g7
I1
sg8
I00
sg9
I5
sg10
(lp1891
g131
ag257
asg26
I00
sg27
I00
sg28
I5651063
sg20
S'18618.7551236'
p1892
sba(igraph
Edge
p1893
(dp1894
g7
I1
sg8
I00
sg9
I5
sg10
(lp1895
g138
ag271
asg26
I00
sg27
I00
sg28
I5651064
sg20
S'18618.761254'
p1896
sba(igraph
Edge
p1897
(dp1898
g7
I1
sg8
I00
sg9
I5
sg10
(lp1899
g145
ag271
asg26
I00
sg27
I00
sg28
I5651065
sg20
S'18618.7674593'
p1900
sba(igraph
Edge
p1901
(dp1902
g7
I1
sg8
I00
sg9
I5
sg10
(lp1903
g12
ag1619
asg26
I00
sg27
I00
sg28
I5651066
sg20
S'18618.7737302'
p1904
sba(igraph
Edge
p1905
(dp1906
g7
I1
sg8
I00
sg9
I5
sg10
(lp1907
g23
ag1629
asg26
I00
sg27
I00
sg28
I5651067
sg20
S'18618.7800896'
p1908
sba(igraph
Edge
p1909
(dp1910
g7
I1
sg8
I00
sg9
I5
sg10
(lp1911
g33
ag1629
asg26
I00
sg27
I00
sg28
I5651068
sg20
S'18618.7863161'
p1912
sba(igraph
Edge
p1913
(dp1914
g7
I1
sg8
I00
sg9
I5
sg10
(lp1915
g40
ag1643
asg26
I00
sg27
I00
sg28
I5651069
sg20
S'18618.7939755'
p1916
sba(igraph
Edge
p1917
(dp1918
g7
I1
sg8
I00
sg9
I5
sg10
(lp1919
g47
ag1643
asg26
I00
sg27
I00
sg28
I5651070
sg20
S'18618.8003956'
p1920
sba(igraph
Edge
p1921
(dp1922
g7
I1
sg8
I00
sg9
I5
sg10
(lp1923
g54
ag1657
asg26
I00
sg27
I00
sg28
I5651071
sg20
S'18618.8067185'
p1924
sba(igraph
Edge
p1925
(dp1926
g7
I1
sg8
I00
sg9
I5
sg10
(lp1927
g61
ag1657
asg26
I00
sg27
I00
sg28
I5651072
sg20
S'18618.813055'
p1928
sba(igraph
Edge
p1929
(dp1930
g7
I1
sg8
I00
sg9
I5
sg10
(lp1931
g68
ag1671
asg26
I00
sg27
I00
sg28
I5651073
sg20
S'18618.819443'
p1932
sba(igraph
Edge
p1933
(dp1934
g7
I1
sg8
I00
sg9
I5
sg10
(lp1935
g75
ag1671
asg26
I00
sg27
I00
sg28
I5651074
sg20
S'18618.8258329'
p1936
sba(igraph
Edge
p1937
(dp1938
g7
I1
sg8
I00
sg9
I5
sg10
(lp1939
g82
ag1685
asg26
I00
sg27
I00
sg28
I5651075
sg20
S'18618.8321647'
p1940
sba(igraph
Edge
p1941
(dp1942
g7
I1
sg8
I00
sg9
I5
sg10
(lp1943
g89
ag1685
asg26
I00
sg27
I00
sg28
I5651076
sg20
S'18618.838608'
p1944
sba(igraph
Edge
p1945
(dp1946
g7
I1
sg8
I00
sg9
I5
sg10
(lp1947
g96
ag1699
asg26
I00
sg27
I00
sg28
I5651077
sg20
S'18618.8452619'
p1948
sba(igraph
Edge
p1949
(dp1950
g7
I1
sg8
I00
sg9
I5
sg10
(lp1951
g103
ag1699
asg26
I00
sg27
I00
sg28
I5651078
sg20
S'18618.8517577'
p1952
sba(igraph
Edge
p1953
(dp1954
g7
I1
sg8
I00
sg9
I5
sg10
(lp1955
g110
ag1713
asg26
I00
sg27
I00
sg28
I5651079
sg20
S'18618.8582638'
p1956
sba(igraph
Edge
p1957
(dp1958
g7
I1
sg8
I00
sg9
I5
sg10
(lp1959
g117
ag1713
asg26
I00
sg27
I00
sg28
I5651080
sg20
S'18618.8648339'
p1960
sba(igraph
Edge
p1961
(dp1962
g7
I1
sg8
I00
sg9
I5
sg10
(lp1963
g124
ag1727
asg26
I00
sg27
I00
sg28
I5651081
sg20
S'18618.8713602'
p1964
sba(igraph
Edge
p1965
(dp1966
g7
I1
sg8
I00
sg9
I5
sg10
(lp1967
g131
ag1727
asg26
I00
sg27
I00
sg28
I5651082
sg20
S'18618.8780367'
p1968
sba(igraph
Edge
p1969
(dp1970
g7
I1
sg8
I00
sg9
I5
sg10
(lp1971
g138
ag1741
asg26
I00
sg27
I00
sg28
I5651083
sg20
S'18618.8848859'
p1972
sba(igraph
Edge
p1973
(dp1974
g7
I1
sg8
I00
sg9
I5
sg10
(lp1975
g145
ag1741
asg26
I00
sg27
I00
sg28
I5651084
sg20
S'18618.8915393'
p1976
sba(igraph
Edge
p1977
(dp1978
g7
I1
sg8
I00
sg9
I5
sg10
(lp1979
g12
ag1622
asg26
I00
sg27
I00
sg28
I5651085
sg20
S'18618.8982379'
p1980
sba(igraph
Edge
p1981
(dp1982
g7
I1
sg8
I00
sg9
I5
sg10
(lp1983
g23
ag1622
asg26
I00
sg27
I00
sg28
I5651086
sg20
S'18618.9048918'
p1984
sba(igraph
Edge
p1985
(dp1986
g7
I1
sg8
I00
sg9
I5
sg10
(lp1987
g33
ag1636
asg26
I00
sg27
I00
sg28
I5651087
sg20
S'18618.9115723'
p1988
sba(igraph
Edge
p1989
(dp1990
g7
I1
sg8
I00
sg9
I5
sg10
(lp1991
g40
ag1636
asg26
I00
sg27
I00
sg28
I5651088
sg20
S'18618.9184047'
p1992
sba(igraph
Edge
p1993
(dp1994
g7
I1
sg8
I00
sg9
I5
sg10
(lp1995
g47
ag1650
asg26
I00
sg27
I00
sg28
I5651089
sg20
S'18618.9251572'
p1996
sba(igraph
Edge
p1997
(dp1998
g7
I1
sg8
I00
sg9
I5
sg10
(lp1999
g54
ag1650
asg26
I00
sg27
I00
sg28
I5651090
sg20
S'18618.9318858'
p2000
sba(igraph
Edge
p2001
(dp2002
g7
I1
sg8
I00
sg9
I5
sg10
(lp2003
g61
ag1664
asg26
I00
sg27
I00
sg28
I5651091
sg20
S'18618.9386581'
p2004
sba(igraph
Edge
p2005
(dp2006
g7
I1
sg8
I00
sg9
I5
sg10
(lp2007
g68
ag1664
asg26
I00
sg27
I00
sg28
I5651092
sg20
S'18618.9454338'
p2008
sba(igraph
Edge
p2009
(dp2010
g7
I1
sg8
I00
sg9
I5
sg10
(lp2011
g75
ag1678
asg26
I00
sg27
I00
sg28
I5651093
sg20
S'18618.952278'
p2012
sba(igraph
Edge
p2013
(dp2014
g7
I1
sg8
I00
sg9
I5
sg10
(lp2015
g82
ag1678
asg26
I00
sg27
I00
sg28
I5651094
sg20
S'18618.9590322'
p2016
sba(igraph
Edge
p2017
(dp2018
g7
I1
sg8
I00
sg9
I5
sg10
(lp2019
g89
ag1692
asg26
I00
sg27
I00
sg28
I5651095
sg20
S'18618.9659013'
p2020
sba(igraph
Edge
p2021
(dp2022
g7
I1
sg8
I00
sg9
I5
sg10
(lp2023
g96
ag1692
asg26
I00
sg27
I00
sg28
I5651096
sg20
S'18618.9727999'
p2024
sba(igraph
Edge
p2025
(dp2026
g7
I1
sg8
I00
sg9
I5
sg10
(lp2027
g103
ag1706
asg26
I00
sg27
I00
sg28
I5651097
sg20
S'18618.9797525'
p2028
sba(igraph
Edge
p2029
(dp2030
g7
I1
sg8
I00
sg9
I5
sg10
(lp2031
g110
ag1706
asg26
I00
sg27
I00
sg28
I5651098
sg20
S'18618.9872076'
p2032
sba(igraph
Edge
p2033
(dp2034
g7
I1
sg8
I00
sg9
I5
sg10
(lp2035
g117
ag1720
asg26
I00
sg27
I00
sg28
I5651099
sg20
S'18618.9941163'
p2036
sba(igraph
Edge
p2037
(dp2038
g7
I1
sg8
I00
sg9
I5
sg10
(lp2039
g124
ag1720
asg26
I00
sg27
I00
sg28
I5651100
sg20
S'18619.001211'
p2040
sba(igraph
Edge
p2041
(dp2042
g7
I1
sg8
I00
sg9
I5
sg10
(lp2043
g131
ag1734
asg26
I00
sg27
I00
sg28
I5651101
sg20
S'18619.0081896'
p2044
sba(igraph
Edge
p2045
(dp2046
g7
I1
sg8
I00
sg9
I5
sg10
(lp2047
g138
ag1734
asg26
I00
sg27
I00
sg28
I5651102
sg20
S'18619.0151793'
p2048
sba(igraph
Edge
p2049
(dp2050
g7
I1
sg8
I00
sg9
I5
sg10
(lp2051
g145
ag1619
asg26
I00
sg27
I00
sg28
I5651103
sg20
S'18619.022207'
p2052
sba(igraph
Edge
p2053
(dp2054
g7
I1
sg8
I00
sg9
I5
sg10
(lp2055
g156
ag289
asg26
I00
sg27
I00
sg28
I5651104
sg20
S'18619.0292277'
p2056
sba(igraph
Edge
p2057
(dp2058
g7
I1
sg8
I00
sg9
I5
sg10
(lp2059
g159
ag289
asg26
I00
sg27
I00
sg28
I5651105
sg20
S'18619.0363745'
p2060
sba(igraph
Edge
p2061
(dp2062
g7
I1
sg8
I00
sg9
I5
sg10
(lp2063
g166
ag299
asg26
I00
sg27
I00
sg28
I5651106
sg20
S'18619.0435533'
p2064
sba(igraph
Edge
p2065
(dp2066
g7
I1
sg8
I00
sg9
I5
sg10
(lp2067
g173
ag299
asg26
I00
sg27
I00
sg28
I5651107
sg20
S'18619.0506092'
p2068
sba(igraph
Edge
p2069
(dp2070
g7
I1
sg8
I00
sg9
I5
sg10
(lp2071
g180
ag313
asg26
I00
sg27
I00
sg28
I5651108
sg20
S'18619.0578652'
p2072
sba(igraph
Edge
p2073
(dp2074
g7
I1
sg8
I00
sg9
I5
sg10
(lp2075
g187
ag313
asg26
I00
sg27
I00
sg28
I5651109
sg20
S'18619.0650423'
p2076
sba(igraph
Edge
p2077
(dp2078
g7
I1
sg8
I00
sg9
I5
sg10
(lp2079
g194
ag327
asg26
I00
sg27
I00
sg28
I5651110
sg20
S'18619.0726925'
p2080
sba(igraph
Edge
p2081
(dp2082
g7
I1
sg8
I00
sg9
I5
sg10
(lp2083
g201
ag327
asg26
I00
sg27
I00
sg28
I5651111
sg20
S'18619.0799621'
p2084
sba(igraph
Edge
p2085
(dp2086
g7
I1
sg8
I00
sg9
I5
sg10
(lp2087
g208
ag341
asg26
I00
sg27
I00
sg28
I5651112
sg20
S'18619.0883517'
p2088
sba(igraph
Edge
p2089
(dp2090
g7
I1
sg8
I00
sg9
I5
sg10
(lp2091
g215
ag341
asg26
I00
sg27
I00
sg28
I5651113
sg20
S'18619.0955764'
p2092
sba(igraph
Edge
p2093
(dp2094
g7
I1
sg8
I00
sg9
I5
sg10
(lp2095
g222
ag355
asg26
I00
sg27
I00
sg28
I5651114
sg20
S'18619.1029139'
p2096
sba(igraph
Edge
p2097
(dp2098
g7
I1
sg8
I00
sg9
I5
sg10
(lp2099
g229
ag355
asg26
I00
sg27
I00
sg28
I5651115
sg20
S'18619.1102749'
p2100
sba(igraph
Edge
p2101
(dp2102
g7
I1
sg8
I00
sg9
I5
sg10
(lp2103
g236
ag369
asg26
I00
sg27
I00
sg28
I5651116
sg20
S'18619.1176404'
p2104
sba(igraph
Edge
p2105
(dp2106
g7
I1
sg8
I00
sg9
I5
sg10
(lp2107
g243
ag369
asg26
I00
sg27
I00
sg28
I5651117
sg20
S'18619.1251547'
p2108
sba(igraph
Edge
p2109
(dp2110
g7
I1
sg8
I00
sg9
I5
sg10
(lp2111
g250
ag383
asg26
I00
sg27
I00
sg28
I5651118
sg20
S'18619.1325808'
p2112
sba(igraph
Edge
p2113
(dp2114
g7
I1
sg8
I00
sg9
I5
sg10
(lp2115
g257
ag383
asg26
I00
sg27
I00
sg28
I5651119
sg20
S'18619.1398748'
p2116
sba(igraph
Edge
p2117
(dp2118
g7
I1
sg8
I00
sg9
I5
sg10
(lp2119
g264
ag397
asg26
I00
sg27
I00
sg28
I5651120
sg20
S'18619.1473947'
p2120
sba(igraph
Edge
p2121
(dp2122
g7
I1
sg8
I00
sg9
I5
sg10
(lp2123
g271
ag397
asg26
I00
sg27
I00
sg28
I5651121
sg20
S'18619.1547951'
p2124
sba(igraph
Edge
p2125
(dp2126
g7
I1
sg8
I00
sg9
I5
sg10
(lp2127
g278
ag411
asg26
I00
sg27
I00
sg28
I5651122
sg20
S'18619.1621784'
p2128
sba(igraph
Edge
p2129
(dp2130
g7
I1
sg8
I00
sg9
I5
sg10
(lp2131
g156
ag411
asg26
I00
sg27
I00
sg28
I5651123
sg20
S'18619.1696439'
p2132
sba(igraph
Edge
p2133
(dp2134
g7
I1
sg8
I00
sg9
I5
sg10
(lp2135
g159
ag292
asg26
I00
sg27
I00
sg28
I5651124
sg20
S'18619.1771513'
p2136
sba(igraph
Edge
p2137
(dp2138
g7
I1
sg8
I00
sg9
I5
sg10
(lp2139
g166
ag292
asg26
I00
sg27
I00
sg28
I5651125
sg20
S'18619.1845899'
p2140
sba(igraph
Edge
p2141
(dp2142
g7
I1
sg8
I00
sg9
I5
sg10
(lp2143
g173
ag306
asg26
I00
sg27
I00
sg28
I5651126
sg20
S'18619.1923736'
p2144
sba(igraph
Edge
p2145
(dp2146
g7
I1
sg8
I00
sg9
I5
sg10
(lp2147
g180
ag306
asg26
I00
sg27
I00
sg28
I5651127
sg20
S'18619.2009834'
p2148
sba(igraph
Edge
p2149
(dp2150
g7
I1
sg8
I00
sg9
I5
sg10
(lp2151
g187
ag320
asg26
I00
sg27
I00
sg28
I5651128
sg20
S'18619.2092308'
p2152
sba(igraph
Edge
p2153
(dp2154
g7
I1
sg8
I00
sg9
I5
sg10
(lp2155
g194
ag320
asg26
I00
sg27
I00
sg28
I5651129
sg20
S'18619.2181598'
p2156
sba(igraph
Edge
p2157
(dp2158
g7
I1
sg8
I00
sg9
I5
sg10
(lp2159
g201
ag334
asg26
I00
sg27
I00
sg28
I5651130
sg20
S'18619.2269294'
p2160
sba(igraph
Edge
p2161
(dp2162
g7
I1
sg8
I00
sg9
I5
sg10
(lp2163
g208
ag334
asg26
I00
sg27
I00
sg28
I5651131
sg20
S'18619.2356104'
p2164
sba(igraph
Edge
p2165
(dp2166
g7
I1
sg8
I00
sg9
I5
sg10
(lp2167
g215
ag348
asg26
I00
sg27
I00
sg28
I5651132
sg20
S'18619.2443087'
p2168
sba(igraph
Edge
p2169
(dp2170
g7
I1
sg8
I00
sg9
I5
sg10
(lp2171
g222
ag348
asg26
I00
sg27
I00
sg28
I5651133
sg20
S'18619.2572975'
p2172
sba(igraph
Edge
p2173
(dp2174
g7
I1
sg8
I00
sg9
I5
sg10
(lp2175
g229
ag362
asg26
I00
sg27
I00
sg28
I5651134
sg20
S'18619.2665367'
p2176
sba(igraph
Edge
p2177
(dp2178
g7
I1
sg8
I00
sg9
I5
sg10
(lp2179
g236
ag362
asg26
I00
sg27
I00
sg28
I5651135
sg20
S'18619.275868'
p2180
sba(igraph
Edge
p2181
(dp2182
g7
I1
sg8
I00
sg9
I5
sg10
(lp2183
g243
ag376
asg26
I00
sg27
I00
sg28
I5651136
sg20
S'18619.2852745'
p2184
sba(igraph
Edge
p2185
(dp2186
g7
I1
sg8
I00
sg9
I5
sg10
(lp2187
g250
ag376
asg26
I00
sg27
I00
sg28
I5651137
sg20
S'18619.2969671'
p2188
sba(igraph
Edge
p2189
(dp2190
g7
I1
sg8
I00
sg9
I5
sg10
(lp2191
g257
ag390
asg26
I00
sg27
I00
sg28
I5651138
sg20
S'18619.3067641'
p2192
sba(igraph
Edge
p2193
(dp2194
g7
I1
sg8
I00
sg9
I5
sg10
(lp2195
g264
ag390
asg26
I00
sg27
I00
sg28
I5651139
sg20
S'18619.3166134'
p2196
sba(igraph
Edge
p2197
(dp2198
g7
I1
sg8
I00
sg9
I5
sg10
(lp2199
g271
ag404
asg26
I00
sg27
I00
sg28
I5651140
sg20
S'18619.3273128'
p2200
sba(igraph
Edge
p2201
(dp2202
g7
I1
sg8
I00
sg9
I5
sg10
(lp2203
g278
ag404
asg26
I00
sg27
I00
sg28
I5651141
sg20
S'18619.3373468'
p2204
sba(igraph
Edge
p2205
(dp2206
g7
I1
sg8
I00
sg9
I5
sg10
(lp2207
g289
ag422
asg26
I00
sg27
I00
sg28
I5651142
sg20
S'18619.346931'
p2208
sba(igraph
Edge
p2209
(dp2210
g7
I1
sg8
I00
sg9
I5
sg10
(lp2211
g292
ag422
asg26
I00
sg27
I00
sg28
I5651143
sg20
S'18619.3559964'
p2212
sba(igraph
Edge
p2213
(dp2214
g7
I1
sg8
I00
sg9
I5
sg10
(lp2215
g299
ag432
asg26
I00
sg27
I00
sg28
I5651144
sg20
S'18619.3650961'
p2216
sba(igraph
Edge
p2217
(dp2218
g7
I1
sg8
I00
sg9
I5
sg10
(lp2219
g306
ag432
asg26
I00
sg27
I00
sg28
I5651145
sg20
S'18619.3741336'
p2220
sba(igraph
Edge
p2221
(dp2222
g7
I1
sg8
I00
sg9
I5
sg10
(lp2223
g313
ag446
asg26
I00
sg27
I00
sg28
I5651146
sg20
S'18619.384074'
p2224
sba(igraph
Edge
p2225
(dp2226
g7
I1
sg8
I00
sg9
I5
sg10
(lp2227
g320
ag446
asg26
I00
sg27
I00
sg28
I5651147
sg20
S'18619.3935648'
p2228
sba(igraph
Edge
p2229
(dp2230
g7
I1
sg8
I00
sg9
I5
sg10
(lp2231
g327
ag460
asg26
I00
sg27
I00
sg28
I5651148
sg20
S'18619.4038821'
p2232
sba(igraph
Edge
p2233
(dp2234
g7
I1
sg8
I00
sg9
I5
sg10
(lp2235
g334
ag460
asg26
I00
sg27
I00
sg28
I5651149
sg20
S'18619.4144993'
p2236
sba(igraph
Edge
p2237
(dp2238
g7
I1
sg8
I00
sg9
I5
sg10
(lp2239
g341
ag474
asg26
I00
sg27
I00
sg28
I5651150
sg20
S'18619.4251484'
p2240
sba(igraph
Edge
p2241
(dp2242
g7
I1
sg8
I00
sg9
I5
sg10
(lp2243
g348
ag474
asg26
I00
sg27
I00
sg28
I5651151
sg20
S'18619.4359775'
p2244
sba(igraph
Edge
p2245
(dp2246
g7
I1
sg8
I00
sg9
I5
sg10
(lp2247
g355
ag488
asg26
I00
sg27
I00
sg28
I5651152
sg20
S'18619.4468339'
p2248
sba(igraph
Edge
p2249
(dp2250
g7
I1
sg8
I00
sg9
I5
sg10
(lp2251
g362
ag488
asg26
I00
sg27
I00
sg28
I5651153
sg20
S'18619.4563197'
p2252
sba(igraph
Edge
p2253
(dp2254
g7
I1
sg8
I00
sg9
I5
sg10
(lp2255
g369
ag502
asg26
I00
sg27
I00
sg28
I5651154
sg20
S'18619.4657966'
p2256
sba(igraph
Edge
p2257
(dp2258
g7
I1
sg8
I00
sg9
I5
sg10
(lp2259
g376
ag502
asg26
I00
sg27
I00
sg28
I5651155
sg20
S'18619.475066'
p2260
sba(igraph
Edge
p2261
(dp2262
g7
I1
sg8
I00
sg9
I5
sg10
(lp2263
g383
ag516
asg26
I00
sg27
I00
sg28
I5651156
sg20
S'18619.4842984'
p2264
sba(igraph
Edge
p2265
(dp2266
g7
I1
sg8
I00
sg9
I5
sg10
(lp2267
g390
ag516
asg26
I00
sg27
I00
sg28
I5651157
sg20
S'18619.4934032'
p2268
sba(igraph
Edge
p2269
(dp2270
g7
I1
sg8
I00
sg9
I5
sg10
(lp2271
g397
ag530
asg26
I00
sg27
I00
sg28
I5651158
sg20
S'18619.5026614'
p2272
sba(igraph
Edge
p2273
(dp2274
g7
I1
sg8
I00
sg9
I5
sg10
(lp2275
g404
ag530
asg26
I00
sg27
I00
sg28
I5651159
sg20
S'18619.5121827'
p2276
sba(igraph
Edge
p2277
(dp2278
g7
I1
sg8
I00
sg9
I5
sg10
(lp2279
g411
ag544
asg26
I00
sg27
I00
sg28
I5651160
sg20
S'18619.5220091'
p2280
sba(igraph
Edge
p2281
(dp2282
g7
I1
sg8
I00
sg9
I5
sg10
(lp2283
g289
ag544
asg26
I00
sg27
I00
sg28
I5651161
sg20
S'18619.5315938'
p2284
sba(igraph
Edge
p2285
(dp2286
g7
I1
sg8
I00
sg9
I5
sg10
(lp2287
g292
ag425
asg26
I00
sg27
I00
sg28
I5651162
sg20
S'18619.5472028'
p2288
sba(igraph
Edge
p2289
(dp2290
g7
I1
sg8
I00
sg9
I5
sg10
(lp2291
g299
ag425
asg26
I00
sg27
I00
sg28
I5651163
sg20
S'18619.5578332'
p2292
sba(igraph
Edge
p2293
(dp2294
g7
I1
sg8
I00
sg9
I5
sg10
(lp2295
g306
ag439
asg26
I00
sg27
I00
sg28
I5651164
sg20
S'18619.568441'
p2296
sba(igraph
Edge
p2297
(dp2298
g7
I1
sg8
I00
sg9
I5
sg10
(lp2299
g313
ag439
asg26
I00
sg27
I00
sg28
I5651165
sg20
S'18619.5785632'
p2300
sba(igraph
Edge
p2301
(dp2302
g7
I1
sg8
I00
sg9
I5
sg10
(lp2303
g320
ag453
asg26
I00
sg27
I00
sg28
I5651166
sg20
S'18619.5891226'
p2304
sba(igraph
Edge
p2305
(dp2306
g7
I1
sg8
I00
sg9
I5
sg10
(lp2307
g327
ag453
asg26
I00
sg27
I00
sg28
I5651167
sg20
S'18619.5991211'
p2308
sba(igraph
Edge
p2309
(dp2310
g7
I1
sg8
I00
sg9
I5
sg10
(lp2311
g334
ag467
asg26
I00
sg27
I00
sg28
I5651168
sg20
S'18619.6091621'
p2312
sba(igraph
Edge
p2313
(dp2314
g7
I1
sg8
I00
sg9
I5
sg10
(lp2315
g341
ag467
asg26
I00
sg27
I00
sg28
I5651169
sg20
S'18619.6197824'
p2316
sba(igraph
Edge
p2317
(dp2318
g7
I1
sg8
I00
sg9
I5
sg10
(lp2319
g348
ag481
asg26
I00
sg27
I00
sg28
I5651170
sg20
S'18619.6295007'
p2320
sba(igraph
Edge
p2321
(dp2322
g7
I1
sg8
I00
sg9
I5
sg10
(lp2323
g355
ag481
asg26
I00
sg27
I00
sg28
I5651171
sg20
S'18619.639486'
p2324
sba(igraph
Edge
p2325
(dp2326
g7
I1
sg8
I00
sg9
I5
sg10
(lp2327
g362
ag495
asg26
I00
sg27
I00
sg28
I5651172
sg20
S'18619.6530643'
p2328
sba(igraph
Edge
p2329
(dp2330
g7
I1
sg8
I00
sg9
I5
sg10
(lp2331
g369
ag495
asg26
I00
sg27
I00
sg28
I5651173
sg20
S'18619.6631496'
p2332
sba(igraph
Edge
p2333
(dp2334
g7
I1
sg8
I00
sg9
I5
sg10
(lp2335
g376
ag509
asg26
I00
sg27
I00
sg28
I5651174
sg20
S'18619.6738641'
p2336
sba(igraph
Edge
p2337
(dp2338
g7
I1
sg8
I00
sg9
I5
sg10
(lp2339
g383
ag509
asg26
I00
sg27
I00
sg28
I5651175
sg20
S'18619.6847524'
p2340
sba(igraph
Edge
p2341
(dp2342
g7
I1
sg8
I00
sg9
I5
sg10
(lp2343
g390
ag523
asg26
I00
sg27
I00
sg28
I5651176
sg20
S'18619.6965282'
p2344
sba(igraph
Edge
p2345
(dp2346
g7
I1
sg8
I00
sg9
I5
sg10
(lp2347
g397
ag523
asg26
I00
sg27
I00
sg28
I5651177
sg20
S'18619.7073893'
p2348
sba(igraph
Edge
p2349
(dp2350
g7
I1
sg8
I00
sg9
I5
sg10
(lp2351
g404
ag537
asg26
I00
sg27
I00
sg28
I5651178
sg20
S'18619.7172051'
p2352
sba(igraph
Edge
p2353
(dp2354
g7
I1
sg8
I00
sg9
I5
sg10
(lp2355
g411
ag537
asg26
I00
sg27
I00
sg28
I5651179
sg20
S'18619.7272514'
p2356
sba(igraph
Edge
p2357
(dp2358
g7
I1
sg8
I00
sg9
I5
sg10
(lp2359
g422
ag555
asg26
I00
sg27
I00
sg28
I5651180
sg20
S'18619.737342'
p2360
sba(igraph
Edge
p2361
(dp2362
g7
I1
sg8
I00
sg9
I5
sg10
(lp2363
g425
ag555
asg26
I00
sg27
I00
sg28
I5651181
sg20
S'18619.7471721'
p2364
sba(igraph
Edge
p2365
(dp2366
g7
I1
sg8
I00
sg9
I5
sg10
(lp2367
g432
ag565
asg26
I00
sg27
I00
sg28
I5651182
sg20
S'18619.7572317'
p2368
sba(igraph
Edge
p2369
(dp2370
g7
I1
sg8
I00
sg9
I5
sg10
(lp2371
g439
ag565
asg26
I00
sg27
I00
sg28
I5651183
sg20
S'18619.7663116'
p2372
sba(igraph
Edge
p2373
(dp2374
g7
I1
sg8
I00
sg9
I5
sg10
(lp2375
g446
ag579
asg26
I00
sg27
I00
sg28
I5651184
sg20
S'18619.7751868'
p2376
sba(igraph
Edge
p2377
(dp2378
g7
I1
sg8
I00
sg9
I5
sg10
(lp2379
g453
ag579
asg26
I00
sg27
I00
sg28
I5651185
sg20
S'18619.7839876'
p2380
sba(igraph
Edge
p2381
(dp2382
g7
I1
sg8
I00
sg9
I5
sg10
(lp2383
g460
ag593
asg26
I00
sg27
I00
sg28
I5651186
sg20
S'18619.7938766'
p2384
sba(igraph
Edge
p2385
(dp2386
g7
I1
sg8
I00
sg9
I5
sg10
(lp2387
g467
ag593
asg26
I00
sg27
I00
sg28
I5651187
sg20
S'18619.8030062'
p2388
sba(igraph
Edge
p2389
(dp2390
g7
I1
sg8
I00
sg9
I5
sg10
(lp2391
g474
ag607
asg26
I00
sg27
I00
sg28
I5651188
sg20
S'18619.8122359'
p2392
sba(igraph
Edge
p2393
(dp2394
g7
I1
sg8
I00
sg9
I5
sg10
(lp2395
g481
ag607
asg26
I00
sg27
I00
sg28
I5651189
sg20
S'18619.8215052'
p2396
sba(igraph
Edge
p2397
(dp2398
g7
I1
sg8
I00
sg9
I5
sg10
(lp2399
g488
ag621
asg26
I00
sg27
I00
sg28
I5651190
sg20
S'18619.8304117'
p2400
sba(igraph
Edge
p2401
(dp2402
g7
I1
sg8
I00
sg9
I5
sg10
(lp2403
g495
ag621
asg26
I00
sg27
I00
sg28
I5651191
sg20
S'18619.8393461'
p2404
sba(igraph
Edge
p2405
(dp2406
g7
I1
sg8
I00
sg9
I5
sg10
(lp2407
g502
ag635
asg26
I00
sg27
I00
sg28
I5651192
sg20
S'18619.8483514'
p2408
sba(igraph
Edge
p2409
(dp2410
g7
I1
sg8
I00
sg9
I5
sg10
(lp2411
g509
ag635
asg26
I00
sg27
I00
sg28
I5651193
sg20
S'18619.8573439'
p2412
sba(igraph
Edge
p2413
(dp2414
g7
I1
sg8
I00
sg9
I5
sg10
(lp2415
g516
ag649
asg26
I00
sg27
I00
sg28
I5651194
sg20
S'18619.86643'
p2416
sba(igraph
Edge
p2417
(dp2418
g7
I1
sg8
I00
sg9
I5
sg10
(lp2419
g523
ag649
asg26
I00
sg27
I00
sg28
I5651195
sg20
S'18619.8756493'
p2420
sba(igraph
Edge
p2421
(dp2422
g7
I1
sg8
I00
sg9
I5
sg10
(lp2423
g530
ag663
asg26
I00
sg27
I00
sg28
I5651196
sg20
S'18619.8848206'
p2424
sba(igraph
Edge
p2425
(dp2426
g7
I1
sg8
I00
sg9
I5
sg10
(lp2427
g537
ag663
asg26
I00
sg27
I00
sg28
I5651197
sg20
S'18619.8939267'
p2428
sba(igraph
Edge
p2429
(dp2430
g7
I1
sg8
I00
sg9
I5
sg10
(lp2431
g544
ag677
asg26
I00
sg27
I00
sg28
I5651198
sg20
S'18619.9032282'
p2432
sba(igraph
Edge
p2433
(dp2434
g7
I1
sg8
I00
sg9
I5
sg10
(lp2435
g422
ag677
asg26
I00
sg27
I00
sg28
I5651199
sg20
S'18619.9125076'
p2436
sba(igraph
Edge
p2437
(dp2438
g7
I1
sg8
I00
sg9
I5
sg10
(lp2439
g425
ag558
asg26
I00
sg27
I00
sg28
I5651200
sg20
S'18619.9217306'
p2440
sba(igraph
Edge
p2441
(dp2442
g7
I1
sg8
I00
sg9
I5
sg10
(lp2443
g432
ag558
asg26
I00
sg27
I00
sg28
I5651201
sg20
S'18619.9309328'
p2444
sba(igraph
Edge
p2445
(dp2446
g7
I1
sg8
I00
sg9
I5
sg10
(lp2447
g439
ag572
asg26
I00
sg27
I00
sg28
I5651202
sg20
S'18619.9402575'
p2448
sba(igraph
Edge
p2449
(dp2450
g7
I1
sg8
I00
sg9
I5
sg10
(lp2451
g446
ag572
asg26
I00
sg27
I00
sg28
I5651203
sg20
S'18619.9495405'
p2452
sba(igraph
Edge
p2453
(dp2454
g7
I1
sg8
I00
sg9
I5
sg10
(lp2455
g453
ag586
asg26
I00
sg27
I00
sg28
I5651204
sg20
S'18619.9588202'
p2456
sba(igraph
Edge
p2457
(dp2458
g7
I1
sg8
I00
sg9
I5
sg10
(lp2459
g460
ag586
asg26
I00
sg27
I00
sg28
I5651205
sg20
S'18619.9680521'
p2460
sba(igraph
Edge
p2461
(dp2462
g7
I1
sg8
I00
sg9
I5
sg10
(lp2463
g467
ag600
asg26
I00
sg27
I00
sg28
I5651206
sg20
S'18619.9773237'
p2464
sba(igraph
Edge
p2465
(dp2466
g7
I1
sg8
I00
sg9
I5
sg10
(lp2467
g474
ag600
asg26
I00
sg27
I00
sg28
I5651207
sg20
S'18619.9866307'
p2468
sba(igraph
Edge
p2469
(dp2470
g7
I1
sg8
I00
sg9
I5
sg10
(lp2471
g481
ag614
asg26
I00
sg27
I00
sg28
I5651208
sg20
S'18619.9959844'
p2472
sba(igraph
Edge
p2473
(dp2474
g7
I1
sg8
I00
sg9
I5
sg10
(lp2475
g488
ag614
asg26
I00
sg27
I00
sg28
I5651209
sg20
S'18620.0053809'
p2476
sba(igraph
Edge
p2477
(dp2478
g7
I1
sg8
I00
sg9
I5
sg10
(lp2479
g495
ag628
asg26
I00
sg27
I00
sg28
I5651210
sg20
S'18620.0151357'
p2480
sba(igraph
Edge
p2481
(dp2482
g7
I1
sg8
I00
sg9
I5
sg10
(lp2483
g502
ag628
asg26
I00
sg27
I00
sg28
I5651211
sg20
S'18620.0245788'
p2484
sba(igraph
Edge
p2485
(dp2486
g7
I1
sg8
I00
sg9
I5
sg10
(lp2487
g509
ag642
asg26
I00
sg27
I00
sg28
I5651212
sg20
S'18620.0342043'
p2488
sba(igraph
Edge
p2489
(dp2490
g7
I1
sg8
I00
sg9
I5
sg10
(lp2491
g516
ag642
asg26
I00
sg27
I00
sg28
I5651213
sg20
S'18620.0436366'
p2492
sba(igraph
Edge
p2493
(dp2494
g7
I1
sg8
I00
sg9
I5
sg10
(lp2495
g523
ag656
asg26
I00
sg27
I00
sg28
I5651214
sg20
S'18620.0531635'
p2496
sba(igraph
Edge
p2497
(dp2498
g7
I1
sg8
I00
sg9
I5
sg10
(lp2499
g530
ag656
asg26
I00
sg27
I00
sg28
I5651215
sg20
S'18620.0626943'
p2500
sba(igraph
Edge
p2501
(dp2502
g7
I1
sg8
I00
sg9
I5
sg10
(lp2503
g537
ag670
asg26
I00
sg27
I00
sg28
I5651216
sg20
S'18620.0741929'
p2504
sba(igraph
Edge
p2505
(dp2506
g7
I1
sg8
I00
sg9
I5
sg10
(lp2507
g544
ag670
asg26
I00
sg27
I00
sg28
I5651217
sg20
S'18620.0839059'
p2508
sba(igraph
Edge
p2509
(dp2510
g7
I1
sg8
I00
sg9
I5
sg10
(lp2511
g555
ag688
asg26
I00
sg27
I00
sg28
I5651218
sg20
S'18620.0940304'
p2512
sba(igraph
Edge
p2513
(dp2514
g7
I1
sg8
I00
sg9
I5
sg10
(lp2515
g558
ag688
asg26
I00
sg27
I00
sg28
I5651219
sg20
S'18620.1037059'
p2516
sba(igraph
Edge
p2517
(dp2518
g7
I1
sg8
I00
sg9
I5
sg10
(lp2519
g565
ag698
asg26
I00
sg27
I00
sg28
I5651220
sg20
S'18620.1135605'
p2520
sba(igraph
Edge
p2521
(dp2522
g7
I1
sg8
I00
sg9
I5
sg10
(lp2523
g572
ag698
asg26
I00
sg27
I00
sg28
I5651221
sg20
S'18620.1231617'
p2524
sba(igraph
Edge
p2525
(dp2526
g7
I1
sg8
I00
sg9
I5
sg10
(lp2527
g579
ag712
asg26
I00
sg27
I00
sg28
I5651222
sg20
S'18620.1327719'
p2528
sba(igraph
Edge
p2529
(dp2530
g7
I1
sg8
I00
sg9
I5
sg10
(lp2531
g586
ag712
asg26
I00
sg27
I00
sg28
I5651223
sg20
S'18620.1424279'
p2532
sba(igraph
Edge
p2533
(dp2534
g7
I1
sg8
I00
sg9
I5
sg10
(lp2535
g593
ag726
asg26
I00
sg27
I00
sg28
I5651224
sg20
S'18620.1520023'
p2536
sba(igraph
Edge
p2537
(dp2538
g7
I1
sg8
I00
sg9
I5
sg10
(lp2539
g600
ag726
asg26
I00
sg27
I00
sg28
I5651225
sg20
S'18620.1616731'
p2540
sba(igraph
Edge
p2541
(dp2542
g7
I1
sg8
I01
sg9
I5
sg10
(lp2543
g607
ag740
asg26
I00
sg27
I00
sg28
I5651227
sg20
S'18620.171386'
p2544
sba(igraph
Edge
p2545
(dp2546
g7
I1
sg8
I00
sg9
I5
sg10
(lp2547
g614
ag740
asg26
I00
sg27
I00
sg28
I5651228
sg20
S'18620.1811306'
p2548
sba(igraph
Edge
p2549
(dp2550
g7
I1
sg8
I00
sg9
I5
sg10
(lp2551
g621
ag754
asg26
I00
sg27
I00
sg28
I5651229
sg20
S'18620.190924'
p2552
sba(igraph
Edge
p2553
(dp2554
g7
I1
sg8
I00
sg9
I5
sg10
(lp2555
g628
ag754
asg26
I00
sg27
I00
sg28
I5651230
sg20
S'18620.2037745'
p2556
sba(igraph
Edge
p2557
(dp2558
g7
I1
sg8
I00
sg9
I5
sg10
(lp2559
g635
ag768
asg26
I00
sg27
I00
sg28
I5651231
sg20
S'18620.2137995'
p2560
sba(igraph
Edge
p2561
(dp2562
g7
I1
sg8
I00
sg9
I5
sg10
(lp2563
g642
ag768
asg26
I00
sg27
I00
sg28
I5651232
sg20
S'18620.2236441'
p2564
sba(igraph
Edge
p2565
(dp2566
g7
I1
sg8
I00
sg9
I5
sg10
(lp2567
g649
ag782
asg26
I00
sg27
I00
sg28
I5651233
sg20
S'18620.2334964'
p2568
sba(igraph
Edge
p2569
(dp2570
g7
I1
sg8
I00
sg9
I5
sg10
(lp2571
g656
ag782
asg26
I00
sg27
I00
sg28
I5651234
sg20
S'18620.24673'
p2572
sba(igraph
Edge
p2573
(dp2574
g7
I1
sg8
I00
sg9
I5
sg10
(lp2575
g663
ag796
asg26
I00
sg27
I00
sg28
I5651235
sg20
S'18620.256893'
p2576
sba(igraph
Edge
p2577
(dp2578
g7
I1
sg8
I00
sg9
I5
sg10
(lp2579
g670
ag796
asg26
I00
sg27
I00
sg28
I5651236
sg20
S'18620.2669853'
p2580
sba(igraph
Edge
p2581
(dp2582
g7
I1
sg8
I00
sg9
I5
sg10
(lp2583
g677
ag810
asg26
I00
sg27
I00
sg28
I5651237
sg20
S'18620.2769223'
p2584
sba(igraph
Edge
p2585
(dp2586
g7
I1
sg8
I00
sg9
I5
sg10
(lp2587
g555
ag810
asg26
I00
sg27
I00
sg28
I5651238
sg20
S'18620.2868216'
p2588
sba(igraph
Edge
p2589
(dp2590
g7
I1
sg8
I00
sg9
I5
sg10
(lp2591
g558
ag691
asg26
I00
sg27
I00
sg28
I5651239
sg20
S'18620.2985555'
p2592
sba(igraph
Edge
p2593
(dp2594
g7
I1
sg8
I00
sg9
I5
sg10
(lp2595
g565
ag691
asg26
I00
sg27
I00
sg28
I5651240
sg20
S'18620.3087387'
p2596
sba(igraph
Edge
p2597
(dp2598
g7
I1
sg8
I00
sg9
I5
sg10
(lp2599
g572
ag705
asg26
I00
sg27
I00
sg28
I5651241
sg20
S'18620.3189419'
p2600
sba(igraph
Edge
p2601
(dp2602
g7
I1
sg8
I00
sg9
I5
sg10
(lp2603
g579
ag705
asg26
I00
sg27
I00
sg28
I5651242
sg20
S'18620.3291036'
p2604
sba(igraph
Edge
p2605
(dp2606
g7
I1
sg8
I00
sg9
I5
sg10
(lp2607
g586
ag719
asg26
I00
sg27
I00
sg28
I5651243
sg20
S'18620.3392523'
p2608
sba(igraph
Edge
p2609
(dp2610
g7
I1
sg8
I00
sg9
I5
sg10
(lp2611
g593
ag719
asg26
I00
sg27
I00
sg28
I5651244
sg20
S'18620.34935'
p2612
sba(igraph
Edge
p2613
(dp2614
g7
I1
sg8
I00
sg9
I5
sg10
(lp2615
g600
ag733
asg26
I00
sg27
I00
sg28
I5651245
sg20
S'18620.3594527'
p2616
sba(igraph
Edge
p2617
(dp2618
g7
I1
sg8
I00
sg9
I5
sg10
(lp2619
g607
ag733
asg26
I00
sg27
I00
sg28
I5651246
sg20
S'18620.3698431'
p2620
sba(igraph
Edge
p2621
(dp2622
g7
I1
sg8
I00
sg9
I5
sg10
(lp2623
g614
ag747
asg26
I00
sg27
I00
sg28
I5651247
sg20
S'18620.3802383'
p2624
sba(igraph
Edge
p2625
(dp2626
g7
I1
sg8
I00
sg9
I5
sg10
(lp2627
g621
ag747
asg26
I00
sg27
I00
sg28
I5651248
sg20
S'18620.3907024'
p2628
sba(igraph
Edge
p2629
(dp2630
g7
I1
sg8
I00
sg9
I5
sg10
(lp2631
g628
ag761
asg26
I00
sg27
I00
sg28
I5651249
sg20
S'18620.4010082'
p2632
sba(igraph
Edge
p2633
(dp2634
g7
I1
sg8
I00
sg9
I5
sg10
(lp2635
g635
ag761
asg26
I00
sg27
I00
sg28
I5651250
sg20
S'18620.4113528'
p2636
sba(igraph
Edge
p2637
(dp2638
g7
I1
sg8
I00
sg9
I5
sg10
(lp2639
g642
ag775
asg26
I00
sg27
I00
sg28
I5651251
sg20
S'18620.4222431'
p2640
sba(igraph
Edge
p2641
(dp2642
g7
I1
sg8
I00
sg9
I5
sg10
(lp2643
g649
ag775
asg26
I00
sg27
I00
sg28
I5651252
sg20
S'18620.4326486'
p2644
sba(igraph
Edge
p2645
(dp2646
g7
I1
sg8
I00
sg9
I5
sg10
(lp2647
g656
ag789
asg26
I00
sg27
I00
sg28
I5651253
sg20
S'18620.4433879'
p2648
sba(igraph
Edge
p2649
(dp2650
g7
I1
sg8
I00
sg9
I5
sg10
(lp2651
g663
ag789
asg26
I00
sg27
I00
sg28
I5651254
sg20
S'18620.4538242'
p2652
sba(igraph
Edge
p2653
(dp2654
g7
I1
sg8
I00
sg9
I5
sg10
(lp2655
g670
ag803
asg26
I00
sg27
I00
sg28
I5651255
sg20
S'18620.4640671'
p2656
sba(igraph
Edge
p2657
(dp2658
g7
I1
sg8
I00
sg9
I5
sg10
(lp2659
g677
ag803
asg26
I00
sg27
I00
sg28
I5651256
sg20
S'18620.4745053'
p2660
sba(igraph
Edge
p2661
(dp2662
g7
I1
sg8
I00
sg9
I5
sg10
(lp2663
g688
ag821
asg26
I00
sg27
I00
sg28
I5651257
sg20
S'18620.4853086'
p2664
sba(igraph
Edge
p2665
(dp2666
g7
I1
sg8
I00
sg9
I5
sg10
(lp2667
g691
ag821
asg26
I00
sg27
I00
sg28
I5651258
sg20
S'18620.4959633'
p2668
sba(igraph
Edge
p2669
(dp2670
g7
I1
sg8
I00
sg9
I5
sg10
(lp2671
g698
ag831
asg26
I00
sg27
I00
sg28
I5651259
sg20
S'18620.5063691'
p2672
sba(igraph
Edge
p2673
(dp2674
g7
I1
sg8
I00
sg9
I5
sg10
(lp2675
g705
ag831
asg26
I00
sg27
I00
sg28
I5651260
sg20
S'18620.517532'
p2676
sba(igraph
Edge
p2677
(dp2678
g7
I1
sg8
I00
sg9
I5
sg10
(lp2679
g712
ag845
asg26
I00
sg27
I00
sg28
I5651261
sg20
S'18620.5280674'
p2680
sba(igraph
Edge
p2681
(dp2682
g7
I1
sg8
I00
sg9
I5
sg10
(lp2683
g719
ag845
asg26
I00
sg27
I00
sg28
I5651262
sg20
S'18620.5385581'
p2684
sba(igraph
Edge
p2685
(dp2686
g7
I1
sg8
I00
sg9
I5
sg10
(lp2687
g726
ag859
asg26
I00
sg27
I00
sg28
I5651263
sg20
S'18620.5491759'
p2688
sba(igraph
Edge
p2689
(dp2690
g7
I1
sg8
I00
sg9
I5
sg10
(lp2691
g733
ag859
asg26
I00
sg27
I00
sg28
I5651264
sg20
S'18620.5597608'
p2692
sba(igraph
Edge
p2693
(dp2694
g7
I1
sg8
I00
sg9
I5
sg10
(lp2695
g740
ag873
asg26
I00
sg27
I00
sg28
I5651265
sg20
S'18620.5704831'
p2696
sba(igraph
Edge
p2697
(dp2698
g7
I1
sg8
I00
sg9
I5
sg10
(lp2699
g747
ag873
asg26
I00
sg27
I00
sg28
I5651266
sg20
S'18620.5810683'
p2700
sba(igraph
Edge
p2701
(dp2702
g7
I1
sg8
I00
sg9
I5
sg10
(lp2703
g754
ag887
asg26
I00
sg27
I00
sg28
I5651267
sg20
S'18620.5928488'
p2704
sba(igraph
Edge
p2705
(dp2706
g7
I1
sg8
I00
sg9
I5
sg10
(lp2707
g761
ag887
asg26
I00
sg27
I00
sg28
I5651268
sg20
S'18620.6034247'
p2708
sba(igraph
Edge
p2709
(dp2710
g7
I1
sg8
I00
sg9
I5
sg10
(lp2711
g768
ag901
asg26
I00
sg27
I00
sg28
I5651269
sg20
S'18620.61417'
p2712
sba(igraph
Edge
p2713
(dp2714
g7
I1
sg8
I00
sg9
I5
sg10
(lp2715
g775
ag901
asg26
I00
sg27
I00
sg28
I5651270
sg20
S'18620.6250839'
p2716
sba(igraph
Edge
p2717
(dp2718
g7
I1
sg8
I00
sg9
I5
sg10
(lp2719
g782
ag915
asg26
I00
sg27
I00
sg28
I5651271
sg20
S'18620.6388751'
p2720
sba(igraph
Edge
p2721
(dp2722
g7
I1
sg8
I00
sg9
I5
sg10
(lp2723
g789
ag915
asg26
I00
sg27
I00
sg28
I5651272
sg20
S'18620.6499888'
p2724
sba(igraph
Edge
p2725
(dp2726
g7
I1
sg8
I00
sg9
I5
sg10
(lp2727
g796
ag929
asg26
I00
sg27
I00
sg28
I5651273
sg20
S'18620.6613251'
p2728
sba(igraph
Edge
p2729
(dp2730
g7
I1
sg8
I00
sg9
I5
sg10
(lp2731
g803
ag929
asg26
I00
sg27
I00
sg28
I5651274
sg20
S'18620.6725059'
p2732
sba(igraph
Edge
p2733
(dp2734
g7
I1
sg8
I00
sg9
I5
sg10
(lp2735
g810
ag943
asg26
I00
sg27
I00
sg28
I5651275
sg20
S'18620.6832109'
p2736
sba(igraph
Edge
p2737
(dp2738
g7
I1
sg8
I00
sg9
I5
sg10
(lp2739
g688
ag943
asg26
I00
sg27
I00
sg28
I5651276
sg20
S'18620.6942874'
p2740
sba(igraph
Edge
p2741
(dp2742
g7
I1
sg8
I00
sg9
I5
sg10
(lp2743
g691
ag824
asg26
I00
sg27
I00
sg28
I5651277
sg20
S'18620.705186'
p2744
sba(igraph
Edge
p2745
(dp2746
g7
I1
sg8
I00
sg9
I5
sg10
(lp2747
g698
ag824
asg26
I00
sg27
I00
sg28
I5651278
sg20
S'18620.7160513'
p2748
sba(igraph
Edge
p2749
(dp2750
g7
I1
sg8
I00
sg9
I5
sg10
(lp2751
g705
ag838
asg26
I00
sg27
I00
sg28
I5651279
sg20
S'18620.7273053'
p2752
sba(igraph
Edge
p2753
(dp2754
g7
I1
sg8
I00
sg9
I5
sg10
(lp2755
g712
ag838
asg26
I00
sg27
I00
sg28
I5651280
sg20
S'18620.7382164'
p2756
sba(igraph
Edge
p2757
(dp2758
g7
I1
sg8
I00
sg9
I5
sg10
(lp2759
g719
ag852
asg26
I00
sg27
I00
sg28
I5651281
sg20
S'18620.7501691'
p2760
sba(igraph
Edge
p2761
(dp2762
g7
I1
sg8
I00
sg9
I5
sg10
(lp2763
g726
ag852
asg26
I00
sg27
I00
sg28
I5651282
sg20
S'18620.7612331'
p2764
sba(igraph
Edge
p2765
(dp2766
g7
I1
sg8
I00
sg9
I5
sg10
(lp2767
g733
ag866
asg26
I00
sg27
I00
sg28
I5651283
sg20
S'18620.7721487'
p2768
sba(igraph
Edge
p2769
(dp2770
g7
I1
sg8
I00
sg9
I5
sg10
(lp2771
g740
ag866
asg26
I00
sg27
I00
sg28
I5651284
sg20
S'18620.7831741'
p2772
sba(igraph
Edge
p2773
(dp2774
g7
I1
sg8
I00
sg9
I5
sg10
(lp2775
g747
ag880
asg26
I00
sg27
I00
sg28
I5651285
sg20
S'18620.7951159'
p2776
sba(igraph
Edge
p2777
(dp2778
g7
I1
sg8
I00
sg9
I5
sg10
(lp2779
g754
ag880
asg26
I00
sg27
I00
sg28
I5651286
sg20
S'18620.8063491'
p2780
sba(igraph
Edge
p2781
(dp2782
g7
I1
sg8
I00
sg9
I5
sg10
(lp2783
g761
ag894
asg26
I00
sg27
I00
sg28
I5651287
sg20
S'18620.8175528'
p2784
sba(igraph
Edge
p2785
(dp2786
g7
I1
sg8
I00
sg9
I5
sg10
(lp2787
g768
ag894
asg26
I00
sg27
I00
sg28
I5651288
sg20
S'18620.8289911'
p2788
sba(igraph
Edge
p2789
(dp2790
g7
I1
sg8
I00
sg9
I5
sg10
(lp2791
g775
ag908
asg26
I00
sg27
I00
sg28
I5651289
sg20
S'18620.8401221'
p2792
sba(igraph
Edge
p2793
(dp2794
g7
I1
sg8
I00
sg9
I5
sg10
(lp2795
g782
ag908
asg26
I00
sg27
I00
sg28
I5651290
sg20
S'18620.851397'
p2796
sba(igraph
Edge
p2797
(dp2798
g7
I1
sg8
I00
sg9
I5
sg10
(lp2799
g789
ag922
asg26
I00
sg27
I00
sg28
I5651291
sg20
S'18620.8628739'
p2800
sba(igraph
Edge
p2801
(dp2802
g7
I1
sg8
I00
sg9
I5
sg10
(lp2803
g796
ag922
asg26
I00
sg27
I00
sg28
I5651292
sg20
S'18620.8739957'
p2804
sba(igraph
Edge
p2805
(dp2806
g7
I1
sg8
I00
sg9
I5
sg10
(lp2807
g803
ag936
asg26
I00
sg27
I00
sg28
I5651293
sg20
S'18620.8852606'
p2808
sba(igraph
Edge
p2809
(dp2810
g7
I1
sg8
I00
sg9
I5
sg10
(lp2811
g810
ag936
asg26
I00
sg27
I00
sg28
I5651294
sg20
S'18620.8964097'
p2812
sba(igraph
Edge
p2813
(dp2814
g7
I1
sg8
I00
sg9
I5
sg10
(lp2815
g821
ag954
asg26
I00
sg27
I00
sg28
I5651295
sg20
S'18620.9078729'
p2816
sba(igraph
Edge
p2817
(dp2818
g7
I1
sg8
I00
sg9
I5
sg10
(lp2819
g824
ag954
asg26
I00
sg27
I00
sg28
I5651296
sg20
S'18620.9190861'
p2820
sba(igraph
Edge
p2821
(dp2822
g7
I1
sg8
I00
sg9
I5
sg10
(lp2823
g831
ag964
asg26
I00
sg27
I00
sg28
I5651297
sg20
S'18620.9307272'
p2824
sba(igraph
Edge
p2825
(dp2826
g7
I1
sg8
I00
sg9
I5
sg10
(lp2827
g838
ag964
asg26
I00
sg27
I00
sg28
I5651298
sg20
S'18620.9421086'
p2828
sba(igraph
Edge
p2829
(dp2830
g7
I1
sg8
I00
sg9
I5
sg10
(lp2831
g845
ag978
asg26
I00
sg27
I00
sg28
I5651299
sg20
S'18620.953443'
p2832
sba(igraph
Edge
p2833
(dp2834
g7
I1
sg8
I00
sg9
I5
sg10
(lp2835
g852
ag978
asg26
I00
sg27
I00
sg28
I5651300
sg20
S'18620.9651685'
p2836
sba(igraph
Edge
p2837
(dp2838
g7
I1
sg8
I00
sg9
I5
sg10
(lp2839
g859
ag992
asg26
I00
sg27
I00
sg28
I5651301
sg20
S'18620.9765998'
p2840
sba(igraph
Edge
p2841
(dp2842
g7
I1
sg8
I00
sg9
I5
sg10
(lp2843
g866
ag992
asg26
I00
sg27
I00
sg28
I5651302
sg20
S'18620.9885603'
p2844
sba(igraph
Edge
p2845
(dp2846
g7
I1
sg8
I00
sg9
I5
sg10
(lp2847
g873
ag1006
asg26
I00
sg27
I00
sg28
I5651303
sg20
S'18620.9999156'
p2848
sba(igraph
Edge
p2849
(dp2850
g7
I1
sg8
I00
sg9
I5
sg10
(lp2851
g880
ag1006
asg26
I00
sg27
I00
sg28
I5651304
sg20
S'18621.0113967'
p2852
sba(igraph
Edge
p2853
(dp2854
g7
I1
sg8
I00
sg9
I5
sg10
(lp2855
g887
ag1020
asg26
I00
sg27
I00
sg28
I5651305
sg20
S'18621.022685'
p2856
sba(igraph
Edge
p2857
(dp2858
g7
I1
sg8
I00
sg9
I5
sg10
(lp2859
g894
ag1020
asg26
I00
sg27
I00
sg28
I5651306
sg20
S'18621.0342937'
p2860
sba(igraph
Edge
p2861
(dp2862
g7
I1
sg8
I00
sg9
I5
sg10
(lp2863
g901
ag1034
asg26
I00
sg27
I00
sg28
I5651307
sg20
S'18621.0462587'
p2864
sba(igraph
Edge
p2865
(dp2866
g7
I1
sg8
I00
sg9
I5
sg10
(lp2867
g908
ag1034
asg26
I00
sg27
I00
sg28
I5651308
sg20
S'18621.0582918'
p2868
sba(igraph
Edge
p2869
(dp2870
g7
I1
sg8
I00
sg9
I5
sg10
(lp2871
g915
ag1048
asg26
I00
sg27
I00
sg28
I5651309
sg20
S'18621.0699852'
p2872
sba(igraph
Edge
p2873
(dp2874
g7
I1
sg8
I00
sg9
I5
sg10
(lp2875
g922
ag1048
asg26
I00
sg27
I00
sg28
I5651310
sg20
S'18621.0820484'
p2876
sba(igraph
Edge
p2877
(dp2878
g7
I1
sg8
I00
sg9
I5
sg10
(lp2879
g929
ag1062
asg26
I00
sg27
I00
sg28
I5651311
sg20
S'18621.094388'
p2880
sba(igraph
Edge
p2881
(dp2882
g7
I1
sg8
I00
sg9
I5
sg10
(lp2883
g936
ag1062
asg26
I00
sg27
I00
sg28
I5651312
sg20
S'18621.1074922'
p2884
sba(igraph
Edge
p2885
(dp2886
g7
I1
sg8
I00
sg9
I5
sg10
(lp2887
g943
ag1076
asg26
I00
sg27
I00
sg28
I5651313
sg20
S'18621.1200474'
p2888
sba(igraph
Edge
p2889
(dp2890
g7
I1
sg8
I00
sg9
I5
sg10
(lp2891
g821
ag1076
asg26
I00
sg27
I00
sg28
I5651314
sg20
S'18621.1329909'
p2892
sba(igraph
Edge
p2893
(dp2894
g7
I1
sg8
I00
sg9
I5
sg10
(lp2895
g824
ag957
asg26
I00
sg27
I00
sg28
I5651315
sg20
S'18621.1568903'
p2896
sba(igraph
Edge
p2897
(dp2898
g7
I1
sg8
I00
sg9
I5
sg10
(lp2899
g831
ag957
asg26
I00
sg27
I00
sg28
I5651316
sg20
S'18621.1722884'
p2900
sba(igraph
Edge
p2901
(dp2902
g7
I1
sg8
I00
sg9
I5
sg10
(lp2903
g838
ag971
asg26
I00
sg27
I00
sg28
I5651317
sg20
S'18621.1878733'
p2904
sba(igraph
Edge
p2905
(dp2906
g7
I1
sg8
I00
sg9
I5
sg10
(lp2907
g845
ag971
asg26
I00
sg27
I00
sg28
I5651318
sg20
S'18621.2032339'
p2908
sba(igraph
Edge
p2909
(dp2910
g7
I1
sg8
I00
sg9
I5
sg10
(lp2911
g852
ag985
asg26
I00
sg27
I00
sg28
I5651319
sg20
S'18621.2179498'
p2912
sba(igraph
Edge
p2913
(dp2914
g7
I1
sg8
I00
sg9
I5
sg10
(lp2915
g859
ag985
asg26
I00
sg27
I00
sg28
I5651320
sg20
S'18621.2306092'
p2916
sba(igraph
Edge
p2917
(dp2918
g7
I1
sg8
I00
sg9
I5
sg10
(lp2919
g866
ag999
asg26
I00
sg27
I00
sg28
I5651321
sg20
S'18621.2423403'
p2920
sba(igraph
Edge
p2921
(dp2922
g7
I1
sg8
I00
sg9
I5
sg10
(lp2923
g873
ag999
asg26
I00
sg27
I00
sg28
I5651322
sg20
S'18621.2546966'
p2924
sba(igraph
Edge
p2925
(dp2926
g7
I1
sg8
I00
sg9
I5
sg10
(lp2927
g880
ag1013
asg26
I00
sg27
I00
sg28
I5651323
sg20
S'18621.2668359'
p2928
sba(igraph
Edge
p2929
(dp2930
g7
I1
sg8
I00
sg9
I5
sg10
(lp2931
g887
ag1013
asg26
I00
sg27
I00
sg28
I5651324
sg20
S'18621.27866'
p2932
sba(igraph
Edge
p2933
(dp2934
g7
I1
sg8
I00
sg9
I5
sg10
(lp2935
g894
ag1027
asg26
I00
sg27
I00
sg28
I5651325
sg20
S'18621.2940122'
p2936
sba(igraph
Edge
p2937
(dp2938
g7
I1
sg8
I00
sg9
I5
sg10
(lp2939
g901
ag1027
asg26
I00
sg27
I00
sg28
I5651326
sg20
S'18621.306061'
p2940
sba(igraph
Edge
p2941
(dp2942
g7
I1
sg8
I00
sg9
I5
sg10
(lp2943
g908
ag1041
asg26
I00
sg27
I00
sg28
I5651327
sg20
S'18621.3181083'
p2944
sba(igraph
Edge
p2945
(dp2946
g7
I1
sg8
I00
sg9
I5
sg10
(lp2947
g915
ag1041
asg26
I00
sg27
I00
sg28
I5651328
sg20
S'18621.3304981'
p2948
sba(igraph
Edge
p2949
(dp2950
g7
I1
sg8
I00
sg9
I5
sg10
(lp2951
g922
ag1055
asg26
I00
sg27
I00
sg28
I5651329
sg20
S'18621.3425634'
p2952
sba(igraph
Edge
p2953
(dp2954
g7
I1
sg8
I00
sg9
I5
sg10
(lp2955
g929
ag1055
asg26
I00
sg27
I00
sg28
I5651330
sg20
S'18621.3546364'
p2956
sba(igraph
Edge
p2957
(dp2958
g7
I1
sg8
I00
sg9
I5
sg10
(lp2959
g936
ag1069
asg26
I00
sg27
I00
sg28
I5651331
sg20
S'18621.3669573'
p2960
sba(igraph
Edge
p2961
(dp2962
g7
I1
sg8
I00
sg9
I5
sg10
(lp2963
g943
ag1069
asg26
I00
sg27
I00
sg28
I5651332
sg20
S'18621.3792052'
p2964
sba(igraph
Edge
p2965
(dp2966
g7
I1
sg8
I00
sg9
I5
sg10
(lp2967
g954
ag1087
asg26
I00
sg27
I00
sg28
I5651333
sg20
S'18621.3912151'
p2968
sba(igraph
Edge
p2969
(dp2970
g7
I1
sg8
I00
sg9
I5
sg10
(lp2971
g957
ag1087
asg26
I00
sg27
I00
sg28
I5651334
sg20
S'18621.4033465'
p2972
sba(igraph
Edge
p2973
(dp2974
g7
I1
sg8
I00
sg9
I5
sg10
(lp2975
g964
ag1097
asg26
I00
sg27
I00
sg28
I5651335
sg20
S'18621.4154869'
p2976
sba(igraph
Edge
p2977
(dp2978
g7
I1
sg8
I00
sg9
I5
sg10
(lp2979
g971
ag1097
asg26
I00
sg27
I00
sg28
I5651336
sg20
S'18621.4281223'
p2980
sba(igraph
Edge
p2981
(dp2982
g7
I1
sg8
I00
sg9
I5
sg10
(lp2983
g978
ag1111
asg26
I00
sg27
I00
sg28
I5651337
sg20
S'18621.4405484'
p2984
sba(igraph
Edge
p2985
(dp2986
g7
I1
sg8
I00
sg9
I5
sg10
(lp2987
g985
ag1111
asg26
I00
sg27
I00
sg28
I5651338
sg20
S'18621.4530495'
p2988
sba(igraph
Edge
p2989
(dp2990
g7
I1
sg8
I00
sg9
I5
sg10
(lp2991
g992
ag1125
asg26
I00
sg27
I00
sg28
I5651339
sg20
S'18621.4652689'
p2992
sba(igraph
Edge
p2993
(dp2994
g7
I1
sg8
I00
sg9
I5
sg10
(lp2995
g999
ag1125
asg26
I00
sg27
I00
sg28
I5651340
sg20
S'18621.4775654'
p2996
sba(igraph
Edge
p2997
(dp2998
g7
I1
sg8
I00
sg9
I5
sg10
(lp2999
g1006
ag1139
asg26
I00
sg27
I00
sg28
I5651341
sg20
S'18621.4897656'
p3000
sba(igraph
Edge
p3001
(dp3002
g7
I1
sg8
I00
sg9
I5
sg10
(lp3003
g1013
ag1139
asg26
I00
sg27
I00
sg28
I5651342
sg20
S'18621.5021314'
p3004
sba(igraph
Edge
p3005
(dp3006
g7
I1
sg8
I00
sg9
I5
sg10
(lp3007
g1020
ag1153
asg26
I00
sg27
I00
sg28
I5651343
sg20
S'18621.5148612'
p3008
sba(igraph
Edge
p3009
(dp3010
g7
I1
sg8
I00
sg9
I5
sg10
(lp3011
g1027
ag1153
asg26
I00
sg27
I00
sg28
I5651344
sg20
S'18621.5273662'
p3012
sba(igraph
Edge
p3013
(dp3014
g7
I1
sg8
I00
sg9
I5
sg10
(lp3015
g1034
ag1167
asg26
I00
sg27
I00
sg28
I5651345
sg20
S'18621.5395373'
p3016
sba(igraph
Edge
p3017
(dp3018
g7
I1
sg8
I00
sg9
I5
sg10
(lp3019
g1041
ag1167
asg26
I00
sg27
I00
sg28
I5651346
sg20
S'18621.5517997'
p3020
sba(igraph
Edge
p3021
(dp3022
g7
I1
sg8
I00
sg9
I5
sg10
(lp3023
g1048
ag1181
asg26
I00
sg27
I00
sg28
I5651347
sg20
S'18621.5641929'
p3024
sba(igraph
Edge
p3025
(dp3026
g7
I1
sg8
I00
sg9
I5
sg10
(lp3027
g1055
ag1181
asg26
I00
sg27
I00
sg28
I5651348
sg20
S'18621.5766387'
p3028
sba(igraph
Edge
p3029
(dp3030
g7
I1
sg8
I00
sg9
I5
sg10
(lp3031
g1062
ag1195
asg26
I00
sg27
I00
sg28
I5651349
sg20
S'18621.5889701'
p3032
sba(igraph
Edge
p3033
(dp3034
g7
I1
sg8
I00
sg9
I5
sg10
(lp3035
g1069
ag1195
asg26
I00
sg27
I00
sg28
I5651350
sg20
S'18621.601484'
p3036
sba(igraph
Edge
p3037
(dp3038
g7
I1
sg8
I00
sg9
I5
sg10
(lp3039
g1076
ag1209
asg26
I00
sg27
I00
sg28
I5651351
sg20
S'18621.6140733'
p3040
sba(igraph
Edge
p3041
(dp3042
g7
I1
sg8
I00
sg9
I5
sg10
(lp3043
g954
ag1209
asg26
I00
sg27
I00
sg28
I5651352
sg20
S'18621.6264941'
p3044
sba(igraph
Edge
p3045
(dp3046
g7
I1
sg8
I00
sg9
I5
sg10
(lp3047
g957
ag1090
asg26
I00
sg27
I00
sg28
I5651353
sg20
S'18621.6393301'
p3048
sba(igraph
Edge
p3049
(dp3050
g7
I1
sg8
I00
sg9
I5
sg10
(lp3051
g964
ag1090
asg26
I00
sg27
I00
sg28
I5651354
sg20
S'18621.6518753'
p3052
sba(igraph
Edge
p3053
(dp3054
g7
I1
sg8
I00
sg9
I5
sg10
(lp3055
g971
ag1104
asg26
I00
sg27
I00
sg28
I5651355
sg20
S'18621.6643132'
p3056
sba(igraph
Edge
p3057
(dp3058
g7
I1
sg8
I00
sg9
I5
sg10
(lp3059
g978
ag1104
asg26
I00
sg27
I00
sg28
I5651356
sg20
S'18621.6768126'
p3060
sba(igraph
Edge
p3061
(dp3062
g7
I1
sg8
I00
sg9
I5
sg10
(lp3063
g985
ag1118
asg26
I00
sg27
I00
sg28
I5651357
sg20
S'18621.6894628'
p3064
sba(igraph
Edge
p3065
(dp3066
g7
I1
sg8
I00
sg9
I5
sg10
(lp3067
g992
ag1118
asg26
I00
sg27
I00
sg28
I5651358
sg20
S'18621.702334'
p3068
sba(igraph
Edge
p3069
(dp3070
g7
I1
sg8
I00
sg9
I5
sg10
(lp3071
g999
ag1132
asg26
I00
sg27
I00
sg28
I5651359
sg20
S'18621.714916'
p3072
sba(igraph
Edge
p3073
(dp3074
g7
I1
sg8
I00
sg9
I5
sg10
(lp3075
g1006
ag1132
asg26
I00
sg27
I00
sg28
I5651360
sg20
S'18621.7277749'
p3076
sba(igraph
Edge
p3077
(dp3078
g7
I1
sg8
I00
sg9
I5
sg10
(lp3079
g1013
ag1146
asg26
I00
sg27
I00
sg28
I5651361
sg20
S'18621.7405631'
p3080
sba(igraph
Edge
p3081
(dp3082
g7
I1
sg8
I00
sg9
I5
sg10
(lp3083
g1020
ag1146
asg26
I00
sg27
I00
sg28
I5651362
sg20
S'18621.7536653'
p3084
sba(igraph
Edge
p3085
(dp3086
g7
I1
sg8
I00
sg9
I5
sg10
(lp3087
g1027
ag1160
asg26
I00
sg27
I00
sg28
I5651363
sg20
S'18621.7665298'
p3088
sba(igraph
Edge
p3089
(dp3090
g7
I1
sg8
I00
sg9
I5
sg10
(lp3091
g1034
ag1160
asg26
I00
sg27
I00
sg28
I5651364
sg20
S'18621.7794519'
p3092
sba(igraph
Edge
p3093
(dp3094
g7
I1
sg8
I00
sg9
I5
sg10
(lp3095
g1041
ag1174
asg26
I00
sg27
I00
sg28
I5651365
sg20
S'18621.7941551'
p3096
sba(igraph
Edge
p3097
(dp3098
g7
I1
sg8
I00
sg9
I5
sg10
(lp3099
g1048
ag1174
asg26
I00
sg27
I00
sg28
I5651366
sg20
S'18621.8070559'
p3100
sba(igraph
Edge
p3101
(dp3102
g7
I1
sg8
I00
sg9
I5
sg10
(lp3103
g1055
ag1188
asg26
I00
sg27
I00
sg28
I5651367
sg20
S'18621.8200349'
p3104
sba(igraph
Edge
p3105
(dp3106
g7
I1
sg8
I00
sg9
I5
sg10
(lp3107
g1062
ag1188
asg26
I00
sg27
I00
sg28
I5651368
sg20
S'18621.8328813'
p3108
sba(igraph
Edge
p3109
(dp3110
g7
I1
sg8
I00
sg9
I5
sg10
(lp3111
g1069
ag1202
asg26
I00
sg27
I00
sg28
I5651369
sg20
S'18621.846887'
p3112
sba(igraph
Edge
p3113
(dp3114
g7
I1
sg8
I00
sg9
I5
sg10
(lp3115
g1076
ag1202
asg26
I00
sg27
I00
sg28
I5651370
sg20
S'18621.8600328'
p3116
sba(igraph
Edge
p3117
(dp3118
g7
I1
sg8
I00
sg9
I5
sg10
(lp3119
g1087
ag1220
asg26
I00
sg27
I00
sg28
I5651371
sg20
S'18621.8729841'
p3120
sba(igraph
Edge
p3121
(dp3122
g7
I1
sg8
I00
sg9
I5
sg10
(lp3123
g1090
ag1220
asg26
I00
sg27
I00
sg28
I5651372
sg20
S'18621.8860218'
p3124
sba(igraph
Edge
p3125
(dp3126
g7
I1
sg8
I00
sg9
I5
sg10
(lp3127
g1097
ag1230
asg26
I00
sg27
I00
sg28
I5651373
sg20
S'18621.8989796'
p3128
sba(igraph
Edge
p3129
(dp3130
g7
I1
sg8
I00
sg9
I5
sg10
(lp3131
g1104
ag1230
asg26
I00
sg27
I00
sg28
I5651374
sg20
S'18621.912067'
p3132
sba(igraph
Edge
p3133
(dp3134
g7
I1
sg8
I00
sg9
I5
sg10
(lp3135
g1111
ag1244
asg26
I00
sg27
I00
sg28
I5651375
sg20
S'18621.925098'
p3136
sba(igraph
Edge
p3137
(dp3138
g7
I1
sg8
I00
sg9
I5
sg10
(lp3139
g1118
ag1244
asg26
I00
sg27
I00
sg28
I5651376
sg20
S'18621.9383279'
p3140
sba(igraph
Edge
p3141
(dp3142
g7
I1
sg8
I00
sg9
I5
sg10
(lp3143
g1125
ag1258
asg26
I00
sg27
I00
sg28
I5651377
sg20
S'18621.9513483'
p3144
sba(igraph
Edge
p3145
(dp3146
g7
I1
sg8
I00
sg9
I5
sg10
(lp3147
g1132
ag1258
asg26
I00
sg27
I00
sg28
I5651378
sg20
S'18621.9642625'
p3148
sba(igraph
Edge
p3149
(dp3150
g7
I1
sg8
I00
sg9
I5
sg10
(lp3151
g1139
ag1272
asg26
I00
sg27
I00
sg28
I5651379
sg20
S'18621.9773644'
p3152
sba(igraph
Edge
p3153
(dp3154
g7
I1
sg8
I00
sg9
I5
sg10
(lp3155
g1146
ag1272
asg26
I00
sg27
I00
sg28
I5651380
sg20
S'18621.9908466'
p3156
sba(igraph
Edge
p3157
(dp3158
g7
I1
sg8
I00
sg9
I5
sg10
(lp3159
g1153
ag1286
asg26
I00
sg27
I00
sg28
I5651381
sg20
S'18622.0039404'
p3160
sba(igraph
Edge
p3161
(dp3162
g7
I1
sg8
I00
sg9
I5
sg10
(lp3163
g1160
ag1286
asg26
I00
sg27
I00
sg28
I5651382
sg20
S'18622.0170457'
p3164
sba(igraph
Edge
p3165
(dp3166
g7
I1
sg8
I00
sg9
I5
sg10
(lp3167
g1167
ag1300
asg26
I00
sg27
I00
sg28
I5651383
sg20
S'18622.0300764'
p3168
sba(igraph
Edge
p3169
(dp3170
g7
I1
sg8
I00
sg9
I5
sg10
(lp3171
g1174
ag1300
asg26
I00
sg27
I00
sg28
I5651384
sg20
S'18622.0434217'
p3172
sba(igraph
Edge
p3173
(dp3174
g7
I1
sg8
I00
sg9
I5
sg10
(lp3175
g1181
ag1314
asg26
I00
sg27
I00
sg28
I5651385
sg20
S'18622.0570181'
p3176
sba(igraph
Edge
p3177
(dp3178
g7
I1
sg8
I00
sg9
I5
sg10
(lp3179
g1188
ag1314
asg26
I00
sg27
I00
sg28
I5651386
sg20
S'18622.0706274'
p3180
sba(igraph
Edge
p3181
(dp3182
g7
I1
sg8
I00
sg9
I5
sg10
(lp3183
g1195
ag1328
asg26
I00
sg27
I00
sg28
I5651387
sg20
S'18622.0840219'
p3184
sba(igraph
Edge
p3185
(dp3186
g7
I1
sg8
I00
sg9
I5
sg10
(lp3187
g1202
ag1328
asg26
I00
sg27
I00
sg28
I5651388
sg20
S'18622.0973604'
p3188
sba(igraph
Edge
p3189
(dp3190
g7
I1
sg8
I00
sg9
I5
sg10
(lp3191
g1209
ag1342
asg26
I00
sg27
I00
sg28
I5651389
sg20
S'18622.1105428'
p3192
sba(igraph
Edge
p3193
(dp3194
g7
I1
sg8
I00
sg9
I5
sg10
(lp3195
g1087
ag1342
asg26
I00
sg27
I00
sg28
I5651390
sg20
S'18622.1238258'
p3196
sba(igraph
Edge
p3197
(dp3198
g7
I1
sg8
I00
sg9
I5
sg10
(lp3199
g1090
ag1223
asg26
I00
sg27
I00
sg28
I5651391
sg20
S'18622.137377'
p3200
sba(igraph
Edge
p3201
(dp3202
g7
I1
sg8
I00
sg9
I5
sg10
(lp3203
g1097
ag1223
asg26
I00
sg27
I00
sg28
I5651392
sg20
S'18622.1507912'
p3204
sba(igraph
Edge
p3205
(dp3206
g7
I1
sg8
I01
sg9
I5
sg10
(lp3207
g1104
ag1237
asg26
I00
sg27
I00
sg28
I5651394
sg20
S'18622.1643214'
p3208
sba(igraph
Edge
p3209
(dp3210
g7
I1
sg8
I00
sg9
I5
sg10
(lp3211
g1111
ag1237
asg26
I00
sg27
I00
sg28
I5651395
sg20
S'18622.1779137'
p3212
sba(igraph
Edge
p3213
(dp3214
g7
I1
sg8
I00
sg9
I5
sg10
(lp3215
g1118
ag1251
asg26
I00
sg27
I00
sg28
I5651396
sg20
S'18622.1917984'
p3216
sba(igraph
Edge
p3217
(dp3218
g7
I1
sg8
I00
sg9
I5
sg10
(lp3219
g1125
ag1251
asg26
I00
sg27
I00
sg28
I5651397
sg20
S'18622.2055247'
p3220
sba(igraph
Edge
p3221
(dp3222
g7
I1
sg8
I00
sg9
I5
sg10
(lp3223
g1132
ag1265
asg26
I00
sg27
I00
sg28
I5651398
sg20
S'18622.2191052'
p3224
sba(igraph
Edge
p3225
(dp3226
g7
I1
sg8
I00
sg9
I5
sg10
(lp3227
g1139
ag1265
asg26
I00
sg27
I00
sg28
I5651399
sg20
S'18622.2326639'
p3228
sba(igraph
Edge
p3229
(dp3230
g7
I1
sg8
I00
sg9
I5
sg10
(lp3231
g1146
ag1279
asg26
I00
sg27
I00
sg28
I5651400
sg20
S'18622.2461894'
p3232
sba(igraph
Edge
p3233
(dp3234
g7
I1
sg8
I00
sg9
I5
sg10
(lp3235
g1153
ag1279
asg26
I00
sg27
I00
sg28
I5651401
sg20
S'18622.2608052'
p3236
sba(igraph
Edge
p3237
(dp3238
g7
I1
sg8
I00
sg9
I5
sg10
(lp3239
g1160
ag1293
asg26
I00
sg27
I00
sg28
I5651402
sg20
S'18622.2746715'
p3240
sba(igraph
Edge
p3241
(dp3242
g7
I1
sg8
I00
sg9
I5
sg10
(lp3243
g1167
ag1293
asg26
I00
sg27
I00
sg28
I5651403
sg20
S'18622.2883255'
p3244
sba(igraph
Edge
p3245
(dp3246
g7
I1
sg8
I00
sg9
I5
sg10
(lp3247
g1174
ag1307
asg26
I00
sg27
I00
sg28
I5651404
sg20
S'18622.3034162'
p3248
sba(igraph
Edge
p3249
(dp3250
g7
I1
sg8
I00
sg9
I5
sg10
(lp3251
g1181
ag1307
asg26
I00
sg27
I00
sg28
I5651405
sg20
S'18622.3169853'
p3252
sba(igraph
Edge
p3253
(dp3254
g7
I1
sg8
I00
sg9
I5
sg10
(lp3255
g1188
ag1321
asg26
I00
sg27
I00
sg28
I5651406
sg20
S'18622.3307705'
p3256
sba(igraph
Edge
p3257
(dp3258
g7
I1
sg8
I00
sg9
I5
sg10
(lp3259
g1195
ag1321
asg26
I00
sg27
I00
sg28
I5651407
sg20
S'18622.3445368'
p3260
sba(igraph
Edge
p3261
(dp3262
g7
I1
sg8
I00
sg9
I5
sg10
(lp3263
g1202
ag1335
asg26
I00
sg27
I00
sg28
I5651408
sg20
S'18622.3582154'
p3264
sba(igraph
Edge
p3265
(dp3266
g7
I1
sg8
I00
sg9
I5
sg10
(lp3267
g1209
ag1335
asg26
I00
sg27
I00
sg28
I5651409
sg20
S'18622.3716972'
p3268
sba(igraph
Edge
p3269
(dp3270
g7
I1
sg8
I00
sg9
I5
sg10
(lp3271
g1220
ag1353
asg26
I00
sg27
I00
sg28
I5651410
sg20
S'18622.3855789'
p3272
sba(igraph
Edge
p3273
(dp3274
g7
I1
sg8
I00
sg9
I5
sg10
(lp3275
g1223
ag1353
asg26
I00
sg27
I00
sg28
I5651411
sg20
S'18622.3993901'
p3276
sba(igraph
Edge
p3277
(dp3278
g7
I1
sg8
I00
sg9
I5
sg10
(lp3279
g1230
ag1363
asg26
I00
sg27
I00
sg28
I5651412
sg20
S'18622.4131793'
p3280
sba(igraph
Edge
p3281
(dp3282
g7
I1
sg8
I00
sg9
I5
sg10
(lp3283
g1237
ag1363
asg26
I00
sg27
I00
sg28
I5651413
sg20
S'18622.4268727'
p3284
sba(igraph
Edge
p3285
(dp3286
g7
I1
sg8
I00
sg9
I5
sg10
(lp3287
g1244
ag1377
asg26
I00
sg27
I00
sg28
I5651414
sg20
S'18622.4408446'
p3288
sba(igraph
Edge
p3289
(dp3290
g7
I1
sg8
I00
sg9
I5
sg10
(lp3291
g1251
ag1377
asg26
I00
sg27
I00
sg28
I5651415
sg20
S'18622.4550335'
p3292
sba(igraph
Edge
p3293
(dp3294
g7
I1
sg8
I00
sg9
I5
sg10
(lp3295
g1258
ag1391
asg26
I00
sg27
I00
sg28
I5651416
sg20
S'18622.4691638'
p3296
sba(igraph
Edge
p3297
(dp3298
g7
I1
sg8
I00
sg9
I5
sg10
(lp3299
g1265
ag1391
asg26
I00
sg27
I00
sg28
I5651417
sg20
S'18622.482993'
p3300
sba(igraph
Edge
p3301
(dp3302
g7
I1
sg8
I00
sg9
I5
sg10
(lp3303
g1272
ag1405
asg26
I00
sg27
I00
sg28
I5651418
sg20
S'18622.4968131'
p3304
sba(igraph
Edge
p3305
(dp3306
g7
I1
sg8
I00
sg9
I5
sg10
(lp3307
g1279
ag1405
asg26
I00
sg27
I00
sg28
I5651419
sg20
S'18622.5106677'
p3308
sba(igraph
Edge
p3309
(dp3310
g7
I1
sg8
I00
sg9
I5
sg10
(lp3311
g1286
ag1419
asg26
I00
sg27
I00
sg28
I5651420
sg20
S'18622.5244773'
p3312
sba(igraph
Edge
p3313
(dp3314
g7
I1
sg8
I00
sg9
I5
sg10
(lp3315
g1293
ag1419
asg26
I00
sg27
I00
sg28
I5651421
sg20
S'18622.5384852'
p3316
sba(igraph
Edge
p3317
(dp3318
g7
I1
sg8
I00
sg9
I5
sg10
(lp3319
g1300
ag1433
asg26
I00
sg27
I00
sg28
I5651422
sg20
S'18622.5528122'
p3320
sba(igraph
Edge
p3321
(dp3322
g7
I1
sg8
I00
sg9
I5
sg10
(lp3323
g1307
ag1433
asg26
I00
sg27
I00
sg28
I5651423
sg20
S'18622.5669559'
p3324
sba(igraph
Edge
p3325
(dp3326
g7
I1
sg8
I00
sg9
I5
sg10
(lp3327
g1314
ag1447
asg26
I00
sg27
I00
sg28
I5651424
sg20
S'18622.5808685'
p3328
sba(igraph
Edge
p3329
(dp3330
g7
I1
sg8
I00
sg9
I5
sg10
(lp3331
g1321
ag1447
asg26
I00
sg27
I00
sg28
I5651425
sg20
S'18622.5947778'
p3332
sba(igraph
Edge
p3333
(dp3334
g7
I1
sg8
I00
sg9
I5
sg10
(lp3335
g1328
ag1461
asg26
I00
sg27
I00
sg28
I5651426
sg20
S'18622.6087533'
p3336
sba(igraph
Edge
p3337
(dp3338
g7
I1
sg8
I00
sg9
I5
sg10
(lp3339
g1335
ag1461
asg26
I00
sg27
I00
sg28
I5651427
sg20
S'18622.6227973'
p3340
sba(igraph
Edge
p3341
(dp3342
g7
I1
sg8
I00
sg9
I5
sg10
(lp3343
g1342
ag1475
asg26
I00
sg27
I00
sg28
I5651428
sg20
S'18622.6369234'
p3344
sba(igraph
Edge
p3345
(dp3346
g7
I1
sg8
I00
sg9
I5
sg10
(lp3347
g1220
ag1475
asg26
I00
sg27
I00
sg28
I5651429
sg20
S'18622.6511587'
p3348
sba(igraph
Edge
p3349
(dp3350
g7
I1
sg8
I00
sg9
I5
sg10
(lp3351
g1223
ag1356
asg26
I00
sg27
I00
sg28
I5651430
sg20
S'18622.6652804'
p3352
sba(igraph
Edge
p3353
(dp3354
g7
I1
sg8
I00
sg9
I5
sg10
(lp3355
g1230
ag1356
asg26
I00
sg27
I00
sg28
I5651431
sg20
S'18622.6793271'
p3356
sba(igraph
Edge
p3357
(dp3358
g7
I1
sg8
I00
sg9
I5
sg10
(lp3359
g1237
ag1370
asg26
I00
sg27
I00
sg28
I5651432
sg20
S'18622.6938401'
p3360
sba(igraph
Edge
p3361
(dp3362
g7
I1
sg8
I00
sg9
I5
sg10
(lp3363
g1244
ag1370
asg26
I00
sg27
I00
sg28
I5651433
sg20
S'18622.7081948'
p3364
sba(igraph
Edge
p3365
(dp3366
g7
I1
sg8
I00
sg9
I5
sg10
(lp3367
g1251
ag1384
asg26
I00
sg27
I00
sg28
I5651434
sg20
S'18622.7235596'
p3368
sba(igraph
Edge
p3369
(dp3370
g7
I1
sg8
I00
sg9
I5
sg10
(lp3371
g1258
ag1384
asg26
I00
sg27
I00
sg28
I5651435
sg20
S'18622.73782'
p3372
sba(igraph
Edge
p3373
(dp3374
g7
I1
sg8
I00
sg9
I5
sg10
(lp3375
g1265
ag1398
asg26
I00
sg27
I00
sg28
I5651436
sg20
S'18622.7523926'
p3376
sba(igraph
Edge
p3377
(dp3378
g7
I1
sg8
I00
sg9
I5
sg10
(lp3379
g1272
ag1398
asg26
I00
sg27
I00
sg28
I5651437
sg20
S'18622.7668642'
p3380
sba(igraph
Edge
p3381
(dp3382
g7
I1
sg8
I00
sg9
I5
sg10
(lp3383
g1279
ag1412
asg26
I00
sg27
I00
sg28
I5651438
sg20
S'18622.7811783'
p3384
sba(igraph
Edge
p3385
(dp3386
g7
I1
sg8
I00
sg9
I5
sg10
(lp3387
g1286
ag1412
asg26
I00
sg27
I00
sg28
I5651439
sg20
S'18622.7969625'
p3388
sba(igraph
Edge
p3389
(dp3390
g7
I1
sg8
I00
sg9
I5
sg10
(lp3391
g1293
ag1426
asg26
I00
sg27
I00
sg28
I5651440
sg20
S'18622.8114568'
p3392
sba(igraph
Edge
p3393
(dp3394
g7
I1
sg8
I00
sg9
I5
sg10
(lp3395
g1300
ag1426
asg26
I00
sg27
I00
sg28
I5651441
sg20
S'18622.8264131'
p3396
sba(igraph
Edge
p3397
(dp3398
g7
I1
sg8
I00
sg9
I5
sg10
(lp3399
g1307
ag1440
asg26
I00
sg27
I00
sg28
I5651442
sg20
S'18622.8407284'
p3400
sba(igraph
Edge
p3401
(dp3402
g7
I1
sg8
I00
sg9
I5
sg10
(lp3403
g1314
ag1440
asg26
I00
sg27
I00
sg28
I5651443
sg20
S'18622.8551355'
p3404
sba(igraph
Edge
p3405
(dp3406
g7
I1
sg8
I00
sg9
I5
sg10
(lp3407
g1321
ag1454
asg26
I00
sg27
I00
sg28
I5651444
sg20
S'18622.8694963'
p3408
sba(igraph
Edge
p3409
(dp3410
g7
I1
sg8
I00
sg9
I5
sg10
(lp3411
g1328
ag1454
asg26
I00
sg27
I00
sg28
I5651445
sg20
S'18622.8841328'
p3412
sba(igraph
Edge
p3413
(dp3414
g7
I1
sg8
I00
sg9
I5
sg10
(lp3415
g1335
ag1468
asg26
I00
sg27
I00
sg28
I5651446
sg20
S'18622.8987075'
p3416
sba(igraph
Edge
p3417
(dp3418
g7
I1
sg8
I00
sg9
I5
sg10
(lp3419
g1342
ag1468
asg26
I00
sg27
I00
sg28
I5651447
sg20
S'18622.9130979'
p3420
sba(igraph
Edge
p3421
(dp3422
g7
I1
sg8
I00
sg9
I5
sg10
(lp3423
g1353
ag1486
asg26
I00
sg27
I00
sg28
I5651448
sg20
S'18622.9276372'
p3424
sba(igraph
Edge
p3425
(dp3426
g7
I1
sg8
I00
sg9
I5
sg10
(lp3427
g1356
ag1486
asg26
I00
sg27
I00
sg28
I5651449
sg20
S'18622.9424729'
p3428
sba(igraph
Edge
p3429
(dp3430
g7
I1
sg8
I00
sg9
I5
sg10
(lp3431
g1363
ag1496
asg26
I00
sg27
I00
sg28
I5651450
sg20
S'18622.9571395'
p3432
sba(igraph
Edge
p3433
(dp3434
g7
I1
sg8
I00
sg9
I5
sg10
(lp3435
g1370
ag1496
asg26
I00
sg27
I00
sg28
I5651451
sg20
S'18622.971666'
p3436
sba(igraph
Edge
p3437
(dp3438
g7
I1
sg8
I00
sg9
I5
sg10
(lp3439
g1377
ag1510
asg26
I00
sg27
I00
sg28
I5651452
sg20
S'18622.9862564'
p3440
sba(igraph
Edge
p3441
(dp3442
g7
I1
sg8
I00
sg9
I5
sg10
(lp3443
g1384
ag1510
asg26
I00
sg27
I00
sg28
I5651453
sg20
S'18623.0009118'
p3444
sba(igraph
Edge
p3445
(dp3446
g7
I1
sg8
I00
sg9
I5
sg10
(lp3447
g1391
ag1524
asg26
I00
sg27
I00
sg28
I5651454
sg20
S'18623.0159987'
p3448
sba(igraph
Edge
p3449
(dp3450
g7
I1
sg8
I00
sg9
I5
sg10
(lp3451
g1398
ag1524
asg26
I00
sg27
I00
sg28
I5651455
sg20
S'18623.0308528'
p3452
sba(igraph
Edge
p3453
(dp3454
g7
I1
sg8
I00
sg9
I5
sg10
(lp3455
g1405
ag1538
asg26
I00
sg27
I00
sg28
I5651456
sg20
S'18623.04557'
p3456
sba(igraph
Edge
p3457
(dp3458
g7
I1
sg8
I00
sg9
I5
sg10
(lp3459
g1412
ag1538
asg26
I00
sg27
I00
sg28
I5651457
sg20
S'18623.0601928'
p3460
sba(igraph
Edge
p3461
(dp3462
g7
I1
sg8
I00
sg9
I5
sg10
(lp3463
g1419
ag1552
asg26
I00
sg27
I00
sg28
I5651458
sg20
S'18623.0747955'
p3464
sba(igraph
Edge
p3465
(dp3466
g7
I1
sg8
I00
sg9
I5
sg10
(lp3467
g1426
ag1552
asg26
I00
sg27
I00
sg28
I5651459
sg20
S'18623.0895661'
p3468
sba(igraph
Edge
p3469
(dp3470
g7
I1
sg8
I00
sg9
I5
sg10
(lp3471
g1433
ag1566
asg26
I00
sg27
I00
sg28
I5651460
sg20
S'18623.1043694'
p3472
sba(igraph
Edge
p3473
(dp3474
g7
I1
sg8
I00
sg9
I5
sg10
(lp3475
g1440
ag1566
asg26
I00
sg27
I00
sg28
I5651461
sg20
S'18623.1191062'
p3476
sba(igraph
Edge
p3477
(dp3478
g7
I1
sg8
I00
sg9
I5
sg10
(lp3479
g1447
ag1580
asg26
I00
sg27
I00
sg28
I5651462
sg20
S'18623.1339215'
p3480
sba(igraph
Edge
p3481
(dp3482
g7
I1
sg8
I00
sg9
I5
sg10
(lp3483
g1454
ag1580
asg26
I00
sg27
I00
sg28
I5651463
sg20
S'18623.1492159'
p3484
sba(igraph
Edge
p3485
(dp3486
g7
I1
sg8
I00
sg9
I5
sg10
(lp3487
g1461
ag1594
asg26
I00
sg27
I00
sg28
I5651464
sg20
S'18623.1641351'
p3488
sba(igraph
Edge
p3489
(dp3490
g7
I1
sg8
I00
sg9
I5
sg10
(lp3491
g1468
ag1594
asg26
I00
sg27
I00
sg28
I5651465
sg20
S'18623.1789521'
p3492
sba(igraph
Edge
p3493
(dp3494
g7
I1
sg8
I00
sg9
I5
sg10
(lp3495
g1475
ag1608
asg26
I00
sg27
I00
sg28
I5651466
sg20
S'18623.1938914'
p3496
sba(igraph
Edge
p3497
(dp3498
g7
I1
sg8
I00
sg9
I5
sg10
(lp3499
g1353
ag1608
asg26
I00
sg27
I00
sg28
I5651467
sg20
S'18623.2112732'
p3500
sba(igraph
Edge
p3501
(dp3502
g7
I1
sg8
I00
sg9
I5
sg10
(lp3503
g1356
ag1489
asg26
I00
sg27
I00
sg28
I5651468
sg20
S'18623.2291297'
p3504
sba(igraph
Edge
p3505
(dp3506
g7
I1
sg8
I00
sg9
I5
sg10
(lp3507
g1363
ag1489
asg26
I00
sg27
I00
sg28
I5651469
sg20
S'18623.2465162'
p3508
sba(igraph
Edge
p3509
(dp3510
g7
I1
sg8
I00
sg9
I5
sg10
(lp3511
g1370
ag1503
asg26
I00
sg27
I00
sg28
I5651470
sg20
S'18623.2684799'
p3512
sba(igraph
Edge
p3513
(dp3514
g7
I1
sg8
I00
sg9
I5
sg10
(lp3515
g1377
ag1503
asg26
I00
sg27
I00
sg28
I5651471
sg20
S'18623.2858277'
p3516
sba(igraph
Edge
p3517
(dp3518
g7
I1
sg8
I00
sg9
I5
sg10
(lp3519
g1384
ag1517
asg26
I00
sg27
I00
sg28
I5651472
sg20
S'18623.3073419'
p3520
sba(igraph
Edge
p3521
(dp3522
g7
I1
sg8
I00
sg9
I5
sg10
(lp3523
g1391
ag1517
asg26
I00
sg27
I00
sg28
I5651473
sg20
S'18623.3268393'
p3524
sba(igraph
Edge
p3525
(dp3526
g7
I1
sg8
I00
sg9
I5
sg10
(lp3527
g1398
ag1531
asg26
I00
sg27
I00
sg28
I5651474
sg20
S'18623.3452014'
p3528
sba(igraph
Edge
p3529
(dp3530
g7
I1
sg8
I00
sg9
I5
sg10
(lp3531
g1405
ag1531
asg26
I00
sg27
I00
sg28
I5651475
sg20
S'18623.3624134'
p3532
sba(igraph
Edge
p3533
(dp3534
g7
I1
sg8
I00
sg9
I5
sg10
(lp3535
g1412
ag1545
asg26
I00
sg27
I00
sg28
I5651476
sg20
S'18623.3827174'
p3536
sba(igraph
Edge
p3537
(dp3538
g7
I1
sg8
I00
sg9
I5
sg10
(lp3539
g1419
ag1545
asg26
I00
sg27
I00
sg28
I5651477
sg20
S'18623.4009199'
p3540
sba(igraph
Edge
p3541
(dp3542
g7
I1
sg8
I00
sg9
I5
sg10
(lp3543
g1426
ag1559
asg26
I00
sg27
I00
sg28
I5651478
sg20
S'18623.421377'
p3544
sba(igraph
Edge
p3545
(dp3546
g7
I1
sg8
I00
sg9
I5
sg10
(lp3547
g1433
ag1559
asg26
I00
sg27
I00
sg28
I5651479
sg20
S'18623.4423763'
p3548
sba(igraph
Edge
p3549
(dp3550
g7
I1
sg8
I00
sg9
I5
sg10
(lp3551
g1440
ag1573
asg26
I00
sg27
I00
sg28
I5651480
sg20
S'18623.460468'
p3552
sba(igraph
Edge
p3553
(dp3554
g7
I1
sg8
I00
sg9
I5
sg10
(lp3555
g1447
ag1573
asg26
I00
sg27
I00
sg28
I5651481
sg20
S'18623.4806656'
p3556
sba(igraph
Edge
p3557
(dp3558
g7
I1
sg8
I00
sg9
I5
sg10
(lp3559
g1454
ag1587
asg26
I00
sg27
I00
sg28
I5651482
sg20
S'18623.4979745'
p3560
sba(igraph
Edge
p3561
(dp3562
g7
I1
sg8
I00
sg9
I5
sg10
(lp3563
g1461
ag1587
asg26
I00
sg27
I00
sg28
I5651483
sg20
S'18623.5150068'
p3564
sba(igraph
Edge
p3565
(dp3566
g7
I1
sg8
I00
sg9
I5
sg10
(lp3567
g1468
ag1601
asg26
I00
sg27
I00
sg28
I5651484
sg20
S'18623.5331141'
p3568
sba(igraph
Edge
p3569
(dp3570
g7
I1
sg8
I00
sg9
I5
sg10
(lp3571
g1475
ag1601
asg26
I00
sg27
I00
sg28
I5651485
sg20
S'18623.5522537'
p3572
sba(igraph
Edge
p3573
(dp3574
g7
I1
sg8
I00
sg9
I5
sg10
(lp3575
g1486
ag1619
asg26
I00
sg27
I00
sg28
I5651486
sg20
S'18623.5718939'
p3576
sba(igraph
Edge
p3577
(dp3578
g7
I1
sg8
I00
sg9
I5
sg10
(lp3579
g1489
ag1619
asg26
I00
sg27
I00
sg28
I5651487
sg20
S'18623.591193'
p3580
sba(igraph
Edge
p3581
(dp3582
g7
I1
sg8
I00
sg9
I5
sg10
(lp3583
g1496
ag1629
asg26
I00
sg27
I00
sg28
I5651488
sg20
S'18623.6103846'
p3584
sba(igraph
Edge
p3585
(dp3586
g7
I1
sg8
I00
sg9
I5
sg10
(lp3587
g1503
ag1629
asg26
I00
sg27
I00
sg28
I5651489
sg20
S'18623.6292959'
p3588
sba(igraph
Edge
p3589
(dp3590
g7
I1
sg8
I00
sg9
I5
sg10
(lp3591
g1510
ag1643
asg26
I00
sg27
I00
sg28
I5651490
sg20
S'18623.6469792'
p3592
sba(igraph
Edge
p3593
(dp3594
g7
I1
sg8
I00
sg9
I5
sg10
(lp3595
g1517
ag1643
asg26
I00
sg27
I00
sg28
I5651491
sg20
S'18623.6669948'
p3596
sba(igraph
Edge
p3597
(dp3598
g7
I1
sg8
I00
sg9
I5
sg10
(lp3599
g1524
ag1657
asg26
I00
sg27
I00
sg28
I5651492
sg20
S'18623.6871088'
p3600
sba(igraph
Edge
p3601
(dp3602
g7
I1
sg8
I00
sg9
I5
sg10
(lp3603
g1531
ag1657
asg26
I00
sg27
I00
sg28
I5651493
sg20
S'18623.7081685'
p3604
sba(igraph
Edge
p3605
(dp3606
g7
I1
sg8
I00
sg9
I5
sg10
(lp3607
g1538
ag1671
asg26
I00
sg27
I00
sg28
I5651494
sg20
S'18623.7278534'
p3608
sba(igraph
Edge
p3609
(dp3610
g7
I1
sg8
I00
sg9
I5
sg10
(lp3611
g1545
ag1671
asg26
I00
sg27
I00
sg28
I5651495
sg20
S'18623.7463504'
p3612
sba(igraph
Edge
p3613
(dp3614
g7
I1
sg8
I00
sg9
I5
sg10
(lp3615
g1552
ag1685
asg26
I00
sg27
I00
sg28
I5651496
sg20
S'18623.7636842'
p3616
sba(igraph
Edge
p3617
(dp3618
g7
I1
sg8
I00
sg9
I5
sg10
(lp3619
g1559
ag1685
asg26
I00
sg27
I00
sg28
I5651497
sg20
S'18623.7797254'
p3620
sba(igraph
Edge
p3621
(dp3622
g7
I1
sg8
I00
sg9
I5
sg10
(lp3623
g1566
ag1699
asg26
I00
sg27
I00
sg28
I5651498
sg20
S'18623.7969449'
p3624
sba(igraph
Edge
p3625
(dp3626
g7
I1
sg8
I00
sg9
I5
sg10
(lp3627
g1573
ag1699
asg26
I00
sg27
I00
sg28
I5651499
sg20
S'18623.8127133'
p3628
sba(igraph
Edge
p3629
(dp3630
g7
I1
sg8
I00
sg9
I5
sg10
(lp3631
g1580
ag1713
asg26
I00
sg27
I00
sg28
I5651500
sg20
S'18623.8284732'
p3632
sba(igraph
Edge
p3633
(dp3634
g7
I1
sg8
I00
sg9
I5
sg10
(lp3635
g1587
ag1713
asg26
I00
sg27
I00
sg28
I5651501
sg20
S'18623.844214'
p3636
sba(igraph
Edge
p3637
(dp3638
g7
I1
sg8
I00
sg9
I5
sg10
(lp3639
g1594
ag1727
asg26
I00
sg27
I00
sg28
I5651502
sg20
S'18623.8600398'
p3640
sba(igraph
Edge
p3641
(dp3642
g7
I1
sg8
I00
sg9
I5
sg10
(lp3643
g1601
ag1727
asg26
I00
sg27
I00
sg28
I5651503
sg20
S'18623.8759524'
p3644
sba(igraph
Edge
p3645
(dp3646
g7
I1
sg8
I00
sg9
I5
sg10
(lp3647
g1608
ag1741
asg26
I00
sg27
I00
sg28
I5651504
sg20
S'18623.8917457'
p3648
sba(igraph
Edge
p3649
(dp3650
g7
I1
sg8
I00
sg9
I5
sg10
(lp3651
g1486
ag1741
asg26
I00
sg27
I00
sg28
I5651505
sg20
S'18623.9075966'
p3652
sba(igraph
Edge
p3653
(dp3654
g7
I1
sg8
I00
sg9
I5
sg10
(lp3655
g1489
ag1622
asg26
I00
sg27
I00
sg28
I5651506
sg20
S'18623.923297'
p3656
sba(igraph
Edge
p3657
(dp3658
g7
I1
sg8
I00
sg9
I5
sg10
(lp3659
g1496
ag1622
asg26
I00
sg27
I00
sg28
I5651507
sg20
S'18623.9392473'
p3660
sba(igraph
Edge
p3661
(dp3662
g7
I1
sg8
I00
sg9
I5
sg10
(lp3663
g1503
ag1636
asg26
I00
sg27
I00
sg28
I5651508
sg20
S'18623.9550225'
p3664
sba(igraph
Edge
p3665
(dp3666
g7
I1
sg8
I00
sg9
I5
sg10
(lp3667
g1510
ag1636
asg26
I00
sg27
I00
sg28
I5651509
sg20
S'18623.9709639'
p3668
sba(igraph
Edge
p3669
(dp3670
g7
I1
sg8
I00
sg9
I5
sg10
(lp3671
g1517
ag1650
asg26
I00
sg27
I00
sg28
I5651510
sg20
S'18623.9868028'
p3672
sba(igraph
Edge
p3673
(dp3674
g7
I1
sg8
I00
sg9
I5
sg10
(lp3675
g1524
ag1650
asg26
I00
sg27
I00
sg28
I5651511
sg20
S'18624.0027051'
p3676
sba(igraph
Edge
p3677
(dp3678
g7
I1
sg8
I00
sg9
I5
sg10
(lp3679
g1531
ag1664
asg26
I00
sg27
I00
sg28
I5651512
sg20
S'18624.0185621'
p3680
sba(igraph
Edge
p3681
(dp3682
g7
I1
sg8
I00
sg9
I5
sg10
(lp3683
g1538
ag1664
asg26
I00
sg27
I00
sg28
I5651513
sg20
S'18624.0347089'
p3684
sba(igraph
Edge
p3685
(dp3686
g7
I1
sg8
I00
sg9
I5
sg10
(lp3687
g1545
ag1678
asg26
I00
sg27
I00
sg28
I5651514
sg20
S'18624.0510719'
p3688
sba(igraph
Edge
p3689
(dp3690
g7
I1
sg8
I00
sg9
I5
sg10
(lp3691
g1552
ag1678
asg26
I00
sg27
I00
sg28
I5651515
sg20
S'18624.0670465'
p3692
sba(igraph
Edge
p3693
(dp3694
g7
I1
sg8
I00
sg9
I5
sg10
(lp3695
g1559
ag1692
asg26
I00
sg27
I00
sg28
I5651516
sg20
S'18624.0830242'
p3696
sba(igraph
Edge
p3697
(dp3698
g7
I1
sg8
I00
sg9
I5
sg10
(lp3699
g1566
ag1692
asg26
I00
sg27
I00
sg28
I5651517
sg20
S'18624.0990897'
p3700
sba(igraph
Edge
p3701
(dp3702
g7
I1
sg8
I00
sg9
I5
sg10
(lp3703
g1573
ag1706
asg26
I00
sg27
I00
sg28
I5651518
sg20
S'18624.1150607'
p3704
sba(igraph
Edge
p3705
(dp3706
g7
I1
sg8
I00
sg9
I5
sg10
(lp3707
g1580
ag1706
asg26
I00
sg27
I00
sg28
I5651519
sg20
S'18624.1311052'
p3708
sba(igraph
Edge
p3709
(dp3710
g7
I1
sg8
I00
sg9
I5
sg10
(lp3711
g1587
ag1720
asg26
I00
sg27
I00
sg28
I5651520
sg20
S'18624.1481644'
p3712
sba(igraph
Edge
p3713
(dp3714
g7
I1
sg8
I00
sg9
I5
sg10
(lp3715
g1594
ag1720
asg26
I00
sg27
I00
sg28
I5651521
sg20
S'18624.164572'
p3716
sba(igraph
Edge
p3717
(dp3718
g7
I1
sg8
I00
sg9
I5
sg10
(lp3719
g1601
ag1734
asg26
I00
sg27
I00
sg28
I5651522
sg20
S'18624.1806453'
p3720
sba(igraph
Edge
p3721
(dp3722
g7
I1
sg8
I00
sg9
I5
sg10
(lp3723
g1608
ag1734
asg26
I00
sg27
I00
sg28
I5651523
sg20
S'18624.1970574'
p3724
sbasS'vertices'
p3725
(lp3726
g12
ag23
ag33
ag40
ag47
ag54
ag61
ag68
ag75
ag82
ag89
ag96
ag103
ag110
ag117
ag124
ag131
ag138
ag145
ag156
ag159
ag166
ag173
ag180
ag187
ag194
ag201
ag208
ag215
ag222
ag229
ag236
ag243
ag250
ag257
ag264
ag271
ag278
ag289
ag292
ag299
ag306
ag313
ag320
ag327
ag334
ag341
ag348
ag355
ag362
ag369
ag376
ag383
ag390
ag397
ag404
ag411
ag422
ag425
ag432
ag439
ag446
ag453
ag460
ag467
ag474
ag481
ag488
ag495
ag502
ag509
ag516
ag523
ag530
ag537
ag544
ag555
ag558
ag565
ag572
ag579
ag586
ag593
ag600
ag607
ag614
ag621
ag628
ag635
ag642
ag649
ag656
ag663
ag670
ag677
ag688
ag691
ag698
ag705
ag712
ag719
ag726
ag733
ag740
ag747
ag754
ag761
ag768
ag775
ag782
ag789
ag796
ag803
ag810
ag821
ag824
ag831
ag838
ag845
ag852
ag859
ag866
ag873
ag880
ag887
ag894
ag901
ag908
ag915
ag922
ag929
ag936
ag943
ag954
ag957
ag964
ag971
ag978
ag985
ag992
ag999
ag1006
ag1013
ag1020
ag1027
ag1034
ag1041
ag1048
ag1055
ag1062
ag1069
ag1076
ag1087
ag1090
ag1097
ag1104
ag1111
ag1118
ag1125
ag1132
ag1139
ag1146
ag1153
ag1160
ag1167
ag1174
ag1181
ag1188
ag1195
ag1202
ag1209
ag1220
ag1223
ag1230
ag1237
ag1244
ag1251
ag1258
ag1265
ag1272
ag1279
ag1286
ag1293
ag1300
ag1307
ag1314
ag1321
ag1328
ag1335
ag1342
ag1353
ag1356
ag1363
ag1370
ag1377
ag1384
ag1391
ag1398
ag1405
ag1412
ag1419
ag1426
ag1433
ag1440
ag1447
ag1454
ag1461
ag1468
ag1475
ag1486
ag1489
ag1496
ag1503
ag1510
ag1517
ag1524
ag1531
ag1538
ag1545
ag1552
ag1559
ag1566
ag1573
ag1580
ag1587
ag1594
ag1601
ag1608
ag1619
ag1622
ag1629
ag1636
ag1643
ag1650
ag1657
ag1664
ag1671
ag1678
ag1685
ag1692
ag1699
ag1706
ag1713
ag1720
ag1727
ag1734
ag1741
asS'tags'
p3727
(lp3728
sb.