(igraph
Graph
p0
(dp1
S'labelingConstraints'
p2
I-1
sS'edges'
p3
(lp4
(igraph
Edge
p5
(dp6
S'direction'
p7
I1
sS'selected'
p8
I00
sS'height'
p9
I5
sS'vs'
p10
(lp11
(igraph
Vertex
p12
(dp13
S'xnorm'
p14
F0.0
sg8
I00
sS'label'
p15
S'NULL'
p16
sS'y'
p17
F-305.0
sS'x'
p18
F-454.0
sS'circle'
p19
I4556812
sS'id'
p20
S'7525.34857503'
p21
sS'ynorm'
p22
F0.0
sba(igraph
Vertex
p23
(dp24
g14
F0.055555555555555546
sg8
I00
sg15
g16
sg17
F-305.0
sg18
F-403.22222222222223
sg19
I4556813
sg20
S'7525.34861414'
p25
sg22
F0.0
sbasS'wrap'
p26
I00
sS'curved'
p27
I00
sS'line'
p28
I4556413
sg20
S'7525.46009674'
p29
sba(igraph
Edge
p30
(dp31
g7
I1
sg8
I00
sg9
I5
sg10
(lp32
g23
a(igraph
Vertex
p33
(dp34
g14
F0.11111111111111109
sg8
I00
sg15
g16
sg17
F-305.0
sg18
F-352.44444444444446
sg19
I4556814
sg20
S'7525.34865828'
p35
sg22
F0.0
sbasg26
I00
sg27
I00
sg28
I4556414
sg20
S'7525.46015625'
p36
sba(igraph
Edge
p37
(dp38
g7
I1
sg8
I00
sg9
I5
sg10
(lp39
g33
a(igraph
Vertex
p40
(dp41
g14
F0.16666666666666663
sg8
I00
sg15
g16
sg17
F-305.0
sg18
F-301.66666666666674
sg19
I4556815
sg20
S'7525.34871248'
p42
sg22
F0.0
sbasg26
I00
sg27
I00
sg28
I4556415
sg20
S'7525.46023587'
p43
sba(igraph
Edge
p44
(dp45
g7
I1
sg8
I00
sg9
I5
sg10
(lp46
g40
a(igraph
Vertex
p47
(dp48
g14
F0.22222222222222218
sg8
I00
sg15
g16
sg17
F-305.0
sg18
F-250.88888888888891
sg19
I4556816
sg20
S'7525.3487798'
p49
sg22
F0.0
sbasg26
I00
sg27
I00
sg28
I4556416
sg20
S'7525.460337'
p50
sba(igraph
Edge
p51
(dp52
g7
I1
sg8
I00
sg9
I5
sg10
(lp53
g47
a(igraph
Vertex
p54
(dp55
g14
F0.27777777777777762
sg8
I00
sg15
g16
sg17
F-305.0
sg18
F-200.11111111111126
sg19
I4556817
sg20
S'7525.34886082'
p56
sg22
F0.0
sbasg26
I00
sg27
I00
sg28
I4556417
sg20
S'7525.46045908'
p57
sba(igraph
Edge
p58
(dp59
g7
I1
sg8
I00
sg9
I5
sg10
(lp60
g54
a(igraph
Vertex
p61
(dp62
g14
F0.33333333333333326
sg8
I00
sg15
g16
sg17
F-305.0
sg18
F-149.33333333333343
sg19
I4556818
sg20
S'7525.34895943'
p63
sg22
F0.0
sbasg26
I00
sg27
I00
sg28
I4556418
sg20
S'7525.46060435'
p64
sba(igraph
Edge
p65
(dp66
g7
I1
sg8
I00
sg9
I5
sg10
(lp67
g61
a(igraph
Vertex
p68
(dp69
g14
F0.38888888888888884
sg8
I00
sg15
g16
sg17
F-305.0
sg18
F-98.5555555555556
sg19
I4556819
sg20
S'7525.34907118'
p70
sg22
F0.0
sbasg26
I00
sg27
I00
sg28
I4556419
sg20
S'7525.46077029'
p71
sba(igraph
Edge
p72
(dp73
g7
I1
sg8
I00
sg9
I5
sg10
(lp74
g68
a(igraph
Vertex
p75
(dp76
g14
F0.44444444444444436
sg8
I00
sg15
g16
sg17
F-305.0
sg18
F-47.777777777777828
sg19
I4556820
sg20
S'7525.34919773'
p77
sg22
F0.0
sbasg26
I00
sg27
I00
sg28
I4556420
sg20
S'7525.46095691'
p78
sba(igraph
Edge
p79
(dp80
g7
I1
sg8
I00
sg9
I5
sg10
(lp81
g75
a(igraph
Vertex
p82
(dp83
g14
F0.5
sg8
I00
sg15
g16
sg17
F-305.0
sg18
F3.0
sg19
I4556821
sg20
S'7525.34934189'
p84
sg22
F0.0
sbasg26
I00
sg27
I00
sg28
I4556421
sg20
S'7525.4611656'
p85
sba(igraph
Edge
p86
(dp87
g7
I1
sg8
I00
sg9
I5
sg10
(lp88
g82
a(igraph
Vertex
p89
(dp90
g14
F0.55555555555555558
sg8
I00
sg15
g16
sg17
F-305.0
sg18
F53.777777777777828
sg19
I4556822
sg20
S'7525.34949917'
p91
sg22
F0.0
sbasg26
I00
sg27
I00
sg28
I4556422
sg20
S'7525.46139635'
p92
sba(igraph
Edge
p93
(dp94
g7
I1
sg8
I00
sg9
I5
sg10
(lp95
g89
a(igraph
Vertex
p96
(dp97
g14
F0.61111111111111116
sg8
I00
sg15
g16
sg17
F-305.0
sg18
F104.55555555555566
sg19
I4556823
sg20
S'7525.34967237'
p98
sg22
F0.0
sbasg26
I00
sg27
I00
sg28
I4556423
sg20
S'7525.46164973'
p99
sba(igraph
Edge
p100
(dp101
g7
I1
sg8
I00
sg9
I5
sg10
(lp102
g96
a(igraph
Vertex
p103
(dp104
g14
F0.66666666666666663
sg8
I00
sg15
I0
sg17
F-305.0
sg18
F155.33333333333326
sg19
I4556824
sg20
S'7525.3498615'
p105
sg22
F0.0
sbasg26
I00
sg27
I00
sg28
I4556424
sg20
S'7525.4619224'
p106
sba(igraph
Edge
p107
(dp108
g7
I1
sg8
I00
sg9
I5
sg10
(lp109
g103
a(igraph
Vertex
p110
(dp111
g14
F0.72222222222222221
sg8
I00
sg15
g16
sg17
F-305.0
sg18
F206.11111111111109
sg19
I4556826
sg20
S'7525.35006628'
p112
sg22
F0.0
sbasg26
I00
sg27
I00
sg28
I4556425
sg20
S'7525.46221768'
p113
sba(igraph
Edge
p114
(dp115
g7
I1
sg8
I00
sg9
I5
sg10
(lp116
g110
a(igraph
Vertex
p117
(dp118
g14
F0.77777777777777779
sg8
I01
sg15
I0
sg17
F-305.0
sg18
F256.88888888888891
sg19
I4556828
sg20
S'7525.35028558'
p119
sg22
F0.0
sbasg26
I00
sg27
I00
sg28
I4556426
sg20
S'7525.46253337'
p120
sba(igraph
Edge
p121
(dp122
g7
I1
sg8
I00
sg9
I5
sg10
(lp123
g117
a(igraph
Vertex
p124
(dp125
g14
F0.83333333333333337
sg8
I00
sg15
g16
sg17
F-305.0
sg18
F307.66666666666674
sg19
I4556830
sg20
S'7525.35052109'
p126
sg22
F0.0
sbasg26
I00
sg27
I00
sg28
I4556427
sg20
S'7525.46287056'
p127
sba(igraph
Edge
p128
(dp129
g7
I1
sg8
I00
sg9
I5
sg10
(lp130
g124
a(igraph
Vertex
p131
(dp132
g14
F0.88888888888888884
sg8
I01
sg15
I0
sg17
F-305.0
sg18
F358.44444444444434
sg19
I4556832
sg20
S'7525.35077475'
p133
sg22
F0.0
sbasg26
I00
sg27
I00
sg28
I4556428
sg20
S'7525.46322927'
p134
sba(igraph
Edge
p135
(dp136
g7
I1
sg8
I00
sg9
I5
sg10
(lp137
g131
a(igraph
Vertex
p138
(dp139
g14
F0.94444444444444431
sg8
I00
sg15
g16
sg17
F-305.0
sg18
F409.22222222222206
sg19
I4556834
sg20
S'7525.3510449'
p140
sg22
F0.0
sbasg26
I00
sg27
I00
sg28
I4556429
sg20
S'7525.46363909'
p141
sba(igraph
Edge
p142
(dp143
g7
I1
sg8
I00
sg9
I5
sg10
(lp144
g138
a(igraph
Vertex
p145
(dp146
g14
F1.0
sg8
I00
sg15
I0
sg17
F-305.0
sg18
F460.0
sg19
I4556835
sg20
S'7525.35132957'
p147
sg22
F0.0
sbasg26
I00
sg27
I00
sg28
I4556430
sg20
S'7525.46405311'
p148
sba(igraph
Edge
p149
(dp150
g7
I1
sg8
I00
sg9
I5
sg10
(lp151
g145
ag12
asg26
I00
sg27
I00
sg28
I4556431
sg20
S'7525.46449674'
p152
sba(igraph
Edge
p153
(dp154
g7
I1
sg8
I00
sg9
I5
sg10
(lp155
(igraph
Vertex
p156
(dp157
g14
F0.0
sg8
I00
sg15
g16
sg17
F-208.66666666666669
sg18
F-454.0
sg19
I4556837
sg20
S'7525.35162905'
p158
sg22
F0.16666666666666666
sba(igraph
Vertex
p159
(dp160
g14
F0.055555555555555546
sg8
I00
sg15
g16
sg17
F-208.66666666666669
sg18
F-403.22222222222223
sg19
I4556838
sg20
S'7525.35194389'
p161
sg22
F0.16666666666666666
sbasg26
I00
sg27
I00
sg28
I4556432
sg20
S'7525.46495462'
p162
sba(igraph
Edge
p163
(dp164
g7
I1
sg8
I00
sg9
I5
sg10
(lp165
g159
a(igraph
Vertex
p166
(dp167
g14
F0.11111111111111109
sg8
I00
sg15
g16
sg17
F-208.66666666666669
sg18
F-352.44444444444446
sg19
I4556839
sg20
S'7525.35228109'
p168
sg22
F0.16666666666666666
sbasg26
I00
sg27
I00
sg28
I4556433
sg20
S'7525.46542982'
p169
sba(igraph
Edge
p170
(dp171
g7
I1
sg8
I00
sg9
I5
sg10
(lp172
g166
a(igraph
Vertex
p173
(dp174
g14
F0.16666666666666663
sg8
I00
sg15
g16
sg17
F-208.66666666666669
sg18
F-301.66666666666674
sg19
I4556840
sg20
S'7525.35263281'
p175
sg22
F0.16666666666666666
sbasg26
I00
sg27
I00
sg28
I4556434
sg20
S'7525.46591732'
p176
sba(igraph
Edge
p177
(dp178
g7
I1
sg8
I00
sg9
I5
sg10
(lp179
g173
a(igraph
Vertex
p180
(dp181
g14
F0.22222222222222218
sg8
I00
sg15
g16
sg17
F-208.66666666666669
sg18
F-250.88888888888891
sg19
I4556841
sg20
S'7525.35307309'
p182
sg22
F0.16666666666666666
sbasg26
I00
sg27
I00
sg28
I4556435
sg20
S'7525.46647493'
p183
sba(igraph
Edge
p184
(dp185
g7
I1
sg8
I00
sg9
I5
sg10
(lp186
g180
a(igraph
Vertex
p187
(dp188
g14
F0.27777777777777762
sg8
I00
sg15
g16
sg17
F-208.66666666666669
sg18
F-200.11111111111126
sg19
I4556842
sg20
S'7525.35346029'
p189
sg22
F0.16666666666666666
sbasg26
I00
sg27
I00
sg28
I4556436
sg20
S'7525.4670088'
p190
sba(igraph
Edge
p191
(dp192
g7
I1
sg8
I00
sg9
I5
sg10
(lp193
g187
a(igraph
Vertex
p194
(dp195
g14
F0.33333333333333326
sg8
I00
sg15
g16
sg17
F-208.66666666666669
sg18
F-149.33333333333343
sg19
I4556843
sg20
S'7525.35385531'
p196
sg22
F0.16666666666666666
sbasg26
I00
sg27
I00
sg28
I4556437
sg20
S'7525.46763401'
p197
sba(igraph
Edge
p198
(dp199
g7
I1
sg8
I00
sg9
I5
sg10
(lp200
g194
a(igraph
Vertex
p201
(dp202
g14
F0.38888888888888884
sg8
I00
sg15
g16
sg17
F-208.66666666666669
sg18
F-98.5555555555556
sg19
I4556844
sg20
S'7525.35427631'
p203
sg22
F0.16666666666666666
sbasg26
I00
sg27
I00
sg28
I4556438
sg20
S'7525.46822431'
p204
sba(igraph
Edge
p205
(dp206
g7
I1
sg8
I00
sg9
I5
sg10
(lp207
g201
a(igraph
Vertex
p208
(dp209
g14
F0.44444444444444436
sg8
I00
sg15
g16
sg17
F-208.66666666666669
sg18
F-47.777777777777828
sg19
I4556845
sg20
S'7525.35470206'
p210
sg22
F0.16666666666666666
sbasg26
I00
sg27
I00
sg28
I4556439
sg20
S'7525.46882327'
p211
sba(igraph
Edge
p212
(dp213
g7
I1
sg8
I00
sg9
I5
sg10
(lp214
g208
a(igraph
Vertex
p215
(dp216
g14
F0.5
sg8
I00
sg15
g16
sg17
F-208.66666666666669
sg18
F3.0
sg19
I4556846
sg20
S'7525.35515324'
p217
sg22
F0.16666666666666666
sbasg26
I00
sg27
I00
sg28
I4556440
sg20
S'7525.46945575'
p218
sba(igraph
Edge
p219
(dp220
g7
I1
sg8
I00
sg9
I5
sg10
(lp221
g215
a(igraph
Vertex
p222
(dp223
g14
F0.55555555555555558
sg8
I00
sg15
I0
sg17
F-208.66666666666669
sg18
F53.777777777777828
sg19
I4556847
sg20
S'7525.35561056'
p224
sg22
F0.16666666666666666
sbasg26
I00
sg27
I00
sg28
I4556441
sg20
S'7525.47009522'
p225
sba(igraph
Edge
p226
(dp227
g7
I1
sg8
I00
sg9
I5
sg10
(lp228
g222
a(igraph
Vertex
p229
(dp230
g14
F0.61111111111111116
sg8
I00
sg15
g16
sg17
F-208.66666666666669
sg18
F104.55555555555566
sg19
I4556849
sg20
S'7525.35608464'
p231
sg22
F0.16666666666666666
sbasg26
I00
sg27
I00
sg28
I4556442
sg20
S'7525.47077268'
p232
sba(igraph
Edge
p233
(dp234
g7
I1
sg8
I00
sg9
I5
sg10
(lp235
g229
a(igraph
Vertex
p236
(dp237
g14
F0.66666666666666663
sg8
I00
sg15
g16
sg17
F-208.66666666666669
sg18
F155.33333333333326
sg19
I4556850
sg20
S'7525.35657493'
p238
sg22
F0.16666666666666666
sbasg26
I00
sg27
I00
sg28
I4556443
sg20
S'7525.47146467'
p239
sba(igraph
Edge
p240
(dp241
g7
I1
sg8
I00
sg9
I5
sg10
(lp242
g236
a(igraph
Vertex
p243
(dp244
g14
F0.72222222222222221
sg8
I00
sg15
g16
sg17
F-208.66666666666669
sg18
F206.11111111111109
sg19
I4556851
sg20
S'7525.35707946'
p245
sg22
F0.16666666666666666
sbasg26
I00
sg27
I00
sg28
I4556444
sg20
S'7525.47218795'
p246
sba(igraph
Edge
p247
(dp248
g7
I1
sg8
I00
sg9
I5
sg10
(lp249
g243
a(igraph
Vertex
p250
(dp251
g14
F0.77777777777777779
sg8
I00
sg15
g16
sg17
F-208.66666666666669
sg18
F256.88888888888891
sg19
I4556852
sg20
S'7525.35760187'
p252
sg22
F0.16666666666666666
sbasg26
I00
sg27
I00
sg28
I4556445
sg20
S'7525.47292128'
p253
sba(igraph
Edge
p254
(dp255
g7
I1
sg8
I00
sg9
I5
sg10
(lp256
g250
a(igraph
Vertex
p257
(dp258
g14
F0.83333333333333337
sg8
I00
sg15
g16
sg17
F-208.66666666666669
sg18
F307.66666666666674
sg19
I4556853
sg20
S'7525.35814692'
p259
sg22
F0.16666666666666666
sbasg26
I00
sg27
I00
sg28
I4556446
sg20
S'7525.47367221'
p260
sba(igraph
Edge
p261
(dp262
g7
I1
sg8
I00
sg9
I5
sg10
(lp263
g257
a(igraph
Vertex
p264
(dp265
g14
F0.88888888888888884
sg8
I00
sg15
g16
sg17
F-208.66666666666669
sg18
F358.44444444444434
sg19
I4556854
sg20
S'7525.35869699'
p266
sg22
F0.16666666666666666
sbasg26
I00
sg27
I00
sg28
I4556447
sg20
S'7525.47444577'
p267
sba(igraph
Edge
p268
(dp269
g7
I1
sg8
I00
sg9
I5
sg10
(lp270
g264
a(igraph
Vertex
p271
(dp272
g14
F0.94444444444444431
sg8
I00
sg15
g16
sg17
F-208.66666666666669
sg18
F409.22222222222206
sg19
I4556855
sg20
S'7525.35926968'
p273
sg22
F0.16666666666666666
sbasg26
I00
sg27
I00
sg28
I4556448
sg20
S'7525.47524476'
p274
sba(igraph
Edge
p275
(dp276
g7
I1
sg8
I00
sg9
I5
sg10
(lp277
g271
a(igraph
Vertex
p278
(dp279
g14
F1.0
sg8
I00
sg15
g16
sg17
F-208.66666666666669
sg18
F460.0
sg19
I4556856
sg20
S'7525.35985859'
p280
sg22
F0.16666666666666666
sbasg26
I00
sg27
I00
sg28
I4556449
sg20
S'7525.47606106'
p281
sba(igraph
Edge
p282
(dp283
g7
I1
sg8
I00
sg9
I5
sg10
(lp284
g278
ag156
asg26
I00
sg27
I00
sg28
I4556450
sg20
S'7525.47690111'
p285
sba(igraph
Edge
p286
(dp287
g7
I1
sg8
I00
sg9
I5
sg10
(lp288
(igraph
Vertex
p289
(dp290
g14
F0.0
sg8
I00
sg15
g16
sg17
F-112.33333333333334
sg18
F-454.0
sg19
I4556857
sg20
S'7525.36111768'
p291
sg22
F0.33333333333333331
sba(igraph
Vertex
p292
(dp293
g14
F0.055555555555555546
sg8
I00
sg15
g16
sg17
F-112.33333333333334
sg18
F-403.22222222222223
sg19
I4556858
sg20
S'7525.361789'
p294
sg22
F0.33333333333333331
sbasg26
I00
sg27
I00
sg28
I4556451
sg20
S'7525.47776184'
p295
sba(igraph
Edge
p296
(dp297
g7
I1
sg8
I00
sg9
I5
sg10
(lp298
g292
a(igraph
Vertex
p299
(dp300
g14
F0.11111111111111109
sg8
I00
sg15
g16
sg17
F-112.33333333333334
sg18
F-352.44444444444446
sg19
I4556859
sg20
S'7525.36243377'
p301
sg22
F0.33333333333333331
sbasg26
I00
sg27
I00
sg28
I4556452
sg20
S'7525.47864324'
p302
sba(igraph
Edge
p303
(dp304
g7
I1
sg8
I00
sg9
I5
sg10
(lp305
g299
a(igraph
Vertex
p306
(dp307
g14
F0.16666666666666663
sg8
I00
sg15
g16
sg17
F-112.33333333333334
sg18
F-301.66666666666674
sg19
I4556860
sg20
S'7525.36308944'
p308
sg22
F0.33333333333333331
sbasg26
I00
sg27
I00
sg28
I4556453
sg20
S'7525.47954726'
p309
sba(igraph
Edge
p310
(dp311
g7
I1
sg8
I00
sg9
I5
sg10
(lp312
g306
a(igraph
Vertex
p313
(dp314
g14
F0.22222222222222218
sg8
I00
sg15
g16
sg17
F-112.33333333333334
sg18
F-250.88888888888891
sg19
I4556861
sg20
S'7525.36375908'
p315
sg22
F0.33333333333333331
sbasg26
I00
sg27
I00
sg28
I4556454
sg20
S'7525.48047364'
p316
sba(igraph
Edge
p317
(dp318
g7
I1
sg8
I00
sg9
I5
sg10
(lp319
g313
a(igraph
Vertex
p320
(dp321
g14
F0.27777777777777762
sg8
I00
sg15
g16
sg17
F-112.33333333333334
sg18
F-200.11111111111126
sg19
I4556862
sg20
S'7525.36444688'
p322
sg22
F0.33333333333333331
sbasg26
I00
sg27
I00
sg28
I4556455
sg20
S'7525.48142096'
p323
sba(igraph
Edge
p324
(dp325
g7
I1
sg8
I00
sg9
I5
sg10
(lp326
g320
a(igraph
Vertex
p327
(dp328
g14
F0.33333333333333326
sg8
I00
sg15
g16
sg17
F-112.33333333333334
sg18
F-149.33333333333343
sg19
I4556863
sg20
S'7525.36514725'
p329
sg22
F0.33333333333333331
sbasg26
I00
sg27
I00
sg28
I4556456
sg20
S'7525.48238868'
p330
sba(igraph
Edge
p331
(dp332
g7
I1
sg8
I00
sg9
I5
sg10
(lp333
g327
a(igraph
Vertex
p334
(dp335
g14
F0.38888888888888884
sg8
I00
sg15
g16
sg17
F-112.33333333333334
sg18
F-98.5555555555556
sg19
I4556864
sg20
S'7525.36586298'
p336
sg22
F0.33333333333333331
sbasg26
I00
sg27
I00
sg28
I4556457
sg20
S'7525.48338071'
p337
sba(igraph
Edge
p338
(dp339
g7
I1
sg8
I00
sg9
I5
sg10
(lp340
g334
a(igraph
Vertex
p341
(dp342
g14
F0.44444444444444436
sg8
I00
sg15
I0
sg17
F-112.33333333333334
sg18
F-47.777777777777828
sg19
I4556865
sg20
S'7525.3665952'
p343
sg22
F0.33333333333333331
sbasg26
I00
sg27
I00
sg28
I4556458
sg20
S'7525.48439145'
p344
sba(igraph
Edge
p345
(dp346
g7
I1
sg8
I00
sg9
I5
sg10
(lp347
g341
a(igraph
Vertex
p348
(dp349
g14
F0.5
sg8
I00
sg15
g16
sg17
F-112.33333333333334
sg18
F3.0
sg19
I4556867
sg20
S'7525.36734697'
p350
sg22
F0.33333333333333331
sbasg26
I00
sg27
I00
sg28
I4556459
sg20
S'7525.48542538'
p351
sba(igraph
Edge
p352
(dp353
g7
I1
sg8
I00
sg9
I5
sg10
(lp354
g348
a(igraph
Vertex
p355
(dp356
g14
F0.55555555555555558
sg8
I00
sg15
g16
sg17
F-112.33333333333334
sg18
F53.777777777777828
sg19
I4556868
sg20
S'7525.36811885'
p357
sg22
F0.33333333333333331
sbasg26
I00
sg27
I00
sg28
I4556460
sg20
S'7525.48652133'
p358
sba(igraph
Edge
p359
(dp360
g7
I1
sg8
I00
sg9
I5
sg10
(lp361
g355
a(igraph
Vertex
p362
(dp363
g14
F0.61111111111111116
sg8
I00
sg15
g16
sg17
F-112.33333333333334
sg18
F104.55555555555566
sg19
I4556869
sg20
S'7525.36890359'
p364
sg22
F0.33333333333333331
sbasg26
I00
sg27
I00
sg28
I4556461
sg20
S'7525.4876198'
p365
sba(igraph
Edge
p366
(dp367
g7
I1
sg8
I00
sg9
I5
sg10
(lp368
g362
a(igraph
Vertex
p369
(dp370
g14
F0.66666666666666663
sg8
I00
sg15
g16
sg17
F-112.33333333333334
sg18
F155.33333333333326
sg19
I4556870
sg20
S'7525.36970062'
p371
sg22
F0.33333333333333331
sbasg26
I00
sg27
I00
sg28
I4556462
sg20
S'7525.48874117'
p372
sba(igraph
Edge
p373
(dp374
g7
I1
sg8
I00
sg9
I5
sg10
(lp375
g369
a(igraph
Vertex
p376
(dp377
g14
F0.72222222222222221
sg8
I00
sg15
g16
sg17
F-112.33333333333334
sg18
F206.11111111111109
sg19
I4556871
sg20
S'7525.37052028'
p378
sg22
F0.33333333333333331
sbasg26
I00
sg27
I00
sg28
I4556463
sg20
S'7525.48986868'
p379
sba(igraph
Edge
p380
(dp381
g7
I1
sg8
I00
sg9
I5
sg10
(lp382
g376
a(igraph
Vertex
p383
(dp384
g14
F0.77777777777777779
sg8
I00
sg15
g16
sg17
F-112.33333333333334
sg18
F256.88888888888891
sg19
I4556872
sg20
S'7525.37138016'
p385
sg22
F0.33333333333333331
sbasg26
I00
sg27
I00
sg28
I4556464
sg20
S'7525.49101995'
p386
sba(igraph
Edge
p387
(dp388
g7
I1
sg8
I00
sg9
I5
sg10
(lp389
g383
a(igraph
Vertex
p390
(dp391
g14
F0.83333333333333337
sg8
I00
sg15
g16
sg17
F-112.33333333333334
sg18
F307.66666666666674
sg19
I4556873
sg20
S'7525.37230067'
p392
sg22
F0.33333333333333331
sbasg26
I00
sg27
I00
sg28
I4556465
sg20
S'7525.49220027'
p393
sba(igraph
Edge
p394
(dp395
g7
I1
sg8
I00
sg9
I5
sg10
(lp396
g390
a(igraph
Vertex
p397
(dp398
g14
F0.88888888888888884
sg8
I00
sg15
g16
sg17
F-112.33333333333334
sg18
F358.44444444444434
sg19
I4556874
sg20
S'7525.3732371'
p399
sg22
F0.33333333333333331
sbasg26
I00
sg27
I00
sg28
I4556466
sg20
S'7525.49339511'
p400
sba(igraph
Edge
p401
(dp402
g7
I1
sg8
I00
sg9
I5
sg10
(lp403
g397
a(igraph
Vertex
p404
(dp405
g14
F0.94444444444444431
sg8
I00
sg15
g16
sg17
F-112.33333333333334
sg18
F409.22222222222206
sg19
I4556875
sg20
S'7525.37414224'
p406
sg22
F0.33333333333333331
sbasg26
I00
sg27
I00
sg28
I4556467
sg20
S'7525.49463996'
p407
sba(igraph
Edge
p408
(dp409
g7
I1
sg8
I00
sg9
I5
sg10
(lp410
g404
a(igraph
Vertex
p411
(dp412
g14
F1.0
sg8
I00
sg15
g16
sg17
F-112.33333333333334
sg18
F460.0
sg19
I4556876
sg20
S'7525.37509069'
p413
sg22
F0.33333333333333331
sbasg26
I00
sg27
I00
sg28
I4556468
sg20
S'7525.49589152'
p414
sba(igraph
Edge
p415
(dp416
g7
I1
sg8
I00
sg9
I5
sg10
(lp417
g411
ag289
asg26
I00
sg27
I00
sg28
I4556469
sg20
S'7525.49716179'
p418
sba(igraph
Edge
p419
(dp420
g7
I1
sg8
I00
sg9
I5
sg10
(lp421
(igraph
Vertex
p422
(dp423
g14
F0.0
sg8
I00
sg15
g16
sg17
F-16.0
sg18
F-454.0
sg19
I4556877
sg20
S'7525.37613104'
p424
sg22
F0.5
sba(igraph
Vertex
p425
(dp426
g14
F0.055555555555555546
sg8
I00
sg15
g16
sg17
F-16.0
sg18
F-403.22222222222223
sg19
I4556878
sg20
S'7525.37708508'
p427
sg22
F0.5
sbasg26
I00
sg27
I00
sg28
I4556470
sg20
S'7525.49877177'
p428
sba(igraph
Edge
p429
(dp430
g7
I1
sg8
I00
sg9
I5
sg10
(lp431
g425
a(igraph
Vertex
p432
(dp433
g14
F0.11111111111111109
sg8
I00
sg15
g16
sg17
F-16.0
sg18
F-352.44444444444446
sg19
I4556879
sg20
S'7525.37809247'
p434
sg22
F0.5
sbasg26
I00
sg27
I00
sg28
I4556471
sg20
S'7525.50014597'
p435
sba(igraph
Edge
p436
(dp437
g7
I1
sg8
I00
sg9
I5
sg10
(lp438
g432
a(igraph
Vertex
p439
(dp440
g14
F0.16666666666666663
sg8
I00
sg15
g16
sg17
F-16.0
sg18
F-301.66666666666674
sg19
I4556880
sg20
S'7525.37907248'
p441
sg22
F0.5
sbasg26
I00
sg27
I00
sg28
I4556472
sg20
S'7525.50149418'
p442
sba(igraph
Edge
p443
(dp444
g7
I1
sg8
I00
sg9
I5
sg10
(lp445
g439
a(igraph
Vertex
p446
(dp447
g14
F0.22222222222222218
sg8
I00
sg15
g16
sg17
F-16.0
sg18
F-250.88888888888891
sg19
I4556881
sg20
S'7525.38006646'
p448
sg22
F0.5
sbasg26
I00
sg27
I00
sg28
I4556473
sg20
S'7525.50283737'
p449
sba(igraph
Edge
p450
(dp451
g7
I1
sg8
I00
sg9
I5
sg10
(lp452
g446
a(igraph
Vertex
p453
(dp454
g14
F0.27777777777777762
sg8
I00
sg15
g16
sg17
F-16.0
sg18
F-200.11111111111126
sg19
I4556882
sg20
S'7525.38106743'
p455
sg22
F0.5
sbasg26
I00
sg27
I00
sg28
I4556474
sg20
S'7525.50419844'
p456
sba(igraph
Edge
p457
(dp458
g7
I1
sg8
I00
sg9
I5
sg10
(lp459
g453
a(igraph
Vertex
p460
(dp461
g14
F0.33333333333333326
sg8
I00
sg15
I0
sg17
F-16.0
sg18
F-149.33333333333343
sg19
I4556883
sg20
S'7525.38208851'
p462
sg22
F0.5
sbasg26
I00
sg27
I00
sg28
I4556475
sg20
S'7525.50557906'
p463
sba(igraph
Edge
p464
(dp465
g7
I1
sg8
I00
sg9
I5
sg10
(lp466
g460
a(igraph
Vertex
p467
(dp468
g14
F0.38888888888888884
sg8
I00
sg15
g16
sg17
F-16.0
sg18
F-98.5555555555556
sg19
I4556885
sg20
S'7525.3831283'
p469
sg22
F0.5
sbasg26
I00
sg27
I00
sg28
I4556476
sg20
S'7525.50698427'
p470
sba(igraph
Edge
p471
(dp472
g7
I1
sg8
I00
sg9
I5
sg10
(lp473
g467
a(igraph
Vertex
p474
(dp475
g14
F0.44444444444444436
sg8
I00
sg15
g16
sg17
F-16.0
sg18
F-47.777777777777828
sg19
I4556886
sg20
S'7525.38418067'
p476
sg22
F0.5
sbasg26
I00
sg27
I00
sg28
I4556477
sg20
S'7525.50841182'
p477
sba(igraph
Edge
p478
(dp479
g7
I1
sg8
I00
sg9
I5
sg10
(lp480
g474
a(igraph
Vertex
p481
(dp482
g14
F0.5
sg8
I01
sg15
I0
sg17
F-16.0
sg18
F3.0
sg19
I4556888
sg20
S'7525.38524952'
p483
sg22
F0.5
sbasg26
I00
sg27
I00
sg28
I4556478
sg20
S'7525.50985921'
p484
sba(igraph
Edge
p485
(dp486
g7
I1
sg8
I00
sg9
I5
sg10
(lp487
g481
a(igraph
Vertex
p488
(dp489
g14
F0.55555555555555558
sg8
I00
sg15
g16
sg17
F-16.0
sg18
F53.777777777777828
sg19
I4556890
sg20
S'7525.38633849'
p490
sg22
F0.5
sbasg26
I00
sg27
I00
sg28
I4556479
sg20
S'7525.51133538'
p491
sba(igraph
Edge
p492
(dp493
g7
I1
sg8
I00
sg9
I5
sg10
(lp494
g488
a(igraph
Vertex
p495
(dp496
g14
F0.61111111111111116
sg8
I00
sg15
g16
sg17
F-16.0
sg18
F104.55555555555566
sg19
I4556891
sg20
S'7525.3874498'
p497
sg22
F0.5
sbasg26
I00
sg27
I00
sg28
I4556480
sg20
S'7525.51283306'
p498
sba(igraph
Edge
p499
(dp500
g7
I1
sg8
I00
sg9
I5
sg10
(lp501
g495
a(igraph
Vertex
p502
(dp503
g14
F0.66666666666666663
sg8
I00
sg15
g16
sg17
F-16.0
sg18
F155.33333333333326
sg19
I4556892
sg20
S'7525.38857229'
p504
sg22
F0.5
sbasg26
I00
sg27
I00
sg28
I4556481
sg20
S'7525.51435029'
p505
sba(igraph
Edge
p506
(dp507
g7
I1
sg8
I00
sg9
I5
sg10
(lp508
g502
a(igraph
Vertex
p509
(dp510
g14
F0.72222222222222221
sg8
I00
sg15
g16
sg17
F-16.0
sg18
F206.11111111111109
sg19
I4556893
sg20
S'7525.38971182'
p511
sg22
F0.5
sbasg26
I00
sg27
I00
sg28
I4556482
sg20
S'7525.51588819'
p512
sba(igraph
Edge
p513
(dp514
g7
I1
sg8
I00
sg9
I5
sg10
(lp515
g509
a(igraph
Vertex
p516
(dp517
g14
F0.77777777777777779
sg8
I00
sg15
g16
sg17
F-16.0
sg18
F256.88888888888891
sg19
I4556894
sg20
S'7525.39086029'
p518
sg22
F0.5
sbasg26
I00
sg27
I00
sg28
I4556483
sg20
S'7525.51744426'
p519
sba(igraph
Edge
p520
(dp521
g7
I1
sg8
I00
sg9
I5
sg10
(lp522
g516
a(igraph
Vertex
p523
(dp524
g14
F0.83333333333333337
sg8
I00
sg15
g16
sg17
F-16.0
sg18
F307.66666666666674
sg19
I4556895
sg20
S'7525.3920353'
p525
sg22
F0.5
sbasg26
I00
sg27
I00
sg28
I4556484
sg20
S'7525.51902183'
p526
sba(igraph
Edge
p527
(dp528
g7
I1
sg8
I00
sg9
I5
sg10
(lp529
g523
a(igraph
Vertex
p530
(dp531
g14
F0.88888888888888884
sg8
I00
sg15
g16
sg17
F-16.0
sg18
F358.44444444444434
sg19
I4556896
sg20
S'7525.39330976'
p532
sg22
F0.5
sbasg26
I00
sg27
I00
sg28
I4556485
sg20
S'7525.52071395'
p533
sba(igraph
Edge
p534
(dp535
g7
I1
sg8
I00
sg9
I5
sg10
(lp536
g530
a(igraph
Vertex
p537
(dp538
g14
F0.94444444444444431
sg8
I00
sg15
g16
sg17
F-16.0
sg18
F409.22222222222206
sg19
I4556897
sg20
S'7525.39453925'
p539
sg22
F0.5
sbasg26
I00
sg27
I00
sg28
I4556486
sg20
S'7525.52241723'
p540
sba(igraph
Edge
p541
(dp542
g7
I1
sg8
I00
sg9
I5
sg10
(lp543
g537
a(igraph
Vertex
p544
(dp545
g14
F1.0
sg8
I00
sg15
g16
sg17
F-16.0
sg18
F460.0
sg19
I4556898
sg20
S'7525.39577823'
p546
sg22
F0.5
sbasg26
I00
sg27
I00
sg28
I4556487
sg20
S'7525.52407806'
p547
sba(igraph
Edge
p548
(dp549
g7
I1
sg8
I00
sg9
I5
sg10
(lp550
g544
ag422
asg26
I00
sg27
I00
sg28
I4556488
sg20
S'7525.5257347'
p551
sba(igraph
Edge
p552
(dp553
g7
I1
sg8
I00
sg9
I5
sg10
(lp554
(igraph
Vertex
p555
(dp556
g14
F0.0
sg8
I00
sg15
g16
sg17
F80.333333333333314
sg18
F-454.0
sg19
I4556899
sg20
S'7525.39705102'
p557
sg22
F0.66666666666666663
sba(igraph
Vertex
p558
(dp559
g14
F0.055555555555555546
sg8
I00
sg15
g16
sg17
F80.333333333333314
sg18
F-403.22222222222223
sg19
I4556900
sg20
S'7525.39832102'
p560
sg22
F0.66666666666666663
sbasg26
I00
sg27
I00
sg28
I4556489
sg20
S'7525.52741424'
p561
sba(igraph
Edge
p562
(dp563
g7
I1
sg8
I00
sg9
I5
sg10
(lp564
g558
a(igraph
Vertex
p565
(dp566
g14
F0.11111111111111109
sg8
I00
sg15
g16
sg17
F80.333333333333314
sg18
F-352.44444444444446
sg19
I4556901
sg20
S'7525.39964772'
p567
sg22
F0.66666666666666663
sbasg26
I00
sg27
I00
sg28
I4556490
sg20
S'7525.52911669'
p568
sba(igraph
Edge
p569
(dp570
g7
I1
sg8
I00
sg9
I5
sg10
(lp571
g565
a(igraph
Vertex
p572
(dp573
g14
F0.16666666666666663
sg8
I00
sg15
g16
sg17
F80.333333333333314
sg18
F-301.66666666666674
sg19
I4556902
sg20
S'7525.40095208'
p574
sg22
F0.66666666666666663
sbasg26
I00
sg27
I00
sg28
I4556491
sg20
S'7525.53084121'
p575
sba(igraph
Edge
p576
(dp577
g7
I1
sg8
I00
sg9
I5
sg10
(lp578
g572
a(igraph
Vertex
p579
(dp580
g14
F0.22222222222222218
sg8
I00
sg15
I0
sg17
F80.333333333333314
sg18
F-250.88888888888891
sg19
I4556903
sg20
S'7525.40225839'
p581
sg22
F0.66666666666666663
sbasg26
I00
sg27
I00
sg28
I4556492
sg20
S'7525.53260708'
p582
sba(igraph
Edge
p583
(dp584
g7
I1
sg8
I00
sg9
I5
sg10
(lp585
g579
a(igraph
Vertex
p586
(dp587
g14
F0.27777777777777762
sg8
I00
sg15
g16
sg17
F80.333333333333314
sg18
F-200.11111111111126
sg19
I4556905
sg20
S'7525.40358006'
p588
sg22
F0.66666666666666663
sbasg26
I00
sg27
I00
sg28
I4556493
sg20
S'7525.53437294'
p589
sba(igraph
Edge
p590
(dp591
g7
I1
sg8
I00
sg9
I5
sg10
(lp592
g586
a(igraph
Vertex
p593
(dp594
g14
F0.33333333333333326
sg8
I00
sg15
g16
sg17
F80.333333333333314
sg18
F-149.33333333333343
sg19
I4556906
sg20
S'7525.40510288'
p595
sg22
F0.66666666666666663
sbasg26
I00
sg27
I00
sg28
I4556494
sg20
S'7525.5361891'
p596
sba(igraph
Edge
p597
(dp598
g7
I1
sg8
I00
sg9
I5
sg10
(lp599
g593
a(igraph
Vertex
p600
(dp601
g14
F0.38888888888888884
sg8
I00
sg15
g16
sg17
F80.333333333333314
sg18
F-98.5555555555556
sg19
I4556907
sg20
S'7525.40649524'
p602
sg22
F0.66666666666666663
sbasg26
I00
sg27
I00
sg28
I4556495
sg20
S'7525.53800329'
p603
sba(igraph
Edge
p604
(dp605
g7
I1
sg8
I00
sg9
I5
sg10
(lp606
g600
a(igraph
Vertex
p607
(dp608
g14
F0.44444444444444436
sg8
I00
sg15
g16
sg17
F80.333333333333314
sg18
F-47.777777777777828
sg19
I4556908
sg20
S'7525.40789179'
p609
sg22
F0.66666666666666663
sbasg26
I00
sg27
I00
sg28
I4556496
sg20
S'7525.53983928'
p610
sba(igraph
Edge
p611
(dp612
g7
I1
sg8
I00
sg9
I5
sg10
(lp613
g607
a(igraph
Vertex
p614
(dp615
g14
F0.5
sg8
I00
sg15
g16
sg17
F80.333333333333314
sg18
F3.0
sg19
I4556909
sg20
S'7525.40935091'
p616
sg22
F0.66666666666666663
sbasg26
I00
sg27
I00
sg28
I4556497
sg20
S'7525.5416951'
p617
sba(igraph
Edge
p618
(dp619
g7
I1
sg8
I00
sg9
I5
sg10
(lp620
g614
a(igraph
Vertex
p621
(dp622
g14
F0.55555555555555558
sg8
I00
sg15
g16
sg17
F80.333333333333314
sg18
F53.777777777777828
sg19
I4556910
sg20
S'7525.41084803'
p623
sg22
F0.66666666666666663
sbasg26
I00
sg27
I00
sg28
I4556498
sg20
S'7525.54357663'
p624
sba(igraph
Edge
p625
(dp626
g7
I1
sg8
I00
sg9
I5
sg10
(lp627
g621
a(igraph
Vertex
p628
(dp629
g14
F0.61111111111111116
sg8
I00
sg15
g16
sg17
F80.333333333333314
sg18
F104.55555555555566
sg19
I4556911
sg20
S'7525.41230575'
p630
sg22
F0.66666666666666663
sbasg26
I00
sg27
I00
sg28
I4556499
sg20
S'7525.54547603'
p631
sba(igraph
Edge
p632
(dp633
g7
I1
sg8
I00
sg9
I5
sg10
(lp634
g628
a(igraph
Vertex
p635
(dp636
g14
F0.66666666666666663
sg8
I00
sg15
g16
sg17
F80.333333333333314
sg18
F155.33333333333326
sg19
I4556912
sg20
S'7525.41381433'
p637
sg22
F0.66666666666666663
sbasg26
I00
sg27
I00
sg28
I4556500
sg20
S'7525.54767743'
p638
sba(igraph
Edge
p639
(dp640
g7
I1
sg8
I00
sg9
I5
sg10
(lp641
g635
a(igraph
Vertex
p642
(dp643
g14
F0.72222222222222221
sg8
I00
sg15
g16
sg17
F80.333333333333314
sg18
F206.11111111111109
sg19
I4556913
sg20
S'7525.41528351'
p644
sg22
F0.66666666666666663
sbasg26
I00
sg27
I00
sg28
I4556501
sg20
S'7525.54962041'
p645
sba(igraph
Edge
p646
(dp647
g7
I1
sg8
I00
sg9
I5
sg10
(lp648
g642
a(igraph
Vertex
p649
(dp650
g14
F0.77777777777777779
sg8
I00
sg15
g16
sg17
F80.333333333333314
sg18
F256.88888888888891
sg19
I4556914
sg20
S'7525.41676135'
p651
sg22
F0.66666666666666663
sbasg26
I00
sg27
I00
sg28
I4556502
sg20
S'7525.55170531'
p652
sba(igraph
Edge
p653
(dp654
g7
I1
sg8
I00
sg9
I5
sg10
(lp655
g649
a(igraph
Vertex
p656
(dp657
g14
F0.83333333333333337
sg8
I00
sg15
g16
sg17
F80.333333333333314
sg18
F307.66666666666674
sg19
I4556915
sg20
S'7525.41825902'
p658
sg22
F0.66666666666666663
sbasg26
I00
sg27
I00
sg28
I4556503
sg20
S'7525.55376898'
p659
sba(igraph
Edge
p660
(dp661
g7
I1
sg8
I00
sg9
I5
sg10
(lp662
g656
a(igraph
Vertex
p663
(dp664
g14
F0.88888888888888884
sg8
I00
sg15
g16
sg17
F80.333333333333314
sg18
F358.44444444444434
sg19
I4556916
sg20
S'7525.41975'
p665
sg22
F0.66666666666666663
sbasg26
I00
sg27
I00
sg28
I4556504
sg20
S'7525.55580835'
p666
sba(igraph
Edge
p667
(dp668
g7
I1
sg8
I00
sg9
I5
sg10
(lp669
g663
a(igraph
Vertex
p670
(dp671
g14
F0.94444444444444431
sg8
I00
sg15
g16
sg17
F80.333333333333314
sg18
F409.22222222222206
sg19
I4556917
sg20
S'7525.42050428'
p672
sg22
F0.66666666666666663
sbasg26
I00
sg27
I00
sg28
I4556505
sg20
S'7525.55785693'
p673
sba(igraph
Edge
p674
(dp675
g7
I1
sg8
I00
sg9
I5
sg10
(lp676
g670
a(igraph
Vertex
p677
(dp678
g14
F1.0
sg8
I00
sg15
g16
sg17
F80.333333333333314
sg18
F460.0
sg19
I4556918
sg20
S'7525.42126304'
p679
sg22
F0.66666666666666663
sbasg26
I00
sg27
I00
sg28
I4556506
sg20
S'7525.55990105'
p680
sba(igraph
Edge
p681
(dp682
g7
I1
sg8
I00
sg9
I5
sg10
(lp683
g677
ag555
asg26
I00
sg27
I00
sg28
I4556507
sg20
S'7525.5619921'
p684
sba(igraph
Edge
p685
(dp686
g7
I1
sg8
I00
sg9
I5
sg10
(lp687
(igraph
Vertex
p688
(dp689
g14
F0.0
sg8
I00
sg15
g16
sg17
F176.66666666666669
sg18
F-454.0
sg19
I4556919
sg20
S'7525.42203604'
p690
sg22
F0.83333333333333337
sba(igraph
Vertex
p691
(dp692
g14
F0.055555555555555546
sg8
I00
sg15
g16
sg17
F176.66666666666669
sg18
F-403.22222222222223
sg19
I4556920
sg20
S'7525.42281212'
p693
sg22
F0.83333333333333337
sbasg26
I00
sg27
I00
sg28
I4556508
sg20
S'7525.56414907'
p694
sba(igraph
Edge
p695
(dp696
g7
I1
sg8
I00
sg9
I5
sg10
(lp697
g691
a(igraph
Vertex
p698
(dp699
g14
F0.11111111111111109
sg8
I00
sg15
I0
sg17
F176.66666666666669
sg18
F-352.44444444444446
sg19
I4556921
sg20
S'7525.42359713'
p700
sg22
F0.83333333333333337
sbasg26
I00
sg27
I00
sg28
I4556509
sg20
S'7525.56630438'
p701
sba(igraph
Edge
p702
(dp703
g7
I1
sg8
I00
sg9
I5
sg10
(lp704
g698
a(igraph
Vertex
p705
(dp706
g14
F0.16666666666666663
sg8
I00
sg15
g16
sg17
F176.66666666666669
sg18
F-301.66666666666674
sg19
I4556923
sg20
S'7525.42438913'
p707
sg22
F0.83333333333333337
sbasg26
I00
sg27
I00
sg28
I4556510
sg20
S'7525.56848231'
p708
sba(igraph
Edge
p709
(dp710
g7
I1
sg8
I00
sg9
I5
sg10
(lp711
g705
a(igraph
Vertex
p712
(dp713
g14
F0.22222222222222218
sg8
I00
sg15
g16
sg17
F176.66666666666669
sg18
F-250.88888888888891
sg19
I4556924
sg20
S'7525.42518896'
p714
sg22
F0.83333333333333337
sbasg26
I00
sg27
I00
sg28
I4556511
sg20
S'7525.57067225'
p715
sba(igraph
Edge
p716
(dp717
g7
I1
sg8
I00
sg9
I5
sg10
(lp718
g712
a(igraph
Vertex
p719
(dp720
g14
F0.27777777777777762
sg8
I00
sg15
g16
sg17
F176.66666666666669
sg18
F-200.11111111111126
sg19
I4556925
sg20
S'7525.42605052'
p721
sg22
F0.83333333333333337
sbasg26
I00
sg27
I00
sg28
I4556512
sg20
S'7525.5728784'
p722
sba(igraph
Edge
p723
(dp724
g7
I1
sg8
I00
sg9
I5
sg10
(lp725
g719
a(igraph
Vertex
p726
(dp727
g14
F0.33333333333333326
sg8
I00
sg15
g16
sg17
F176.66666666666669
sg18
F-149.33333333333343
sg19
I4556926
sg20
S'7525.4268847'
p728
sg22
F0.83333333333333337
sbasg26
I00
sg27
I00
sg28
I4556513
sg20
S'7525.57511611'
p729
sba(igraph
Edge
p730
(dp731
g7
I1
sg8
I00
sg9
I5
sg10
(lp732
g726
a(igraph
Vertex
p733
(dp734
g14
F0.38888888888888884
sg8
I00
sg15
g16
sg17
F176.66666666666669
sg18
F-98.5555555555556
sg19
I4556927
sg20
S'7525.42772755'
p735
sg22
F0.83333333333333337
sbasg26
I00
sg27
I00
sg28
I4556514
sg20
S'7525.57736696'
p736
sba(igraph
Edge
p737
(dp738
g7
I1
sg8
I00
sg9
I5
sg10
(lp739
g733
a(igraph
Vertex
p740
(dp741
g14
F0.44444444444444436
sg8
I00
sg15
g16
sg17
F176.66666666666669
sg18
F-47.777777777777828
sg19
I4556928
sg20
S'7525.42862878'
p742
sg22
F0.83333333333333337
sbasg26
I00
sg27
I00
sg28
I4556515
sg20
S'7525.57962451'
p743
sba(igraph
Edge
p744
(dp745
g7
I1
sg8
I00
sg9
I5
sg10
(lp746
g740
a(igraph
Vertex
p747
(dp748
g14
F0.5
sg8
I00
sg15
g16
sg17
F176.66666666666669
sg18
F3.0
sg19
I4556929
sg20
S'7525.42950124'
p749
sg22
F0.83333333333333337
sbasg26
I00
sg27
I00
sg28
I4556516
sg20
S'7525.58192508'
p750
sba(igraph
Edge
p751
(dp752
g7
I1
sg8
I00
sg9
I5
sg10
(lp753
g747
a(igraph
Vertex
p754
(dp755
g14
F0.55555555555555558
sg8
I00
sg15
g16
sg17
F176.66666666666669
sg18
F53.777777777777828
sg19
I4556930
sg20
S'7525.43036503'
p756
sg22
F0.83333333333333337
sbasg26
I00
sg27
I00
sg28
I4556517
sg20
S'7525.58427035'
p757
sba(igraph
Edge
p758
(dp759
g7
I1
sg8
I00
sg9
I5
sg10
(lp760
g754
a(igraph
Vertex
p761
(dp762
g14
F0.61111111111111116
sg8
I00
sg15
g16
sg17
F176.66666666666669
sg18
F104.55555555555566
sg19
I4556931
sg20
S'7525.43123246'
p763
sg22
F0.83333333333333337
sbasg26
I00
sg27
I00
sg28
I4556518
sg20
S'7525.58666367'
p764
sba(igraph
Edge
p765
(dp766
g7
I1
sg8
I00
sg9
I5
sg10
(lp767
g761
a(igraph
Vertex
p768
(dp769
g14
F0.66666666666666663
sg8
I00
sg15
g16
sg17
F176.66666666666669
sg18
F155.33333333333326
sg19
I4556932
sg20
S'7525.43210548'
p770
sg22
F0.83333333333333337
sbasg26
I00
sg27
I00
sg28
I4556519
sg20
S'7525.58902654'
p771
sba(igraph
Edge
p772
(dp773
g7
I1
sg8
I00
sg9
I5
sg10
(lp774
g768
a(igraph
Vertex
p775
(dp776
g14
F0.72222222222222221
sg8
I00
sg15
g16
sg17
F176.66666666666669
sg18
F206.11111111111109
sg19
I4556933
sg20
S'7525.43298995'
p777
sg22
F0.83333333333333337
sbasg26
I00
sg27
I00
sg28
I4556520
sg20
S'7525.59143494'
p778
sba(igraph
Edge
p779
(dp780
g7
I1
sg8
I00
sg9
I5
sg10
(lp781
g775
a(igraph
Vertex
p782
(dp783
g14
F0.77777777777777779
sg8
I00
sg15
g16
sg17
F176.66666666666669
sg18
F256.88888888888891
sg19
I4556934
sg20
S'7525.43388336'
p784
sg22
F0.83333333333333337
sbasg26
I00
sg27
I00
sg28
I4556521
sg20
S'7525.59384531'
p785
sba(igraph
Edge
p786
(dp787
g7
I1
sg8
I00
sg9
I5
sg10
(lp788
g782
a(igraph
Vertex
p789
(dp790
g14
F0.83333333333333337
sg8
I00
sg15
g16
sg17
F176.66666666666669
sg18
F307.66666666666674
sg19
I4556935
sg20
S'7525.43478459'
p791
sg22
F0.83333333333333337
sbasg26
I00
sg27
I00
sg28
I4556522
sg20
S'7525.59628528'
p792
sba(igraph
Edge
p793
(dp794
g7
I1
sg8
I00
sg9
I5
sg10
(lp795
g789
a(igraph
Vertex
p796
(dp797
g14
F0.88888888888888884
sg8
I00
sg15
g16
sg17
F176.66666666666669
sg18
F358.44444444444434
sg19
I4556936
sg20
S'7525.4356942'
p798
sg22
F0.83333333333333337
sbasg26
I00
sg27
I00
sg28
I4556523
sg20
S'7525.59873783'
p799
sba(igraph
Edge
p800
(dp801
g7
I1
sg8
I00
sg9
I5
sg10
(lp802
g796
a(igraph
Vertex
p803
(dp804
g14
F0.94444444444444431
sg8
I00
sg15
g16
sg17
F176.66666666666669
sg18
F409.22222222222206
sg19
I4556937
sg20
S'7525.4366108'
p805
sg22
F0.83333333333333337
sbasg26
I00
sg27
I00
sg28
I4556524
sg20
S'7525.60122585'
p806
sba(igraph
Edge
p807
(dp808
g7
I1
sg8
I00
sg9
I5
sg10
(lp809
g803
a(igraph
Vertex
p810
(dp811
g14
F1.0
sg8
I00
sg15
g16
sg17
F176.66666666666669
sg18
F460.0
sg19
I4556938
sg20
S'7525.43816323'
p812
sg22
F0.83333333333333337
sbasg26
I00
sg27
I00
sg28
I4556525
sg20
S'7525.60373008'
p813
sba(igraph
Edge
p814
(dp815
g7
I1
sg8
I00
sg9
I5
sg10
(lp816
g810
ag688
asg26
I00
sg27
I00
sg28
I4556526
sg20
S'7525.60624744'
p817
sba(igraph
Edge
p818
(dp819
g7
I1
sg8
I00
sg9
I5
sg10
(lp820
(igraph
Vertex
p821
(dp822
g14
F0.0
sg8
I00
sg15
I0
sg17
F273.0
sg18
F-454.0
sg19
I4556939
sg20
S'7525.43911251'
p823
sg22
F1.0
sba(igraph
Vertex
p824
(dp825
g14
F0.055555555555555546
sg8
I00
sg15
g16
sg17
F273.0
sg18
F-403.22222222222223
sg19
I4556941
sg20
S'7525.44008806'
p826
sg22
F1.0
sbasg26
I00
sg27
I00
sg28
I4556527
sg20
S'7525.60877933'
p827
sba(igraph
Edge
p828
(dp829
g7
I1
sg8
I00
sg9
I5
sg10
(lp830
g824
a(igraph
Vertex
p831
(dp832
g14
F0.11111111111111109
sg8
I00
sg15
g16
sg17
F273.0
sg18
F-352.44444444444446
sg19
I4556942
sg20
S'7525.44104712'
p833
sg22
F1.0
sbasg26
I00
sg27
I00
sg28
I4556528
sg20
S'7525.61132602'
p834
sba(igraph
Edge
p835
(dp836
g7
I1
sg8
I00
sg9
I5
sg10
(lp837
g831
a(igraph
Vertex
p838
(dp839
g14
F0.16666666666666663
sg8
I00
sg15
I0
sg17
F273.0
sg18
F-301.66666666666674
sg19
I4556943
sg20
S'7525.44200925'
p840
sg22
F1.0
sbasg26
I00
sg27
I00
sg28
I4556529
sg20
S'7525.61390512'
p841
sba(igraph
Edge
p842
(dp843
g7
I1
sg8
I00
sg9
I5
sg10
(lp844
g838
a(igraph
Vertex
p845
(dp846
g14
F0.22222222222222218
sg8
I00
sg15
g16
sg17
F273.0
sg18
F-250.88888888888891
sg19
I4556945
sg20
S'7525.44297446'
p847
sg22
F1.0
sbasg26
I00
sg27
I00
sg28
I4556530
sg20
S'7525.61655965'
p848
sba(igraph
Edge
p849
(dp850
g7
I1
sg8
I00
sg9
I5
sg10
(lp851
g845
a(igraph
Vertex
p852
(dp853
g14
F0.27777777777777762
sg8
I00
sg15
g16
sg17
F273.0
sg18
F-200.11111111111126
sg19
I4556946
sg20
S'7525.44394693'
p854
sg22
F1.0
sbasg26
I00
sg27
I00
sg28
I4556531
sg20
S'7525.61919043'
p855
sba(igraph
Edge
p856
(dp857
g7
I1
sg8
I00
sg9
I5
sg10
(lp858
g852
a(igraph
Vertex
p859
(dp860
g14
F0.33333333333333326
sg8
I00
sg15
g16
sg17
F273.0
sg18
F-149.33333333333343
sg19
I4556947
sg20
S'7525.44492135'
p861
sg22
F1.0
sbasg26
I00
sg27
I00
sg28
I4556532
sg20
S'7525.62183155'
p862
sba(igraph
Edge
p863
(dp864
g7
I1
sg8
I00
sg9
I5
sg10
(lp865
g859
a(igraph
Vertex
p866
(dp867
g14
F0.38888888888888884
sg8
I00
sg15
g16
sg17
F273.0
sg18
F-98.5555555555556
sg19
I4556948
sg20
S'7525.44592902'
p868
sg22
F1.0
sbasg26
I00
sg27
I00
sg28
I4556533
sg20
S'7525.62456094'
p869
sba(igraph
Edge
p870
(dp871
g7
I1
sg8
I00
sg9
I5
sg10
(lp872
g866
a(igraph
Vertex
p873
(dp874
g14
F0.44444444444444436
sg8
I00
sg15
g16
sg17
F273.0
sg18
F-47.777777777777828
sg19
I4556949
sg20
S'7525.44699787'
p875
sg22
F1.0
sbasg26
I00
sg27
I00
sg28
I4556534
sg20
S'7525.62725933'
p876
sba(igraph
Edge
p877
(dp878
g7
I1
sg8
I00
sg9
I5
sg10
(lp879
g873
a(igraph
Vertex
p880
(dp881
g14
F0.5
sg8
I00
sg15
g16
sg17
F273.0
sg18
F3.0
sg19
I4556950
sg20
S'7525.44801672'
p882
sg22
F1.0
sbasg26
I00
sg27
I00
sg28
I4556535
sg20
S'7525.62995632'
p883
sba(igraph
Edge
p884
(dp885
g7
I1
sg8
I00
sg9
I5
sg10
(lp886
g880
a(igraph
Vertex
p887
(dp888
g14
F0.55555555555555558
sg8
I00
sg15
g16
sg17
F273.0
sg18
F53.777777777777828
sg19
I4556951
sg20
S'7525.44904031'
p889
sg22
F1.0
sbasg26
I00
sg27
I00
sg28
I4556536
sg20
S'7525.63268376'
p890
sba(igraph
Edge
p891
(dp892
g7
I1
sg8
I00
sg9
I5
sg10
(lp893
g887
a(igraph
Vertex
p894
(dp895
g14
F0.61111111111111116
sg8
I00
sg15
g16
sg17
F273.0
sg18
F104.55555555555566
sg19
I4556952
sg20
S'7525.4500681'
p896
sg22
F1.0
sbasg26
I00
sg27
I00
sg28
I4556537
sg20
S'7525.6354668'
p897
sba(igraph
Edge
p898
(dp899
g7
I1
sg8
I00
sg9
I5
sg10
(lp900
g894
a(igraph
Vertex
p901
(dp902
g14
F0.66666666666666663
sg8
I00
sg15
g16
sg17
F273.0
sg18
F155.33333333333326
sg19
I4556953
sg20
S'7525.45110817'
p903
sg22
F1.0
sbasg26
I00
sg27
I00
sg28
I4556538
sg20
S'7525.63827805'
p904
sba(igraph
Edge
p905
(dp906
g7
I1
sg8
I00
sg9
I5
sg10
(lp907
g901
a(igraph
Vertex
p908
(dp909
g14
F0.72222222222222221
sg8
I00
sg15
g16
sg17
F273.0
sg18
F206.11111111111109
sg19
I4556954
sg20
S'7525.4521868'
p910
sg22
F1.0
sbasg26
I00
sg27
I00
sg28
I4556539
sg20
S'7525.6411231'
p911
sba(igraph
Edge
p912
(dp913
g7
I1
sg8
I00
sg9
I5
sg10
(lp914
g908
a(igraph
Vertex
p915
(dp916
g14
F0.77777777777777779
sg8
I00
sg15
g16
sg17
F273.0
sg18
F256.88888888888891
sg19
I4556955
sg20
S'7525.45325537'
p917
sg22
F1.0
sbasg26
I00
sg27
I00
sg28
I4556540
sg20
S'7525.6439567'
p918
sba(igraph
Edge
p919
(dp920
g7
I1
sg8
I00
sg9
I5
sg10
(lp921
g915
a(igraph
Vertex
p922
(dp923
g14
F0.83333333333333337
sg8
I00
sg15
g16
sg17
F273.0
sg18
F307.66666666666674
sg19
I4556956
sg20
S'7525.45434657'
p924
sg22
F1.0
sbasg26
I00
sg27
I00
sg28
I4556541
sg20
S'7525.6468202'
p925
sba(igraph
Edge
p926
(dp927
g7
I1
sg8
I00
sg9
I5
sg10
(lp928
g922
a(igraph
Vertex
p929
(dp930
g14
F0.88888888888888884
sg8
I00
sg15
g16
sg17
F273.0
sg18
F358.44444444444434
sg19
I4556957
sg20
S'7525.45665078'
p931
sg22
F1.0
sbasg26
I00
sg27
I00
sg28
I4556542
sg20
S'7525.64981359'
p932
sba(igraph
Edge
p933
(dp934
g7
I1
sg8
I00
sg9
I5
sg10
(lp935
g929
a(igraph
Vertex
p936
(dp937
g14
F0.94444444444444431
sg8
I00
sg15
g16
sg17
F273.0
sg18
F409.22222222222206
sg19
I4556958
sg20
S'7525.45785149'
p938
sg22
F1.0
sbasg26
I00
sg27
I00
sg28
I4556543
sg20
S'7525.65270446'
p939
sba(igraph
Edge
p940
(dp941
g7
I1
sg8
I00
sg9
I5
sg10
(lp942
g936
a(igraph
Vertex
p943
(dp944
g14
F1.0
sg8
I00
sg15
g16
sg17
F273.0
sg18
F460.0
sg19
I4556959
sg20
S'7525.4589737'
p945
sg22
F1.0
sbasg26
I00
sg27
I00
sg28
I4556544
sg20
S'7525.65600963'
p946
sba(igraph
Edge
p947
(dp948
g7
I1
sg8
I00
sg9
I5
sg10
(lp949
g943
ag821
asg26
I00
sg27
I00
sg28
I4556545
sg20
S'7525.65892146'
p950
sba(igraph
Edge
p951
(dp952
g7
I1
sg8
I00
sg9
I5
sg10
(lp953
g12
ag156
asg26
I00
sg27
I00
sg28
I4556546
sg20
S'7525.66184389'
p954
sba(igraph
Edge
p955
(dp956
g7
I1
sg8
I00
sg9
I5
sg10
(lp957
g23
ag156
asg26
I00
sg27
I00
sg28
I4556547
sg20
S'7525.66481438'
p958
sba(igraph
Edge
p959
(dp960
g7
I1
sg8
I00
sg9
I5
sg10
(lp961
g33
ag166
asg26
I00
sg27
I00
sg28
I4556548
sg20
S'7525.66788265'
p962
sba(igraph
Edge
p963
(dp964
g7
I1
sg8
I00
sg9
I5
sg10
(lp965
g40
ag166
asg26
I00
sg27
I00
sg28
I4556549
sg20
S'7525.67104422'
p966
sba(igraph
Edge
p967
(dp968
g7
I1
sg8
I00
sg9
I5
sg10
(lp969
g47
ag180
asg26
I00
sg27
I00
sg28
I4556550
sg20
S'7525.67405131'
p970
sba(igraph
Edge
p971
(dp972
g7
I1
sg8
I00
sg9
I5
sg10
(lp973
g54
ag180
asg26
I00
sg27
I00
sg28
I4556551
sg20
S'7525.67712908'
p974
sba(igraph
Edge
p975
(dp976
g7
I1
sg8
I00
sg9
I5
sg10
(lp977
g61
ag194
asg26
I00
sg27
I00
sg28
I4556552
sg20
S'7525.68025294'
p978
sba(igraph
Edge
p979
(dp980
g7
I1
sg8
I00
sg9
I5
sg10
(lp981
g68
ag194
asg26
I00
sg27
I00
sg28
I4556553
sg20
S'7525.68340222'
p982
sba(igraph
Edge
p983
(dp984
g7
I1
sg8
I00
sg9
I5
sg10
(lp985
g75
ag208
asg26
I00
sg27
I00
sg28
I4556554
sg20
S'7525.68652776'
p986
sba(igraph
Edge
p987
(dp988
g7
I1
sg8
I00
sg9
I5
sg10
(lp989
g82
ag208
asg26
I00
sg27
I00
sg28
I4556555
sg20
S'7525.68968794'
p990
sba(igraph
Edge
p991
(dp992
g7
I1
sg8
I00
sg9
I5
sg10
(lp993
g89
ag222
asg26
I00
sg27
I00
sg28
I4556556
sg20
S'7525.69283666'
p994
sba(igraph
Edge
p995
(dp996
g7
I1
sg8
I00
sg9
I5
sg10
(lp997
g96
ag222
asg26
I00
sg27
I00
sg28
I4556557
sg20
S'7525.69602896'
p998
sba(igraph
Edge
p999
(dp1000
g7
I1
sg8
I00
sg9
I5
sg10
(lp1001
g103
ag236
asg26
I00
sg27
I00
sg28
I4556558
sg20
S'7525.69921764'
p1002
sba(igraph
Edge
p1003
(dp1004
g7
I1
sg8
I00
sg9
I5
sg10
(lp1005
g110
ag236
asg26
I00
sg27
I00
sg28
I4556559
sg20
S'7525.70251722'
p1006
sba(igraph
Edge
p1007
(dp1008
g7
I1
sg8
I00
sg9
I5
sg10
(lp1009
g117
ag250
asg26
I00
sg27
I00
sg28
I4556560
sg20
S'7525.70577518'
p1010
sba(igraph
Edge
p1011
(dp1012
g7
I1
sg8
I00
sg9
I5
sg10
(lp1013
g124
ag250
asg26
I00
sg27
I00
sg28
I4556561
sg20
S'7525.70913482'
p1014
sba(igraph
Edge
p1015
(dp1016
g7
I1
sg8
I00
sg9
I5
sg10
(lp1017
g131
ag264
asg26
I00
sg27
I00
sg28
I4556562
sg20
S'7525.71242937'
p1018
sba(igraph
Edge
p1019
(dp1020
g7
I1
sg8
I00
sg9
I5
sg10
(lp1021
g138
ag264
asg26
I00
sg27
I00
sg28
I4556563
sg20
S'7525.71583316'
p1022
sba(igraph
Edge
p1023
(dp1024
g7
I1
sg8
I00
sg9
I5
sg10
(lp1025
g145
ag278
asg26
I00
sg27
I00
sg28
I4556564
sg20
S'7525.71928388'
p1026
sba(igraph
Edge
p1027
(dp1028
g7
I1
sg8
I00
sg9
I5
sg10
(lp1029
g12
ag278
asg26
I00
sg27
I00
sg28
I4556565
sg20
S'7525.72262201'
p1030
sba(igraph
Edge
p1031
(dp1032
g7
I1
sg8
I00
sg9
I5
sg10
(lp1033
g23
ag159
asg26
I00
sg27
I00
sg28
I4556566
sg20
S'7525.72604228'
p1034
sba(igraph
Edge
p1035
(dp1036
g7
I1
sg8
I00
sg9
I5
sg10
(lp1037
g33
ag159
asg26
I00
sg27
I00
sg28
I4556567
sg20
S'7525.72947037'
p1038
sba(igraph
Edge
p1039
(dp1040
g7
I1
sg8
I00
sg9
I5
sg10
(lp1041
g40
ag173
asg26
I00
sg27
I00
sg28
I4556568
sg20
S'7525.73294623'
p1042
sba(igraph
Edge
p1043
(dp1044
g7
I1
sg8
I00
sg9
I5
sg10
(lp1045
g47
ag173
asg26
I00
sg27
I00
sg28
I4556569
sg20
S'7525.7366034'
p1046
sba(igraph
Edge
p1047
(dp1048
g7
I1
sg8
I00
sg9
I5
sg10
(lp1049
g54
ag187
asg26
I00
sg27
I00
sg28
I4556570
sg20
S'7525.74010021'
p1050
sba(igraph
Edge
p1051
(dp1052
g7
I1
sg8
I00
sg9
I5
sg10
(lp1053
g61
ag187
asg26
I00
sg27
I00
sg28
I4556571
sg20
S'7525.74361574'
p1054
sba(igraph
Edge
p1055
(dp1056
g7
I1
sg8
I00
sg9
I5
sg10
(lp1057
g68
ag201
asg26
I00
sg27
I00
sg28
I4556572
sg20
S'7525.74714328'
p1058
sba(igraph
Edge
p1059
(dp1060
g7
I1
sg8
I00
sg9
I5
sg10
(lp1061
g75
ag201
asg26
I00
sg27
I00
sg28
I4556573
sg20
S'7525.75076134'
p1062
sba(igraph
Edge
p1063
(dp1064
g7
I1
sg8
I00
sg9
I5
sg10
(lp1065
g82
ag215
asg26
I00
sg27
I00
sg28
I4556574
sg20
S'7525.75432213'
p1066
sba(igraph
Edge
p1067
(dp1068
g7
I1
sg8
I00
sg9
I5
sg10
(lp1069
g89
ag215
asg26
I00
sg27
I00
sg28
I4556575
sg20
S'7525.7579427'
p1070
sba(igraph
Edge
p1071
(dp1072
g7
I1
sg8
I00
sg9
I5
sg10
(lp1073
g96
ag229
asg26
I00
sg27
I00
sg28
I4556576
sg20
S'7525.7615873'
p1074
sba(igraph
Edge
p1075
(dp1076
g7
I1
sg8
I00
sg9
I5
sg10
(lp1077
g103
ag229
asg26
I00
sg27
I00
sg28
I4556577
sg20
S'7525.76540761'
p1078
sba(igraph
Edge
p1079
(dp1080
g7
I1
sg8
I00
sg9
I5
sg10
(lp1081
g110
ag243
asg26
I00
sg27
I00
sg28
I4556578
sg20
S'7525.76910222'
p1082
sba(igraph
Edge
p1083
(dp1084
g7
I1
sg8
I00
sg9
I5
sg10
(lp1085
g117
ag243
asg26
I00
sg27
I00
sg28
I4556579
sg20
S'7525.77277587'
p1086
sba(igraph
Edge
p1087
(dp1088
g7
I1
sg8
I00
sg9
I5
sg10
(lp1089
g124
ag257
asg26
I00
sg27
I00
sg28
I4556580
sg20
S'7525.77650958'
p1090
sba(igraph
Edge
p1091
(dp1092
g7
I1
sg8
I00
sg9
I5
sg10
(lp1093
g131
ag257
asg26
I00
sg27
I00
sg28
I4556581
sg20
S'7525.78023939'
p1094
sba(igraph
Edge
p1095
(dp1096
g7
I1
sg8
I00
sg9
I5
sg10
(lp1097
g138
ag271
asg26
I00
sg27
I00
sg28
I4556582
sg20
S'7525.78405132'
p1098
sba(igraph
Edge
p1099
(dp1100
g7
I1
sg8
I00
sg9
I5
sg10
(lp1101
g145
ag271
asg26
I00
sg27
I00
sg28
I4556583
sg20
S'7525.787749'
p1102
sba(igraph
Edge
p1103
(dp1104
g7
I1
sg8
I00
sg9
I5
sg10
(lp1105
g12
ag821
asg26
I00
sg27
I00
sg28
I4556584
sg20
S'7525.79146037'
p1106
sba(igraph
Edge
p1107
(dp1108
g7
I1
sg8
I00
sg9
I5
sg10
(lp1109
g23
ag831
asg26
I00
sg27
I00
sg28
I4556585
sg20
S'7525.7953198'
p1110
sba(igraph
Edge
p1111
(dp1112
g7
I1
sg8
I00
sg9
I5
sg10
(lp1113
g33
ag831
asg26
I00
sg27
I00
sg28
I4556586
sg20
S'7525.79978349'
p1114
sba(igraph
Edge
p1115
(dp1116
g7
I1
sg8
I00
sg9
I5
sg10
(lp1117
g40
ag845
asg26
I00
sg27
I00
sg28
I4556587
sg20
S'7525.80370606'
p1118
sba(igraph
Edge
p1119
(dp1120
g7
I1
sg8
I00
sg9
I5
sg10
(lp1121
g47
ag845
asg26
I00
sg27
I00
sg28
I4556588
sg20
S'7525.8075856'
p1122
sba(igraph
Edge
p1123
(dp1124
g7
I1
sg8
I00
sg9
I5
sg10
(lp1125
g54
ag859
asg26
I00
sg27
I00
sg28
I4556589
sg20
S'7525.81151683'
p1126
sba(igraph
Edge
p1127
(dp1128
g7
I1
sg8
I00
sg9
I5
sg10
(lp1129
g61
ag859
asg26
I00
sg27
I00
sg28
I4556590
sg20
S'7525.81544023'
p1130
sba(igraph
Edge
p1131
(dp1132
g7
I1
sg8
I00
sg9
I5
sg10
(lp1133
g68
ag873
asg26
I00
sg27
I00
sg28
I4556591
sg20
S'7525.81937397'
p1134
sba(igraph
Edge
p1135
(dp1136
g7
I1
sg8
I00
sg9
I5
sg10
(lp1137
g75
ag873
asg26
I00
sg27
I00
sg28
I4556592
sg20
S'7525.8233105'
p1138
sba(igraph
Edge
p1139
(dp1140
g7
I1
sg8
I00
sg9
I5
sg10
(lp1141
g82
ag887
asg26
I00
sg27
I00
sg28
I4556593
sg20
S'7525.82726799'
p1142
sba(igraph
Edge
p1143
(dp1144
g7
I1
sg8
I00
sg9
I5
sg10
(lp1145
g89
ag887
asg26
I00
sg27
I00
sg28
I4556594
sg20
S'7525.8312685'
p1146
sba(igraph
Edge
p1147
(dp1148
g7
I1
sg8
I00
sg9
I5
sg10
(lp1149
g96
ag901
asg26
I00
sg27
I00
sg28
I4556595
sg20
S'7525.83522207'
p1150
sba(igraph
Edge
p1151
(dp1152
g7
I1
sg8
I00
sg9
I5
sg10
(lp1153
g103
ag901
asg26
I00
sg27
I00
sg28
I4556596
sg20
S'7525.83919269'
p1154
sba(igraph
Edge
p1155
(dp1156
g7
I1
sg8
I00
sg9
I5
sg10
(lp1157
g110
ag915
asg26
I00
sg27
I00
sg28
I4556597
sg20
S'7525.84331724'
p1158
sba(igraph
Edge
p1159
(dp1160
g7
I1
sg8
I00
sg9
I5
sg10
(lp1161
g117
ag915
asg26
I00
sg27
I00
sg28
I4556598
sg20
S'7525.84755856'
p1162
sba(igraph
Edge
p1163
(dp1164
g7
I1
sg8
I00
sg9
I5
sg10
(lp1165
g124
ag929
asg26
I00
sg27
I00
sg28
I4556599
sg20
S'7525.85173563'
p1166
sba(igraph
Edge
p1167
(dp1168
g7
I1
sg8
I00
sg9
I5
sg10
(lp1169
g131
ag929
asg26
I00
sg27
I00
sg28
I4556600
sg20
S'7525.8558029'
p1170
sba(igraph
Edge
p1171
(dp1172
g7
I1
sg8
I00
sg9
I5
sg10
(lp1173
g138
ag943
asg26
I00
sg27
I00
sg28
I4556601
sg20
S'7525.85999142'
p1174
sba(igraph
Edge
p1175
(dp1176
g7
I1
sg8
I00
sg9
I5
sg10
(lp1177
g145
ag943
asg26
I00
sg27
I00
sg28
I4556602
sg20
S'7525.8640953'
p1178
sba(igraph
Edge
p1179
(dp1180
g7
I1
sg8
I00
sg9
I5
sg10
(lp1181
g12
ag824
asg26
I00
sg27
I00
sg28
I4556603
sg20
S'7525.86821928'
p1182
sba(igraph
Edge
p1183
(dp1184
g7
I1
sg8
I00
sg9
I5
sg10
(lp1185
g23
ag824
asg26
I00
sg27
I00
sg28
I4556604
sg20
S'7525.87236506'
p1186
sba(igraph
Edge
p1187
(dp1188
g7
I1
sg8
I00
sg9
I5
sg10
(lp1189
g33
ag838
asg26
I00
sg27
I00
sg28
I4556605
sg20
S'7525.87667427'
p1190
sba(igraph
Edge
p1191
(dp1192
g7
I1
sg8
I00
sg9
I5
sg10
(lp1193
g40
ag838
asg26
I00
sg27
I00
sg28
I4556606
sg20
S'7525.88094101'
p1194
sba(igraph
Edge
p1195
(dp1196
g7
I1
sg8
I00
sg9
I5
sg10
(lp1197
g47
ag852
asg26
I00
sg27
I00
sg28
I4556607
sg20
S'7525.88521418'
p1198
sba(igraph
Edge
p1199
(dp1200
g7
I1
sg8
I00
sg9
I5
sg10
(lp1201
g54
ag852
asg26
I00
sg27
I00
sg28
I4556608
sg20
S'7525.88951361'
p1202
sba(igraph
Edge
p1203
(dp1204
g7
I1
sg8
I00
sg9
I5
sg10
(lp1205
g61
ag866
asg26
I00
sg27
I00
sg28
I4556609
sg20
S'7525.89643376'
p1206
sba(igraph
Edge
p1207
(dp1208
g7
I1
sg8
I00
sg9
I5
sg10
(lp1209
g68
ag866
asg26
I00
sg27
I00
sg28
I4556610
sg20
S'7525.90087539'
p1210
sba(igraph
Edge
p1211
(dp1212
g7
I1
sg8
I00
sg9
I5
sg10
(lp1213
g75
ag880
asg26
I00
sg27
I00
sg28
I4556611
sg20
S'7525.9052469'
p1214
sba(igraph
Edge
p1215
(dp1216
g7
I1
sg8
I00
sg9
I5
sg10
(lp1217
g82
ag880
asg26
I00
sg27
I00
sg28
I4556612
sg20
S'7525.90962678'
p1218
sba(igraph
Edge
p1219
(dp1220
g7
I1
sg8
I00
sg9
I5
sg10
(lp1221
g89
ag894
asg26
I00
sg27
I00
sg28
I4556613
sg20
S'7525.91397203'
p1222
sba(igraph
Edge
p1223
(dp1224
g7
I1
sg8
I00
sg9
I5
sg10
(lp1225
g96
ag894
asg26
I00
sg27
I00
sg28
I4556614
sg20
S'7525.91853294'
p1226
sba(igraph
Edge
p1227
(dp1228
g7
I1
sg8
I00
sg9
I5
sg10
(lp1229
g103
ag908
asg26
I00
sg27
I00
sg28
I4556615
sg20
S'7525.92345591'
p1230
sba(igraph
Edge
p1231
(dp1232
g7
I1
sg8
I00
sg9
I5
sg10
(lp1233
g110
ag908
asg26
I00
sg27
I00
sg28
I4556616
sg20
S'7525.92807577'
p1234
sba(igraph
Edge
p1235
(dp1236
g7
I1
sg8
I00
sg9
I5
sg10
(lp1237
g117
ag922
asg26
I00
sg27
I00
sg28
I4556617
sg20
S'7525.9325987'
p1238
sba(igraph
Edge
p1239
(dp1240
g7
I1
sg8
I00
sg9
I5
sg10
(lp1241
g124
ag922
asg26
I00
sg27
I00
sg28
I4556618
sg20
S'7525.93918529'
p1242
sba(igraph
Edge
p1243
(dp1244
g7
I1
sg8
I00
sg9
I5
sg10
(lp1245
g131
ag936
asg26
I00
sg27
I00
sg28
I4556619
sg20
S'7525.94419961'
p1246
sba(igraph
Edge
p1247
(dp1248
g7
I1
sg8
I00
sg9
I5
sg10
(lp1249
g138
ag936
asg26
I00
sg27
I00
sg28
I4556620
sg20
S'7525.94905665'
p1250
sba(igraph
Edge
p1251
(dp1252
g7
I1
sg8
I00
sg9
I5
sg10
(lp1253
g145
ag821
asg26
I00
sg27
I00
sg28
I4556621
sg20
S'7525.95402013'
p1254
sba(igraph
Edge
p1255
(dp1256
g7
I1
sg8
I00
sg9
I5
sg10
(lp1257
g156
ag289
asg26
I00
sg27
I00
sg28
I4556622
sg20
S'7525.95921688'
p1258
sba(igraph
Edge
p1259
(dp1260
g7
I1
sg8
I00
sg9
I5
sg10
(lp1261
g159
ag289
asg26
I00
sg27
I00
sg28
I4556623
sg20
S'7525.96458572'
p1262
sba(igraph
Edge
p1263
(dp1264
g7
I1
sg8
I00
sg9
I5
sg10
(lp1265
g166
ag299
asg26
I00
sg27
I00
sg28
I4556624
sg20
S'7525.96977856'
p1266
sba(igraph
Edge
p1267
(dp1268
g7
I1
sg8
I00
sg9
I5
sg10
(lp1269
g173
ag299
asg26
I00
sg27
I00
sg28
I4556625
sg20
S'7525.9747412'
p1270
sba(igraph
Edge
p1271
(dp1272
g7
I1
sg8
I00
sg9
I5
sg10
(lp1273
g180
ag313
asg26
I00
sg27
I00
sg28
I4556626
sg20
S'7525.97983431'
p1274
sba(igraph
Edge
p1275
(dp1276
g7
I1
sg8
I00
sg9
I5
sg10
(lp1277
g187
ag313
asg26
I00
sg27
I00
sg28
I4556627
sg20
S'7525.98497854'
p1278
sba(igraph
Edge
p1279
(dp1280
g7
I1
sg8
I00
sg9
I5
sg10
(lp1281
g194
ag327
asg26
I00
sg27
I00
sg28
I4556628
sg20
S'7525.9900641'
p1282
sba(igraph
Edge
p1283
(dp1284
g7
I1
sg8
I00
sg9
I5
sg10
(lp1285
g201
ag327
asg26
I00
sg27
I00
sg28
I4556629
sg20
S'7525.99545277'
p1286
sba(igraph
Edge
p1287
(dp1288
g7
I1
sg8
I00
sg9
I5
sg10
(lp1289
g208
ag341
asg26
I00
sg27
I00
sg28
I4556630
sg20
S'7526.0006512'
p1290
sba(igraph
Edge
p1291
(dp1292
g7
I1
sg8
I00
sg9
I5
sg10
(lp1293
g215
ag341
asg26
I00
sg27
I00
sg28
I4556631
sg20
S'7526.00590857'
p1294
sba(igraph
Edge
p1295
(dp1296
g7
I1
sg8
I00
sg9
I5
sg10
(lp1297
g222
ag355
asg26
I00
sg27
I00
sg28
I4556632
sg20
S'7526.01108046'
p1298
sba(igraph
Edge
p1299
(dp1300
g7
I1
sg8
I00
sg9
I5
sg10
(lp1301
g229
ag355
asg26
I00
sg27
I00
sg28
I4556633
sg20
S'7526.01680465'
p1302
sba(igraph
Edge
p1303
(dp1304
g7
I1
sg8
I00
sg9
I5
sg10
(lp1305
g236
ag369
asg26
I00
sg27
I00
sg28
I4556634
sg20
S'7526.02201453'
p1306
sba(igraph
Edge
p1307
(dp1308
g7
I1
sg8
I00
sg9
I5
sg10
(lp1309
g243
ag369
asg26
I00
sg27
I00
sg28
I4556635
sg20
S'7526.02741103'
p1310
sba(igraph
Edge
p1311
(dp1312
g7
I1
sg8
I00
sg9
I5
sg10
(lp1313
g250
ag383
asg26
I00
sg27
I00
sg28
I4556636
sg20
S'7526.03259772'
p1314
sba(igraph
Edge
p1315
(dp1316
g7
I1
sg8
I00
sg9
I5
sg10
(lp1317
g257
ag383
asg26
I00
sg27
I00
sg28
I4556637
sg20
S'7526.0384602'
p1318
sba(igraph
Edge
p1319
(dp1320
g7
I1
sg8
I00
sg9
I5
sg10
(lp1321
g264
ag397
asg26
I00
sg27
I00
sg28
I4556638
sg20
S'7526.04473529'
p1322
sba(igraph
Edge
p1323
(dp1324
g7
I1
sg8
I00
sg9
I5
sg10
(lp1325
g271
ag397
asg26
I00
sg27
I00
sg28
I4556639
sg20
S'7526.05120092'
p1326
sba(igraph
Edge
p1327
(dp1328
g7
I1
sg8
I00
sg9
I5
sg10
(lp1329
g278
ag411
asg26
I00
sg27
I00
sg28
I4556640
sg20
S'7526.05851582'
p1330
sba(igraph
Edge
p1331
(dp1332
g7
I1
sg8
I00
sg9
I5
sg10
(lp1333
g156
ag411
asg26
I00
sg27
I00
sg28
I4556641
sg20
S'7526.06491803'
p1334
sba(igraph
Edge
p1335
(dp1336
g7
I1
sg8
I00
sg9
I5
sg10
(lp1337
g159
ag292
asg26
I00
sg27
I00
sg28
I4556642
sg20
S'7526.07170772'
p1338
sba(igraph
Edge
p1339
(dp1340
g7
I1
sg8
I00
sg9
I5
sg10
(lp1341
g166
ag292
asg26
I00
sg27
I00
sg28
I4556643
sg20
S'7526.07818256'
p1342
sba(igraph
Edge
p1343
(dp1344
g7
I1
sg8
I00
sg9
I5
sg10
(lp1345
g173
ag306
asg26
I00
sg27
I00
sg28
I4556644
sg20
S'7526.08484402'
p1346
sba(igraph
Edge
p1347
(dp1348
g7
I1
sg8
I00
sg9
I5
sg10
(lp1349
g180
ag306
asg26
I00
sg27
I00
sg28
I4556645
sg20
S'7526.0904791'
p1350
sba(igraph
Edge
p1351
(dp1352
g7
I1
sg8
I00
sg9
I5
sg10
(lp1353
g187
ag320
asg26
I00
sg27
I00
sg28
I4556646
sg20
S'7526.09613848'
p1354
sba(igraph
Edge
p1355
(dp1356
g7
I1
sg8
I00
sg9
I5
sg10
(lp1357
g194
ag320
asg26
I00
sg27
I00
sg28
I4556647
sg20
S'7526.10350366'
p1358
sba(igraph
Edge
p1359
(dp1360
g7
I1
sg8
I00
sg9
I5
sg10
(lp1361
g201
ag334
asg26
I00
sg27
I00
sg28
I4556648
sg20
S'7526.10942759'
p1362
sba(igraph
Edge
p1363
(dp1364
g7
I1
sg8
I00
sg9
I5
sg10
(lp1365
g208
ag334
asg26
I00
sg27
I00
sg28
I4556649
sg20
S'7526.11514732'
p1366
sba(igraph
Edge
p1367
(dp1368
g7
I1
sg8
I00
sg9
I5
sg10
(lp1369
g215
ag348
asg26
I00
sg27
I00
sg28
I4556650
sg20
S'7526.12107405'
p1370
sba(igraph
Edge
p1371
(dp1372
g7
I1
sg8
I00
sg9
I5
sg10
(lp1373
g222
ag348
asg26
I00
sg27
I00
sg28
I4556651
sg20
S'7526.12742681'
p1374
sba(igraph
Edge
p1375
(dp1376
g7
I1
sg8
I00
sg9
I5
sg10
(lp1377
g229
ag362
asg26
I00
sg27
I00
sg28
I4556652
sg20
S'7526.13327644'
p1378
sba(igraph
Edge
p1379
(dp1380
g7
I1
sg8
I00
sg9
I5
sg10
(lp1381
g236
ag362
asg26
I00
sg27
I00
sg28
I4556653
sg20
S'7526.13899672'
p1382
sba(igraph
Edge
p1383
(dp1384
g7
I1
sg8
I00
sg9
I5
sg10
(lp1385
g243
ag376
asg26
I00
sg27
I00
sg28
I4556654
sg20
S'7526.14457955'
p1386
sba(igraph
Edge
p1387
(dp1388
g7
I1
sg8
I00
sg9
I5
sg10
(lp1389
g250
ag376
asg26
I00
sg27
I00
sg28
I4556655
sg20
S'7526.15023418'
p1390
sba(igraph
Edge
p1391
(dp1392
g7
I1
sg8
I00
sg9
I5
sg10
(lp1393
g257
ag390
asg26
I00
sg27
I00
sg28
I4556656
sg20
S'7526.15606285'
p1394
sba(igraph
Edge
p1395
(dp1396
g7
I1
sg8
I00
sg9
I5
sg10
(lp1397
g264
ag390
asg26
I00
sg27
I00
sg28
I4556657
sg20
S'7526.16299613'
p1398
sba(igraph
Edge
p1399
(dp1400
g7
I1
sg8
I00
sg9
I5
sg10
(lp1401
g271
ag404
asg26
I00
sg27
I00
sg28
I4556658
sg20
S'7526.16990064'
p1402
sba(igraph
Edge
p1403
(dp1404
g7
I1
sg8
I00
sg9
I5
sg10
(lp1405
g278
ag404
asg26
I00
sg27
I00
sg28
I4556659
sg20
S'7526.17689315'
p1406
sba(igraph
Edge
p1407
(dp1408
g7
I1
sg8
I00
sg9
I5
sg10
(lp1409
g289
ag422
asg26
I00
sg27
I00
sg28
I4556660
sg20
S'7526.18368843'
p1410
sba(igraph
Edge
p1411
(dp1412
g7
I1
sg8
I00
sg9
I5
sg10
(lp1413
g292
ag422
asg26
I00
sg27
I00
sg28
I4556661
sg20
S'7526.19078794'
p1414
sba(igraph
Edge
p1415
(dp1416
g7
I1
sg8
I00
sg9
I5
sg10
(lp1417
g299
ag432
asg26
I00
sg27
I00
sg28
I4556662
sg20
S'7526.19842662'
p1418
sba(igraph
Edge
p1419
(dp1420
g7
I1
sg8
I00
sg9
I5
sg10
(lp1421
g306
ag432
asg26
I00
sg27
I00
sg28
I4556663
sg20
S'7526.20539705'
p1422
sba(igraph
Edge
p1423
(dp1424
g7
I1
sg8
I00
sg9
I5
sg10
(lp1425
g313
ag446
asg26
I00
sg27
I00
sg28
I4556664
sg20
S'7526.21167662'
p1426
sba(igraph
Edge
p1427
(dp1428
g7
I1
sg8
I00
sg9
I5
sg10
(lp1429
g320
ag446
asg26
I00
sg27
I00
sg28
I4556665
sg20
S'7526.2178816'
p1430
sba(igraph
Edge
p1431
(dp1432
g7
I1
sg8
I00
sg9
I5
sg10
(lp1433
g327
ag460
asg26
I00
sg27
I00
sg28
I4556666
sg20
S'7526.22410474'
p1434
sba(igraph
Edge
p1435
(dp1436
g7
I1
sg8
I00
sg9
I5
sg10
(lp1437
g334
ag460
asg26
I00
sg27
I00
sg28
I4556667
sg20
S'7526.23012115'
p1438
sba(igraph
Edge
p1439
(dp1440
g7
I1
sg8
I00
sg9
I5
sg10
(lp1441
g341
ag474
asg26
I00
sg27
I00
sg28
I4556668
sg20
S'7526.23645324'
p1442
sba(igraph
Edge
p1443
(dp1444
g7
I1
sg8
I00
sg9
I5
sg10
(lp1445
g348
ag474
asg26
I00
sg27
I00
sg28
I4556669
sg20
S'7526.24259173'
p1446
sba(igraph
Edge
p1447
(dp1448
g7
I1
sg8
I00
sg9
I5
sg10
(lp1449
g355
ag488
asg26
I00
sg27
I00
sg28
I4556670
sg20
S'7526.24874977'
p1450
sba(igraph
Edge
p1451
(dp1452
g7
I1
sg8
I00
sg9
I5
sg10
(lp1453
g362
ag488
asg26
I00
sg27
I00
sg28
I4556671
sg20
S'7526.2547902'
p1454
sba(igraph
Edge
p1455
(dp1456
g7
I1
sg8
I00
sg9
I5
sg10
(lp1457
g369
ag502
asg26
I00
sg27
I00
sg28
I4556672
sg20
S'7526.26090579'
p1458
sba(igraph
Edge
p1459
(dp1460
g7
I1
sg8
I00
sg9
I5
sg10
(lp1461
g376
ag502
asg26
I00
sg27
I00
sg28
I4556673
sg20
S'7526.26814721'
p1462
sba(igraph
Edge
p1463
(dp1464
g7
I1
sg8
I00
sg9
I5
sg10
(lp1465
g383
ag516
asg26
I00
sg27
I00
sg28
I4556674
sg20
S'7526.2743628'
p1466
sba(igraph
Edge
p1467
(dp1468
g7
I1
sg8
I00
sg9
I5
sg10
(lp1469
g390
ag516
asg26
I00
sg27
I00
sg28
I4556675
sg20
S'7526.28086978'
p1470
sba(igraph
Edge
p1471
(dp1472
g7
I1
sg8
I00
sg9
I5
sg10
(lp1473
g397
ag530
asg26
I00
sg27
I00
sg28
I4556676
sg20
S'7526.28738401'
p1474
sba(igraph
Edge
p1475
(dp1476
g7
I1
sg8
I00
sg9
I5
sg10
(lp1477
g404
ag530
asg26
I00
sg27
I00
sg28
I4556677
sg20
S'7526.29402033'
p1478
sba(igraph
Edge
p1479
(dp1480
g7
I1
sg8
I00
sg9
I5
sg10
(lp1481
g411
ag544
asg26
I00
sg27
I00
sg28
I4556678
sg20
S'7526.30053876'
p1482
sba(igraph
Edge
p1483
(dp1484
g7
I1
sg8
I00
sg9
I5
sg10
(lp1485
g289
ag544
asg26
I00
sg27
I00
sg28
I4556679
sg20
S'7526.30700606'
p1486
sba(igraph
Edge
p1487
(dp1488
g7
I1
sg8
I00
sg9
I5
sg10
(lp1489
g292
ag425
asg26
I00
sg27
I00
sg28
I4556680
sg20
S'7526.3168182'
p1490
sba(igraph
Edge
p1491
(dp1492
g7
I1
sg8
I00
sg9
I5
sg10
(lp1493
g299
ag425
asg26
I00
sg27
I00
sg28
I4556681
sg20
S'7526.32429233'
p1494
sba(igraph
Edge
p1495
(dp1496
g7
I1
sg8
I00
sg9
I5
sg10
(lp1497
g306
ag439
asg26
I00
sg27
I00
sg28
I4556682
sg20
S'7526.33239616'
p1498
sba(igraph
Edge
p1499
(dp1500
g7
I1
sg8
I00
sg9
I5
sg10
(lp1501
g313
ag439
asg26
I00
sg27
I00
sg28
I4556683
sg20
S'7526.3406243'
p1502
sba(igraph
Edge
p1503
(dp1504
g7
I1
sg8
I00
sg9
I5
sg10
(lp1505
g320
ag453
asg26
I00
sg27
I00
sg28
I4556684
sg20
S'7526.34831243'
p1506
sba(igraph
Edge
p1507
(dp1508
g7
I1
sg8
I00
sg9
I5
sg10
(lp1509
g327
ag453
asg26
I00
sg27
I00
sg28
I4556685
sg20
S'7526.35559687'
p1510
sba(igraph
Edge
p1511
(dp1512
g7
I1
sg8
I00
sg9
I5
sg10
(lp1513
g334
ag467
asg26
I00
sg27
I00
sg28
I4556686
sg20
S'7526.36242567'
p1514
sba(igraph
Edge
p1515
(dp1516
g7
I1
sg8
I00
sg9
I5
sg10
(lp1517
g341
ag467
asg26
I00
sg27
I00
sg28
I4556687
sg20
S'7526.36932795'
p1518
sba(igraph
Edge
p1519
(dp1520
g7
I1
sg8
I00
sg9
I5
sg10
(lp1521
g348
ag481
asg26
I00
sg27
I00
sg28
I4556688
sg20
S'7526.37623357'
p1522
sba(igraph
Edge
p1523
(dp1524
g7
I1
sg8
I00
sg9
I5
sg10
(lp1525
g355
ag481
asg26
I00
sg27
I00
sg28
I4556689
sg20
S'7526.38280647'
p1526
sba(igraph
Edge
p1527
(dp1528
g7
I1
sg8
I00
sg9
I5
sg10
(lp1529
g362
ag495
asg26
I00
sg27
I00
sg28
I4556690
sg20
S'7526.39059573'
p1530
sba(igraph
Edge
p1531
(dp1532
g7
I1
sg8
I00
sg9
I5
sg10
(lp1533
g369
ag495
asg26
I00
sg27
I00
sg28
I4556691
sg20
S'7526.39774916'
p1534
sba(igraph
Edge
p1535
(dp1536
g7
I1
sg8
I00
sg9
I5
sg10
(lp1537
g376
ag509
asg26
I00
sg27
I00
sg28
I4556692
sg20
S'7526.40577727'
p1538
sba(igraph
Edge
p1539
(dp1540
g7
I1
sg8
I00
sg9
I5
sg10
(lp1541
g383
ag509
asg26
I00
sg27
I00
sg28
I4556693
sg20
S'7526.41592521'
p1542
sba(igraph
Edge
p1543
(dp1544
g7
I1
sg8
I00
sg9
I5
sg10
(lp1545
g390
ag523
asg26
I00
sg27
I00
sg28
I4556694
sg20
S'7526.42433717'
p1546
sba(igraph
Edge
p1547
(dp1548
g7
I1
sg8
I00
sg9
I5
sg10
(lp1549
g397
ag523
asg26
I00
sg27
I00
sg28
I4556695
sg20
S'7526.43190769'
p1550
sba(igraph
Edge
p1551
(dp1552
g7
I1
sg8
I00
sg9
I5
sg10
(lp1553
g404
ag537
asg26
I00
sg27
I00
sg28
I4556696
sg20
S'7526.43987881'
p1554
sba(igraph
Edge
p1555
(dp1556
g7
I1
sg8
I00
sg9
I5
sg10
(lp1557
g411
ag537
asg26
I00
sg27
I00
sg28
I4556697
sg20
S'7526.44793794'
p1558
sba(igraph
Edge
p1559
(dp1560
g7
I1
sg8
I00
sg9
I5
sg10
(lp1561
g422
ag555
asg26
I00
sg27
I00
sg28
I4556698
sg20
S'7526.45621469'
p1562
sba(igraph
Edge
p1563
(dp1564
g7
I1
sg8
I00
sg9
I5
sg10
(lp1565
g425
ag555
asg26
I00
sg27
I00
sg28
I4556699
sg20
S'7526.46417492'
p1566
sba(igraph
Edge
p1567
(dp1568
g7
I1
sg8
I00
sg9
I5
sg10
(lp1569
g432
ag565
asg26
I00
sg27
I00
sg28
I4556700
sg20
S'7526.47221896'
p1570
sba(igraph
Edge
p1571
(dp1572
g7
I1
sg8
I00
sg9
I5
sg10
(lp1573
g439
ag565
asg26
I00
sg27
I00
sg28
I4556701
sg20
S'7526.4800585'
p1574
sba(igraph
Edge
p1575
(dp1576
g7
I1
sg8
I00
sg9
I5
sg10
(lp1577
g446
ag579
asg26
I00
sg27
I00
sg28
I4556702
sg20
S'7526.48770584'
p1578
sba(igraph
Edge
p1579
(dp1580
g7
I1
sg8
I00
sg9
I5
sg10
(lp1581
g453
ag579
asg26
I00
sg27
I00
sg28
I4556703
sg20
S'7526.49486792'
p1582
sba(igraph
Edge
p1583
(dp1584
g7
I1
sg8
I00
sg9
I5
sg10
(lp1585
g460
ag593
asg26
I00
sg27
I00
sg28
I4556704
sg20
S'7526.50206157'
p1586
sba(igraph
Edge
p1587
(dp1588
g7
I1
sg8
I00
sg9
I5
sg10
(lp1589
g467
ag593
asg26
I00
sg27
I00
sg28
I4556705
sg20
S'7526.5090133'
p1590
sba(igraph
Edge
p1591
(dp1592
g7
I1
sg8
I00
sg9
I5
sg10
(lp1593
g474
ag607
asg26
I00
sg27
I00
sg28
I4556706
sg20
S'7526.51592647'
p1594
sba(igraph
Edge
p1595
(dp1596
g7
I1
sg8
I00
sg9
I5
sg10
(lp1597
g481
ag607
asg26
I00
sg27
I00
sg28
I4556707
sg20
S'7526.5232422'
p1598
sba(igraph
Edge
p1599
(dp1600
g7
I1
sg8
I00
sg9
I5
sg10
(lp1601
g488
ag621
asg26
I00
sg27
I00
sg28
I4556708
sg20
S'7526.52984639'
p1602
sba(igraph
Edge
p1603
(dp1604
g7
I1
sg8
I00
sg9
I5
sg10
(lp1605
g495
ag621
asg26
I00
sg27
I00
sg28
I4556709
sg20
S'7526.53630755'
p1606
sba(igraph
Edge
p1607
(dp1608
g7
I1
sg8
I00
sg9
I5
sg10
(lp1609
g502
ag635
asg26
I00
sg27
I00
sg28
I4556710
sg20
S'7526.54275893'
p1610
sba(igraph
Edge
p1611
(dp1612
g7
I1
sg8
I00
sg9
I5
sg10
(lp1613
g509
ag635
asg26
I00
sg27
I00
sg28
I4556711
sg20
S'7526.54922958'
p1614
sba(igraph
Edge
p1615
(dp1616
g7
I1
sg8
I00
sg9
I5
sg10
(lp1617
g516
ag649
asg26
I00
sg27
I00
sg28
I4556712
sg20
S'7526.55585025'
p1618
sba(igraph
Edge
p1619
(dp1620
g7
I1
sg8
I00
sg9
I5
sg10
(lp1621
g523
ag649
asg26
I00
sg27
I00
sg28
I4556713
sg20
S'7526.56248881'
p1622
sba(igraph
Edge
p1623
(dp1624
g7
I1
sg8
I00
sg9
I5
sg10
(lp1625
g530
ag663
asg26
I00
sg27
I00
sg28
I4556714
sg20
S'7526.569093'
p1626
sba(igraph
Edge
p1627
(dp1628
g7
I1
sg8
I00
sg9
I5
sg10
(lp1629
g537
ag663
asg26
I00
sg27
I00
sg28
I4556715
sg20
S'7526.57563964'
p1630
sba(igraph
Edge
p1631
(dp1632
g7
I1
sg8
I00
sg9
I5
sg10
(lp1633
g544
ag677
asg26
I00
sg27
I00
sg28
I4556716
sg20
S'7526.5822687'
p1634
sba(igraph
Edge
p1635
(dp1636
g7
I1
sg8
I00
sg9
I5
sg10
(lp1637
g422
ag677
asg26
I00
sg27
I00
sg28
I4556717
sg20
S'7526.58897709'
p1638
sba(igraph
Edge
p1639
(dp1640
g7
I1
sg8
I00
sg9
I5
sg10
(lp1641
g425
ag558
asg26
I00
sg27
I00
sg28
I4556718
sg20
S'7526.59568269'
p1642
sba(igraph
Edge
p1643
(dp1644
g7
I1
sg8
I00
sg9
I5
sg10
(lp1645
g432
ag558
asg26
I00
sg27
I00
sg28
I4556719
sg20
S'7526.60234806'
p1646
sba(igraph
Edge
p1647
(dp1648
g7
I1
sg8
I00
sg9
I5
sg10
(lp1649
g439
ag572
asg26
I00
sg27
I00
sg28
I4556720
sg20
S'7526.60911485'
p1650
sba(igraph
Edge
p1651
(dp1652
g7
I1
sg8
I00
sg9
I5
sg10
(lp1653
g446
ag572
asg26
I00
sg27
I00
sg28
I4556721
sg20
S'7526.61606573'
p1654
sba(igraph
Edge
p1655
(dp1656
g7
I1
sg8
I00
sg9
I5
sg10
(lp1657
g453
ag586
asg26
I00
sg27
I00
sg28
I4556722
sg20
S'7526.62286045'
p1658
sba(igraph
Edge
p1659
(dp1660
g7
I1
sg8
I00
sg9
I5
sg10
(lp1661
g460
ag586
asg26
I00
sg27
I00
sg28
I4556723
sg20
S'7526.62971271'
p1662
sba(igraph
Edge
p1663
(dp1664
g7
I1
sg8
I00
sg9
I5
sg10
(lp1665
g467
ag600
asg26
I00
sg27
I00
sg28
I4556724
sg20
S'7526.63656973'
p1666
sba(igraph
Edge
p1667
(dp1668
g7
I1
sg8
I00
sg9
I5
sg10
(lp1669
g474
ag600
asg26
I00
sg27
I00
sg28
I4556725
sg20
S'7526.6449722'
p1670
sba(igraph
Edge
p1671
(dp1672
g7
I1
sg8
I00
sg9
I5
sg10
(lp1673
g481
ag614
asg26
I00
sg27
I00
sg28
I4556726
sg20
S'7526.65608813'
p1674
sba(igraph
Edge
p1675
(dp1676
g7
I1
sg8
I00
sg9
I5
sg10
(lp1677
g488
ag614
asg26
I00
sg27
I00
sg28
I4556727
sg20
S'7526.66359914'
p1678
sba(igraph
Edge
p1679
(dp1680
g7
I1
sg8
I00
sg9
I5
sg10
(lp1681
g495
ag628
asg26
I00
sg27
I00
sg28
I4556728
sg20
S'7526.67121408'
p1682
sba(igraph
Edge
p1683
(dp1684
g7
I1
sg8
I00
sg9
I5
sg10
(lp1685
g502
ag628
asg26
I00
sg27
I00
sg28
I4556729
sg20
S'7526.67869073'
p1686
sba(igraph
Edge
p1687
(dp1688
g7
I1
sg8
I00
sg9
I5
sg10
(lp1689
g509
ag642
asg26
I00
sg27
I00
sg28
I4556730
sg20
S'7526.68885235'
p1690
sba(igraph
Edge
p1691
(dp1692
g7
I1
sg8
I00
sg9
I5
sg10
(lp1693
g516
ag642
asg26
I00
sg27
I00
sg28
I4556731
sg20
S'7526.70294744'
p1694
sba(igraph
Edge
p1695
(dp1696
g7
I1
sg8
I00
sg9
I5
sg10
(lp1697
g523
ag656
asg26
I00
sg27
I00
sg28
I4556732
sg20
S'7526.71202206'
p1698
sba(igraph
Edge
p1699
(dp1700
g7
I1
sg8
I00
sg9
I5
sg10
(lp1701
g530
ag656
asg26
I00
sg27
I00
sg28
I4556733
sg20
S'7526.72122099'
p1702
sba(igraph
Edge
p1703
(dp1704
g7
I1
sg8
I00
sg9
I5
sg10
(lp1705
g537
ag670
asg26
I00
sg27
I00
sg28
I4556734
sg20
S'7526.7303783'
p1706
sba(igraph
Edge
p1707
(dp1708
g7
I1
sg8
I00
sg9
I5
sg10
(lp1709
g544
ag670
asg26
I00
sg27
I00
sg28
I4556735
sg20
S'7526.73926882'
p1710
sba(igraph
Edge
p1711
(dp1712
g7
I1
sg8
I00
sg9
I5
sg10
(lp1713
g555
ag688
asg26
I00
sg27
I00
sg28
I4556736
sg20
S'7526.74788583'
p1714
sba(igraph
Edge
p1715
(dp1716
g7
I1
sg8
I00
sg9
I5
sg10
(lp1717
g558
ag688
asg26
I00
sg27
I00
sg28
I4556737
sg20
S'7526.75641737'
p1718
sba(igraph
Edge
p1719
(dp1720
g7
I1
sg8
I00
sg9
I5
sg10
(lp1721
g565
ag698
asg26
I00
sg27
I00
sg28
I4556738
sg20
S'7526.76355431'
p1722
sba(igraph
Edge
p1723
(dp1724
g7
I1
sg8
I00
sg9
I5
sg10
(lp1725
g572
ag698
asg26
I00
sg27
I00
sg28
I4556739
sg20
S'7526.77072924'
p1726
sba(igraph
Edge
p1727
(dp1728
g7
I1
sg8
I00
sg9
I5
sg10
(lp1729
g579
ag712
asg26
I00
sg27
I00
sg28
I4556740
sg20
S'7526.77807571'
p1730
sba(igraph
Edge
p1731
(dp1732
g7
I1
sg8
I00
sg9
I5
sg10
(lp1733
g586
ag712
asg26
I00
sg27
I00
sg28
I4556741
sg20
S'7526.78523751'
p1734
sba(igraph
Edge
p1735
(dp1736
g7
I1
sg8
I00
sg9
I5
sg10
(lp1737
g593
ag726
asg26
I00
sg27
I00
sg28
I4556742
sg20
S'7526.7923331'
p1738
sba(igraph
Edge
p1739
(dp1740
g7
I1
sg8
I00
sg9
I5
sg10
(lp1741
g600
ag726
asg26
I00
sg27
I00
sg28
I4556743
sg20
S'7526.7996765'
p1742
sba(igraph
Edge
p1743
(dp1744
g7
I1
sg8
I00
sg9
I5
sg10
(lp1745
g607
ag740
asg26
I00
sg27
I00
sg28
I4556744
sg20
S'7526.80699502'
p1746
sba(igraph
Edge
p1747
(dp1748
g7
I1
sg8
I00
sg9
I5
sg10
(lp1749
g614
ag740
asg26
I00
sg27
I00
sg28
I4556745
sg20
S'7526.81431634'
p1750
sba(igraph
Edge
p1751
(dp1752
g7
I1
sg8
I00
sg9
I5
sg10
(lp1753
g621
ag754
asg26
I00
sg27
I00
sg28
I4556746
sg20
S'7526.8216399'
p1754
sba(igraph
Edge
p1755
(dp1756
g7
I1
sg8
I00
sg9
I5
sg10
(lp1757
g628
ag754
asg26
I00
sg27
I00
sg28
I4556747
sg20
S'7526.82919282'
p1758
sba(igraph
Edge
p1759
(dp1760
g7
I1
sg8
I00
sg9
I5
sg10
(lp1761
g635
ag768
asg26
I00
sg27
I00
sg28
I4556748
sg20
S'7526.83662365'
p1762
sba(igraph
Edge
p1763
(dp1764
g7
I1
sg8
I00
sg9
I5
sg10
(lp1765
g642
ag768
asg26
I00
sg27
I00
sg28
I4556749
sg20
S'7526.84397123'
p1766
sba(igraph
Edge
p1767
(dp1768
g7
I1
sg8
I00
sg9
I5
sg10
(lp1769
g649
ag782
asg26
I00
sg27
I00
sg28
I4556750
sg20
S'7526.85139424'
p1770
sba(igraph
Edge
p1771
(dp1772
g7
I1
sg8
I00
sg9
I5
sg10
(lp1773
g656
ag782
asg26
I00
sg27
I00
sg28
I4556751
sg20
S'7526.85882368'
p1774
sba(igraph
Edge
p1775
(dp1776
g7
I1
sg8
I00
sg9
I5
sg10
(lp1777
g663
ag796
asg26
I00
sg27
I00
sg28
I4556752
sg20
S'7526.86629278'
p1778
sba(igraph
Edge
p1779
(dp1780
g7
I1
sg8
I00
sg9
I5
sg10
(lp1781
g670
ag796
asg26
I00
sg27
I00
sg28
I4556753
sg20
S'7526.87390688'
p1782
sba(igraph
Edge
p1783
(dp1784
g7
I1
sg8
I00
sg9
I5
sg10
(lp1785
g677
ag810
asg26
I00
sg27
I00
sg28
I4556754
sg20
S'7526.88142487'
p1786
sba(igraph
Edge
p1787
(dp1788
g7
I1
sg8
I00
sg9
I5
sg10
(lp1789
g555
ag810
asg26
I00
sg27
I00
sg28
I4556755
sg20
S'7526.88893477'
p1790
sba(igraph
Edge
p1791
(dp1792
g7
I1
sg8
I00
sg9
I5
sg10
(lp1793
g558
ag691
asg26
I00
sg27
I00
sg28
I4556756
sg20
S'7526.89658574'
p1794
sba(igraph
Edge
p1795
(dp1796
g7
I1
sg8
I00
sg9
I5
sg10
(lp1797
g565
ag691
asg26
I00
sg27
I00
sg28
I4556757
sg20
S'7526.90419006'
p1798
sba(igraph
Edge
p1799
(dp1800
g7
I1
sg8
I00
sg9
I5
sg10
(lp1801
g572
ag705
asg26
I00
sg27
I00
sg28
I4556758
sg20
S'7526.91181058'
p1802
sba(igraph
Edge
p1803
(dp1804
g7
I1
sg8
I00
sg9
I5
sg10
(lp1805
g579
ag705
asg26
I00
sg27
I00
sg28
I4556759
sg20
S'7526.91945429'
p1806
sba(igraph
Edge
p1807
(dp1808
g7
I1
sg8
I00
sg9
I5
sg10
(lp1809
g586
ag719
asg26
I00
sg27
I00
sg28
I4556760
sg20
S'7526.92710191'
p1810
sba(igraph
Edge
p1811
(dp1812
g7
I1
sg8
I00
sg9
I5
sg10
(lp1813
g593
ag719
asg26
I00
sg27
I00
sg28
I4556761
sg20
S'7526.93475735'
p1814
sba(igraph
Edge
p1815
(dp1816
g7
I1
sg8
I00
sg9
I5
sg10
(lp1817
g600
ag733
asg26
I00
sg27
I00
sg28
I4556762
sg20
S'7526.94557576'
p1818
sba(igraph
Edge
p1819
(dp1820
g7
I1
sg8
I00
sg9
I5
sg10
(lp1821
g607
ag733
asg26
I00
sg27
I00
sg28
I4556763
sg20
S'7526.95338178'
p1822
sba(igraph
Edge
p1823
(dp1824
g7
I1
sg8
I00
sg9
I5
sg10
(lp1825
g614
ag747
asg26
I00
sg27
I00
sg28
I4556764
sg20
S'7526.96138252'
p1826
sba(igraph
Edge
p1827
(dp1828
g7
I1
sg8
I00
sg9
I5
sg10
(lp1829
g621
ag747
asg26
I00
sg27
I00
sg28
I4556765
sg20
S'7526.96922486'
p1830
sba(igraph
Edge
p1831
(dp1832
g7
I1
sg8
I00
sg9
I5
sg10
(lp1833
g628
ag761
asg26
I00
sg27
I00
sg28
I4556766
sg20
S'7526.97761308'
p1834
sba(igraph
Edge
p1835
(dp1836
g7
I1
sg8
I00
sg9
I5
sg10
(lp1837
g635
ag761
asg26
I00
sg27
I00
sg28
I4556767
sg20
S'7526.98559677'
p1838
sba(igraph
Edge
p1839
(dp1840
g7
I1
sg8
I00
sg9
I5
sg10
(lp1841
g642
ag775
asg26
I00
sg27
I00
sg28
I4556768
sg20
S'7526.99351007'
p1842
sba(igraph
Edge
p1843
(dp1844
g7
I1
sg8
I00
sg9
I5
sg10
(lp1845
g649
ag775
asg26
I00
sg27
I00
sg28
I4556769
sg20
S'7527.00140409'
p1846
sba(igraph
Edge
p1847
(dp1848
g7
I1
sg8
I00
sg9
I5
sg10
(lp1849
g656
ag789
asg26
I00
sg27
I00
sg28
I4556770
sg20
S'7527.00934923'
p1850
sba(igraph
Edge
p1851
(dp1852
g7
I1
sg8
I00
sg9
I5
sg10
(lp1853
g663
ag789
asg26
I00
sg27
I00
sg28
I4556771
sg20
S'7527.01723124'
p1854
sba(igraph
Edge
p1855
(dp1856
g7
I1
sg8
I00
sg9
I5
sg10
(lp1857
g670
ag803
asg26
I00
sg27
I00
sg28
I4556772
sg20
S'7527.02510431'
p1858
sba(igraph
Edge
p1859
(dp1860
g7
I1
sg8
I00
sg9
I5
sg10
(lp1861
g677
ag803
asg26
I00
sg27
I00
sg28
I4556773
sg20
S'7527.03310896'
p1862
sba(igraph
Edge
p1863
(dp1864
g7
I1
sg8
I00
sg9
I5
sg10
(lp1865
g688
ag821
asg26
I00
sg27
I00
sg28
I4556774
sg20
S'7527.04111584'
p1866
sba(igraph
Edge
p1867
(dp1868
g7
I1
sg8
I00
sg9
I5
sg10
(lp1869
g691
ag821
asg26
I00
sg27
I00
sg28
I4556775
sg20
S'7527.04907607'
p1870
sba(igraph
Edge
p1871
(dp1872
g7
I1
sg8
I00
sg9
I5
sg10
(lp1873
g698
ag831
asg26
I00
sg27
I00
sg28
I4556776
sg20
S'7527.05712653'
p1874
sba(igraph
Edge
p1875
(dp1876
g7
I1
sg8
I00
sg9
I5
sg10
(lp1877
g705
ag831
asg26
I00
sg27
I00
sg28
I4556777
sg20
S'7527.06517337'
p1878
sba(igraph
Edge
p1879
(dp1880
g7
I1
sg8
I00
sg9
I5
sg10
(lp1881
g712
ag845
asg26
I00
sg27
I00
sg28
I4556778
sg20
S'7527.07308331'
p1882
sba(igraph
Edge
p1883
(dp1884
g7
I1
sg8
I00
sg9
I5
sg10
(lp1885
g719
ag845
asg26
I00
sg27
I00
sg28
I4556779
sg20
S'7527.0812106'
p1886
sba(igraph
Edge
p1887
(dp1888
g7
I1
sg8
I00
sg9
I5
sg10
(lp1889
g726
ag859
asg26
I00
sg27
I00
sg28
I4556780
sg20
S'7527.08929096'
p1890
sba(igraph
Edge
p1891
(dp1892
g7
I1
sg8
I00
sg9
I5
sg10
(lp1893
g733
ag859
asg26
I00
sg27
I00
sg28
I4556781
sg20
S'7527.09751603'
p1894
sba(igraph
Edge
p1895
(dp1896
g7
I1
sg8
I00
sg9
I5
sg10
(lp1897
g740
ag873
asg26
I00
sg27
I00
sg28
I4556782
sg20
S'7527.10566762'
p1898
sba(igraph
Edge
p1899
(dp1900
g7
I1
sg8
I00
sg9
I5
sg10
(lp1901
g747
ag873
asg26
I00
sg27
I00
sg28
I4556783
sg20
S'7527.11386699'
p1902
sba(igraph
Edge
p1903
(dp1904
g7
I1
sg8
I00
sg9
I5
sg10
(lp1905
g754
ag887
asg26
I00
sg27
I00
sg28
I4556784
sg20
S'7527.12221777'
p1906
sba(igraph
Edge
p1907
(dp1908
g7
I1
sg8
I00
sg9
I5
sg10
(lp1909
g761
ag887
asg26
I00
sg27
I00
sg28
I4556785
sg20
S'7527.13044758'
p1910
sba(igraph
Edge
p1911
(dp1912
g7
I1
sg8
I00
sg9
I5
sg10
(lp1913
g768
ag901
asg26
I00
sg27
I00
sg28
I4556786
sg20
S'7527.13859192'
p1914
sba(igraph
Edge
p1915
(dp1916
g7
I1
sg8
I00
sg9
I5
sg10
(lp1917
g775
ag901
asg26
I00
sg27
I00
sg28
I4556787
sg20
S'7527.14680274'
p1918
sba(igraph
Edge
p1919
(dp1920
g7
I1
sg8
I00
sg9
I5
sg10
(lp1921
g782
ag915
asg26
I00
sg27
I00
sg28
I4556788
sg20
S'7527.15497724'
p1922
sba(igraph
Edge
p1923
(dp1924
g7
I1
sg8
I00
sg9
I5
sg10
(lp1925
g789
ag915
asg26
I00
sg27
I00
sg28
I4556789
sg20
S'7527.1632646'
p1926
sba(igraph
Edge
p1927
(dp1928
g7
I1
sg8
I00
sg9
I5
sg10
(lp1929
g796
ag929
asg26
I00
sg27
I00
sg28
I4556790
sg20
S'7527.17149582'
p1930
sba(igraph
Edge
p1931
(dp1932
g7
I1
sg8
I00
sg9
I5
sg10
(lp1933
g803
ag929
asg26
I00
sg27
I00
sg28
I4556791
sg20
S'7527.17979715'
p1934
sba(igraph
Edge
p1935
(dp1936
g7
I1
sg8
I00
sg9
I5
sg10
(lp1937
g810
ag943
asg26
I00
sg27
I00
sg28
I4556792
sg20
S'7527.18826834'
p1938
sba(igraph
Edge
p1939
(dp1940
g7
I1
sg8
I00
sg9
I5
sg10
(lp1941
g688
ag943
asg26
I00
sg27
I00
sg28
I4556793
sg20
S'7527.19656269'
p1942
sba(igraph
Edge
p1943
(dp1944
g7
I1
sg8
I00
sg9
I5
sg10
(lp1945
g691
ag824
asg26
I00
sg27
I00
sg28
I4556794
sg20
S'7527.20499924'
p1946
sba(igraph
Edge
p1947
(dp1948
g7
I1
sg8
I00
sg9
I5
sg10
(lp1949
g698
ag824
asg26
I00
sg27
I00
sg28
I4556795
sg20
S'7527.21346344'
p1950
sba(igraph
Edge
p1951
(dp1952
g7
I1
sg8
I00
sg9
I5
sg10
(lp1953
g705
ag838
asg26
I00
sg27
I00
sg28
I4556796
sg20
S'7527.22194273'
p1954
sba(igraph
Edge
p1955
(dp1956
g7
I1
sg8
I00
sg9
I5
sg10
(lp1957
g712
ag838
asg26
I00
sg27
I00
sg28
I4556797
sg20
S'7527.23028122'
p1958
sba(igraph
Edge
p1959
(dp1960
g7
I1
sg8
I00
sg9
I5
sg10
(lp1961
g719
ag852
asg26
I00
sg27
I00
sg28
I4556798
sg20
S'7527.23863899'
p1962
sba(igraph
Edge
p1963
(dp1964
g7
I1
sg8
I00
sg9
I5
sg10
(lp1965
g726
ag852
asg26
I00
sg27
I00
sg28
I4556799
sg20
S'7527.24719957'
p1966
sba(igraph
Edge
p1967
(dp1968
g7
I1
sg8
I00
sg9
I5
sg10
(lp1969
g733
ag866
asg26
I00
sg27
I00
sg28
I4556800
sg20
S'7527.25582302'
p1970
sba(igraph
Edge
p1971
(dp1972
g7
I1
sg8
I00
sg9
I5
sg10
(lp1973
g740
ag866
asg26
I00
sg27
I00
sg28
I4556801
sg20
S'7527.26438835'
p1974
sba(igraph
Edge
p1975
(dp1976
g7
I1
sg8
I00
sg9
I5
sg10
(lp1977
g747
ag880
asg26
I00
sg27
I00
sg28
I4556802
sg20
S'7527.27292631'
p1978
sba(igraph
Edge
p1979
(dp1980
g7
I1
sg8
I00
sg9
I5
sg10
(lp1981
g754
ag880
asg26
I00
sg27
I00
sg28
I4556803
sg20
S'7527.28160814'
p1982
sba(igraph
Edge
p1983
(dp1984
g7
I1
sg8
I00
sg9
I5
sg10
(lp1985
g761
ag894
asg26
I00
sg27
I00
sg28
I4556804
sg20
S'7527.2902056'
p1986
sba(igraph
Edge
p1987
(dp1988
g7
I1
sg8
I00
sg9
I5
sg10
(lp1989
g768
ag894
asg26
I00
sg27
I00
sg28
I4556805
sg20
S'7527.29885111'
p1990
sba(igraph
Edge
p1991
(dp1992
g7
I1
sg8
I00
sg9
I5
sg10
(lp1993
g775
ag908
asg26
I00
sg27
I00
sg28
I4556806
sg20
S'7527.30744885'
p1994
sba(igraph
Edge
p1995
(dp1996
g7
I1
sg8
I00
sg9
I5
sg10
(lp1997
g782
ag908
asg26
I00
sg27
I00
sg28
I4556807
sg20
S'7527.31634607'
p1998
sba(igraph
Edge
p1999
(dp2000
g7
I1
sg8
I00
sg9
I5
sg10
(lp2001
g789
ag922
asg26
I00
sg27
I00
sg28
I4556808
sg20
S'7527.32510948'
p2002
sba(igraph
Edge
p2003
(dp2004
g7
I1
sg8
I00
sg9
I5
sg10
(lp2005
g796
ag922
asg26
I00
sg27
I00
sg28
I4556809
sg20
S'7527.33391115'
p2006
sba(igraph
Edge
p2007
(dp2008
g7
I1
sg8
I00
sg9
I5
sg10
(lp2009
g803
ag936
asg26
I00
sg27
I00
sg28
I4556810
sg20
S'7527.34249101'
p2010
sba(igraph
Edge
p2011
(dp2012
g7
I1
sg8
I00
sg9
I5
sg10
(lp2013
g810
ag936
asg26
I00
sg27
I00
sg28
I4556811
sg20
S'7527.35124241'
p2014
sbasS'vertices'
p2015
(lp2016
g12
ag23
ag33
ag40
ag47
ag54
ag61
ag68
ag75
ag82
ag89
ag96
ag103
ag110
ag117
ag124
ag131
ag138
ag145
ag156
ag159
ag166
ag173
ag180
ag187
ag194
ag201
ag208
ag215
ag222
ag229
ag236
ag243
ag250
ag257
ag264
ag271
ag278
ag289
ag292
ag299
ag306
ag313
ag320
ag327
ag334
ag341
ag348
ag355
ag362
ag369
ag376
ag383
ag390
ag397
ag404
ag411
ag422
ag425
ag432
ag439
ag446
ag453
ag460
ag467
ag474
ag481
ag488
ag495
ag502
ag509
ag516
ag523
ag530
ag537
ag544
ag555
ag558
ag565
ag572
ag579
ag586
ag593
ag600
ag607
ag614
ag621
ag628
ag635
ag642
ag649
ag656
ag663
ag670
ag677
ag688
ag691
ag698
ag705
ag712
ag719
ag726
ag733
ag740
ag747
ag754
ag761
ag768
ag775
ag782
ag789
ag796
ag803
ag810
ag821
ag824
ag831
ag838
ag845
ag852
ag859
ag866
ag873
ag880
ag887
ag894
ag901
ag908
ag915
ag922
ag929
ag936
ag943
asS'tags'
p2017
(lp2018
sb.