(igraph
Graph
p0
(dp1
S'labelingConstraints'
p2
I-1
sS'edges'
p3
(lp4
(igraph
Edge
p5
(dp6
S'direction'
p7
I1
sS'selected'
p8
I00
sS'height'
p9
I5
sS'vs'
p10
(lp11
(igraph
Vertex
p12
(dp13
S'xnorm'
p14
F0.0
sg8
I00
sS'label'
p15
S'NULL'
p16
sS'y'
p17
F-321.0
sS'x'
p18
F-477.0
sS'circle'
p19
I4410757
sS'id'
p20
S'6983.69058749'
p21
sS'ynorm'
p22
F0.0
sba(igraph
Vertex
p23
(dp24
g14
F0.055555555555555552
sg8
I00
sg15
g16
sg17
F-321.0
sg18
F-426.61111111111109
sg19
I4410758
sg20
S'6983.69062828'
p25
sg22
F0.0
sbasS'wrap'
p26
I00
sS'curved'
p27
I00
sS'line'
p28
I4410301
sg20
S'6983.81177859'
p29
sba(igraph
Edge
p30
(dp31
g7
I1
sg8
I00
sg9
I5
sg10
(lp32
g23
a(igraph
Vertex
p33
(dp34
g14
F0.1111111111111111
sg8
I00
sg15
g16
sg17
F-321.0
sg18
F-376.22222222222223
sg19
I4410759
sg20
S'6983.69067465'
p35
sg22
F0.0
sbasg26
I00
sg27
I00
sg28
I4410302
sg20
S'6983.81183726'
p36
sba(igraph
Edge
p37
(dp38
g7
I1
sg8
I00
sg9
I5
sg10
(lp39
g33
a(igraph
Vertex
p40
(dp41
g14
F0.1666666666666666
sg8
I00
sg15
g16
sg17
F-321.0
sg18
F-325.83333333333337
sg19
I4410760
sg20
S'6983.69072913'
p42
sg22
F0.0
sbasg26
I00
sg27
I00
sg28
I4410303
sg20
S'6983.8119166'
p43
sba(igraph
Edge
p44
(dp45
g7
I1
sg8
I00
sg9
I5
sg10
(lp46
g40
a(igraph
Vertex
p47
(dp48
g14
F0.22222222222222215
sg8
I00
sg15
g16
sg17
F-321.0
sg18
F-275.44444444444451
sg19
I4410761
sg20
S'6983.69079785'
p49
sg22
F0.0
sbasg26
I00
sg27
I00
sg28
I4410304
sg20
S'6983.81201745'
p50
sba(igraph
Edge
p51
(dp52
g7
I1
sg8
I00
sg9
I5
sg10
(lp53
g47
a(igraph
Vertex
p54
(dp55
g14
F0.27777777777777768
sg8
I00
sg15
g16
sg17
F-321.0
sg18
F-225.05555555555566
sg19
I4410762
sg20
S'6983.69088082'
p56
sg22
F0.0
sbasg26
I00
sg27
I00
sg28
I4410305
sg20
S'6983.81214009'
p57
sba(igraph
Edge
p58
(dp59
g7
I1
sg8
I00
sg9
I5
sg10
(lp60
g54
a(igraph
Vertex
p61
(dp62
g14
F0.33333333333333326
sg8
I00
sg15
g16
sg17
F-321.0
sg18
F-174.66666666666674
sg19
I4410763
sg20
S'6983.69098279'
p63
sg22
F0.0
sbasg26
I00
sg27
I00
sg28
I4410306
sg20
S'6983.81228564'
p64
sba(igraph
Edge
p65
(dp66
g7
I1
sg8
I00
sg9
I5
sg10
(lp67
g61
a(igraph
Vertex
p68
(dp69
g14
F0.38888888888888884
sg8
I00
sg15
g16
sg17
F-321.0
sg18
F-124.27777777777783
sg19
I4410764
sg20
S'6983.69109817'
p70
sg22
F0.0
sbasg26
I00
sg27
I00
sg28
I4410307
sg20
S'6983.81245242'
p71
sba(igraph
Edge
p72
(dp73
g7
I1
sg8
I00
sg9
I5
sg10
(lp74
g68
a(igraph
Vertex
p75
(dp76
g14
F0.44444444444444436
sg8
I00
sg15
g16
sg17
F-321.0
sg18
F-73.888888888888971
sg19
I4410765
sg20
S'6983.69122947'
p77
sg22
F0.0
sbasg26
I00
sg27
I00
sg28
I4410308
sg20
S'6983.81266362'
p78
sba(igraph
Edge
p79
(dp80
g7
I1
sg8
I00
sg9
I5
sg10
(lp81
g75
a(igraph
Vertex
p82
(dp83
g14
F0.5
sg8
I00
sg15
g16
sg17
F-321.0
sg18
F-23.5
sg19
I4410766
sg20
S'6983.69137446'
p84
sg22
F0.0
sbasg26
I00
sg27
I00
sg28
I4410309
sg20
S'6983.81287957'
p85
sba(igraph
Edge
p86
(dp87
g7
I1
sg8
I00
sg9
I5
sg10
(lp88
g82
a(igraph
Vertex
p89
(dp90
g14
F0.55555555555555558
sg8
I00
sg15
g16
sg17
F-321.0
sg18
F26.888888888888914
sg19
I4410767
sg20
S'6983.69153566'
p91
sg22
F0.0
sbasg26
I00
sg27
I00
sg28
I4410310
sg20
S'6983.81311284'
p92
sba(igraph
Edge
p93
(dp94
g7
I1
sg8
I00
sg9
I5
sg10
(lp95
g89
a(igraph
Vertex
p96
(dp97
g14
F0.61111111111111116
sg8
I00
sg15
g16
sg17
F-321.0
sg18
F77.277777777777828
sg19
I4410768
sg20
S'6983.69171221'
p98
sg22
F0.0
sbasg26
I00
sg27
I00
sg28
I4410311
sg20
S'6983.8133665'
p99
sba(igraph
Edge
p100
(dp101
g7
I1
sg8
I00
sg9
I5
sg10
(lp102
g96
a(igraph
Vertex
p103
(dp104
g14
F0.66666666666666663
sg8
I00
sg15
g16
sg17
F-321.0
sg18
F127.66666666666663
sg19
I4410769
sg20
S'6983.69190414'
p105
sg22
F0.0
sbasg26
I00
sg27
I00
sg28
I4410312
sg20
S'6983.81365872'
p106
sba(igraph
Edge
p107
(dp108
g7
I1
sg8
I00
sg9
I5
sg10
(lp109
g103
a(igraph
Vertex
p110
(dp111
g14
F0.7222222222222221
sg8
I00
sg15
g16
sg17
F-321.0
sg18
F178.05555555555543
sg19
I4410770
sg20
S'6983.69211338'
p112
sg22
F0.0
sbasg26
I00
sg27
I00
sg28
I4410313
sg20
S'6983.81395429'
p113
sba(igraph
Edge
p114
(dp115
g7
I1
sg8
I00
sg9
I5
sg10
(lp116
g110
a(igraph
Vertex
p117
(dp118
g14
F0.77777777777777768
sg8
I00
sg15
I0
sg17
F-321.0
sg18
F228.44444444444434
sg19
I4410771
sg20
S'6983.69233771'
p119
sg22
F0.0
sbasg26
I00
sg27
I00
sg28
I4410314
sg20
S'6983.81426969'
p120
sba(igraph
Edge
p121
(dp122
g7
I1
sg8
I00
sg9
I5
sg10
(lp123
g117
a(igraph
Vertex
p124
(dp125
g14
F0.83333333333333326
sg8
I00
sg15
g16
sg17
F-321.0
sg18
F278.83333333333326
sg19
I4410773
sg20
S'6983.69257713'
p126
sg22
F0.0
sbasg26
I00
sg27
I00
sg28
I4410315
sg20
S'6983.81460605'
p127
sba(igraph
Edge
p128
(dp129
g7
I1
sg8
I00
sg9
I5
sg10
(lp130
g124
a(igraph
Vertex
p131
(dp132
g14
F0.88888888888888884
sg8
I00
sg15
I0
sg17
F-321.0
sg18
F329.22222222222217
sg19
I4410774
sg20
S'6983.6928347'
p133
sg22
F0.0
sbasg26
I00
sg27
I00
sg28
I4410316
sg20
S'6983.81496447'
p134
sba(igraph
Edge
p135
(dp136
g7
I1
sg8
I00
sg9
I5
sg10
(lp137
g131
a(igraph
Vertex
p138
(dp139
g14
F0.94444444444444442
sg8
I00
sg15
g16
sg17
F-321.0
sg18
F379.61111111111109
sg19
I4410776
sg20
S'6983.69310764'
p140
sg22
F0.0
sbasg26
I00
sg27
I00
sg28
I4410317
sg20
S'6983.81534525'
p141
sba(igraph
Edge
p142
(dp143
g7
I1
sg8
I00
sg9
I5
sg10
(lp144
g138
a(igraph
Vertex
p145
(dp146
g14
F1.0
sg8
I01
sg15
I0
sg17
F-321.0
sg18
F430.0
sg19
I4410778
sg20
S'6983.69339846'
p147
sg22
F0.0
sbasg26
I00
sg27
I00
sg28
I4410318
sg20
S'6983.81574893'
p148
sba(igraph
Edge
p149
(dp150
g7
I1
sg8
I00
sg9
I5
sg10
(lp151
g145
ag12
asg26
I00
sg27
I00
sg28
I4410319
sg20
S'6983.81617328'
p152
sba(igraph
Edge
p153
(dp154
g7
I1
sg8
I00
sg9
I5
sg10
(lp155
(igraph
Vertex
p156
(dp157
g14
F0.0
sg8
I00
sg15
g16
sg17
F-235.75
sg18
F-477.0
sg19
I4410780
sg20
S'6983.69370604'
p158
sg22
F0.14473684210526316
sba(igraph
Vertex
p159
(dp160
g14
F0.055555555555555552
sg8
I00
sg15
g16
sg17
F-235.75
sg18
F-426.61111111111109
sg19
I4410781
sg20
S'6983.69402592'
p161
sg22
F0.14473684210526316
sbasg26
I00
sg27
I00
sg28
I4410320
sg20
S'6983.81665295'
p162
sba(igraph
Edge
p163
(dp164
g7
I1
sg8
I00
sg9
I5
sg10
(lp165
g159
a(igraph
Vertex
p166
(dp167
g14
F0.1111111111111111
sg8
I00
sg15
g16
sg17
F-235.75
sg18
F-376.22222222222223
sg19
I4410782
sg20
S'6983.69475841'
p168
sg22
F0.14473684210526316
sbasg26
I00
sg27
I00
sg28
I4410321
sg20
S'6983.81712788'
p169
sba(igraph
Edge
p170
(dp171
g7
I1
sg8
I00
sg9
I5
sg10
(lp172
g166
a(igraph
Vertex
p173
(dp174
g14
F0.1666666666666666
sg8
I00
sg15
g16
sg17
F-235.75
sg18
F-325.83333333333337
sg19
I4410783
sg20
S'6983.69513248'
p175
sg22
F0.14473684210526316
sbasg26
I00
sg27
I00
sg28
I4410322
sg20
S'6983.81762794'
p176
sba(igraph
Edge
p177
(dp178
g7
I1
sg8
I00
sg9
I5
sg10
(lp179
g173
a(igraph
Vertex
p180
(dp181
g14
F0.22222222222222215
sg8
I00
sg15
g16
sg17
F-235.75
sg18
F-275.44444444444451
sg19
I4410784
sg20
S'6983.69557136'
p182
sg22
F0.14473684210526316
sbasg26
I00
sg27
I00
sg28
I4410323
sg20
S'6983.81814421'
p183
sba(igraph
Edge
p184
(dp185
g7
I1
sg8
I00
sg9
I5
sg10
(lp186
g180
a(igraph
Vertex
p187
(dp188
g14
F0.27777777777777768
sg8
I00
sg15
g16
sg17
F-235.75
sg18
F-225.05555555555566
sg19
I4410785
sg20
S'6983.69595549'
p189
sg22
F0.14473684210526316
sbasg26
I00
sg27
I00
sg28
I4410324
sg20
S'6983.81869958'
p190
sba(igraph
Edge
p191
(dp192
g7
I1
sg8
I00
sg9
I5
sg10
(lp193
g187
a(igraph
Vertex
p194
(dp195
g14
F0.33333333333333326
sg8
I00
sg15
g16
sg17
F-235.75
sg18
F-174.66666666666674
sg19
I4410786
sg20
S'6983.69635694'
p196
sg22
F0.14473684210526316
sbasg26
I00
sg27
I00
sg28
I4410325
sg20
S'6983.81925971'
p197
sba(igraph
Edge
p198
(dp199
g7
I1
sg8
I00
sg9
I5
sg10
(lp200
g194
a(igraph
Vertex
p201
(dp202
g14
F0.38888888888888884
sg8
I00
sg15
g16
sg17
F-235.75
sg18
F-124.27777777777783
sg19
I4410787
sg20
S'6983.69685393'
p203
sg22
F0.14473684210526316
sbasg26
I00
sg27
I00
sg28
I4410326
sg20
S'6983.81983855'
p204
sba(igraph
Edge
p205
(dp206
g7
I1
sg8
I00
sg9
I5
sg10
(lp207
g201
a(igraph
Vertex
p208
(dp209
g14
F0.44444444444444436
sg8
I00
sg15
g16
sg17
F-235.75
sg18
F-73.888888888888971
sg19
I4410788
sg20
S'6983.69730874'
p210
sg22
F0.14473684210526316
sbasg26
I00
sg27
I00
sg28
I4410327
sg20
S'6983.82043975'
p211
sba(igraph
Edge
p212
(dp213
g7
I1
sg8
I00
sg9
I5
sg10
(lp214
g208
a(igraph
Vertex
p215
(dp216
g14
F0.5
sg8
I00
sg15
g16
sg17
F-235.75
sg18
F-23.5
sg19
I4410789
sg20
S'6983.69776494'
p217
sg22
F0.14473684210526316
sbasg26
I00
sg27
I00
sg28
I4410328
sg20
S'6983.82106162'
p218
sba(igraph
Edge
p219
(dp220
g7
I1
sg8
I00
sg9
I5
sg10
(lp221
g215
a(igraph
Vertex
p222
(dp223
g14
F0.55555555555555558
sg8
I00
sg15
g16
sg17
F-235.75
sg18
F26.888888888888914
sg19
I4410790
sg20
S'6983.69823232'
p224
sg22
F0.14473684210526316
sbasg26
I00
sg27
I00
sg28
I4410329
sg20
S'6983.82170583'
p225
sba(igraph
Edge
p226
(dp227
g7
I1
sg8
I00
sg9
I5
sg10
(lp228
g222
a(igraph
Vertex
p229
(dp230
g14
F0.61111111111111116
sg8
I00
sg15
g16
sg17
F-235.75
sg18
F77.277777777777828
sg19
I4410791
sg20
S'6983.69871003'
p231
sg22
F0.14473684210526316
sbasg26
I00
sg27
I00
sg28
I4410330
sg20
S'6983.82237184'
p232
sba(igraph
Edge
p233
(dp234
g7
I1
sg8
I00
sg9
I5
sg10
(lp235
g229
a(igraph
Vertex
p236
(dp237
g14
F0.66666666666666663
sg8
I00
sg15
I0
sg17
F-235.75
sg18
F127.66666666666663
sg19
I4410792
sg20
S'6983.69921373'
p238
sg22
F0.14473684210526316
sbasg26
I00
sg27
I00
sg28
I4410331
sg20
S'6983.82305991'
p239
sba(igraph
Edge
p240
(dp241
g7
I1
sg8
I00
sg9
I5
sg10
(lp242
g236
a(igraph
Vertex
p243
(dp244
g14
F0.7222222222222221
sg8
I00
sg15
g16
sg17
F-235.75
sg18
F178.05555555555543
sg19
I4410794
sg20
S'6983.6997272'
p245
sg22
F0.14473684210526316
sbasg26
I00
sg27
I00
sg28
I4410332
sg20
S'6983.82376866'
p246
sba(igraph
Edge
p247
(dp248
g7
I1
sg8
I00
sg9
I5
sg10
(lp249
g243
a(igraph
Vertex
p250
(dp251
g14
F0.77777777777777768
sg8
I00
sg15
g16
sg17
F-235.75
sg18
F228.44444444444434
sg19
I4410795
sg20
S'6983.70029794'
p252
sg22
F0.14473684210526316
sbasg26
I00
sg27
I00
sg28
I4410333
sg20
S'6983.82451177'
p253
sba(igraph
Edge
p254
(dp255
g7
I1
sg8
I00
sg9
I5
sg10
(lp256
g250
a(igraph
Vertex
p257
(dp258
g14
F0.83333333333333326
sg8
I00
sg15
g16
sg17
F-235.75
sg18
F278.83333333333326
sg19
I4410796
sg20
S'6983.70085779'
p259
sg22
F0.14473684210526316
sbasg26
I00
sg27
I00
sg28
I4410334
sg20
S'6983.8252817'
p260
sba(igraph
Edge
p261
(dp262
g7
I1
sg8
I00
sg9
I5
sg10
(lp263
g257
a(igraph
Vertex
p264
(dp265
g14
F0.88888888888888884
sg8
I00
sg15
g16
sg17
F-235.75
sg18
F329.22222222222217
sg19
I4410797
sg20
S'6983.70146681'
p266
sg22
F0.14473684210526316
sbasg26
I00
sg27
I00
sg28
I4410335
sg20
S'6983.82605638'
p267
sba(igraph
Edge
p268
(dp269
g7
I1
sg8
I00
sg9
I5
sg10
(lp270
g264
a(igraph
Vertex
p271
(dp272
g14
F0.94444444444444442
sg8
I00
sg15
g16
sg17
F-235.75
sg18
F379.61111111111109
sg19
I4410798
sg20
S'6983.70204342'
p273
sg22
F0.14473684210526316
sbasg26
I00
sg27
I00
sg28
I4410336
sg20
S'6983.82685341'
p274
sba(igraph
Edge
p275
(dp276
g7
I1
sg8
I00
sg9
I5
sg10
(lp277
g271
a(igraph
Vertex
p278
(dp279
g14
F1.0
sg8
I00
sg15
g16
sg17
F-235.75
sg18
F430.0
sg19
I4410799
sg20
S'6983.70267422'
p280
sg22
F0.14473684210526316
sbasg26
I00
sg27
I00
sg28
I4410337
sg20
S'6983.82770436'
p281
sba(igraph
Edge
p282
(dp283
g7
I1
sg8
I00
sg9
I5
sg10
(lp284
g278
ag156
asg26
I00
sg27
I00
sg28
I4410338
sg20
S'6983.82855726'
p285
sba(igraph
Edge
p286
(dp287
g7
I1
sg8
I00
sg9
I5
sg10
(lp288
(igraph
Vertex
p289
(dp290
g14
F0.0
sg8
I00
sg15
g16
sg17
F-150.5
sg18
F-477.0
sg19
I4410800
sg20
S'6983.70329274'
p291
sg22
F0.28947368421052633
sba(igraph
Vertex
p292
(dp293
g14
F0.055555555555555552
sg8
I00
sg15
g16
sg17
F-150.5
sg18
F-426.61111111111109
sg19
I4410801
sg20
S'6983.70392047'
p294
sg22
F0.28947368421052633
sbasg26
I00
sg27
I00
sg28
I4410339
sg20
S'6983.82943978'
p295
sba(igraph
Edge
p296
(dp297
g7
I1
sg8
I00
sg9
I5
sg10
(lp298
g292
a(igraph
Vertex
p299
(dp300
g14
F0.1111111111111111
sg8
I00
sg15
g16
sg17
F-150.5
sg18
F-376.22222222222223
sg19
I4410802
sg20
S'6983.70461441'
p301
sg22
F0.28947368421052633
sbasg26
I00
sg27
I00
sg28
I4410340
sg20
S'6983.83032089'
p302
sba(igraph
Edge
p303
(dp304
g7
I1
sg8
I00
sg9
I5
sg10
(lp305
g299
a(igraph
Vertex
p306
(dp307
g14
F0.1666666666666666
sg8
I00
sg15
g16
sg17
F-150.5
sg18
F-325.83333333333337
sg19
I4410803
sg20
S'6983.70534803'
p308
sg22
F0.28947368421052633
sbasg26
I00
sg27
I00
sg28
I4410341
sg20
S'6983.83122185'
p309
sba(igraph
Edge
p310
(dp311
g7
I1
sg8
I00
sg9
I5
sg10
(lp312
g306
a(igraph
Vertex
p313
(dp314
g14
F0.22222222222222215
sg8
I00
sg15
g16
sg17
F-150.5
sg18
F-275.44444444444451
sg19
I4410804
sg20
S'6983.70602437'
p315
sg22
F0.28947368421052633
sbasg26
I00
sg27
I00
sg28
I4410342
sg20
S'6983.83214403'
p316
sba(igraph
Edge
p317
(dp318
g7
I1
sg8
I00
sg9
I5
sg10
(lp319
g313
a(igraph
Vertex
p320
(dp321
g14
F0.27777777777777768
sg8
I00
sg15
g16
sg17
F-150.5
sg18
F-225.05555555555566
sg19
I4410805
sg20
S'6983.70682056'
p322
sg22
F0.28947368421052633
sbasg26
I00
sg27
I00
sg28
I4410343
sg20
S'6983.83308521'
p323
sba(igraph
Edge
p324
(dp325
g7
I1
sg8
I00
sg9
I5
sg10
(lp326
g320
a(igraph
Vertex
p327
(dp328
g14
F0.33333333333333326
sg8
I00
sg15
g16
sg17
F-150.5
sg18
F-174.66666666666674
sg19
I4410806
sg20
S'6983.70763072'
p329
sg22
F0.28947368421052633
sbasg26
I00
sg27
I00
sg28
I4410344
sg20
S'6983.83407556'
p330
sba(igraph
Edge
p331
(dp332
g7
I1
sg8
I00
sg9
I5
sg10
(lp333
g327
a(igraph
Vertex
p334
(dp335
g14
F0.38888888888888884
sg8
I00
sg15
g16
sg17
F-150.5
sg18
F-124.27777777777783
sg19
I4410807
sg20
S'6983.708385'
p336
sg22
F0.28947368421052633
sbasg26
I00
sg27
I00
sg28
I4410345
sg20
S'6983.83506367'
p337
sba(igraph
Edge
p338
(dp339
g7
I1
sg8
I00
sg9
I5
sg10
(lp340
g334
a(igraph
Vertex
p341
(dp342
g14
F0.44444444444444436
sg8
I00
sg15
g16
sg17
F-150.5
sg18
F-73.888888888888971
sg19
I4410808
sg20
S'6983.70913035'
p343
sg22
F0.28947368421052633
sbasg26
I00
sg27
I00
sg28
I4410346
sg20
S'6983.83609677'
p344
sba(igraph
Edge
p345
(dp346
g7
I1
sg8
I00
sg9
I5
sg10
(lp347
g341
a(igraph
Vertex
p348
(dp349
g14
F0.5
sg8
I00
sg15
g16
sg17
F-150.5
sg18
F-23.5
sg19
I4410809
sg20
S'6983.70989609'
p350
sg22
F0.28947368421052633
sbasg26
I00
sg27
I00
sg28
I4410347
sg20
S'6983.8371279'
p351
sba(igraph
Edge
p352
(dp353
g7
I1
sg8
I00
sg9
I5
sg10
(lp354
g348
a(igraph
Vertex
p355
(dp356
g14
F0.55555555555555558
sg8
I00
sg15
I0
sg17
F-150.5
sg18
F26.888888888888914
sg19
I4410810
sg20
S'6983.71067747'
p357
sg22
F0.28947368421052633
sbasg26
I00
sg27
I00
sg28
I4410348
sg20
S'6983.83820625'
p358
sba(igraph
Edge
p359
(dp360
g7
I1
sg8
I00
sg9
I5
sg10
(lp361
g355
a(igraph
Vertex
p362
(dp363
g14
F0.61111111111111116
sg8
I00
sg15
g16
sg17
F-150.5
sg18
F77.277777777777828
sg19
I4410812
sg20
S'6983.71147394'
p364
sg22
F0.28947368421052633
sbasg26
I00
sg27
I00
sg28
I4410349
sg20
S'6983.83928823'
p365
sba(igraph
Edge
p366
(dp367
g7
I1
sg8
I00
sg9
I5
sg10
(lp368
g362
a(igraph
Vertex
p369
(dp370
g14
F0.66666666666666663
sg8
I00
sg15
g16
sg17
F-150.5
sg18
F127.66666666666663
sg19
I4410813
sg20
S'6983.71227768'
p371
sg22
F0.28947368421052633
sbasg26
I00
sg27
I00
sg28
I4410350
sg20
S'6983.84041659'
p372
sba(igraph
Edge
p373
(dp374
g7
I1
sg8
I00
sg9
I5
sg10
(lp375
g369
a(igraph
Vertex
p376
(dp377
g14
F0.7222222222222221
sg8
I00
sg15
g16
sg17
F-150.5
sg18
F178.05555555555543
sg19
I4410814
sg20
S'6983.71315544'
p378
sg22
F0.28947368421052633
sbasg26
I00
sg27
I00
sg28
I4410351
sg20
S'6983.84153349'
p379
sba(igraph
Edge
p380
(dp381
g7
I1
sg8
I00
sg9
I5
sg10
(lp382
g376
a(igraph
Vertex
p383
(dp384
g14
F0.77777777777777768
sg8
I00
sg15
g16
sg17
F-150.5
sg18
F228.44444444444434
sg19
I4410815
sg20
S'6983.71413993'
p385
sg22
F0.28947368421052633
sbasg26
I00
sg27
I00
sg28
I4410352
sg20
S'6983.84267218'
p386
sba(igraph
Edge
p387
(dp388
g7
I1
sg8
I00
sg9
I5
sg10
(lp389
g383
a(igraph
Vertex
p390
(dp391
g14
F0.83333333333333326
sg8
I00
sg15
g16
sg17
F-150.5
sg18
F278.83333333333326
sg19
I4410816
sg20
S'6983.71502216'
p392
sg22
F0.28947368421052633
sbasg26
I00
sg27
I00
sg28
I4410353
sg20
S'6983.84385446'
p393
sba(igraph
Edge
p394
(dp395
g7
I1
sg8
I00
sg9
I5
sg10
(lp396
g390
a(igraph
Vertex
p397
(dp398
g14
F0.88888888888888884
sg8
I00
sg15
g16
sg17
F-150.5
sg18
F329.22222222222217
sg19
I4410817
sg20
S'6983.71594937'
p399
sg22
F0.28947368421052633
sbasg26
I00
sg27
I00
sg28
I4410354
sg20
S'6983.84503813'
p400
sba(igraph
Edge
p401
(dp402
g7
I1
sg8
I00
sg9
I5
sg10
(lp403
g397
a(igraph
Vertex
p404
(dp405
g14
F0.94444444444444442
sg8
I00
sg15
g16
sg17
F-150.5
sg18
F379.61111111111109
sg19
I4410818
sg20
S'6983.71687268'
p406
sg22
F0.28947368421052633
sbasg26
I00
sg27
I00
sg28
I4410355
sg20
S'6983.8462556'
p407
sba(igraph
Edge
p408
(dp409
g7
I1
sg8
I00
sg9
I5
sg10
(lp410
g404
a(igraph
Vertex
p411
(dp412
g14
F1.0
sg8
I00
sg15
g16
sg17
F-150.5
sg18
F430.0
sg19
I4410819
sg20
S'6983.7178728'
p413
sg22
F0.28947368421052633
sbasg26
I00
sg27
I00
sg28
I4410356
sg20
S'6983.84766695'
p414
sba(igraph
Edge
p415
(dp416
g7
I1
sg8
I00
sg9
I5
sg10
(lp417
g411
ag289
asg26
I00
sg27
I00
sg28
I4410357
sg20
S'6983.84902103'
p418
sba(igraph
Edge
p419
(dp420
g7
I1
sg8
I00
sg9
I5
sg10
(lp421
(igraph
Vertex
p422
(dp423
g14
F0.0
sg8
I00
sg15
g16
sg17
F-65.249999999999943
sg18
F-477.0
sg19
I4410820
sg20
S'6983.71881566'
p424
sg22
F0.43421052631578955
sba(igraph
Vertex
p425
(dp426
g14
F0.055555555555555552
sg8
I00
sg15
g16
sg17
F-65.249999999999943
sg18
F-426.61111111111109
sg19
I4410821
sg20
S'6983.71976941'
p427
sg22
F0.43421052631578955
sbasg26
I00
sg27
I00
sg28
I4410358
sg20
S'6983.85028991'
p428
sba(igraph
Edge
p429
(dp430
g7
I1
sg8
I00
sg9
I5
sg10
(lp431
g425
a(igraph
Vertex
p432
(dp433
g14
F0.1111111111111111
sg8
I00
sg15
g16
sg17
F-65.249999999999943
sg18
F-376.22222222222223
sg19
I4410822
sg20
S'6983.72073713'
p434
sg22
F0.43421052631578955
sbasg26
I00
sg27
I00
sg28
I4410359
sg20
S'6983.85159762'
p435
sba(igraph
Edge
p436
(dp437
g7
I1
sg8
I00
sg9
I5
sg10
(lp438
g432
a(igraph
Vertex
p439
(dp440
g14
F0.1666666666666666
sg8
I00
sg15
g16
sg17
F-65.249999999999943
sg18
F-325.83333333333337
sg19
I4410823
sg20
S'6983.72171407'
p441
sg22
F0.43421052631578955
sbasg26
I00
sg27
I00
sg28
I4410360
sg20
S'6983.85295589'
p442
sba(igraph
Edge
p443
(dp444
g7
I1
sg8
I00
sg9
I5
sg10
(lp445
g439
a(igraph
Vertex
p446
(dp447
g14
F0.22222222222222215
sg8
I00
sg15
g16
sg17
F-65.249999999999943
sg18
F-275.44444444444451
sg19
I4410824
sg20
S'6983.72270526'
p448
sg22
F0.43421052631578955
sbasg26
I00
sg27
I00
sg28
I4410361
sg20
S'6983.85429936'
p449
sba(igraph
Edge
p450
(dp451
g7
I1
sg8
I00
sg9
I5
sg10
(lp452
g446
a(igraph
Vertex
p453
(dp454
g14
F0.27777777777777768
sg8
I00
sg15
g16
sg17
F-65.249999999999943
sg18
F-225.05555555555566
sg19
I4410825
sg20
S'6983.72374562'
p455
sg22
F0.43421052631578955
sbasg26
I00
sg27
I00
sg28
I4410362
sg20
S'6983.85566154'
p456
sba(igraph
Edge
p457
(dp458
g7
I1
sg8
I00
sg9
I5
sg10
(lp459
g453
a(igraph
Vertex
p460
(dp461
g14
F0.33333333333333326
sg8
I00
sg15
g16
sg17
F-65.249999999999943
sg18
F-174.66666666666674
sg19
I4410826
sg20
S'6983.72482452'
p462
sg22
F0.43421052631578955
sbasg26
I00
sg27
I00
sg28
I4410363
sg20
S'6983.85704608'
p463
sba(igraph
Edge
p464
(dp465
g7
I1
sg8
I00
sg9
I5
sg10
(lp466
g460
a(igraph
Vertex
p467
(dp468
g14
F0.38888888888888884
sg8
I00
sg15
g16
sg17
F-65.249999999999943
sg18
F-124.27777777777783
sg19
I4410827
sg20
S'6983.72587019'
p469
sg22
F0.43421052631578955
sbasg26
I00
sg27
I00
sg28
I4410364
sg20
S'6983.85848844'
p470
sba(igraph
Edge
p471
(dp472
g7
I1
sg8
I00
sg9
I5
sg10
(lp473
g467
a(igraph
Vertex
p474
(dp475
g14
F0.44444444444444436
sg8
I00
sg15
I0
sg17
F-65.249999999999943
sg18
F-73.888888888888971
sg19
I4410828
sg20
S'6983.72716449'
p476
sg22
F0.43421052631578955
sbasg26
I00
sg27
I00
sg28
I4410365
sg20
S'6983.8599579'
p477
sba(igraph
Edge
p478
(dp479
g7
I1
sg8
I00
sg9
I5
sg10
(lp480
g474
a(igraph
Vertex
p481
(dp482
g14
F0.5
sg8
I00
sg15
g16
sg17
F-65.249999999999943
sg18
F-23.5
sg19
I4410830
sg20
S'6983.72828642'
p483
sg22
F0.43421052631578955
sbasg26
I00
sg27
I00
sg28
I4410366
sg20
S'6983.86150726'
p484
sba(igraph
Edge
p485
(dp486
g7
I1
sg8
I00
sg9
I5
sg10
(lp487
g481
a(igraph
Vertex
p488
(dp489
g14
F0.55555555555555558
sg8
I00
sg15
g16
sg17
F-65.249999999999943
sg18
F26.888888888888914
sg19
I4410831
sg20
S'6983.72955725'
p490
sg22
F0.43421052631578955
sbasg26
I00
sg27
I00
sg28
I4410367
sg20
S'6983.86298538'
p491
sba(igraph
Edge
p492
(dp493
g7
I1
sg8
I00
sg9
I5
sg10
(lp494
g488
a(igraph
Vertex
p495
(dp496
g14
F0.61111111111111116
sg8
I00
sg15
g16
sg17
F-65.249999999999943
sg18
F77.277777777777828
sg19
I4410832
sg20
S'6983.73067136'
p497
sg22
F0.43421052631578955
sbasg26
I00
sg27
I00
sg28
I4410368
sg20
S'6983.86451462'
p498
sba(igraph
Edge
p499
(dp500
g7
I1
sg8
I00
sg9
I5
sg10
(lp501
g495
a(igraph
Vertex
p502
(dp503
g14
F0.66666666666666663
sg8
I00
sg15
g16
sg17
F-65.249999999999943
sg18
F127.66666666666663
sg19
I4410833
sg20
S'6983.73179049'
p504
sg22
F0.43421052631578955
sbasg26
I00
sg27
I00
sg28
I4410369
sg20
S'6983.86603158'
p505
sba(igraph
Edge
p506
(dp507
g7
I1
sg8
I00
sg9
I5
sg10
(lp508
g502
a(igraph
Vertex
p509
(dp510
g14
F0.7222222222222221
sg8
I00
sg15
g16
sg17
F-65.249999999999943
sg18
F178.05555555555543
sg19
I4410834
sg20
S'6983.73293002'
p511
sg22
F0.43421052631578955
sbasg26
I00
sg27
I00
sg28
I4410370
sg20
S'6983.86759602'
p512
sba(igraph
Edge
p513
(dp514
g7
I1
sg8
I00
sg9
I5
sg10
(lp515
g509
a(igraph
Vertex
p516
(dp517
g14
F0.77777777777777768
sg8
I00
sg15
g16
sg17
F-65.249999999999943
sg18
F228.44444444444434
sg19
I4410835
sg20
S'6983.7340824'
p518
sg22
F0.43421052631578955
sbasg26
I00
sg27
I00
sg28
I4410371
sg20
S'6983.86917835'
p519
sba(igraph
Edge
p520
(dp521
g7
I1
sg8
I00
sg9
I5
sg10
(lp522
g516
a(igraph
Vertex
p523
(dp524
g14
F0.83333333333333326
sg8
I00
sg15
g16
sg17
F-65.249999999999943
sg18
F278.83333333333326
sg19
I4410836
sg20
S'6983.73525155'
p525
sg22
F0.43421052631578955
sbasg26
I00
sg27
I00
sg28
I4410372
sg20
S'6983.8707805'
p526
sba(igraph
Edge
p527
(dp528
g7
I1
sg8
I00
sg9
I5
sg10
(lp529
g523
a(igraph
Vertex
p530
(dp531
g14
F0.88888888888888884
sg8
I00
sg15
g16
sg17
F-65.249999999999943
sg18
F329.22222222222217
sg19
I4410837
sg20
S'6983.73649724'
p532
sg22
F0.43421052631578955
sbasg26
I00
sg27
I00
sg28
I4410373
sg20
S'6983.87238909'
p533
sba(igraph
Edge
p534
(dp535
g7
I1
sg8
I00
sg9
I5
sg10
(lp536
g530
a(igraph
Vertex
p537
(dp538
g14
F0.94444444444444442
sg8
I00
sg15
g16
sg17
F-65.249999999999943
sg18
F379.61111111111109
sg19
I4410838
sg20
S'6983.73711687'
p539
sg22
F0.43421052631578955
sbasg26
I00
sg27
I00
sg28
I4410374
sg20
S'6983.87401863'
p540
sba(igraph
Edge
p541
(dp542
g7
I1
sg8
I00
sg9
I5
sg10
(lp543
g537
a(igraph
Vertex
p544
(dp545
g14
F1.0
sg8
I00
sg15
g16
sg17
F-65.249999999999943
sg18
F430.0
sg19
I4410839
sg20
S'6983.73772477'
p546
sg22
F0.43421052631578955
sbasg26
I00
sg27
I00
sg28
I4410375
sg20
S'6983.8756923'
p547
sba(igraph
Edge
p548
(dp549
g7
I1
sg8
I00
sg9
I5
sg10
(lp550
g544
ag422
asg26
I00
sg27
I00
sg28
I4410376
sg20
S'6983.87739475'
p551
sba(igraph
Edge
p552
(dp553
g7
I1
sg8
I00
sg9
I5
sg10
(lp554
(igraph
Vertex
p555
(dp556
g14
F0.0
sg8
I00
sg15
g16
sg17
F20.0
sg18
F-477.0
sg19
I4410840
sg20
S'6983.73841089'
p557
sg22
F0.57894736842105265
sba(igraph
Vertex
p558
(dp559
g14
F0.055555555555555552
sg8
I00
sg15
g16
sg17
F20.0
sg18
F-426.61111111111109
sg19
I4410841
sg20
S'6983.73903359'
p560
sg22
F0.57894736842105265
sbasg26
I00
sg27
I00
sg28
I4410377
sg20
S'6983.87907765'
p561
sba(igraph
Edge
p562
(dp563
g7
I1
sg8
I00
sg9
I5
sg10
(lp564
g558
a(igraph
Vertex
p565
(dp566
g14
F0.1111111111111111
sg8
I00
sg15
g16
sg17
F20.0
sg18
F-376.22222222222223
sg19
I4410842
sg20
S'6983.73966384'
p567
sg22
F0.57894736842105265
sbasg26
I00
sg27
I00
sg28
I4410378
sg20
S'6983.88078122'
p568
sba(igraph
Edge
p569
(dp570
g7
I1
sg8
I00
sg9
I5
sg10
(lp571
g565
a(igraph
Vertex
p572
(dp573
g14
F0.1666666666666666
sg8
I00
sg15
g16
sg17
F20.0
sg18
F-325.83333333333337
sg19
I4410843
sg20
S'6983.74031001'
p574
sg22
F0.57894736842105265
sbasg26
I00
sg27
I00
sg28
I4410379
sg20
S'6983.88262251'
p575
sba(igraph
Edge
p576
(dp577
g7
I1
sg8
I00
sg9
I5
sg10
(lp578
g572
a(igraph
Vertex
p579
(dp580
g14
F0.22222222222222215
sg8
I00
sg15
g16
sg17
F20.0
sg18
F-275.44444444444451
sg19
I4410844
sg20
S'6983.74095423'
p581
sg22
F0.57894736842105265
sbasg26
I00
sg27
I00
sg28
I4410380
sg20
S'6983.88439508'
p582
sba(igraph
Edge
p583
(dp584
g7
I1
sg8
I00
sg9
I5
sg10
(lp585
g579
a(igraph
Vertex
p586
(dp587
g14
F0.27777777777777768
sg8
I00
sg15
g16
sg17
F20.0
sg18
F-225.05555555555566
sg19
I4410845
sg20
S'6983.74162219'
p588
sg22
F0.57894736842105265
sbasg26
I00
sg27
I00
sg28
I4410381
sg20
S'6983.88618079'
p589
sba(igraph
Edge
p590
(dp591
g7
I1
sg8
I00
sg9
I5
sg10
(lp592
g586
a(igraph
Vertex
p593
(dp594
g14
F0.33333333333333326
sg8
I00
sg15
I0
sg17
F20.0
sg18
F-174.66666666666674
sg19
I4410846
sg20
S'6983.74229769'
p595
sg22
F0.57894736842105265
sbasg26
I00
sg27
I00
sg28
I4410382
sg20
S'6983.8880246'
p596
sba(igraph
Edge
p597
(dp598
g7
I1
sg8
I00
sg9
I5
sg10
(lp599
g593
a(igraph
Vertex
p600
(dp601
g14
F0.38888888888888884
sg8
I00
sg15
g16
sg17
F20.0
sg18
F-124.27777777777783
sg19
I4410848
sg20
S'6983.74298018'
p602
sg22
F0.57894736842105265
sbasg26
I00
sg27
I00
sg28
I4410383
sg20
S'6983.88985416'
p603
sba(igraph
Edge
p604
(dp605
g7
I1
sg8
I00
sg9
I5
sg10
(lp606
g600
a(igraph
Vertex
p607
(dp608
g14
F0.44444444444444436
sg8
I00
sg15
g16
sg17
F20.0
sg18
F-73.888888888888971
sg19
I4410849
sg20
S'6983.74370067'
p609
sg22
F0.57894736842105265
sbasg26
I00
sg27
I00
sg28
I4410384
sg20
S'6983.89170858'
p610
sba(igraph
Edge
p611
(dp612
g7
I1
sg8
I00
sg9
I5
sg10
(lp613
g607
a(igraph
Vertex
p614
(dp615
g14
F0.5
sg8
I00
sg15
I0
sg17
F20.0
sg18
F-23.5
sg19
I4410850
sg20
S'6983.74439182'
p616
sg22
F0.57894736842105265
sbasg26
I00
sg27
I00
sg28
I4410385
sg20
S'6983.89361553'
p617
sba(igraph
Edge
p618
(dp619
g7
I1
sg8
I00
sg9
I5
sg10
(lp620
g614
a(igraph
Vertex
p621
(dp622
g14
F0.55555555555555558
sg8
I00
sg15
g16
sg17
F20.0
sg18
F26.888888888888914
sg19
I4410852
sg20
S'6983.7451028'
p623
sg22
F0.57894736842105265
sbasg26
I00
sg27
I00
sg28
I4410386
sg20
S'6983.89550543'
p624
sba(igraph
Edge
p625
(dp626
g7
I1
sg8
I00
sg9
I5
sg10
(lp627
g621
a(igraph
Vertex
p628
(dp629
g14
F0.61111111111111116
sg8
I00
sg15
g16
sg17
F20.0
sg18
F77.277777777777828
sg19
I4410853
sg20
S'6983.74583697'
p630
sg22
F0.57894736842105265
sbasg26
I00
sg27
I00
sg28
I4410387
sg20
S'6983.89741685'
p631
sba(igraph
Edge
p632
(dp633
g7
I1
sg8
I00
sg9
I5
sg10
(lp634
g628
a(igraph
Vertex
p635
(dp636
g14
F0.66666666666666663
sg8
I00
sg15
g16
sg17
F20.0
sg18
F127.66666666666663
sg19
I4410854
sg20
S'6983.7465474'
p637
sg22
F0.57894736842105265
sbasg26
I00
sg27
I00
sg28
I4410388
sg20
S'6983.89937101'
p638
sba(igraph
Edge
p639
(dp640
g7
I1
sg8
I00
sg9
I5
sg10
(lp641
g635
a(igraph
Vertex
p642
(dp643
g14
F0.7222222222222221
sg8
I00
sg15
g16
sg17
F20.0
sg18
F178.05555555555543
sg19
I4410855
sg20
S'6983.74728967'
p644
sg22
F0.57894736842105265
sbasg26
I00
sg27
I00
sg28
I4410389
sg20
S'6983.90138691'
p645
sba(igraph
Edge
p646
(dp647
g7
I1
sg8
I00
sg9
I5
sg10
(lp648
g642
a(igraph
Vertex
p649
(dp650
g14
F0.77777777777777768
sg8
I00
sg15
g16
sg17
F20.0
sg18
F228.44444444444434
sg19
I4410856
sg20
S'6983.74802161'
p651
sg22
F0.57894736842105265
sbasg26
I00
sg27
I00
sg28
I4410390
sg20
S'6983.90337431'
p652
sba(igraph
Edge
p653
(dp654
g7
I1
sg8
I00
sg9
I5
sg10
(lp655
g649
a(igraph
Vertex
p656
(dp657
g14
F0.83333333333333326
sg8
I00
sg15
g16
sg17
F20.0
sg18
F278.83333333333326
sg19
I4410857
sg20
S'6983.74876779'
p658
sg22
F0.57894736842105265
sbasg26
I00
sg27
I00
sg28
I4410391
sg20
S'6983.90539496'
p659
sba(igraph
Edge
p660
(dp661
g7
I1
sg8
I00
sg9
I5
sg10
(lp662
g656
a(igraph
Vertex
p663
(dp664
g14
F0.88888888888888884
sg8
I00
sg15
g16
sg17
F20.0
sg18
F329.22222222222217
sg19
I4410858
sg20
S'6983.74953213'
p665
sg22
F0.57894736842105265
sbasg26
I00
sg27
I00
sg28
I4410392
sg20
S'6983.90741002'
p666
sba(igraph
Edge
p667
(dp668
g7
I1
sg8
I00
sg9
I5
sg10
(lp669
g663
a(igraph
Vertex
p670
(dp671
g14
F0.94444444444444442
sg8
I00
sg15
g16
sg17
F20.0
sg18
F379.61111111111109
sg19
I4410859
sg20
S'6983.75032944'
p672
sg22
F0.57894736842105265
sbasg26
I00
sg27
I00
sg28
I4410393
sg20
S'6983.90946307'
p673
sba(igraph
Edge
p674
(dp675
g7
I1
sg8
I00
sg9
I5
sg10
(lp676
g670
a(igraph
Vertex
p677
(dp678
g14
F1.0
sg8
I00
sg15
g16
sg17
F20.0
sg18
F430.0
sg19
I4410860
sg20
S'6983.75110217'
p679
sg22
F0.57894736842105265
sbasg26
I00
sg27
I00
sg28
I4410394
sg20
S'6983.91154574'
p680
sba(igraph
Edge
p681
(dp682
g7
I1
sg8
I00
sg9
I5
sg10
(lp683
g677
ag555
asg26
I00
sg27
I00
sg28
I4410395
sg20
S'6983.91371473'
p684
sba(igraph
Edge
p685
(dp686
g7
I1
sg8
I00
sg9
I5
sg10
(lp687
(igraph
Vertex
p688
(dp689
g14
F0.0
sg8
I00
sg15
g16
sg17
F105.25
sg18
F-477.0
sg19
I4410861
sg20
S'6983.75187489'
p690
sg22
F0.72368421052631582
sba(igraph
Vertex
p691
(dp692
g14
F0.055555555555555552
sg8
I00
sg15
g16
sg17
F105.25
sg18
F-426.61111111111109
sg19
I4410862
sg20
S'6983.75265348'
p693
sg22
F0.72368421052631582
sbasg26
I00
sg27
I00
sg28
I4410396
sg20
S'6983.91582226'
p694
sba(igraph
Edge
p695
(dp696
g7
I1
sg8
I00
sg9
I5
sg10
(lp697
g691
a(igraph
Vertex
p698
(dp699
g14
F0.1111111111111111
sg8
I00
sg15
g16
sg17
F105.25
sg18
F-376.22222222222223
sg19
I4410863
sg20
S'6983.7534466'
p700
sg22
F0.72368421052631582
sbasg26
I00
sg27
I00
sg28
I4410397
sg20
S'6983.91809825'
p701
sba(igraph
Edge
p702
(dp703
g7
I1
sg8
I00
sg9
I5
sg10
(lp704
g698
a(igraph
Vertex
p705
(dp706
g14
F0.1666666666666666
sg8
I00
sg15
g16
sg17
F105.25
sg18
F-325.83333333333337
sg19
I4410864
sg20
S'6983.75427156'
p707
sg22
F0.72368421052631582
sbasg26
I00
sg27
I00
sg28
I4410398
sg20
S'6983.92027758'
p708
sba(igraph
Edge
p709
(dp710
g7
I1
sg8
I00
sg9
I5
sg10
(lp711
g705
a(igraph
Vertex
p712
(dp713
g14
F0.22222222222222215
sg8
I00
sg15
I0
sg17
F105.25
sg18
F-275.44444444444451
sg19
I4410865
sg20
S'6983.75508172'
p714
sg22
F0.72368421052631582
sbasg26
I00
sg27
I00
sg28
I4410399
sg20
S'6983.92284774'
p715
sba(igraph
Edge
p716
(dp717
g7
I1
sg8
I00
sg9
I5
sg10
(lp718
g712
a(igraph
Vertex
p719
(dp720
g14
F0.27777777777777768
sg8
I00
sg15
g16
sg17
F105.25
sg18
F-225.05555555555566
sg19
I4410867
sg20
S'6983.75589495'
p721
sg22
F0.72368421052631582
sbasg26
I00
sg27
I00
sg28
I4410400
sg20
S'6983.92671471'
p722
sba(igraph
Edge
p723
(dp724
g7
I1
sg8
I00
sg9
I5
sg10
(lp725
g719
a(igraph
Vertex
p726
(dp727
g14
F0.33333333333333326
sg8
I00
sg15
g16
sg17
F105.25
sg18
F-174.66666666666674
sg19
I4410868
sg20
S'6983.75671768'
p728
sg22
F0.72368421052631582
sbasg26
I00
sg27
I00
sg28
I4410401
sg20
S'6983.92931839'
p729
sba(igraph
Edge
p730
(dp731
g7
I1
sg8
I00
sg9
I5
sg10
(lp732
g726
a(igraph
Vertex
p733
(dp734
g14
F0.38888888888888884
sg8
I00
sg15
g16
sg17
F105.25
sg18
F-124.27777777777783
sg19
I4410869
sg20
S'6983.75755745'
p735
sg22
F0.72368421052631582
sbasg26
I00
sg27
I00
sg28
I4410402
sg20
S'6983.931831'
p736
sba(igraph
Edge
p737
(dp738
g7
I1
sg8
I00
sg9
I5
sg10
(lp739
g733
a(igraph
Vertex
p740
(dp741
g14
F0.44444444444444436
sg8
I00
sg15
g16
sg17
F105.25
sg18
F-73.888888888888971
sg19
I4410870
sg20
S'6983.75840309'
p742
sg22
F0.72368421052631582
sbasg26
I00
sg27
I00
sg28
I4410403
sg20
S'6983.93423466'
p743
sba(igraph
Edge
p744
(dp745
g7
I1
sg8
I00
sg9
I5
sg10
(lp746
g740
a(igraph
Vertex
p747
(dp748
g14
F0.5
sg8
I00
sg15
g16
sg17
F105.25
sg18
F-23.5
sg19
I4410871
sg20
S'6983.75964711'
p749
sg22
F0.72368421052631582
sbasg26
I00
sg27
I00
sg28
I4410404
sg20
S'6983.93680705'
p750
sba(igraph
Edge
p751
(dp752
g7
I1
sg8
I00
sg9
I5
sg10
(lp753
g747
a(igraph
Vertex
p754
(dp755
g14
F0.55555555555555558
sg8
I00
sg15
g16
sg17
F105.25
sg18
F26.888888888888914
sg19
I4410872
sg20
S'6983.76058549'
p756
sg22
F0.72368421052631582
sbasg26
I00
sg27
I00
sg28
I4410405
sg20
S'6983.93932609'
p757
sba(igraph
Edge
p758
(dp759
g7
I1
sg8
I00
sg9
I5
sg10
(lp760
g754
a(igraph
Vertex
p761
(dp762
g14
F0.61111111111111116
sg8
I00
sg15
g16
sg17
F105.25
sg18
F77.277777777777828
sg19
I4410873
sg20
S'6983.76147834'
p763
sg22
F0.72368421052631582
sbasg26
I00
sg27
I00
sg28
I4410406
sg20
S'6983.94190072'
p764
sba(igraph
Edge
p765
(dp766
g7
I1
sg8
I00
sg9
I5
sg10
(lp767
g761
a(igraph
Vertex
p768
(dp769
g14
F0.66666666666666663
sg8
I00
sg15
g16
sg17
F105.25
sg18
F127.66666666666663
sg19
I4410874
sg20
S'6983.76235471'
p770
sg22
F0.72368421052631582
sbasg26
I00
sg27
I00
sg28
I4410407
sg20
S'6983.94440075'
p771
sba(igraph
Edge
p772
(dp773
g7
I1
sg8
I00
sg9
I5
sg10
(lp774
g768
a(igraph
Vertex
p775
(dp776
g14
F0.7222222222222221
sg8
I00
sg15
g16
sg17
F105.25
sg18
F178.05555555555543
sg19
I4410875
sg20
S'6983.76324281'
p777
sg22
F0.72368421052631582
sbasg26
I00
sg27
I00
sg28
I4410408
sg20
S'6983.94710752'
p778
sba(igraph
Edge
p779
(dp780
g7
I1
sg8
I00
sg9
I5
sg10
(lp781
g775
a(igraph
Vertex
p782
(dp783
g14
F0.77777777777777768
sg8
I00
sg15
g16
sg17
F105.25
sg18
F228.44444444444434
sg19
I4410876
sg20
S'6983.76413818'
p784
sg22
F0.72368421052631582
sbasg26
I00
sg27
I00
sg28
I4410409
sg20
S'6983.94975982'
p785
sba(igraph
Edge
p786
(dp787
g7
I1
sg8
I00
sg9
I5
sg10
(lp788
g782
a(igraph
Vertex
p789
(dp790
g14
F0.83333333333333326
sg8
I00
sg15
g16
sg17
F105.25
sg18
F278.83333333333326
sg19
I4410877
sg20
S'6983.76506791'
p791
sg22
F0.72368421052631582
sbasg26
I00
sg27
I00
sg28
I4410410
sg20
S'6983.95237076'
p792
sba(igraph
Edge
p793
(dp794
g7
I1
sg8
I00
sg9
I5
sg10
(lp795
g789
a(igraph
Vertex
p796
(dp797
g14
F0.88888888888888884
sg8
I00
sg15
g16
sg17
F105.25
sg18
F329.22222222222217
sg19
I4410878
sg20
S'6983.76598171'
p798
sg22
F0.72368421052631582
sbasg26
I00
sg27
I00
sg28
I4410411
sg20
S'6983.95497528'
p799
sba(igraph
Edge
p800
(dp801
g7
I1
sg8
I00
sg9
I5
sg10
(lp802
g796
a(igraph
Vertex
p803
(dp804
g14
F0.94444444444444442
sg8
I00
sg15
g16
sg17
F105.25
sg18
F379.61111111111109
sg19
I4410879
sg20
S'6983.76690334'
p805
sg22
F0.72368421052631582
sbasg26
I00
sg27
I00
sg28
I4410412
sg20
S'6983.95767982'
p806
sba(igraph
Edge
p807
(dp808
g7
I1
sg8
I00
sg9
I5
sg10
(lp809
g803
a(igraph
Vertex
p810
(dp811
g14
F1.0
sg8
I00
sg15
g16
sg17
F105.25
sg18
F430.0
sg19
I4410880
sg20
S'6983.76783586'
p812
sg22
F0.72368421052631582
sbasg26
I00
sg27
I00
sg28
I4410413
sg20
S'6983.9606869'
p813
sba(igraph
Edge
p814
(dp815
g7
I1
sg8
I00
sg9
I5
sg10
(lp816
g810
ag688
asg26
I00
sg27
I00
sg28
I4410414
sg20
S'6983.96333277'
p817
sba(igraph
Edge
p818
(dp819
g7
I1
sg8
I00
sg9
I5
sg10
(lp820
(igraph
Vertex
p821
(dp822
g14
F0.0
sg8
I00
sg15
g16
sg17
F190.50000000000011
sg18
F-477.0
sg19
I4410881
sg20
S'6983.76877927'
p823
sg22
F0.86842105263157909
sba(igraph
Vertex
p824
(dp825
g14
F0.055555555555555552
sg8
I00
sg15
g16
sg17
F190.50000000000011
sg18
F-426.61111111111109
sg19
I4410882
sg20
S'6983.76972548'
p826
sg22
F0.86842105263157909
sbasg26
I00
sg27
I00
sg28
I4410415
sg20
S'6983.96599819'
p827
sba(igraph
Edge
p828
(dp829
g7
I1
sg8
I00
sg9
I5
sg10
(lp830
g824
a(igraph
Vertex
p831
(dp832
g14
F0.1111111111111111
sg8
I00
sg15
I0
sg17
F190.50000000000011
sg18
F-376.22222222222223
sg19
I4410883
sg20
S'6983.77069991'
p833
sg22
F0.86842105263157909
sbasg26
I00
sg27
I00
sg28
I4410416
sg20
S'6983.96880833'
p834
sba(igraph
Edge
p835
(dp836
g7
I1
sg8
I00
sg9
I5
sg10
(lp837
g831
a(igraph
Vertex
p838
(dp839
g14
F0.1666666666666666
sg8
I00
sg15
g16
sg17
F190.50000000000011
sg18
F-325.83333333333337
sg19
I4410885
sg20
S'6983.77172127'
p840
sg22
F0.86842105263157909
sbasg26
I00
sg27
I00
sg28
I4410417
sg20
S'6983.97149498'
p841
sba(igraph
Edge
p842
(dp843
g7
I1
sg8
I00
sg9
I5
sg10
(lp844
g838
a(igraph
Vertex
p845
(dp846
g14
F0.22222222222222215
sg8
I00
sg15
g16
sg17
F190.50000000000011
sg18
F-275.44444444444451
sg19
I4410886
sg20
S'6983.77283901'
p847
sg22
F0.86842105263157909
sbasg26
I00
sg27
I00
sg28
I4410418
sg20
S'6983.97433277'
p848
sba(igraph
Edge
p849
(dp850
g7
I1
sg8
I00
sg9
I5
sg10
(lp851
g845
a(igraph
Vertex
p852
(dp853
g14
F0.27777777777777768
sg8
I00
sg15
g16
sg17
F190.50000000000011
sg18
F-225.05555555555566
sg19
I4410887
sg20
S'6983.77382349'
p854
sg22
F0.86842105263157909
sbasg26
I00
sg27
I00
sg28
I4410419
sg20
S'6983.97708703'
p855
sba(igraph
Edge
p856
(dp857
g7
I1
sg8
I00
sg9
I5
sg10
(lp858
g852
a(igraph
Vertex
p859
(dp860
g14
F0.33333333333333326
sg8
I00
sg15
g16
sg17
F190.50000000000011
sg18
F-174.66666666666674
sg19
I4410888
sg20
S'6983.77480965'
p861
sg22
F0.86842105263157909
sbasg26
I00
sg27
I00
sg28
I4410420
sg20
S'6983.98011451'
p862
sba(igraph
Edge
p863
(dp864
g7
I1
sg8
I00
sg9
I5
sg10
(lp865
g859
a(igraph
Vertex
p866
(dp867
g14
F0.38888888888888884
sg8
I00
sg15
g16
sg17
F190.50000000000011
sg18
F-124.27777777777783
sg19
I4410889
sg20
S'6983.77580754'
p868
sg22
F0.86842105263157909
sbasg26
I00
sg27
I00
sg28
I4410421
sg20
S'6983.98324033'
p869
sba(igraph
Edge
p870
(dp871
g7
I1
sg8
I00
sg9
I5
sg10
(lp872
g866
a(igraph
Vertex
p873
(dp874
g14
F0.44444444444444436
sg8
I00
sg15
g16
sg17
F190.50000000000011
sg18
F-73.888888888888971
sg19
I4410890
sg20
S'6983.77683784'
p875
sg22
F0.86842105263157909
sbasg26
I00
sg27
I00
sg28
I4410422
sg20
S'6983.98616053'
p876
sba(igraph
Edge
p877
(dp878
g7
I1
sg8
I00
sg9
I5
sg10
(lp879
g873
a(igraph
Vertex
p880
(dp881
g14
F0.5
sg8
I00
sg15
g16
sg17
F190.50000000000011
sg18
F-23.5
sg19
I4410891
sg20
S'6983.77788015'
p882
sg22
F0.86842105263157909
sbasg26
I00
sg27
I00
sg28
I4410423
sg20
S'6983.98941458'
p883
sba(igraph
Edge
p884
(dp885
g7
I1
sg8
I00
sg9
I5
sg10
(lp886
g880
a(igraph
Vertex
p887
(dp888
g14
F0.55555555555555558
sg8
I00
sg15
g16
sg17
F190.50000000000011
sg18
F26.888888888888914
sg19
I4410892
sg20
S'6983.778949'
p889
sg22
F0.86842105263157909
sbasg26
I00
sg27
I00
sg28
I4410424
sg20
S'6983.9934'
p890
sba(igraph
Edge
p891
(dp892
g7
I1
sg8
I00
sg9
I5
sg10
(lp893
g887
a(igraph
Vertex
p894
(dp895
g14
F0.61111111111111116
sg8
I00
sg15
g16
sg17
F190.50000000000011
sg18
F77.277777777777828
sg19
I4410893
sg20
S'6983.77997874'
p896
sg22
F0.86842105263157909
sbasg26
I00
sg27
I00
sg28
I4410425
sg20
S'6983.9963121'
p897
sba(igraph
Edge
p898
(dp899
g7
I1
sg8
I00
sg9
I5
sg10
(lp900
g894
a(igraph
Vertex
p901
(dp902
g14
F0.66666666666666663
sg8
I00
sg15
g16
sg17
F190.50000000000011
sg18
F127.66666666666663
sg19
I4410894
sg20
S'6983.78102776'
p903
sg22
F0.86842105263157909
sbasg26
I00
sg27
I00
sg28
I4410426
sg20
S'6983.99929907'
p904
sba(igraph
Edge
p905
(dp906
g7
I1
sg8
I00
sg9
I5
sg10
(lp907
g901
a(igraph
Vertex
p908
(dp909
g14
F0.7222222222222221
sg8
I00
sg15
g16
sg17
F190.50000000000011
sg18
F178.05555555555543
sg19
I4410895
sg20
S'6983.78207845'
p910
sg22
F0.86842105263157909
sbasg26
I00
sg27
I00
sg28
I4410427
sg20
S'6984.00222598'
p911
sba(igraph
Edge
p912
(dp913
g7
I1
sg8
I00
sg9
I5
sg10
(lp914
g908
a(igraph
Vertex
p915
(dp916
g14
F0.77777777777777768
sg8
I00
sg15
g16
sg17
F190.50000000000011
sg18
F228.44444444444434
sg19
I4410896
sg20
S'6983.78318194'
p917
sg22
F0.86842105263157909
sbasg26
I00
sg27
I00
sg28
I4410428
sg20
S'6984.00529397'
p918
sba(igraph
Edge
p919
(dp920
g7
I1
sg8
I00
sg9
I5
sg10
(lp921
g915
a(igraph
Vertex
p922
(dp923
g14
F0.83333333333333326
sg8
I00
sg15
g16
sg17
F190.50000000000011
sg18
F278.83333333333326
sg19
I4410897
sg20
S'6983.78427789'
p924
sg22
F0.86842105263157909
sbasg26
I00
sg27
I00
sg28
I4410429
sg20
S'6984.00934616'
p925
sba(igraph
Edge
p926
(dp927
g7
I1
sg8
I00
sg9
I5
sg10
(lp928
g922
a(igraph
Vertex
p929
(dp930
g14
F0.88888888888888884
sg8
I00
sg15
g16
sg17
F190.50000000000011
sg18
F329.22222222222217
sg19
I4410898
sg20
S'6983.7853663'
p931
sg22
F0.86842105263157909
sbasg26
I00
sg27
I00
sg28
I4410430
sg20
S'6984.01237895'
p932
sba(igraph
Edge
p933
(dp934
g7
I1
sg8
I00
sg9
I5
sg10
(lp935
g929
a(igraph
Vertex
p936
(dp937
g14
F0.94444444444444442
sg8
I00
sg15
g16
sg17
F190.50000000000011
sg18
F379.61111111111109
sg19
I4410899
sg20
S'6983.78648627'
p938
sg22
F0.86842105263157909
sbasg26
I00
sg27
I00
sg28
I4410431
sg20
S'6984.0161825'
p939
sba(igraph
Edge
p940
(dp941
g7
I1
sg8
I00
sg9
I5
sg10
(lp942
g936
a(igraph
Vertex
p943
(dp944
g14
F1.0
sg8
I00
sg15
g16
sg17
F190.50000000000011
sg18
F430.0
sg19
I4410900
sg20
S'6983.78758837'
p945
sg22
F0.86842105263157909
sbasg26
I00
sg27
I00
sg28
I4410432
sg20
S'6984.01922004'
p946
sba(igraph
Edge
p947
(dp948
g7
I1
sg8
I00
sg9
I5
sg10
(lp949
g943
ag821
asg26
I00
sg27
I00
sg28
I4410433
sg20
S'6984.02228468'
p950
sba(igraph
Edge
p951
(dp952
g7
I1
sg8
I00
sg9
I5
sg10
(lp953
(igraph
Vertex
p954
(dp955
g14
F0.0
sg8
I00
sg15
I0
sg17
F275.75
sg18
F-477.0
sg19
I4410901
sg20
S'6983.78872678'
p956
sg22
F1.013157894736842
sba(igraph
Vertex
p957
(dp958
g14
F0.055555555555555552
sg8
I00
sg15
g16
sg17
F275.75
sg18
F-426.61111111111109
sg19
I4410903
sg20
S'6983.7898515'
p959
sg22
F1.013157894736842
sbasg26
I00
sg27
I00
sg28
I4410434
sg20
S'6984.02731157'
p960
sba(igraph
Edge
p961
(dp962
g7
I1
sg8
I00
sg9
I5
sg10
(lp963
g957
a(igraph
Vertex
p964
(dp965
g14
F0.1111111111111111
sg8
I00
sg15
g16
sg17
F275.75
sg18
F-376.22222222222223
sg19
I4410904
sg20
S'6983.79098349'
p966
sg22
F1.013157894736842
sbasg26
I00
sg27
I00
sg28
I4410435
sg20
S'6984.0310316'
p967
sba(igraph
Edge
p968
(dp969
g7
I1
sg8
I00
sg9
I5
sg10
(lp970
g964
a(igraph
Vertex
p971
(dp972
g14
F0.1666666666666666
sg8
I00
sg15
I0
sg17
F275.75
sg18
F-325.83333333333337
sg19
I4410905
sg20
S'6983.79214705'
p973
sg22
F1.013157894736842
sbasg26
I00
sg27
I00
sg28
I4410436
sg20
S'6984.03480359'
p974
sba(igraph
Edge
p975
(dp976
g7
I1
sg8
I00
sg9
I5
sg10
(lp977
g971
a(igraph
Vertex
p978
(dp979
g14
F0.22222222222222215
sg8
I00
sg15
g16
sg17
F275.75
sg18
F-275.44444444444451
sg19
I4410907
sg20
S'6983.79329021'
p980
sg22
F1.013157894736842
sbasg26
I00
sg27
I00
sg28
I4410437
sg20
S'6984.03899462'
p981
sba(igraph
Edge
p982
(dp983
g7
I1
sg8
I00
sg9
I5
sg10
(lp984
g978
a(igraph
Vertex
p985
(dp986
g14
F0.27777777777777768
sg8
I00
sg15
g16
sg17
F275.75
sg18
F-225.05555555555566
sg19
I4410908
sg20
S'6983.79446187'
p987
sg22
F1.013157894736842
sbasg26
I00
sg27
I00
sg28
I4410438
sg20
S'6984.04281689'
p988
sba(igraph
Edge
p989
(dp990
g7
I1
sg8
I00
sg9
I5
sg10
(lp991
g985
a(igraph
Vertex
p992
(dp993
g14
F0.33333333333333326
sg8
I00
sg15
g16
sg17
F275.75
sg18
F-174.66666666666674
sg19
I4410909
sg20
S'6983.7956609'
p994
sg22
F1.013157894736842
sbasg26
I00
sg27
I00
sg28
I4410439
sg20
S'6984.046502'
p995
sba(igraph
Edge
p996
(dp997
g7
I1
sg8
I00
sg9
I5
sg10
(lp998
g992
a(igraph
Vertex
p999
(dp1000
g14
F0.38888888888888884
sg8
I00
sg15
g16
sg17
F275.75
sg18
F-124.27777777777783
sg19
I4410910
sg20
S'6983.79682557'
p1001
sg22
F1.013157894736842
sbasg26
I00
sg27
I00
sg28
I4410440
sg20
S'6984.050707'
p1002
sba(igraph
Edge
p1003
(dp1004
g7
I1
sg8
I00
sg9
I5
sg10
(lp1005
g999
a(igraph
Vertex
p1006
(dp1007
g14
F0.44444444444444436
sg8
I00
sg15
g16
sg17
F275.75
sg18
F-73.888888888888971
sg19
I4410911
sg20
S'6983.79800757'
p1008
sg22
F1.013157894736842
sbasg26
I00
sg27
I00
sg28
I4410441
sg20
S'6984.05433037'
p1009
sba(igraph
Edge
p1010
(dp1011
g7
I1
sg8
I00
sg9
I5
sg10
(lp1012
g1006
a(igraph
Vertex
p1013
(dp1014
g14
F0.5
sg8
I00
sg15
g16
sg17
F275.75
sg18
F-23.5
sg19
I4410912
sg20
S'6983.79919319'
p1015
sg22
F1.013157894736842
sbasg26
I00
sg27
I00
sg28
I4410442
sg20
S'6984.06006601'
p1016
sba(igraph
Edge
p1017
(dp1018
g7
I1
sg8
I00
sg9
I5
sg10
(lp1019
g1013
a(igraph
Vertex
p1020
(dp1021
g14
F0.55555555555555558
sg8
I00
sg15
g16
sg17
F275.75
sg18
F26.888888888888914
sg19
I4410913
sg20
S'6983.80049448'
p1022
sg22
F1.013157894736842
sbasg26
I00
sg27
I00
sg28
I4410443
sg20
S'6984.0643132'
p1023
sba(igraph
Edge
p1024
(dp1025
g7
I1
sg8
I00
sg9
I5
sg10
(lp1026
g1020
a(igraph
Vertex
p1027
(dp1028
g14
F0.61111111111111116
sg8
I00
sg15
g16
sg17
F275.75
sg18
F77.277777777777828
sg19
I4410914
sg20
S'6983.80170497'
p1029
sg22
F1.013157894736842
sbasg26
I00
sg27
I00
sg28
I4410444
sg20
S'6984.06809273'
p1030
sba(igraph
Edge
p1031
(dp1032
g7
I1
sg8
I00
sg9
I5
sg10
(lp1033
g1027
a(igraph
Vertex
p1034
(dp1035
g14
F0.66666666666666663
sg8
I00
sg15
g16
sg17
F275.75
sg18
F127.66666666666663
sg19
I4410915
sg20
S'6983.80291685'
p1036
sg22
F1.013157894736842
sbasg26
I00
sg27
I00
sg28
I4410445
sg20
S'6984.07203625'
p1037
sba(igraph
Edge
p1038
(dp1039
g7
I1
sg8
I00
sg9
I5
sg10
(lp1040
g1034
a(igraph
Vertex
p1041
(dp1042
g14
F0.7222222222222221
sg8
I00
sg15
g16
sg17
F275.75
sg18
F178.05555555555543
sg19
I4410916
sg20
S'6983.80414131'
p1043
sg22
F1.013157894736842
sbasg26
I00
sg27
I00
sg28
I4410446
sg20
S'6984.07601273'
p1044
sba(igraph
Edge
p1045
(dp1046
g7
I1
sg8
I00
sg9
I5
sg10
(lp1047
g1041
a(igraph
Vertex
p1048
(dp1049
g14
F0.77777777777777768
sg8
I00
sg15
g16
sg17
F275.75
sg18
F228.44444444444434
sg19
I4410917
sg20
S'6983.80540125'
p1050
sg22
F1.013157894736842
sbasg26
I00
sg27
I00
sg28
I4410447
sg20
S'6984.07982635'
p1051
sba(igraph
Edge
p1052
(dp1053
g7
I1
sg8
I00
sg9
I5
sg10
(lp1054
g1048
a(igraph
Vertex
p1055
(dp1056
g14
F0.83333333333333326
sg8
I00
sg15
g16
sg17
F275.75
sg18
F278.83333333333326
sg19
I4410918
sg20
S'6983.80666342'
p1057
sg22
F1.013157894736842
sbasg26
I00
sg27
I00
sg28
I4410448
sg20
S'6984.08315219'
p1058
sba(igraph
Edge
p1059
(dp1060
g7
I1
sg8
I00
sg9
I5
sg10
(lp1061
g1055
a(igraph
Vertex
p1062
(dp1063
g14
F0.88888888888888884
sg8
I00
sg15
g16
sg17
F275.75
sg18
F329.22222222222217
sg19
I4410919
sg20
S'6983.80792671'
p1064
sg22
F1.013157894736842
sbasg26
I00
sg27
I00
sg28
I4410449
sg20
S'6984.08744296'
p1065
sba(igraph
Edge
p1066
(dp1067
g7
I1
sg8
I00
sg9
I5
sg10
(lp1068
g1062
a(igraph
Vertex
p1069
(dp1070
g14
F0.94444444444444442
sg8
I00
sg15
g16
sg17
F275.75
sg18
F379.61111111111109
sg19
I4410920
sg20
S'6983.80918608'
p1071
sg22
F1.013157894736842
sbasg26
I00
sg27
I00
sg28
I4410450
sg20
S'6984.09114203'
p1072
sba(igraph
Edge
p1073
(dp1074
g7
I1
sg8
I00
sg9
I5
sg10
(lp1075
g1069
a(igraph
Vertex
p1076
(dp1077
g14
F1.0
sg8
I00
sg15
g16
sg17
F275.75
sg18
F430.0
sg19
I4410921
sg20
S'6983.81044518'
p1078
sg22
F1.013157894736842
sbasg26
I00
sg27
I00
sg28
I4410451
sg20
S'6984.09513136'
p1079
sba(igraph
Edge
p1080
(dp1081
g7
I1
sg8
I00
sg9
I5
sg10
(lp1082
g1076
ag954
asg26
I00
sg27
I00
sg28
I4410452
sg20
S'6984.09883044'
p1083
sba(igraph
Edge
p1084
(dp1085
g7
I1
sg8
I00
sg9
I5
sg10
(lp1086
g12
ag156
asg26
I00
sg27
I00
sg28
I4410453
sg20
S'6984.10240659'
p1087
sba(igraph
Edge
p1088
(dp1089
g7
I1
sg8
I00
sg9
I5
sg10
(lp1090
g23
ag156
asg26
I00
sg27
I00
sg28
I4410454
sg20
S'6984.10601906'
p1091
sba(igraph
Edge
p1092
(dp1093
g7
I1
sg8
I00
sg9
I5
sg10
(lp1094
g33
ag166
asg26
I00
sg27
I00
sg28
I4410455
sg20
S'6984.110095'
p1095
sba(igraph
Edge
p1096
(dp1097
g7
I1
sg8
I00
sg9
I5
sg10
(lp1098
g40
ag166
asg26
I00
sg27
I00
sg28
I4410456
sg20
S'6984.11379938'
p1099
sba(igraph
Edge
p1100
(dp1101
g7
I1
sg8
I00
sg9
I5
sg10
(lp1102
g47
ag180
asg26
I00
sg27
I00
sg28
I4410457
sg20
S'6984.11739341'
p1103
sba(igraph
Edge
p1104
(dp1105
g7
I1
sg8
I00
sg9
I5
sg10
(lp1106
g54
ag180
asg26
I00
sg27
I00
sg28
I4410458
sg20
S'6984.12103075'
p1107
sba(igraph
Edge
p1108
(dp1109
g7
I1
sg8
I00
sg9
I5
sg10
(lp1110
g61
ag194
asg26
I00
sg27
I00
sg28
I4410459
sg20
S'6984.12498963'
p1111
sba(igraph
Edge
p1112
(dp1113
g7
I1
sg8
I00
sg9
I5
sg10
(lp1114
g68
ag194
asg26
I00
sg27
I00
sg28
I4410460
sg20
S'6984.1301076'
p1115
sba(igraph
Edge
p1116
(dp1117
g7
I1
sg8
I00
sg9
I5
sg10
(lp1118
g75
ag208
asg26
I00
sg27
I00
sg28
I4410461
sg20
S'6984.13389802'
p1119
sba(igraph
Edge
p1120
(dp1121
g7
I1
sg8
I00
sg9
I5
sg10
(lp1122
g82
ag208
asg26
I00
sg27
I00
sg28
I4410462
sg20
S'6984.13766275'
p1123
sba(igraph
Edge
p1124
(dp1125
g7
I1
sg8
I00
sg9
I5
sg10
(lp1126
g89
ag222
asg26
I00
sg27
I00
sg28
I4410463
sg20
S'6984.14162331'
p1127
sba(igraph
Edge
p1128
(dp1129
g7
I1
sg8
I00
sg9
I5
sg10
(lp1130
g96
ag222
asg26
I00
sg27
I00
sg28
I4410464
sg20
S'6984.145949'
p1131
sba(igraph
Edge
p1132
(dp1133
g7
I1
sg8
I00
sg9
I5
sg10
(lp1134
g103
ag236
asg26
I00
sg27
I00
sg28
I4410465
sg20
S'6984.14977015'
p1135
sba(igraph
Edge
p1136
(dp1137
g7
I1
sg8
I00
sg9
I5
sg10
(lp1138
g110
ag236
asg26
I00
sg27
I00
sg28
I4410466
sg20
S'6984.15449254'
p1139
sba(igraph
Edge
p1140
(dp1141
g7
I1
sg8
I00
sg9
I5
sg10
(lp1142
g117
ag250
asg26
I00
sg27
I00
sg28
I4410467
sg20
S'6984.15884589'
p1143
sba(igraph
Edge
p1144
(dp1145
g7
I1
sg8
I00
sg9
I5
sg10
(lp1146
g124
ag250
asg26
I00
sg27
I00
sg28
I4410468
sg20
S'6984.16328137'
p1147
sba(igraph
Edge
p1148
(dp1149
g7
I1
sg8
I00
sg9
I5
sg10
(lp1150
g131
ag264
asg26
I00
sg27
I00
sg28
I4410469
sg20
S'6984.16767355'
p1151
sba(igraph
Edge
p1152
(dp1153
g7
I1
sg8
I00
sg9
I5
sg10
(lp1154
g138
ag264
asg26
I00
sg27
I00
sg28
I4410470
sg20
S'6984.17212188'
p1155
sba(igraph
Edge
p1156
(dp1157
g7
I1
sg8
I00
sg9
I5
sg10
(lp1158
g145
ag278
asg26
I00
sg27
I00
sg28
I4410471
sg20
S'6984.17664256'
p1159
sba(igraph
Edge
p1160
(dp1161
g7
I1
sg8
I00
sg9
I5
sg10
(lp1162
g12
ag278
asg26
I00
sg27
I00
sg28
I4410472
sg20
S'6984.18156218'
p1163
sba(igraph
Edge
p1164
(dp1165
g7
I1
sg8
I00
sg9
I5
sg10
(lp1166
g23
ag159
asg26
I00
sg27
I00
sg28
I4410473
sg20
S'6984.18602532'
p1167
sba(igraph
Edge
p1168
(dp1169
g7
I1
sg8
I00
sg9
I5
sg10
(lp1170
g33
ag159
asg26
I00
sg27
I00
sg28
I4410474
sg20
S'6984.19061221'
p1171
sba(igraph
Edge
p1172
(dp1173
g7
I1
sg8
I00
sg9
I5
sg10
(lp1174
g40
ag173
asg26
I00
sg27
I00
sg28
I4410475
sg20
S'6984.19515162'
p1175
sba(igraph
Edge
p1176
(dp1177
g7
I1
sg8
I00
sg9
I5
sg10
(lp1178
g47
ag173
asg26
I00
sg27
I00
sg28
I4410476
sg20
S'6984.19955106'
p1179
sba(igraph
Edge
p1180
(dp1181
g7
I1
sg8
I00
sg9
I5
sg10
(lp1182
g54
ag187
asg26
I00
sg27
I00
sg28
I4410477
sg20
S'6984.20420417'
p1183
sba(igraph
Edge
p1184
(dp1185
g7
I1
sg8
I00
sg9
I5
sg10
(lp1186
g61
ag187
asg26
I00
sg27
I00
sg28
I4410478
sg20
S'6984.2086402'
p1187
sba(igraph
Edge
p1188
(dp1189
g7
I1
sg8
I00
sg9
I5
sg10
(lp1190
g68
ag201
asg26
I00
sg27
I00
sg28
I4410479
sg20
S'6984.21333857'
p1191
sba(igraph
Edge
p1192
(dp1193
g7
I1
sg8
I00
sg9
I5
sg10
(lp1194
g75
ag201
asg26
I00
sg27
I00
sg28
I4410480
sg20
S'6984.21759777'
p1195
sba(igraph
Edge
p1196
(dp1197
g7
I1
sg8
I00
sg9
I5
sg10
(lp1198
g82
ag215
asg26
I00
sg27
I00
sg28
I4410481
sg20
S'6984.22190586'
p1199
sba(igraph
Edge
p1200
(dp1201
g7
I1
sg8
I00
sg9
I5
sg10
(lp1202
g89
ag215
asg26
I00
sg27
I00
sg28
I4410482
sg20
S'6984.22630139'
p1203
sba(igraph
Edge
p1204
(dp1205
g7
I1
sg8
I00
sg9
I5
sg10
(lp1206
g96
ag229
asg26
I00
sg27
I00
sg28
I4410483
sg20
S'6984.23089024'
p1207
sba(igraph
Edge
p1208
(dp1209
g7
I1
sg8
I00
sg9
I5
sg10
(lp1210
g103
ag229
asg26
I00
sg27
I00
sg28
I4410484
sg20
S'6984.23523409'
p1211
sba(igraph
Edge
p1212
(dp1213
g7
I1
sg8
I00
sg9
I5
sg10
(lp1214
g110
ag243
asg26
I00
sg27
I00
sg28
I4410485
sg20
S'6984.24071635'
p1215
sba(igraph
Edge
p1216
(dp1217
g7
I1
sg8
I00
sg9
I5
sg10
(lp1218
g117
ag243
asg26
I00
sg27
I00
sg28
I4410486
sg20
S'6984.24513674'
p1219
sba(igraph
Edge
p1220
(dp1221
g7
I1
sg8
I00
sg9
I5
sg10
(lp1222
g124
ag257
asg26
I00
sg27
I00
sg28
I4410487
sg20
S'6984.24947221'
p1223
sba(igraph
Edge
p1224
(dp1225
g7
I1
sg8
I00
sg9
I5
sg10
(lp1226
g131
ag257
asg26
I00
sg27
I00
sg28
I4410488
sg20
S'6984.25389651'
p1227
sba(igraph
Edge
p1228
(dp1229
g7
I1
sg8
I00
sg9
I5
sg10
(lp1230
g138
ag271
asg26
I00
sg27
I00
sg28
I4410489
sg20
S'6984.25833954'
p1231
sba(igraph
Edge
p1232
(dp1233
g7
I1
sg8
I00
sg9
I5
sg10
(lp1234
g145
ag271
asg26
I00
sg27
I00
sg28
I4410490
sg20
S'6984.26272417'
p1235
sba(igraph
Edge
p1236
(dp1237
g7
I1
sg8
I00
sg9
I5
sg10
(lp1238
g12
ag954
asg26
I00
sg27
I00
sg28
I4410491
sg20
S'6984.2671116'
p1239
sba(igraph
Edge
p1240
(dp1241
g7
I1
sg8
I00
sg9
I5
sg10
(lp1242
g23
ag964
asg26
I00
sg27
I00
sg28
I4410492
sg20
S'6984.27233182'
p1243
sba(igraph
Edge
p1244
(dp1245
g7
I1
sg8
I00
sg9
I5
sg10
(lp1246
g33
ag964
asg26
I00
sg27
I00
sg28
I4410493
sg20
S'6984.27679077'
p1247
sba(igraph
Edge
p1248
(dp1249
g7
I1
sg8
I00
sg9
I5
sg10
(lp1250
g40
ag978
asg26
I00
sg27
I00
sg28
I4410494
sg20
S'6984.28124301'
p1251
sba(igraph
Edge
p1252
(dp1253
g7
I1
sg8
I00
sg9
I5
sg10
(lp1254
g47
ag978
asg26
I00
sg27
I00
sg28
I4410495
sg20
S'6984.28607546'
p1255
sba(igraph
Edge
p1256
(dp1257
g7
I1
sg8
I00
sg9
I5
sg10
(lp1258
g54
ag992
asg26
I00
sg27
I00
sg28
I4410496
sg20
S'6984.29060621'
p1259
sba(igraph
Edge
p1260
(dp1261
g7
I1
sg8
I00
sg9
I5
sg10
(lp1262
g61
ag992
asg26
I00
sg27
I00
sg28
I4410497
sg20
S'6984.29587336'
p1263
sba(igraph
Edge
p1264
(dp1265
g7
I1
sg8
I00
sg9
I5
sg10
(lp1266
g68
ag1006
asg26
I00
sg27
I00
sg28
I4410498
sg20
S'6984.30199397'
p1267
sba(igraph
Edge
p1268
(dp1269
g7
I1
sg8
I00
sg9
I5
sg10
(lp1270
g75
ag1006
asg26
I00
sg27
I00
sg28
I4410499
sg20
S'6984.30732537'
p1271
sba(igraph
Edge
p1272
(dp1273
g7
I1
sg8
I00
sg9
I5
sg10
(lp1274
g82
ag1020
asg26
I00
sg27
I00
sg28
I4410500
sg20
S'6984.3125509'
p1275
sba(igraph
Edge
p1276
(dp1277
g7
I1
sg8
I00
sg9
I5
sg10
(lp1278
g89
ag1020
asg26
I00
sg27
I00
sg28
I4410501
sg20
S'6984.31797533'
p1279
sba(igraph
Edge
p1280
(dp1281
g7
I1
sg8
I00
sg9
I5
sg10
(lp1282
g96
ag1034
asg26
I00
sg27
I00
sg28
I4410502
sg20
S'6984.32331288'
p1283
sba(igraph
Edge
p1284
(dp1285
g7
I1
sg8
I00
sg9
I5
sg10
(lp1286
g103
ag1034
asg26
I00
sg27
I00
sg28
I4410503
sg20
S'6984.3287158'
p1287
sba(igraph
Edge
p1288
(dp1289
g7
I1
sg8
I00
sg9
I5
sg10
(lp1290
g110
ag1048
asg26
I00
sg27
I00
sg28
I4410504
sg20
S'6984.33423242'
p1291
sba(igraph
Edge
p1292
(dp1293
g7
I1
sg8
I00
sg9
I5
sg10
(lp1294
g117
ag1048
asg26
I00
sg27
I00
sg28
I4410505
sg20
S'6984.34000886'
p1295
sba(igraph
Edge
p1296
(dp1297
g7
I1
sg8
I00
sg9
I5
sg10
(lp1298
g124
ag1062
asg26
I00
sg27
I00
sg28
I4410506
sg20
S'6984.34543888'
p1299
sba(igraph
Edge
p1300
(dp1301
g7
I1
sg8
I00
sg9
I5
sg10
(lp1302
g131
ag1062
asg26
I00
sg27
I00
sg28
I4410507
sg20
S'6984.35196233'
p1303
sba(igraph
Edge
p1304
(dp1305
g7
I1
sg8
I00
sg9
I5
sg10
(lp1306
g138
ag1076
asg26
I00
sg27
I00
sg28
I4410508
sg20
S'6984.35691771'
p1307
sba(igraph
Edge
p1308
(dp1309
g7
I1
sg8
I00
sg9
I5
sg10
(lp1310
g145
ag1076
asg26
I00
sg27
I00
sg28
I4410509
sg20
S'6984.36205328'
p1311
sba(igraph
Edge
p1312
(dp1313
g7
I1
sg8
I00
sg9
I5
sg10
(lp1314
g12
ag957
asg26
I00
sg27
I00
sg28
I4410510
sg20
S'6984.36744195'
p1315
sba(igraph
Edge
p1316
(dp1317
g7
I1
sg8
I00
sg9
I5
sg10
(lp1318
g23
ag957
asg26
I00
sg27
I00
sg28
I4410511
sg20
S'6984.37232078'
p1319
sba(igraph
Edge
p1320
(dp1321
g7
I1
sg8
I00
sg9
I5
sg10
(lp1322
g33
ag971
asg26
I00
sg27
I00
sg28
I4410512
sg20
S'6984.37732114'
p1323
sba(igraph
Edge
p1324
(dp1325
g7
I1
sg8
I00
sg9
I5
sg10
(lp1326
g40
ag971
asg26
I00
sg27
I00
sg28
I4410513
sg20
S'6984.38241704'
p1327
sba(igraph
Edge
p1328
(dp1329
g7
I1
sg8
I00
sg9
I5
sg10
(lp1330
g47
ag985
asg26
I00
sg27
I00
sg28
I4410514
sg20
S'6984.38816861'
p1331
sba(igraph
Edge
p1332
(dp1333
g7
I1
sg8
I00
sg9
I5
sg10
(lp1334
g54
ag985
asg26
I00
sg27
I00
sg28
I4410515
sg20
S'6984.3933539'
p1335
sba(igraph
Edge
p1336
(dp1337
g7
I1
sg8
I00
sg9
I5
sg10
(lp1338
g61
ag999
asg26
I00
sg27
I00
sg28
I4410516
sg20
S'6984.39869145'
p1339
sba(igraph
Edge
p1340
(dp1341
g7
I1
sg8
I00
sg9
I5
sg10
(lp1342
g68
ag999
asg26
I00
sg27
I00
sg28
I4410517
sg20
S'6984.40395246'
p1343
sba(igraph
Edge
p1344
(dp1345
g7
I1
sg8
I00
sg9
I5
sg10
(lp1346
g75
ag1013
asg26
I00
sg27
I00
sg28
I4410518
sg20
S'6984.40896092'
p1347
sba(igraph
Edge
p1348
(dp1349
g7
I1
sg8
I00
sg9
I5
sg10
(lp1350
g82
ag1013
asg26
I00
sg27
I00
sg28
I4410519
sg20
S'6984.41470466'
p1351
sba(igraph
Edge
p1352
(dp1353
g7
I1
sg8
I00
sg9
I5
sg10
(lp1354
g89
ag1027
asg26
I00
sg27
I00
sg28
I4410520
sg20
S'6984.41984694'
p1355
sba(igraph
Edge
p1356
(dp1357
g7
I1
sg8
I00
sg9
I5
sg10
(lp1358
g96
ag1027
asg26
I00
sg27
I00
sg28
I4410521
sg20
S'6984.4256432'
p1359
sba(igraph
Edge
p1360
(dp1361
g7
I1
sg8
I00
sg9
I5
sg10
(lp1362
g103
ag1041
asg26
I00
sg27
I00
sg28
I4410522
sg20
S'6984.43150177'
p1363
sba(igraph
Edge
p1364
(dp1365
g7
I1
sg8
I00
sg9
I5
sg10
(lp1366
g110
ag1041
asg26
I00
sg27
I00
sg28
I4410523
sg20
S'6984.43786794'
p1367
sba(igraph
Edge
p1368
(dp1369
g7
I1
sg8
I00
sg9
I5
sg10
(lp1370
g117
ag1055
asg26
I00
sg27
I00
sg28
I4410524
sg20
S'6984.44365108'
p1371
sba(igraph
Edge
p1372
(dp1373
g7
I1
sg8
I00
sg9
I5
sg10
(lp1374
g124
ag1055
asg26
I00
sg27
I00
sg28
I4410525
sg20
S'6984.44979516'
p1375
sba(igraph
Edge
p1376
(dp1377
g7
I1
sg8
I00
sg9
I5
sg10
(lp1378
g131
ag1069
asg26
I00
sg27
I00
sg28
I4410526
sg20
S'6984.45617613'
p1379
sba(igraph
Edge
p1380
(dp1381
g7
I1
sg8
I00
sg9
I5
sg10
(lp1382
g138
ag1069
asg26
I00
sg27
I00
sg28
I4410527
sg20
S'6984.46230038'
p1383
sba(igraph
Edge
p1384
(dp1385
g7
I1
sg8
I00
sg9
I5
sg10
(lp1386
g145
ag954
asg26
I00
sg27
I00
sg28
I4410528
sg20
S'6984.46819247'
p1387
sba(igraph
Edge
p1388
(dp1389
g7
I1
sg8
I00
sg9
I5
sg10
(lp1390
g156
ag289
asg26
I00
sg27
I00
sg28
I4410529
sg20
S'6984.47415412'
p1391
sba(igraph
Edge
p1392
(dp1393
g7
I1
sg8
I00
sg9
I5
sg10
(lp1394
g159
ag289
asg26
I00
sg27
I00
sg28
I4410530
sg20
S'6984.48015209'
p1395
sba(igraph
Edge
p1396
(dp1397
g7
I1
sg8
I00
sg9
I5
sg10
(lp1398
g166
ag299
asg26
I00
sg27
I00
sg28
I4410531
sg20
S'6984.48569246'
p1399
sba(igraph
Edge
p1400
(dp1401
g7
I1
sg8
I00
sg9
I5
sg10
(lp1402
g173
ag299
asg26
I00
sg27
I00
sg28
I4410532
sg20
S'6984.49110041'
p1403
sba(igraph
Edge
p1404
(dp1405
g7
I1
sg8
I00
sg9
I5
sg10
(lp1406
g180
ag313
asg26
I00
sg27
I00
sg28
I4410533
sg20
S'6984.49651422'
p1407
sba(igraph
Edge
p1408
(dp1409
g7
I1
sg8
I00
sg9
I5
sg10
(lp1410
g187
ag313
asg26
I00
sg27
I00
sg28
I4410534
sg20
S'6984.50248956'
p1411
sba(igraph
Edge
p1412
(dp1413
g7
I1
sg8
I00
sg9
I5
sg10
(lp1414
g194
ag327
asg26
I00
sg27
I00
sg28
I4410535
sg20
S'6984.50817492'
p1415
sba(igraph
Edge
p1416
(dp1417
g7
I1
sg8
I00
sg9
I5
sg10
(lp1418
g201
ag327
asg26
I00
sg27
I00
sg28
I4410536
sg20
S'6984.51408042'
p1419
sba(igraph
Edge
p1420
(dp1421
g7
I1
sg8
I00
sg9
I5
sg10
(lp1422
g208
ag341
asg26
I00
sg27
I00
sg28
I4410537
sg20
S'6984.51968449'
p1423
sba(igraph
Edge
p1424
(dp1425
g7
I1
sg8
I00
sg9
I5
sg10
(lp1426
g215
ag341
asg26
I00
sg27
I00
sg28
I4410538
sg20
S'6984.52512568'
p1427
sba(igraph
Edge
p1428
(dp1429
g7
I1
sg8
I00
sg9
I5
sg10
(lp1430
g222
ag355
asg26
I00
sg27
I00
sg28
I4410539
sg20
S'6984.53104738'
p1431
sba(igraph
Edge
p1432
(dp1433
g7
I1
sg8
I00
sg9
I5
sg10
(lp1434
g229
ag355
asg26
I00
sg27
I00
sg28
I4410540
sg20
S'6984.53638465'
p1435
sba(igraph
Edge
p1436
(dp1437
g7
I1
sg8
I00
sg9
I5
sg10
(lp1438
g236
ag369
asg26
I00
sg27
I00
sg28
I4410541
sg20
S'6984.54166968'
p1439
sba(igraph
Edge
p1440
(dp1441
g7
I1
sg8
I00
sg9
I5
sg10
(lp1442
g243
ag369
asg26
I00
sg27
I00
sg28
I4410542
sg20
S'6984.54698321'
p1443
sba(igraph
Edge
p1444
(dp1445
g7
I1
sg8
I00
sg9
I5
sg10
(lp1446
g250
ag383
asg26
I00
sg27
I00
sg28
I4410543
sg20
S'6984.55234897'
p1447
sba(igraph
Edge
p1448
(dp1449
g7
I1
sg8
I00
sg9
I5
sg10
(lp1450
g257
ag383
asg26
I00
sg27
I00
sg28
I4410544
sg20
S'6984.5576692'
p1451
sba(igraph
Edge
p1452
(dp1453
g7
I1
sg8
I00
sg9
I5
sg10
(lp1454
g264
ag397
asg26
I00
sg27
I00
sg28
I4410545
sg20
S'6984.56301206'
p1455
sba(igraph
Edge
p1456
(dp1457
g7
I1
sg8
I00
sg9
I5
sg10
(lp1458
g271
ag397
asg26
I00
sg27
I00
sg28
I4410546
sg20
S'6984.56839822'
p1459
sba(igraph
Edge
p1460
(dp1461
g7
I1
sg8
I00
sg9
I5
sg10
(lp1462
g278
ag411
asg26
I00
sg27
I00
sg28
I4410547
sg20
S'6984.57390031'
p1463
sba(igraph
Edge
p1464
(dp1465
g7
I1
sg8
I00
sg9
I5
sg10
(lp1466
g156
ag411
asg26
I00
sg27
I00
sg28
I4410548
sg20
S'6984.57944124'
p1467
sba(igraph
Edge
p1468
(dp1469
g7
I1
sg8
I00
sg9
I5
sg10
(lp1470
g159
ag292
asg26
I00
sg27
I00
sg28
I4410549
sg20
S'6984.58499251'
p1471
sba(igraph
Edge
p1472
(dp1473
g7
I1
sg8
I00
sg9
I5
sg10
(lp1474
g166
ag292
asg26
I00
sg27
I00
sg28
I4410550
sg20
S'6984.59054154'
p1475
sba(igraph
Edge
p1476
(dp1477
g7
I1
sg8
I00
sg9
I5
sg10
(lp1478
g173
ag306
asg26
I00
sg27
I00
sg28
I4410551
sg20
S'6984.59638306'
p1479
sba(igraph
Edge
p1480
(dp1481
g7
I1
sg8
I00
sg9
I5
sg10
(lp1482
g180
ag306
asg26
I00
sg27
I00
sg28
I4410552
sg20
S'6984.60192343'
p1483
sba(igraph
Edge
p1484
(dp1485
g7
I1
sg8
I00
sg9
I5
sg10
(lp1486
g187
ag320
asg26
I00
sg27
I00
sg28
I4410553
sg20
S'6984.60750682'
p1487
sba(igraph
Edge
p1488
(dp1489
g7
I1
sg8
I00
sg9
I5
sg10
(lp1490
g194
ag320
asg26
I00
sg27
I00
sg28
I4410554
sg20
S'6984.61327571'
p1491
sba(igraph
Edge
p1492
(dp1493
g7
I1
sg8
I00
sg9
I5
sg10
(lp1494
g201
ag334
asg26
I00
sg27
I00
sg28
I4410555
sg20
S'6984.61896973'
p1495
sba(igraph
Edge
p1496
(dp1497
g7
I1
sg8
I00
sg9
I5
sg10
(lp1498
g208
ag334
asg26
I00
sg27
I00
sg28
I4410556
sg20
S'6984.62462352'
p1499
sba(igraph
Edge
p1500
(dp1501
g7
I1
sg8
I00
sg9
I5
sg10
(lp1502
g215
ag348
asg26
I00
sg27
I00
sg28
I4410557
sg20
S'6984.63027675'
p1503
sba(igraph
Edge
p1504
(dp1505
g7
I1
sg8
I00
sg9
I5
sg10
(lp1506
g222
ag348
asg26
I00
sg27
I00
sg28
I4410558
sg20
S'6984.6362574'
p1507
sba(igraph
Edge
p1508
(dp1509
g7
I1
sg8
I00
sg9
I5
sg10
(lp1510
g229
ag362
asg26
I00
sg27
I00
sg28
I4410559
sg20
S'6984.64194695'
p1511
sba(igraph
Edge
p1512
(dp1513
g7
I1
sg8
I00
sg9
I5
sg10
(lp1514
g236
ag362
asg26
I00
sg27
I00
sg28
I4410560
sg20
S'6984.64771333'
p1515
sba(igraph
Edge
p1516
(dp1517
g7
I1
sg8
I00
sg9
I5
sg10
(lp1518
g243
ag376
asg26
I00
sg27
I00
sg28
I4410561
sg20
S'6984.65347328'
p1519
sba(igraph
Edge
p1520
(dp1521
g7
I1
sg8
I00
sg9
I5
sg10
(lp1522
g250
ag376
asg26
I00
sg27
I00
sg28
I4410562
sg20
S'6984.65919356'
p1523
sba(igraph
Edge
p1524
(dp1525
g7
I1
sg8
I00
sg9
I5
sg10
(lp1526
g257
ag390
asg26
I00
sg27
I00
sg28
I4410563
sg20
S'6984.66487473'
p1527
sba(igraph
Edge
p1528
(dp1529
g7
I1
sg8
I00
sg9
I5
sg10
(lp1530
g264
ag390
asg26
I00
sg27
I00
sg28
I4410564
sg20
S'6984.67083498'
p1531
sba(igraph
Edge
p1532
(dp1533
g7
I1
sg8
I00
sg9
I5
sg10
(lp1534
g271
ag404
asg26
I00
sg27
I00
sg28
I4410565
sg20
S'6984.67685167'
p1535
sba(igraph
Edge
p1536
(dp1537
g7
I1
sg8
I00
sg9
I5
sg10
(lp1538
g278
ag404
asg26
I00
sg27
I00
sg28
I4410566
sg20
S'6984.6826728'
p1539
sba(igraph
Edge
p1540
(dp1541
g7
I1
sg8
I00
sg9
I5
sg10
(lp1542
g289
ag422
asg26
I00
sg27
I00
sg28
I4410567
sg20
S'6984.68850091'
p1543
sba(igraph
Edge
p1544
(dp1545
g7
I1
sg8
I00
sg9
I5
sg10
(lp1546
g292
ag422
asg26
I00
sg27
I00
sg28
I4410568
sg20
S'6984.69435585'
p1547
sba(igraph
Edge
p1548
(dp1549
g7
I1
sg8
I00
sg9
I5
sg10
(lp1550
g299
ag432
asg26
I00
sg27
I00
sg28
I4410569
sg20
S'6984.70029487'
p1551
sba(igraph
Edge
p1552
(dp1553
g7
I1
sg8
I00
sg9
I5
sg10
(lp1554
g306
ag432
asg26
I00
sg27
I00
sg28
I4410570
sg20
S'6984.70621406'
p1555
sba(igraph
Edge
p1556
(dp1557
g7
I1
sg8
I00
sg9
I5
sg10
(lp1558
g313
ag446
asg26
I00
sg27
I00
sg28
I4410571
sg20
S'6984.71217571'
p1559
sba(igraph
Edge
p1560
(dp1561
g7
I1
sg8
I00
sg9
I5
sg10
(lp1562
g320
ag446
asg26
I00
sg27
I00
sg28
I4410572
sg20
S'6984.71820301'
p1563
sba(igraph
Edge
p1564
(dp1565
g7
I1
sg8
I00
sg9
I5
sg10
(lp1566
g327
ag460
asg26
I00
sg27
I00
sg28
I4410573
sg20
S'6984.724282'
p1567
sba(igraph
Edge
p1568
(dp1569
g7
I1
sg8
I00
sg9
I5
sg10
(lp1570
g334
ag460
asg26
I00
sg27
I00
sg28
I4410574
sg20
S'6984.73035903'
p1571
sba(igraph
Edge
p1572
(dp1573
g7
I1
sg8
I00
sg9
I5
sg10
(lp1574
g341
ag474
asg26
I00
sg27
I00
sg28
I4410575
sg20
S'6984.73644108'
p1575
sba(igraph
Edge
p1576
(dp1577
g7
I1
sg8
I00
sg9
I5
sg10
(lp1578
g348
ag474
asg26
I00
sg27
I00
sg28
I4410576
sg20
S'6984.74250889'
p1579
sba(igraph
Edge
p1580
(dp1581
g7
I1
sg8
I00
sg9
I5
sg10
(lp1582
g355
ag488
asg26
I00
sg27
I00
sg28
I4410577
sg20
S'6984.74857112'
p1583
sba(igraph
Edge
p1584
(dp1585
g7
I1
sg8
I00
sg9
I5
sg10
(lp1586
g362
ag488
asg26
I00
sg27
I00
sg28
I4410578
sg20
S'6984.7546082'
p1587
sba(igraph
Edge
p1588
(dp1589
g7
I1
sg8
I00
sg9
I5
sg10
(lp1590
g369
ag502
asg26
I00
sg27
I00
sg28
I4410579
sg20
S'6984.76110204'
p1591
sba(igraph
Edge
p1592
(dp1593
g7
I1
sg8
I00
sg9
I5
sg10
(lp1594
g376
ag502
asg26
I00
sg27
I00
sg28
I4410580
sg20
S'6984.76725282'
p1595
sba(igraph
Edge
p1596
(dp1597
g7
I1
sg8
I00
sg9
I5
sg10
(lp1598
g383
ag516
asg26
I00
sg27
I00
sg28
I4410581
sg20
S'6984.77349188'
p1599
sba(igraph
Edge
p1600
(dp1601
g7
I1
sg8
I00
sg9
I5
sg10
(lp1602
g390
ag516
asg26
I00
sg27
I00
sg28
I4410582
sg20
S'6984.77974156'
p1603
sba(igraph
Edge
p1604
(dp1605
g7
I1
sg8
I00
sg9
I5
sg10
(lp1606
g397
ag530
asg26
I00
sg27
I00
sg28
I4410583
sg20
S'6984.78630133'
p1607
sba(igraph
Edge
p1608
(dp1609
g7
I1
sg8
I00
sg9
I5
sg10
(lp1610
g404
ag530
asg26
I00
sg27
I00
sg28
I4410584
sg20
S'6984.79256637'
p1611
sba(igraph
Edge
p1612
(dp1613
g7
I1
sg8
I00
sg9
I5
sg10
(lp1614
g411
ag544
asg26
I00
sg27
I00
sg28
I4410585
sg20
S'6984.79876632'
p1615
sba(igraph
Edge
p1616
(dp1617
g7
I1
sg8
I00
sg9
I5
sg10
(lp1618
g289
ag544
asg26
I00
sg27
I00
sg28
I4410586
sg20
S'6984.80502075'
p1619
sba(igraph
Edge
p1620
(dp1621
g7
I1
sg8
I00
sg9
I5
sg10
(lp1622
g292
ag425
asg26
I00
sg27
I00
sg28
I4410587
sg20
S'6984.81122377'
p1623
sba(igraph
Edge
p1624
(dp1625
g7
I1
sg8
I00
sg9
I5
sg10
(lp1626
g299
ag425
asg26
I00
sg27
I00
sg28
I4410588
sg20
S'6984.81743071'
p1627
sba(igraph
Edge
p1628
(dp1629
g7
I1
sg8
I00
sg9
I5
sg10
(lp1630
g306
ag439
asg26
I00
sg27
I00
sg28
I4410589
sg20
S'6984.82374771'
p1631
sba(igraph
Edge
p1632
(dp1633
g7
I1
sg8
I00
sg9
I5
sg10
(lp1634
g313
ag439
asg26
I00
sg27
I00
sg28
I4410590
sg20
S'6984.83012478'
p1635
sba(igraph
Edge
p1636
(dp1637
g7
I1
sg8
I00
sg9
I5
sg10
(lp1638
g320
ag453
asg26
I00
sg27
I00
sg28
I4410591
sg20
S'6984.83653984'
p1639
sba(igraph
Edge
p1640
(dp1641
g7
I1
sg8
I00
sg9
I5
sg10
(lp1642
g327
ag453
asg26
I00
sg27
I00
sg28
I4410592
sg20
S'6984.8429468'
p1643
sba(igraph
Edge
p1644
(dp1645
g7
I1
sg8
I00
sg9
I5
sg10
(lp1646
g334
ag467
asg26
I00
sg27
I00
sg28
I4410593
sg20
S'6984.84923726'
p1647
sba(igraph
Edge
p1648
(dp1649
g7
I1
sg8
I00
sg9
I5
sg10
(lp1650
g341
ag467
asg26
I00
sg27
I00
sg28
I4410594
sg20
S'6984.85572915'
p1651
sba(igraph
Edge
p1652
(dp1653
g7
I1
sg8
I00
sg9
I5
sg10
(lp1654
g348
ag481
asg26
I00
sg27
I00
sg28
I4410595
sg20
S'6984.862204'
p1655
sba(igraph
Edge
p1656
(dp1657
g7
I1
sg8
I00
sg9
I5
sg10
(lp1658
g355
ag481
asg26
I00
sg27
I00
sg28
I4410596
sg20
S'6984.86869644'
p1659
sba(igraph
Edge
p1660
(dp1661
g7
I1
sg8
I00
sg9
I5
sg10
(lp1662
g362
ag495
asg26
I00
sg27
I00
sg28
I4410597
sg20
S'6984.87560849'
p1663
sba(igraph
Edge
p1664
(dp1665
g7
I1
sg8
I00
sg9
I5
sg10
(lp1666
g369
ag495
asg26
I00
sg27
I00
sg28
I4410598
sg20
S'6984.8821543'
p1667
sba(igraph
Edge
p1668
(dp1669
g7
I1
sg8
I00
sg9
I5
sg10
(lp1670
g376
ag509
asg26
I00
sg27
I00
sg28
I4410599
sg20
S'6984.88874647'
p1671
sba(igraph
Edge
p1672
(dp1673
g7
I1
sg8
I00
sg9
I5
sg10
(lp1674
g383
ag509
asg26
I00
sg27
I00
sg28
I4410600
sg20
S'6984.89545291'
p1675
sba(igraph
Edge
p1676
(dp1677
g7
I1
sg8
I00
sg9
I5
sg10
(lp1678
g390
ag523
asg26
I00
sg27
I00
sg28
I4410601
sg20
S'6984.90203978'
p1679
sba(igraph
Edge
p1680
(dp1681
g7
I1
sg8
I00
sg9
I5
sg10
(lp1682
g397
ag523
asg26
I00
sg27
I00
sg28
I4410602
sg20
S'6984.90860235'
p1683
sba(igraph
Edge
p1684
(dp1685
g7
I1
sg8
I00
sg9
I5
sg10
(lp1686
g404
ag537
asg26
I00
sg27
I00
sg28
I4410603
sg20
S'6984.91518224'
p1687
sba(igraph
Edge
p1688
(dp1689
g7
I1
sg8
I00
sg9
I5
sg10
(lp1690
g411
ag537
asg26
I00
sg27
I00
sg28
I4410604
sg20
S'6984.92244852'
p1691
sba(igraph
Edge
p1692
(dp1693
g7
I1
sg8
I00
sg9
I5
sg10
(lp1694
g422
ag555
asg26
I00
sg27
I00
sg28
I4410605
sg20
S'6984.92992992'
p1695
sba(igraph
Edge
p1696
(dp1697
g7
I1
sg8
I00
sg9
I5
sg10
(lp1698
g425
ag555
asg26
I00
sg27
I00
sg28
I4410606
sg20
S'6984.93669084'
p1699
sba(igraph
Edge
p1700
(dp1701
g7
I1
sg8
I00
sg9
I5
sg10
(lp1702
g432
ag565
asg26
I00
sg27
I00
sg28
I4410607
sg20
S'6984.94340929'
p1703
sba(igraph
Edge
p1704
(dp1705
g7
I1
sg8
I00
sg9
I5
sg10
(lp1706
g439
ag565
asg26
I00
sg27
I00
sg28
I4410608
sg20
S'6984.95039872'
p1707
sba(igraph
Edge
p1708
(dp1709
g7
I1
sg8
I00
sg9
I5
sg10
(lp1710
g446
ag579
asg26
I00
sg27
I00
sg28
I4410609
sg20
S'6984.95721914'
p1711
sba(igraph
Edge
p1712
(dp1713
g7
I1
sg8
I00
sg9
I5
sg10
(lp1714
g453
ag579
asg26
I00
sg27
I00
sg28
I4410610
sg20
S'6984.96404124'
p1715
sba(igraph
Edge
p1716
(dp1717
g7
I1
sg8
I00
sg9
I5
sg10
(lp1718
g460
ag593
asg26
I00
sg27
I00
sg28
I4410611
sg20
S'6984.97089099'
p1719
sba(igraph
Edge
p1720
(dp1721
g7
I1
sg8
I00
sg9
I5
sg10
(lp1722
g467
ag593
asg26
I00
sg27
I00
sg28
I4410612
sg20
S'6984.97772845'
p1723
sba(igraph
Edge
p1724
(dp1725
g7
I1
sg8
I00
sg9
I5
sg10
(lp1726
g474
ag607
asg26
I00
sg27
I00
sg28
I4410613
sg20
S'6984.98457402'
p1727
sba(igraph
Edge
p1728
(dp1729
g7
I1
sg8
I00
sg9
I5
sg10
(lp1730
g481
ag607
asg26
I00
sg27
I00
sg28
I4410614
sg20
S'6984.99162994'
p1731
sba(igraph
Edge
p1732
(dp1733
g7
I1
sg8
I00
sg9
I5
sg10
(lp1734
g488
ag621
asg26
I00
sg27
I00
sg28
I4410615
sg20
S'6984.99860094'
p1735
sba(igraph
Edge
p1736
(dp1737
g7
I1
sg8
I00
sg9
I5
sg10
(lp1738
g495
ag621
asg26
I00
sg27
I00
sg28
I4410616
sg20
S'6985.00595802'
p1739
sba(igraph
Edge
p1740
(dp1741
g7
I1
sg8
I00
sg9
I5
sg10
(lp1742
g502
ag635
asg26
I00
sg27
I00
sg28
I4410617
sg20
S'6985.01292064'
p1743
sba(igraph
Edge
p1744
(dp1745
g7
I1
sg8
I00
sg9
I5
sg10
(lp1746
g509
ag635
asg26
I00
sg27
I00
sg28
I4410618
sg20
S'6985.01987683'
p1747
sba(igraph
Edge
p1748
(dp1749
g7
I1
sg8
I00
sg9
I5
sg10
(lp1750
g516
ag649
asg26
I00
sg27
I00
sg28
I4410619
sg20
S'6985.02689867'
p1751
sba(igraph
Edge
p1752
(dp1753
g7
I1
sg8
I00
sg9
I5
sg10
(lp1754
g523
ag649
asg26
I00
sg27
I00
sg28
I4410620
sg20
S'6985.03385821'
p1755
sba(igraph
Edge
p1756
(dp1757
g7
I1
sg8
I00
sg9
I5
sg10
(lp1758
g530
ag663
asg26
I00
sg27
I00
sg28
I4410621
sg20
S'6985.04107366'
p1759
sba(igraph
Edge
p1760
(dp1761
g7
I1
sg8
I00
sg9
I5
sg10
(lp1762
g537
ag663
asg26
I00
sg27
I00
sg28
I4410622
sg20
S'6985.04819803'
p1763
sba(igraph
Edge
p1764
(dp1765
g7
I1
sg8
I00
sg9
I5
sg10
(lp1766
g544
ag677
asg26
I00
sg27
I00
sg28
I4410623
sg20
S'6985.05527043'
p1767
sba(igraph
Edge
p1768
(dp1769
g7
I1
sg8
I00
sg9
I5
sg10
(lp1770
g422
ag677
asg26
I00
sg27
I00
sg28
I4410624
sg20
S'6985.06231909'
p1771
sba(igraph
Edge
p1772
(dp1773
g7
I1
sg8
I00
sg9
I5
sg10
(lp1774
g425
ag558
asg26
I00
sg27
I00
sg28
I4410625
sg20
S'6985.06948676'
p1775
sba(igraph
Edge
p1776
(dp1777
g7
I1
sg8
I00
sg9
I5
sg10
(lp1778
g432
ag558
asg26
I00
sg27
I00
sg28
I4410626
sg20
S'6985.0765642'
p1779
sba(igraph
Edge
p1780
(dp1781
g7
I1
sg8
I00
sg9
I5
sg10
(lp1782
g439
ag572
asg26
I00
sg27
I00
sg28
I4410627
sg20
S'6985.08376847'
p1783
sba(igraph
Edge
p1784
(dp1785
g7
I1
sg8
I00
sg9
I5
sg10
(lp1786
g446
ag572
asg26
I00
sg27
I00
sg28
I4410628
sg20
S'6985.09100486'
p1787
sba(igraph
Edge
p1788
(dp1789
g7
I1
sg8
I00
sg9
I5
sg10
(lp1790
g453
ag586
asg26
I00
sg27
I00
sg28
I4410629
sg20
S'6985.09818734'
p1791
sba(igraph
Edge
p1792
(dp1793
g7
I1
sg8
I00
sg9
I5
sg10
(lp1794
g460
ag586
asg26
I00
sg27
I00
sg28
I4410630
sg20
S'6985.10543435'
p1795
sba(igraph
Edge
p1796
(dp1797
g7
I1
sg8
I00
sg9
I5
sg10
(lp1798
g467
ag600
asg26
I00
sg27
I00
sg28
I4410631
sg20
S'6985.11320238'
p1799
sba(igraph
Edge
p1800
(dp1801
g7
I1
sg8
I00
sg9
I5
sg10
(lp1802
g474
ag600
asg26
I00
sg27
I00
sg28
I4410632
sg20
S'6985.12047704'
p1803
sba(igraph
Edge
p1804
(dp1805
g7
I1
sg8
I00
sg9
I5
sg10
(lp1806
g481
ag614
asg26
I00
sg27
I00
sg28
I4410633
sg20
S'6985.12778719'
p1807
sba(igraph
Edge
p1808
(dp1809
g7
I1
sg8
I00
sg9
I5
sg10
(lp1810
g488
ag614
asg26
I00
sg27
I00
sg28
I4410634
sg20
S'6985.1350965'
p1811
sba(igraph
Edge
p1812
(dp1813
g7
I1
sg8
I00
sg9
I5
sg10
(lp1814
g495
ag628
asg26
I00
sg27
I00
sg28
I4410635
sg20
S'6985.14263992'
p1815
sba(igraph
Edge
p1816
(dp1817
g7
I1
sg8
I00
sg9
I5
sg10
(lp1818
g502
ag628
asg26
I00
sg27
I00
sg28
I4410636
sg20
S'6985.14998526'
p1819
sba(igraph
Edge
p1820
(dp1821
g7
I1
sg8
I00
sg9
I5
sg10
(lp1822
g509
ag642
asg26
I00
sg27
I00
sg28
I4410637
sg20
S'6985.15740017'
p1823
sba(igraph
Edge
p1824
(dp1825
g7
I1
sg8
I00
sg9
I5
sg10
(lp1826
g516
ag642
asg26
I00
sg27
I00
sg28
I4410638
sg20
S'6985.16481005'
p1827
sba(igraph
Edge
p1828
(dp1829
g7
I1
sg8
I00
sg9
I5
sg10
(lp1830
g523
ag656
asg26
I00
sg27
I00
sg28
I4410639
sg20
S'6985.17229452'
p1831
sba(igraph
Edge
p1832
(dp1833
g7
I1
sg8
I00
sg9
I5
sg10
(lp1834
g530
ag656
asg26
I00
sg27
I00
sg28
I4410640
sg20
S'6985.17978151'
p1835
sba(igraph
Edge
p1836
(dp1837
g7
I1
sg8
I00
sg9
I5
sg10
(lp1838
g537
ag670
asg26
I00
sg27
I00
sg28
I4410641
sg20
S'6985.18723497'
p1839
sba(igraph
Edge
p1840
(dp1841
g7
I1
sg8
I00
sg9
I5
sg10
(lp1842
g544
ag670
asg26
I00
sg27
I00
sg28
I4410642
sg20
S'6985.19469486'
p1843
sba(igraph
Edge
p1844
(dp1845
g7
I1
sg8
I00
sg9
I5
sg10
(lp1846
g555
ag688
asg26
I00
sg27
I00
sg28
I4410643
sg20
S'6985.20231175'
p1847
sba(igraph
Edge
p1848
(dp1849
g7
I1
sg8
I00
sg9
I5
sg10
(lp1850
g558
ag688
asg26
I00
sg27
I00
sg28
I4410644
sg20
S'6985.20999764'
p1851
sba(igraph
Edge
p1852
(dp1853
g7
I1
sg8
I00
sg9
I5
sg10
(lp1854
g565
ag698
asg26
I00
sg27
I00
sg28
I4410645
sg20
S'6985.21763073'
p1855
sba(igraph
Edge
p1856
(dp1857
g7
I1
sg8
I00
sg9
I5
sg10
(lp1858
g572
ag698
asg26
I00
sg27
I00
sg28
I4410646
sg20
S'6985.22576892'
p1859
sba(igraph
Edge
p1860
(dp1861
g7
I1
sg8
I00
sg9
I5
sg10
(lp1862
g579
ag712
asg26
I00
sg27
I00
sg28
I4410647
sg20
S'6985.2335118'
p1863
sba(igraph
Edge
p1864
(dp1865
g7
I1
sg8
I00
sg9
I5
sg10
(lp1866
g586
ag712
asg26
I00
sg27
I00
sg28
I4410648
sg20
S'6985.24120719'
p1867
sba(igraph
Edge
p1868
(dp1869
g7
I1
sg8
I00
sg9
I5
sg10
(lp1870
g593
ag726
asg26
I00
sg27
I00
sg28
I4410649
sg20
S'6985.24884671'
p1871
sba(igraph
Edge
p1872
(dp1873
g7
I1
sg8
I00
sg9
I5
sg10
(lp1874
g600
ag726
asg26
I00
sg27
I00
sg28
I4410650
sg20
S'6985.25666949'
p1875
sba(igraph
Edge
p1876
(dp1877
g7
I1
sg8
I00
sg9
I5
sg10
(lp1878
g607
ag740
asg26
I00
sg27
I00
sg28
I4410651
sg20
S'6985.26438109'
p1879
sba(igraph
Edge
p1880
(dp1881
g7
I1
sg8
I00
sg9
I5
sg10
(lp1882
g614
ag740
asg26
I00
sg27
I00
sg28
I4410652
sg20
S'6985.27249357'
p1883
sba(igraph
Edge
p1884
(dp1885
g7
I1
sg8
I00
sg9
I5
sg10
(lp1886
g621
ag754
asg26
I00
sg27
I00
sg28
I4410653
sg20
S'6985.28022528'
p1887
sba(igraph
Edge
p1888
(dp1889
g7
I1
sg8
I00
sg9
I5
sg10
(lp1890
g628
ag754
asg26
I00
sg27
I00
sg28
I4410654
sg20
S'6985.28817238'
p1891
sba(igraph
Edge
p1892
(dp1893
g7
I1
sg8
I00
sg9
I5
sg10
(lp1894
g635
ag768
asg26
I00
sg27
I00
sg28
I4410655
sg20
S'6985.2960759'
p1895
sba(igraph
Edge
p1896
(dp1897
g7
I1
sg8
I00
sg9
I5
sg10
(lp1898
g642
ag768
asg26
I00
sg27
I00
sg28
I4410656
sg20
S'6985.30407133'
p1899
sba(igraph
Edge
p1900
(dp1901
g7
I1
sg8
I00
sg9
I5
sg10
(lp1902
g649
ag782
asg26
I00
sg27
I00
sg28
I4410657
sg20
S'6985.31195333'
p1903
sba(igraph
Edge
p1904
(dp1905
g7
I1
sg8
I00
sg9
I5
sg10
(lp1906
g656
ag782
asg26
I00
sg27
I00
sg28
I4410658
sg20
S'6985.3198725'
p1907
sba(igraph
Edge
p1908
(dp1909
g7
I1
sg8
I00
sg9
I5
sg10
(lp1910
g663
ag796
asg26
I00
sg27
I00
sg28
I4410659
sg20
S'6985.32779669'
p1911
sba(igraph
Edge
p1912
(dp1913
g7
I1
sg8
I00
sg9
I5
sg10
(lp1914
g670
ag796
asg26
I00
sg27
I00
sg28
I4410660
sg20
S'6985.33577256'
p1915
sba(igraph
Edge
p1916
(dp1917
g7
I1
sg8
I00
sg9
I5
sg10
(lp1918
g677
ag810
asg26
I00
sg27
I00
sg28
I4410661
sg20
S'6985.34369005'
p1919
sba(igraph
Edge
p1920
(dp1921
g7
I1
sg8
I00
sg9
I5
sg10
(lp1922
g555
ag810
asg26
I00
sg27
I00
sg28
I4410662
sg20
S'6985.35166537'
p1923
sba(igraph
Edge
p1924
(dp1925
g7
I1
sg8
I00
sg9
I5
sg10
(lp1926
g558
ag691
asg26
I00
sg27
I00
sg28
I4410663
sg20
S'6985.35971946'
p1927
sba(igraph
Edge
p1928
(dp1929
g7
I1
sg8
I00
sg9
I5
sg10
(lp1930
g565
ag691
asg26
I00
sg27
I00
sg28
I4410664
sg20
S'6985.36782636'
p1931
sba(igraph
Edge
p1932
(dp1933
g7
I1
sg8
I00
sg9
I5
sg10
(lp1934
g572
ag705
asg26
I00
sg27
I00
sg28
I4410665
sg20
S'6985.37586313'
p1935
sba(igraph
Edge
p1936
(dp1937
g7
I1
sg8
I00
sg9
I5
sg10
(lp1938
g579
ag705
asg26
I00
sg27
I00
sg28
I4410666
sg20
S'6985.3838879'
p1939
sba(igraph
Edge
p1940
(dp1941
g7
I1
sg8
I00
sg9
I5
sg10
(lp1942
g586
ag719
asg26
I00
sg27
I00
sg28
I4410667
sg20
S'6985.39199423'
p1943
sba(igraph
Edge
p1944
(dp1945
g7
I1
sg8
I00
sg9
I5
sg10
(lp1946
g593
ag719
asg26
I00
sg27
I00
sg28
I4410668
sg20
S'6985.40005867'
p1947
sba(igraph
Edge
p1948
(dp1949
g7
I1
sg8
I00
sg9
I5
sg10
(lp1950
g600
ag733
asg26
I00
sg27
I00
sg28
I4410669
sg20
S'6985.40816305'
p1951
sba(igraph
Edge
p1952
(dp1953
g7
I1
sg8
I00
sg9
I5
sg10
(lp1954
g607
ag733
asg26
I00
sg27
I00
sg28
I4410670
sg20
S'6985.41630375'
p1955
sba(igraph
Edge
p1956
(dp1957
g7
I1
sg8
I00
sg9
I5
sg10
(lp1958
g614
ag747
asg26
I00
sg27
I00
sg28
I4410671
sg20
S'6985.42446009'
p1959
sba(igraph
Edge
p1960
(dp1961
g7
I1
sg8
I00
sg9
I5
sg10
(lp1962
g621
ag747
asg26
I00
sg27
I00
sg28
I4410672
sg20
S'6985.43272455'
p1963
sba(igraph
Edge
p1964
(dp1965
g7
I1
sg8
I00
sg9
I5
sg10
(lp1966
g628
ag761
asg26
I00
sg27
I00
sg28
I4410673
sg20
S'6985.44110187'
p1967
sba(igraph
Edge
p1968
(dp1969
g7
I1
sg8
I00
sg9
I5
sg10
(lp1970
g635
ag761
asg26
I00
sg27
I00
sg28
I4410674
sg20
S'6985.44931884'
p1971
sba(igraph
Edge
p1972
(dp1973
g7
I1
sg8
I00
sg9
I5
sg10
(lp1974
g642
ag775
asg26
I00
sg27
I00
sg28
I4410675
sg20
S'6985.45758302'
p1975
sba(igraph
Edge
p1976
(dp1977
g7
I1
sg8
I00
sg9
I5
sg10
(lp1978
g649
ag775
asg26
I00
sg27
I00
sg28
I4410676
sg20
S'6985.46577819'
p1979
sba(igraph
Edge
p1980
(dp1981
g7
I1
sg8
I00
sg9
I5
sg10
(lp1982
g656
ag789
asg26
I00
sg27
I00
sg28
I4410677
sg20
S'6985.47395465'
p1983
sba(igraph
Edge
p1984
(dp1985
g7
I1
sg8
I00
sg9
I5
sg10
(lp1986
g663
ag789
asg26
I00
sg27
I00
sg28
I4410678
sg20
S'6985.48219648'
p1987
sba(igraph
Edge
p1988
(dp1989
g7
I1
sg8
I00
sg9
I5
sg10
(lp1990
g670
ag803
asg26
I00
sg27
I00
sg28
I4410679
sg20
S'6985.49064057'
p1991
sba(igraph
Edge
p1992
(dp1993
g7
I1
sg8
I00
sg9
I5
sg10
(lp1994
g677
ag803
asg26
I00
sg27
I00
sg28
I4410680
sg20
S'6985.49895643'
p1995
sba(igraph
Edge
p1996
(dp1997
g7
I1
sg8
I00
sg9
I5
sg10
(lp1998
g688
ag821
asg26
I00
sg27
I00
sg28
I4410681
sg20
S'6985.50749076'
p1999
sba(igraph
Edge
p2000
(dp2001
g7
I1
sg8
I00
sg9
I5
sg10
(lp2002
g691
ag821
asg26
I00
sg27
I00
sg28
I4410682
sg20
S'6985.51586165'
p2003
sba(igraph
Edge
p2004
(dp2005
g7
I1
sg8
I00
sg9
I5
sg10
(lp2006
g698
ag831
asg26
I00
sg27
I00
sg28
I4410683
sg20
S'6985.52437363'
p2007
sba(igraph
Edge
p2008
(dp2009
g7
I1
sg8
I00
sg9
I5
sg10
(lp2010
g705
ag831
asg26
I00
sg27
I00
sg28
I4410684
sg20
S'6985.53279369'
p2011
sba(igraph
Edge
p2012
(dp2013
g7
I1
sg8
I00
sg9
I5
sg10
(lp2014
g712
ag845
asg26
I00
sg27
I00
sg28
I4410685
sg20
S'6985.54123555'
p2015
sba(igraph
Edge
p2016
(dp2017
g7
I1
sg8
I00
sg9
I5
sg10
(lp2018
g719
ag845
asg26
I00
sg27
I00
sg28
I4410686
sg20
S'6985.54981988'
p2019
sba(igraph
Edge
p2020
(dp2021
g7
I1
sg8
I00
sg9
I5
sg10
(lp2022
g726
ag859
asg26
I00
sg27
I00
sg28
I4410687
sg20
S'6985.55851847'
p2023
sba(igraph
Edge
p2024
(dp2025
g7
I1
sg8
I00
sg9
I5
sg10
(lp2026
g733
ag859
asg26
I00
sg27
I00
sg28
I4410688
sg20
S'6985.56701815'
p2027
sba(igraph
Edge
p2028
(dp2029
g7
I1
sg8
I00
sg9
I5
sg10
(lp2030
g740
ag873
asg26
I00
sg27
I00
sg28
I4410689
sg20
S'6985.57553656'
p2031
sba(igraph
Edge
p2032
(dp2033
g7
I1
sg8
I00
sg9
I5
sg10
(lp2034
g747
ag873
asg26
I00
sg27
I00
sg28
I4410690
sg20
S'6985.58409379'
p2035
sba(igraph
Edge
p2036
(dp2037
g7
I1
sg8
I00
sg9
I5
sg10
(lp2038
g754
ag887
asg26
I00
sg27
I00
sg28
I4410691
sg20
S'6985.59263845'
p2039
sba(igraph
Edge
p2040
(dp2041
g7
I1
sg8
I00
sg9
I5
sg10
(lp2042
g761
ag887
asg26
I00
sg27
I00
sg28
I4410692
sg20
S'6985.601389'
p2043
sba(igraph
Edge
p2044
(dp2045
g7
I1
sg8
I00
sg9
I5
sg10
(lp2046
g768
ag901
asg26
I00
sg27
I00
sg28
I4410693
sg20
S'6985.6100686'
p2047
sba(igraph
Edge
p2048
(dp2049
g7
I1
sg8
I00
sg9
I5
sg10
(lp2050
g775
ag901
asg26
I00
sg27
I00
sg28
I4410694
sg20
S'6985.61916054'
p2051
sba(igraph
Edge
p2052
(dp2053
g7
I1
sg8
I00
sg9
I5
sg10
(lp2054
g782
ag915
asg26
I00
sg27
I00
sg28
I4410695
sg20
S'6985.62792143'
p2055
sba(igraph
Edge
p2056
(dp2057
g7
I1
sg8
I00
sg9
I5
sg10
(lp2058
g789
ag915
asg26
I00
sg27
I00
sg28
I4410696
sg20
S'6985.63694967'
p2059
sba(igraph
Edge
p2060
(dp2061
g7
I1
sg8
I00
sg9
I5
sg10
(lp2062
g796
ag929
asg26
I00
sg27
I00
sg28
I4410697
sg20
S'6985.64626147'
p2063
sba(igraph
Edge
p2064
(dp2065
g7
I1
sg8
I00
sg9
I5
sg10
(lp2066
g803
ag929
asg26
I00
sg27
I00
sg28
I4410698
sg20
S'6985.65495866'
p2067
sba(igraph
Edge
p2068
(dp2069
g7
I1
sg8
I00
sg9
I5
sg10
(lp2070
g810
ag943
asg26
I00
sg27
I00
sg28
I4410699
sg20
S'6985.66389304'
p2071
sba(igraph
Edge
p2072
(dp2073
g7
I1
sg8
I00
sg9
I5
sg10
(lp2074
g688
ag943
asg26
I00
sg27
I00
sg28
I4410700
sg20
S'6985.67262264'
p2075
sba(igraph
Edge
p2076
(dp2077
g7
I1
sg8
I00
sg9
I5
sg10
(lp2078
g691
ag824
asg26
I00
sg27
I00
sg28
I4410701
sg20
S'6985.68145532'
p2079
sba(igraph
Edge
p2080
(dp2081
g7
I1
sg8
I00
sg9
I5
sg10
(lp2082
g698
ag824
asg26
I00
sg27
I00
sg28
I4410702
sg20
S'6985.69028382'
p2083
sba(igraph
Edge
p2084
(dp2085
g7
I1
sg8
I00
sg9
I5
sg10
(lp2086
g705
ag838
asg26
I00
sg27
I00
sg28
I4410703
sg20
S'6985.69922378'
p2087
sba(igraph
Edge
p2088
(dp2089
g7
I1
sg8
I00
sg9
I5
sg10
(lp2090
g712
ag838
asg26
I00
sg27
I00
sg28
I4410704
sg20
S'6985.70821627'
p2091
sba(igraph
Edge
p2092
(dp2093
g7
I1
sg8
I00
sg9
I5
sg10
(lp2094
g719
ag852
asg26
I00
sg27
I00
sg28
I4410705
sg20
S'6985.71758841'
p2095
sba(igraph
Edge
p2096
(dp2097
g7
I1
sg8
I00
sg9
I5
sg10
(lp2098
g726
ag852
asg26
I00
sg27
I00
sg28
I4410706
sg20
S'6985.72654793'
p2099
sba(igraph
Edge
p2100
(dp2101
g7
I1
sg8
I00
sg9
I5
sg10
(lp2102
g733
ag866
asg26
I00
sg27
I00
sg28
I4410707
sg20
S'6985.73562143'
p2103
sba(igraph
Edge
p2104
(dp2105
g7
I1
sg8
I00
sg9
I5
sg10
(lp2106
g740
ag866
asg26
I00
sg27
I00
sg28
I4410708
sg20
S'6985.74462648'
p2107
sba(igraph
Edge
p2108
(dp2109
g7
I1
sg8
I00
sg9
I5
sg10
(lp2110
g747
ag880
asg26
I00
sg27
I00
sg28
I4410709
sg20
S'6985.75360919'
p2111
sba(igraph
Edge
p2112
(dp2113
g7
I1
sg8
I00
sg9
I5
sg10
(lp2114
g754
ag880
asg26
I00
sg27
I00
sg28
I4410710
sg20
S'6985.76256088'
p2115
sba(igraph
Edge
p2116
(dp2117
g7
I1
sg8
I00
sg9
I5
sg10
(lp2118
g761
ag894
asg26
I00
sg27
I00
sg28
I4410711
sg20
S'6985.77198499'
p2119
sba(igraph
Edge
p2120
(dp2121
g7
I1
sg8
I00
sg9
I5
sg10
(lp2122
g768
ag894
asg26
I00
sg27
I00
sg28
I4410712
sg20
S'6985.78106296'
p2123
sba(igraph
Edge
p2124
(dp2125
g7
I1
sg8
I00
sg9
I5
sg10
(lp2126
g775
ag908
asg26
I00
sg27
I00
sg28
I4410713
sg20
S'6985.79018339'
p2127
sba(igraph
Edge
p2128
(dp2129
g7
I1
sg8
I00
sg9
I5
sg10
(lp2130
g782
ag908
asg26
I00
sg27
I00
sg28
I4410714
sg20
S'6985.79928678'
p2131
sba(igraph
Edge
p2132
(dp2133
g7
I1
sg8
I00
sg9
I5
sg10
(lp2134
g789
ag922
asg26
I00
sg27
I00
sg28
I4410715
sg20
S'6985.80856785'
p2135
sba(igraph
Edge
p2136
(dp2137
g7
I1
sg8
I00
sg9
I5
sg10
(lp2138
g796
ag922
asg26
I00
sg27
I00
sg28
I4410716
sg20
S'6985.81778997'
p2139
sba(igraph
Edge
p2140
(dp2141
g7
I1
sg8
I00
sg9
I5
sg10
(lp2142
g803
ag936
asg26
I00
sg27
I00
sg28
I4410717
sg20
S'6985.82690118'
p2143
sba(igraph
Edge
p2144
(dp2145
g7
I1
sg8
I00
sg9
I5
sg10
(lp2146
g810
ag936
asg26
I00
sg27
I00
sg28
I4410718
sg20
S'6985.83635211'
p2147
sba(igraph
Edge
p2148
(dp2149
g7
I1
sg8
I00
sg9
I5
sg10
(lp2150
g821
ag954
asg26
I00
sg27
I00
sg28
I4410719
sg20
S'6985.84571447'
p2151
sba(igraph
Edge
p2152
(dp2153
g7
I1
sg8
I00
sg9
I5
sg10
(lp2154
g824
ag954
asg26
I00
sg27
I00
sg28
I4410720
sg20
S'6985.8549662'
p2155
sba(igraph
Edge
p2156
(dp2157
g7
I1
sg8
I00
sg9
I5
sg10
(lp2158
g831
ag964
asg26
I00
sg27
I00
sg28
I4410721
sg20
S'6985.86418609'
p2159
sba(igraph
Edge
p2160
(dp2161
g7
I1
sg8
I00
sg9
I5
sg10
(lp2162
g838
ag964
asg26
I00
sg27
I00
sg28
I4410722
sg20
S'6985.87347694'
p2163
sba(igraph
Edge
p2164
(dp2165
g7
I1
sg8
I00
sg9
I5
sg10
(lp2166
g845
ag978
asg26
I00
sg27
I00
sg28
I4410723
sg20
S'6985.88286081'
p2167
sba(igraph
Edge
p2168
(dp2169
g7
I1
sg8
I00
sg9
I5
sg10
(lp2170
g852
ag978
asg26
I00
sg27
I00
sg28
I4410724
sg20
S'6985.89212512'
p2171
sba(igraph
Edge
p2172
(dp2173
g7
I1
sg8
I00
sg9
I5
sg10
(lp2174
g859
ag992
asg26
I00
sg27
I00
sg28
I4410725
sg20
S'6985.90167689'
p2175
sba(igraph
Edge
p2176
(dp2177
g7
I1
sg8
I00
sg9
I5
sg10
(lp2178
g866
ag992
asg26
I00
sg27
I00
sg28
I4410726
sg20
S'6985.9110954'
p2179
sba(igraph
Edge
p2180
(dp2181
g7
I1
sg8
I00
sg9
I5
sg10
(lp2182
g873
ag1006
asg26
I00
sg27
I00
sg28
I4410727
sg20
S'6985.92049353'
p2183
sba(igraph
Edge
p2184
(dp2185
g7
I1
sg8
I00
sg9
I5
sg10
(lp2186
g880
ag1006
asg26
I00
sg27
I00
sg28
I4410728
sg20
S'6985.93302752'
p2187
sba(igraph
Edge
p2188
(dp2189
g7
I1
sg8
I00
sg9
I5
sg10
(lp2190
g887
ag1020
asg26
I00
sg27
I00
sg28
I4410729
sg20
S'6985.94367524'
p2191
sba(igraph
Edge
p2192
(dp2193
g7
I1
sg8
I00
sg9
I5
sg10
(lp2194
g894
ag1020
asg26
I00
sg27
I00
sg28
I4410730
sg20
S'6985.95349493'
p2195
sba(igraph
Edge
p2196
(dp2197
g7
I1
sg8
I00
sg9
I5
sg10
(lp2198
g901
ag1034
asg26
I00
sg27
I00
sg28
I4410731
sg20
S'6985.9629425'
p2199
sba(igraph
Edge
p2200
(dp2201
g7
I1
sg8
I00
sg9
I5
sg10
(lp2202
g908
ag1034
asg26
I00
sg27
I00
sg28
I4410732
sg20
S'6985.972789'
p2203
sba(igraph
Edge
p2204
(dp2205
g7
I1
sg8
I00
sg9
I5
sg10
(lp2206
g915
ag1048
asg26
I00
sg27
I00
sg28
I4410733
sg20
S'6985.98239692'
p2207
sba(igraph
Edge
p2208
(dp2209
g7
I1
sg8
I00
sg9
I5
sg10
(lp2210
g922
ag1048
asg26
I00
sg27
I00
sg28
I4410734
sg20
S'6985.99197887'
p2211
sba(igraph
Edge
p2212
(dp2213
g7
I1
sg8
I00
sg9
I5
sg10
(lp2214
g929
ag1062
asg26
I00
sg27
I00
sg28
I4410735
sg20
S'6986.00162618'
p2215
sba(igraph
Edge
p2216
(dp2217
g7
I1
sg8
I00
sg9
I5
sg10
(lp2218
g936
ag1062
asg26
I00
sg27
I00
sg28
I4410736
sg20
S'6986.01121707'
p2219
sba(igraph
Edge
p2220
(dp2221
g7
I1
sg8
I00
sg9
I5
sg10
(lp2222
g943
ag1076
asg26
I00
sg27
I00
sg28
I4410737
sg20
S'6986.02090964'
p2223
sba(igraph
Edge
p2224
(dp2225
g7
I1
sg8
I00
sg9
I5
sg10
(lp2226
g821
ag1076
asg26
I00
sg27
I00
sg28
I4410738
sg20
S'6986.03086398'
p2227
sba(igraph
Edge
p2228
(dp2229
g7
I1
sg8
I00
sg9
I5
sg10
(lp2230
g824
ag957
asg26
I00
sg27
I00
sg28
I4410739
sg20
S'6986.04061214'
p2231
sba(igraph
Edge
p2232
(dp2233
g7
I1
sg8
I00
sg9
I5
sg10
(lp2234
g831
ag957
asg26
I00
sg27
I00
sg28
I4410740
sg20
S'6986.0503564'
p2235
sba(igraph
Edge
p2236
(dp2237
g7
I1
sg8
I00
sg9
I5
sg10
(lp2238
g838
ag971
asg26
I00
sg27
I00
sg28
I4410741
sg20
S'6986.06003584'
p2239
sba(igraph
Edge
p2240
(dp2241
g7
I1
sg8
I00
sg9
I5
sg10
(lp2242
g845
ag971
asg26
I00
sg27
I00
sg28
I4410742
sg20
S'6986.06981167'
p2243
sba(igraph
Edge
p2244
(dp2245
g7
I1
sg8
I00
sg9
I5
sg10
(lp2246
g852
ag985
asg26
I00
sg27
I00
sg28
I4410743
sg20
S'6986.0795386'
p2247
sba(igraph
Edge
p2248
(dp2249
g7
I1
sg8
I00
sg9
I5
sg10
(lp2250
g859
ag985
asg26
I00
sg27
I00
sg28
I4410744
sg20
S'6986.08935521'
p2251
sba(igraph
Edge
p2252
(dp2253
g7
I1
sg8
I00
sg9
I5
sg10
(lp2254
g866
ag999
asg26
I00
sg27
I00
sg28
I4410745
sg20
S'6986.09939112'
p2255
sba(igraph
Edge
p2256
(dp2257
g7
I1
sg8
I00
sg9
I5
sg10
(lp2258
g873
ag999
asg26
I00
sg27
I00
sg28
I4410746
sg20
S'6986.10924349'
p2259
sba(igraph
Edge
p2260
(dp2261
g7
I1
sg8
I00
sg9
I5
sg10
(lp2262
g880
ag1013
asg26
I00
sg27
I00
sg28
I4410747
sg20
S'6986.1191576'
p2263
sba(igraph
Edge
p2264
(dp2265
g7
I1
sg8
I00
sg9
I5
sg10
(lp2266
g887
ag1013
asg26
I00
sg27
I00
sg28
I4410748
sg20
S'6986.12956144'
p2267
sba(igraph
Edge
p2268
(dp2269
g7
I1
sg8
I00
sg9
I5
sg10
(lp2270
g894
ag1027
asg26
I00
sg27
I00
sg28
I4410749
sg20
S'6986.13945264'
p2271
sba(igraph
Edge
p2272
(dp2273
g7
I1
sg8
I00
sg9
I5
sg10
(lp2274
g901
ag1027
asg26
I00
sg27
I00
sg28
I4410750
sg20
S'6986.14932429'
p2275
sba(igraph
Edge
p2276
(dp2277
g7
I1
sg8
I00
sg9
I5
sg10
(lp2278
g908
ag1041
asg26
I00
sg27
I00
sg28
I4410751
sg20
S'6986.15905485'
p2279
sba(igraph
Edge
p2280
(dp2281
g7
I1
sg8
I00
sg9
I5
sg10
(lp2282
g915
ag1041
asg26
I00
sg27
I00
sg28
I4410752
sg20
S'6986.16895024'
p2283
sba(igraph
Edge
p2284
(dp2285
g7
I1
sg8
I00
sg9
I5
sg10
(lp2286
g922
ag1055
asg26
I00
sg27
I00
sg28
I4410753
sg20
S'6986.17891464'
p2287
sba(igraph
Edge
p2288
(dp2289
g7
I1
sg8
I00
sg9
I5
sg10
(lp2290
g929
ag1055
asg26
I00
sg27
I00
sg28
I4410754
sg20
S'6986.18875779'
p2291
sba(igraph
Edge
p2292
(dp2293
g7
I1
sg8
I00
sg9
I5
sg10
(lp2294
g936
ag1069
asg26
I00
sg27
I00
sg28
I4410755
sg20
S'6986.19878588'
p2295
sba(igraph
Edge
p2296
(dp2297
g7
I1
sg8
I00
sg9
I5
sg10
(lp2298
g943
ag1069
asg26
I00
sg27
I00
sg28
I4410756
sg20
S'6986.20904109'
p2299
sbasS'vertices'
p2300
(lp2301
g12
ag23
ag33
ag40
ag47
ag54
ag61
ag68
ag75
ag82
ag89
ag96
ag103
ag110
ag117
ag124
ag131
ag138
ag145
ag156
ag159
ag166
ag173
ag180
ag187
ag194
ag201
ag208
ag215
ag222
ag229
ag236
ag243
ag250
ag257
ag264
ag271
ag278
ag289
ag292
ag299
ag306
ag313
ag320
ag327
ag334
ag341
ag348
ag355
ag362
ag369
ag376
ag383
ag390
ag397
ag404
ag411
ag422
ag425
ag432
ag439
ag446
ag453
ag460
ag467
ag474
ag481
ag488
ag495
ag502
ag509
ag516
ag523
ag530
ag537
ag544
ag555
ag558
ag565
ag572
ag579
ag586
ag593
ag600
ag607
ag614
ag621
ag628
ag635
ag642
ag649
ag656
ag663
ag670
ag677
ag688
ag691
ag698
ag705
ag712
ag719
ag726
ag733
ag740
ag747
ag754
ag761
ag768
ag775
ag782
ag789
ag796
ag803
ag810
ag821
ag824
ag831
ag838
ag845
ag852
ag859
ag866
ag873
ag880
ag887
ag894
ag901
ag908
ag915
ag922
ag929
ag936
ag943
ag954
ag957
ag964
ag971
ag978
ag985
ag992
ag999
ag1006
ag1013
ag1020
ag1027
ag1034
ag1041
ag1048
ag1055
ag1062
ag1069
ag1076
asS'tags'
p2302
(lp2303
sb.