(igraph
Graph
p0
(dp1
S'labelingConstraints'
p2
I-1
sS'edges'
p3
(lp4
(igraph
Edge
p5
(dp6
S'direction'
p7
I1
sS'selected'
p8
I00
sS'height'
p9
I5
sS'vs'
p10
(lp11
(igraph
Vertex
p12
(dp13
S'xnorm'
p14
F0.0
sg8
I00
sS'label'
p15
S'NULL'
p16
sS'y'
p17
F-325.0
sS'x'
p18
F-475.0
sS'circle'
p19
I4285700
sS'id'
p20
S'6668.71764903'
p21
sS'ynorm'
p22
F0.0
sba(igraph
Vertex
p23
(dp24
g14
F0.055555555555555559
sg8
I00
sg15
g16
sg17
F-325.0
sg18
F-423.61111111111109
sg19
I4285701
sg20
S'6668.71768954'
p25
sg22
F0.0
sbasS'wrap'
p26
I00
sS'curved'
p27
I00
sS'line'
p28
I4285186
sg20
S'6668.8529869'
p29
sba(igraph
Edge
p30
(dp31
g7
I1
sg8
I00
sg9
I5
sg10
(lp32
g23
a(igraph
Vertex
p33
(dp34
g14
F0.1111111111111111
sg8
I00
sg15
g16
sg17
F-325.0
sg18
F-372.22222222222223
sg19
I4285702
sg20
S'6668.71773535'
p35
sg22
F0.0
sbasg26
I00
sg27
I00
sg28
I4285187
sg20
S'6668.85304613'
p36
sba(igraph
Edge
p37
(dp38
g7
I1
sg8
I00
sg9
I5
sg10
(lp39
g33
a(igraph
Vertex
p40
(dp41
g14
F0.1666666666666666
sg8
I00
sg15
g16
sg17
F-325.0
sg18
F-320.83333333333337
sg19
I4285703
sg20
S'6668.71779039'
p42
sg22
F0.0
sbasg26
I00
sg27
I00
sg28
I4285188
sg20
S'6668.85312575'
p43
sba(igraph
Edge
p44
(dp45
g7
I1
sg8
I00
sg9
I5
sg10
(lp46
g40
a(igraph
Vertex
p47
(dp48
g14
F0.22222222222222215
sg8
I00
sg15
g16
sg17
F-325.0
sg18
F-269.44444444444451
sg19
I4285704
sg20
S'6668.71786051'
p49
sg22
F0.0
sbasg26
I00
sg27
I00
sg28
I4285189
sg20
S'6668.85322576'
p50
sba(igraph
Edge
p51
(dp52
g7
I1
sg8
I00
sg9
I5
sg10
(lp53
g47
a(igraph
Vertex
p54
(dp55
g14
F0.27777777777777768
sg8
I00
sg15
g16
sg17
F-325.0
sg18
F-218.05555555555566
sg19
I4285705
sg20
S'6668.71794432'
p56
sg22
F0.0
sbasg26
I00
sg27
I00
sg28
I4285190
sg20
S'6668.853347'
p57
sba(igraph
Edge
p58
(dp59
g7
I1
sg8
I00
sg9
I5
sg10
(lp60
g54
a(igraph
Vertex
p61
(dp62
g14
F0.33333333333333326
sg8
I00
sg15
g16
sg17
F-325.0
sg18
F-166.66666666666674
sg19
I4285706
sg20
S'6668.71804461'
p63
sg22
F0.0
sbasg26
I00
sg27
I00
sg28
I4285191
sg20
S'6668.85349088'
p64
sba(igraph
Edge
p65
(dp66
g7
I1
sg8
I00
sg9
I5
sg10
(lp67
g61
a(igraph
Vertex
p68
(dp69
g14
F0.38888888888888884
sg8
I00
sg15
g16
sg17
F-325.0
sg18
F-115.27777777777783
sg19
I4285707
sg20
S'6668.71815971'
p70
sg22
F0.0
sbasg26
I00
sg27
I00
sg28
I4285192
sg20
S'6668.85365598'
p71
sba(igraph
Edge
p72
(dp73
g7
I1
sg8
I00
sg9
I5
sg10
(lp74
g68
a(igraph
Vertex
p75
(dp76
g14
F0.44444444444444436
sg8
I00
sg15
g16
sg17
F-325.0
sg18
F-63.888888888888971
sg19
I4285708
sg20
S'6668.7182885'
p77
sg22
F0.0
sbasg26
I00
sg27
I00
sg28
I4285193
sg20
S'6668.85384316'
p78
sba(igraph
Edge
p79
(dp80
g7
I1
sg8
I00
sg9
I5
sg10
(lp81
g75
a(igraph
Vertex
p82
(dp83
g14
F0.5
sg8
I00
sg15
g16
sg17
F-325.0
sg18
F-12.5
sg19
I4285709
sg20
S'6668.7185782'
p84
sg22
F0.0
sbasg26
I00
sg27
I00
sg28
I4285194
sg20
S'6668.85405184'
p85
sba(igraph
Edge
p86
(dp87
g7
I1
sg8
I00
sg9
I5
sg10
(lp88
g82
a(igraph
Vertex
p89
(dp90
g14
F0.55555555555555558
sg8
I00
sg15
g16
sg17
F-325.0
sg18
F38.888888888888914
sg19
I4285710
sg20
S'6668.71874163'
p91
sg22
F0.0
sbasg26
I00
sg27
I00
sg28
I4285195
sg20
S'6668.85428371'
p92
sba(igraph
Edge
p93
(dp94
g7
I1
sg8
I00
sg9
I5
sg10
(lp95
g89
a(igraph
Vertex
p96
(dp97
g14
F0.61111111111111116
sg8
I00
sg15
g16
sg17
F-325.0
sg18
F90.277777777777828
sg19
I4285711
sg20
S'6668.71891819'
p98
sg22
F0.0
sbasg26
I00
sg27
I00
sg28
I4285196
sg20
S'6668.85453598'
p99
sba(igraph
Edge
p100
(dp101
g7
I1
sg8
I00
sg9
I5
sg10
(lp102
g96
a(igraph
Vertex
p103
(dp104
g14
F0.66666666666666663
sg8
I00
sg15
g16
sg17
F-325.0
sg18
F141.66666666666663
sg19
I4285712
sg20
S'6668.71911095'
p105
sg22
F0.0
sbasg26
I00
sg27
I00
sg28
I4285197
sg20
S'6668.85481116'
p106
sba(igraph
Edge
p107
(dp108
g7
I1
sg8
I00
sg9
I5
sg10
(lp109
g103
a(igraph
Vertex
p110
(dp111
g14
F0.7222222222222221
sg8
I00
sg15
g16
sg17
F-325.0
sg18
F193.05555555555543
sg19
I4285713
sg20
S'6668.71931656'
p112
sg22
F0.0
sbasg26
I00
sg27
I00
sg28
I4285198
sg20
S'6668.85516623'
p113
sba(igraph
Edge
p114
(dp115
g7
I1
sg8
I00
sg9
I5
sg10
(lp116
g110
a(igraph
Vertex
p117
(dp118
g14
F0.77777777777777768
sg8
I00
sg15
g16
sg17
F-325.0
sg18
F244.44444444444434
sg19
I4285714
sg20
S'6668.7195367'
p119
sg22
F0.0
sbasg26
I00
sg27
I00
sg28
I4285199
sg20
S'6668.85549476'
p120
sba(igraph
Edge
p121
(dp122
g7
I1
sg8
I00
sg9
I5
sg10
(lp123
g117
a(igraph
Vertex
p124
(dp125
g14
F0.83333333333333337
sg8
I00
sg15
g16
sg17
F-325.0
sg18
F295.83333333333337
sg19
I4285715
sg20
S'6668.71977137'
p126
sg22
F0.0
sbasg26
I00
sg27
I00
sg28
I4285200
sg20
S'6668.85596661'
p127
sba(igraph
Edge
p128
(dp129
g7
I1
sg8
I00
sg9
I5
sg10
(lp130
g124
a(igraph
Vertex
p131
(dp132
g14
F0.88888888888888873
sg8
I01
sg15
I0
sg17
F-325.0
sg18
F347.22222222222206
sg19
I4285717
sg20
S'6668.72002252'
p133
sg22
F0.0
sbasg26
I00
sg27
I00
sg28
I4285201
sg20
S'6668.8563404'
p134
sba(igraph
Edge
p135
(dp136
g7
I1
sg8
I00
sg9
I5
sg10
(lp137
g131
a(igraph
Vertex
p138
(dp139
g14
F0.94444444444444442
sg8
I00
sg15
g16
sg17
F-325.0
sg18
F398.61111111111109
sg19
I4285719
sg20
S'6668.72034714'
p140
sg22
F0.0
sbasg26
I00
sg27
I00
sg28
I4285202
sg20
S'6668.85672984'
p141
sba(igraph
Edge
p142
(dp143
g7
I1
sg8
I00
sg9
I5
sg10
(lp144
g138
a(igraph
Vertex
p145
(dp146
g14
F1.0
sg8
I00
sg15
g16
sg17
F-325.0
sg18
F450.0
sg19
I4285720
sg20
S'6668.72063181'
p147
sg22
F0.0
sbasg26
I00
sg27
I00
sg28
I4285203
sg20
S'6668.85722711'
p148
sba(igraph
Edge
p149
(dp150
g7
I1
sg8
I00
sg9
I5
sg10
(lp151
g145
ag12
asg26
I00
sg27
I00
sg28
I4285204
sg20
S'6668.85765537'
p152
sba(igraph
Edge
p153
(dp154
g7
I1
sg8
I00
sg9
I5
sg10
(lp155
(igraph
Vertex
p156
(dp157
g14
F0.0
sg8
I00
sg15
g16
sg17
F-248.125
sg18
F-475.0
sg19
I4285721
sg20
S'6668.72093353'
p158
sg22
F0.125
sba(igraph
Vertex
p159
(dp160
g14
F0.055555555555555559
sg8
I00
sg15
g16
sg17
F-248.125
sg18
F-423.61111111111109
sg19
I4285722
sg20
S'6668.72124837'
p161
sg22
F0.125
sbasg26
I00
sg27
I00
sg28
I4285205
sg20
S'6668.85810878'
p162
sba(igraph
Edge
p163
(dp164
g7
I1
sg8
I00
sg9
I5
sg10
(lp165
g159
a(igraph
Vertex
p166
(dp167
g14
F0.1111111111111111
sg8
I00
sg15
g16
sg17
F-248.125
sg18
F-372.22222222222223
sg19
I4285723
sg20
S'6668.72158556'
p168
sg22
F0.125
sbasg26
I00
sg27
I00
sg28
I4285206
sg20
S'6668.85857895'
p169
sba(igraph
Edge
p170
(dp171
g7
I1
sg8
I00
sg9
I5
sg10
(lp172
g166
a(igraph
Vertex
p173
(dp174
g14
F0.1666666666666666
sg8
I00
sg15
g16
sg17
F-248.125
sg18
F-320.83333333333337
sg19
I4285724
sg20
S'6668.72194176'
p175
sg22
F0.125
sbasg26
I00
sg27
I00
sg28
I4285207
sg20
S'6668.8590969'
p176
sba(igraph
Edge
p177
(dp178
g7
I1
sg8
I00
sg9
I5
sg10
(lp179
g173
a(igraph
Vertex
p180
(dp181
g14
F0.22222222222222215
sg8
I00
sg15
g16
sg17
F-248.125
sg18
F-269.44444444444451
sg19
I4285725
sg20
S'6668.72230716'
p182
sg22
F0.125
sbasg26
I00
sg27
I00
sg28
I4285208
sg20
S'6668.85962071'
p183
sba(igraph
Edge
p184
(dp185
g7
I1
sg8
I00
sg9
I5
sg10
(lp186
g180
a(igraph
Vertex
p187
(dp188
g14
F0.27777777777777768
sg8
I00
sg15
g16
sg17
F-248.125
sg18
F-218.05555555555566
sg19
I4285726
sg20
S'6668.72268822'
p189
sg22
F0.125
sbasg26
I00
sg27
I00
sg28
I4285209
sg20
S'6668.86016379'
p190
sba(igraph
Edge
p191
(dp192
g7
I1
sg8
I00
sg9
I5
sg10
(lp193
g187
a(igraph
Vertex
p194
(dp195
g14
F0.33333333333333326
sg8
I00
sg15
g16
sg17
F-248.125
sg18
F-166.66666666666674
sg19
I4285727
sg20
S'6668.72308659'
p196
sg22
F0.125
sbasg26
I00
sg27
I00
sg28
I4285210
sg20
S'6668.86072252'
p197
sba(igraph
Edge
p198
(dp199
g7
I1
sg8
I00
sg9
I5
sg10
(lp200
g194
a(igraph
Vertex
p201
(dp202
g14
F0.38888888888888884
sg8
I00
sg15
g16
sg17
F-248.125
sg18
F-115.27777777777783
sg19
I4285728
sg20
S'6668.72350313'
p203
sg22
F0.125
sbasg26
I00
sg27
I00
sg28
I4285211
sg20
S'6668.86130081'
p204
sba(igraph
Edge
p205
(dp206
g7
I1
sg8
I00
sg9
I5
sg10
(lp207
g201
a(igraph
Vertex
p208
(dp209
g14
F0.44444444444444436
sg8
I00
sg15
g16
sg17
F-248.125
sg18
F-63.888888888888971
sg19
I4285729
sg20
S'6668.72393223'
p210
sg22
F0.125
sbasg26
I00
sg27
I00
sg28
I4285212
sg20
S'6668.86190284'
p211
sba(igraph
Edge
p212
(dp213
g7
I1
sg8
I00
sg9
I5
sg10
(lp214
g208
a(igraph
Vertex
p215
(dp216
g14
F0.5
sg8
I00
sg15
g16
sg17
F-248.125
sg18
F-12.5
sg19
I4285730
sg20
S'6668.72437614'
p217
sg22
F0.125
sbasg26
I00
sg27
I00
sg28
I4285213
sg20
S'6668.86252443'
p218
sba(igraph
Edge
p219
(dp220
g7
I1
sg8
I00
sg9
I5
sg10
(lp221
g215
a(igraph
Vertex
p222
(dp223
g14
F0.55555555555555558
sg8
I00
sg15
g16
sg17
F-248.125
sg18
F38.888888888888914
sg19
I4285731
sg20
S'6668.72483458'
p224
sg22
F0.125
sbasg26
I00
sg27
I00
sg28
I4285214
sg20
S'6668.8631678'
p225
sba(igraph
Edge
p226
(dp227
g7
I1
sg8
I00
sg9
I5
sg10
(lp228
g222
a(igraph
Vertex
p229
(dp230
g14
F0.61111111111111116
sg8
I00
sg15
g16
sg17
F-248.125
sg18
F90.277777777777828
sg19
I4285732
sg20
S'6668.72531034'
p231
sg22
F0.125
sbasg26
I00
sg27
I00
sg28
I4285215
sg20
S'6668.86383297'
p232
sba(igraph
Edge
p233
(dp234
g7
I1
sg8
I00
sg9
I5
sg10
(lp235
g229
a(igraph
Vertex
p236
(dp237
g14
F0.66666666666666663
sg8
I00
sg15
g16
sg17
F-248.125
sg18
F141.66666666666663
sg19
I4285733
sg20
S'6668.72585035'
p238
sg22
F0.125
sbasg26
I00
sg27
I00
sg28
I4285216
sg20
S'6668.86451798'
p239
sba(igraph
Edge
p240
(dp241
g7
I1
sg8
I00
sg9
I5
sg10
(lp242
g236
a(igraph
Vertex
p243
(dp244
g14
F0.7222222222222221
sg8
I00
sg15
g16
sg17
F-248.125
sg18
F193.05555555555543
sg19
I4285734
sg20
S'6668.72637193'
p245
sg22
F0.125
sbasg26
I00
sg27
I00
sg28
I4285217
sg20
S'6668.86522561'
p246
sba(igraph
Edge
p247
(dp248
g7
I1
sg8
I00
sg9
I5
sg10
(lp249
g243
a(igraph
Vertex
p250
(dp251
g14
F0.77777777777777768
sg8
I01
sg15
I0
sg17
F-248.125
sg18
F244.44444444444434
sg19
I4285736
sg20
S'6668.72689657'
p252
sg22
F0.125
sbasg26
I00
sg27
I00
sg28
I4285218
sg20
S'6668.86595615'
p253
sba(igraph
Edge
p254
(dp255
g7
I1
sg8
I00
sg9
I5
sg10
(lp256
g250
a(igraph
Vertex
p257
(dp258
g14
F0.83333333333333337
sg8
I00
sg15
g16
sg17
F-248.125
sg18
F295.83333333333337
sg19
I4285738
sg20
S'6668.72744106'
p259
sg22
F0.125
sbasg26
I00
sg27
I00
sg28
I4285219
sg20
S'6668.86670708'
p260
sba(igraph
Edge
p261
(dp262
g7
I1
sg8
I00
sg9
I5
sg10
(lp263
g257
a(igraph
Vertex
p264
(dp265
g14
F0.88888888888888873
sg8
I00
sg15
g16
sg17
F-248.125
sg18
F347.22222222222206
sg19
I4285739
sg20
S'6668.7279956'
p266
sg22
F0.125
sbasg26
I00
sg27
I00
sg28
I4285220
sg20
S'6668.86751584'
p267
sba(igraph
Edge
p268
(dp269
g7
I1
sg8
I00
sg9
I5
sg10
(lp270
g264
a(igraph
Vertex
p271
(dp272
g14
F0.94444444444444442
sg8
I00
sg15
g16
sg17
F-248.125
sg18
F398.61111111111109
sg19
I4285740
sg20
S'6668.72856494'
p273
sg22
F0.125
sbasg26
I00
sg27
I00
sg28
I4285221
sg20
S'6668.86831567'
p274
sba(igraph
Edge
p275
(dp276
g7
I1
sg8
I00
sg9
I5
sg10
(lp277
g271
a(igraph
Vertex
p278
(dp279
g14
F1.0
sg8
I01
sg15
I0
sg17
F-248.125
sg18
F450.0
sg19
I4285742
sg20
S'6668.72915105'
p280
sg22
F0.125
sbasg26
I00
sg27
I00
sg28
I4285222
sg20
S'6668.86913784'
p281
sba(igraph
Edge
p282
(dp283
g7
I1
sg8
I00
sg9
I5
sg10
(lp284
g278
ag156
asg26
I00
sg27
I00
sg28
I4285223
sg20
S'6668.86998152'
p285
sba(igraph
Edge
p286
(dp287
g7
I1
sg8
I00
sg9
I5
sg10
(lp288
(igraph
Vertex
p289
(dp290
g14
F0.0
sg8
I00
sg15
g16
sg17
F-171.25
sg18
F-475.0
sg19
I4285744
sg20
S'6668.72975392'
p291
sg22
F0.25
sba(igraph
Vertex
p292
(dp293
g14
F0.055555555555555559
sg8
I00
sg15
g16
sg17
F-171.25
sg18
F-423.61111111111109
sg19
I4285745
sg20
S'6668.73048586'
p294
sg22
F0.25
sbasg26
I00
sg27
I00
sg28
I4285224
sg20
S'6668.87084699'
p295
sba(igraph
Edge
p296
(dp297
g7
I1
sg8
I00
sg9
I5
sg10
(lp298
g292
a(igraph
Vertex
p299
(dp300
g14
F0.1111111111111111
sg8
I00
sg15
g16
sg17
F-171.25
sg18
F-372.22222222222223
sg19
I4285746
sg20
S'6668.73112225'
p301
sg22
F0.25
sbasg26
I00
sg27
I00
sg28
I4285225
sg20
S'6668.87173398'
p302
sba(igraph
Edge
p303
(dp304
g7
I1
sg8
I00
sg9
I5
sg10
(lp305
g299
a(igraph
Vertex
p306
(dp307
g14
F0.1666666666666666
sg8
I00
sg15
g16
sg17
F-171.25
sg18
F-320.83333333333337
sg19
I4285747
sg20
S'6668.73177233'
p308
sg22
F0.25
sbasg26
I00
sg27
I00
sg28
I4285226
sg20
S'6668.87264219'
p309
sba(igraph
Edge
p310
(dp311
g7
I1
sg8
I00
sg9
I5
sg10
(lp312
g306
a(igraph
Vertex
p313
(dp314
g14
F0.22222222222222215
sg8
I00
sg15
g16
sg17
F-171.25
sg18
F-269.44444444444451
sg19
I4285748
sg20
S'6668.73244421'
p315
sg22
F0.25
sbasg26
I00
sg27
I00
sg28
I4285227
sg20
S'6668.87357192'
p316
sba(igraph
Edge
p317
(dp318
g7
I1
sg8
I00
sg9
I5
sg10
(lp319
g313
a(igraph
Vertex
p320
(dp321
g14
F0.27777777777777768
sg8
I00
sg15
g16
sg17
F-171.25
sg18
F-218.05555555555566
sg19
I4285749
sg20
S'6668.73313005'
p322
sg22
F0.25
sbasg26
I00
sg27
I00
sg28
I4285228
sg20
S'6668.8745835'
p323
sba(igraph
Edge
p324
(dp325
g7
I1
sg8
I00
sg9
I5
sg10
(lp326
g320
a(igraph
Vertex
p327
(dp328
g14
F0.33333333333333326
sg8
I00
sg15
g16
sg17
F-171.25
sg18
F-166.66666666666674
sg19
I4285750
sg20
S'6668.73382874'
p329
sg22
F0.25
sbasg26
I00
sg27
I00
sg28
I4285229
sg20
S'6668.87556575'
p330
sba(igraph
Edge
p331
(dp332
g7
I1
sg8
I00
sg9
I5
sg10
(lp333
g327
a(igraph
Vertex
p334
(dp335
g14
F0.38888888888888884
sg8
I00
sg15
g16
sg17
F-171.25
sg18
F-115.27777777777783
sg19
I4285751
sg20
S'6668.73454531'
p336
sg22
F0.25
sbasg26
I00
sg27
I00
sg28
I4285230
sg20
S'6668.87659493'
p337
sba(igraph
Edge
p338
(dp339
g7
I1
sg8
I00
sg9
I5
sg10
(lp340
g334
a(igraph
Vertex
p341
(dp342
g14
F0.44444444444444436
sg8
I00
sg15
g16
sg17
F-171.25
sg18
F-63.888888888888971
sg19
I4285752
sg20
S'6668.73527585'
p343
sg22
F0.25
sbasg26
I00
sg27
I00
sg28
I4285231
sg20
S'6668.8776188'
p344
sba(igraph
Edge
p345
(dp346
g7
I1
sg8
I00
sg9
I5
sg10
(lp347
g341
a(igraph
Vertex
p348
(dp349
g14
F0.5
sg8
I00
sg15
g16
sg17
F-171.25
sg18
F-12.5
sg19
I4285753
sg20
S'6668.73602706'
p350
sg22
F0.25
sbasg26
I00
sg27
I00
sg28
I4285232
sg20
S'6668.87865916'
p351
sba(igraph
Edge
p352
(dp353
g7
I1
sg8
I00
sg9
I5
sg10
(lp354
g348
a(igraph
Vertex
p355
(dp356
g14
F0.55555555555555558
sg8
I00
sg15
g16
sg17
F-171.25
sg18
F38.888888888888914
sg19
I4285754
sg20
S'6668.73684449'
p357
sg22
F0.25
sbasg26
I00
sg27
I00
sg28
I4285233
sg20
S'6668.87972019'
p358
sba(igraph
Edge
p359
(dp360
g7
I1
sg8
I00
sg9
I5
sg10
(lp361
g355
a(igraph
Vertex
p362
(dp363
g14
F0.61111111111111116
sg8
I00
sg15
g16
sg17
F-171.25
sg18
F90.277777777777828
sg19
I4285755
sg20
S'6668.73763984'
p364
sg22
F0.25
sbasg26
I00
sg27
I00
sg28
I4285234
sg20
S'6668.88080301'
p365
sba(igraph
Edge
p366
(dp367
g7
I1
sg8
I00
sg9
I5
sg10
(lp368
g362
a(igraph
Vertex
p369
(dp370
g14
F0.66666666666666663
sg8
I01
sg15
I0
sg17
F-171.25
sg18
F141.66666666666663
sg19
I4285757
sg20
S'6668.73844944'
p371
sg22
F0.25
sbasg26
I00
sg27
I00
sg28
I4285235
sg20
S'6668.88190566'
p372
sba(igraph
Edge
p373
(dp374
g7
I1
sg8
I00
sg9
I5
sg10
(lp375
g369
a(igraph
Vertex
p376
(dp377
g14
F0.7222222222222221
sg8
I00
sg15
g16
sg17
F-171.25
sg18
F193.05555555555543
sg19
I4285759
sg20
S'6668.73926826'
p378
sg22
F0.25
sbasg26
I00
sg27
I00
sg28
I4285236
sg20
S'6668.88303234'
p379
sba(igraph
Edge
p380
(dp381
g7
I1
sg8
I00
sg9
I5
sg10
(lp382
g376
a(igraph
Vertex
p383
(dp384
g14
F0.77777777777777768
sg8
I00
sg15
g16
sg17
F-171.25
sg18
F244.44444444444434
sg19
I4285760
sg20
S'6668.74010356'
p385
sg22
F0.25
sbasg26
I00
sg27
I00
sg28
I4285237
sg20
S'6668.88420204'
p386
sba(igraph
Edge
p387
(dp388
g7
I1
sg8
I00
sg9
I5
sg10
(lp389
g383
a(igraph
Vertex
p390
(dp391
g14
F0.83333333333333337
sg8
I01
sg15
I0
sg17
F-171.25
sg18
F295.83333333333337
sg19
I4285762
sg20
S'6668.74095479'
p392
sg22
F0.25
sbasg26
I00
sg27
I00
sg28
I4285238
sg20
S'6668.88536699'
p393
sba(igraph
Edge
p394
(dp395
g7
I1
sg8
I00
sg9
I5
sg10
(lp396
g390
a(igraph
Vertex
p397
(dp398
g14
F0.88888888888888873
sg8
I00
sg15
g16
sg17
F-171.25
sg18
F347.22222222222206
sg19
I4285764
sg20
S'6668.74187334'
p399
sg22
F0.25
sbasg26
I00
sg27
I00
sg28
I4285239
sg20
S'6668.88655402'
p400
sba(igraph
Edge
p401
(dp402
g7
I1
sg8
I00
sg9
I5
sg10
(lp403
g397
a(igraph
Vertex
p404
(dp405
g14
F0.94444444444444442
sg8
I00
sg15
g16
sg17
F-171.25
sg18
F398.61111111111109
sg19
I4285765
sg20
S'6668.7431654'
p406
sg22
F0.25
sbasg26
I00
sg27
I00
sg28
I4285240
sg20
S'6668.88776143'
p407
sba(igraph
Edge
p408
(dp409
g7
I1
sg8
I00
sg9
I5
sg10
(lp410
g404
a(igraph
Vertex
p411
(dp412
g14
F1.0
sg8
I00
sg15
g16
sg17
F-171.25
sg18
F450.0
sg19
I4285766
sg20
S'6668.74411552'
p413
sg22
F0.25
sbasg26
I00
sg27
I00
sg28
I4285241
sg20
S'6668.88907445'
p414
sba(igraph
Edge
p415
(dp416
g7
I1
sg8
I00
sg9
I5
sg10
(lp417
g411
ag289
asg26
I00
sg27
I00
sg28
I4285242
sg20
S'6668.89032992'
p418
sba(igraph
Edge
p419
(dp420
g7
I1
sg8
I00
sg9
I5
sg10
(lp421
(igraph
Vertex
p422
(dp423
g14
F0.0
sg8
I00
sg15
g16
sg17
F-94.375
sg18
F-475.0
sg19
I4285767
sg20
S'6668.74456893'
p424
sg22
F0.375
sba(igraph
Vertex
p425
(dp426
g14
F0.055555555555555559
sg8
I00
sg15
g16
sg17
F-94.375
sg18
F-423.61111111111109
sg19
I4285768
sg20
S'6668.74503016'
p427
sg22
F0.375
sbasg26
I00
sg27
I00
sg28
I4285243
sg20
S'6668.8916055'
p428
sba(igraph
Edge
p429
(dp430
g7
I1
sg8
I00
sg9
I5
sg10
(lp431
g425
a(igraph
Vertex
p432
(dp433
g14
F0.1111111111111111
sg8
I00
sg15
g16
sg17
F-94.375
sg18
F-372.22222222222223
sg19
I4285769
sg20
S'6668.74550034'
p434
sg22
F0.375
sbasg26
I00
sg27
I00
sg28
I4285244
sg20
S'6668.89289868'
p435
sba(igraph
Edge
p436
(dp437
g7
I1
sg8
I00
sg9
I5
sg10
(lp438
g432
a(igraph
Vertex
p439
(dp440
g14
F0.1666666666666666
sg8
I00
sg15
g16
sg17
F-94.375
sg18
F-320.83333333333337
sg19
I4285770
sg20
S'6668.74597637'
p441
sg22
F0.375
sbasg26
I00
sg27
I00
sg28
I4285245
sg20
S'6668.89421868'
p442
sba(igraph
Edge
p443
(dp444
g7
I1
sg8
I00
sg9
I5
sg10
(lp445
g439
a(igraph
Vertex
p446
(dp447
g14
F0.22222222222222215
sg8
I00
sg15
g16
sg17
F-94.375
sg18
F-269.44444444444451
sg19
I4285771
sg20
S'6668.74645772'
p448
sg22
F0.375
sbasg26
I00
sg27
I00
sg28
I4285246
sg20
S'6668.89555907'
p449
sba(igraph
Edge
p450
(dp451
g7
I1
sg8
I00
sg9
I5
sg10
(lp452
g446
a(igraph
Vertex
p453
(dp454
g14
F0.27777777777777768
sg8
I00
sg15
g16
sg17
F-94.375
sg18
F-218.05555555555566
sg19
I4285772
sg20
S'6668.74695164'
p455
sg22
F0.375
sbasg26
I00
sg27
I00
sg28
I4285247
sg20
S'6668.89692014'
p456
sba(igraph
Edge
p457
(dp458
g7
I1
sg8
I00
sg9
I5
sg10
(lp459
g453
a(igraph
Vertex
p460
(dp461
g14
F0.33333333333333326
sg8
I00
sg15
g16
sg17
F-94.375
sg18
F-166.66666666666674
sg19
I4285773
sg20
S'6668.7474503'
p462
sg22
F0.375
sbasg26
I00
sg27
I00
sg28
I4285248
sg20
S'6668.89830328'
p463
sba(igraph
Edge
p464
(dp465
g7
I1
sg8
I00
sg9
I5
sg10
(lp466
g460
a(igraph
Vertex
p467
(dp468
g14
F0.38888888888888884
sg8
I00
sg15
g16
sg17
F-94.375
sg18
F-115.27777777777783
sg19
I4285774
sg20
S'6668.74795623'
p469
sg22
F0.375
sbasg26
I00
sg27
I00
sg28
I4285249
sg20
S'6668.89973698'
p470
sba(igraph
Edge
p471
(dp472
g7
I1
sg8
I00
sg9
I5
sg10
(lp473
g467
a(igraph
Vertex
p474
(dp475
g14
F0.44444444444444436
sg8
I00
sg15
g16
sg17
F-94.375
sg18
F-63.888888888888971
sg19
I4285775
sg20
S'6668.74847278'
p476
sg22
F0.375
sbasg26
I00
sg27
I00
sg28
I4285250
sg20
S'6668.90116425'
p477
sba(igraph
Edge
p478
(dp479
g7
I1
sg8
I00
sg9
I5
sg10
(lp480
g474
a(igraph
Vertex
p481
(dp482
g14
F0.5
sg8
I00
sg15
g16
sg17
F-94.375
sg18
F-12.5
sg19
I4285776
sg20
S'6668.74899631'
p483
sg22
F0.375
sbasg26
I00
sg27
I00
sg28
I4285251
sg20
S'6668.90261081'
p484
sba(igraph
Edge
p485
(dp486
g7
I1
sg8
I00
sg9
I5
sg10
(lp487
g481
a(igraph
Vertex
p488
(dp489
g14
F0.55555555555555558
sg8
I01
sg15
I0
sg17
F-94.375
sg18
F38.888888888888914
sg19
I4285778
sg20
S'6668.74953185'
p490
sg22
F0.375
sbasg26
I00
sg27
I00
sg28
I4285252
sg20
S'6668.90407943'
p491
sba(igraph
Edge
p492
(dp493
g7
I1
sg8
I00
sg9
I5
sg10
(lp494
g488
a(igraph
Vertex
p495
(dp496
g14
F0.61111111111111116
sg8
I00
sg15
g16
sg17
F-94.375
sg18
F90.277777777777828
sg19
I4285780
sg20
S'6668.7500727'
p497
sg22
F0.375
sbasg26
I00
sg27
I00
sg28
I4285253
sg20
S'6668.90556845'
p498
sba(igraph
Edge
p499
(dp500
g7
I1
sg8
I00
sg9
I5
sg10
(lp501
g495
a(igraph
Vertex
p502
(dp503
g14
F0.66666666666666663
sg8
I00
sg15
g16
sg17
F-94.375
sg18
F141.66666666666663
sg19
I4285781
sg20
S'6668.7506306'
p504
sg22
F0.375
sbasg26
I00
sg27
I00
sg28
I4285254
sg20
S'6668.90708652'
p505
sba(igraph
Edge
p506
(dp507
g7
I1
sg8
I00
sg9
I5
sg10
(lp508
g502
a(igraph
Vertex
p509
(dp510
g14
F0.7222222222222221
sg8
I00
sg15
g16
sg17
F-94.375
sg18
F193.05555555555543
sg19
I4285782
sg20
S'6668.75119044'
p511
sg22
F0.375
sbasg26
I00
sg27
I00
sg28
I4285255
sg20
S'6668.90862582'
p512
sba(igraph
Edge
p513
(dp514
g7
I1
sg8
I00
sg9
I5
sg10
(lp515
g509
a(igraph
Vertex
p516
(dp517
g14
F0.77777777777777768
sg8
I00
sg15
g16
sg17
F-94.375
sg18
F244.44444444444434
sg19
I4285783
sg20
S'6668.75175644'
p518
sg22
F0.375
sbasg26
I00
sg27
I00
sg28
I4285256
sg20
S'6668.91021317'
p519
sba(igraph
Edge
p520
(dp521
g7
I1
sg8
I00
sg9
I5
sg10
(lp522
g516
a(igraph
Vertex
p523
(dp524
g14
F0.83333333333333337
sg8
I00
sg15
g16
sg17
F-94.375
sg18
F295.83333333333337
sg19
I4285784
sg20
S'6668.75232914'
p525
sg22
F0.375
sbasg26
I00
sg27
I00
sg28
I4285257
sg20
S'6668.91183293'
p526
sba(igraph
Edge
p527
(dp528
g7
I1
sg8
I00
sg9
I5
sg10
(lp529
g523
a(igraph
Vertex
p530
(dp531
g14
F0.88888888888888873
sg8
I00
sg15
g16
sg17
F-94.375
sg18
F347.22222222222206
sg19
I4285785
sg20
S'6668.75293648'
p532
sg22
F0.375
sbasg26
I00
sg27
I00
sg28
I4285258
sg20
S'6668.91349487'
p533
sba(igraph
Edge
p534
(dp535
g7
I1
sg8
I00
sg9
I5
sg10
(lp536
g530
a(igraph
Vertex
p537
(dp538
g14
F0.94444444444444442
sg8
I00
sg15
g16
sg17
F-94.375
sg18
F398.61111111111109
sg19
I4285786
sg20
S'6668.75354046'
p539
sg22
F0.375
sbasg26
I00
sg27
I00
sg28
I4285259
sg20
S'6668.91512329'
p540
sba(igraph
Edge
p541
(dp542
g7
I1
sg8
I00
sg9
I5
sg10
(lp543
g537
a(igraph
Vertex
p544
(dp545
g14
F1.0
sg8
I00
sg15
g16
sg17
F-94.375
sg18
F450.0
sg19
I4285787
sg20
S'6668.75418971'
p546
sg22
F0.375
sbasg26
I00
sg27
I00
sg28
I4285260
sg20
S'6668.91678579'
p547
sba(igraph
Edge
p548
(dp549
g7
I1
sg8
I00
sg9
I5
sg10
(lp550
g544
ag422
asg26
I00
sg27
I00
sg28
I4285261
sg20
S'6668.92113439'
p551
sba(igraph
Edge
p552
(dp553
g7
I1
sg8
I00
sg9
I5
sg10
(lp554
(igraph
Vertex
p555
(dp556
g14
F0.0
sg8
I00
sg15
g16
sg17
F-17.5
sg18
F-475.0
sg19
I4285788
sg20
S'6668.75486298'
p557
sg22
F0.5
sba(igraph
Vertex
p558
(dp559
g14
F0.055555555555555559
sg8
I00
sg15
g16
sg17
F-17.5
sg18
F-423.61111111111109
sg19
I4285789
sg20
S'6668.75550608'
p560
sg22
F0.5
sbasg26
I00
sg27
I00
sg28
I4285262
sg20
S'6668.92284578'
p561
sba(igraph
Edge
p562
(dp563
g7
I1
sg8
I00
sg9
I5
sg10
(lp564
g558
a(igraph
Vertex
p565
(dp566
g14
F0.1111111111111111
sg8
I00
sg15
g16
sg17
F-17.5
sg18
F-372.22222222222223
sg19
I4285790
sg20
S'6668.7562355'
p567
sg22
F0.5
sbasg26
I00
sg27
I00
sg28
I4285263
sg20
S'6668.92458986'
p568
sba(igraph
Edge
p569
(dp570
g7
I1
sg8
I00
sg9
I5
sg10
(lp571
g565
a(igraph
Vertex
p572
(dp573
g14
F0.1666666666666666
sg8
I00
sg15
g16
sg17
F-17.5
sg18
F-320.83333333333337
sg19
I4285791
sg20
S'6668.75687525'
p574
sg22
F0.5
sbasg26
I00
sg27
I00
sg28
I4285264
sg20
S'6668.92632695'
p575
sba(igraph
Edge
p576
(dp577
g7
I1
sg8
I00
sg9
I5
sg10
(lp578
g572
a(igraph
Vertex
p579
(dp580
g14
F0.22222222222222215
sg8
I00
sg15
g16
sg17
F-17.5
sg18
F-269.44444444444451
sg19
I4285792
sg20
S'6668.75751751'
p581
sg22
F0.5
sbasg26
I00
sg27
I00
sg28
I4285265
sg20
S'6668.92807857'
p582
sba(igraph
Edge
p583
(dp584
g7
I1
sg8
I00
sg9
I5
sg10
(lp585
g579
a(igraph
Vertex
p586
(dp587
g14
F0.27777777777777768
sg8
I00
sg15
g16
sg17
F-17.5
sg18
F-218.05555555555566
sg19
I4285793
sg20
S'6668.75816507'
p588
sg22
F0.5
sbasg26
I00
sg27
I00
sg28
I4285266
sg20
S'6668.92985226'
p589
sba(igraph
Edge
p590
(dp591
g7
I1
sg8
I00
sg9
I5
sg10
(lp592
g586
a(igraph
Vertex
p593
(dp594
g14
F0.33333333333333326
sg8
I00
sg15
g16
sg17
F-17.5
sg18
F-166.66666666666674
sg19
I4285794
sg20
S'6668.7588227'
p595
sg22
F0.5
sbasg26
I00
sg27
I00
sg28
I4285267
sg20
S'6668.93163824'
p596
sba(igraph
Edge
p597
(dp598
g7
I1
sg8
I00
sg9
I5
sg10
(lp599
g593
a(igraph
Vertex
p600
(dp601
g14
F0.38888888888888884
sg8
I00
sg15
g16
sg17
F-17.5
sg18
F-115.27777777777783
sg19
I4285795
sg20
S'6668.7594901'
p602
sg22
F0.5
sbasg26
I00
sg27
I00
sg28
I4285268
sg20
S'6668.93347423'
p603
sba(igraph
Edge
p604
(dp605
g7
I1
sg8
I00
sg9
I5
sg10
(lp606
g600
a(igraph
Vertex
p607
(dp608
g14
F0.44444444444444436
sg8
I01
sg15
I0
sg17
F-17.5
sg18
F-63.888888888888971
sg19
I4285797
sg20
S'6668.76016477'
p609
sg22
F0.5
sbasg26
I00
sg27
I00
sg28
I4285269
sg20
S'6668.93530155'
p610
sba(igraph
Edge
p611
(dp612
g7
I1
sg8
I00
sg9
I5
sg10
(lp613
g607
a(igraph
Vertex
p614
(dp615
g14
F0.5
sg8
I00
sg15
g16
sg17
F-17.5
sg18
F-12.5
sg19
I4285799
sg20
S'6668.76085396'
p616
sg22
F0.5
sbasg26
I00
sg27
I00
sg28
I4285270
sg20
S'6668.93715207'
p617
sba(igraph
Edge
p618
(dp619
g7
I1
sg8
I00
sg9
I5
sg10
(lp620
g614
a(igraph
Vertex
p621
(dp622
g14
F0.55555555555555558
sg8
I00
sg15
g16
sg17
F-17.5
sg18
F38.888888888888914
sg19
I4285800
sg20
S'6668.76155657'
p623
sg22
F0.5
sbasg26
I00
sg27
I00
sg28
I4285271
sg20
S'6668.93902577'
p624
sba(igraph
Edge
p625
(dp626
g7
I1
sg8
I00
sg9
I5
sg10
(lp627
g621
a(igraph
Vertex
p628
(dp629
g14
F0.61111111111111116
sg8
I00
sg15
g16
sg17
F-17.5
sg18
F90.277777777777828
sg19
I4285801
sg20
S'6668.76225749'
p630
sg22
F0.5
sbasg26
I00
sg27
I00
sg28
I4285272
sg20
S'6668.94113051'
p631
sba(igraph
Edge
p632
(dp633
g7
I1
sg8
I00
sg9
I5
sg10
(lp634
g628
a(igraph
Vertex
p635
(dp636
g14
F0.66666666666666663
sg8
I00
sg15
g16
sg17
F-17.5
sg18
F141.66666666666663
sg19
I4285802
sg20
S'6668.76297407'
p637
sg22
F0.5
sbasg26
I00
sg27
I00
sg28
I4285273
sg20
S'6668.94304807'
p638
sba(igraph
Edge
p639
(dp640
g7
I1
sg8
I00
sg9
I5
sg10
(lp641
g635
a(igraph
Vertex
p642
(dp643
g14
F0.7222222222222221
sg8
I00
sg15
g16
sg17
F-17.5
sg18
F193.05555555555543
sg19
I4285803
sg20
S'6668.76369594'
p644
sg22
F0.5
sbasg26
I00
sg27
I00
sg28
I4285274
sg20
S'6668.94498602'
p645
sba(igraph
Edge
p646
(dp647
g7
I1
sg8
I00
sg9
I5
sg10
(lp648
g642
a(igraph
Vertex
p649
(dp650
g14
F0.77777777777777768
sg8
I00
sg15
g16
sg17
F-17.5
sg18
F244.44444444444434
sg19
I4285804
sg20
S'6668.76446308'
p651
sg22
F0.5
sbasg26
I00
sg27
I00
sg28
I4285275
sg20
S'6668.94695024'
p652
sba(igraph
Edge
p653
(dp654
g7
I1
sg8
I00
sg9
I5
sg10
(lp655
g649
a(igraph
Vertex
p656
(dp657
g14
F0.83333333333333337
sg8
I00
sg15
g16
sg17
F-17.5
sg18
F295.83333333333337
sg19
I4285805
sg20
S'6668.76521653'
p658
sg22
F0.5
sbasg26
I00
sg27
I00
sg28
I4285276
sg20
S'6668.94896335'
p659
sba(igraph
Edge
p660
(dp661
g7
I1
sg8
I00
sg9
I5
sg10
(lp662
g656
a(igraph
Vertex
p663
(dp664
g14
F0.88888888888888873
sg8
I00
sg15
g16
sg17
F-17.5
sg18
F347.22222222222206
sg19
I4285806
sg20
S'6668.76596579'
p665
sg22
F0.5
sbasg26
I00
sg27
I00
sg28
I4285277
sg20
S'6668.95103651'
p666
sba(igraph
Edge
p667
(dp668
g7
I1
sg8
I00
sg9
I5
sg10
(lp669
g663
a(igraph
Vertex
p670
(dp671
g14
F0.94444444444444442
sg8
I00
sg15
g16
sg17
F-17.5
sg18
F398.61111111111109
sg19
I4285807
sg20
S'6668.76673236'
p672
sg22
F0.5
sbasg26
I00
sg27
I00
sg28
I4285278
sg20
S'6668.95307001'
p673
sba(igraph
Edge
p674
(dp675
g7
I1
sg8
I00
sg9
I5
sg10
(lp676
g670
a(igraph
Vertex
p677
(dp678
g14
F1.0
sg8
I00
sg15
g16
sg17
F-17.5
sg18
F450.0
sg19
I4285808
sg20
S'6668.76752408'
p679
sg22
F0.5
sbasg26
I00
sg27
I00
sg28
I4285279
sg20
S'6668.95512586'
p680
sba(igraph
Edge
p681
(dp682
g7
I1
sg8
I00
sg9
I5
sg10
(lp683
g677
ag555
asg26
I00
sg27
I00
sg28
I4285280
sg20
S'6668.95720518'
p684
sba(igraph
Edge
p685
(dp686
g7
I1
sg8
I00
sg9
I5
sg10
(lp687
(igraph
Vertex
p688
(dp689
g14
F0.0
sg8
I00
sg15
g16
sg17
F59.375
sg18
F-475.0
sg19
I4285809
sg20
S'6668.76829597'
p690
sg22
F0.625
sba(igraph
Vertex
p691
(dp692
g14
F0.055555555555555559
sg8
I00
sg15
g16
sg17
F59.375
sg18
F-423.61111111111109
sg19
I4285810
sg20
S'6668.76913686'
p693
sg22
F0.625
sbasg26
I00
sg27
I00
sg28
I4285281
sg20
S'6668.95930796'
p694
sba(igraph
Edge
p695
(dp696
g7
I1
sg8
I00
sg9
I5
sg10
(lp697
g691
a(igraph
Vertex
p698
(dp699
g14
F0.1111111111111111
sg8
I00
sg15
g16
sg17
F59.375
sg18
F-372.22222222222223
sg19
I4285811
sg20
S'6668.76992802'
p700
sg22
F0.625
sbasg26
I00
sg27
I00
sg28
I4285282
sg20
S'6668.96143532'
p701
sba(igraph
Edge
p702
(dp703
g7
I1
sg8
I00
sg9
I5
sg10
(lp704
g698
a(igraph
Vertex
p705
(dp706
g14
F0.1666666666666666
sg8
I00
sg15
g16
sg17
F59.375
sg18
F-320.83333333333337
sg19
I4285812
sg20
S'6668.77072589'
p707
sg22
F0.625
sbasg26
I00
sg27
I00
sg28
I4285283
sg20
S'6668.96358308'
p708
sba(igraph
Edge
p709
(dp710
g7
I1
sg8
I00
sg9
I5
sg10
(lp711
g705
a(igraph
Vertex
p712
(dp713
g14
F0.22222222222222215
sg8
I00
sg15
g16
sg17
F59.375
sg18
F-269.44444444444451
sg19
I4285813
sg20
S'6668.77153242'
p714
sg22
F0.625
sbasg26
I00
sg27
I00
sg28
I4285284
sg20
S'6668.96586438'
p715
sba(igraph
Edge
p716
(dp717
g7
I1
sg8
I00
sg9
I5
sg10
(lp718
g712
a(igraph
Vertex
p719
(dp720
g14
F0.27777777777777768
sg8
I00
sg15
g16
sg17
F59.375
sg18
F-218.05555555555566
sg19
I4285814
sg20
S'6668.77234928'
p721
sg22
F0.625
sbasg26
I00
sg27
I00
sg28
I4285285
sg20
S'6668.96807723'
p722
sba(igraph
Edge
p723
(dp724
g7
I1
sg8
I00
sg9
I5
sg10
(lp725
g719
a(igraph
Vertex
p726
(dp727
g14
F0.33333333333333326
sg8
I01
sg15
I0
sg17
F59.375
sg18
F-166.66666666666674
sg19
I4285816
sg20
S'6668.77317648'
p728
sg22
F0.625
sbasg26
I00
sg27
I00
sg28
I4285286
sg20
S'6668.97028645'
p729
sba(igraph
Edge
p730
(dp731
g7
I1
sg8
I00
sg9
I5
sg10
(lp732
g726
a(igraph
Vertex
p733
(dp734
g14
F0.38888888888888884
sg8
I00
sg15
g16
sg17
F59.375
sg18
F-115.27777777777783
sg19
I4285818
sg20
S'6668.77400619'
p735
sg22
F0.625
sbasg26
I00
sg27
I00
sg28
I4285287
sg20
S'6668.97254958'
p736
sba(igraph
Edge
p737
(dp738
g7
I1
sg8
I00
sg9
I5
sg10
(lp739
g733
a(igraph
Vertex
p740
(dp741
g14
F0.44444444444444436
sg8
I00
sg15
g16
sg17
F59.375
sg18
F-63.888888888888971
sg19
I4285819
sg20
S'6668.77484792'
p742
sg22
F0.625
sbasg26
I00
sg27
I00
sg28
I4285288
sg20
S'6668.97480797'
p743
sba(igraph
Edge
p744
(dp745
g7
I1
sg8
I00
sg9
I5
sg10
(lp746
g740
a(igraph
Vertex
p747
(dp748
g14
F0.5
sg8
I01
sg15
I0
sg17
F59.375
sg18
F-12.5
sg19
I4285821
sg20
S'6668.77570026'
p749
sg22
F0.625
sbasg26
I00
sg27
I00
sg28
I4285289
sg20
S'6668.97708452'
p750
sba(igraph
Edge
p751
(dp752
g7
I1
sg8
I00
sg9
I5
sg10
(lp753
g747
a(igraph
Vertex
p754
(dp755
g14
F0.55555555555555558
sg8
I00
sg15
g16
sg17
F59.375
sg18
F38.888888888888914
sg19
I4285823
sg20
S'6668.77655233'
p756
sg22
F0.625
sbasg26
I00
sg27
I00
sg28
I4285290
sg20
S'6668.97943007'
p757
sba(igraph
Edge
p758
(dp759
g7
I1
sg8
I00
sg9
I5
sg10
(lp760
g754
a(igraph
Vertex
p761
(dp762
g14
F0.61111111111111116
sg8
I00
sg15
g16
sg17
F59.375
sg18
F90.277777777777828
sg19
I4285824
sg20
S'6668.77740998'
p763
sg22
F0.625
sbasg26
I00
sg27
I00
sg28
I4285291
sg20
S'6668.98176835'
p764
sba(igraph
Edge
p765
(dp766
g7
I1
sg8
I00
sg9
I5
sg10
(lp767
g761
a(igraph
Vertex
p768
(dp769
g14
F0.66666666666666663
sg8
I00
sg15
g16
sg17
F59.375
sg18
F141.66666666666663
sg19
I4285825
sg20
S'6668.77837267'
p770
sg22
F0.625
sbasg26
I00
sg27
I00
sg28
I4285292
sg20
S'6668.98409854'
p771
sba(igraph
Edge
p772
(dp773
g7
I1
sg8
I00
sg9
I5
sg10
(lp774
g768
a(igraph
Vertex
p775
(dp776
g14
F0.7222222222222221
sg8
I00
sg15
g16
sg17
F59.375
sg18
F193.05555555555543
sg19
I4285826
sg20
S'6668.77925463'
p777
sg22
F0.625
sbasg26
I00
sg27
I00
sg28
I4285293
sg20
S'6668.98645582'
p778
sba(igraph
Edge
p779
(dp780
g7
I1
sg8
I00
sg9
I5
sg10
(lp781
g775
a(igraph
Vertex
p782
(dp783
g14
F0.77777777777777768
sg8
I00
sg15
g16
sg17
F59.375
sg18
F244.44444444444434
sg19
I4285827
sg20
S'6668.78014524'
p784
sg22
F0.625
sbasg26
I00
sg27
I00
sg28
I4285294
sg20
S'6668.98883657'
p785
sba(igraph
Edge
p786
(dp787
g7
I1
sg8
I00
sg9
I5
sg10
(lp788
g782
a(igraph
Vertex
p789
(dp790
g14
F0.83333333333333337
sg8
I00
sg15
g16
sg17
F59.375
sg18
F295.83333333333337
sg19
I4285828
sg20
S'6668.78104731'
p791
sg22
F0.625
sbasg26
I00
sg27
I00
sg28
I4285295
sg20
S'6668.99124051'
p792
sba(igraph
Edge
p793
(dp794
g7
I1
sg8
I00
sg9
I5
sg10
(lp795
g789
a(igraph
Vertex
p796
(dp797
g14
F0.88888888888888873
sg8
I00
sg15
g16
sg17
F59.375
sg18
F347.22222222222206
sg19
I4285829
sg20
S'6668.78195134'
p798
sg22
F0.625
sbasg26
I00
sg27
I00
sg28
I4285296
sg20
S'6668.99367853'
p799
sba(igraph
Edge
p800
(dp801
g7
I1
sg8
I00
sg9
I5
sg10
(lp802
g796
a(igraph
Vertex
p803
(dp804
g14
F0.94444444444444442
sg8
I00
sg15
g16
sg17
F59.375
sg18
F398.61111111111109
sg19
I4285830
sg20
S'6668.78286961'
p805
sg22
F0.625
sbasg26
I00
sg27
I00
sg28
I4285297
sg20
S'6668.99624002'
p806
sba(igraph
Edge
p807
(dp808
g7
I1
sg8
I00
sg9
I5
sg10
(lp809
g803
a(igraph
Vertex
p810
(dp811
g14
F1.0
sg8
I00
sg15
g16
sg17
F59.375
sg18
F450.0
sg19
I4285831
sg20
S'6668.78379459'
p812
sg22
F0.625
sbasg26
I00
sg27
I00
sg28
I4285298
sg20
S'6668.99882778'
p813
sba(igraph
Edge
p814
(dp815
g7
I1
sg8
I01
sg9
I5
sg10
(lp816
g810
ag688
asg26
I00
sg27
I00
sg28
I4285300
sg20
S'6669.00133341'
p817
sba(igraph
Edge
p818
(dp819
g7
I1
sg8
I00
sg9
I5
sg10
(lp820
(igraph
Vertex
p821
(dp822
g14
F0.0
sg8
I00
sg15
g16
sg17
F136.25
sg18
F-475.0
sg19
I4285832
sg20
S'6668.78473521'
p823
sg22
F0.75
sba(igraph
Vertex
p824
(dp825
g14
F0.055555555555555559
sg8
I00
sg15
g16
sg17
F136.25
sg18
F-423.61111111111109
sg19
I4285833
sg20
S'6668.78570796'
p826
sg22
F0.75
sbasg26
I00
sg27
I00
sg28
I4285301
sg20
S'6669.00385524'
p827
sba(igraph
Edge
p828
(dp829
g7
I1
sg8
I00
sg9
I5
sg10
(lp830
g824
a(igraph
Vertex
p831
(dp832
g14
F0.1111111111111111
sg8
I00
sg15
g16
sg17
F136.25
sg18
F-372.22222222222223
sg19
I4285834
sg20
S'6668.78665864'
p833
sg22
F0.75
sbasg26
I00
sg27
I00
sg28
I4285302
sg20
S'6669.00640389'
p834
sba(igraph
Edge
p835
(dp836
g7
I1
sg8
I00
sg9
I5
sg10
(lp837
g831
a(igraph
Vertex
p838
(dp839
g14
F0.1666666666666666
sg8
I00
sg15
g16
sg17
F136.25
sg18
F-320.83333333333337
sg19
I4285835
sg20
S'6668.78761993'
p840
sg22
F0.75
sbasg26
I00
sg27
I00
sg28
I4285303
sg20
S'6669.00896594'
p841
sba(igraph
Edge
p842
(dp843
g7
I1
sg8
I00
sg9
I5
sg10
(lp844
g838
a(igraph
Vertex
p845
(dp846
g14
F0.22222222222222215
sg8
I01
sg15
I0
sg17
F136.25
sg18
F-269.44444444444451
sg19
I4285837
sg20
S'6668.78859213'
p847
sg22
F0.75
sbasg26
I00
sg27
I00
sg28
I4285304
sg20
S'6669.01155957'
p848
sba(igraph
Edge
p849
(dp850
g7
I1
sg8
I00
sg9
I5
sg10
(lp851
g845
a(igraph
Vertex
p852
(dp853
g14
F0.27777777777777768
sg8
I00
sg15
g16
sg17
F136.25
sg18
F-218.05555555555566
sg19
I4285839
sg20
S'6668.78960007'
p854
sg22
F0.75
sbasg26
I00
sg27
I00
sg28
I4285305
sg20
S'6669.0142317'
p855
sba(igraph
Edge
p856
(dp857
g7
I1
sg8
I00
sg9
I5
sg10
(lp858
g852
a(igraph
Vertex
p859
(dp860
g14
F0.33333333333333326
sg8
I00
sg15
g16
sg17
F136.25
sg18
F-166.66666666666674
sg19
I4285840
sg20
S'6668.79061585'
p861
sg22
F0.75
sbasg26
I00
sg27
I00
sg28
I4285306
sg20
S'6669.01698735'
p862
sba(igraph
Edge
p863
(dp864
g7
I1
sg8
I00
sg9
I5
sg10
(lp865
g859
a(igraph
Vertex
p866
(dp867
g14
F0.38888888888888884
sg8
I00
sg15
g16
sg17
F136.25
sg18
F-115.27777777777783
sg19
I4285841
sg20
S'6668.79161737'
p868
sg22
F0.75
sbasg26
I00
sg27
I00
sg28
I4285307
sg20
S'6669.01964216'
p869
sba(igraph
Edge
p870
(dp871
g7
I1
sg8
I00
sg9
I5
sg10
(lp872
g866
a(igraph
Vertex
p873
(dp874
g14
F0.44444444444444436
sg8
I00
sg15
g16
sg17
F136.25
sg18
F-63.888888888888971
sg19
I4285842
sg20
S'6668.79262616'
p875
sg22
F0.75
sbasg26
I00
sg27
I00
sg28
I4285308
sg20
S'6669.02231904'
p876
sba(igraph
Edge
p877
(dp878
g7
I1
sg8
I00
sg9
I5
sg10
(lp879
g873
a(igraph
Vertex
p880
(dp881
g14
F0.5
sg8
I00
sg15
g16
sg17
F136.25
sg18
F-12.5
sg19
I4285843
sg20
S'6668.79370814'
p882
sg22
F0.75
sbasg26
I00
sg27
I00
sg28
I4285309
sg20
S'6669.02501575'
p883
sba(igraph
Edge
p884
(dp885
g7
I1
sg8
I00
sg9
I5
sg10
(lp886
g880
a(igraph
Vertex
p887
(dp888
g14
F0.55555555555555558
sg8
I00
sg15
g16
sg17
F136.25
sg18
F38.888888888888914
sg19
I4285844
sg20
S'6668.7947362'
p889
sg22
F0.75
sbasg26
I00
sg27
I00
sg28
I4285310
sg20
S'6669.02779124'
p890
sba(igraph
Edge
p891
(dp892
g7
I1
sg8
I00
sg9
I5
sg10
(lp893
g887
a(igraph
Vertex
p894
(dp895
g14
F0.61111111111111116
sg8
I00
sg15
g16
sg17
F136.25
sg18
F90.277777777777828
sg19
I4285845
sg20
S'6668.79576706'
p896
sg22
F0.75
sbasg26
I00
sg27
I00
sg28
I4285311
sg20
S'6669.03055081'
p897
sba(igraph
Edge
p898
(dp899
g7
I1
sg8
I00
sg9
I5
sg10
(lp900
g894
a(igraph
Vertex
p901
(dp902
g14
F0.66666666666666663
sg8
I00
sg15
g16
sg17
F136.25
sg18
F141.66666666666663
sg19
I4285846
sg20
S'6668.79681189'
p903
sg22
F0.75
sbasg26
I00
sg27
I00
sg28
I4285312
sg20
S'6669.03330926'
p904
sba(igraph
Edge
p905
(dp906
g7
I1
sg8
I00
sg9
I5
sg10
(lp907
g901
a(igraph
Vertex
p908
(dp909
g14
F0.7222222222222221
sg8
I00
sg15
g16
sg17
F136.25
sg18
F193.05555555555543
sg19
I4285847
sg20
S'6668.79785615'
p910
sg22
F0.75
sbasg26
I00
sg27
I00
sg28
I4285313
sg20
S'6669.03610068'
p911
sba(igraph
Edge
p912
(dp913
g7
I1
sg8
I00
sg9
I5
sg10
(lp914
g908
a(igraph
Vertex
p915
(dp916
g14
F0.77777777777777768
sg8
I00
sg15
g16
sg17
F136.25
sg18
F244.44444444444434
sg19
I4285848
sg20
S'6668.79891271'
p917
sg22
F0.75
sbasg26
I00
sg27
I00
sg28
I4285314
sg20
S'6669.03890075'
p918
sba(igraph
Edge
p919
(dp920
g7
I1
sg8
I00
sg9
I5
sg10
(lp921
g915
a(igraph
Vertex
p922
(dp923
g14
F0.83333333333333337
sg8
I00
sg15
g16
sg17
F136.25
sg18
F295.83333333333337
sg19
I4285849
sg20
S'6668.79997123'
p924
sg22
F0.75
sbasg26
I00
sg27
I00
sg28
I4285315
sg20
S'6669.04170809'
p925
sba(igraph
Edge
p926
(dp927
g7
I1
sg8
I00
sg9
I5
sg10
(lp928
g922
a(igraph
Vertex
p929
(dp930
g14
F0.88888888888888873
sg8
I00
sg15
g16
sg17
F136.25
sg18
F347.22222222222206
sg19
I4285850
sg20
S'6668.80104371'
p931
sg22
F0.75
sbasg26
I00
sg27
I00
sg28
I4285316
sg20
S'6669.04472077'
p932
sba(igraph
Edge
p933
(dp934
g7
I1
sg8
I00
sg9
I5
sg10
(lp935
g929
a(igraph
Vertex
p936
(dp937
g14
F0.94444444444444442
sg8
I00
sg15
g16
sg17
F136.25
sg18
F398.61111111111109
sg19
I4285851
sg20
S'6668.80215754'
p938
sg22
F0.75
sbasg26
I00
sg27
I00
sg28
I4285317
sg20
S'6669.04763008'
p939
sba(igraph
Edge
p940
(dp941
g7
I1
sg8
I00
sg9
I5
sg10
(lp942
g936
a(igraph
Vertex
p943
(dp944
g14
F1.0
sg8
I00
sg15
g16
sg17
F136.25
sg18
F450.0
sg19
I4285852
sg20
S'6668.80325404'
p945
sg22
F0.75
sbasg26
I00
sg27
I00
sg28
I4285318
sg20
S'6669.05051061'
p946
sba(igraph
Edge
p947
(dp948
g7
I1
sg8
I00
sg9
I5
sg10
(lp949
g943
ag821
asg26
I00
sg27
I00
sg28
I4285319
sg20
S'6669.05341377'
p950
sba(igraph
Edge
p951
(dp952
g7
I1
sg8
I00
sg9
I5
sg10
(lp953
(igraph
Vertex
p954
(dp955
g14
F0.0
sg8
I00
sg15
g16
sg17
F213.125
sg18
F-475.0
sg19
I4285853
sg20
S'6668.80435642'
p956
sg22
F0.875
sba(igraph
Vertex
p957
(dp958
g14
F0.055555555555555559
sg8
I00
sg15
g16
sg17
F213.125
sg18
F-423.61111111111109
sg19
I4285854
sg20
S'6668.80547137'
p959
sg22
F0.875
sbasg26
I00
sg27
I00
sg28
I4285320
sg20
S'6669.05633565'
p960
sba(igraph
Edge
p961
(dp962
g7
I1
sg8
I00
sg9
I5
sg10
(lp963
g957
a(igraph
Vertex
p964
(dp965
g14
F0.1111111111111111
sg8
I01
sg15
I0
sg17
F213.125
sg18
F-372.22222222222223
sg19
I4285856
sg20
S'6668.80659749'
p966
sg22
F0.875
sbasg26
I00
sg27
I00
sg28
I4285321
sg20
S'6669.0592796'
p967
sba(igraph
Edge
p968
(dp969
g7
I1
sg8
I00
sg9
I5
sg10
(lp970
g964
a(igraph
Vertex
p971
(dp972
g14
F0.1666666666666666
sg8
I00
sg15
g16
sg17
F213.125
sg18
F-320.83333333333337
sg19
I4285858
sg20
S'6668.80772696'
p973
sg22
F0.875
sbasg26
I00
sg27
I00
sg28
I4285322
sg20
S'6669.06225037'
p974
sba(igraph
Edge
p975
(dp976
g7
I1
sg8
I00
sg9
I5
sg10
(lp977
g971
a(igraph
Vertex
p978
(dp979
g14
F0.22222222222222215
sg8
I00
sg15
g16
sg17
F213.125
sg18
F-269.44444444444451
sg19
I4285859
sg20
S'6668.80886761'
p980
sg22
F0.875
sbasg26
I00
sg27
I00
sg28
I4285323
sg20
S'6669.06531137'
p981
sba(igraph
Edge
p982
(dp983
g7
I1
sg8
I00
sg9
I5
sg10
(lp984
g978
a(igraph
Vertex
p985
(dp986
g14
F0.27777777777777768
sg8
I00
sg15
g16
sg17
F213.125
sg18
F-218.05555555555566
sg19
I4285860
sg20
S'6668.81001608'
p987
sg22
F0.875
sbasg26
I00
sg27
I00
sg28
I4285324
sg20
S'6669.06834919'
p988
sba(igraph
Edge
p989
(dp990
g7
I1
sg8
I00
sg9
I5
sg10
(lp991
g985
a(igraph
Vertex
p992
(dp993
g14
F0.33333333333333326
sg8
I00
sg15
g16
sg17
F213.125
sg18
F-166.66666666666674
sg19
I4285861
sg20
S'6668.81116371'
p994
sg22
F0.875
sbasg26
I00
sg27
I00
sg28
I4285325
sg20
S'6669.0713884'
p995
sba(igraph
Edge
p996
(dp997
g7
I1
sg8
I00
sg9
I5
sg10
(lp998
g992
a(igraph
Vertex
p999
(dp1000
g14
F0.38888888888888884
sg8
I00
sg15
g16
sg17
F213.125
sg18
F-115.27777777777783
sg19
I4285862
sg20
S'6668.81232643'
p1001
sg22
F0.875
sbasg26
I00
sg27
I00
sg28
I4285326
sg20
S'6669.07444689'
p1002
sba(igraph
Edge
p1003
(dp1004
g7
I1
sg8
I00
sg9
I5
sg10
(lp1005
g999
a(igraph
Vertex
p1006
(dp1007
g14
F0.44444444444444436
sg8
I00
sg15
g16
sg17
F213.125
sg18
F-63.888888888888971
sg19
I4285863
sg20
S'6668.81350032'
p1008
sg22
F0.875
sbasg26
I00
sg27
I00
sg28
I4285327
sg20
S'6669.07757522'
p1009
sba(igraph
Edge
p1010
(dp1011
g7
I1
sg8
I00
sg9
I5
sg10
(lp1012
g1006
a(igraph
Vertex
p1013
(dp1014
g14
F0.5
sg8
I00
sg15
g16
sg17
F213.125
sg18
F-12.5
sg19
I4285864
sg20
S'6668.81468008'
p1015
sg22
F0.875
sbasg26
I00
sg27
I00
sg28
I4285328
sg20
S'6669.08073261'
p1016
sba(igraph
Edge
p1017
(dp1018
g7
I1
sg8
I00
sg9
I5
sg10
(lp1019
g1013
a(igraph
Vertex
p1020
(dp1021
g14
F0.55555555555555558
sg8
I00
sg15
g16
sg17
F213.125
sg18
F38.888888888888914
sg19
I4285865
sg20
S'6668.81590649'
p1022
sg22
F0.875
sbasg26
I00
sg27
I00
sg28
I4285329
sg20
S'6669.08387239'
p1023
sba(igraph
Edge
p1024
(dp1025
g7
I1
sg8
I00
sg9
I5
sg10
(lp1026
g1020
a(igraph
Vertex
p1027
(dp1028
g14
F0.61111111111111116
sg8
I00
sg15
g16
sg17
F213.125
sg18
F90.277777777777828
sg19
I4285866
sg20
S'6668.81710692'
p1029
sg22
F0.875
sbasg26
I00
sg27
I00
sg28
I4285330
sg20
S'6669.08703257'
p1030
sba(igraph
Edge
p1031
(dp1032
g7
I1
sg8
I00
sg9
I5
sg10
(lp1033
g1027
a(igraph
Vertex
p1034
(dp1035
g14
F0.66666666666666663
sg8
I00
sg15
g16
sg17
F213.125
sg18
F141.66666666666663
sg19
I4285867
sg20
S'6668.81833473'
p1036
sg22
F0.875
sbasg26
I00
sg27
I00
sg28
I4285331
sg20
S'6669.09021119'
p1037
sba(igraph
Edge
p1038
(dp1039
g7
I1
sg8
I00
sg9
I5
sg10
(lp1040
g1034
a(igraph
Vertex
p1041
(dp1042
g14
F0.7222222222222221
sg8
I00
sg15
g16
sg17
F213.125
sg18
F193.05555555555543
sg19
I4285868
sg20
S'6668.81954606'
p1043
sg22
F0.875
sbasg26
I00
sg27
I00
sg28
I4285332
sg20
S'6669.09346048'
p1044
sba(igraph
Edge
p1045
(dp1046
g7
I1
sg8
I00
sg9
I5
sg10
(lp1047
g1041
a(igraph
Vertex
p1048
(dp1049
g14
F0.77777777777777768
sg8
I00
sg15
g16
sg17
F213.125
sg18
F244.44444444444434
sg19
I4285869
sg20
S'6668.82079817'
p1050
sg22
F0.875
sbasg26
I00
sg27
I00
sg28
I4285333
sg20
S'6669.09672123'
p1051
sba(igraph
Edge
p1052
(dp1053
g7
I1
sg8
I00
sg9
I5
sg10
(lp1054
g1048
a(igraph
Vertex
p1055
(dp1056
g14
F0.83333333333333337
sg8
I00
sg15
g16
sg17
F213.125
sg18
F295.83333333333337
sg19
I4285870
sg20
S'6668.82202459'
p1057
sg22
F0.875
sbasg26
I00
sg27
I00
sg28
I4285334
sg20
S'6669.10000545'
p1058
sba(igraph
Edge
p1059
(dp1060
g7
I1
sg8
I00
sg9
I5
sg10
(lp1061
g1055
a(igraph
Vertex
p1062
(dp1063
g14
F0.88888888888888873
sg8
I00
sg15
g16
sg17
F213.125
sg18
F347.22222222222206
sg19
I4285871
sg20
S'6668.82326273'
p1064
sg22
F0.875
sbasg26
I00
sg27
I00
sg28
I4285335
sg20
S'6669.10328072'
p1065
sba(igraph
Edge
p1066
(dp1067
g7
I1
sg8
I00
sg9
I5
sg10
(lp1068
g1062
a(igraph
Vertex
p1069
(dp1070
g14
F0.94444444444444442
sg8
I00
sg15
g16
sg17
F213.125
sg18
F398.61111111111109
sg19
I4285872
sg20
S'6668.82450619'
p1071
sg22
F0.875
sbasg26
I00
sg27
I00
sg28
I4285336
sg20
S'6669.10664177'
p1072
sba(igraph
Edge
p1073
(dp1074
g7
I1
sg8
I00
sg9
I5
sg10
(lp1075
g1069
a(igraph
Vertex
p1076
(dp1077
g14
F1.0
sg8
I00
sg15
g16
sg17
F213.125
sg18
F450.0
sg19
I4285873
sg20
S'6668.8257745'
p1078
sg22
F0.875
sbasg26
I00
sg27
I00
sg28
I4285337
sg20
S'6669.10994638'
p1079
sba(igraph
Edge
p1080
(dp1081
g7
I1
sg8
I00
sg9
I5
sg10
(lp1082
g1076
ag954
asg26
I00
sg27
I00
sg28
I4285338
sg20
S'6669.11328702'
p1083
sba(igraph
Edge
p1084
(dp1085
g7
I1
sg8
I00
sg9
I5
sg10
(lp1086
(igraph
Vertex
p1087
(dp1088
g14
F0.0
sg8
I01
sg15
I0
sg17
F290.0
sg18
F-475.0
sg19
I4285875
sg20
S'6668.82706126'
p1089
sg22
F1.0
sba(igraph
Vertex
p1090
(dp1091
g14
F0.055555555555555559
sg8
I00
sg15
g16
sg17
F290.0
sg18
F-423.61111111111109
sg19
I4285877
sg20
S'6668.82833517'
p1092
sg22
F1.0
sbasg26
I00
sg27
I00
sg28
I4285339
sg20
S'6669.11661789'
p1093
sba(igraph
Edge
p1094
(dp1095
g7
I1
sg8
I00
sg9
I5
sg10
(lp1096
g1090
a(igraph
Vertex
p1097
(dp1098
g14
F0.1111111111111111
sg8
I00
sg15
g16
sg17
F290.0
sg18
F-372.22222222222223
sg19
I4285878
sg20
S'6668.82962136'
p1099
sg22
F1.0
sbasg26
I00
sg27
I00
sg28
I4285340
sg20
S'6669.11996497'
p1100
sba(igraph
Edge
p1101
(dp1102
g7
I1
sg8
I00
sg9
I5
sg10
(lp1103
g1097
a(igraph
Vertex
p1104
(dp1105
g14
F0.1666666666666666
sg8
I01
sg15
I0
sg17
F290.0
sg18
F-320.83333333333337
sg19
I4285880
sg20
S'6668.8309151'
p1106
sg22
F1.0
sbasg26
I00
sg27
I00
sg28
I4285341
sg20
S'6669.12343887'
p1107
sba(igraph
Edge
p1108
(dp1109
g7
I1
sg8
I00
sg9
I5
sg10
(lp1110
g1104
a(igraph
Vertex
p1111
(dp1112
g14
F0.22222222222222215
sg8
I00
sg15
g16
sg17
F290.0
sg18
F-269.44444444444451
sg19
I4285882
sg20
S'6668.8322094'
p1113
sg22
F1.0
sbasg26
I00
sg27
I00
sg28
I4285342
sg20
S'6669.12688205'
p1114
sba(igraph
Edge
p1115
(dp1116
g7
I1
sg8
I00
sg9
I5
sg10
(lp1117
g1111
a(igraph
Vertex
p1118
(dp1119
g14
F0.27777777777777768
sg8
I00
sg15
g16
sg17
F290.0
sg18
F-218.05555555555566
sg19
I4285883
sg20
S'6668.83351851'
p1120
sg22
F1.0
sbasg26
I00
sg27
I00
sg28
I4285343
sg20
S'6669.13033305'
p1121
sba(igraph
Edge
p1122
(dp1123
g7
I1
sg8
I00
sg9
I5
sg10
(lp1124
g1118
a(igraph
Vertex
p1125
(dp1126
g14
F0.33333333333333326
sg8
I00
sg15
g16
sg17
F290.0
sg18
F-166.66666666666674
sg19
I4285884
sg20
S'6668.83486309'
p1127
sg22
F1.0
sbasg26
I00
sg27
I00
sg28
I4285344
sg20
S'6669.13379019'
p1128
sba(igraph
Edge
p1129
(dp1130
g7
I1
sg8
I00
sg9
I5
sg10
(lp1131
g1125
a(igraph
Vertex
p1132
(dp1133
g14
F0.38888888888888884
sg8
I00
sg15
g16
sg17
F290.0
sg18
F-115.27777777777783
sg19
I4285885
sg20
S'6668.8361884'
p1134
sg22
F1.0
sbasg26
I00
sg27
I00
sg28
I4285345
sg20
S'6669.13727974'
p1135
sba(igraph
Edge
p1136
(dp1137
g7
I1
sg8
I00
sg9
I5
sg10
(lp1138
g1132
a(igraph
Vertex
p1139
(dp1140
g14
F0.44444444444444436
sg8
I00
sg15
g16
sg17
F290.0
sg18
F-63.888888888888971
sg19
I4285886
sg20
S'6668.83752488'
p1141
sg22
F1.0
sbasg26
I00
sg27
I00
sg28
I4285346
sg20
S'6669.14081315'
p1142
sba(igraph
Edge
p1143
(dp1144
g7
I1
sg8
I00
sg9
I5
sg10
(lp1145
g1139
a(igraph
Vertex
p1146
(dp1147
g14
F0.5
sg8
I00
sg15
g16
sg17
F290.0
sg18
F-12.5
sg19
I4285887
sg20
S'6668.83886751'
p1148
sg22
F1.0
sbasg26
I00
sg27
I00
sg28
I4285347
sg20
S'6669.14433929'
p1149
sba(igraph
Edge
p1150
(dp1151
g7
I1
sg8
I00
sg9
I5
sg10
(lp1152
g1146
a(igraph
Vertex
p1153
(dp1154
g14
F0.55555555555555558
sg8
I00
sg15
g16
sg17
F290.0
sg18
F38.888888888888914
sg19
I4285888
sg20
S'6668.84022355'
p1155
sg22
F1.0
sbasg26
I00
sg27
I00
sg28
I4285348
sg20
S'6669.14786823'
p1156
sba(igraph
Edge
p1157
(dp1158
g7
I1
sg8
I00
sg9
I5
sg10
(lp1159
g1153
a(igraph
Vertex
p1160
(dp1161
g14
F0.61111111111111116
sg8
I00
sg15
g16
sg17
F290.0
sg18
F90.277777777777828
sg19
I4285889
sg20
S'6668.84158825'
p1162
sg22
F1.0
sbasg26
I00
sg27
I00
sg28
I4285349
sg20
S'6669.15142148'
p1163
sba(igraph
Edge
p1164
(dp1165
g7
I1
sg8
I00
sg9
I5
sg10
(lp1166
g1160
a(igraph
Vertex
p1167
(dp1168
g14
F0.66666666666666663
sg8
I00
sg15
g16
sg17
F290.0
sg18
F141.66666666666663
sg19
I4285890
sg20
S'6668.84295658'
p1169
sg22
F1.0
sbasg26
I00
sg27
I00
sg28
I4285350
sg20
S'6669.15498478'
p1170
sba(igraph
Edge
p1171
(dp1172
g7
I1
sg8
I00
sg9
I5
sg10
(lp1173
g1167
a(igraph
Vertex
p1174
(dp1175
g14
F0.7222222222222221
sg8
I00
sg15
g16
sg17
F290.0
sg18
F193.05555555555543
sg19
I4285891
sg20
S'6668.84434335'
p1176
sg22
F1.0
sbasg26
I00
sg27
I00
sg28
I4285351
sg20
S'6669.15857043'
p1177
sba(igraph
Edge
p1178
(dp1179
g7
I1
sg8
I00
sg9
I5
sg10
(lp1180
g1174
a(igraph
Vertex
p1181
(dp1182
g14
F0.77777777777777768
sg8
I00
sg15
g16
sg17
F290.0
sg18
F244.44444444444434
sg19
I4285892
sg20
S'6668.84573291'
p1183
sg22
F1.0
sbasg26
I00
sg27
I00
sg28
I4285352
sg20
S'6669.16234996'
p1184
sba(igraph
Edge
p1185
(dp1186
g7
I1
sg8
I00
sg9
I5
sg10
(lp1187
g1181
a(igraph
Vertex
p1188
(dp1189
g14
F0.83333333333333337
sg8
I00
sg15
g16
sg17
F290.0
sg18
F295.83333333333337
sg19
I4285893
sg20
S'6668.84713197'
p1190
sg22
F1.0
sbasg26
I00
sg27
I00
sg28
I4285353
sg20
S'6669.16603339'
p1191
sba(igraph
Edge
p1192
(dp1193
g7
I1
sg8
I00
sg9
I5
sg10
(lp1194
g1188
a(igraph
Vertex
p1195
(dp1196
g14
F0.88888888888888873
sg8
I00
sg15
g16
sg17
F290.0
sg18
F347.22222222222206
sg19
I4285894
sg20
S'6668.84864389'
p1197
sg22
F1.0
sbasg26
I00
sg27
I00
sg28
I4285354
sg20
S'6669.16987159'
p1198
sba(igraph
Edge
p1199
(dp1200
g7
I1
sg8
I00
sg9
I5
sg10
(lp1201
g1195
a(igraph
Vertex
p1202
(dp1203
g14
F0.94444444444444442
sg8
I00
sg15
g16
sg17
F290.0
sg18
F398.61111111111109
sg19
I4285895
sg20
S'6668.85005748'
p1204
sg22
F1.0
sbasg26
I00
sg27
I00
sg28
I4285355
sg20
S'6669.17357793'
p1205
sba(igraph
Edge
p1206
(dp1207
g7
I1
sg8
I00
sg9
I5
sg10
(lp1208
g1202
a(igraph
Vertex
p1209
(dp1210
g14
F1.0
sg8
I00
sg15
g16
sg17
F290.0
sg18
F450.0
sg19
I4285896
sg20
S'6668.85151716'
p1211
sg22
F1.0
sbasg26
I00
sg27
I00
sg28
I4285356
sg20
S'6669.17726638'
p1212
sba(igraph
Edge
p1213
(dp1214
g7
I1
sg8
I00
sg9
I5
sg10
(lp1215
g1209
ag1087
asg26
I00
sg27
I00
sg28
I4285357
sg20
S'6669.18097859'
p1216
sba(igraph
Edge
p1217
(dp1218
g7
I1
sg8
I00
sg9
I5
sg10
(lp1219
g12
ag156
asg26
I00
sg27
I00
sg28
I4285358
sg20
S'6669.21570004'
p1220
sba(igraph
Edge
p1221
(dp1222
g7
I1
sg8
I00
sg9
I5
sg10
(lp1223
g23
ag156
asg26
I00
sg27
I00
sg28
I4285359
sg20
S'6669.2196335'
p1224
sba(igraph
Edge
p1225
(dp1226
g7
I1
sg8
I00
sg9
I5
sg10
(lp1227
g33
ag166
asg26
I00
sg27
I00
sg28
I4285360
sg20
S'6669.22346723'
p1228
sba(igraph
Edge
p1229
(dp1230
g7
I1
sg8
I00
sg9
I5
sg10
(lp1231
g40
ag166
asg26
I00
sg27
I00
sg28
I4285361
sg20
S'6669.22730403'
p1232
sba(igraph
Edge
p1233
(dp1234
g7
I1
sg8
I00
sg9
I5
sg10
(lp1235
g47
ag180
asg26
I00
sg27
I00
sg28
I4285362
sg20
S'6669.23123078'
p1236
sba(igraph
Edge
p1237
(dp1238
g7
I1
sg8
I00
sg9
I5
sg10
(lp1239
g54
ag180
asg26
I00
sg27
I00
sg28
I4285363
sg20
S'6669.23512318'
p1240
sba(igraph
Edge
p1241
(dp1242
g7
I1
sg8
I00
sg9
I5
sg10
(lp1243
g61
ag194
asg26
I00
sg27
I00
sg28
I4285364
sg20
S'6669.23903569'
p1244
sba(igraph
Edge
p1245
(dp1246
g7
I1
sg8
I00
sg9
I5
sg10
(lp1247
g68
ag194
asg26
I00
sg27
I00
sg28
I4285365
sg20
S'6669.24301301'
p1248
sba(igraph
Edge
p1249
(dp1250
g7
I1
sg8
I00
sg9
I5
sg10
(lp1251
g75
ag208
asg26
I00
sg27
I00
sg28
I4285366
sg20
S'6669.2471275'
p1252
sba(igraph
Edge
p1253
(dp1254
g7
I1
sg8
I00
sg9
I5
sg10
(lp1255
g82
ag208
asg26
I00
sg27
I00
sg28
I4285367
sg20
S'6669.25116712'
p1256
sba(igraph
Edge
p1257
(dp1258
g7
I1
sg8
I00
sg9
I5
sg10
(lp1259
g89
ag222
asg26
I00
sg27
I00
sg28
I4285368
sg20
S'6669.25520087'
p1260
sba(igraph
Edge
p1261
(dp1262
g7
I1
sg8
I00
sg9
I5
sg10
(lp1263
g96
ag222
asg26
I00
sg27
I00
sg28
I4285369
sg20
S'6669.25922932'
p1264
sba(igraph
Edge
p1265
(dp1266
g7
I1
sg8
I00
sg9
I5
sg10
(lp1267
g103
ag236
asg26
I00
sg27
I00
sg28
I4285370
sg20
S'6669.26322591'
p1268
sba(igraph
Edge
p1269
(dp1270
g7
I1
sg8
I00
sg9
I5
sg10
(lp1271
g110
ag236
asg26
I00
sg27
I00
sg28
I4285371
sg20
S'6669.2673432'
p1272
sba(igraph
Edge
p1273
(dp1274
g7
I1
sg8
I00
sg9
I5
sg10
(lp1275
g117
ag250
asg26
I00
sg27
I00
sg28
I4285372
sg20
S'6669.27136298'
p1276
sba(igraph
Edge
p1277
(dp1278
g7
I1
sg8
I00
sg9
I5
sg10
(lp1279
g124
ag250
asg26
I00
sg27
I00
sg28
I4285373
sg20
S'6669.27543892'
p1280
sba(igraph
Edge
p1281
(dp1282
g7
I1
sg8
I00
sg9
I5
sg10
(lp1283
g131
ag264
asg26
I00
sg27
I00
sg28
I4285374
sg20
S'6669.27953162'
p1284
sba(igraph
Edge
p1285
(dp1286
g7
I1
sg8
I00
sg9
I5
sg10
(lp1287
g138
ag264
asg26
I00
sg27
I00
sg28
I4285375
sg20
S'6669.28361957'
p1288
sba(igraph
Edge
p1289
(dp1290
g7
I1
sg8
I00
sg9
I5
sg10
(lp1291
g145
ag278
asg26
I00
sg27
I00
sg28
I4285376
sg20
S'6669.28772065'
p1292
sba(igraph
Edge
p1293
(dp1294
g7
I1
sg8
I00
sg9
I5
sg10
(lp1295
g12
ag278
asg26
I00
sg27
I00
sg28
I4285377
sg20
S'6669.29188989'
p1296
sba(igraph
Edge
p1297
(dp1298
g7
I1
sg8
I00
sg9
I5
sg10
(lp1299
g23
ag159
asg26
I00
sg27
I00
sg28
I4285378
sg20
S'6669.29605606'
p1300
sba(igraph
Edge
p1301
(dp1302
g7
I1
sg8
I00
sg9
I5
sg10
(lp1303
g33
ag159
asg26
I00
sg27
I00
sg28
I4285379
sg20
S'6669.3002295'
p1304
sba(igraph
Edge
p1305
(dp1306
g7
I1
sg8
I00
sg9
I5
sg10
(lp1307
g40
ag173
asg26
I00
sg27
I00
sg28
I4285380
sg20
S'6669.3044183'
p1308
sba(igraph
Edge
p1309
(dp1310
g7
I1
sg8
I00
sg9
I5
sg10
(lp1311
g47
ag173
asg26
I00
sg27
I00
sg28
I4285381
sg20
S'6669.30863587'
p1312
sba(igraph
Edge
p1313
(dp1314
g7
I1
sg8
I00
sg9
I5
sg10
(lp1315
g54
ag187
asg26
I00
sg27
I00
sg28
I4285382
sg20
S'6669.31291295'
p1316
sba(igraph
Edge
p1317
(dp1318
g7
I1
sg8
I00
sg9
I5
sg10
(lp1319
g61
ag187
asg26
I00
sg27
I00
sg28
I4285383
sg20
S'6669.31735821'
p1320
sba(igraph
Edge
p1321
(dp1322
g7
I1
sg8
I00
sg9
I5
sg10
(lp1323
g68
ag201
asg26
I00
sg27
I00
sg28
I4285384
sg20
S'6669.32163194'
p1324
sba(igraph
Edge
p1325
(dp1326
g7
I1
sg8
I00
sg9
I5
sg10
(lp1327
g75
ag201
asg26
I00
sg27
I00
sg28
I4285385
sg20
S'6669.3259269'
p1328
sba(igraph
Edge
p1329
(dp1330
g7
I1
sg8
I00
sg9
I5
sg10
(lp1331
g82
ag215
asg26
I00
sg27
I00
sg28
I4285386
sg20
S'6669.33035511'
p1332
sba(igraph
Edge
p1333
(dp1334
g7
I1
sg8
I00
sg9
I5
sg10
(lp1335
g89
ag215
asg26
I00
sg27
I00
sg28
I4285387
sg20
S'6669.33470623'
p1336
sba(igraph
Edge
p1337
(dp1338
g7
I1
sg8
I00
sg9
I5
sg10
(lp1339
g96
ag229
asg26
I00
sg27
I00
sg28
I4285388
sg20
S'6669.33911154'
p1340
sba(igraph
Edge
p1341
(dp1342
g7
I1
sg8
I00
sg9
I5
sg10
(lp1343
g103
ag229
asg26
I00
sg27
I00
sg28
I4285389
sg20
S'6669.34360149'
p1344
sba(igraph
Edge
p1345
(dp1346
g7
I1
sg8
I00
sg9
I5
sg10
(lp1347
g110
ag243
asg26
I00
sg27
I00
sg28
I4285390
sg20
S'6669.34804088'
p1348
sba(igraph
Edge
p1349
(dp1350
g7
I1
sg8
I00
sg9
I5
sg10
(lp1351
g117
ag243
asg26
I00
sg27
I00
sg28
I4285391
sg20
S'6669.35249284'
p1352
sba(igraph
Edge
p1353
(dp1354
g7
I1
sg8
I00
sg9
I5
sg10
(lp1355
g124
ag257
asg26
I00
sg27
I00
sg28
I4285392
sg20
S'6669.35733787'
p1356
sba(igraph
Edge
p1357
(dp1358
g7
I1
sg8
I00
sg9
I5
sg10
(lp1359
g131
ag257
asg26
I00
sg27
I00
sg28
I4285393
sg20
S'6669.36184264'
p1360
sba(igraph
Edge
p1361
(dp1362
g7
I1
sg8
I00
sg9
I5
sg10
(lp1363
g138
ag271
asg26
I00
sg27
I00
sg28
I4285394
sg20
S'6669.36637757'
p1364
sba(igraph
Edge
p1365
(dp1366
g7
I1
sg8
I00
sg9
I5
sg10
(lp1367
g145
ag271
asg26
I00
sg27
I00
sg28
I4285395
sg20
S'6669.37092033'
p1368
sba(igraph
Edge
p1369
(dp1370
g7
I1
sg8
I00
sg9
I5
sg10
(lp1371
g12
ag1087
asg26
I00
sg27
I00
sg28
I4285396
sg20
S'6669.37546643'
p1372
sba(igraph
Edge
p1373
(dp1374
g7
I1
sg8
I00
sg9
I5
sg10
(lp1375
g23
ag1097
asg26
I00
sg27
I00
sg28
I4285397
sg20
S'6669.38010445'
p1376
sba(igraph
Edge
p1377
(dp1378
g7
I1
sg8
I00
sg9
I5
sg10
(lp1379
g33
ag1097
asg26
I00
sg27
I00
sg28
I4285398
sg20
S'6669.38470783'
p1380
sba(igraph
Edge
p1381
(dp1382
g7
I1
sg8
I00
sg9
I5
sg10
(lp1383
g40
ag1111
asg26
I00
sg27
I00
sg28
I4285399
sg20
S'6669.38935842'
p1384
sba(igraph
Edge
p1385
(dp1386
g7
I1
sg8
I00
sg9
I5
sg10
(lp1387
g47
ag1111
asg26
I00
sg27
I00
sg28
I4285400
sg20
S'6669.39398834'
p1388
sba(igraph
Edge
p1389
(dp1390
g7
I1
sg8
I00
sg9
I5
sg10
(lp1391
g54
ag1125
asg26
I00
sg27
I00
sg28
I4285401
sg20
S'6669.3986381'
p1392
sba(igraph
Edge
p1393
(dp1394
g7
I1
sg8
I00
sg9
I5
sg10
(lp1395
g61
ag1125
asg26
I00
sg27
I00
sg28
I4285402
sg20
S'6669.40331523'
p1396
sba(igraph
Edge
p1397
(dp1398
g7
I1
sg8
I00
sg9
I5
sg10
(lp1399
g68
ag1139
asg26
I00
sg27
I00
sg28
I4285403
sg20
S'6669.40804544'
p1400
sba(igraph
Edge
p1401
(dp1402
g7
I1
sg8
I00
sg9
I5
sg10
(lp1403
g75
ag1139
asg26
I00
sg27
I00
sg28
I4285404
sg20
S'6669.41276419'
p1404
sba(igraph
Edge
p1405
(dp1406
g7
I1
sg8
I00
sg9
I5
sg10
(lp1407
g82
ag1153
asg26
I00
sg27
I00
sg28
I4285405
sg20
S'6669.41755363'
p1408
sba(igraph
Edge
p1409
(dp1410
g7
I1
sg8
I00
sg9
I5
sg10
(lp1411
g89
ag1153
asg26
I00
sg27
I00
sg28
I4285406
sg20
S'6669.42236374'
p1412
sba(igraph
Edge
p1413
(dp1414
g7
I1
sg8
I00
sg9
I5
sg10
(lp1415
g96
ag1167
asg26
I00
sg27
I00
sg28
I4285407
sg20
S'6669.42712943'
p1416
sba(igraph
Edge
p1417
(dp1418
g7
I1
sg8
I00
sg9
I5
sg10
(lp1419
g103
ag1167
asg26
I00
sg27
I00
sg28
I4285408
sg20
S'6669.43191802'
p1420
sba(igraph
Edge
p1421
(dp1422
g7
I1
sg8
I00
sg9
I5
sg10
(lp1423
g110
ag1181
asg26
I00
sg27
I00
sg28
I4285409
sg20
S'6669.43691335'
p1424
sba(igraph
Edge
p1425
(dp1426
g7
I1
sg8
I00
sg9
I5
sg10
(lp1427
g117
ag1181
asg26
I00
sg27
I00
sg28
I4285410
sg20
S'6669.44176145'
p1428
sba(igraph
Edge
p1429
(dp1430
g7
I1
sg8
I00
sg9
I5
sg10
(lp1431
g124
ag1195
asg26
I00
sg27
I00
sg28
I4285411
sg20
S'6669.44661319'
p1432
sba(igraph
Edge
p1433
(dp1434
g7
I1
sg8
I00
sg9
I5
sg10
(lp1435
g131
ag1195
asg26
I00
sg27
I00
sg28
I4285412
sg20
S'6669.45154845'
p1436
sba(igraph
Edge
p1437
(dp1438
g7
I1
sg8
I00
sg9
I5
sg10
(lp1439
g138
ag1209
asg26
I00
sg27
I00
sg28
I4285413
sg20
S'6669.45643147'
p1440
sba(igraph
Edge
p1441
(dp1442
g7
I1
sg8
I00
sg9
I5
sg10
(lp1443
g145
ag1209
asg26
I00
sg27
I00
sg28
I4285414
sg20
S'6669.46133321'
p1444
sba(igraph
Edge
p1445
(dp1446
g7
I1
sg8
I00
sg9
I5
sg10
(lp1447
g12
ag1090
asg26
I00
sg27
I00
sg28
I4285415
sg20
S'6669.46625032'
p1448
sba(igraph
Edge
p1449
(dp1450
g7
I1
sg8
I00
sg9
I5
sg10
(lp1451
g23
ag1090
asg26
I00
sg27
I00
sg28
I4285416
sg20
S'6669.47121045'
p1452
sba(igraph
Edge
p1453
(dp1454
g7
I1
sg8
I00
sg9
I5
sg10
(lp1455
g33
ag1104
asg26
I00
sg27
I00
sg28
I4285417
sg20
S'6669.47617477'
p1456
sba(igraph
Edge
p1457
(dp1458
g7
I1
sg8
I00
sg9
I5
sg10
(lp1459
g40
ag1104
asg26
I00
sg27
I00
sg28
I4285418
sg20
S'6669.48120445'
p1460
sba(igraph
Edge
p1461
(dp1462
g7
I1
sg8
I00
sg9
I5
sg10
(lp1463
g47
ag1118
asg26
I00
sg27
I00
sg28
I4285419
sg20
S'6669.48620425'
p1464
sba(igraph
Edge
p1465
(dp1466
g7
I1
sg8
I00
sg9
I5
sg10
(lp1467
g54
ag1118
asg26
I00
sg27
I00
sg28
I4285420
sg20
S'6669.49122444'
p1468
sba(igraph
Edge
p1469
(dp1470
g7
I1
sg8
I00
sg9
I5
sg10
(lp1471
g61
ag1132
asg26
I00
sg27
I00
sg28
I4285421
sg20
S'6669.49627145'
p1472
sba(igraph
Edge
p1473
(dp1474
g7
I1
sg8
I00
sg9
I5
sg10
(lp1475
g68
ag1132
asg26
I00
sg27
I00
sg28
I4285422
sg20
S'6669.50134109'
p1476
sba(igraph
Edge
p1477
(dp1478
g7
I1
sg8
I00
sg9
I5
sg10
(lp1479
g75
ag1146
asg26
I00
sg27
I00
sg28
I4285423
sg20
S'6669.50646493'
p1480
sba(igraph
Edge
p1481
(dp1482
g7
I1
sg8
I00
sg9
I5
sg10
(lp1483
g82
ag1146
asg26
I00
sg27
I00
sg28
I4285424
sg20
S'6669.51166056'
p1484
sba(igraph
Edge
p1485
(dp1486
g7
I1
sg8
I00
sg9
I5
sg10
(lp1487
g89
ag1160
asg26
I00
sg27
I00
sg28
I4285425
sg20
S'6669.51683049'
p1488
sba(igraph
Edge
p1489
(dp1490
g7
I1
sg8
I00
sg9
I5
sg10
(lp1491
g96
ag1160
asg26
I00
sg27
I00
sg28
I4285426
sg20
S'6669.52197751'
p1492
sba(igraph
Edge
p1493
(dp1494
g7
I1
sg8
I00
sg9
I5
sg10
(lp1495
g103
ag1174
asg26
I00
sg27
I00
sg28
I4285427
sg20
S'6669.52717454'
p1496
sba(igraph
Edge
p1497
(dp1498
g7
I1
sg8
I00
sg9
I5
sg10
(lp1499
g110
ag1174
asg26
I00
sg27
I00
sg28
I4285428
sg20
S'6669.53238833'
p1500
sba(igraph
Edge
p1501
(dp1502
g7
I1
sg8
I00
sg9
I5
sg10
(lp1503
g117
ag1188
asg26
I00
sg27
I00
sg28
I4285429
sg20
S'6669.53772253'
p1504
sba(igraph
Edge
p1505
(dp1506
g7
I1
sg8
I00
sg9
I5
sg10
(lp1507
g124
ag1188
asg26
I00
sg27
I00
sg28
I4285430
sg20
S'6669.54313523'
p1508
sba(igraph
Edge
p1509
(dp1510
g7
I1
sg8
I00
sg9
I5
sg10
(lp1511
g131
ag1202
asg26
I00
sg27
I00
sg28
I4285431
sg20
S'6669.54844624'
p1512
sba(igraph
Edge
p1513
(dp1514
g7
I1
sg8
I00
sg9
I5
sg10
(lp1515
g138
ag1202
asg26
I00
sg27
I00
sg28
I4285432
sg20
S'6669.55376563'
p1516
sba(igraph
Edge
p1517
(dp1518
g7
I1
sg8
I00
sg9
I5
sg10
(lp1519
g145
ag1087
asg26
I00
sg27
I00
sg28
I4285433
sg20
S'6669.55910542'
p1520
sba(igraph
Edge
p1521
(dp1522
g7
I1
sg8
I00
sg9
I5
sg10
(lp1523
g156
ag289
asg26
I00
sg27
I00
sg28
I4285434
sg20
S'6669.56451476'
p1524
sba(igraph
Edge
p1525
(dp1526
g7
I1
sg8
I00
sg9
I5
sg10
(lp1527
g159
ag289
asg26
I00
sg27
I00
sg28
I4285435
sg20
S'6669.57002831'
p1528
sba(igraph
Edge
p1529
(dp1530
g7
I1
sg8
I00
sg9
I5
sg10
(lp1531
g166
ag299
asg26
I00
sg27
I00
sg28
I4285436
sg20
S'6669.57557371'
p1532
sba(igraph
Edge
p1533
(dp1534
g7
I1
sg8
I00
sg9
I5
sg10
(lp1535
g173
ag299
asg26
I00
sg27
I00
sg28
I4285437
sg20
S'6669.58105877'
p1536
sba(igraph
Edge
p1537
(dp1538
g7
I1
sg8
I00
sg9
I5
sg10
(lp1539
g180
ag313
asg26
I00
sg27
I00
sg28
I4285438
sg20
S'6669.58647398'
p1540
sba(igraph
Edge
p1541
(dp1542
g7
I1
sg8
I00
sg9
I5
sg10
(lp1543
g187
ag313
asg26
I00
sg27
I00
sg28
I4285439
sg20
S'6669.59193501'
p1544
sba(igraph
Edge
p1545
(dp1546
g7
I1
sg8
I00
sg9
I5
sg10
(lp1547
g194
ag327
asg26
I00
sg27
I00
sg28
I4285440
sg20
S'6669.59771479'
p1548
sba(igraph
Edge
p1549
(dp1550
g7
I1
sg8
I00
sg9
I5
sg10
(lp1551
g201
ag327
asg26
I00
sg27
I00
sg28
I4285441
sg20
S'6669.60373679'
p1552
sba(igraph
Edge
p1553
(dp1554
g7
I1
sg8
I00
sg9
I5
sg10
(lp1555
g208
ag341
asg26
I00
sg27
I00
sg28
I4285442
sg20
S'6669.60939253'
p1556
sba(igraph
Edge
p1557
(dp1558
g7
I1
sg8
I00
sg9
I5
sg10
(lp1559
g215
ag341
asg26
I00
sg27
I00
sg28
I4285443
sg20
S'6669.61517455'
p1560
sba(igraph
Edge
p1561
(dp1562
g7
I1
sg8
I00
sg9
I5
sg10
(lp1563
g222
ag355
asg26
I00
sg27
I00
sg28
I4285444
sg20
S'6669.62078951'
p1564
sba(igraph
Edge
p1565
(dp1566
g7
I1
sg8
I00
sg9
I5
sg10
(lp1567
g229
ag355
asg26
I00
sg27
I00
sg28
I4285445
sg20
S'6669.62662126'
p1568
sba(igraph
Edge
p1569
(dp1570
g7
I1
sg8
I00
sg9
I5
sg10
(lp1571
g236
ag369
asg26
I00
sg27
I00
sg28
I4285446
sg20
S'6669.63306565'
p1572
sba(igraph
Edge
p1573
(dp1574
g7
I1
sg8
I00
sg9
I5
sg10
(lp1575
g243
ag369
asg26
I00
sg27
I00
sg28
I4285447
sg20
S'6669.63938406'
p1576
sba(igraph
Edge
p1577
(dp1578
g7
I1
sg8
I00
sg9
I5
sg10
(lp1579
g250
ag383
asg26
I00
sg27
I00
sg28
I4285448
sg20
S'6669.64572844'
p1580
sba(igraph
Edge
p1581
(dp1582
g7
I1
sg8
I00
sg9
I5
sg10
(lp1583
g257
ag383
asg26
I00
sg27
I00
sg28
I4285449
sg20
S'6669.65151102'
p1584
sba(igraph
Edge
p1585
(dp1586
g7
I1
sg8
I00
sg9
I5
sg10
(lp1587
g264
ag397
asg26
I00
sg27
I00
sg28
I4285450
sg20
S'6669.65736567'
p1588
sba(igraph
Edge
p1589
(dp1590
g7
I1
sg8
I00
sg9
I5
sg10
(lp1591
g271
ag397
asg26
I00
sg27
I00
sg28
I4285451
sg20
S'6669.6631273'
p1592
sba(igraph
Edge
p1593
(dp1594
g7
I1
sg8
I00
sg9
I5
sg10
(lp1595
g278
ag411
asg26
I00
sg27
I00
sg28
I4285452
sg20
S'6669.66902414'
p1596
sba(igraph
Edge
p1597
(dp1598
g7
I1
sg8
I00
sg9
I5
sg10
(lp1599
g156
ag411
asg26
I00
sg27
I00
sg28
I4285453
sg20
S'6669.67487376'
p1600
sba(igraph
Edge
p1601
(dp1602
g7
I1
sg8
I00
sg9
I5
sg10
(lp1603
g159
ag292
asg26
I00
sg27
I00
sg28
I4285454
sg20
S'6669.68071333'
p1604
sba(igraph
Edge
p1605
(dp1606
g7
I1
sg8
I00
sg9
I5
sg10
(lp1607
g166
ag292
asg26
I00
sg27
I00
sg28
I4285455
sg20
S'6669.68656771'
p1608
sba(igraph
Edge
p1609
(dp1610
g7
I1
sg8
I00
sg9
I5
sg10
(lp1611
g173
ag306
asg26
I00
sg27
I00
sg28
I4285456
sg20
S'6669.69250421'
p1612
sba(igraph
Edge
p1613
(dp1614
g7
I1
sg8
I00
sg9
I5
sg10
(lp1615
g180
ag306
asg26
I00
sg27
I00
sg28
I4285457
sg20
S'6669.69851727'
p1616
sba(igraph
Edge
p1617
(dp1618
g7
I1
sg8
I00
sg9
I5
sg10
(lp1619
g187
ag320
asg26
I00
sg27
I00
sg28
I4285458
sg20
S'6669.70445741'
p1620
sba(igraph
Edge
p1621
(dp1622
g7
I1
sg8
I00
sg9
I5
sg10
(lp1623
g194
ag320
asg26
I00
sg27
I00
sg28
I4285459
sg20
S'6669.71042996'
p1624
sba(igraph
Edge
p1625
(dp1626
g7
I1
sg8
I00
sg9
I5
sg10
(lp1627
g201
ag334
asg26
I00
sg27
I00
sg28
I4285460
sg20
S'6669.71642569'
p1628
sba(igraph
Edge
p1629
(dp1630
g7
I1
sg8
I00
sg9
I5
sg10
(lp1631
g208
ag334
asg26
I00
sg27
I00
sg28
I4285461
sg20
S'6669.72247534'
p1632
sba(igraph
Edge
p1633
(dp1634
g7
I1
sg8
I00
sg9
I5
sg10
(lp1635
g215
ag348
asg26
I00
sg27
I00
sg28
I4285462
sg20
S'6669.72847862'
p1636
sba(igraph
Edge
p1637
(dp1638
g7
I1
sg8
I00
sg9
I5
sg10
(lp1639
g222
ag348
asg26
I00
sg27
I00
sg28
I4285463
sg20
S'6669.73591308'
p1640
sba(igraph
Edge
p1641
(dp1642
g7
I1
sg8
I00
sg9
I5
sg10
(lp1643
g229
ag362
asg26
I00
sg27
I00
sg28
I4285464
sg20
S'6669.74200799'
p1644
sba(igraph
Edge
p1645
(dp1646
g7
I1
sg8
I00
sg9
I5
sg10
(lp1647
g236
ag362
asg26
I00
sg27
I00
sg28
I4285465
sg20
S'6669.7482018'
p1648
sba(igraph
Edge
p1649
(dp1650
g7
I1
sg8
I00
sg9
I5
sg10
(lp1651
g243
ag376
asg26
I00
sg27
I00
sg28
I4285466
sg20
S'6669.75433889'
p1652
sba(igraph
Edge
p1653
(dp1654
g7
I1
sg8
I00
sg9
I5
sg10
(lp1655
g250
ag376
asg26
I00
sg27
I00
sg28
I4285467
sg20
S'6669.7604947'
p1656
sba(igraph
Edge
p1657
(dp1658
g7
I1
sg8
I00
sg9
I5
sg10
(lp1659
g257
ag390
asg26
I00
sg27
I00
sg28
I4285468
sg20
S'6669.7667427'
p1660
sba(igraph
Edge
p1661
(dp1662
g7
I1
sg8
I00
sg9
I5
sg10
(lp1663
g264
ag390
asg26
I00
sg27
I00
sg28
I4285469
sg20
S'6669.77292337'
p1664
sba(igraph
Edge
p1665
(dp1666
g7
I1
sg8
I00
sg9
I5
sg10
(lp1667
g271
ag404
asg26
I00
sg27
I00
sg28
I4285470
sg20
S'6669.77929597'
p1668
sba(igraph
Edge
p1669
(dp1670
g7
I1
sg8
I00
sg9
I5
sg10
(lp1671
g278
ag404
asg26
I00
sg27
I00
sg28
I4285471
sg20
S'6669.78547693'
p1672
sba(igraph
Edge
p1673
(dp1674
g7
I1
sg8
I00
sg9
I5
sg10
(lp1675
g289
ag422
asg26
I00
sg27
I00
sg28
I4285472
sg20
S'6669.79174672'
p1676
sba(igraph
Edge
p1677
(dp1678
g7
I1
sg8
I00
sg9
I5
sg10
(lp1679
g292
ag422
asg26
I00
sg27
I00
sg28
I4285473
sg20
S'6669.79806121'
p1680
sba(igraph
Edge
p1681
(dp1682
g7
I1
sg8
I00
sg9
I5
sg10
(lp1683
g299
ag432
asg26
I00
sg27
I00
sg28
I4285474
sg20
S'6669.80433211'
p1684
sba(igraph
Edge
p1685
(dp1686
g7
I1
sg8
I00
sg9
I5
sg10
(lp1687
g306
ag432
asg26
I00
sg27
I00
sg28
I4285475
sg20
S'6669.81062705'
p1688
sba(igraph
Edge
p1689
(dp1690
g7
I1
sg8
I00
sg9
I5
sg10
(lp1691
g313
ag446
asg26
I00
sg27
I00
sg28
I4285476
sg20
S'6669.81707424'
p1692
sba(igraph
Edge
p1693
(dp1694
g7
I1
sg8
I00
sg9
I5
sg10
(lp1695
g320
ag446
asg26
I00
sg27
I00
sg28
I4285477
sg20
S'6669.82341918'
p1696
sba(igraph
Edge
p1697
(dp1698
g7
I1
sg8
I00
sg9
I5
sg10
(lp1699
g327
ag460
asg26
I00
sg27
I00
sg28
I4285478
sg20
S'6669.82982558'
p1700
sba(igraph
Edge
p1701
(dp1702
g7
I1
sg8
I00
sg9
I5
sg10
(lp1703
g334
ag460
asg26
I00
sg27
I00
sg28
I4285479
sg20
S'6669.83618784'
p1704
sba(igraph
Edge
p1705
(dp1706
g7
I1
sg8
I00
sg9
I5
sg10
(lp1707
g341
ag474
asg26
I00
sg27
I00
sg28
I4285480
sg20
S'6669.8426029'
p1708
sba(igraph
Edge
p1709
(dp1710
g7
I1
sg8
I00
sg9
I5
sg10
(lp1711
g348
ag474
asg26
I00
sg27
I00
sg28
I4285481
sg20
S'6669.84903584'
p1712
sba(igraph
Edge
p1713
(dp1714
g7
I1
sg8
I00
sg9
I5
sg10
(lp1715
g355
ag488
asg26
I00
sg27
I00
sg28
I4285482
sg20
S'6669.8556283'
p1716
sba(igraph
Edge
p1717
(dp1718
g7
I1
sg8
I00
sg9
I5
sg10
(lp1719
g362
ag488
asg26
I00
sg27
I00
sg28
I4285483
sg20
S'6669.86207633'
p1720
sba(igraph
Edge
p1721
(dp1722
g7
I1
sg8
I00
sg9
I5
sg10
(lp1723
g369
ag502
asg26
I00
sg27
I00
sg28
I4285484
sg20
S'6669.86855005'
p1724
sba(igraph
Edge
p1725
(dp1726
g7
I1
sg8
I00
sg9
I5
sg10
(lp1727
g376
ag502
asg26
I00
sg27
I00
sg28
I4285485
sg20
S'6669.87574147'
p1728
sba(igraph
Edge
p1729
(dp1730
g7
I1
sg8
I00
sg9
I5
sg10
(lp1731
g383
ag516
asg26
I00
sg27
I00
sg28
I4285486
sg20
S'6669.88229901'
p1732
sba(igraph
Edge
p1733
(dp1734
g7
I1
sg8
I00
sg9
I5
sg10
(lp1735
g390
ag516
asg26
I00
sg27
I00
sg28
I4285487
sg20
S'6669.88887806'
p1736
sba(igraph
Edge
p1737
(dp1738
g7
I1
sg8
I00
sg9
I5
sg10
(lp1739
g397
ag530
asg26
I00
sg27
I00
sg28
I4285488
sg20
S'6669.89553505'
p1740
sba(igraph
Edge
p1741
(dp1742
g7
I1
sg8
I00
sg9
I5
sg10
(lp1743
g404
ag530
asg26
I00
sg27
I00
sg28
I4285489
sg20
S'6669.9022278'
p1744
sba(igraph
Edge
p1745
(dp1746
g7
I1
sg8
I00
sg9
I5
sg10
(lp1747
g411
ag544
asg26
I00
sg27
I00
sg28
I4285490
sg20
S'6669.90885713'
p1748
sba(igraph
Edge
p1749
(dp1750
g7
I1
sg8
I00
sg9
I5
sg10
(lp1751
g289
ag544
asg26
I00
sg27
I00
sg28
I4285491
sg20
S'6669.91549568'
p1752
sba(igraph
Edge
p1753
(dp1754
g7
I1
sg8
I00
sg9
I5
sg10
(lp1755
g292
ag425
asg26
I00
sg27
I00
sg28
I4285492
sg20
S'6669.92574168'
p1756
sba(igraph
Edge
p1757
(dp1758
g7
I1
sg8
I00
sg9
I5
sg10
(lp1759
g299
ag425
asg26
I00
sg27
I00
sg28
I4285493
sg20
S'6669.93296774'
p1760
sba(igraph
Edge
p1761
(dp1762
g7
I1
sg8
I00
sg9
I5
sg10
(lp1763
g306
ag439
asg26
I00
sg27
I00
sg28
I4285494
sg20
S'6669.94107268'
p1764
sba(igraph
Edge
p1765
(dp1766
g7
I1
sg8
I00
sg9
I5
sg10
(lp1767
g313
ag439
asg26
I00
sg27
I00
sg28
I4285495
sg20
S'6669.94854374'
p1768
sba(igraph
Edge
p1769
(dp1770
g7
I1
sg8
I00
sg9
I5
sg10
(lp1771
g320
ag453
asg26
I00
sg27
I00
sg28
I4285496
sg20
S'6669.95582539'
p1772
sba(igraph
Edge
p1773
(dp1774
g7
I1
sg8
I00
sg9
I5
sg10
(lp1775
g327
ag453
asg26
I00
sg27
I00
sg28
I4285497
sg20
S'6669.96338082'
p1776
sba(igraph
Edge
p1777
(dp1778
g7
I1
sg8
I00
sg9
I5
sg10
(lp1779
g334
ag467
asg26
I00
sg27
I00
sg28
I4285498
sg20
S'6669.97116282'
p1780
sba(igraph
Edge
p1781
(dp1782
g7
I1
sg8
I00
sg9
I5
sg10
(lp1783
g341
ag467
asg26
I00
sg27
I00
sg28
I4285499
sg20
S'6669.97890179'
p1784
sba(igraph
Edge
p1785
(dp1786
g7
I1
sg8
I00
sg9
I5
sg10
(lp1787
g348
ag481
asg26
I00
sg27
I00
sg28
I4285500
sg20
S'6669.98799065'
p1788
sba(igraph
Edge
p1789
(dp1790
g7
I1
sg8
I00
sg9
I5
sg10
(lp1791
g355
ag481
asg26
I00
sg27
I00
sg28
I4285501
sg20
S'6669.99565531'
p1792
sba(igraph
Edge
p1793
(dp1794
g7
I1
sg8
I00
sg9
I5
sg10
(lp1795
g362
ag495
asg26
I00
sg27
I00
sg28
I4285502
sg20
S'6670.00326019'
p1796
sba(igraph
Edge
p1797
(dp1798
g7
I1
sg8
I00
sg9
I5
sg10
(lp1799
g369
ag495
asg26
I00
sg27
I00
sg28
I4285503
sg20
S'6670.01171797'
p1800
sba(igraph
Edge
p1801
(dp1802
g7
I1
sg8
I00
sg9
I5
sg10
(lp1803
g376
ag509
asg26
I00
sg27
I00
sg28
I4285504
sg20
S'6670.02031767'
p1804
sba(igraph
Edge
p1805
(dp1806
g7
I1
sg8
I00
sg9
I5
sg10
(lp1807
g383
ag509
asg26
I00
sg27
I00
sg28
I4285505
sg20
S'6670.02957778'
p1808
sba(igraph
Edge
p1809
(dp1810
g7
I1
sg8
I00
sg9
I5
sg10
(lp1811
g390
ag523
asg26
I00
sg27
I00
sg28
I4285506
sg20
S'6670.03842276'
p1812
sba(igraph
Edge
p1813
(dp1814
g7
I1
sg8
I00
sg9
I5
sg10
(lp1815
g397
ag523
asg26
I00
sg27
I00
sg28
I4285507
sg20
S'6670.04749626'
p1816
sba(igraph
Edge
p1817
(dp1818
g7
I1
sg8
I00
sg9
I5
sg10
(lp1819
g404
ag537
asg26
I00
sg27
I00
sg28
I4285508
sg20
S'6670.05671726'
p1820
sba(igraph
Edge
p1821
(dp1822
g7
I1
sg8
I00
sg9
I5
sg10
(lp1823
g411
ag537
asg26
I00
sg27
I00
sg28
I4285509
sg20
S'6670.06515744'
p1824
sba(igraph
Edge
p1825
(dp1826
g7
I1
sg8
I00
sg9
I5
sg10
(lp1827
g422
ag555
asg26
I00
sg27
I00
sg28
I4285510
sg20
S'6670.07309197'
p1828
sba(igraph
Edge
p1829
(dp1830
g7
I1
sg8
I00
sg9
I5
sg10
(lp1831
g425
ag555
asg26
I00
sg27
I00
sg28
I4285511
sg20
S'6670.08105974'
p1832
sba(igraph
Edge
p1833
(dp1834
g7
I1
sg8
I00
sg9
I5
sg10
(lp1835
g432
ag565
asg26
I00
sg27
I00
sg28
I4285512
sg20
S'6670.08909931'
p1836
sba(igraph
Edge
p1837
(dp1838
g7
I1
sg8
I00
sg9
I5
sg10
(lp1839
g439
ag565
asg26
I00
sg27
I00
sg28
I4285513
sg20
S'6670.09731265'
p1840
sba(igraph
Edge
p1841
(dp1842
g7
I1
sg8
I00
sg9
I5
sg10
(lp1843
g446
ag579
asg26
I00
sg27
I00
sg28
I4285514
sg20
S'6670.10541563'
p1844
sba(igraph
Edge
p1845
(dp1846
g7
I1
sg8
I00
sg9
I5
sg10
(lp1847
g453
ag579
asg26
I00
sg27
I00
sg28
I4285515
sg20
S'6670.11340296'
p1848
sba(igraph
Edge
p1849
(dp1850
g7
I1
sg8
I00
sg9
I5
sg10
(lp1851
g460
ag593
asg26
I00
sg27
I00
sg28
I4285516
sg20
S'6670.12106986'
p1852
sba(igraph
Edge
p1853
(dp1854
g7
I1
sg8
I00
sg9
I5
sg10
(lp1855
g467
ag593
asg26
I00
sg27
I00
sg28
I4285517
sg20
S'6670.12872502'
p1856
sba(igraph
Edge
p1857
(dp1858
g7
I1
sg8
I00
sg9
I5
sg10
(lp1859
g474
ag607
asg26
I00
sg27
I00
sg28
I4285518
sg20
S'6670.13632934'
p1860
sba(igraph
Edge
p1861
(dp1862
g7
I1
sg8
I00
sg9
I5
sg10
(lp1863
g481
ag607
asg26
I00
sg27
I00
sg28
I4285519
sg20
S'6670.14597246'
p1864
sba(igraph
Edge
p1865
(dp1866
g7
I1
sg8
I00
sg9
I5
sg10
(lp1867
g488
ag621
asg26
I00
sg27
I00
sg28
I4285520
sg20
S'6670.15527672'
p1868
sba(igraph
Edge
p1869
(dp1870
g7
I1
sg8
I00
sg9
I5
sg10
(lp1871
g495
ag621
asg26
I00
sg27
I00
sg28
I4285521
sg20
S'6670.16447984'
p1872
sba(igraph
Edge
p1873
(dp1874
g7
I1
sg8
I00
sg9
I5
sg10
(lp1875
g502
ag635
asg26
I00
sg27
I00
sg28
I4285522
sg20
S'6670.1725778'
p1876
sba(igraph
Edge
p1877
(dp1878
g7
I1
sg8
I00
sg9
I5
sg10
(lp1879
g509
ag635
asg26
I00
sg27
I00
sg28
I4285523
sg20
S'6670.18100429'
p1880
sba(igraph
Edge
p1881
(dp1882
g7
I1
sg8
I00
sg9
I5
sg10
(lp1883
g516
ag649
asg26
I00
sg27
I00
sg28
I4285524
sg20
S'6670.19070552'
p1884
sba(igraph
Edge
p1885
(dp1886
g7
I1
sg8
I00
sg9
I5
sg10
(lp1887
g523
ag649
asg26
I00
sg27
I00
sg28
I4285525
sg20
S'6670.19996368'
p1888
sba(igraph
Edge
p1889
(dp1890
g7
I1
sg8
I00
sg9
I5
sg10
(lp1891
g530
ag663
asg26
I00
sg27
I00
sg28
I4285526
sg20
S'6670.20769958'
p1892
sba(igraph
Edge
p1893
(dp1894
g7
I1
sg8
I00
sg9
I5
sg10
(lp1895
g537
ag663
asg26
I00
sg27
I00
sg28
I4285527
sg20
S'6670.21723571'
p1896
sba(igraph
Edge
p1897
(dp1898
g7
I1
sg8
I00
sg9
I5
sg10
(lp1899
g544
ag677
asg26
I00
sg27
I00
sg28
I4285528
sg20
S'6670.22594045'
p1900
sba(igraph
Edge
p1901
(dp1902
g7
I1
sg8
I00
sg9
I5
sg10
(lp1903
g422
ag677
asg26
I00
sg27
I00
sg28
I4285529
sg20
S'6670.23443762'
p1904
sba(igraph
Edge
p1905
(dp1906
g7
I1
sg8
I00
sg9
I5
sg10
(lp1907
g425
ag558
asg26
I00
sg27
I00
sg28
I4285530
sg20
S'6670.24257245'
p1908
sba(igraph
Edge
p1909
(dp1910
g7
I1
sg8
I00
sg9
I5
sg10
(lp1911
g432
ag558
asg26
I00
sg27
I00
sg28
I4285531
sg20
S'6670.25070505'
p1912
sba(igraph
Edge
p1913
(dp1914
g7
I1
sg8
I00
sg9
I5
sg10
(lp1915
g439
ag572
asg26
I00
sg27
I00
sg28
I4285532
sg20
S'6670.2588681'
p1916
sba(igraph
Edge
p1917
(dp1918
g7
I1
sg8
I00
sg9
I5
sg10
(lp1919
g446
ag572
asg26
I00
sg27
I00
sg28
I4285533
sg20
S'6670.26703953'
p1920
sba(igraph
Edge
p1921
(dp1922
g7
I1
sg8
I00
sg9
I5
sg10
(lp1923
g453
ag586
asg26
I00
sg27
I00
sg28
I4285534
sg20
S'6670.27496539'
p1924
sba(igraph
Edge
p1925
(dp1926
g7
I1
sg8
I00
sg9
I5
sg10
(lp1927
g460
ag586
asg26
I00
sg27
I00
sg28
I4285535
sg20
S'6670.28328796'
p1928
sba(igraph
Edge
p1929
(dp1930
g7
I1
sg8
I00
sg9
I5
sg10
(lp1931
g467
ag600
asg26
I00
sg27
I00
sg28
I4285536
sg20
S'6670.29278246'
p1932
sba(igraph
Edge
p1933
(dp1934
g7
I1
sg8
I00
sg9
I5
sg10
(lp1935
g474
ag600
asg26
I00
sg27
I00
sg28
I4285537
sg20
S'6670.30167158'
p1936
sba(igraph
Edge
p1937
(dp1938
g7
I1
sg8
I00
sg9
I5
sg10
(lp1939
g481
ag614
asg26
I00
sg27
I00
sg28
I4285538
sg20
S'6670.31077805'
p1940
sba(igraph
Edge
p1941
(dp1942
g7
I1
sg8
I00
sg9
I5
sg10
(lp1943
g488
ag614
asg26
I00
sg27
I00
sg28
I4285539
sg20
S'6670.3204072'
p1944
sba(igraph
Edge
p1945
(dp1946
g7
I1
sg8
I00
sg9
I5
sg10
(lp1947
g495
ag628
asg26
I00
sg27
I00
sg28
I4285540
sg20
S'6670.3301319'
p1948
sba(igraph
Edge
p1949
(dp1950
g7
I1
sg8
I00
sg9
I5
sg10
(lp1951
g502
ag628
asg26
I00
sg27
I00
sg28
I4285541
sg20
S'6670.34004964'
p1952
sba(igraph
Edge
p1953
(dp1954
g7
I1
sg8
I00
sg9
I5
sg10
(lp1955
g509
ag642
asg26
I00
sg27
I00
sg28
I4285542
sg20
S'6670.34999225'
p1956
sba(igraph
Edge
p1957
(dp1958
g7
I1
sg8
I00
sg9
I5
sg10
(lp1959
g516
ag642
asg26
I00
sg27
I00
sg28
I4285543
sg20
S'6670.3596946'
p1960
sba(igraph
Edge
p1961
(dp1962
g7
I1
sg8
I00
sg9
I5
sg10
(lp1963
g523
ag656
asg26
I00
sg27
I00
sg28
I4285544
sg20
S'6670.36819819'
p1964
sba(igraph
Edge
p1965
(dp1966
g7
I1
sg8
I00
sg9
I5
sg10
(lp1967
g530
ag656
asg26
I00
sg27
I00
sg28
I4285545
sg20
S'6670.37706776'
p1968
sba(igraph
Edge
p1969
(dp1970
g7
I1
sg8
I00
sg9
I5
sg10
(lp1971
g537
ag670
asg26
I00
sg27
I00
sg28
I4285546
sg20
S'6670.38608818'
p1972
sba(igraph
Edge
p1973
(dp1974
g7
I1
sg8
I00
sg9
I5
sg10
(lp1975
g544
ag670
asg26
I00
sg27
I00
sg28
I4285547
sg20
S'6670.39563548'
p1976
sba(igraph
Edge
p1977
(dp1978
g7
I1
sg8
I00
sg9
I5
sg10
(lp1979
g555
ag688
asg26
I00
sg27
I00
sg28
I4285548
sg20
S'6670.40422288'
p1980
sba(igraph
Edge
p1981
(dp1982
g7
I1
sg8
I00
sg9
I5
sg10
(lp1983
g558
ag688
asg26
I00
sg27
I00
sg28
I4285549
sg20
S'6670.41277257'
p1984
sba(igraph
Edge
p1985
(dp1986
g7
I1
sg8
I00
sg9
I5
sg10
(lp1987
g565
ag698
asg26
I00
sg27
I00
sg28
I4285550
sg20
S'6670.42303226'
p1988
sba(igraph
Edge
p1989
(dp1990
g7
I1
sg8
I00
sg9
I5
sg10
(lp1991
g572
ag698
asg26
I00
sg27
I00
sg28
I4285551
sg20
S'6670.43325479'
p1992
sba(igraph
Edge
p1993
(dp1994
g7
I1
sg8
I00
sg9
I5
sg10
(lp1995
g579
ag712
asg26
I00
sg27
I00
sg28
I4285552
sg20
S'6670.44382205'
p1996
sba(igraph
Edge
p1997
(dp1998
g7
I1
sg8
I00
sg9
I5
sg10
(lp1999
g586
ag712
asg26
I00
sg27
I00
sg28
I4285553
sg20
S'6670.45402363'
p2000
sba(igraph
Edge
p2001
(dp2002
g7
I1
sg8
I00
sg9
I5
sg10
(lp2003
g593
ag726
asg26
I00
sg27
I00
sg28
I4285554
sg20
S'6670.46413664'
p2004
sba(igraph
Edge
p2005
(dp2006
g7
I1
sg8
I00
sg9
I5
sg10
(lp2007
g600
ag726
asg26
I00
sg27
I00
sg28
I4285555
sg20
S'6670.47443879'
p2008
sba(igraph
Edge
p2009
(dp2010
g7
I1
sg8
I00
sg9
I5
sg10
(lp2011
g607
ag740
asg26
I00
sg27
I00
sg28
I4285556
sg20
S'6670.48381149'
p2012
sba(igraph
Edge
p2013
(dp2014
g7
I1
sg8
I00
sg9
I5
sg10
(lp2015
g614
ag740
asg26
I00
sg27
I00
sg28
I4285557
sg20
S'6670.49307747'
p2016
sba(igraph
Edge
p2017
(dp2018
g7
I1
sg8
I00
sg9
I5
sg10
(lp2019
g621
ag754
asg26
I00
sg27
I00
sg28
I4285558
sg20
S'6670.50218813'
p2020
sba(igraph
Edge
p2021
(dp2022
g7
I1
sg8
I00
sg9
I5
sg10
(lp2023
g628
ag754
asg26
I00
sg27
I00
sg28
I4285559
sg20
S'6670.51178879'
p2024
sba(igraph
Edge
p2025
(dp2026
g7
I1
sg8
I00
sg9
I5
sg10
(lp2027
g635
ag768
asg26
I00
sg27
I00
sg28
I4285560
sg20
S'6670.52060974'
p2028
sba(igraph
Edge
p2029
(dp2030
g7
I1
sg8
I00
sg9
I5
sg10
(lp2031
g642
ag768
asg26
I00
sg27
I00
sg28
I4285561
sg20
S'6670.52958127'
p2032
sba(igraph
Edge
p2033
(dp2034
g7
I1
sg8
I00
sg9
I5
sg10
(lp2035
g649
ag782
asg26
I00
sg27
I00
sg28
I4285562
sg20
S'6670.53800218'
p2036
sba(igraph
Edge
p2037
(dp2038
g7
I1
sg8
I00
sg9
I5
sg10
(lp2039
g656
ag782
asg26
I00
sg27
I00
sg28
I4285563
sg20
S'6670.54635044'
p2040
sba(igraph
Edge
p2041
(dp2042
g7
I1
sg8
I00
sg9
I5
sg10
(lp2043
g663
ag796
asg26
I00
sg27
I00
sg28
I4285564
sg20
S'6670.55460261'
p2044
sba(igraph
Edge
p2045
(dp2046
g7
I1
sg8
I00
sg9
I5
sg10
(lp2047
g670
ag796
asg26
I00
sg27
I00
sg28
I4285565
sg20
S'6670.56289361'
p2048
sba(igraph
Edge
p2049
(dp2050
g7
I1
sg8
I00
sg9
I5
sg10
(lp2051
g677
ag810
asg26
I00
sg27
I00
sg28
I4285566
sg20
S'6670.57123322'
p2052
sba(igraph
Edge
p2053
(dp2054
g7
I1
sg8
I00
sg9
I5
sg10
(lp2055
g555
ag810
asg26
I00
sg27
I00
sg28
I4285567
sg20
S'6670.57954796'
p2056
sba(igraph
Edge
p2057
(dp2058
g7
I1
sg8
I00
sg9
I5
sg10
(lp2059
g558
ag691
asg26
I00
sg27
I00
sg28
I4285568
sg20
S'6670.58781493'
p2060
sba(igraph
Edge
p2061
(dp2062
g7
I1
sg8
I00
sg9
I5
sg10
(lp2063
g565
ag691
asg26
I00
sg27
I00
sg28
I4285569
sg20
S'6670.59625762'
p2064
sba(igraph
Edge
p2065
(dp2066
g7
I1
sg8
I00
sg9
I5
sg10
(lp2067
g572
ag705
asg26
I00
sg27
I00
sg28
I4285570
sg20
S'6670.60469473'
p2068
sba(igraph
Edge
p2069
(dp2070
g7
I1
sg8
I00
sg9
I5
sg10
(lp2071
g579
ag705
asg26
I00
sg27
I00
sg28
I4285571
sg20
S'6670.61319386'
p2072
sba(igraph
Edge
p2073
(dp2074
g7
I1
sg8
I00
sg9
I5
sg10
(lp2075
g586
ag719
asg26
I00
sg27
I00
sg28
I4285572
sg20
S'6670.62159772'
p2076
sba(igraph
Edge
p2077
(dp2078
g7
I1
sg8
I00
sg9
I5
sg10
(lp2079
g593
ag719
asg26
I00
sg27
I00
sg28
I4285573
sg20
S'6670.63004767'
p2080
sba(igraph
Edge
p2081
(dp2082
g7
I1
sg8
I00
sg9
I5
sg10
(lp2083
g600
ag733
asg26
I00
sg27
I00
sg28
I4285574
sg20
S'6670.63860966'
p2084
sba(igraph
Edge
p2085
(dp2086
g7
I1
sg8
I00
sg9
I5
sg10
(lp2087
g607
ag733
asg26
I00
sg27
I00
sg28
I4285575
sg20
S'6670.64709509'
p2088
sba(igraph
Edge
p2089
(dp2090
g7
I1
sg8
I00
sg9
I5
sg10
(lp2091
g614
ag747
asg26
I00
sg27
I00
sg28
I4285576
sg20
S'6670.65561405'
p2092
sba(igraph
Edge
p2093
(dp2094
g7
I1
sg8
I00
sg9
I5
sg10
(lp2095
g621
ag747
asg26
I00
sg27
I00
sg28
I4285577
sg20
S'6670.66418944'
p2096
sba(igraph
Edge
p2097
(dp2098
g7
I1
sg8
I00
sg9
I5
sg10
(lp2099
g628
ag761
asg26
I00
sg27
I00
sg28
I4285578
sg20
S'6670.67398817'
p2100
sba(igraph
Edge
p2101
(dp2102
g7
I1
sg8
I00
sg9
I5
sg10
(lp2103
g635
ag761
asg26
I00
sg27
I00
sg28
I4285579
sg20
S'6670.68267447'
p2104
sba(igraph
Edge
p2105
(dp2106
g7
I1
sg8
I00
sg9
I5
sg10
(lp2107
g642
ag775
asg26
I00
sg27
I00
sg28
I4285580
sg20
S'6670.691332'
p2108
sba(igraph
Edge
p2109
(dp2110
g7
I1
sg8
I00
sg9
I5
sg10
(lp2111
g649
ag775
asg26
I00
sg27
I00
sg28
I4285581
sg20
S'6670.69993896'
p2112
sba(igraph
Edge
p2113
(dp2114
g7
I1
sg8
I00
sg9
I5
sg10
(lp2115
g656
ag789
asg26
I00
sg27
I00
sg28
I4285582
sg20
S'6670.70862023'
p2116
sba(igraph
Edge
p2117
(dp2118
g7
I1
sg8
I00
sg9
I5
sg10
(lp2119
g663
ag789
asg26
I00
sg27
I00
sg28
I4285583
sg20
S'6670.71731072'
p2120
sba(igraph
Edge
p2121
(dp2122
g7
I1
sg8
I00
sg9
I5
sg10
(lp2123
g670
ag803
asg26
I00
sg27
I00
sg28
I4285584
sg20
S'6670.72600456'
p2124
sba(igraph
Edge
p2125
(dp2126
g7
I1
sg8
I00
sg9
I5
sg10
(lp2127
g677
ag803
asg26
I00
sg27
I00
sg28
I4285585
sg20
S'6670.73479618'
p2128
sba(igraph
Edge
p2129
(dp2130
g7
I1
sg8
I00
sg9
I5
sg10
(lp2131
g688
ag821
asg26
I00
sg27
I00
sg28
I4285586
sg20
S'6670.74348779'
p2132
sba(igraph
Edge
p2133
(dp2134
g7
I1
sg8
I00
sg9
I5
sg10
(lp2135
g691
ag821
asg26
I00
sg27
I00
sg28
I4285587
sg20
S'6670.75238026'
p2136
sba(igraph
Edge
p2137
(dp2138
g7
I1
sg8
I00
sg9
I5
sg10
(lp2139
g698
ag831
asg26
I00
sg27
I00
sg28
I4285588
sg20
S'6670.7616834'
p2140
sba(igraph
Edge
p2141
(dp2142
g7
I1
sg8
I00
sg9
I5
sg10
(lp2143
g705
ag831
asg26
I00
sg27
I00
sg28
I4285589
sg20
S'6670.77051776'
p2144
sba(igraph
Edge
p2145
(dp2146
g7
I1
sg8
I00
sg9
I5
sg10
(lp2147
g712
ag845
asg26
I00
sg27
I00
sg28
I4285590
sg20
S'6670.77934011'
p2148
sba(igraph
Edge
p2149
(dp2150
g7
I1
sg8
I00
sg9
I5
sg10
(lp2151
g719
ag845
asg26
I00
sg27
I00
sg28
I4285591
sg20
S'6670.7882418'
p2152
sba(igraph
Edge
p2153
(dp2154
g7
I1
sg8
I00
sg9
I5
sg10
(lp2155
g726
ag859
asg26
I00
sg27
I00
sg28
I4285592
sg20
S'6670.7973857'
p2156
sba(igraph
Edge
p2157
(dp2158
g7
I1
sg8
I00
sg9
I5
sg10
(lp2159
g733
ag859
asg26
I00
sg27
I00
sg28
I4285593
sg20
S'6670.8062061'
p2160
sba(igraph
Edge
p2161
(dp2162
g7
I1
sg8
I00
sg9
I5
sg10
(lp2163
g740
ag873
asg26
I00
sg27
I00
sg28
I4285594
sg20
S'6670.81523378'
p2164
sba(igraph
Edge
p2165
(dp2166
g7
I1
sg8
I00
sg9
I5
sg10
(lp2167
g747
ag873
asg26
I00
sg27
I00
sg28
I4285595
sg20
S'6670.82446261'
p2168
sba(igraph
Edge
p2169
(dp2170
g7
I1
sg8
I00
sg9
I5
sg10
(lp2171
g754
ag887
asg26
I00
sg27
I00
sg28
I4285596
sg20
S'6670.83349699'
p2172
sba(igraph
Edge
p2173
(dp2174
g7
I1
sg8
I00
sg9
I5
sg10
(lp2175
g761
ag887
asg26
I00
sg27
I00
sg28
I4285597
sg20
S'6670.84240176'
p2176
sba(igraph
Edge
p2177
(dp2178
g7
I1
sg8
I00
sg9
I5
sg10
(lp2179
g768
ag901
asg26
I00
sg27
I00
sg28
I4285598
sg20
S'6670.85141128'
p2180
sba(igraph
Edge
p2181
(dp2182
g7
I1
sg8
I00
sg9
I5
sg10
(lp2183
g775
ag901
asg26
I00
sg27
I00
sg28
I4285599
sg20
S'6670.86065268'
p2184
sba(igraph
Edge
p2185
(dp2186
g7
I1
sg8
I00
sg9
I5
sg10
(lp2187
g782
ag915
asg26
I00
sg27
I00
sg28
I4285600
sg20
S'6670.86965438'
p2188
sba(igraph
Edge
p2189
(dp2190
g7
I1
sg8
I00
sg9
I5
sg10
(lp2191
g789
ag915
asg26
I00
sg27
I00
sg28
I4285601
sg20
S'6670.87880331'
p2192
sba(igraph
Edge
p2193
(dp2194
g7
I1
sg8
I00
sg9
I5
sg10
(lp2195
g796
ag929
asg26
I00
sg27
I00
sg28
I4285602
sg20
S'6670.88790056'
p2196
sba(igraph
Edge
p2197
(dp2198
g7
I1
sg8
I00
sg9
I5
sg10
(lp2199
g803
ag929
asg26
I00
sg27
I00
sg28
I4285603
sg20
S'6670.89704138'
p2200
sba(igraph
Edge
p2201
(dp2202
g7
I1
sg8
I00
sg9
I5
sg10
(lp2203
g810
ag943
asg26
I00
sg27
I00
sg28
I4285604
sg20
S'6670.90609253'
p2204
sba(igraph
Edge
p2205
(dp2206
g7
I1
sg8
I00
sg9
I5
sg10
(lp2207
g688
ag943
asg26
I00
sg27
I00
sg28
I4285605
sg20
S'6670.91534231'
p2208
sba(igraph
Edge
p2209
(dp2210
g7
I1
sg8
I00
sg9
I5
sg10
(lp2211
g691
ag824
asg26
I00
sg27
I00
sg28
I4285606
sg20
S'6670.92503293'
p2212
sba(igraph
Edge
p2213
(dp2214
g7
I1
sg8
I00
sg9
I5
sg10
(lp2215
g698
ag824
asg26
I00
sg27
I00
sg28
I4285607
sg20
S'6670.93421678'
p2216
sba(igraph
Edge
p2217
(dp2218
g7
I1
sg8
I00
sg9
I5
sg10
(lp2219
g705
ag838
asg26
I00
sg27
I00
sg28
I4285608
sg20
S'6670.94359227'
p2220
sba(igraph
Edge
p2221
(dp2222
g7
I1
sg8
I00
sg9
I5
sg10
(lp2223
g712
ag838
asg26
I00
sg27
I00
sg28
I4285609
sg20
S'6670.95287166'
p2224
sba(igraph
Edge
p2225
(dp2226
g7
I1
sg8
I00
sg9
I5
sg10
(lp2227
g719
ag852
asg26
I00
sg27
I00
sg28
I4285610
sg20
S'6670.96213709'
p2228
sba(igraph
Edge
p2229
(dp2230
g7
I1
sg8
I00
sg9
I5
sg10
(lp2231
g726
ag852
asg26
I00
sg27
I00
sg28
I4285611
sg20
S'6670.97147626'
p2232
sba(igraph
Edge
p2233
(dp2234
g7
I1
sg8
I00
sg9
I5
sg10
(lp2235
g733
ag866
asg26
I00
sg27
I00
sg28
I4285612
sg20
S'6670.98076934'
p2236
sba(igraph
Edge
p2237
(dp2238
g7
I1
sg8
I00
sg9
I5
sg10
(lp2239
g740
ag866
asg26
I00
sg27
I00
sg28
I4285613
sg20
S'6670.99012556'
p2240
sba(igraph
Edge
p2241
(dp2242
g7
I1
sg8
I00
sg9
I5
sg10
(lp2243
g747
ag880
asg26
I00
sg27
I00
sg28
I4285614
sg20
S'6670.99948373'
p2244
sba(igraph
Edge
p2245
(dp2246
g7
I1
sg8
I00
sg9
I5
sg10
(lp2247
g754
ag880
asg26
I00
sg27
I00
sg28
I4285615
sg20
S'6671.00886705'
p2248
sba(igraph
Edge
p2249
(dp2250
g7
I1
sg8
I00
sg9
I5
sg10
(lp2251
g761
ag894
asg26
I00
sg27
I00
sg28
I4285616
sg20
S'6671.01825875'
p2252
sba(igraph
Edge
p2253
(dp2254
g7
I1
sg8
I00
sg9
I5
sg10
(lp2255
g768
ag894
asg26
I00
sg27
I00
sg28
I4285617
sg20
S'6671.0276795'
p2256
sba(igraph
Edge
p2257
(dp2258
g7
I1
sg8
I00
sg9
I5
sg10
(lp2259
g775
ag908
asg26
I00
sg27
I00
sg28
I4285618
sg20
S'6671.03708069'
p2260
sba(igraph
Edge
p2261
(dp2262
g7
I1
sg8
I00
sg9
I5
sg10
(lp2263
g782
ag908
asg26
I00
sg27
I00
sg28
I4285619
sg20
S'6671.04656458'
p2264
sba(igraph
Edge
p2265
(dp2266
g7
I1
sg8
I00
sg9
I5
sg10
(lp2267
g789
ag922
asg26
I00
sg27
I00
sg28
I4285620
sg20
S'6671.05601187'
p2268
sba(igraph
Edge
p2269
(dp2270
g7
I1
sg8
I00
sg9
I5
sg10
(lp2271
g796
ag922
asg26
I00
sg27
I00
sg28
I4285621
sg20
S'6671.0655128'
p2272
sba(igraph
Edge
p2273
(dp2274
g7
I1
sg8
I00
sg9
I5
sg10
(lp2275
g803
ag936
asg26
I00
sg27
I00
sg28
I4285622
sg20
S'6671.07520369'
p2276
sba(igraph
Edge
p2277
(dp2278
g7
I1
sg8
I00
sg9
I5
sg10
(lp2279
g810
ag936
asg26
I00
sg27
I00
sg28
I4285623
sg20
S'6671.08497058'
p2280
sba(igraph
Edge
p2281
(dp2282
g7
I1
sg8
I00
sg9
I5
sg10
(lp2283
g821
ag954
asg26
I00
sg27
I00
sg28
I4285624
sg20
S'6671.0946408'
p2284
sba(igraph
Edge
p2285
(dp2286
g7
I1
sg8
I00
sg9
I5
sg10
(lp2287
g824
ag954
asg26
I00
sg27
I00
sg28
I4285625
sg20
S'6671.10432611'
p2288
sba(igraph
Edge
p2289
(dp2290
g7
I1
sg8
I00
sg9
I5
sg10
(lp2291
g831
ag964
asg26
I00
sg27
I00
sg28
I4285626
sg20
S'6671.11398376'
p2292
sba(igraph
Edge
p2293
(dp2294
g7
I1
sg8
I00
sg9
I5
sg10
(lp2295
g838
ag964
asg26
I00
sg27
I00
sg28
I4285627
sg20
S'6671.12349363'
p2296
sba(igraph
Edge
p2297
(dp2298
g7
I1
sg8
I00
sg9
I5
sg10
(lp2299
g845
ag978
asg26
I00
sg27
I00
sg28
I4285628
sg20
S'6671.13306999'
p2300
sba(igraph
Edge
p2301
(dp2302
g7
I1
sg8
I00
sg9
I5
sg10
(lp2303
g852
ag978
asg26
I00
sg27
I00
sg28
I4285629
sg20
S'6671.14284553'
p2304
sba(igraph
Edge
p2305
(dp2306
g7
I1
sg8
I00
sg9
I5
sg10
(lp2307
g859
ag992
asg26
I00
sg27
I00
sg28
I4285630
sg20
S'6671.15260403'
p2308
sba(igraph
Edge
p2309
(dp2310
g7
I1
sg8
I00
sg9
I5
sg10
(lp2311
g866
ag992
asg26
I00
sg27
I00
sg28
I4285631
sg20
S'6671.16222397'
p2312
sba(igraph
Edge
p2313
(dp2314
g7
I1
sg8
I00
sg9
I5
sg10
(lp2315
g873
ag1006
asg26
I00
sg27
I00
sg28
I4285632
sg20
S'6671.17256746'
p2316
sba(igraph
Edge
p2317
(dp2318
g7
I1
sg8
I00
sg9
I5
sg10
(lp2319
g880
ag1006
asg26
I00
sg27
I00
sg28
I4285633
sg20
S'6671.18244637'
p2320
sba(igraph
Edge
p2321
(dp2322
g7
I1
sg8
I00
sg9
I5
sg10
(lp2323
g887
ag1020
asg26
I00
sg27
I00
sg28
I4285634
sg20
S'6671.19228002'
p2324
sba(igraph
Edge
p2325
(dp2326
g7
I1
sg8
I00
sg9
I5
sg10
(lp2327
g894
ag1020
asg26
I00
sg27
I00
sg28
I4285635
sg20
S'6671.20212317'
p2328
sba(igraph
Edge
p2329
(dp2330
g7
I1
sg8
I00
sg9
I5
sg10
(lp2331
g901
ag1034
asg26
I00
sg27
I00
sg28
I4285636
sg20
S'6671.2118705'
p2332
sba(igraph
Edge
p2333
(dp2334
g7
I1
sg8
I00
sg9
I5
sg10
(lp2335
g908
ag1034
asg26
I00
sg27
I00
sg28
I4285637
sg20
S'6671.22168963'
p2336
sba(igraph
Edge
p2337
(dp2338
g7
I1
sg8
I00
sg9
I5
sg10
(lp2339
g915
ag1048
asg26
I00
sg27
I00
sg28
I4285638
sg20
S'6671.23167749'
p2340
sba(igraph
Edge
p2341
(dp2342
g7
I1
sg8
I00
sg9
I5
sg10
(lp2343
g922
ag1048
asg26
I00
sg27
I00
sg28
I4285639
sg20
S'6671.24175447'
p2344
sba(igraph
Edge
p2345
(dp2346
g7
I1
sg8
I00
sg9
I5
sg10
(lp2347
g929
ag1062
asg26
I00
sg27
I00
sg28
I4285640
sg20
S'6671.25177502'
p2348
sba(igraph
Edge
p2349
(dp2350
g7
I1
sg8
I00
sg9
I5
sg10
(lp2351
g936
ag1062
asg26
I00
sg27
I00
sg28
I4285641
sg20
S'6671.26169751'
p2352
sba(igraph
Edge
p2353
(dp2354
g7
I1
sg8
I00
sg9
I5
sg10
(lp2355
g943
ag1076
asg26
I00
sg27
I00
sg28
I4285642
sg20
S'6671.27166469'
p2356
sba(igraph
Edge
p2357
(dp2358
g7
I1
sg8
I00
sg9
I5
sg10
(lp2359
g821
ag1076
asg26
I00
sg27
I00
sg28
I4285643
sg20
S'6671.28168915'
p2360
sba(igraph
Edge
p2361
(dp2362
g7
I1
sg8
I00
sg9
I5
sg10
(lp2363
g824
ag957
asg26
I00
sg27
I00
sg28
I4285644
sg20
S'6671.29158175'
p2364
sba(igraph
Edge
p2365
(dp2366
g7
I1
sg8
I00
sg9
I5
sg10
(lp2367
g831
ag957
asg26
I00
sg27
I00
sg28
I4285645
sg20
S'6671.30163526'
p2368
sba(igraph
Edge
p2369
(dp2370
g7
I1
sg8
I00
sg9
I5
sg10
(lp2371
g838
ag971
asg26
I00
sg27
I00
sg28
I4285646
sg20
S'6671.31158876'
p2372
sba(igraph
Edge
p2373
(dp2374
g7
I1
sg8
I00
sg9
I5
sg10
(lp2375
g845
ag971
asg26
I00
sg27
I00
sg28
I4285647
sg20
S'6671.32193226'
p2376
sba(igraph
Edge
p2377
(dp2378
g7
I1
sg8
I00
sg9
I5
sg10
(lp2379
g852
ag985
asg26
I00
sg27
I00
sg28
I4285648
sg20
S'6671.33216149'
p2380
sba(igraph
Edge
p2381
(dp2382
g7
I1
sg8
I00
sg9
I5
sg10
(lp2383
g859
ag985
asg26
I00
sg27
I00
sg28
I4285649
sg20
S'6671.34221137'
p2384
sba(igraph
Edge
p2385
(dp2386
g7
I1
sg8
I00
sg9
I5
sg10
(lp2387
g866
ag999
asg26
I00
sg27
I00
sg28
I4285650
sg20
S'6671.352354'
p2388
sba(igraph
Edge
p2389
(dp2390
g7
I1
sg8
I00
sg9
I5
sg10
(lp2391
g873
ag999
asg26
I00
sg27
I00
sg28
I4285651
sg20
S'6671.36252121'
p2392
sba(igraph
Edge
p2393
(dp2394
g7
I1
sg8
I00
sg9
I5
sg10
(lp2395
g880
ag1013
asg26
I00
sg27
I00
sg28
I4285652
sg20
S'6671.37269178'
p2396
sba(igraph
Edge
p2397
(dp2398
g7
I1
sg8
I00
sg9
I5
sg10
(lp2399
g887
ag1013
asg26
I00
sg27
I00
sg28
I4285653
sg20
S'6671.38290397'
p2400
sba(igraph
Edge
p2401
(dp2402
g7
I1
sg8
I00
sg9
I5
sg10
(lp2403
g894
ag1027
asg26
I00
sg27
I00
sg28
I4285654
sg20
S'6671.39313348'
p2404
sba(igraph
Edge
p2405
(dp2406
g7
I1
sg8
I00
sg9
I5
sg10
(lp2407
g901
ag1027
asg26
I00
sg27
I00
sg28
I4285655
sg20
S'6671.40359375'
p2408
sba(igraph
Edge
p2409
(dp2410
g7
I1
sg8
I00
sg9
I5
sg10
(lp2411
g908
ag1041
asg26
I00
sg27
I00
sg28
I4285656
sg20
S'6671.4141599'
p2412
sba(igraph
Edge
p2413
(dp2414
g7
I1
sg8
I00
sg9
I5
sg10
(lp2415
g915
ag1041
asg26
I00
sg27
I00
sg28
I4285657
sg20
S'6671.42517722'
p2416
sba(igraph
Edge
p2417
(dp2418
g7
I1
sg8
I00
sg9
I5
sg10
(lp2419
g922
ag1055
asg26
I00
sg27
I00
sg28
I4285658
sg20
S'6671.43542433'
p2420
sba(igraph
Edge
p2421
(dp2422
g7
I1
sg8
I00
sg9
I5
sg10
(lp2423
g929
ag1055
asg26
I00
sg27
I00
sg28
I4285659
sg20
S'6671.44591449'
p2424
sba(igraph
Edge
p2425
(dp2426
g7
I1
sg8
I00
sg9
I5
sg10
(lp2427
g936
ag1069
asg26
I00
sg27
I00
sg28
I4285660
sg20
S'6671.45634515'
p2428
sba(igraph
Edge
p2429
(dp2430
g7
I1
sg8
I00
sg9
I5
sg10
(lp2431
g943
ag1069
asg26
I00
sg27
I00
sg28
I4285661
sg20
S'6671.46672077'
p2432
sba(igraph
Edge
p2433
(dp2434
g7
I1
sg8
I00
sg9
I5
sg10
(lp2435
g954
ag1087
asg26
I00
sg27
I00
sg28
I4285662
sg20
S'6671.47712349'
p2436
sba(igraph
Edge
p2437
(dp2438
g7
I1
sg8
I00
sg9
I5
sg10
(lp2439
g957
ag1087
asg26
I00
sg27
I00
sg28
I4285663
sg20
S'6671.4877064'
p2440
sba(igraph
Edge
p2441
(dp2442
g7
I1
sg8
I00
sg9
I5
sg10
(lp2443
g964
ag1097
asg26
I00
sg27
I00
sg28
I4285664
sg20
S'6671.49811163'
p2444
sba(igraph
Edge
p2445
(dp2446
g7
I1
sg8
I00
sg9
I5
sg10
(lp2447
g971
ag1097
asg26
I00
sg27
I00
sg28
I4285665
sg20
S'6671.50861911'
p2448
sba(igraph
Edge
p2449
(dp2450
g7
I1
sg8
I00
sg9
I5
sg10
(lp2451
g978
ag1111
asg26
I00
sg27
I00
sg28
I4285666
sg20
S'6671.51914475'
p2452
sba(igraph
Edge
p2453
(dp2454
g7
I1
sg8
I00
sg9
I5
sg10
(lp2455
g985
ag1111
asg26
I00
sg27
I00
sg28
I4285667
sg20
S'6671.52967486'
p2456
sba(igraph
Edge
p2457
(dp2458
g7
I1
sg8
I00
sg9
I5
sg10
(lp2459
g992
ag1125
asg26
I00
sg27
I00
sg28
I4285668
sg20
S'6671.54010775'
p2460
sba(igraph
Edge
p2461
(dp2462
g7
I1
sg8
I00
sg9
I5
sg10
(lp2463
g999
ag1125
asg26
I00
sg27
I00
sg28
I4285669
sg20
S'6671.55061048'
p2464
sba(igraph
Edge
p2465
(dp2466
g7
I1
sg8
I00
sg9
I5
sg10
(lp2467
g1006
ag1139
asg26
I00
sg27
I00
sg28
I4285670
sg20
S'6671.56126519'
p2468
sba(igraph
Edge
p2469
(dp2470
g7
I1
sg8
I00
sg9
I5
sg10
(lp2471
g1013
ag1139
asg26
I00
sg27
I00
sg28
I4285671
sg20
S'6671.5719009'
p2472
sba(igraph
Edge
p2473
(dp2474
g7
I1
sg8
I00
sg9
I5
sg10
(lp2475
g1020
ag1153
asg26
I00
sg27
I00
sg28
I4285672
sg20
S'6671.58253298'
p2476
sba(igraph
Edge
p2477
(dp2478
g7
I1
sg8
I00
sg9
I5
sg10
(lp2479
g1027
ag1153
asg26
I00
sg27
I00
sg28
I4285673
sg20
S'6671.59321282'
p2480
sba(igraph
Edge
p2481
(dp2482
g7
I1
sg8
I00
sg9
I5
sg10
(lp2483
g1034
ag1167
asg26
I00
sg27
I00
sg28
I4285674
sg20
S'6671.60385328'
p2484
sba(igraph
Edge
p2485
(dp2486
g7
I1
sg8
I00
sg9
I5
sg10
(lp2487
g1041
ag1167
asg26
I00
sg27
I00
sg28
I4285675
sg20
S'6671.61455632'
p2488
sba(igraph
Edge
p2489
(dp2490
g7
I1
sg8
I00
sg9
I5
sg10
(lp2491
g1048
ag1181
asg26
I00
sg27
I00
sg28
I4285676
sg20
S'6671.62972026'
p2492
sba(igraph
Edge
p2493
(dp2494
g7
I1
sg8
I00
sg9
I5
sg10
(lp2495
g1055
ag1181
asg26
I00
sg27
I00
sg28
I4285677
sg20
S'6671.64158657'
p2496
sba(igraph
Edge
p2497
(dp2498
g7
I1
sg8
I00
sg9
I5
sg10
(lp2499
g1062
ag1195
asg26
I00
sg27
I00
sg28
I4285678
sg20
S'6671.65422505'
p2500
sba(igraph
Edge
p2501
(dp2502
g7
I1
sg8
I00
sg9
I5
sg10
(lp2503
g1069
ag1195
asg26
I00
sg27
I00
sg28
I4285679
sg20
S'6671.66582736'
p2504
sba(igraph
Edge
p2505
(dp2506
g7
I1
sg8
I00
sg9
I5
sg10
(lp2507
g1076
ag1209
asg26
I00
sg27
I00
sg28
I4285680
sg20
S'6671.68472501'
p2508
sba(igraph
Edge
p2509
(dp2510
g7
I1
sg8
I00
sg9
I5
sg10
(lp2511
g954
ag1209
asg26
I00
sg27
I00
sg28
I4285681
sg20
S'6671.69872791'
p2512
sba(igraph
Edge
p2513
(dp2514
g7
I1
sg8
I00
sg9
I5
sg10
(lp2515
g957
ag1090
asg26
I00
sg27
I00
sg28
I4285682
sg20
S'6671.71388375'
p2516
sba(igraph
Edge
p2517
(dp2518
g7
I1
sg8
I00
sg9
I5
sg10
(lp2519
g964
ag1090
asg26
I00
sg27
I00
sg28
I4285683
sg20
S'6671.72810008'
p2520
sba(igraph
Edge
p2521
(dp2522
g7
I1
sg8
I00
sg9
I5
sg10
(lp2523
g971
ag1104
asg26
I00
sg27
I00
sg28
I4285684
sg20
S'6671.74274133'
p2524
sba(igraph
Edge
p2525
(dp2526
g7
I1
sg8
I00
sg9
I5
sg10
(lp2527
g978
ag1104
asg26
I00
sg27
I00
sg28
I4285685
sg20
S'6671.75418356'
p2528
sba(igraph
Edge
p2529
(dp2530
g7
I1
sg8
I00
sg9
I5
sg10
(lp2531
g985
ag1118
asg26
I00
sg27
I00
sg28
I4285686
sg20
S'6671.76521513'
p2532
sba(igraph
Edge
p2533
(dp2534
g7
I1
sg8
I00
sg9
I5
sg10
(lp2535
g992
ag1118
asg26
I00
sg27
I00
sg28
I4285687
sg20
S'6671.77614166'
p2536
sba(igraph
Edge
p2537
(dp2538
g7
I1
sg8
I00
sg9
I5
sg10
(lp2539
g999
ag1132
asg26
I00
sg27
I00
sg28
I4285688
sg20
S'6671.78711931'
p2540
sba(igraph
Edge
p2541
(dp2542
g7
I1
sg8
I00
sg9
I5
sg10
(lp2543
g1006
ag1132
asg26
I00
sg27
I00
sg28
I4285689
sg20
S'6671.79814194'
p2544
sba(igraph
Edge
p2545
(dp2546
g7
I1
sg8
I00
sg9
I5
sg10
(lp2547
g1013
ag1146
asg26
I00
sg27
I00
sg28
I4285690
sg20
S'6671.80908384'
p2548
sba(igraph
Edge
p2549
(dp2550
g7
I1
sg8
I00
sg9
I5
sg10
(lp2551
g1020
ag1146
asg26
I00
sg27
I00
sg28
I4285691
sg20
S'6671.82016737'
p2552
sba(igraph
Edge
p2553
(dp2554
g7
I1
sg8
I00
sg9
I5
sg10
(lp2555
g1027
ag1160
asg26
I00
sg27
I00
sg28
I4285692
sg20
S'6671.83128554'
p2556
sba(igraph
Edge
p2557
(dp2558
g7
I1
sg8
I00
sg9
I5
sg10
(lp2559
g1034
ag1160
asg26
I00
sg27
I00
sg28
I4285693
sg20
S'6671.842611'
p2560
sba(igraph
Edge
p2561
(dp2562
g7
I1
sg8
I00
sg9
I5
sg10
(lp2563
g1041
ag1174
asg26
I00
sg27
I00
sg28
I4285694
sg20
S'6671.85374678'
p2564
sba(igraph
Edge
p2565
(dp2566
g7
I1
sg8
I00
sg9
I5
sg10
(lp2567
g1048
ag1174
asg26
I00
sg27
I00
sg28
I4285695
sg20
S'6671.86489065'
p2568
sba(igraph
Edge
p2569
(dp2570
g7
I1
sg8
I00
sg9
I5
sg10
(lp2571
g1055
ag1188
asg26
I00
sg27
I00
sg28
I4285696
sg20
S'6671.87607671'
p2572
sba(igraph
Edge
p2573
(dp2574
g7
I1
sg8
I00
sg9
I5
sg10
(lp2575
g1062
ag1188
asg26
I00
sg27
I00
sg28
I4285697
sg20
S'6671.88712895'
p2576
sba(igraph
Edge
p2577
(dp2578
g7
I1
sg8
I00
sg9
I5
sg10
(lp2579
g1069
ag1202
asg26
I00
sg27
I00
sg28
I4285698
sg20
S'6671.89840664'
p2580
sba(igraph
Edge
p2581
(dp2582
g7
I1
sg8
I00
sg9
I5
sg10
(lp2583
g1076
ag1202
asg26
I00
sg27
I00
sg28
I4285699
sg20
S'6671.90962399'
p2584
sbasS'vertices'
p2585
(lp2586
g12
ag23
ag33
ag40
ag47
ag54
ag61
ag68
ag75
ag82
ag89
ag96
ag103
ag110
ag117
ag124
ag131
ag138
ag145
ag156
ag159
ag166
ag173
ag180
ag187
ag194
ag201
ag208
ag215
ag222
ag229
ag236
ag243
ag250
ag257
ag264
ag271
ag278
ag289
ag292
ag299
ag306
ag313
ag320
ag327
ag334
ag341
ag348
ag355
ag362
ag369
ag376
ag383
ag390
ag397
ag404
ag411
ag422
ag425
ag432
ag439
ag446
ag453
ag460
ag467
ag474
ag481
ag488
ag495
ag502
ag509
ag516
ag523
ag530
ag537
ag544
ag555
ag558
ag565
ag572
ag579
ag586
ag593
ag600
ag607
ag614
ag621
ag628
ag635
ag642
ag649
ag656
ag663
ag670
ag677
ag688
ag691
ag698
ag705
ag712
ag719
ag726
ag733
ag740
ag747
ag754
ag761
ag768
ag775
ag782
ag789
ag796
ag803
ag810
ag821
ag824
ag831
ag838
ag845
ag852
ag859
ag866
ag873
ag880
ag887
ag894
ag901
ag908
ag915
ag922
ag929
ag936
ag943
ag954
ag957
ag964
ag971
ag978
ag985
ag992
ag999
ag1006
ag1013
ag1020
ag1027
ag1034
ag1041
ag1048
ag1055
ag1062
ag1069
ag1076
ag1087
ag1090
ag1097
ag1104
ag1111
ag1118
ag1125
ag1132
ag1139
ag1146
ag1153
ag1160
ag1167
ag1174
ag1181
ag1188
ag1195
ag1202
ag1209
asS'tags'
p2587
(lp2588
sb.