(igraph
Graph
p0
(dp1
S'labelingConstraints'
p2
I-1
sS'edges'
p3
(lp4
(igraph
Edge
p5
(dp6
S'direction'
p7
I1
sS'selected'
p8
I00
sS'height'
p9
I5
sS'vs'
p10
(lp11
(igraph
Vertex
p12
(dp13
S'xnorm'
p14
F0.0
sg8
I00
sS'label'
p15
S'NULL'
p16
sS'y'
p17
F-204.0
sS'x'
p18
F-416.0
sS'circle'
p19
I4643041
sS'id'
p20
S'7673.97092536'
p21
sS'ynorm'
p22
F0.0
sba(igraph
Vertex
p23
(dp24
g14
F0.055555555555555594
sg8
I00
sg15
g16
sg17
F-204.0
sg18
F-364.49999999999994
sg19
I4643042
sg20
S'7673.97096586'
p25
sg22
F0.0
sbasS'wrap'
p26
I00
sS'curved'
p27
I00
sS'line'
p28
I4642699
sg20
S'7674.08687808'
p29
sba(igraph
Edge
p30
(dp31
g7
I1
sg8
I00
sg9
I5
sg10
(lp32
g23
a(igraph
Vertex
p33
(dp34
g14
F0.11111111111111108
sg8
I00
sg15
g16
sg17
F-204.0
sg18
F-313.0
sg19
I4643043
sg20
S'7673.9710114'
p35
sg22
F0.0
sbasg26
I00
sg27
I00
sg28
I4642700
sg20
S'7674.08694233'
p36
sba(igraph
Edge
p37
(dp38
g7
I1
sg8
I00
sg9
I5
sg10
(lp39
g33
a(igraph
Vertex
p40
(dp41
g14
F0.16666666666666666
sg8
I00
sg15
g16
sg17
F-204.0
sg18
F-261.5
sg19
I4643044
sg20
S'7673.97106699'
p42
sg22
F0.0
sbasg26
I00
sg27
I00
sg28
I4642701
sg20
S'7674.08702782'
p43
sba(igraph
Edge
p44
(dp45
g7
I1
sg8
I00
sg9
I5
sg10
(lp46
g40
a(igraph
Vertex
p47
(dp48
g14
F0.22222222222222215
sg8
I00
sg15
g16
sg17
F-204.0
sg18
F-210.00000000000006
sg19
I4643045
sg20
S'7673.97113404'
p49
sg22
F0.0
sbasg26
I00
sg27
I00
sg28
I4642702
sg20
S'7674.08713677'
p50
sba(igraph
Edge
p51
(dp52
g7
I1
sg8
I00
sg9
I5
sg10
(lp53
g47
a(igraph
Vertex
p54
(dp55
g14
F0.27777777777777762
sg8
I00
sg15
g16
sg17
F-204.0
sg18
F-158.50000000000017
sg19
I4643046
sg20
S'7673.97121478'
p56
sg22
F0.0
sbasg26
I00
sg27
I00
sg28
I4642703
sg20
S'7674.08726584'
p57
sba(igraph
Edge
p58
(dp59
g7
I1
sg8
I00
sg9
I5
sg10
(lp60
g54
a(igraph
Vertex
p61
(dp62
g14
F0.33333333333333326
sg8
I00
sg15
g16
sg17
F-204.0
sg18
F-107.00000000000006
sg19
I4643047
sg20
S'7673.97131395'
p63
sg22
F0.0
sbasg26
I00
sg27
I00
sg28
I4642704
sg20
S'7674.08742033'
p64
sba(igraph
Edge
p65
(dp66
g7
I1
sg8
I00
sg9
I5
sg10
(lp67
g61
a(igraph
Vertex
p68
(dp69
g14
F0.38888888888888884
sg8
I00
sg15
g16
sg17
F-204.0
sg18
F-55.500000000000057
sg19
I4643048
sg20
S'7673.97142654'
p70
sg22
F0.0
sbasg26
I00
sg27
I00
sg28
I4642705
sg20
S'7674.08760303'
p71
sba(igraph
Edge
p72
(dp73
g7
I1
sg8
I00
sg9
I5
sg10
(lp74
g68
a(igraph
Vertex
p75
(dp76
g14
F0.44444444444444436
sg8
I00
sg15
g16
sg17
F-204.0
sg18
F-4.0000000000000568
sg19
I4643049
sg20
S'7673.9715556'
p77
sg22
F0.0
sbasg26
I00
sg27
I00
sg28
I4642706
sg20
S'7674.08780334'
p78
sba(igraph
Edge
p79
(dp80
g7
I1
sg8
I00
sg9
I5
sg10
(lp81
g75
a(igraph
Vertex
p82
(dp83
g14
F0.5
sg8
I00
sg15
g16
sg17
F-204.0
sg18
F47.5
sg19
I4643050
sg20
S'7673.9716992'
p84
sg22
F0.0
sbasg26
I00
sg27
I00
sg28
I4642707
sg20
S'7674.08808214'
p85
sba(igraph
Edge
p86
(dp87
g7
I1
sg8
I00
sg9
I5
sg10
(lp88
g82
a(igraph
Vertex
p89
(dp90
g14
F0.55555555555555558
sg8
I00
sg15
I0
sg17
F-204.0
sg18
F99.0
sg19
I4643051
sg20
S'7673.97186011'
p91
sg22
F0.0
sbasg26
I00
sg27
I00
sg28
I4642708
sg20
S'7674.08832994'
p92
sba(igraph
Edge
p93
(dp94
g7
I1
sg8
I00
sg9
I5
sg10
(lp95
g89
a(igraph
Vertex
p96
(dp97
g14
F0.61111111111111116
sg8
I00
sg15
g16
sg17
F-204.0
sg18
F150.5
sg19
I4643053
sg20
S'7673.97203499'
p98
sg22
F0.0
sbasg26
I00
sg27
I00
sg28
I4642709
sg20
S'7674.08860512'
p99
sba(igraph
Edge
p100
(dp101
g7
I1
sg8
I00
sg9
I5
sg10
(lp102
g96
a(igraph
Vertex
p103
(dp104
g14
F0.66666666666666663
sg8
I00
sg15
I0
sg17
F-204.0
sg18
F202.0
sg19
I4643054
sg20
S'7673.97222412'
p105
sg22
F0.0
sbasg26
I00
sg27
I00
sg28
I4642710
sg20
S'7674.08889621'
p106
sba(igraph
Edge
p107
(dp108
g7
I1
sg8
I00
sg9
I5
sg10
(lp109
g103
a(igraph
Vertex
p110
(dp111
g14
F0.72222222222222221
sg8
I00
sg15
g16
sg17
F-204.0
sg18
F253.5
sg19
I4643056
sg20
S'7673.97272279'
p112
sg22
F0.0
sbasg26
I00
sg27
I00
sg28
I4642711
sg20
S'7674.08920966'
p113
sba(igraph
Edge
p114
(dp115
g7
I1
sg8
I00
sg9
I5
sg10
(lp116
g110
a(igraph
Vertex
p117
(dp118
g14
F0.77777777777777779
sg8
I00
sg15
I0
sg17
F-204.0
sg18
F305.0
sg19
I4643057
sg20
S'7673.97294712'
p119
sg22
F0.0
sbasg26
I00
sg27
I00
sg28
I4642712
sg20
S'7674.08955384'
p120
sba(igraph
Edge
p121
(dp122
g7
I1
sg8
I00
sg9
I5
sg10
(lp123
g117
a(igraph
Vertex
p124
(dp125
g14
F0.83333333333333337
sg8
I00
sg15
g16
sg17
F-204.0
sg18
F356.5
sg19
I4643059
sg20
S'7673.97319101'
p126
sg22
F0.0
sbasg26
I00
sg27
I00
sg28
I4642713
sg20
S'7674.08991562'
p127
sba(igraph
Edge
p128
(dp129
g7
I1
sg8
I00
sg9
I5
sg10
(lp130
g124
a(igraph
Vertex
p131
(dp132
g14
F0.88888888888888884
sg8
I00
sg15
I0
sg17
F-204.0
sg18
F408.0
sg19
I4643060
sg20
S'7673.97353435'
p133
sg22
F0.0
sbasg26
I00
sg27
I00
sg28
I4642714
sg20
S'7674.09029779'
p134
sba(igraph
Edge
p135
(dp136
g7
I1
sg8
I00
sg9
I5
sg10
(lp137
g131
a(igraph
Vertex
p138
(dp139
g14
F0.94444444444444442
sg8
I00
sg15
g16
sg17
F-204.0
sg18
F459.5
sg19
I4643062
sg20
S'7673.97381623'
p140
sg22
F0.0
sbasg26
I00
sg27
I00
sg28
I4642715
sg20
S'7674.09081629'
p141
sba(igraph
Edge
p142
(dp143
g7
I1
sg8
I00
sg9
I5
sg10
(lp144
g138
a(igraph
Vertex
p145
(dp146
g14
F1.0
sg8
I00
sg15
I0
sg17
F-204.0
sg18
F511.0
sg19
I4643063
sg20
S'7673.97411096'
p147
sg22
F0.0
sbasg26
I00
sg27
I00
sg28
I4642716
sg20
S'7674.09124763'
p148
sba(igraph
Edge
p149
(dp150
g7
I1
sg8
I00
sg9
I5
sg10
(lp151
g145
ag12
asg26
I00
sg27
I00
sg28
I4642717
sg20
S'7674.09169741'
p152
sba(igraph
Edge
p153
(dp154
g7
I1
sg8
I00
sg9
I5
sg10
(lp155
(igraph
Vertex
p156
(dp157
g14
F0.0
sg8
I00
sg15
g16
sg17
F-125.37037037037038
sg18
F-416.0
sg19
I4643065
sg20
S'7673.9745219'
p158
sg22
F0.20370370370370369
sba(igraph
Vertex
p159
(dp160
g14
F0.055555555555555594
sg8
I00
sg15
g16
sg17
F-125.37037037037038
sg18
F-364.49999999999994
sg19
I4643066
sg20
S'7673.97489178'
p161
sg22
F0.20370370370370369
sbasg26
I00
sg27
I00
sg28
I4642718
sg20
S'7674.0921687'
p162
sba(igraph
Edge
p163
(dp164
g7
I1
sg8
I00
sg9
I5
sg10
(lp165
g159
a(igraph
Vertex
p166
(dp167
g14
F0.11111111111111108
sg8
I00
sg15
g16
sg17
F-125.37037037037038
sg18
F-313.0
sg19
I4643067
sg20
S'7673.97523763'
p168
sg22
F0.20370370370370369
sbasg26
I00
sg27
I00
sg28
I4642719
sg20
S'7674.09268217'
p169
sba(igraph
Edge
p170
(dp171
g7
I1
sg8
I00
sg9
I5
sg10
(lp172
g166
a(igraph
Vertex
p173
(dp174
g14
F0.16666666666666666
sg8
I00
sg15
g16
sg17
F-125.37037037037038
sg18
F-261.5
sg19
I4643068
sg20
S'7673.97567652'
p175
sg22
F0.20370370370370369
sbasg26
I00
sg27
I00
sg28
I4642720
sg20
S'7674.09320375'
p176
sba(igraph
Edge
p177
(dp178
g7
I1
sg8
I00
sg9
I5
sg10
(lp179
g173
a(igraph
Vertex
p180
(dp181
g14
F0.22222222222222215
sg8
I00
sg15
g16
sg17
F-125.37037037037038
sg18
F-210.00000000000006
sg19
I4643069
sg20
S'7673.97605897'
p182
sg22
F0.20370370370370369
sbasg26
I00
sg27
I00
sg28
I4642721
sg20
S'7674.09374543'
p183
sba(igraph
Edge
p184
(dp185
g7
I1
sg8
I00
sg9
I5
sg10
(lp186
g180
a(igraph
Vertex
p187
(dp188
g14
F0.27777777777777762
sg8
I00
sg15
g16
sg17
F-125.37037037037038
sg18
F-158.50000000000017
sg19
I4643070
sg20
S'7673.97645064'
p189
sg22
F0.20370370370370369
sbasg26
I00
sg27
I00
sg28
I4642722
sg20
S'7674.09448799'
p190
sba(igraph
Edge
p191
(dp192
g7
I1
sg8
I00
sg9
I5
sg10
(lp193
g187
a(igraph
Vertex
p194
(dp195
g14
F0.33333333333333326
sg8
I00
sg15
g16
sg17
F-125.37037037037038
sg18
F-107.00000000000006
sg19
I4643071
sg20
S'7673.97696299'
p196
sg22
F0.20370370370370369
sbasg26
I00
sg27
I00
sg28
I4642723
sg20
S'7674.09509728'
p197
sba(igraph
Edge
p198
(dp199
g7
I1
sg8
I00
sg9
I5
sg10
(lp200
g194
a(igraph
Vertex
p201
(dp202
g14
F0.38888888888888884
sg8
I00
sg15
g16
sg17
F-125.37037037037038
sg18
F-55.500000000000057
sg19
I4643072
sg20
S'7673.97738875'
p203
sg22
F0.20370370370370369
sbasg26
I00
sg27
I00
sg28
I4642724
sg20
S'7674.0957239'
p204
sba(igraph
Edge
p205
(dp206
g7
I1
sg8
I00
sg9
I5
sg10
(lp207
g201
a(igraph
Vertex
p208
(dp209
g14
F0.44444444444444436
sg8
I00
sg15
I0
sg17
F-125.37037037037038
sg18
F-4.0000000000000568
sg19
I4643073
sg20
S'7673.97923144'
p210
sg22
F0.20370370370370369
sbasg26
I00
sg27
I00
sg28
I4642725
sg20
S'7674.0964779'
p211
sba(igraph
Edge
p212
(dp213
g7
I1
sg8
I00
sg9
I5
sg10
(lp214
g208
a(igraph
Vertex
p215
(dp216
g14
F0.5
sg8
I00
sg15
g16
sg17
F-125.37037037037038
sg18
F47.5
sg19
I4643075
sg20
S'7673.97978542'
p217
sg22
F0.20370370370370369
sbasg26
I00
sg27
I00
sg28
I4642726
sg20
S'7674.09714223'
p218
sba(igraph
Edge
p219
(dp220
g7
I1
sg8
I00
sg9
I5
sg10
(lp221
g215
a(igraph
Vertex
p222
(dp223
g14
F0.55555555555555558
sg8
I00
sg15
g16
sg17
F-125.37037037037038
sg18
F99.0
sg19
I4643076
sg20
S'7673.98027794'
p224
sg22
F0.20370370370370369
sbasg26
I00
sg27
I00
sg28
I4642727
sg20
S'7674.09783059'
p225
sba(igraph
Edge
p226
(dp227
g7
I1
sg8
I00
sg9
I5
sg10
(lp228
g222
a(igraph
Vertex
p229
(dp230
g14
F0.61111111111111116
sg8
I00
sg15
g16
sg17
F-125.37037037037038
sg18
F150.5
sg19
I4643077
sg20
S'7673.98084226'
p231
sg22
F0.20370370370370369
sbasg26
I00
sg27
I00
sg28
I4642728
sg20
S'7674.09854632'
p232
sba(igraph
Edge
p233
(dp234
g7
I1
sg8
I00
sg9
I5
sg10
(lp235
g229
a(igraph
Vertex
p236
(dp237
g14
F0.66666666666666663
sg8
I00
sg15
g16
sg17
F-125.37037037037038
sg18
F202.0
sg19
I4643078
sg20
S'7673.98139987'
p238
sg22
F0.20370370370370369
sbasg26
I00
sg27
I00
sg28
I4642729
sg20
S'7674.09928133'
p239
sba(igraph
Edge
p240
(dp241
g7
I1
sg8
I00
sg9
I5
sg10
(lp242
g236
a(igraph
Vertex
p243
(dp244
g14
F0.72222222222222221
sg8
I00
sg15
g16
sg17
F-125.37037037037038
sg18
F253.5
sg19
I4643079
sg20
S'7673.98195134'
p245
sg22
F0.20370370370370369
sbasg26
I00
sg27
I00
sg28
I4642730
sg20
S'7674.10003143'
p246
sba(igraph
Edge
p247
(dp248
g7
I1
sg8
I00
sg9
I5
sg10
(lp249
g243
a(igraph
Vertex
p250
(dp251
g14
F0.77777777777777779
sg8
I00
sg15
g16
sg17
F-125.37037037037038
sg18
F305.0
sg19
I4643080
sg20
S'7673.9825922'
p252
sg22
F0.20370370370370369
sbasg26
I00
sg27
I00
sg28
I4642731
sg20
S'7674.10084717'
p253
sba(igraph
Edge
p254
(dp255
g7
I1
sg8
I00
sg9
I5
sg10
(lp256
g250
a(igraph
Vertex
p257
(dp258
g14
F0.83333333333333337
sg8
I00
sg15
g16
sg17
F-125.37037037037038
sg18
F356.5
sg19
I4643081
sg20
S'7673.9831825'
p259
sg22
F0.20370370370370369
sbasg26
I00
sg27
I00
sg28
I4642732
sg20
S'7674.10165761'
p260
sba(igraph
Edge
p261
(dp262
g7
I1
sg8
I00
sg9
I5
sg10
(lp263
g257
a(igraph
Vertex
p264
(dp265
g14
F0.88888888888888884
sg8
I00
sg15
g16
sg17
F-125.37037037037038
sg18
F408.0
sg19
I4643082
sg20
S'7673.9837619'
p266
sg22
F0.20370370370370369
sbasg26
I00
sg27
I00
sg28
I4642733
sg20
S'7674.10247559'
p267
sba(igraph
Edge
p268
(dp269
g7
I1
sg8
I00
sg9
I5
sg10
(lp270
g264
a(igraph
Vertex
p271
(dp272
g14
F0.94444444444444442
sg8
I00
sg15
g16
sg17
F-125.37037037037038
sg18
F459.5
sg19
I4643083
sg20
S'7673.98439494'
p273
sg22
F0.20370370370370369
sbasg26
I00
sg27
I00
sg28
I4642734
sg20
S'7674.10331006'
p274
sba(igraph
Edge
p275
(dp276
g7
I1
sg8
I00
sg9
I5
sg10
(lp277
g271
a(igraph
Vertex
p278
(dp279
g14
F1.0
sg8
I00
sg15
g16
sg17
F-125.37037037037038
sg18
F511.0
sg19
I4643084
sg20
S'7673.98500228'
p280
sg22
F0.20370370370370369
sbasg26
I00
sg27
I00
sg28
I4642735
sg20
S'7674.1041624'
p281
sba(igraph
Edge
p282
(dp283
g7
I1
sg8
I00
sg9
I5
sg10
(lp284
g278
ag156
asg26
I00
sg27
I00
sg28
I4642736
sg20
S'7674.10504296'
p285
sba(igraph
Edge
p286
(dp287
g7
I1
sg8
I00
sg9
I5
sg10
(lp288
(igraph
Vertex
p289
(dp290
g14
F0.0
sg8
I00
sg15
g16
sg17
F-46.740740740740762
sg18
F-416.0
sg19
I4643085
sg20
S'7673.98572081'
p291
sg22
F0.40740740740740738
sba(igraph
Vertex
p292
(dp293
g14
F0.055555555555555594
sg8
I00
sg15
g16
sg17
F-46.740740740740762
sg18
F-364.49999999999994
sg19
I4643086
sg20
S'7673.98639185'
p294
sg22
F0.40740740740740738
sbasg26
I00
sg27
I00
sg28
I4642737
sg20
S'7674.10603806'
p295
sba(igraph
Edge
p296
(dp297
g7
I1
sg8
I00
sg9
I5
sg10
(lp298
g292
a(igraph
Vertex
p299
(dp300
g14
F0.11111111111111108
sg8
I00
sg15
g16
sg17
F-46.740740740740762
sg18
F-313.0
sg19
I4643087
sg20
S'7673.98712658'
p301
sg22
F0.40740740740740738
sbasg26
I00
sg27
I00
sg28
I4642738
sg20
S'7674.10697253'
p302
sba(igraph
Edge
p303
(dp304
g7
I1
sg8
I00
sg9
I5
sg10
(lp305
g299
a(igraph
Vertex
p306
(dp307
g14
F0.16666666666666666
sg8
I00
sg15
g16
sg17
F-46.740740740740762
sg18
F-261.5
sg19
I4643088
sg20
S'7673.98820046'
p308
sg22
F0.40740740740740738
sbasg26
I00
sg27
I00
sg28
I4642739
sg20
S'7674.1079193'
p309
sba(igraph
Edge
p310
(dp311
g7
I1
sg8
I00
sg9
I5
sg10
(lp312
g306
a(igraph
Vertex
p313
(dp314
g14
F0.22222222222222215
sg8
I00
sg15
g16
sg17
F-46.740740740740762
sg18
F-210.00000000000006
sg19
I4643089
sg20
S'7673.98919164'
p315
sg22
F0.40740740740740738
sbasg26
I00
sg27
I00
sg28
I4642740
sg20
S'7674.10902894'
p316
sba(igraph
Edge
p317
(dp318
g7
I1
sg8
I00
sg9
I5
sg10
(lp319
g313
a(igraph
Vertex
p320
(dp321
g14
F0.27777777777777762
sg8
I00
sg15
g16
sg17
F-46.740740740740762
sg18
F-158.50000000000017
sg19
I4643090
sg20
S'7673.98993643'
p322
sg22
F0.40740740740740738
sbasg26
I00
sg27
I00
sg28
I4642741
sg20
S'7674.11036542'
p323
sba(igraph
Edge
p324
(dp325
g7
I1
sg8
I00
sg9
I5
sg10
(lp326
g320
a(igraph
Vertex
p327
(dp328
g14
F0.33333333333333326
sg8
I00
sg15
I0
sg17
F-46.740740740740762
sg18
F-107.00000000000006
sg19
I4643091
sg20
S'7673.99083515'
p329
sg22
F0.40740740740740738
sbasg26
I00
sg27
I00
sg28
I4642742
sg20
S'7674.11167453'
p330
sba(igraph
Edge
p331
(dp332
g7
I1
sg8
I00
sg9
I5
sg10
(lp333
g327
a(igraph
Vertex
p334
(dp335
g14
F0.38888888888888884
sg8
I00
sg15
g16
sg17
F-46.740740740740762
sg18
F-55.500000000000057
sg19
I4643093
sg20
S'7673.99165508'
p336
sg22
F0.40740740740740738
sbasg26
I00
sg27
I00
sg28
I4642743
sg20
S'7674.11305906'
p337
sba(igraph
Edge
p338
(dp339
g7
I1
sg8
I00
sg9
I5
sg10
(lp340
g334
a(igraph
Vertex
p341
(dp342
g14
F0.44444444444444436
sg8
I00
sg15
g16
sg17
F-46.740740740740762
sg18
F-4.0000000000000568
sg19
I4643094
sg20
S'7673.99245714'
p343
sg22
F0.40740740740740738
sbasg26
I00
sg27
I00
sg28
I4642744
sg20
S'7674.11437292'
p344
sba(igraph
Edge
p345
(dp346
g7
I1
sg8
I00
sg9
I5
sg10
(lp347
g341
a(igraph
Vertex
p348
(dp349
g14
F0.5
sg8
I00
sg15
I0
sg17
F-46.740740740740762
sg18
F47.5
sg19
I4643095
sg20
S'7673.99328378'
p350
sg22
F0.40740740740740738
sbasg26
I00
sg27
I00
sg28
I4642745
sg20
S'7674.11574795'
p351
sba(igraph
Edge
p352
(dp353
g7
I1
sg8
I00
sg9
I5
sg10
(lp354
g348
a(igraph
Vertex
p355
(dp356
g14
F0.55555555555555558
sg8
I00
sg15
g16
sg17
F-46.740740740740762
sg18
F99.0
sg19
I4643097
sg20
S'7673.99408612'
p357
sg22
F0.40740740740740738
sbasg26
I00
sg27
I00
sg28
I4642746
sg20
S'7674.11722495'
p358
sba(igraph
Edge
p359
(dp360
g7
I1
sg8
I00
sg9
I5
sg10
(lp361
g355
a(igraph
Vertex
p362
(dp363
g14
F0.61111111111111116
sg8
I00
sg15
g16
sg17
F-46.740740740740762
sg18
F150.5
sg19
I4643098
sg20
S'7673.99505775'
p364
sg22
F0.40740740740740738
sbasg26
I00
sg27
I00
sg28
I4642747
sg20
S'7674.11884471'
p365
sba(igraph
Edge
p366
(dp367
g7
I1
sg8
I00
sg9
I5
sg10
(lp368
g362
a(igraph
Vertex
p369
(dp370
g14
F0.66666666666666663
sg8
I00
sg15
g16
sg17
F-46.740740740740762
sg18
F202.0
sg19
I4643099
sg20
S'7673.99590842'
p371
sg22
F0.40740740740740738
sbasg26
I00
sg27
I00
sg28
I4642748
sg20
S'7674.12021193'
p372
sba(igraph
Edge
p373
(dp374
g7
I1
sg8
I00
sg9
I5
sg10
(lp375
g369
a(igraph
Vertex
p376
(dp377
g14
F0.72222222222222221
sg8
I00
sg15
g16
sg17
F-46.740740740740762
sg18
F253.5
sg19
I4643100
sg20
S'7673.9968144'
p378
sg22
F0.40740740740740738
sbasg26
I00
sg27
I00
sg28
I4642749
sg20
S'7674.12169452'
p379
sba(igraph
Edge
p380
(dp381
g7
I1
sg8
I00
sg9
I5
sg10
(lp382
g376
a(igraph
Vertex
p383
(dp384
g14
F0.77777777777777779
sg8
I00
sg15
g16
sg17
F-46.740740740740762
sg18
F305.0
sg19
I4643101
sg20
S'7673.99772792'
p385
sg22
F0.40740740740740738
sbasg26
I00
sg27
I00
sg28
I4642750
sg20
S'7674.12318856'
p386
sba(igraph
Edge
p387
(dp388
g7
I1
sg8
I00
sg9
I5
sg10
(lp389
g383
a(igraph
Vertex
p390
(dp391
g14
F0.83333333333333337
sg8
I00
sg15
g16
sg17
F-46.740740740740762
sg18
F356.5
sg19
I4643102
sg20
S'7673.99874984'
p392
sg22
F0.40740740740740738
sbasg26
I00
sg27
I00
sg28
I4642751
sg20
S'7674.12466696'
p393
sba(igraph
Edge
p394
(dp395
g7
I1
sg8
I00
sg9
I5
sg10
(lp396
g390
a(igraph
Vertex
p397
(dp398
g14
F0.88888888888888884
sg8
I00
sg15
g16
sg17
F-46.740740740740762
sg18
F408.0
sg19
I4643103
sg20
S'7673.99966951'
p399
sg22
F0.40740740740740738
sbasg26
I00
sg27
I00
sg28
I4642752
sg20
S'7674.12613922'
p400
sba(igraph
Edge
p401
(dp402
g7
I1
sg8
I00
sg9
I5
sg10
(lp403
g397
a(igraph
Vertex
p404
(dp405
g14
F0.94444444444444442
sg8
I00
sg15
g16
sg17
F-46.740740740740762
sg18
F459.5
sg19
I4643104
sg20
S'7674.0006755'
p406
sg22
F0.40740740740740738
sbasg26
I00
sg27
I00
sg28
I4642753
sg20
S'7674.12783915'
p407
sba(igraph
Edge
p408
(dp409
g7
I1
sg8
I00
sg9
I5
sg10
(lp410
g404
a(igraph
Vertex
p411
(dp412
g14
F1.0
sg8
I00
sg15
g16
sg17
F-46.740740740740762
sg18
F511.0
sg19
I4643105
sg20
S'7674.00165859'
p413
sg22
F0.40740740740740738
sbasg26
I00
sg27
I00
sg28
I4642754
sg20
S'7674.12961172'
p414
sba(igraph
Edge
p415
(dp416
g7
I1
sg8
I00
sg9
I5
sg10
(lp417
g411
ag289
asg26
I00
sg27
I00
sg28
I4642755
sg20
S'7674.1312488'
p418
sba(igraph
Edge
p419
(dp420
g7
I1
sg8
I00
sg9
I5
sg10
(lp421
(igraph
Vertex
p422
(dp423
g14
F0.0
sg8
I00
sg15
g16
sg17
F31.888888888888914
sg18
F-416.0
sg19
I4643106
sg20
S'7674.00262743'
p424
sg22
F0.61111111111111116
sba(igraph
Vertex
p425
(dp426
g14
F0.055555555555555594
sg8
I00
sg15
g16
sg17
F31.888888888888914
sg18
F-364.49999999999994
sg19
I4643107
sg20
S'7674.00379294'
p427
sg22
F0.61111111111111116
sbasg26
I00
sg27
I00
sg28
I4642756
sg20
S'7674.13287331'
p428
sba(igraph
Edge
p429
(dp430
g7
I1
sg8
I00
sg9
I5
sg10
(lp431
g425
a(igraph
Vertex
p432
(dp433
g14
F0.11111111111111108
sg8
I00
sg15
g16
sg17
F31.888888888888914
sg18
F-313.0
sg19
I4643108
sg20
S'7674.00481262'
p434
sg22
F0.61111111111111116
sbasg26
I00
sg27
I00
sg28
I4642757
sg20
S'7674.13462633'
p435
sba(igraph
Edge
p436
(dp437
g7
I1
sg8
I00
sg9
I5
sg10
(lp438
g432
a(igraph
Vertex
p439
(dp440
g14
F0.16666666666666666
sg8
I00
sg15
g16
sg17
F31.888888888888914
sg18
F-261.5
sg19
I4643109
sg20
S'7674.00581052'
p441
sg22
F0.61111111111111116
sbasg26
I00
sg27
I00
sg28
I4642758
sg20
S'7674.13638298'
p442
sba(igraph
Edge
p443
(dp444
g7
I1
sg8
I00
sg9
I5
sg10
(lp445
g439
a(igraph
Vertex
p446
(dp447
g14
F0.22222222222222215
sg8
I00
sg15
I0
sg17
F31.888888888888914
sg18
F-210.00000000000006
sg19
I4643110
sg20
S'7674.00688635'
p448
sg22
F0.61111111111111116
sbasg26
I00
sg27
I00
sg28
I4642759
sg20
S'7674.13819661'
p449
sba(igraph
Edge
p450
(dp451
g7
I1
sg8
I00
sg9
I5
sg10
(lp452
g446
a(igraph
Vertex
p453
(dp454
g14
F0.27777777777777762
sg8
I00
sg15
g16
sg17
F31.888888888888914
sg18
F-158.50000000000017
sg19
I4643112
sg20
S'7674.00791022'
p455
sg22
F0.61111111111111116
sbasg26
I00
sg27
I00
sg28
I4642760
sg20
S'7674.1399527'
p456
sba(igraph
Edge
p457
(dp458
g7
I1
sg8
I00
sg9
I5
sg10
(lp459
g453
a(igraph
Vertex
p460
(dp461
g14
F0.33333333333333326
sg8
I00
sg15
g16
sg17
F31.888888888888914
sg18
F-107.00000000000006
sg19
I4643113
sg20
S'7674.00905143'
p462
sg22
F0.61111111111111116
sbasg26
I00
sg27
I00
sg28
I4642761
sg20
S'7674.14196916'
p463
sba(igraph
Edge
p464
(dp465
g7
I1
sg8
I00
sg9
I5
sg10
(lp466
g460
a(igraph
Vertex
p467
(dp468
g14
F0.38888888888888884
sg8
I00
sg15
g16
sg17
F31.888888888888914
sg18
F-55.500000000000057
sg19
I4643114
sg20
S'7674.01023147'
p469
sg22
F0.61111111111111116
sbasg26
I00
sg27
I00
sg28
I4642762
sg20
S'7674.14383029'
p470
sba(igraph
Edge
p471
(dp472
g7
I1
sg8
I00
sg9
I5
sg10
(lp473
g467
a(igraph
Vertex
p474
(dp475
g14
F0.44444444444444436
sg8
I00
sg15
g16
sg17
F31.888888888888914
sg18
F-4.0000000000000568
sg19
I4643115
sg20
S'7674.01181379'
p476
sg22
F0.61111111111111116
sbasg26
I00
sg27
I00
sg28
I4642763
sg20
S'7674.14577886'
p477
sba(igraph
Edge
p478
(dp479
g7
I1
sg8
I00
sg9
I5
sg10
(lp480
g474
a(igraph
Vertex
p481
(dp482
g14
F0.5
sg8
I00
sg15
g16
sg17
F31.888888888888914
sg18
F47.5
sg19
I4643116
sg20
S'7674.01338606'
p483
sg22
F0.61111111111111116
sbasg26
I00
sg27
I00
sg28
I4642764
sg20
S'7674.14777185'
p484
sba(igraph
Edge
p485
(dp486
g7
I1
sg8
I00
sg9
I5
sg10
(lp487
g481
a(igraph
Vertex
p488
(dp489
g14
F0.55555555555555558
sg8
I00
sg15
g16
sg17
F31.888888888888914
sg18
F99.0
sg19
I4643117
sg20
S'7674.01494268'
p490
sg22
F0.61111111111111116
sbasg26
I00
sg27
I00
sg28
I4642765
sg20
S'7674.14965533'
p491
sba(igraph
Edge
p492
(dp493
g7
I1
sg8
I00
sg9
I5
sg10
(lp494
g488
a(igraph
Vertex
p495
(dp496
g14
F0.61111111111111116
sg8
I00
sg15
g16
sg17
F31.888888888888914
sg18
F150.5
sg19
I4643118
sg20
S'7674.01618194'
p497
sg22
F0.61111111111111116
sbasg26
I00
sg27
I00
sg28
I4642766
sg20
S'7674.15160586'
p498
sba(igraph
Edge
p499
(dp500
g7
I1
sg8
I00
sg9
I5
sg10
(lp501
g495
a(igraph
Vertex
p502
(dp503
g14
F0.66666666666666663
sg8
I00
sg15
g16
sg17
F31.888888888888914
sg18
F202.0
sg19
I4643119
sg20
S'7674.01741506'
p504
sg22
F0.61111111111111116
sbasg26
I00
sg27
I00
sg28
I4642767
sg20
S'7674.1537282'
p505
sba(igraph
Edge
p506
(dp507
g7
I1
sg8
I00
sg9
I5
sg10
(lp508
g502
a(igraph
Vertex
p509
(dp510
g14
F0.72222222222222221
sg8
I00
sg15
g16
sg17
F31.888888888888914
sg18
F253.5
sg19
I4643120
sg20
S'7674.01875127'
p511
sg22
F0.61111111111111116
sbasg26
I00
sg27
I00
sg28
I4642768
sg20
S'7674.15568403'
p512
sba(igraph
Edge
p513
(dp514
g7
I1
sg8
I00
sg9
I5
sg10
(lp515
g509
a(igraph
Vertex
p516
(dp517
g14
F0.77777777777777779
sg8
I00
sg15
g16
sg17
F31.888888888888914
sg18
F305.0
sg19
I4643121
sg20
S'7674.02005786'
p518
sg22
F0.61111111111111116
sbasg26
I00
sg27
I00
sg28
I4642769
sg20
S'7674.1576164'
p519
sba(igraph
Edge
p520
(dp521
g7
I1
sg8
I00
sg9
I5
sg10
(lp522
g516
a(igraph
Vertex
p523
(dp524
g14
F0.83333333333333337
sg8
I00
sg15
g16
sg17
F31.888888888888914
sg18
F356.5
sg19
I4643122
sg20
S'7674.02134545'
p525
sg22
F0.61111111111111116
sbasg26
I00
sg27
I00
sg28
I4642770
sg20
S'7674.15927443'
p526
sba(igraph
Edge
p527
(dp528
g7
I1
sg8
I00
sg9
I5
sg10
(lp529
g523
a(igraph
Vertex
p530
(dp531
g14
F0.88888888888888884
sg8
I00
sg15
g16
sg17
F31.888888888888914
sg18
F408.0
sg19
I4643123
sg20
S'7674.02284536'
p532
sg22
F0.61111111111111116
sbasg26
I00
sg27
I00
sg28
I4642771
sg20
S'7674.16112662'
p533
sba(igraph
Edge
p534
(dp535
g7
I1
sg8
I00
sg9
I5
sg10
(lp536
g530
a(igraph
Vertex
p537
(dp538
g14
F0.94444444444444442
sg8
I00
sg15
g16
sg17
F31.888888888888914
sg18
F459.5
sg19
I4643124
sg20
S'7674.02427152'
p539
sg22
F0.61111111111111116
sbasg26
I00
sg27
I00
sg28
I4642772
sg20
S'7674.16298915'
p540
sba(igraph
Edge
p541
(dp542
g7
I1
sg8
I00
sg9
I5
sg10
(lp543
g537
a(igraph
Vertex
p544
(dp545
g14
F1.0
sg8
I00
sg15
g16
sg17
F31.888888888888914
sg18
F511.0
sg19
I4643125
sg20
S'7674.02574098'
p546
sg22
F0.61111111111111116
sbasg26
I00
sg27
I00
sg28
I4642773
sg20
S'7674.16485782'
p547
sba(igraph
Edge
p548
(dp549
g7
I1
sg8
I00
sg9
I5
sg10
(lp550
g544
ag422
asg26
I00
sg27
I00
sg28
I4642774
sg20
S'7674.16658039'
p551
sba(igraph
Edge
p552
(dp553
g7
I1
sg8
I00
sg9
I5
sg10
(lp554
(igraph
Vertex
p555
(dp556
g14
F0.0
sg8
I00
sg15
g16
sg17
F110.51851851851848
sg18
F-416.0
sg19
I4643126
sg20
S'7674.02715317'
p557
sg22
F0.81481481481481477
sba(igraph
Vertex
p558
(dp559
g14
F0.055555555555555594
sg8
I00
sg15
g16
sg17
F110.51851851851848
sg18
F-364.49999999999994
sg19
I4643127
sg20
S'7674.02851089'
p560
sg22
F0.81481481481481477
sbasg26
I00
sg27
I00
sg28
I4642775
sg20
S'7674.16855885'
p561
sba(igraph
Edge
p562
(dp563
g7
I1
sg8
I00
sg9
I5
sg10
(lp564
g558
a(igraph
Vertex
p565
(dp566
g14
F0.11111111111111108
sg8
I00
sg15
I0
sg17
F110.51851851851848
sg18
F-313.0
sg19
I4643128
sg20
S'7674.02991889'
p567
sg22
F0.81481481481481477
sbasg26
I00
sg27
I00
sg28
I4642776
sg20
S'7674.17042278'
p568
sba(igraph
Edge
p569
(dp570
g7
I1
sg8
I00
sg9
I5
sg10
(lp571
g565
a(igraph
Vertex
p572
(dp573
g14
F0.16666666666666666
sg8
I00
sg15
g16
sg17
F110.51851851851848
sg18
F-261.5
sg19
I4643130
sg20
S'7674.03136712'
p574
sg22
F0.81481481481481477
sbasg26
I00
sg27
I00
sg28
I4642777
sg20
S'7674.17228754'
p575
sba(igraph
Edge
p576
(dp577
g7
I1
sg8
I00
sg9
I5
sg10
(lp578
g572
a(igraph
Vertex
p579
(dp580
g14
F0.22222222222222215
sg8
I00
sg15
g16
sg17
F110.51851851851848
sg18
F-210.00000000000006
sg19
I4643131
sg20
S'7674.03332435'
p581
sg22
F0.81481481481481477
sbasg26
I00
sg27
I00
sg28
I4642778
sg20
S'7674.17416571'
p582
sba(igraph
Edge
p583
(dp584
g7
I1
sg8
I00
sg9
I5
sg10
(lp585
g579
a(igraph
Vertex
p586
(dp587
g14
F0.27777777777777762
sg8
I00
sg15
g16
sg17
F110.51851851851848
sg18
F-158.50000000000017
sg19
I4643132
sg20
S'7674.03484409'
p588
sg22
F0.81481481481481477
sbasg26
I00
sg27
I00
sg28
I4642779
sg20
S'7674.17617044'
p589
sba(igraph
Edge
p590
(dp591
g7
I1
sg8
I00
sg9
I5
sg10
(lp592
g586
a(igraph
Vertex
p593
(dp594
g14
F0.33333333333333326
sg8
I00
sg15
g16
sg17
F110.51851851851848
sg18
F-107.00000000000006
sg19
I4643133
sg20
S'7674.03652755'
p595
sg22
F0.81481481481481477
sbasg26
I00
sg27
I00
sg28
I4642780
sg20
S'7674.17804721'
p596
sba(igraph
Edge
p597
(dp598
g7
I1
sg8
I00
sg9
I5
sg10
(lp599
g593
a(igraph
Vertex
p600
(dp601
g14
F0.38888888888888884
sg8
I00
sg15
g16
sg17
F110.51851851851848
sg18
F-55.500000000000057
sg19
I4643134
sg20
S'7674.03799533'
p602
sg22
F0.81481481481481477
sbasg26
I00
sg27
I00
sg28
I4642781
sg20
S'7674.18001422'
p603
sba(igraph
Edge
p604
(dp605
g7
I1
sg8
I00
sg9
I5
sg10
(lp606
g600
a(igraph
Vertex
p607
(dp608
g14
F0.44444444444444436
sg8
I00
sg15
g16
sg17
F110.51851851851848
sg18
F-4.0000000000000568
sg19
I4643135
sg20
S'7674.03961202'
p609
sg22
F0.81481481481481477
sbasg26
I00
sg27
I00
sg28
I4642782
sg20
S'7674.18203738'
p610
sba(igraph
Edge
p611
(dp612
g7
I1
sg8
I00
sg9
I5
sg10
(lp613
g607
a(igraph
Vertex
p614
(dp615
g14
F0.5
sg8
I00
sg15
g16
sg17
F110.51851851851848
sg18
F47.5
sg19
I4643136
sg20
S'7674.04102561'
p616
sg22
F0.81481481481481477
sbasg26
I00
sg27
I00
sg28
I4642783
sg20
S'7674.18399908'
p617
sba(igraph
Edge
p618
(dp619
g7
I1
sg8
I00
sg9
I5
sg10
(lp620
g614
a(igraph
Vertex
p621
(dp622
g14
F0.55555555555555558
sg8
I00
sg15
g16
sg17
F110.51851851851848
sg18
F99.0
sg19
I4643137
sg20
S'7674.04320828'
p623
sg22
F0.81481481481481477
sbasg26
I00
sg27
I00
sg28
I4642784
sg20
S'7674.18598202'
p624
sba(igraph
Edge
p625
(dp626
g7
I1
sg8
I00
sg9
I5
sg10
(lp627
g621
a(igraph
Vertex
p628
(dp629
g14
F0.61111111111111116
sg8
I00
sg15
g16
sg17
F110.51851851851848
sg18
F150.5
sg19
I4643138
sg20
S'7674.04486352'
p630
sg22
F0.81481481481481477
sbasg26
I00
sg27
I00
sg28
I4642785
sg20
S'7674.18808312'
p631
sba(igraph
Edge
p632
(dp633
g7
I1
sg8
I00
sg9
I5
sg10
(lp634
g628
a(igraph
Vertex
p635
(dp636
g14
F0.66666666666666663
sg8
I00
sg15
g16
sg17
F110.51851851851848
sg18
F202.0
sg19
I4643139
sg20
S'7674.04640227'
p637
sg22
F0.81481481481481477
sbasg26
I00
sg27
I00
sg28
I4642786
sg20
S'7674.1917347'
p638
sba(igraph
Edge
p639
(dp640
g7
I1
sg8
I00
sg9
I5
sg10
(lp641
g635
a(igraph
Vertex
p642
(dp643
g14
F0.72222222222222221
sg8
I00
sg15
g16
sg17
F110.51851851851848
sg18
F253.5
sg19
I4643140
sg20
S'7674.04810388'
p644
sg22
F0.81481481481481477
sbasg26
I00
sg27
I00
sg28
I4642787
sg20
S'7674.19396767'
p645
sba(igraph
Edge
p646
(dp647
g7
I1
sg8
I00
sg9
I5
sg10
(lp648
g642
a(igraph
Vertex
p649
(dp650
g14
F0.77777777777777779
sg8
I00
sg15
g16
sg17
F110.51851851851848
sg18
F305.0
sg19
I4643141
sg20
S'7674.04980801'
p651
sg22
F0.81481481481481477
sbasg26
I00
sg27
I00
sg28
I4642788
sg20
S'7674.19605341'
p652
sba(igraph
Edge
p653
(dp654
g7
I1
sg8
I00
sg9
I5
sg10
(lp655
g649
a(igraph
Vertex
p656
(dp657
g14
F0.83333333333333337
sg8
I00
sg15
g16
sg17
F110.51851851851848
sg18
F356.5
sg19
I4643142
sg20
S'7674.05144453'
p658
sg22
F0.81481481481481477
sbasg26
I00
sg27
I00
sg28
I4642789
sg20
S'7674.19818273'
p659
sba(igraph
Edge
p660
(dp661
g7
I1
sg8
I00
sg9
I5
sg10
(lp662
g656
a(igraph
Vertex
p663
(dp664
g14
F0.88888888888888884
sg8
I00
sg15
g16
sg17
F110.51851851851848
sg18
F408.0
sg19
I4643143
sg20
S'7674.05321151'
p665
sg22
F0.81481481481481477
sbasg26
I00
sg27
I00
sg28
I4642790
sg20
S'7674.20044643'
p666
sba(igraph
Edge
p667
(dp668
g7
I1
sg8
I00
sg9
I5
sg10
(lp669
g663
a(igraph
Vertex
p670
(dp671
g14
F0.94444444444444442
sg8
I00
sg15
g16
sg17
F110.51851851851848
sg18
F459.5
sg19
I4643144
sg20
S'7674.05525227'
p672
sg22
F0.81481481481481477
sbasg26
I00
sg27
I00
sg28
I4642791
sg20
S'7674.20276711'
p673
sba(igraph
Edge
p674
(dp675
g7
I1
sg8
I00
sg9
I5
sg10
(lp676
g670
a(igraph
Vertex
p677
(dp678
g14
F1.0
sg8
I00
sg15
g16
sg17
F110.51851851851848
sg18
F511.0
sg19
I4643145
sg20
S'7674.0569388'
p679
sg22
F0.81481481481481477
sbasg26
I00
sg27
I00
sg28
I4642792
sg20
S'7674.20508724'
p680
sba(igraph
Edge
p681
(dp682
g7
I1
sg8
I00
sg9
I5
sg10
(lp683
g677
ag555
asg26
I00
sg27
I00
sg28
I4642793
sg20
S'7674.20735093'
p684
sba(igraph
Edge
p685
(dp686
g7
I1
sg8
I00
sg9
I5
sg10
(lp687
(igraph
Vertex
p688
(dp689
g14
F0.0
sg8
I00
sg15
I0
sg17
F189.14814814814815
sg18
F-416.0
sg19
I4643146
sg20
S'7674.05855577'
p690
sg22
F1.0185185185185186
sba(igraph
Vertex
p691
(dp692
g14
F0.055555555555555594
sg8
I00
sg15
g16
sg17
F189.14814814814815
sg18
F-364.49999999999994
sg19
I4643148
sg20
S'7674.06051495'
p693
sg22
F1.0185185185185186
sbasg26
I00
sg27
I00
sg28
I4642794
sg20
S'7674.20959088'
p694
sba(igraph
Edge
p695
(dp696
g7
I1
sg8
I00
sg9
I5
sg10
(lp697
g691
a(igraph
Vertex
p698
(dp699
g14
F0.11111111111111108
sg8
I00
sg15
g16
sg17
F189.14814814814815
sg18
F-313.0
sg19
I4643149
sg20
S'7674.06261327'
p700
sg22
F1.0185185185185186
sbasg26
I00
sg27
I00
sg28
I4642795
sg20
S'7674.21193839'
p701
sba(igraph
Edge
p702
(dp703
g7
I1
sg8
I00
sg9
I5
sg10
(lp704
g698
a(igraph
Vertex
p705
(dp706
g14
F0.16666666666666666
sg8
I00
sg15
I0
sg17
F189.14814814814815
sg18
F-261.5
sg19
I4643150
sg20
S'7674.06462721'
p707
sg22
F1.0185185185185186
sbasg26
I00
sg27
I00
sg28
I4642796
sg20
S'7674.21421466'
p708
sba(igraph
Edge
p709
(dp710
g7
I1
sg8
I00
sg9
I5
sg10
(lp711
g705
a(igraph
Vertex
p712
(dp713
g14
F0.22222222222222215
sg8
I00
sg15
g16
sg17
F189.14814814814815
sg18
F-210.00000000000006
sg19
I4643152
sg20
S'7674.06694063'
p714
sg22
F1.0185185185185186
sbasg26
I00
sg27
I00
sg28
I4642797
sg20
S'7674.21674654'
p715
sba(igraph
Edge
p716
(dp717
g7
I1
sg8
I00
sg9
I5
sg10
(lp718
g712
a(igraph
Vertex
p719
(dp720
g14
F0.27777777777777762
sg8
I00
sg15
g16
sg17
F189.14814814814815
sg18
F-158.50000000000017
sg19
I4643153
sg20
S'7674.06877187'
p721
sg22
F1.0185185185185186
sbasg26
I00
sg27
I00
sg28
I4642798
sg20
S'7674.21906108'
p722
sba(igraph
Edge
p723
(dp724
g7
I1
sg8
I00
sg9
I5
sg10
(lp725
g719
a(igraph
Vertex
p726
(dp727
g14
F0.33333333333333326
sg8
I00
sg15
g16
sg17
F189.14814814814815
sg18
F-107.00000000000006
sg19
I4643154
sg20
S'7674.07058188'
p728
sg22
F1.0185185185185186
sbasg26
I00
sg27
I00
sg28
I4642799
sg20
S'7674.22169047'
p729
sba(igraph
Edge
p730
(dp731
g7
I1
sg8
I00
sg9
I5
sg10
(lp732
g726
a(igraph
Vertex
p733
(dp734
g14
F0.38888888888888884
sg8
I00
sg15
g16
sg17
F189.14814814814815
sg18
F-55.500000000000057
sg19
I4643155
sg20
S'7674.07254078'
p735
sg22
F1.0185185185185186
sbasg26
I00
sg27
I00
sg28
I4642800
sg20
S'7674.22544346'
p736
sba(igraph
Edge
p737
(dp738
g7
I1
sg8
I00
sg9
I5
sg10
(lp739
g733
a(igraph
Vertex
p740
(dp741
g14
F0.44444444444444436
sg8
I00
sg15
g16
sg17
F189.14814814814815
sg18
F-4.0000000000000568
sg19
I4643156
sg20
S'7674.07377642'
p742
sg22
F1.0185185185185186
sbasg26
I00
sg27
I00
sg28
I4642801
sg20
S'7674.22816838'
p743
sba(igraph
Edge
p744
(dp745
g7
I1
sg8
I00
sg9
I5
sg10
(lp746
g740
a(igraph
Vertex
p747
(dp748
g14
F0.5
sg8
I00
sg15
g16
sg17
F189.14814814814815
sg18
F47.5
sg19
I4643157
sg20
S'7674.0746972'
p749
sg22
F1.0185185185185186
sbasg26
I00
sg27
I00
sg28
I4642802
sg20
S'7674.23086342'
p750
sba(igraph
Edge
p751
(dp752
g7
I1
sg8
I00
sg9
I5
sg10
(lp753
g747
a(igraph
Vertex
p754
(dp755
g14
F0.55555555555555558
sg8
I00
sg15
g16
sg17
F189.14814814814815
sg18
F99.0
sg19
I4643158
sg20
S'7674.07573868'
p756
sg22
F1.0185185185185186
sbasg26
I00
sg27
I00
sg28
I4642803
sg20
S'7674.23383084'
p757
sba(igraph
Edge
p758
(dp759
g7
I1
sg8
I00
sg9
I5
sg10
(lp760
g754
a(igraph
Vertex
p761
(dp762
g14
F0.61111111111111116
sg8
I00
sg15
g16
sg17
F189.14814814814815
sg18
F150.5
sg19
I4643159
sg20
S'7674.07668125'
p763
sg22
F1.0185185185185186
sbasg26
I00
sg27
I00
sg28
I4642804
sg20
S'7674.23668036'
p764
sba(igraph
Edge
p765
(dp766
g7
I1
sg8
I00
sg9
I5
sg10
(lp767
g761
a(igraph
Vertex
p768
(dp769
g14
F0.66666666666666663
sg8
I00
sg15
g16
sg17
F189.14814814814815
sg18
F202.0
sg19
I4643160
sg20
S'7674.07762886'
p770
sg22
F1.0185185185185186
sbasg26
I00
sg27
I00
sg28
I4642805
sg20
S'7674.23946312'
p771
sba(igraph
Edge
p772
(dp773
g7
I1
sg8
I00
sg9
I5
sg10
(lp774
g768
a(igraph
Vertex
p775
(dp776
g14
F0.72222222222222221
sg8
I00
sg15
g16
sg17
F189.14814814814815
sg18
F253.5
sg19
I4643161
sg20
S'7674.07870078'
p777
sg22
F1.0185185185185186
sbasg26
I00
sg27
I00
sg28
I4642806
sg20
S'7674.24230873'
p778
sba(igraph
Edge
p779
(dp780
g7
I1
sg8
I00
sg9
I5
sg10
(lp781
g775
a(igraph
Vertex
p782
(dp783
g14
F0.77777777777777779
sg8
I00
sg15
g16
sg17
F189.14814814814815
sg18
F305.0
sg19
I4643162
sg20
S'7674.07967493'
p784
sg22
F1.0185185185185186
sbasg26
I00
sg27
I00
sg28
I4642807
sg20
S'7674.24540214'
p785
sba(igraph
Edge
p786
(dp787
g7
I1
sg8
I00
sg9
I5
sg10
(lp788
g782
a(igraph
Vertex
p789
(dp790
g14
F0.83333333333333337
sg8
I00
sg15
g16
sg17
F189.14814814814815
sg18
F356.5
sg19
I4643163
sg20
S'7674.0806555'
p791
sg22
F1.0185185185185186
sbasg26
I00
sg27
I00
sg28
I4642808
sg20
S'7674.2484299'
p792
sba(igraph
Edge
p793
(dp794
g7
I1
sg8
I00
sg9
I5
sg10
(lp795
g789
a(igraph
Vertex
p796
(dp797
g14
F0.88888888888888884
sg8
I00
sg15
g16
sg17
F189.14814814814815
sg18
F408.0
sg19
I4643164
sg20
S'7674.08164641'
p798
sg22
F1.0185185185185186
sbasg26
I00
sg27
I00
sg28
I4642809
sg20
S'7674.25140039'
p799
sba(igraph
Edge
p800
(dp801
g7
I1
sg8
I00
sg9
I5
sg10
(lp802
g796
a(igraph
Vertex
p803
(dp804
g14
F0.94444444444444442
sg8
I00
sg15
g16
sg17
F189.14814814814815
sg18
F459.5
sg19
I4643165
sg20
S'7674.08292758'
p805
sg22
F1.0185185185185186
sbasg26
I00
sg27
I00
sg28
I4642810
sg20
S'7674.25437982'
p806
sba(igraph
Edge
p807
(dp808
g7
I1
sg8
I00
sg9
I5
sg10
(lp809
g803
a(igraph
Vertex
p810
(dp811
g14
F1.0
sg8
I00
sg15
g16
sg17
F189.14814814814815
sg18
F511.0
sg19
I4643166
sg20
S'7674.08580225'
p812
sg22
F1.0185185185185186
sbasg26
I00
sg27
I00
sg28
I4642811
sg20
S'7674.25728521'
p813
sba(igraph
Edge
p814
(dp815
g7
I1
sg8
I00
sg9
I5
sg10
(lp816
g810
ag688
asg26
I00
sg27
I00
sg28
I4642812
sg20
S'7674.26030822'
p817
sba(igraph
Edge
p818
(dp819
g7
I1
sg8
I00
sg9
I5
sg10
(lp820
g12
ag156
asg26
I00
sg27
I00
sg28
I4642813
sg20
S'7674.26334744'
p821
sba(igraph
Edge
p822
(dp823
g7
I1
sg8
I00
sg9
I5
sg10
(lp824
g23
ag156
asg26
I00
sg27
I00
sg28
I4642814
sg20
S'7674.26654533'
p825
sba(igraph
Edge
p826
(dp827
g7
I1
sg8
I00
sg9
I5
sg10
(lp828
g33
ag166
asg26
I00
sg27
I00
sg28
I4642815
sg20
S'7674.27000527'
p829
sba(igraph
Edge
p830
(dp831
g7
I1
sg8
I00
sg9
I5
sg10
(lp832
g40
ag166
asg26
I00
sg27
I00
sg28
I4642816
sg20
S'7674.27275143'
p833
sba(igraph
Edge
p834
(dp835
g7
I1
sg8
I00
sg9
I5
sg10
(lp836
g47
ag180
asg26
I00
sg27
I00
sg28
I4642817
sg20
S'7674.27605715'
p837
sba(igraph
Edge
p838
(dp839
g7
I1
sg8
I00
sg9
I5
sg10
(lp840
g54
ag180
asg26
I00
sg27
I00
sg28
I4642818
sg20
S'7674.27959252'
p841
sba(igraph
Edge
p842
(dp843
g7
I1
sg8
I00
sg9
I5
sg10
(lp844
g61
ag194
asg26
I00
sg27
I00
sg28
I4642819
sg20
S'7674.28286137'
p845
sba(igraph
Edge
p846
(dp847
g7
I1
sg8
I00
sg9
I5
sg10
(lp848
g68
ag194
asg26
I00
sg27
I00
sg28
I4642820
sg20
S'7674.28568324'
p849
sba(igraph
Edge
p850
(dp851
g7
I1
sg8
I00
sg9
I5
sg10
(lp852
g75
ag208
asg26
I00
sg27
I00
sg28
I4642821
sg20
S'7674.28864283'
p853
sba(igraph
Edge
p854
(dp855
g7
I1
sg8
I00
sg9
I5
sg10
(lp856
g82
ag208
asg26
I00
sg27
I00
sg28
I4642822
sg20
S'7674.29153314'
p857
sba(igraph
Edge
p858
(dp859
g7
I1
sg8
I00
sg9
I5
sg10
(lp860
g89
ag222
asg26
I00
sg27
I00
sg28
I4642823
sg20
S'7674.29487491'
p861
sba(igraph
Edge
p862
(dp863
g7
I1
sg8
I00
sg9
I5
sg10
(lp864
g96
ag222
asg26
I00
sg27
I00
sg28
I4642824
sg20
S'7674.29795491'
p865
sba(igraph
Edge
p866
(dp867
g7
I1
sg8
I00
sg9
I5
sg10
(lp868
g103
ag236
asg26
I00
sg27
I00
sg28
I4642825
sg20
S'7674.30077733'
p869
sba(igraph
Edge
p870
(dp871
g7
I1
sg8
I00
sg9
I5
sg10
(lp872
g110
ag236
asg26
I00
sg27
I00
sg28
I4642826
sg20
S'7674.30379951'
p873
sba(igraph
Edge
p874
(dp875
g7
I1
sg8
I00
sg9
I5
sg10
(lp876
g117
ag250
asg26
I00
sg27
I00
sg28
I4642827
sg20
S'7674.30693398'
p877
sba(igraph
Edge
p878
(dp879
g7
I1
sg8
I00
sg9
I5
sg10
(lp880
g124
ag250
asg26
I00
sg27
I00
sg28
I4642828
sg20
S'7674.30999303'
p881
sba(igraph
Edge
p882
(dp883
g7
I1
sg8
I00
sg9
I5
sg10
(lp884
g131
ag264
asg26
I00
sg27
I00
sg28
I4642829
sg20
S'7674.31332278'
p885
sba(igraph
Edge
p886
(dp887
g7
I1
sg8
I00
sg9
I5
sg10
(lp888
g138
ag264
asg26
I00
sg27
I00
sg28
I4642830
sg20
S'7674.31658661'
p889
sba(igraph
Edge
p890
(dp891
g7
I1
sg8
I00
sg9
I5
sg10
(lp892
g145
ag278
asg26
I00
sg27
I00
sg28
I4642831
sg20
S'7674.31971019'
p893
sba(igraph
Edge
p894
(dp895
g7
I1
sg8
I00
sg9
I5
sg10
(lp896
g12
ag278
asg26
I00
sg27
I00
sg28
I4642832
sg20
S'7674.32283712'
p897
sba(igraph
Edge
p898
(dp899
g7
I1
sg8
I00
sg9
I5
sg10
(lp900
g23
ag159
asg26
I00
sg27
I00
sg28
I4642833
sg20
S'7674.32597411'
p901
sba(igraph
Edge
p902
(dp903
g7
I1
sg8
I00
sg9
I5
sg10
(lp904
g33
ag159
asg26
I00
sg27
I00
sg28
I4642834
sg20
S'7674.32904824'
p905
sba(igraph
Edge
p906
(dp907
g7
I1
sg8
I00
sg9
I5
sg10
(lp908
g40
ag173
asg26
I00
sg27
I00
sg28
I4642835
sg20
S'7674.33235928'
p909
sba(igraph
Edge
p910
(dp911
g7
I1
sg8
I00
sg9
I5
sg10
(lp912
g47
ag173
asg26
I00
sg27
I00
sg28
I4642836
sg20
S'7674.33570356'
p913
sba(igraph
Edge
p914
(dp915
g7
I1
sg8
I00
sg9
I5
sg10
(lp916
g54
ag187
asg26
I00
sg27
I00
sg28
I4642837
sg20
S'7674.3389699'
p917
sba(igraph
Edge
p918
(dp919
g7
I1
sg8
I00
sg9
I5
sg10
(lp920
g61
ag187
asg26
I00
sg27
I00
sg28
I4642838
sg20
S'7674.34222255'
p921
sba(igraph
Edge
p922
(dp923
g7
I1
sg8
I00
sg9
I5
sg10
(lp924
g68
ag201
asg26
I00
sg27
I00
sg28
I4642839
sg20
S'7674.34560677'
p925
sba(igraph
Edge
p926
(dp927
g7
I1
sg8
I00
sg9
I5
sg10
(lp928
g75
ag201
asg26
I00
sg27
I00
sg28
I4642840
sg20
S'7674.3489058'
p929
sba(igraph
Edge
p930
(dp931
g7
I1
sg8
I00
sg9
I5
sg10
(lp932
g82
ag215
asg26
I00
sg27
I00
sg28
I4642841
sg20
S'7674.35225538'
p933
sba(igraph
Edge
p934
(dp935
g7
I1
sg8
I00
sg9
I5
sg10
(lp936
g89
ag215
asg26
I00
sg27
I00
sg28
I4642842
sg20
S'7674.35626651'
p937
sba(igraph
Edge
p938
(dp939
g7
I1
sg8
I00
sg9
I5
sg10
(lp940
g96
ag229
asg26
I00
sg27
I00
sg28
I4642843
sg20
S'7674.35966079'
p941
sba(igraph
Edge
p942
(dp943
g7
I1
sg8
I00
sg9
I5
sg10
(lp944
g103
ag229
asg26
I00
sg27
I00
sg28
I4642844
sg20
S'7674.36338753'
p945
sba(igraph
Edge
p946
(dp947
g7
I1
sg8
I00
sg9
I5
sg10
(lp948
g110
ag243
asg26
I00
sg27
I00
sg28
I4642845
sg20
S'7674.37073818'
p949
sba(igraph
Edge
p950
(dp951
g7
I1
sg8
I00
sg9
I5
sg10
(lp952
g117
ag243
asg26
I00
sg27
I00
sg28
I4642846
sg20
S'7674.37527619'
p953
sba(igraph
Edge
p954
(dp955
g7
I1
sg8
I00
sg9
I5
sg10
(lp956
g124
ag257
asg26
I00
sg27
I00
sg28
I4642847
sg20
S'7674.38024051'
p957
sba(igraph
Edge
p958
(dp959
g7
I1
sg8
I00
sg9
I5
sg10
(lp960
g131
ag257
asg26
I00
sg27
I00
sg28
I4642848
sg20
S'7674.38448602'
p961
sba(igraph
Edge
p962
(dp963
g7
I1
sg8
I00
sg9
I5
sg10
(lp964
g138
ag271
asg26
I00
sg27
I00
sg28
I4642849
sg20
S'7674.38859213'
p965
sba(igraph
Edge
p966
(dp967
g7
I1
sg8
I00
sg9
I5
sg10
(lp968
g145
ag271
asg26
I00
sg27
I00
sg28
I4642850
sg20
S'7674.39283987'
p969
sba(igraph
Edge
p970
(dp971
g7
I1
sg8
I00
sg9
I5
sg10
(lp972
g12
ag688
asg26
I00
sg27
I00
sg28
I4642851
sg20
S'7674.39730273'
p973
sba(igraph
Edge
p974
(dp975
g7
I1
sg8
I00
sg9
I5
sg10
(lp976
g23
ag698
asg26
I00
sg27
I00
sg28
I4642852
sg20
S'7674.40168178'
p977
sba(igraph
Edge
p978
(dp979
g7
I1
sg8
I00
sg9
I5
sg10
(lp980
g33
ag698
asg26
I00
sg27
I00
sg28
I4642853
sg20
S'7674.40591528'
p981
sba(igraph
Edge
p982
(dp983
g7
I1
sg8
I00
sg9
I5
sg10
(lp984
g40
ag712
asg26
I00
sg27
I00
sg28
I4642854
sg20
S'7674.41063375'
p985
sba(igraph
Edge
p986
(dp987
g7
I1
sg8
I00
sg9
I5
sg10
(lp988
g47
ag712
asg26
I00
sg27
I00
sg28
I4642855
sg20
S'7674.41612272'
p989
sba(igraph
Edge
p990
(dp991
g7
I1
sg8
I00
sg9
I5
sg10
(lp992
g54
ag726
asg26
I00
sg27
I00
sg28
I4642856
sg20
S'7674.42032186'
p993
sba(igraph
Edge
p994
(dp995
g7
I1
sg8
I00
sg9
I5
sg10
(lp996
g61
ag726
asg26
I00
sg27
I00
sg28
I4642857
sg20
S'7674.42414916'
p997
sba(igraph
Edge
p998
(dp999
g7
I1
sg8
I00
sg9
I5
sg10
(lp1000
g68
ag740
asg26
I00
sg27
I00
sg28
I4642858
sg20
S'7674.42853463'
p1001
sba(igraph
Edge
p1002
(dp1003
g7
I1
sg8
I00
sg9
I5
sg10
(lp1004
g75
ag740
asg26
I00
sg27
I00
sg28
I4642859
sg20
S'7674.43279411'
p1005
sba(igraph
Edge
p1006
(dp1007
g7
I1
sg8
I00
sg9
I5
sg10
(lp1008
g82
ag754
asg26
I00
sg27
I00
sg28
I4642860
sg20
S'7674.43663818'
p1009
sba(igraph
Edge
p1010
(dp1011
g7
I1
sg8
I00
sg9
I5
sg10
(lp1012
g89
ag754
asg26
I00
sg27
I00
sg28
I4642861
sg20
S'7674.44091973'
p1013
sba(igraph
Edge
p1014
(dp1015
g7
I1
sg8
I00
sg9
I5
sg10
(lp1016
g96
ag768
asg26
I00
sg27
I00
sg28
I4642862
sg20
S'7674.44486269'
p1017
sba(igraph
Edge
p1018
(dp1019
g7
I1
sg8
I00
sg9
I5
sg10
(lp1020
g103
ag768
asg26
I00
sg27
I00
sg28
I4642863
sg20
S'7674.44881067'
p1021
sba(igraph
Edge
p1022
(dp1023
g7
I1
sg8
I00
sg9
I5
sg10
(lp1024
g110
ag782
asg26
I00
sg27
I00
sg28
I4642864
sg20
S'7674.4534093'
p1025
sba(igraph
Edge
p1026
(dp1027
g7
I1
sg8
I00
sg9
I5
sg10
(lp1028
g117
ag782
asg26
I00
sg27
I00
sg28
I4642865
sg20
S'7674.45923602'
p1029
sba(igraph
Edge
p1030
(dp1031
g7
I1
sg8
I00
sg9
I5
sg10
(lp1032
g124
ag796
asg26
I00
sg27
I00
sg28
I4642866
sg20
S'7674.46355808'
p1033
sba(igraph
Edge
p1034
(dp1035
g7
I1
sg8
I00
sg9
I5
sg10
(lp1036
g131
ag796
asg26
I00
sg27
I00
sg28
I4642867
sg20
S'7674.46751249'
p1037
sba(igraph
Edge
p1038
(dp1039
g7
I1
sg8
I00
sg9
I5
sg10
(lp1040
g138
ag810
asg26
I00
sg27
I00
sg28
I4642868
sg20
S'7674.47147165'
p1041
sba(igraph
Edge
p1042
(dp1043
g7
I1
sg8
I00
sg9
I5
sg10
(lp1044
g145
ag810
asg26
I00
sg27
I00
sg28
I4642869
sg20
S'7674.47537662'
p1045
sba(igraph
Edge
p1046
(dp1047
g7
I1
sg8
I00
sg9
I5
sg10
(lp1048
g12
ag691
asg26
I00
sg27
I00
sg28
I4642870
sg20
S'7674.47968108'
p1049
sba(igraph
Edge
p1050
(dp1051
g7
I1
sg8
I00
sg9
I5
sg10
(lp1052
g23
ag691
asg26
I00
sg27
I00
sg28
I4642871
sg20
S'7674.48402353'
p1053
sba(igraph
Edge
p1054
(dp1055
g7
I1
sg8
I00
sg9
I5
sg10
(lp1056
g33
ag705
asg26
I00
sg27
I00
sg28
I4642872
sg20
S'7674.48849141'
p1057
sba(igraph
Edge
p1058
(dp1059
g7
I1
sg8
I00
sg9
I5
sg10
(lp1060
g40
ag705
asg26
I00
sg27
I00
sg28
I4642873
sg20
S'7674.4933736'
p1061
sba(igraph
Edge
p1062
(dp1063
g7
I1
sg8
I00
sg9
I5
sg10
(lp1064
g47
ag719
asg26
I00
sg27
I00
sg28
I4642874
sg20
S'7674.4981094'
p1065
sba(igraph
Edge
p1066
(dp1067
g7
I1
sg8
I00
sg9
I5
sg10
(lp1068
g54
ag719
asg26
I00
sg27
I00
sg28
I4642875
sg20
S'7674.50310137'
p1069
sba(igraph
Edge
p1070
(dp1071
g7
I1
sg8
I00
sg9
I5
sg10
(lp1072
g61
ag733
asg26
I00
sg27
I00
sg28
I4642876
sg20
S'7674.50796568'
p1073
sba(igraph
Edge
p1074
(dp1075
g7
I1
sg8
I00
sg9
I5
sg10
(lp1076
g68
ag733
asg26
I00
sg27
I00
sg28
I4642877
sg20
S'7674.51275148'
p1077
sba(igraph
Edge
p1078
(dp1079
g7
I1
sg8
I00
sg9
I5
sg10
(lp1080
g75
ag747
asg26
I00
sg27
I00
sg28
I4642878
sg20
S'7674.51811166'
p1081
sba(igraph
Edge
p1082
(dp1083
g7
I1
sg8
I00
sg9
I5
sg10
(lp1084
g82
ag747
asg26
I00
sg27
I00
sg28
I4642879
sg20
S'7674.52292233'
p1085
sba(igraph
Edge
p1086
(dp1087
g7
I1
sg8
I00
sg9
I5
sg10
(lp1088
g89
ag761
asg26
I00
sg27
I00
sg28
I4642880
sg20
S'7674.52798275'
p1089
sba(igraph
Edge
p1090
(dp1091
g7
I1
sg8
I00
sg9
I5
sg10
(lp1092
g96
ag761
asg26
I00
sg27
I00
sg28
I4642881
sg20
S'7674.53249282'
p1093
sba(igraph
Edge
p1094
(dp1095
g7
I1
sg8
I00
sg9
I5
sg10
(lp1096
g103
ag775
asg26
I00
sg27
I00
sg28
I4642882
sg20
S'7674.53699227'
p1097
sba(igraph
Edge
p1098
(dp1099
g7
I1
sg8
I00
sg9
I5
sg10
(lp1100
g110
ag775
asg26
I00
sg27
I00
sg28
I4642883
sg20
S'7674.54154313'
p1101
sba(igraph
Edge
p1102
(dp1103
g7
I1
sg8
I00
sg9
I5
sg10
(lp1104
g117
ag789
asg26
I00
sg27
I00
sg28
I4642884
sg20
S'7674.5463077'
p1105
sba(igraph
Edge
p1106
(dp1107
g7
I1
sg8
I00
sg9
I5
sg10
(lp1108
g124
ag789
asg26
I00
sg27
I00
sg28
I4642885
sg20
S'7674.55108736'
p1109
sba(igraph
Edge
p1110
(dp1111
g7
I1
sg8
I00
sg9
I5
sg10
(lp1112
g131
ag803
asg26
I00
sg27
I00
sg28
I4642886
sg20
S'7674.55587205'
p1113
sba(igraph
Edge
p1114
(dp1115
g7
I1
sg8
I00
sg9
I5
sg10
(lp1116
g138
ag803
asg26
I00
sg27
I00
sg28
I4642887
sg20
S'7674.56047179'
p1117
sba(igraph
Edge
p1118
(dp1119
g7
I1
sg8
I00
sg9
I5
sg10
(lp1120
g145
ag688
asg26
I00
sg27
I00
sg28
I4642888
sg20
S'7674.56499639'
p1121
sba(igraph
Edge
p1122
(dp1123
g7
I1
sg8
I00
sg9
I5
sg10
(lp1124
g156
ag289
asg26
I00
sg27
I00
sg28
I4642889
sg20
S'7674.56954836'
p1125
sba(igraph
Edge
p1126
(dp1127
g7
I1
sg8
I00
sg9
I5
sg10
(lp1128
g159
ag289
asg26
I00
sg27
I00
sg28
I4642890
sg20
S'7674.57458811'
p1129
sba(igraph
Edge
p1130
(dp1131
g7
I1
sg8
I00
sg9
I5
sg10
(lp1132
g166
ag299
asg26
I00
sg27
I00
sg28
I4642891
sg20
S'7674.57936721'
p1133
sba(igraph
Edge
p1134
(dp1135
g7
I1
sg8
I00
sg9
I5
sg10
(lp1136
g173
ag299
asg26
I00
sg27
I00
sg28
I4642892
sg20
S'7674.5836658'
p1137
sba(igraph
Edge
p1138
(dp1139
g7
I1
sg8
I00
sg9
I5
sg10
(lp1140
g180
ag313
asg26
I00
sg27
I00
sg28
I4642893
sg20
S'7674.58794707'
p1141
sba(igraph
Edge
p1142
(dp1143
g7
I1
sg8
I00
sg9
I5
sg10
(lp1144
g187
ag313
asg26
I00
sg27
I00
sg28
I4642894
sg20
S'7674.59277087'
p1145
sba(igraph
Edge
p1146
(dp1147
g7
I1
sg8
I00
sg9
I5
sg10
(lp1148
g194
ag327
asg26
I00
sg27
I00
sg28
I4642895
sg20
S'7674.59721138'
p1149
sba(igraph
Edge
p1150
(dp1151
g7
I1
sg8
I00
sg9
I5
sg10
(lp1152
g201
ag327
asg26
I00
sg27
I00
sg28
I4642896
sg20
S'7674.60169938'
p1153
sba(igraph
Edge
p1154
(dp1155
g7
I1
sg8
I00
sg9
I5
sg10
(lp1156
g208
ag341
asg26
I00
sg27
I00
sg28
I4642897
sg20
S'7674.60608485'
p1157
sba(igraph
Edge
p1158
(dp1159
g7
I1
sg8
I00
sg9
I5
sg10
(lp1160
g215
ag341
asg26
I00
sg27
I00
sg28
I4642898
sg20
S'7674.61045719'
p1161
sba(igraph
Edge
p1162
(dp1163
g7
I1
sg8
I00
sg9
I5
sg10
(lp1164
g222
ag355
asg26
I00
sg27
I00
sg28
I4642899
sg20
S'7674.61485468'
p1165
sba(igraph
Edge
p1166
(dp1167
g7
I1
sg8
I00
sg9
I5
sg10
(lp1168
g229
ag355
asg26
I00
sg27
I00
sg28
I4642900
sg20
S'7674.61926167'
p1169
sba(igraph
Edge
p1170
(dp1171
g7
I1
sg8
I00
sg9
I5
sg10
(lp1172
g236
ag369
asg26
I00
sg27
I00
sg28
I4642901
sg20
S'7674.6237019'
p1173
sba(igraph
Edge
p1174
(dp1175
g7
I1
sg8
I00
sg9
I5
sg10
(lp1176
g243
ag369
asg26
I00
sg27
I00
sg28
I4642902
sg20
S'7674.62823962'
p1177
sba(igraph
Edge
p1178
(dp1179
g7
I1
sg8
I00
sg9
I5
sg10
(lp1180
g250
ag383
asg26
I00
sg27
I00
sg28
I4642903
sg20
S'7674.63276003'
p1181
sba(igraph
Edge
p1182
(dp1183
g7
I1
sg8
I00
sg9
I5
sg10
(lp1184
g257
ag383
asg26
I00
sg27
I00
sg28
I4642904
sg20
S'7674.63739973'
p1185
sba(igraph
Edge
p1186
(dp1187
g7
I1
sg8
I00
sg9
I5
sg10
(lp1188
g264
ag397
asg26
I00
sg27
I00
sg28
I4642905
sg20
S'7674.64207853'
p1189
sba(igraph
Edge
p1190
(dp1191
g7
I1
sg8
I00
sg9
I5
sg10
(lp1192
g271
ag397
asg26
I00
sg27
I00
sg28
I4642906
sg20
S'7674.64709872'
p1193
sba(igraph
Edge
p1194
(dp1195
g7
I1
sg8
I00
sg9
I5
sg10
(lp1196
g278
ag411
asg26
I00
sg27
I00
sg28
I4642907
sg20
S'7674.65171356'
p1197
sba(igraph
Edge
p1198
(dp1199
g7
I1
sg8
I00
sg9
I5
sg10
(lp1200
g156
ag411
asg26
I00
sg27
I00
sg28
I4642908
sg20
S'7674.65695724'
p1201
sba(igraph
Edge
p1202
(dp1203
g7
I1
sg8
I00
sg9
I5
sg10
(lp1204
g159
ag292
asg26
I00
sg27
I00
sg28
I4642909
sg20
S'7674.66180199'
p1205
sba(igraph
Edge
p1206
(dp1207
g7
I1
sg8
I00
sg9
I5
sg10
(lp1208
g166
ag292
asg26
I00
sg27
I00
sg28
I4642910
sg20
S'7674.6664794'
p1209
sba(igraph
Edge
p1210
(dp1211
g7
I1
sg8
I00
sg9
I5
sg10
(lp1212
g173
ag306
asg26
I00
sg27
I00
sg28
I4642911
sg20
S'7674.67135125'
p1213
sba(igraph
Edge
p1214
(dp1215
g7
I1
sg8
I00
sg9
I5
sg10
(lp1216
g180
ag306
asg26
I00
sg27
I00
sg28
I4642912
sg20
S'7674.67607391'
p1217
sba(igraph
Edge
p1218
(dp1219
g7
I1
sg8
I00
sg9
I5
sg10
(lp1220
g187
ag320
asg26
I00
sg27
I00
sg28
I4642913
sg20
S'7674.68080887'
p1221
sba(igraph
Edge
p1222
(dp1223
g7
I1
sg8
I00
sg9
I5
sg10
(lp1224
g194
ag320
asg26
I00
sg27
I00
sg28
I4642914
sg20
S'7674.68561814'
p1225
sba(igraph
Edge
p1226
(dp1227
g7
I1
sg8
I00
sg9
I5
sg10
(lp1228
g201
ag334
asg26
I00
sg27
I00
sg28
I4642915
sg20
S'7674.69050452'
p1229
sba(igraph
Edge
p1230
(dp1231
g7
I1
sg8
I00
sg9
I5
sg10
(lp1232
g208
ag334
asg26
I00
sg27
I00
sg28
I4642916
sg20
S'7674.69528781'
p1233
sba(igraph
Edge
p1234
(dp1235
g7
I1
sg8
I00
sg9
I5
sg10
(lp1236
g215
ag348
asg26
I00
sg27
I00
sg28
I4642917
sg20
S'7674.70014317'
p1237
sba(igraph
Edge
p1238
(dp1239
g7
I1
sg8
I00
sg9
I5
sg10
(lp1240
g222
ag348
asg26
I00
sg27
I00
sg28
I4642918
sg20
S'7674.70499686'
p1241
sba(igraph
Edge
p1242
(dp1243
g7
I1
sg8
I00
sg9
I5
sg10
(lp1244
g229
ag362
asg26
I00
sg27
I00
sg28
I4642919
sg20
S'7674.70995504'
p1245
sba(igraph
Edge
p1246
(dp1247
g7
I1
sg8
I00
sg9
I5
sg10
(lp1248
g236
ag362
asg26
I00
sg27
I00
sg28
I4642920
sg20
S'7674.71480062'
p1249
sba(igraph
Edge
p1250
(dp1251
g7
I1
sg8
I00
sg9
I5
sg10
(lp1252
g243
ag376
asg26
I00
sg27
I00
sg28
I4642921
sg20
S'7674.71977416'
p1253
sba(igraph
Edge
p1254
(dp1255
g7
I1
sg8
I00
sg9
I5
sg10
(lp1256
g250
ag376
asg26
I00
sg27
I00
sg28
I4642922
sg20
S'7674.72470077'
p1257
sba(igraph
Edge
p1258
(dp1259
g7
I1
sg8
I00
sg9
I5
sg10
(lp1260
g257
ag390
asg26
I00
sg27
I00
sg28
I4642923
sg20
S'7674.72963184'
p1261
sba(igraph
Edge
p1262
(dp1263
g7
I1
sg8
I00
sg9
I5
sg10
(lp1264
g264
ag390
asg26
I00
sg27
I00
sg28
I4642924
sg20
S'7674.73470008'
p1265
sba(igraph
Edge
p1266
(dp1267
g7
I1
sg8
I00
sg9
I5
sg10
(lp1268
g271
ag404
asg26
I00
sg27
I00
sg28
I4642925
sg20
S'7674.73988174'
p1269
sba(igraph
Edge
p1270
(dp1271
g7
I1
sg8
I00
sg9
I5
sg10
(lp1272
g278
ag404
asg26
I00
sg27
I00
sg28
I4642926
sg20
S'7674.74487204'
p1273
sba(igraph
Edge
p1274
(dp1275
g7
I1
sg8
I00
sg9
I5
sg10
(lp1276
g289
ag422
asg26
I00
sg27
I00
sg28
I4642927
sg20
S'7674.74986793'
p1277
sba(igraph
Edge
p1278
(dp1279
g7
I1
sg8
I00
sg9
I5
sg10
(lp1280
g292
ag422
asg26
I00
sg27
I00
sg28
I4642928
sg20
S'7674.75503311'
p1281
sba(igraph
Edge
p1282
(dp1283
g7
I1
sg8
I00
sg9
I5
sg10
(lp1284
g299
ag432
asg26
I00
sg27
I00
sg28
I4642929
sg20
S'7674.76038351'
p1285
sba(igraph
Edge
p1286
(dp1287
g7
I1
sg8
I00
sg9
I5
sg10
(lp1288
g306
ag432
asg26
I00
sg27
I00
sg28
I4642930
sg20
S'7674.76544477'
p1289
sba(igraph
Edge
p1290
(dp1291
g7
I1
sg8
I00
sg9
I5
sg10
(lp1292
g313
ag446
asg26
I00
sg27
I00
sg28
I4642931
sg20
S'7674.77059766'
p1293
sba(igraph
Edge
p1294
(dp1295
g7
I1
sg8
I00
sg9
I5
sg10
(lp1296
g320
ag446
asg26
I00
sg27
I00
sg28
I4642932
sg20
S'7674.77580111'
p1297
sba(igraph
Edge
p1298
(dp1299
g7
I1
sg8
I00
sg9
I5
sg10
(lp1300
g327
ag460
asg26
I00
sg27
I00
sg28
I4642933
sg20
S'7674.78100988'
p1301
sba(igraph
Edge
p1302
(dp1303
g7
I1
sg8
I00
sg9
I5
sg10
(lp1304
g334
ag460
asg26
I00
sg27
I00
sg28
I4642934
sg20
S'7674.78624686'
p1305
sba(igraph
Edge
p1306
(dp1307
g7
I1
sg8
I00
sg9
I5
sg10
(lp1308
g341
ag474
asg26
I00
sg27
I00
sg28
I4642935
sg20
S'7674.79146344'
p1309
sba(igraph
Edge
p1310
(dp1311
g7
I1
sg8
I00
sg9
I5
sg10
(lp1312
g348
ag474
asg26
I00
sg27
I00
sg28
I4642936
sg20
S'7674.79678423'
p1313
sba(igraph
Edge
p1314
(dp1315
g7
I1
sg8
I00
sg9
I5
sg10
(lp1316
g355
ag488
asg26
I00
sg27
I00
sg28
I4642937
sg20
S'7674.80205864'
p1317
sba(igraph
Edge
p1318
(dp1319
g7
I1
sg8
I00
sg9
I5
sg10
(lp1320
g362
ag488
asg26
I00
sg27
I00
sg28
I4642938
sg20
S'7674.80735596'
p1321
sba(igraph
Edge
p1322
(dp1323
g7
I1
sg8
I00
sg9
I5
sg10
(lp1324
g369
ag502
asg26
I00
sg27
I00
sg28
I4642939
sg20
S'7674.81270413'
p1325
sba(igraph
Edge
p1326
(dp1327
g7
I1
sg8
I00
sg9
I5
sg10
(lp1328
g376
ag502
asg26
I00
sg27
I00
sg28
I4642940
sg20
S'7674.81808917'
p1329
sba(igraph
Edge
p1330
(dp1331
g7
I1
sg8
I00
sg9
I5
sg10
(lp1332
g383
ag516
asg26
I00
sg27
I00
sg28
I4642941
sg20
S'7674.82346527'
p1333
sba(igraph
Edge
p1334
(dp1335
g7
I1
sg8
I00
sg9
I5
sg10
(lp1336
g390
ag516
asg26
I00
sg27
I00
sg28
I4642942
sg20
S'7674.82890647'
p1337
sba(igraph
Edge
p1338
(dp1339
g7
I1
sg8
I00
sg9
I5
sg10
(lp1340
g397
ag530
asg26
I00
sg27
I00
sg28
I4642943
sg20
S'7674.83430632'
p1341
sba(igraph
Edge
p1342
(dp1343
g7
I1
sg8
I00
sg9
I5
sg10
(lp1344
g404
ag530
asg26
I00
sg27
I00
sg28
I4642944
sg20
S'7674.83967879'
p1345
sba(igraph
Edge
p1346
(dp1347
g7
I1
sg8
I00
sg9
I5
sg10
(lp1348
g411
ag544
asg26
I00
sg27
I00
sg28
I4642945
sg20
S'7674.84507752'
p1349
sba(igraph
Edge
p1350
(dp1351
g7
I1
sg8
I00
sg9
I5
sg10
(lp1352
g289
ag544
asg26
I00
sg27
I00
sg28
I4642946
sg20
S'7674.85069443'
p1353
sba(igraph
Edge
p1354
(dp1355
g7
I1
sg8
I00
sg9
I5
sg10
(lp1356
g292
ag425
asg26
I00
sg27
I00
sg28
I4642947
sg20
S'7674.85630911'
p1357
sba(igraph
Edge
p1358
(dp1359
g7
I1
sg8
I00
sg9
I5
sg10
(lp1360
g299
ag425
asg26
I00
sg27
I00
sg28
I4642948
sg20
S'7674.86183747'
p1361
sba(igraph
Edge
p1362
(dp1363
g7
I1
sg8
I00
sg9
I5
sg10
(lp1364
g306
ag439
asg26
I00
sg27
I00
sg28
I4642949
sg20
S'7674.86740745'
p1365
sba(igraph
Edge
p1366
(dp1367
g7
I1
sg8
I00
sg9
I5
sg10
(lp1368
g313
ag439
asg26
I00
sg27
I00
sg28
I4642950
sg20
S'7674.8730632'
p1369
sba(igraph
Edge
p1370
(dp1371
g7
I1
sg8
I00
sg9
I5
sg10
(lp1372
g320
ag453
asg26
I00
sg27
I00
sg28
I4642951
sg20
S'7674.87872984'
p1373
sba(igraph
Edge
p1374
(dp1375
g7
I1
sg8
I00
sg9
I5
sg10
(lp1376
g327
ag453
asg26
I00
sg27
I00
sg28
I4642952
sg20
S'7674.88433837'
p1377
sba(igraph
Edge
p1378
(dp1379
g7
I1
sg8
I00
sg9
I5
sg10
(lp1380
g334
ag467
asg26
I00
sg27
I00
sg28
I4642953
sg20
S'7674.88989187'
p1381
sba(igraph
Edge
p1382
(dp1383
g7
I1
sg8
I00
sg9
I5
sg10
(lp1384
g341
ag467
asg26
I00
sg27
I00
sg28
I4642954
sg20
S'7674.895996'
p1385
sba(igraph
Edge
p1386
(dp1387
g7
I1
sg8
I00
sg9
I5
sg10
(lp1388
g348
ag481
asg26
I00
sg27
I00
sg28
I4642955
sg20
S'7674.90170371'
p1389
sba(igraph
Edge
p1390
(dp1391
g7
I1
sg8
I00
sg9
I5
sg10
(lp1392
g355
ag481
asg26
I00
sg27
I00
sg28
I4642956
sg20
S'7674.90727509'
p1393
sba(igraph
Edge
p1394
(dp1395
g7
I1
sg8
I00
sg9
I5
sg10
(lp1396
g362
ag495
asg26
I00
sg27
I00
sg28
I4642957
sg20
S'7674.912892'
p1397
sba(igraph
Edge
p1398
(dp1399
g7
I1
sg8
I00
sg9
I5
sg10
(lp1400
g369
ag495
asg26
I00
sg27
I00
sg28
I4642958
sg20
S'7674.91861563'
p1401
sba(igraph
Edge
p1402
(dp1403
g7
I1
sg8
I00
sg9
I5
sg10
(lp1404
g376
ag509
asg26
I00
sg27
I00
sg28
I4642959
sg20
S'7674.9243943'
p1405
sba(igraph
Edge
p1406
(dp1407
g7
I1
sg8
I00
sg9
I5
sg10
(lp1408
g383
ag509
asg26
I00
sg27
I00
sg28
I4642960
sg20
S'7674.93039534'
p1409
sba(igraph
Edge
p1410
(dp1411
g7
I1
sg8
I00
sg9
I5
sg10
(lp1412
g390
ag523
asg26
I00
sg27
I00
sg28
I4642961
sg20
S'7674.93620446'
p1413
sba(igraph
Edge
p1414
(dp1415
g7
I1
sg8
I00
sg9
I5
sg10
(lp1416
g397
ag523
asg26
I00
sg27
I00
sg28
I4642962
sg20
S'7674.9423991'
p1417
sba(igraph
Edge
p1418
(dp1419
g7
I1
sg8
I00
sg9
I5
sg10
(lp1420
g404
ag537
asg26
I00
sg27
I00
sg28
I4642963
sg20
S'7674.94837836'
p1421
sba(igraph
Edge
p1422
(dp1423
g7
I1
sg8
I00
sg9
I5
sg10
(lp1424
g411
ag537
asg26
I00
sg27
I00
sg28
I4642964
sg20
S'7674.95438554'
p1425
sba(igraph
Edge
p1426
(dp1427
g7
I1
sg8
I00
sg9
I5
sg10
(lp1428
g422
ag555
asg26
I00
sg27
I00
sg28
I4642965
sg20
S'7674.96033406'
p1429
sba(igraph
Edge
p1430
(dp1431
g7
I1
sg8
I00
sg9
I5
sg10
(lp1432
g425
ag555
asg26
I00
sg27
I00
sg28
I4642966
sg20
S'7674.96627868'
p1433
sba(igraph
Edge
p1434
(dp1435
g7
I1
sg8
I00
sg9
I5
sg10
(lp1436
g432
ag565
asg26
I00
sg27
I00
sg28
I4642967
sg20
S'7674.97217384'
p1437
sba(igraph
Edge
p1438
(dp1439
g7
I1
sg8
I00
sg9
I5
sg10
(lp1440
g439
ag565
asg26
I00
sg27
I00
sg28
I4642968
sg20
S'7674.97821204'
p1441
sba(igraph
Edge
p1442
(dp1443
g7
I1
sg8
I00
sg9
I5
sg10
(lp1444
g446
ag579
asg26
I00
sg27
I00
sg28
I4642969
sg20
S'7674.98419492'
p1445
sba(igraph
Edge
p1446
(dp1447
g7
I1
sg8
I00
sg9
I5
sg10
(lp1448
g453
ag579
asg26
I00
sg27
I00
sg28
I4642970
sg20
S'7674.99031637'
p1449
sba(igraph
Edge
p1450
(dp1451
g7
I1
sg8
I00
sg9
I5
sg10
(lp1452
g460
ag593
asg26
I00
sg27
I00
sg28
I4642971
sg20
S'7674.99639898'
p1453
sba(igraph
Edge
p1454
(dp1455
g7
I1
sg8
I00
sg9
I5
sg10
(lp1456
g467
ag593
asg26
I00
sg27
I00
sg28
I4642972
sg20
S'7675.00244472'
p1457
sba(igraph
Edge
p1458
(dp1459
g7
I1
sg8
I00
sg9
I5
sg10
(lp1460
g474
ag607
asg26
I00
sg27
I00
sg28
I4642973
sg20
S'7675.0084466'
p1461
sba(igraph
Edge
p1462
(dp1463
g7
I1
sg8
I00
sg9
I5
sg10
(lp1464
g481
ag607
asg26
I00
sg27
I00
sg28
I4642974
sg20
S'7675.01451022'
p1465
sba(igraph
Edge
p1466
(dp1467
g7
I1
sg8
I00
sg9
I5
sg10
(lp1468
g488
ag621
asg26
I00
sg27
I00
sg28
I4642975
sg20
S'7675.02061351'
p1469
sba(igraph
Edge
p1470
(dp1471
g7
I1
sg8
I00
sg9
I5
sg10
(lp1472
g495
ag621
asg26
I00
sg27
I00
sg28
I4642976
sg20
S'7675.02672658'
p1473
sba(igraph
Edge
p1474
(dp1475
g7
I1
sg8
I00
sg9
I5
sg10
(lp1476
g502
ag635
asg26
I00
sg27
I00
sg28
I4642977
sg20
S'7675.03284384'
p1477
sba(igraph
Edge
p1478
(dp1479
g7
I1
sg8
I00
sg9
I5
sg10
(lp1480
g509
ag635
asg26
I00
sg27
I00
sg28
I4642978
sg20
S'7675.03890131'
p1481
sba(igraph
Edge
p1482
(dp1483
g7
I1
sg8
I00
sg9
I5
sg10
(lp1484
g516
ag649
asg26
I00
sg27
I00
sg28
I4642979
sg20
S'7675.04515434'
p1485
sba(igraph
Edge
p1486
(dp1487
g7
I1
sg8
I00
sg9
I5
sg10
(lp1488
g523
ag649
asg26
I00
sg27
I00
sg28
I4642980
sg20
S'7675.0513353'
p1489
sba(igraph
Edge
p1490
(dp1491
g7
I1
sg8
I00
sg9
I5
sg10
(lp1492
g530
ag663
asg26
I00
sg27
I00
sg28
I4642981
sg20
S'7675.05751373'
p1493
sba(igraph
Edge
p1494
(dp1495
g7
I1
sg8
I00
sg9
I5
sg10
(lp1496
g537
ag663
asg26
I00
sg27
I00
sg28
I4642982
sg20
S'7675.06385057'
p1497
sba(igraph
Edge
p1498
(dp1499
g7
I1
sg8
I00
sg9
I5
sg10
(lp1500
g544
ag677
asg26
I00
sg27
I00
sg28
I4642983
sg20
S'7675.07005779'
p1501
sba(igraph
Edge
p1502
(dp1503
g7
I1
sg8
I00
sg9
I5
sg10
(lp1504
g422
ag677
asg26
I00
sg27
I00
sg28
I4642984
sg20
S'7675.0762731'
p1505
sba(igraph
Edge
p1506
(dp1507
g7
I1
sg8
I00
sg9
I5
sg10
(lp1508
g425
ag558
asg26
I00
sg27
I00
sg28
I4642985
sg20
S'7675.08252948'
p1509
sba(igraph
Edge
p1510
(dp1511
g7
I1
sg8
I00
sg9
I5
sg10
(lp1512
g432
ag558
asg26
I00
sg27
I00
sg28
I4642986
sg20
S'7675.08891186'
p1513
sba(igraph
Edge
p1514
(dp1515
g7
I1
sg8
I00
sg9
I5
sg10
(lp1516
g439
ag572
asg26
I00
sg27
I00
sg28
I4642987
sg20
S'7675.09519757'
p1517
sba(igraph
Edge
p1518
(dp1519
g7
I1
sg8
I00
sg9
I5
sg10
(lp1520
g446
ag572
asg26
I00
sg27
I00
sg28
I4642988
sg20
S'7675.1015995'
p1521
sba(igraph
Edge
p1522
(dp1523
g7
I1
sg8
I00
sg9
I5
sg10
(lp1524
g453
ag586
asg26
I00
sg27
I00
sg28
I4642989
sg20
S'7675.10794892'
p1525
sba(igraph
Edge
p1526
(dp1527
g7
I1
sg8
I00
sg9
I5
sg10
(lp1528
g460
ag586
asg26
I00
sg27
I00
sg28
I4642990
sg20
S'7675.11438633'
p1529
sba(igraph
Edge
p1530
(dp1531
g7
I1
sg8
I00
sg9
I5
sg10
(lp1532
g467
ag600
asg26
I00
sg27
I00
sg28
I4642991
sg20
S'7675.12076786'
p1533
sba(igraph
Edge
p1534
(dp1535
g7
I1
sg8
I00
sg9
I5
sg10
(lp1536
g474
ag600
asg26
I00
sg27
I00
sg28
I4642992
sg20
S'7675.12720444'
p1537
sba(igraph
Edge
p1538
(dp1539
g7
I1
sg8
I00
sg9
I5
sg10
(lp1540
g481
ag614
asg26
I00
sg27
I00
sg28
I4642993
sg20
S'7675.13381142'
p1541
sba(igraph
Edge
p1542
(dp1543
g7
I1
sg8
I00
sg9
I5
sg10
(lp1544
g488
ag614
asg26
I00
sg27
I00
sg28
I4642994
sg20
S'7675.14036449'
p1545
sba(igraph
Edge
p1546
(dp1547
g7
I1
sg8
I00
sg9
I5
sg10
(lp1548
g495
ag628
asg26
I00
sg27
I00
sg28
I4642995
sg20
S'7675.14695443'
p1549
sba(igraph
Edge
p1550
(dp1551
g7
I1
sg8
I00
sg9
I5
sg10
(lp1552
g502
ag628
asg26
I00
sg27
I00
sg28
I4642996
sg20
S'7675.15354773'
p1553
sba(igraph
Edge
p1554
(dp1555
g7
I1
sg8
I00
sg9
I5
sg10
(lp1556
g509
ag642
asg26
I00
sg27
I00
sg28
I4642997
sg20
S'7675.1600899'
p1557
sba(igraph
Edge
p1558
(dp1559
g7
I1
sg8
I00
sg9
I5
sg10
(lp1560
g516
ag642
asg26
I00
sg27
I00
sg28
I4642998
sg20
S'7675.1668293'
p1561
sba(igraph
Edge
p1562
(dp1563
g7
I1
sg8
I00
sg9
I5
sg10
(lp1564
g523
ag656
asg26
I00
sg27
I00
sg28
I4642999
sg20
S'7675.17354636'
p1565
sba(igraph
Edge
p1566
(dp1567
g7
I1
sg8
I00
sg9
I5
sg10
(lp1568
g530
ag656
asg26
I00
sg27
I00
sg28
I4643000
sg20
S'7675.18031677'
p1569
sba(igraph
Edge
p1570
(dp1571
g7
I1
sg8
I00
sg9
I5
sg10
(lp1572
g537
ag670
asg26
I00
sg27
I00
sg28
I4643001
sg20
S'7675.18695505'
p1573
sba(igraph
Edge
p1574
(dp1575
g7
I1
sg8
I00
sg9
I5
sg10
(lp1576
g544
ag670
asg26
I00
sg27
I00
sg28
I4643002
sg20
S'7675.19373188'
p1577
sba(igraph
Edge
p1578
(dp1579
g7
I1
sg8
I00
sg9
I5
sg10
(lp1580
g555
ag688
asg26
I00
sg27
I00
sg28
I4643003
sg20
S'7675.20073333'
p1581
sba(igraph
Edge
p1582
(dp1583
g7
I1
sg8
I00
sg9
I5
sg10
(lp1584
g558
ag688
asg26
I00
sg27
I00
sg28
I4643004
sg20
S'7675.20744452'
p1585
sba(igraph
Edge
p1586
(dp1587
g7
I1
sg8
I00
sg9
I5
sg10
(lp1588
g565
ag698
asg26
I00
sg27
I00
sg28
I4643005
sg20
S'7675.21438423'
p1589
sba(igraph
Edge
p1590
(dp1591
g7
I1
sg8
I00
sg9
I5
sg10
(lp1592
g572
ag698
asg26
I00
sg27
I00
sg28
I4643006
sg20
S'7675.22113313'
p1593
sba(igraph
Edge
p1594
(dp1595
g7
I1
sg8
I00
sg9
I5
sg10
(lp1596
g579
ag712
asg26
I00
sg27
I00
sg28
I4643007
sg20
S'7675.22796249'
p1597
sba(igraph
Edge
p1598
(dp1599
g7
I1
sg8
I00
sg9
I5
sg10
(lp1600
g586
ag712
asg26
I00
sg27
I00
sg28
I4643008
sg20
S'7675.2347952'
p1601
sba(igraph
Edge
p1602
(dp1603
g7
I1
sg8
I00
sg9
I5
sg10
(lp1604
g593
ag726
asg26
I00
sg27
I00
sg28
I4643009
sg20
S'7675.24164133'
p1605
sba(igraph
Edge
p1606
(dp1607
g7
I1
sg8
I00
sg9
I5
sg10
(lp1608
g600
ag726
asg26
I00
sg27
I00
sg28
I4643010
sg20
S'7675.24845504'
p1609
sba(igraph
Edge
p1610
(dp1611
g7
I1
sg8
I00
sg9
I5
sg10
(lp1612
g607
ag740
asg26
I00
sg27
I00
sg28
I4643011
sg20
S'7675.25539754'
p1613
sba(igraph
Edge
p1614
(dp1615
g7
I1
sg8
I00
sg9
I5
sg10
(lp1616
g614
ag740
asg26
I00
sg27
I00
sg28
I4643012
sg20
S'7675.26226909'
p1617
sba(igraph
Edge
p1618
(dp1619
g7
I1
sg8
I00
sg9
I5
sg10
(lp1620
g621
ag754
asg26
I00
sg27
I00
sg28
I4643013
sg20
S'7675.26931775'
p1621
sba(igraph
Edge
p1622
(dp1623
g7
I1
sg8
I00
sg9
I5
sg10
(lp1624
g628
ag754
asg26
I00
sg27
I00
sg28
I4643014
sg20
S'7675.27651978'
p1625
sba(igraph
Edge
p1626
(dp1627
g7
I1
sg8
I00
sg9
I5
sg10
(lp1628
g635
ag768
asg26
I00
sg27
I00
sg28
I4643015
sg20
S'7675.28349134'
p1629
sba(igraph
Edge
p1630
(dp1631
g7
I1
sg8
I00
sg9
I5
sg10
(lp1632
g642
ag768
asg26
I00
sg27
I00
sg28
I4643016
sg20
S'7675.29064281'
p1633
sba(igraph
Edge
p1634
(dp1635
g7
I1
sg8
I00
sg9
I5
sg10
(lp1636
g649
ag782
asg26
I00
sg27
I00
sg28
I4643017
sg20
S'7675.29761967'
p1637
sba(igraph
Edge
p1638
(dp1639
g7
I1
sg8
I00
sg9
I5
sg10
(lp1640
g656
ag782
asg26
I00
sg27
I00
sg28
I4643018
sg20
S'7675.30474683'
p1641
sba(igraph
Edge
p1642
(dp1643
g7
I1
sg8
I00
sg9
I5
sg10
(lp1644
g663
ag796
asg26
I00
sg27
I00
sg28
I4643019
sg20
S'7675.31178264'
p1645
sba(igraph
Edge
p1646
(dp1647
g7
I1
sg8
I00
sg9
I5
sg10
(lp1648
g670
ag796
asg26
I00
sg27
I00
sg28
I4643020
sg20
S'7675.31891428'
p1649
sba(igraph
Edge
p1650
(dp1651
g7
I1
sg8
I00
sg9
I5
sg10
(lp1652
g677
ag810
asg26
I00
sg27
I00
sg28
I4643021
sg20
S'7675.32604898'
p1653
sba(igraph
Edge
p1654
(dp1655
g7
I1
sg8
I00
sg9
I5
sg10
(lp1656
g555
ag810
asg26
I00
sg27
I00
sg28
I4643022
sg20
S'7675.33322392'
p1657
sba(igraph
Edge
p1658
(dp1659
g7
I1
sg8
I00
sg9
I5
sg10
(lp1660
g558
ag691
asg26
I00
sg27
I00
sg28
I4643023
sg20
S'7675.34043852'
p1661
sba(igraph
Edge
p1662
(dp1663
g7
I1
sg8
I00
sg9
I5
sg10
(lp1664
g565
ag691
asg26
I00
sg27
I00
sg28
I4643024
sg20
S'7675.34769503'
p1665
sba(igraph
Edge
p1666
(dp1667
g7
I1
sg8
I00
sg9
I5
sg10
(lp1668
g572
ag705
asg26
I00
sg27
I00
sg28
I4643025
sg20
S'7675.3547909'
p1669
sba(igraph
Edge
p1670
(dp1671
g7
I1
sg8
I00
sg9
I5
sg10
(lp1672
g579
ag705
asg26
I00
sg27
I00
sg28
I4643026
sg20
S'7675.36193762'
p1673
sba(igraph
Edge
p1674
(dp1675
g7
I1
sg8
I00
sg9
I5
sg10
(lp1676
g586
ag719
asg26
I00
sg27
I00
sg28
I4643027
sg20
S'7675.36919525'
p1677
sba(igraph
Edge
p1678
(dp1679
g7
I1
sg8
I00
sg9
I5
sg10
(lp1680
g593
ag719
asg26
I00
sg27
I00
sg28
I4643028
sg20
S'7675.37642186'
p1681
sba(igraph
Edge
p1682
(dp1683
g7
I1
sg8
I00
sg9
I5
sg10
(lp1684
g600
ag733
asg26
I00
sg27
I00
sg28
I4643029
sg20
S'7675.38373341'
p1685
sba(igraph
Edge
p1686
(dp1687
g7
I1
sg8
I00
sg9
I5
sg10
(lp1688
g607
ag733
asg26
I00
sg27
I00
sg28
I4643030
sg20
S'7675.39102819'
p1689
sba(igraph
Edge
p1690
(dp1691
g7
I1
sg8
I00
sg9
I5
sg10
(lp1692
g614
ag747
asg26
I00
sg27
I00
sg28
I4643031
sg20
S'7675.39861295'
p1693
sba(igraph
Edge
p1694
(dp1695
g7
I1
sg8
I00
sg9
I5
sg10
(lp1696
g621
ag747
asg26
I00
sg27
I00
sg28
I4643032
sg20
S'7675.4061072'
p1697
sba(igraph
Edge
p1698
(dp1699
g7
I1
sg8
I00
sg9
I5
sg10
(lp1700
g628
ag761
asg26
I00
sg27
I00
sg28
I4643033
sg20
S'7675.41357128'
p1701
sba(igraph
Edge
p1702
(dp1703
g7
I1
sg8
I00
sg9
I5
sg10
(lp1704
g635
ag761
asg26
I00
sg27
I00
sg28
I4643034
sg20
S'7675.42098591'
p1705
sba(igraph
Edge
p1706
(dp1707
g7
I1
sg8
I00
sg9
I5
sg10
(lp1708
g642
ag775
asg26
I00
sg27
I00
sg28
I4643035
sg20
S'7675.42830891'
p1709
sba(igraph
Edge
p1710
(dp1711
g7
I1
sg8
I00
sg9
I5
sg10
(lp1712
g649
ag775
asg26
I00
sg27
I00
sg28
I4643036
sg20
S'7675.43576488'
p1713
sba(igraph
Edge
p1714
(dp1715
g7
I1
sg8
I00
sg9
I5
sg10
(lp1716
g656
ag789
asg26
I00
sg27
I00
sg28
I4643037
sg20
S'7675.44330662'
p1717
sba(igraph
Edge
p1718
(dp1719
g7
I1
sg8
I00
sg9
I5
sg10
(lp1720
g663
ag789
asg26
I00
sg27
I00
sg28
I4643038
sg20
S'7675.45069667'
p1721
sba(igraph
Edge
p1722
(dp1723
g7
I1
sg8
I00
sg9
I5
sg10
(lp1724
g670
ag803
asg26
I00
sg27
I00
sg28
I4643039
sg20
S'7675.45834457'
p1725
sba(igraph
Edge
p1726
(dp1727
g7
I1
sg8
I00
sg9
I5
sg10
(lp1728
g677
ag803
asg26
I00
sg27
I00
sg28
I4643040
sg20
S'7675.46604862'
p1729
sbasS'vertices'
p1730
(lp1731
g12
ag23
ag33
ag40
ag47
ag54
ag61
ag68
ag75
ag82
ag89
ag96
ag103
ag110
ag117
ag124
ag131
ag138
ag145
ag156
ag159
ag166
ag173
ag180
ag187
ag194
ag201
ag208
ag215
ag222
ag229
ag236
ag243
ag250
ag257
ag264
ag271
ag278
ag289
ag292
ag299
ag306
ag313
ag320
ag327
ag334
ag341
ag348
ag355
ag362
ag369
ag376
ag383
ag390
ag397
ag404
ag411
ag422
ag425
ag432
ag439
ag446
ag453
ag460
ag467
ag474
ag481
ag488
ag495
ag502
ag509
ag516
ag523
ag530
ag537
ag544
ag555
ag558
ag565
ag572
ag579
ag586
ag593
ag600
ag607
ag614
ag621
ag628
ag635
ag642
ag649
ag656
ag663
ag670
ag677
ag688
ag691
ag698
ag705
ag712
ag719
ag726
ag733
ag740
ag747
ag754
ag761
ag768
ag775
ag782
ag789
ag796
ag803
ag810
asS'tags'
p1732
(lp1733
sb.