(igraph
Graph
p0
(dp1
S'labelingConstraints'
p2
I-1
sS'edges'
p3
(lp4
(igraph
Edge
p5
(dp6
S'direction'
p7
I1
sS'selected'
p8
I00
sS'height'
p9
I5
sS'vs'
p10
(lp11
(igraph
Vertex
p12
(dp13
S'xnorm'
p14
F0.0
sg8
I00
sS'label'
p15
S'NULL'
p16
sS'y'
p17
F-327.0
sS'x'
p18
F-576.0
sS'circle'
p19
I3597605
sS'id'
p20
S'4691.45263295'
p21
sS'ynorm'
p22
F0.0
sba(igraph
Vertex
p23
(dp24
g14
F0.055555555555555539
sg8
I00
sg15
g16
sg17
F-327.0
sg18
F-511.88888888888891
sg19
I3597606
sg20
S'4691.45265865'
p25
sg22
F0.0
sbasS'wrap'
p26
I00
sS'curved'
p27
I00
sS'line'
p28
I3596862
sg20
S'4691.76343055'
p29
sba(igraph
Edge
p30
(dp31
g7
I1
sg8
I00
sg9
I5
sg10
(lp32
g23
a(igraph
Vertex
p33
(dp34
g14
F0.11111111111111108
sg8
I00
sg15
g16
sg17
F-327.0
sg18
F-447.77777777777783
sg19
I3597607
sg20
S'4691.45268211'
p35
sg22
F0.0
sbasg26
I00
sg27
I00
sg28
I3596863
sg20
S'4691.76349396'
p36
sba(igraph
Edge
p37
(dp38
g7
I1
sg8
I00
sg9
I5
sg10
(lp39
g33
a(igraph
Vertex
p40
(dp41
g14
F0.1666666666666666
sg8
I00
sg15
g16
sg17
F-327.0
sg18
F-383.66666666666674
sg19
I3597608
sg20
S'4691.45271005'
p42
sg22
F0.0
sbasg26
I00
sg27
I00
sg28
I3596864
sg20
S'4691.76357945'
p43
sba(igraph
Edge
p44
(dp45
g7
I1
sg8
I00
sg9
I5
sg10
(lp46
g40
a(igraph
Vertex
p47
(dp48
g14
F0.22222222222222215
sg8
I00
sg15
g16
sg17
F-327.0
sg18
F-319.55555555555566
sg19
I3597609
sg20
S'4691.45274385'
p49
sg22
F0.0
sbasg26
I00
sg27
I00
sg28
I3596865
sg20
S'4691.76368645'
p50
sba(igraph
Edge
p51
(dp52
g7
I1
sg8
I00
sg9
I5
sg10
(lp53
g47
a(igraph
Vertex
p54
(dp55
g14
F0.27777777777777768
sg8
I00
sg15
g16
sg17
F-327.0
sg18
F-255.44444444444457
sg19
I3597610
sg20
S'4691.45278576'
p56
sg22
F0.0
sbasg26
I00
sg27
I00
sg28
I3596866
sg20
S'4691.76381719'
p57
sba(igraph
Edge
p58
(dp59
g7
I1
sg8
I00
sg9
I5
sg10
(lp60
g54
a(igraph
Vertex
p61
(dp62
g14
F0.3333333333333332
sg8
I00
sg15
g16
sg17
F-327.0
sg18
F-191.33333333333348
sg19
I3597611
sg20
S'4691.45283549'
p63
sg22
F0.0
sbasg26
I00
sg27
I00
sg28
I3596867
sg20
S'4691.76397'
p64
sba(igraph
Edge
p65
(dp66
g7
I1
sg8
I00
sg9
I5
sg10
(lp67
g61
a(igraph
Vertex
p68
(dp69
g14
F0.38888888888888884
sg8
I00
sg15
g16
sg17
F-327.0
sg18
F-127.22222222222229
sg19
I3597612
sg20
S'4691.45289192'
p70
sg22
F0.0
sbasg26
I00
sg27
I00
sg28
I3596868
sg20
S'4691.76414349'
p71
sba(igraph
Edge
p72
(dp73
g7
I1
sg8
I00
sg9
I5
sg10
(lp74
g68
a(igraph
Vertex
p75
(dp76
g14
F0.44444444444444436
sg8
I00
sg15
g16
sg17
F-327.0
sg18
F-63.1111111111112
sg19
I3597613
sg20
S'4691.45295505'
p77
sg22
F0.0
sbasg26
I00
sg27
I00
sg28
I3596869
sg20
S'4691.76449884'
p78
sba(igraph
Edge
p79
(dp80
g7
I1
sg8
I00
sg9
I5
sg10
(lp81
g75
a(igraph
Vertex
p82
(dp83
g14
F0.5
sg8
I00
sg15
g16
sg17
F-327.0
sg18
F1.0
sg19
I3597614
sg20
S'4691.45302629'
p84
sg22
F0.0
sbasg26
I00
sg27
I00
sg28
I3596870
sg20
S'4691.76472596'
p85
sba(igraph
Edge
p86
(dp87
g7
I1
sg8
I00
sg9
I5
sg10
(lp88
g82
a(igraph
Vertex
p89
(dp90
g14
F0.55555555555555558
sg8
I00
sg15
g16
sg17
F-327.0
sg18
F65.111111111111086
sg19
I3597615
sg20
S'4691.45310507'
p91
sg22
F0.0
sbasg26
I00
sg27
I00
sg28
I3596871
sg20
S'4691.76497125'
p92
sba(igraph
Edge
p93
(dp94
g7
I1
sg8
I00
sg9
I5
sg10
(lp95
g89
a(igraph
Vertex
p96
(dp97
g14
F0.61111111111111116
sg8
I00
sg15
g16
sg17
F-327.0
sg18
F129.22222222222229
sg19
I3597616
sg20
S'4691.45319196'
p98
sg22
F0.0
sbasg26
I00
sg27
I00
sg28
I3596872
sg20
S'4691.76528525'
p99
sba(igraph
Edge
p100
(dp101
g7
I1
sg8
I00
sg9
I5
sg10
(lp102
g96
a(igraph
Vertex
p103
(dp104
g14
F0.66666666666666663
sg8
I00
sg15
g16
sg17
F-327.0
sg18
F193.33333333333326
sg19
I3597617
sg20
S'4691.45328694'
p105
sg22
F0.0
sbasg26
I00
sg27
I00
sg28
I3596873
sg20
S'4691.76563809'
p106
sba(igraph
Edge
p107
(dp108
g7
I1
sg8
I00
sg9
I5
sg10
(lp109
g103
a(igraph
Vertex
p110
(dp111
g14
F0.72222222222222221
sg8
I00
sg15
g16
sg17
F-327.0
sg18
F257.44444444444446
sg19
I3597618
sg20
S'4691.45338891'
p112
sg22
F0.0
sbasg26
I00
sg27
I00
sg28
I3596874
sg20
S'4691.76594874'
p113
sba(igraph
Edge
p114
(dp115
g7
I1
sg8
I00
sg9
I5
sg10
(lp116
g110
a(igraph
Vertex
p117
(dp118
g14
F0.7777777777777779
sg8
I00
sg15
g16
sg17
F-327.0
sg18
F321.55555555555566
sg19
I3597619
sg20
S'4691.45349842'
p119
sg22
F0.0
sbasg26
I00
sg27
I00
sg28
I3596875
sg20
S'4691.7664016'
p120
sba(igraph
Edge
p121
(dp122
g7
I1
sg8
I00
sg9
I5
sg10
(lp123
g117
a(igraph
Vertex
p124
(dp125
g14
F0.83333333333333337
sg8
I01
sg15
I0
sg17
F-327.0
sg18
F385.66666666666674
sg19
I3597621
sg20
S'4691.45361659'
p126
sg22
F0.0
sbasg26
I00
sg27
I00
sg28
I3596876
sg20
S'4691.76676701'
p127
sba(igraph
Edge
p128
(dp129
g7
I1
sg8
I00
sg9
I5
sg10
(lp130
g124
a(igraph
Vertex
p131
(dp132
g14
F0.88888888888888873
sg8
I00
sg15
g16
sg17
F-327.0
sg18
F449.7777777777776
sg19
I3597623
sg20
S'4691.45374314'
p133
sg22
F0.0
sbasg26
I00
sg27
I00
sg28
I3596877
sg20
S'4691.76728467'
p134
sba(igraph
Edge
p135
(dp136
g7
I1
sg8
I00
sg9
I5
sg10
(lp137
g131
a(igraph
Vertex
p138
(dp139
g14
F0.94444444444444442
sg8
I00
sg15
g16
sg17
F-327.0
sg18
F513.88888888888891
sg19
I3597624
sg20
S'4691.4538778'
p140
sg22
F0.0
sbasg26
I00
sg27
I00
sg28
I3596878
sg20
S'4691.76768528'
p141
sba(igraph
Edge
p142
(dp143
g7
I1
sg8
I00
sg9
I5
sg10
(lp144
g138
a(igraph
Vertex
p145
(dp146
g14
F1.0
sg8
I00
sg15
g16
sg17
F-327.0
sg18
F578.0
sg19
I3597625
sg20
S'4691.45402055'
p147
sg22
F0.0
sbasg26
I00
sg27
I00
sg28
I3596879
sg20
S'4691.76813953'
p148
sba(igraph
Edge
p149
(dp150
g7
I1
sg8
I00
sg9
I5
sg10
(lp151
g145
ag12
asg26
I00
sg27
I00
sg28
I3596880
sg20
S'4691.76858567'
p152
sba(igraph
Edge
p153
(dp154
g7
I1
sg8
I00
sg9
I5
sg10
(lp155
(igraph
Vertex
p156
(dp157
g14
F0.0
sg8
I00
sg15
g16
sg17
F-272.25
sg18
F-576.0
sg19
I3597626
sg20
S'4691.45416945'
p158
sg22
F0.083333333333333329
sba(igraph
Vertex
p159
(dp160
g14
F0.055555555555555539
sg8
I00
sg15
g16
sg17
F-272.25
sg18
F-511.88888888888891
sg19
I3597627
sg20
S'4691.45432506'
p161
sg22
F0.083333333333333329
sbasg26
I00
sg27
I00
sg28
I3596881
sg20
S'4691.76906003'
p162
sba(igraph
Edge
p163
(dp164
g7
I1
sg8
I00
sg9
I5
sg10
(lp165
g159
a(igraph
Vertex
p166
(dp167
g14
F0.11111111111111108
sg8
I00
sg15
g16
sg17
F-272.25
sg18
F-447.77777777777783
sg19
I3597628
sg20
S'4691.45448877'
p168
sg22
F0.083333333333333329
sbasg26
I00
sg27
I00
sg28
I3596882
sg20
S'4691.7695573'
p169
sba(igraph
Edge
p170
(dp171
g7
I1
sg8
I00
sg9
I5
sg10
(lp172
g166
a(igraph
Vertex
p173
(dp174
g14
F0.1666666666666666
sg8
I00
sg15
g16
sg17
F-272.25
sg18
F-383.66666666666674
sg19
I3597629
sg20
S'4691.45466617'
p175
sg22
F0.083333333333333329
sbasg26
I00
sg27
I00
sg28
I3596883
sg20
S'4691.77014537'
p176
sba(igraph
Edge
p177
(dp178
g7
I1
sg8
I00
sg9
I5
sg10
(lp179
g173
a(igraph
Vertex
p180
(dp181
g14
F0.22222222222222215
sg8
I00
sg15
g16
sg17
F-272.25
sg18
F-319.55555555555566
sg19
I3597630
sg20
S'4691.45485083'
p182
sg22
F0.083333333333333329
sbasg26
I00
sg27
I00
sg28
I3596884
sg20
S'4691.77233419'
p183
sba(igraph
Edge
p184
(dp185
g7
I1
sg8
I00
sg9
I5
sg10
(lp186
g180
a(igraph
Vertex
p187
(dp188
g14
F0.27777777777777768
sg8
I00
sg15
g16
sg17
F-272.25
sg18
F-255.44444444444457
sg19
I3597631
sg20
S'4691.45504135'
p189
sg22
F0.083333333333333329
sbasg26
I00
sg27
I00
sg28
I3596885
sg20
S'4691.77292505'
p190
sba(igraph
Edge
p191
(dp192
g7
I1
sg8
I00
sg9
I5
sg10
(lp193
g187
a(igraph
Vertex
p194
(dp195
g14
F0.3333333333333332
sg8
I00
sg15
g16
sg17
F-272.25
sg18
F-191.33333333333348
sg19
I3597632
sg20
S'4691.45523831'
p196
sg22
F0.083333333333333329
sbasg26
I00
sg27
I00
sg28
I3596886
sg20
S'4691.77364218'
p197
sba(igraph
Edge
p198
(dp199
g7
I1
sg8
I00
sg9
I5
sg10
(lp200
g194
a(igraph
Vertex
p201
(dp202
g14
F0.38888888888888884
sg8
I00
sg15
g16
sg17
F-272.25
sg18
F-127.22222222222229
sg19
I3597633
sg20
S'4691.45544448'
p203
sg22
F0.083333333333333329
sbasg26
I00
sg27
I00
sg28
I3596887
sg20
S'4691.77425902'
p204
sba(igraph
Edge
p205
(dp206
g7
I1
sg8
I00
sg9
I5
sg10
(lp207
g201
a(igraph
Vertex
p208
(dp209
g14
F0.44444444444444436
sg8
I00
sg15
g16
sg17
F-272.25
sg18
F-63.1111111111112
sg19
I3597634
sg20
S'4691.45565931'
p210
sg22
F0.083333333333333329
sbasg26
I00
sg27
I00
sg28
I3596888
sg20
S'4691.77489988'
p211
sba(igraph
Edge
p212
(dp213
g7
I1
sg8
I00
sg9
I5
sg10
(lp214
g208
a(igraph
Vertex
p215
(dp216
g14
F0.5
sg8
I00
sg15
g16
sg17
F-272.25
sg18
F1.0
sg19
I3597635
sg20
S'4691.45588001'
p217
sg22
F0.083333333333333329
sbasg26
I00
sg27
I00
sg28
I3596889
sg20
S'4691.77558796'
p218
sba(igraph
Edge
p219
(dp220
g7
I1
sg8
I00
sg9
I5
sg10
(lp221
g215
a(igraph
Vertex
p222
(dp223
g14
F0.55555555555555558
sg8
I00
sg15
g16
sg17
F-272.25
sg18
F65.111111111111086
sg19
I3597636
sg20
S'4691.45610909'
p224
sg22
F0.083333333333333329
sbasg26
I00
sg27
I00
sg28
I3596890
sg20
S'4691.77627492'
p225
sba(igraph
Edge
p226
(dp227
g7
I1
sg8
I00
sg9
I5
sg10
(lp228
g222
a(igraph
Vertex
p229
(dp230
g14
F0.61111111111111116
sg8
I00
sg15
g16
sg17
F-272.25
sg18
F129.22222222222229
sg19
I3597637
sg20
S'4691.45634459'
p231
sg22
F0.083333333333333329
sbasg26
I00
sg27
I00
sg28
I3596891
sg20
S'4691.77727616'
p232
sba(igraph
Edge
p233
(dp234
g7
I1
sg8
I00
sg9
I5
sg10
(lp235
g229
a(igraph
Vertex
p236
(dp237
g14
F0.66666666666666663
sg8
I00
sg15
g16
sg17
F-272.25
sg18
F193.33333333333326
sg19
I3597638
sg20
S'4691.45659015'
p238
sg22
F0.083333333333333329
sbasg26
I00
sg27
I00
sg28
I3596892
sg20
S'4691.77802682'
p239
sba(igraph
Edge
p240
(dp241
g7
I1
sg8
I00
sg9
I5
sg10
(lp242
g236
a(igraph
Vertex
p243
(dp244
g14
F0.72222222222222221
sg8
I01
sg15
I0
sg17
F-272.25
sg18
F257.44444444444446
sg19
I3597640
sg20
S'4691.45684354'
p245
sg22
F0.083333333333333329
sbasg26
I00
sg27
I00
sg28
I3596893
sg20
S'4691.77878054'
p246
sba(igraph
Edge
p247
(dp248
g7
I1
sg8
I00
sg9
I5
sg10
(lp249
g243
a(igraph
Vertex
p250
(dp251
g14
F0.7777777777777779
sg8
I00
sg15
g16
sg17
F-272.25
sg18
F321.55555555555566
sg19
I3597642
sg20
S'4691.45710502'
p252
sg22
F0.083333333333333329
sbasg26
I00
sg27
I00
sg28
I3596894
sg20
S'4691.77962339'
p253
sba(igraph
Edge
p254
(dp255
g7
I1
sg8
I00
sg9
I5
sg10
(lp256
g250
a(igraph
Vertex
p257
(dp258
g14
F0.83333333333333337
sg8
I00
sg15
g16
sg17
F-272.25
sg18
F385.66666666666674
sg19
I3597643
sg20
S'4691.45738299'
p259
sg22
F0.083333333333333329
sbasg26
I00
sg27
I00
sg28
I3596895
sg20
S'4691.78040701'
p260
sba(igraph
Edge
p261
(dp262
g7
I1
sg8
I00
sg9
I5
sg10
(lp263
g257
a(igraph
Vertex
p264
(dp265
g14
F0.88888888888888873
sg8
I00
sg15
g16
sg17
F-272.25
sg18
F449.7777777777776
sg19
I3597644
sg20
S'4691.45800625'
p266
sg22
F0.083333333333333329
sbasg26
I00
sg27
I00
sg28
I3596896
sg20
S'4691.78121325'
p267
sba(igraph
Edge
p268
(dp269
g7
I1
sg8
I00
sg9
I5
sg10
(lp270
g264
a(igraph
Vertex
p271
(dp272
g14
F0.94444444444444442
sg8
I00
sg15
g16
sg17
F-272.25
sg18
F513.88888888888891
sg19
I3597645
sg20
S'4691.45830378'
p273
sg22
F0.083333333333333329
sbasg26
I00
sg27
I00
sg28
I3596897
sg20
S'4691.78204269'
p274
sba(igraph
Edge
p275
(dp276
g7
I1
sg8
I00
sg9
I5
sg10
(lp277
g271
a(igraph
Vertex
p278
(dp279
g14
F1.0
sg8
I00
sg15
g16
sg17
F-272.25
sg18
F578.0
sg19
I3597646
sg20
S'4691.45860214'
p280
sg22
F0.083333333333333329
sbasg26
I00
sg27
I00
sg28
I3596898
sg20
S'4691.78289839'
p281
sba(igraph
Edge
p282
(dp283
g7
I1
sg8
I00
sg9
I5
sg10
(lp284
g278
ag156
asg26
I00
sg27
I00
sg28
I3596899
sg20
S'4691.78377587'
p285
sba(igraph
Edge
p286
(dp287
g7
I1
sg8
I00
sg9
I5
sg10
(lp288
(igraph
Vertex
p289
(dp290
g14
F0.0
sg8
I00
sg15
g16
sg17
F-217.5
sg18
F-576.0
sg19
I3597647
sg20
S'4691.45890358'
p291
sg22
F0.16666666666666666
sba(igraph
Vertex
p292
(dp293
g14
F0.055555555555555539
sg8
I00
sg15
g16
sg17
F-217.5
sg18
F-511.88888888888891
sg19
I3597648
sg20
S'4691.45921591'
p294
sg22
F0.16666666666666666
sbasg26
I00
sg27
I00
sg28
I3596900
sg20
S'4691.78467124'
p295
sba(igraph
Edge
p296
(dp297
g7
I1
sg8
I00
sg9
I5
sg10
(lp298
g292
a(igraph
Vertex
p299
(dp300
g14
F0.11111111111111108
sg8
I00
sg15
g16
sg17
F-217.5
sg18
F-447.77777777777783
sg19
I3597649
sg20
S'4691.45953215'
p301
sg22
F0.16666666666666666
sbasg26
I00
sg27
I00
sg28
I3596901
sg20
S'4691.78558951'
p302
sba(igraph
Edge
p303
(dp304
g7
I1
sg8
I00
sg9
I5
sg10
(lp305
g299
a(igraph
Vertex
p306
(dp307
g14
F0.1666666666666666
sg8
I00
sg15
g16
sg17
F-217.5
sg18
F-383.66666666666674
sg19
I3597650
sg20
S'4691.45985705'
p308
sg22
F0.16666666666666666
sbasg26
I00
sg27
I00
sg28
I3596902
sg20
S'4691.78652873'
p309
sba(igraph
Edge
p310
(dp311
g7
I1
sg8
I00
sg9
I5
sg10
(lp312
g306
a(igraph
Vertex
p313
(dp314
g14
F0.22222222222222215
sg8
I00
sg15
g16
sg17
F-217.5
sg18
F-319.55555555555566
sg19
I3597651
sg20
S'4691.46018949'
p315
sg22
F0.16666666666666666
sbasg26
I00
sg27
I00
sg28
I3596903
sg20
S'4691.78915253'
p316
sba(igraph
Edge
p317
(dp318
g7
I1
sg8
I00
sg9
I5
sg10
(lp319
g313
a(igraph
Vertex
p320
(dp321
g14
F0.27777777777777768
sg8
I00
sg15
g16
sg17
F-217.5
sg18
F-255.44444444444457
sg19
I3597652
sg20
S'4691.46053339'
p322
sg22
F0.16666666666666666
sbasg26
I00
sg27
I00
sg28
I3596904
sg20
S'4691.79023088'
p323
sba(igraph
Edge
p324
(dp325
g7
I1
sg8
I00
sg9
I5
sg10
(lp326
g320
a(igraph
Vertex
p327
(dp328
g14
F0.3333333333333332
sg8
I00
sg15
g16
sg17
F-217.5
sg18
F-191.33333333333348
sg19
I3597653
sg20
S'4691.46088176'
p329
sg22
F0.16666666666666666
sbasg26
I00
sg27
I00
sg28
I3596905
sg20
S'4691.79125727'
p330
sba(igraph
Edge
p331
(dp332
g7
I1
sg8
I00
sg9
I5
sg10
(lp333
g327
a(igraph
Vertex
p334
(dp335
g14
F0.38888888888888884
sg8
I00
sg15
g16
sg17
F-217.5
sg18
F-127.22222222222229
sg19
I3597654
sg20
S'4691.46123907'
p336
sg22
F0.16666666666666666
sbasg26
I00
sg27
I00
sg28
I3596906
sg20
S'4691.79230126'
p337
sba(igraph
Edge
p338
(dp339
g7
I1
sg8
I00
sg9
I5
sg10
(lp340
g334
a(igraph
Vertex
p341
(dp342
g14
F0.44444444444444436
sg8
I00
sg15
g16
sg17
F-217.5
sg18
F-63.1111111111112
sg19
I3597655
sg20
S'4691.46160364'
p343
sg22
F0.16666666666666666
sbasg26
I00
sg27
I00
sg28
I3596907
sg20
S'4691.79351538'
p344
sba(igraph
Edge
p345
(dp346
g7
I1
sg8
I00
sg9
I5
sg10
(lp347
g341
a(igraph
Vertex
p348
(dp349
g14
F0.5
sg8
I00
sg15
g16
sg17
F-217.5
sg18
F1.0
sg19
I3597656
sg20
S'4691.46197855'
p350
sg22
F0.16666666666666666
sbasg26
I00
sg27
I00
sg28
I3596908
sg20
S'4691.79460658'
p351
sba(igraph
Edge
p352
(dp353
g7
I1
sg8
I00
sg9
I5
sg10
(lp354
g348
a(igraph
Vertex
p355
(dp356
g14
F0.55555555555555558
sg8
I00
sg15
g16
sg17
F-217.5
sg18
F65.111111111111086
sg19
I3597657
sg20
S'4691.46235932'
p357
sg22
F0.16666666666666666
sbasg26
I00
sg27
I00
sg28
I3596909
sg20
S'4691.79581511'
p358
sba(igraph
Edge
p359
(dp360
g7
I1
sg8
I00
sg9
I5
sg10
(lp361
g355
a(igraph
Vertex
p362
(dp363
g14
F0.61111111111111116
sg8
I00
sg15
g16
sg17
F-217.5
sg18
F129.22222222222229
sg19
I3597658
sg20
S'4691.4627496'
p364
sg22
F0.16666666666666666
sbasg26
I00
sg27
I00
sg28
I3596910
sg20
S'4691.79694738'
p365
sba(igraph
Edge
p366
(dp367
g7
I1
sg8
I00
sg9
I5
sg10
(lp368
g362
a(igraph
Vertex
p369
(dp370
g14
F0.66666666666666663
sg8
I00
sg15
g16
sg17
F-217.5
sg18
F193.33333333333326
sg19
I3597659
sg20
S'4691.46314629'
p371
sg22
F0.16666666666666666
sbasg26
I00
sg27
I00
sg28
I3596911
sg20
S'4691.79834029'
p372
sba(igraph
Edge
p373
(dp374
g7
I1
sg8
I00
sg9
I5
sg10
(lp375
g369
a(igraph
Vertex
p376
(dp377
g14
F0.72222222222222221
sg8
I00
sg15
g16
sg17
F-217.5
sg18
F257.44444444444446
sg19
I3597660
sg20
S'4691.46355193'
p378
sg22
F0.16666666666666666
sbasg26
I00
sg27
I00
sg28
I3596912
sg20
S'4691.80020841'
p379
sba(igraph
Edge
p380
(dp381
g7
I1
sg8
I00
sg9
I5
sg10
(lp382
g376
a(igraph
Vertex
p383
(dp384
g14
F0.7777777777777779
sg8
I01
sg15
I0
sg17
F-217.5
sg18
F321.55555555555566
sg19
I3597662
sg20
S'4691.46396036'
p385
sg22
F0.16666666666666666
sbasg26
I00
sg27
I00
sg28
I3596913
sg20
S'4691.80167256'
p386
sba(igraph
Edge
p387
(dp388
g7
I1
sg8
I00
sg9
I5
sg10
(lp389
g383
a(igraph
Vertex
p390
(dp391
g14
F0.83333333333333337
sg8
I00
sg15
g16
sg17
F-217.5
sg18
F385.66666666666674
sg19
I3597664
sg20
S'4691.46437913'
p392
sg22
F0.16666666666666666
sbasg26
I00
sg27
I00
sg28
I3596914
sg20
S'4691.80313895'
p393
sba(igraph
Edge
p394
(dp395
g7
I1
sg8
I00
sg9
I5
sg10
(lp396
g390
a(igraph
Vertex
p397
(dp398
g14
F0.88888888888888873
sg8
I00
sg15
g16
sg17
F-217.5
sg18
F449.7777777777776
sg19
I3597665
sg20
S'4691.464806'
p399
sg22
F0.16666666666666666
sbasg26
I00
sg27
I00
sg28
I3596915
sg20
S'4691.80481598'
p400
sba(igraph
Edge
p401
(dp402
g7
I1
sg8
I00
sg9
I5
sg10
(lp403
g397
a(igraph
Vertex
p404
(dp405
g14
F0.94444444444444442
sg8
I00
sg15
g16
sg17
F-217.5
sg18
F513.88888888888891
sg19
I3597666
sg20
S'4691.46524321'
p406
sg22
F0.16666666666666666
sbasg26
I00
sg27
I00
sg28
I3596916
sg20
S'4691.80636422'
p407
sba(igraph
Edge
p408
(dp409
g7
I1
sg8
I00
sg9
I5
sg10
(lp410
g404
a(igraph
Vertex
p411
(dp412
g14
F1.0
sg8
I00
sg15
g16
sg17
F-217.5
sg18
F578.0
sg19
I3597667
sg20
S'4691.46568684'
p413
sg22
F0.16666666666666666
sbasg26
I00
sg27
I00
sg28
I3596917
sg20
S'4691.80798034'
p414
sba(igraph
Edge
p415
(dp416
g7
I1
sg8
I00
sg9
I5
sg10
(lp417
g411
ag289
asg26
I00
sg27
I00
sg28
I3596918
sg20
S'4691.80970403'
p418
sba(igraph
Edge
p419
(dp420
g7
I1
sg8
I00
sg9
I5
sg10
(lp421
(igraph
Vertex
p422
(dp423
g14
F0.0
sg8
I00
sg15
g16
sg17
F-162.75
sg18
F-576.0
sg19
I3597668
sg20
S'4691.46613885'
p424
sg22
F0.25
sba(igraph
Vertex
p425
(dp426
g14
F0.055555555555555539
sg8
I00
sg15
g16
sg17
F-162.75
sg18
F-511.88888888888891
sg19
I3597669
sg20
S'4691.46660148'
p427
sg22
F0.25
sbasg26
I00
sg27
I00
sg28
I3596919
sg20
S'4691.81122433'
p428
sba(igraph
Edge
p429
(dp430
g7
I1
sg8
I00
sg9
I5
sg10
(lp431
g425
a(igraph
Vertex
p432
(dp433
g14
F0.11111111111111108
sg8
I00
sg15
g16
sg17
F-162.75
sg18
F-447.77777777777783
sg19
I3597670
sg20
S'4691.4670697'
p434
sg22
F0.25
sbasg26
I00
sg27
I00
sg28
I3596920
sg20
S'4691.81281057'
p435
sba(igraph
Edge
p436
(dp437
g7
I1
sg8
I00
sg9
I5
sg10
(lp438
g432
a(igraph
Vertex
p439
(dp440
g14
F0.1666666666666666
sg8
I00
sg15
g16
sg17
F-162.75
sg18
F-383.66666666666674
sg19
I3597671
sg20
S'4691.46754853'
p441
sg22
F0.25
sbasg26
I00
sg27
I00
sg28
I3596921
sg20
S'4691.81450967'
p442
sba(igraph
Edge
p443
(dp444
g7
I1
sg8
I00
sg9
I5
sg10
(lp445
g439
a(igraph
Vertex
p446
(dp447
g14
F0.22222222222222215
sg8
I00
sg15
g16
sg17
F-162.75
sg18
F-319.55555555555566
sg19
I3597672
sg20
S'4691.46803127'
p448
sg22
F0.25
sbasg26
I00
sg27
I00
sg28
I3596922
sg20
S'4691.81640851'
p449
sba(igraph
Edge
p450
(dp451
g7
I1
sg8
I00
sg9
I5
sg10
(lp452
g446
a(igraph
Vertex
p453
(dp454
g14
F0.27777777777777768
sg8
I00
sg15
g16
sg17
F-162.75
sg18
F-255.44444444444457
sg19
I3597673
sg20
S'4691.46852938'
p455
sg22
F0.25
sbasg26
I00
sg27
I00
sg28
I3596923
sg20
S'4691.81819198'
p456
sba(igraph
Edge
p457
(dp458
g7
I1
sg8
I00
sg9
I5
sg10
(lp459
g453
a(igraph
Vertex
p460
(dp461
g14
F0.3333333333333332
sg8
I00
sg15
g16
sg17
F-162.75
sg18
F-191.33333333333348
sg19
I3597674
sg20
S'4691.4690314'
p462
sg22
F0.25
sbasg26
I00
sg27
I00
sg28
I3596924
sg20
S'4691.81996455'
p463
sba(igraph
Edge
p464
(dp465
g7
I1
sg8
I00
sg9
I5
sg10
(lp466
g460
a(igraph
Vertex
p467
(dp468
g14
F0.38888888888888884
sg8
I00
sg15
g16
sg17
F-162.75
sg18
F-127.22222222222229
sg19
I3597675
sg20
S'4691.46954152'
p469
sg22
F0.25
sbasg26
I00
sg27
I00
sg28
I3596925
sg20
S'4691.82171058'
p470
sba(igraph
Edge
p471
(dp472
g7
I1
sg8
I00
sg9
I5
sg10
(lp473
g467
a(igraph
Vertex
p474
(dp475
g14
F0.44444444444444436
sg8
I00
sg15
g16
sg17
F-162.75
sg18
F-63.1111111111112
sg19
I3597676
sg20
S'4691.47005779'
p476
sg22
F0.25
sbasg26
I00
sg27
I00
sg28
I3596926
sg20
S'4691.82355271'
p477
sba(igraph
Edge
p478
(dp479
g7
I1
sg8
I00
sg9
I5
sg10
(lp480
g474
a(igraph
Vertex
p481
(dp482
g14
F0.5
sg8
I00
sg15
g16
sg17
F-162.75
sg18
F1.0
sg19
I3597677
sg20
S'4691.47058299'
p483
sg22
F0.25
sbasg26
I00
sg27
I00
sg28
I3596927
sg20
S'4691.82534736'
p484
sba(igraph
Edge
p485
(dp486
g7
I1
sg8
I00
sg9
I5
sg10
(lp487
g481
a(igraph
Vertex
p488
(dp489
g14
F0.55555555555555558
sg8
I00
sg15
g16
sg17
F-162.75
sg18
F65.111111111111086
sg19
I3597678
sg20
S'4691.47112161'
p490
sg22
F0.25
sbasg26
I00
sg27
I00
sg28
I3596928
sg20
S'4691.82729565'
p491
sba(igraph
Edge
p492
(dp493
g7
I1
sg8
I00
sg9
I5
sg10
(lp494
g488
a(igraph
Vertex
p495
(dp496
g14
F0.61111111111111116
sg8
I00
sg15
g16
sg17
F-162.75
sg18
F129.22222222222229
sg19
I3597679
sg20
S'4691.47169878'
p497
sg22
F0.25
sbasg26
I00
sg27
I00
sg28
I3596929
sg20
S'4691.8294909'
p498
sba(igraph
Edge
p499
(dp500
g7
I1
sg8
I00
sg9
I5
sg10
(lp501
g495
a(igraph
Vertex
p502
(dp503
g14
F0.66666666666666663
sg8
I01
sg15
I0
sg17
F-162.75
sg18
F193.33333333333326
sg19
I3597681
sg20
S'4691.47227371'
p504
sg22
F0.25
sbasg26
I00
sg27
I00
sg28
I3596930
sg20
S'4691.83139924'
p505
sba(igraph
Edge
p506
(dp507
g7
I1
sg8
I00
sg9
I5
sg10
(lp508
g502
a(igraph
Vertex
p509
(dp510
g14
F0.72222222222222221
sg8
I00
sg15
g16
sg17
F-162.75
sg18
F257.44444444444446
sg19
I3597683
sg20
S'4691.47283747'
p511
sg22
F0.25
sbasg26
I00
sg27
I00
sg28
I3596931
sg20
S'4691.8335741'
p512
sba(igraph
Edge
p513
(dp514
g7
I1
sg8
I00
sg9
I5
sg10
(lp515
g509
a(igraph
Vertex
p516
(dp517
g14
F0.7777777777777779
sg8
I00
sg15
g16
sg17
F-162.75
sg18
F321.55555555555566
sg19
I3597684
sg20
S'4691.47349984'
p518
sg22
F0.25
sbasg26
I00
sg27
I00
sg28
I3596932
sg20
S'4691.83547602'
p519
sba(igraph
Edge
p520
(dp521
g7
I1
sg8
I00
sg9
I5
sg10
(lp522
g516
a(igraph
Vertex
p523
(dp524
g14
F0.83333333333333337
sg8
I00
sg15
g16
sg17
F-162.75
sg18
F385.66666666666674
sg19
I3597685
sg20
S'4691.47408064'
p525
sg22
F0.25
sbasg26
I00
sg27
I00
sg28
I3596933
sg20
S'4691.8397274'
p526
sba(igraph
Edge
p527
(dp528
g7
I1
sg8
I00
sg9
I5
sg10
(lp529
g523
a(igraph
Vertex
p530
(dp531
g14
F0.88888888888888873
sg8
I00
sg15
g16
sg17
F-162.75
sg18
F449.7777777777776
sg19
I3597686
sg20
S'4691.47467262'
p532
sg22
F0.25
sbasg26
I00
sg27
I00
sg28
I3596934
sg20
S'4691.84201344'
p533
sba(igraph
Edge
p534
(dp535
g7
I1
sg8
I00
sg9
I5
sg10
(lp536
g530
a(igraph
Vertex
p537
(dp538
g14
F0.94444444444444442
sg8
I00
sg15
g16
sg17
F-162.75
sg18
F513.88888888888891
sg19
I3597687
sg20
S'4691.47527325'
p539
sg22
F0.25
sbasg26
I00
sg27
I00
sg28
I3596935
sg20
S'4691.84406901'
p540
sba(igraph
Edge
p541
(dp542
g7
I1
sg8
I00
sg9
I5
sg10
(lp543
g537
a(igraph
Vertex
p544
(dp545
g14
F1.0
sg8
I00
sg15
g16
sg17
F-162.75
sg18
F578.0
sg19
I3597688
sg20
S'4691.47587668'
p546
sg22
F0.25
sbasg26
I00
sg27
I00
sg28
I3596936
sg20
S'4691.84609608'
p547
sba(igraph
Edge
p548
(dp549
g7
I1
sg8
I00
sg9
I5
sg10
(lp550
g544
ag422
asg26
I00
sg27
I00
sg28
I3596937
sg20
S'4691.84808991'
p551
sba(igraph
Edge
p552
(dp553
g7
I1
sg8
I00
sg9
I5
sg10
(lp554
(igraph
Vertex
p555
(dp556
g14
F0.0
sg8
I00
sg15
g16
sg17
F-108.0
sg18
F-576.0
sg19
I3597689
sg20
S'4691.47649157'
p557
sg22
F0.33333333333333331
sba(igraph
Vertex
p558
(dp559
g14
F0.055555555555555539
sg8
I00
sg15
g16
sg17
F-108.0
sg18
F-511.88888888888891
sg19
I3597690
sg20
S'4691.47711064'
p560
sg22
F0.33333333333333331
sbasg26
I00
sg27
I00
sg28
I3596938
sg20
S'4691.85056648'
p561
sba(igraph
Edge
p562
(dp563
g7
I1
sg8
I00
sg9
I5
sg10
(lp564
g558
a(igraph
Vertex
p565
(dp566
g14
F0.11111111111111108
sg8
I00
sg15
g16
sg17
F-108.0
sg18
F-447.77777777777783
sg19
I3597691
sg20
S'4691.47774172'
p567
sg22
F0.33333333333333331
sbasg26
I00
sg27
I00
sg28
I3596939
sg20
S'4691.85254997'
p568
sba(igraph
Edge
p569
(dp570
g7
I1
sg8
I00
sg9
I5
sg10
(lp571
g565
a(igraph
Vertex
p572
(dp573
g14
F0.1666666666666666
sg8
I00
sg15
g16
sg17
F-108.0
sg18
F-383.66666666666674
sg19
I3597692
sg20
S'4691.47838147'
p574
sg22
F0.33333333333333331
sbasg26
I00
sg27
I00
sg28
I3596940
sg20
S'4691.85432981'
p575
sba(igraph
Edge
p576
(dp577
g7
I1
sg8
I00
sg9
I5
sg10
(lp578
g572
a(igraph
Vertex
p579
(dp580
g14
F0.22222222222222215
sg8
I00
sg15
g16
sg17
F-108.0
sg18
F-319.55555555555566
sg19
I3597693
sg20
S'4691.47902485'
p581
sg22
F0.33333333333333331
sbasg26
I00
sg27
I00
sg28
I3596941
sg20
S'4691.85634822'
p582
sba(igraph
Edge
p583
(dp584
g7
I1
sg8
I00
sg9
I5
sg10
(lp585
g579
a(igraph
Vertex
p586
(dp587
g14
F0.27777777777777768
sg8
I00
sg15
g16
sg17
F-108.0
sg18
F-255.44444444444457
sg19
I3597694
sg20
S'4691.47967772'
p588
sg22
F0.33333333333333331
sbasg26
I00
sg27
I00
sg28
I3596942
sg20
S'4691.85857895'
p589
sba(igraph
Edge
p590
(dp591
g7
I1
sg8
I00
sg9
I5
sg10
(lp592
g586
a(igraph
Vertex
p593
(dp594
g14
F0.3333333333333332
sg8
I00
sg15
g16
sg17
F-108.0
sg18
F-191.33333333333348
sg19
I3597695
sg20
S'4691.48034261'
p595
sg22
F0.33333333333333331
sbasg26
I00
sg27
I00
sg28
I3596943
sg20
S'4691.86066413'
p596
sba(igraph
Edge
p597
(dp598
g7
I1
sg8
I00
sg9
I5
sg10
(lp599
g593
a(igraph
Vertex
p600
(dp601
g14
F0.38888888888888884
sg8
I00
sg15
g16
sg17
F-108.0
sg18
F-127.22222222222229
sg19
I3597696
sg20
S'4691.4810156'
p602
sg22
F0.33333333333333331
sbasg26
I00
sg27
I00
sg28
I3596944
sg20
S'4691.86264958'
p603
sba(igraph
Edge
p604
(dp605
g7
I1
sg8
I00
sg9
I5
sg10
(lp606
g600
a(igraph
Vertex
p607
(dp608
g14
F0.44444444444444436
sg8
I00
sg15
g16
sg17
F-108.0
sg18
F-63.1111111111112
sg19
I3597697
sg20
S'4691.48169306'
p609
sg22
F0.33333333333333331
sbasg26
I00
sg27
I00
sg28
I3596945
sg20
S'4691.86490713'
p610
sba(igraph
Edge
p611
(dp612
g7
I1
sg8
I00
sg9
I5
sg10
(lp613
g607
a(igraph
Vertex
p614
(dp615
g14
F0.5
sg8
I00
sg15
g16
sg17
F-108.0
sg18
F1.0
sg19
I3597698
sg20
S'4691.48242277'
p616
sg22
F0.33333333333333331
sbasg26
I00
sg27
I00
sg28
I3596946
sg20
S'4691.86685291'
p617
sba(igraph
Edge
p618
(dp619
g7
I1
sg8
I00
sg9
I5
sg10
(lp620
g614
a(igraph
Vertex
p621
(dp622
g14
F0.55555555555555558
sg8
I01
sg15
I0
sg17
F-108.0
sg18
F65.111111111111086
sg19
I3597700
sg20
S'4691.48313291'
p623
sg22
F0.33333333333333331
sbasg26
I00
sg27
I00
sg28
I3596947
sg20
S'4691.8689068'
p624
sba(igraph
Edge
p625
(dp626
g7
I1
sg8
I00
sg9
I5
sg10
(lp627
g621
a(igraph
Vertex
p628
(dp629
g14
F0.61111111111111116
sg8
I00
sg15
g16
sg17
F-108.0
sg18
F129.22222222222229
sg19
I3597702
sg20
S'4691.48384054'
p630
sg22
F0.33333333333333331
sbasg26
I00
sg27
I00
sg28
I3596948
sg20
S'4691.87099925'
p631
sba(igraph
Edge
p632
(dp633
g7
I1
sg8
I00
sg9
I5
sg10
(lp634
g628
a(igraph
Vertex
p635
(dp636
g14
F0.66666666666666663
sg8
I00
sg15
g16
sg17
F-108.0
sg18
F193.33333333333326
sg19
I3597703
sg20
S'4691.48457835'
p637
sg22
F0.33333333333333331
sbasg26
I00
sg27
I00
sg28
I3596949
sg20
S'4691.87307074'
p638
sba(igraph
Edge
p639
(dp640
g7
I1
sg8
I00
sg9
I5
sg10
(lp641
g635
a(igraph
Vertex
p642
(dp643
g14
F0.72222222222222221
sg8
I00
sg15
g16
sg17
F-108.0
sg18
F257.44444444444446
sg19
I3597704
sg20
S'4691.48530386'
p644
sg22
F0.33333333333333331
sbasg26
I00
sg27
I00
sg28
I3596950
sg20
S'4691.87516905'
p645
sba(igraph
Edge
p646
(dp647
g7
I1
sg8
I00
sg9
I5
sg10
(lp648
g642
a(igraph
Vertex
p649
(dp650
g14
F0.7777777777777779
sg8
I00
sg15
g16
sg17
F-108.0
sg18
F321.55555555555566
sg19
I3597705
sg20
S'4691.48603607'
p651
sg22
F0.33333333333333331
sbasg26
I00
sg27
I00
sg28
I3596951
sg20
S'4691.87723775'
p652
sba(igraph
Edge
p653
(dp654
g7
I1
sg8
I00
sg9
I5
sg10
(lp655
g649
a(igraph
Vertex
p656
(dp657
g14
F0.83333333333333337
sg8
I00
sg15
g16
sg17
F-108.0
sg18
F385.66666666666674
sg19
I3597706
sg20
S'4691.48677304'
p658
sg22
F0.33333333333333331
sbasg26
I00
sg27
I00
sg28
I3596952
sg20
S'4691.87956374'
p659
sba(igraph
Edge
p660
(dp661
g7
I1
sg8
I00
sg9
I5
sg10
(lp662
g656
a(igraph
Vertex
p663
(dp664
g14
F0.88888888888888873
sg8
I00
sg15
g16
sg17
F-108.0
sg18
F449.7777777777776
sg19
I3597707
sg20
S'4691.48751671'
p665
sg22
F0.33333333333333331
sbasg26
I00
sg27
I00
sg28
I3596953
sg20
S'4691.88176095'
p666
sba(igraph
Edge
p667
(dp668
g7
I1
sg8
I00
sg9
I5
sg10
(lp669
g663
a(igraph
Vertex
p670
(dp671
g14
F0.94444444444444442
sg8
I00
sg15
g16
sg17
F-108.0
sg18
F513.88888888888891
sg19
I3597708
sg20
S'4691.48827379'
p672
sg22
F0.33333333333333331
sbasg26
I00
sg27
I00
sg28
I3596954
sg20
S'4691.88389614'
p673
sba(igraph
Edge
p674
(dp675
g7
I1
sg8
I00
sg9
I5
sg10
(lp676
g670
a(igraph
Vertex
p677
(dp678
g14
F1.0
sg8
I00
sg15
g16
sg17
F-108.0
sg18
F578.0
sg19
I3597709
sg20
S'4691.48903674'
p679
sg22
F0.33333333333333331
sbasg26
I00
sg27
I00
sg28
I3596955
sg20
S'4691.88629896'
p680
sba(igraph
Edge
p681
(dp682
g7
I1
sg8
I00
sg9
I5
sg10
(lp683
g677
ag555
asg26
I00
sg27
I00
sg28
I3596956
sg20
S'4691.88860959'
p684
sba(igraph
Edge
p685
(dp686
g7
I1
sg8
I00
sg9
I5
sg10
(lp687
(igraph
Vertex
p688
(dp689
g14
F0.0
sg8
I00
sg15
g16
sg17
F-53.25
sg18
F-576.0
sg19
I3597710
sg20
S'4691.48981058'
p690
sg22
F0.41666666666666669
sba(igraph
Vertex
p691
(dp692
g14
F0.055555555555555539
sg8
I00
sg15
g16
sg17
F-53.25
sg18
F-511.88888888888891
sg19
I3597711
sg20
S'4691.49058609'
p693
sg22
F0.41666666666666669
sbasg26
I00
sg27
I00
sg28
I3596957
sg20
S'4691.89083864'
p694
sba(igraph
Edge
p695
(dp696
g7
I1
sg8
I00
sg9
I5
sg10
(lp697
g691
a(igraph
Vertex
p698
(dp699
g14
F0.11111111111111108
sg8
I00
sg15
g16
sg17
F-53.25
sg18
F-447.77777777777783
sg19
I3597712
sg20
S'4691.49137754'
p700
sg22
F0.41666666666666669
sbasg26
I00
sg27
I00
sg28
I3596958
sg20
S'4691.89306406'
p701
sba(igraph
Edge
p702
(dp703
g7
I1
sg8
I00
sg9
I5
sg10
(lp704
g698
a(igraph
Vertex
p705
(dp706
g14
F0.1666666666666666
sg8
I00
sg15
g16
sg17
F-53.25
sg18
F-383.66666666666674
sg19
I3597713
sg20
S'4691.49217987'
p707
sg22
F0.41666666666666669
sbasg26
I00
sg27
I00
sg28
I3596959
sg20
S'4691.89529954'
p708
sba(igraph
Edge
p709
(dp710
g7
I1
sg8
I00
sg9
I5
sg10
(lp711
g705
a(igraph
Vertex
p712
(dp713
g14
F0.22222222222222215
sg8
I00
sg15
g16
sg17
F-53.25
sg18
F-319.55555555555566
sg19
I3597714
sg20
S'4691.49297941'
p714
sg22
F0.41666666666666669
sbasg26
I00
sg27
I00
sg28
I3596960
sg20
S'4691.897844'
p715
sba(igraph
Edge
p716
(dp717
g7
I1
sg8
I00
sg9
I5
sg10
(lp718
g712
a(igraph
Vertex
p719
(dp720
g14
F0.27777777777777768
sg8
I00
sg15
g16
sg17
F-53.25
sg18
F-255.44444444444457
sg19
I3597715
sg20
S'4691.49378846'
p721
sg22
F0.41666666666666669
sbasg26
I00
sg27
I00
sg28
I3596961
sg20
S'4691.90235603'
p722
sba(igraph
Edge
p723
(dp724
g7
I1
sg8
I00
sg9
I5
sg10
(lp725
g719
a(igraph
Vertex
p726
(dp727
g14
F0.3333333333333332
sg8
I00
sg15
g16
sg17
F-53.25
sg18
F-191.33333333333348
sg19
I3597716
sg20
S'4691.49459973'
p728
sg22
F0.41666666666666669
sbasg26
I00
sg27
I00
sg28
I3596962
sg20
S'4691.90478846'
p729
sba(igraph
Edge
p730
(dp731
g7
I1
sg8
I00
sg9
I5
sg10
(lp732
g726
a(igraph
Vertex
p733
(dp734
g14
F0.38888888888888884
sg8
I00
sg15
g16
sg17
F-53.25
sg18
F-127.22222222222229
sg19
I3597717
sg20
S'4691.49547275'
p735
sg22
F0.41666666666666669
sbasg26
I00
sg27
I00
sg28
I3596963
sg20
S'4691.90746282'
p736
sba(igraph
Edge
p737
(dp738
g7
I1
sg8
I00
sg9
I5
sg10
(lp739
g733
a(igraph
Vertex
p740
(dp741
g14
F0.44444444444444436
sg8
I01
sg15
I0
sg17
F-53.25
sg18
F-63.1111111111112
sg19
I3597719
sg20
S'4691.49632397'
p742
sg22
F0.41666666666666669
sbasg26
I00
sg27
I00
sg28
I3596964
sg20
S'4691.90986313'
p743
sba(igraph
Edge
p744
(dp745
g7
I1
sg8
I00
sg9
I5
sg10
(lp746
g740
a(igraph
Vertex
p747
(dp748
g14
F0.5
sg8
I00
sg15
g16
sg17
F-53.25
sg18
F1.0
sg19
I3597721
sg20
S'4691.49725594'
p749
sg22
F0.41666666666666669
sbasg26
I00
sg27
I00
sg28
I3596965
sg20
S'4691.91239054'
p750
sba(igraph
Edge
p751
(dp752
g7
I1
sg8
I00
sg9
I5
sg10
(lp753
g747
a(igraph
Vertex
p754
(dp755
g14
F0.55555555555555558
sg8
I00
sg15
g16
sg17
F-53.25
sg18
F65.111111111111086
sg19
I3597722
sg20
S'4691.49813426'
p756
sg22
F0.41666666666666669
sbasg26
I00
sg27
I00
sg28
I3596966
sg20
S'4691.91483247'
p757
sba(igraph
Edge
p758
(dp759
g7
I1
sg8
I00
sg9
I5
sg10
(lp760
g754
a(igraph
Vertex
p761
(dp762
g14
F0.61111111111111116
sg8
I00
sg15
g16
sg17
F-53.25
sg18
F129.22222222222229
sg19
I3597723
sg20
S'4691.49900728'
p763
sg22
F0.41666666666666669
sbasg26
I00
sg27
I00
sg28
I3596967
sg20
S'4691.91759875'
p764
sba(igraph
Edge
p765
(dp766
g7
I1
sg8
I00
sg9
I5
sg10
(lp767
g761
a(igraph
Vertex
p768
(dp769
g14
F0.66666666666666663
sg8
I00
sg15
g16
sg17
F-53.25
sg18
F193.33333333333326
sg19
I3597724
sg20
S'4691.49990795'
p770
sg22
F0.41666666666666669
sbasg26
I00
sg27
I00
sg28
I3596968
sg20
S'4691.92011471'
p771
sba(igraph
Edge
p772
(dp773
g7
I1
sg8
I00
sg9
I5
sg10
(lp774
g768
a(igraph
Vertex
p775
(dp776
g14
F0.72222222222222221
sg8
I00
sg15
g16
sg17
F-53.25
sg18
F257.44444444444446
sg19
I3597725
sg20
S'4691.50078655'
p777
sg22
F0.41666666666666669
sbasg26
I00
sg27
I00
sg28
I3596969
sg20
S'4691.92277063'
p778
sba(igraph
Edge
p779
(dp780
g7
I1
sg8
I00
sg9
I5
sg10
(lp781
g775
a(igraph
Vertex
p782
(dp783
g14
F0.7777777777777779
sg8
I00
sg15
g16
sg17
F-53.25
sg18
F321.55555555555566
sg19
I3597726
sg20
S'4691.50166767'
p784
sg22
F0.41666666666666669
sbasg26
I00
sg27
I00
sg28
I3596970
sg20
S'4691.92561289'
p785
sba(igraph
Edge
p786
(dp787
g7
I1
sg8
I00
sg9
I5
sg10
(lp788
g782
a(igraph
Vertex
p789
(dp790
g14
F0.83333333333333337
sg8
I00
sg15
g16
sg17
F-53.25
sg18
F385.66666666666674
sg19
I3597727
sg20
S'4691.50255801'
p791
sg22
F0.41666666666666669
sbasg26
I00
sg27
I00
sg28
I3596971
sg20
S'4691.92876301'
p792
sba(igraph
Edge
p793
(dp794
g7
I1
sg8
I00
sg9
I5
sg10
(lp795
g789
a(igraph
Vertex
p796
(dp797
g14
F0.88888888888888873
sg8
I00
sg15
g16
sg17
F-53.25
sg18
F449.7777777777776
sg19
I3597728
sg20
S'4691.50345672'
p798
sg22
F0.41666666666666669
sbasg26
I00
sg27
I00
sg28
I3596972
sg20
S'4691.93164634'
p799
sba(igraph
Edge
p800
(dp801
g7
I1
sg8
I00
sg9
I5
sg10
(lp802
g796
a(igraph
Vertex
p803
(dp804
g14
F0.94444444444444442
sg8
I00
sg15
g16
sg17
F-53.25
sg18
F513.88888888888891
sg19
I3597729
sg20
S'4691.50436494'
p805
sg22
F0.41666666666666669
sbasg26
I00
sg27
I00
sg28
I3596973
sg20
S'4691.93464449'
p806
sba(igraph
Edge
p807
(dp808
g7
I1
sg8
I00
sg9
I5
sg10
(lp809
g803
a(igraph
Vertex
p810
(dp811
g14
F1.0
sg8
I00
sg15
g16
sg17
F-53.25
sg18
F578.0
sg19
I3597730
sg20
S'4691.50528042'
p812
sg22
F0.41666666666666669
sbasg26
I00
sg27
I00
sg28
I3596974
sg20
S'4691.93770521'
p813
sba(igraph
Edge
p814
(dp815
g7
I1
sg8
I00
sg9
I5
sg10
(lp816
g810
ag688
asg26
I00
sg27
I00
sg28
I3596975
sg20
S'4691.94077711'
p817
sba(igraph
Edge
p818
(dp819
g7
I1
sg8
I00
sg9
I5
sg10
(lp820
(igraph
Vertex
p821
(dp822
g14
F0.0
sg8
I00
sg15
g16
sg17
F1.5
sg18
F-576.0
sg19
I3597731
sg20
S'4691.50624591'
p823
sg22
F0.5
sba(igraph
Vertex
p824
(dp825
g14
F0.055555555555555539
sg8
I00
sg15
g16
sg17
F1.5
sg18
F-511.88888888888891
sg19
I3597732
sg20
S'4691.50718122'
p826
sg22
F0.5
sbasg26
I00
sg27
I00
sg28
I3596976
sg20
S'4691.94385655'
p827
sba(igraph
Edge
p828
(dp829
g7
I1
sg8
I00
sg9
I5
sg10
(lp830
g824
a(igraph
Vertex
p831
(dp832
g14
F0.11111111111111108
sg8
I00
sg15
g16
sg17
F1.5
sg18
F-447.77777777777783
sg19
I3597733
sg20
S'4691.50813386'
p833
sg22
F0.5
sbasg26
I00
sg27
I00
sg28
I3596977
sg20
S'4691.94694717'
p834
sba(igraph
Edge
p835
(dp836
g7
I1
sg8
I00
sg9
I5
sg10
(lp837
g831
a(igraph
Vertex
p838
(dp839
g14
F0.1666666666666666
sg8
I00
sg15
g16
sg17
F1.5
sg18
F-383.66666666666674
sg19
I3597734
sg20
S'4691.50908928'
p840
sg22
F0.5
sbasg26
I00
sg27
I00
sg28
I3596978
sg20
S'4691.950154'
p841
sba(igraph
Edge
p842
(dp843
g7
I1
sg8
I00
sg9
I5
sg10
(lp844
g838
a(igraph
Vertex
p845
(dp846
g14
F0.22222222222222215
sg8
I00
sg15
g16
sg17
F1.5
sg18
F-319.55555555555566
sg19
I3597735
sg20
S'4691.51005226'
p847
sg22
F0.5
sbasg26
I00
sg27
I00
sg28
I3596979
sg20
S'4691.95321361'
p848
sba(igraph
Edge
p849
(dp850
g7
I1
sg8
I00
sg9
I5
sg10
(lp851
g845
a(igraph
Vertex
p852
(dp853
g14
F0.27777777777777768
sg8
I00
sg15
g16
sg17
F1.5
sg18
F-255.44444444444457
sg19
I3597736
sg20
S'4691.51102556'
p854
sg22
F0.5
sbasg26
I00
sg27
I00
sg28
I3596980
sg20
S'4691.9564182'
p855
sba(igraph
Edge
p856
(dp857
g7
I1
sg8
I00
sg9
I5
sg10
(lp858
g852
a(igraph
Vertex
p859
(dp860
g14
F0.3333333333333332
sg8
I00
sg15
g16
sg17
F1.5
sg18
F-191.33333333333348
sg19
I3597737
sg20
S'4691.51200306'
p861
sg22
F0.5
sbasg26
I00
sg27
I00
sg28
I3596981
sg20
S'4691.95972198'
p862
sba(igraph
Edge
p863
(dp864
g7
I1
sg8
I00
sg9
I5
sg10
(lp865
g859
a(igraph
Vertex
p866
(dp867
g14
F0.38888888888888884
sg8
I00
sg15
g16
sg17
F1.5
sg18
F-127.22222222222229
sg19
I3597738
sg20
S'4691.51298363'
p868
sg22
F0.5
sbasg26
I00
sg27
I00
sg28
I3596982
sg20
S'4691.96374427'
p869
sba(igraph
Edge
p870
(dp871
g7
I1
sg8
I00
sg9
I5
sg10
(lp872
g866
a(igraph
Vertex
p873
(dp874
g14
F0.44444444444444436
sg8
I00
sg15
g16
sg17
F1.5
sg18
F-63.1111111111112
sg19
I3597739
sg20
S'4691.51397231'
p875
sg22
F0.5
sbasg26
I00
sg27
I00
sg28
I3596983
sg20
S'4691.96718242'
p876
sba(igraph
Edge
p877
(dp878
g7
I1
sg8
I00
sg9
I5
sg10
(lp879
g873
a(igraph
Vertex
p880
(dp881
g14
F0.5
sg8
I00
sg15
g16
sg17
F1.5
sg18
F1.0
sg19
I3597740
sg20
S'4691.51496964'
p882
sg22
F0.5
sbasg26
I00
sg27
I00
sg28
I3596984
sg20
S'4691.97157935'
p883
sba(igraph
Edge
p884
(dp885
g7
I1
sg8
I00
sg9
I5
sg10
(lp886
g880
a(igraph
Vertex
p887
(dp888
g14
F0.55555555555555558
sg8
I00
sg15
g16
sg17
F1.5
sg18
F65.111111111111086
sg19
I3597741
sg20
S'4691.51597591'
p889
sg22
F0.5
sbasg26
I00
sg27
I00
sg28
I3596985
sg20
S'4691.97460403'
p890
sba(igraph
Edge
p891
(dp892
g7
I1
sg8
I00
sg9
I5
sg10
(lp893
g887
a(igraph
Vertex
p894
(dp895
g14
F0.61111111111111116
sg8
I00
sg15
g16
sg17
F1.5
sg18
F129.22222222222229
sg19
I3597742
sg20
S'4691.51698694'
p896
sg22
F0.5
sbasg26
I00
sg27
I00
sg28
I3596986
sg20
S'4691.97794971'
p897
sba(igraph
Edge
p898
(dp899
g7
I1
sg8
I00
sg9
I5
sg10
(lp900
g894
a(igraph
Vertex
p901
(dp902
g14
F0.66666666666666663
sg8
I00
sg15
g16
sg17
F1.5
sg18
F193.33333333333326
sg19
I3597743
sg20
S'4691.51800801'
p903
sg22
F0.5
sbasg26
I00
sg27
I00
sg28
I3596987
sg20
S'4691.98103055'
p904
sba(igraph
Edge
p905
(dp906
g7
I1
sg8
I00
sg9
I5
sg10
(lp907
g901
a(igraph
Vertex
p908
(dp909
g14
F0.72222222222222221
sg8
I00
sg15
g16
sg17
F1.5
sg18
F257.44444444444446
sg19
I3597744
sg20
S'4691.51904614'
p910
sg22
F0.5
sbasg26
I00
sg27
I00
sg28
I3596988
sg20
S'4691.98477404'
p911
sba(igraph
Edge
p912
(dp913
g7
I1
sg8
I00
sg9
I5
sg10
(lp914
g908
a(igraph
Vertex
p915
(dp916
g14
F0.7777777777777779
sg8
I00
sg15
g16
sg17
F1.5
sg18
F321.55555555555566
sg19
I3597745
sg20
S'4691.52008817'
p917
sg22
F0.5
sbasg26
I00
sg27
I00
sg28
I3596989
sg20
S'4691.9884558'
p918
sba(igraph
Edge
p919
(dp920
g7
I1
sg8
I00
sg9
I5
sg10
(lp921
g915
a(igraph
Vertex
p922
(dp923
g14
F0.83333333333333337
sg8
I00
sg15
g16
sg17
F1.5
sg18
F385.66666666666674
sg19
I3597746
sg20
S'4691.52114277'
p924
sg22
F0.5
sbasg26
I00
sg27
I00
sg28
I3596990
sg20
S'4691.99155368'
p925
sba(igraph
Edge
p926
(dp927
g7
I1
sg8
I00
sg9
I5
sg10
(lp928
g922
a(igraph
Vertex
p929
(dp930
g14
F0.88888888888888873
sg8
I00
sg15
g16
sg17
F1.5
sg18
F449.7777777777776
sg19
I3597747
sg20
S'4691.52220045'
p931
sg22
F0.5
sbasg26
I00
sg27
I00
sg28
I3596991
sg20
S'4691.9945778'
p932
sba(igraph
Edge
p933
(dp934
g7
I1
sg8
I00
sg9
I5
sg10
(lp935
g929
a(igraph
Vertex
p936
(dp937
g14
F0.94444444444444442
sg8
I00
sg15
g16
sg17
F1.5
sg18
F513.88888888888891
sg19
I3597748
sg20
S'4691.52333383'
p938
sg22
F0.5
sbasg26
I00
sg27
I00
sg28
I3596992
sg20
S'4691.99807964'
p939
sba(igraph
Edge
p940
(dp941
g7
I1
sg8
I00
sg9
I5
sg10
(lp942
g936
a(igraph
Vertex
p943
(dp944
g14
F1.0
sg8
I00
sg15
g16
sg17
F1.5
sg18
F578.0
sg19
I3597749
sg20
S'4691.52443174'
p945
sg22
F0.5
sbasg26
I00
sg27
I00
sg28
I3596993
sg20
S'4692.00103505'
p946
sba(igraph
Edge
p947
(dp948
g7
I1
sg8
I00
sg9
I5
sg10
(lp949
g943
ag821
asg26
I00
sg27
I00
sg28
I3596994
sg20
S'4692.00441173'
p950
sba(igraph
Edge
p951
(dp952
g7
I1
sg8
I00
sg9
I5
sg10
(lp953
(igraph
Vertex
p954
(dp955
g14
F0.0
sg8
I00
sg15
g16
sg17
F56.25
sg18
F-576.0
sg19
I3597750
sg20
S'4691.52553495'
p956
sg22
F0.58333333333333337
sba(igraph
Vertex
p957
(dp958
g14
F0.055555555555555539
sg8
I00
sg15
g16
sg17
F56.25
sg18
F-511.88888888888891
sg19
I3597751
sg20
S'4691.52664235'
p959
sg22
F0.58333333333333337
sbasg26
I00
sg27
I00
sg28
I3596995
sg20
S'4692.0074082'
p960
sba(igraph
Edge
p961
(dp962
g7
I1
sg8
I00
sg9
I5
sg10
(lp963
g957
a(igraph
Vertex
p964
(dp965
g14
F0.11111111111111108
sg8
I00
sg15
g16
sg17
F56.25
sg18
F-447.77777777777783
sg19
I3597752
sg20
S'4691.52775395'
p966
sg22
F0.58333333333333337
sbasg26
I00
sg27
I00
sg28
I3596996
sg20
S'4692.01132043'
p967
sba(igraph
Edge
p968
(dp969
g7
I1
sg8
I00
sg9
I5
sg10
(lp970
g964
a(igraph
Vertex
p971
(dp972
g14
F0.1666666666666666
sg8
I00
sg15
g16
sg17
F56.25
sg18
F-383.66666666666674
sg19
I3597753
sg20
S'4691.52887895'
p973
sg22
F0.58333333333333337
sbasg26
I00
sg27
I00
sg28
I3596997
sg20
S'4692.014715'
p974
sba(igraph
Edge
p975
(dp976
g7
I1
sg8
I00
sg9
I5
sg10
(lp977
g971
a(igraph
Vertex
p978
(dp979
g14
F0.22222222222222215
sg8
I00
sg15
g16
sg17
F56.25
sg18
F-319.55555555555566
sg19
I3597754
sg20
S'4691.53001345'
p980
sg22
F0.58333333333333337
sbasg26
I00
sg27
I00
sg28
I3596998
sg20
S'4692.01788412'
p981
sba(igraph
Edge
p982
(dp983
g7
I1
sg8
I00
sg9
I5
sg10
(lp984
g978
a(igraph
Vertex
p985
(dp986
g14
F0.27777777777777768
sg8
I00
sg15
g16
sg17
F56.25
sg18
F-255.44444444444457
sg19
I3597755
sg20
S'4691.53115578'
p987
sg22
F0.58333333333333337
sbasg26
I00
sg27
I00
sg28
I3596999
sg20
S'4692.02149715'
p988
sba(igraph
Edge
p989
(dp990
g7
I1
sg8
I00
sg9
I5
sg10
(lp991
g985
a(igraph
Vertex
p992
(dp993
g14
F0.3333333333333332
sg8
I00
sg15
g16
sg17
F56.25
sg18
F-191.33333333333348
sg19
I3597756
sg20
S'4691.53230536'
p994
sg22
F0.58333333333333337
sbasg26
I00
sg27
I00
sg28
I3597000
sg20
S'4692.02480986'
p995
sba(igraph
Edge
p996
(dp997
g7
I1
sg8
I00
sg9
I5
sg10
(lp998
g992
a(igraph
Vertex
p999
(dp1000
g14
F0.38888888888888884
sg8
I01
sg15
I0
sg17
F56.25
sg18
F-127.22222222222229
sg19
I3597758
sg20
S'4691.53346529'
p1001
sg22
F0.58333333333333337
sbasg26
I00
sg27
I00
sg28
I3597001
sg20
S'4692.02807117'
p1002
sba(igraph
Edge
p1003
(dp1004
g7
I1
sg8
I00
sg9
I5
sg10
(lp1005
g999
a(igraph
Vertex
p1006
(dp1007
g14
F0.44444444444444436
sg8
I00
sg15
g16
sg17
F56.25
sg18
F-63.1111111111112
sg19
I3597760
sg20
S'4691.53463164'
p1008
sg22
F0.58333333333333337
sbasg26
I00
sg27
I00
sg28
I3597002
sg20
S'4692.03136991'
p1009
sba(igraph
Edge
p1010
(dp1011
g7
I1
sg8
I00
sg9
I5
sg10
(lp1012
g1006
a(igraph
Vertex
p1013
(dp1014
g14
F0.5
sg8
I00
sg15
g16
sg17
F56.25
sg18
F1.0
sg19
I3597761
sg20
S'4691.53580832'
p1015
sg22
F0.58333333333333337
sbasg26
I00
sg27
I00
sg28
I3597003
sg20
S'4692.03466111'
p1016
sba(igraph
Edge
p1017
(dp1018
g7
I1
sg8
I00
sg9
I5
sg10
(lp1019
g1013
a(igraph
Vertex
p1020
(dp1021
g14
F0.55555555555555558
sg8
I00
sg15
g16
sg17
F56.25
sg18
F65.111111111111086
sg19
I3597762
sg20
S'4691.53699115'
p1022
sg22
F0.58333333333333337
sbasg26
I00
sg27
I00
sg28
I3597004
sg20
S'4692.03846997'
p1023
sba(igraph
Edge
p1024
(dp1025
g7
I1
sg8
I00
sg9
I5
sg10
(lp1026
g1020
a(igraph
Vertex
p1027
(dp1028
g14
F0.61111111111111116
sg8
I00
sg15
g16
sg17
F56.25
sg18
F129.22222222222229
sg19
I3597763
sg20
S'4691.53818237'
p1029
sg22
F0.58333333333333337
sbasg26
I00
sg27
I00
sg28
I3597005
sg20
S'4692.04181034'
p1030
sba(igraph
Edge
p1031
(dp1032
g7
I1
sg8
I00
sg9
I5
sg10
(lp1033
g1027
a(igraph
Vertex
p1034
(dp1035
g14
F0.66666666666666663
sg8
I00
sg15
g16
sg17
F56.25
sg18
F193.33333333333326
sg19
I3597764
sg20
S'4691.53944314'
p1036
sg22
F0.58333333333333337
sbasg26
I00
sg27
I00
sg28
I3597006
sg20
S'4692.04523368'
p1037
sba(igraph
Edge
p1038
(dp1039
g7
I1
sg8
I00
sg9
I5
sg10
(lp1040
g1034
a(igraph
Vertex
p1041
(dp1042
g14
F0.72222222222222221
sg8
I00
sg15
g16
sg17
F56.25
sg18
F257.44444444444446
sg19
I3597765
sg20
S'4691.54065168'
p1043
sg22
F0.58333333333333337
sbasg26
I00
sg27
I00
sg28
I3597007
sg20
S'4692.04886599'
p1044
sba(igraph
Edge
p1045
(dp1046
g7
I1
sg8
I00
sg9
I5
sg10
(lp1047
g1041
a(igraph
Vertex
p1048
(dp1049
g14
F0.7777777777777779
sg8
I00
sg15
g16
sg17
F56.25
sg18
F321.55555555555566
sg19
I3597766
sg20
S'4691.54187222'
p1050
sg22
F0.58333333333333337
sbasg26
I00
sg27
I00
sg28
I3597008
sg20
S'4692.05226949'
p1051
sba(igraph
Edge
p1052
(dp1053
g7
I1
sg8
I00
sg9
I5
sg10
(lp1054
g1048
a(igraph
Vertex
p1055
(dp1056
g14
F0.83333333333333337
sg8
I00
sg15
g16
sg17
F56.25
sg18
F385.66666666666674
sg19
I3597767
sg20
S'4691.5431059'
p1057
sg22
F0.58333333333333337
sbasg26
I00
sg27
I00
sg28
I3597009
sg20
S'4692.0566206'
p1058
sba(igraph
Edge
p1059
(dp1060
g7
I1
sg8
I00
sg9
I5
sg10
(lp1061
g1055
a(igraph
Vertex
p1062
(dp1063
g14
F0.88888888888888873
sg8
I00
sg15
g16
sg17
F56.25
sg18
F449.7777777777776
sg19
I3597768
sg20
S'4691.54433734'
p1064
sg22
F0.58333333333333337
sbasg26
I00
sg27
I00
sg28
I3597010
sg20
S'4692.06248504'
p1065
sba(igraph
Edge
p1066
(dp1067
g7
I1
sg8
I00
sg9
I5
sg10
(lp1068
g1062
a(igraph
Vertex
p1069
(dp1070
g14
F0.94444444444444442
sg8
I00
sg15
g16
sg17
F56.25
sg18
F513.88888888888891
sg19
I3597769
sg20
S'4691.54558526'
p1071
sg22
F0.58333333333333337
sbasg26
I00
sg27
I00
sg28
I3597011
sg20
S'4692.06948425'
p1072
sba(igraph
Edge
p1073
(dp1074
g7
I1
sg8
I00
sg9
I5
sg10
(lp1075
g1069
a(igraph
Vertex
p1076
(dp1077
g14
F1.0
sg8
I00
sg15
g16
sg17
F56.25
sg18
F578.0
sg19
I3597770
sg20
S'4691.54684464'
p1078
sg22
F0.58333333333333337
sbasg26
I00
sg27
I00
sg28
I3597012
sg20
S'4692.073801'
p1079
sba(igraph
Edge
p1080
(dp1081
g7
I1
sg8
I00
sg9
I5
sg10
(lp1082
g1076
ag954
asg26
I00
sg27
I00
sg28
I3597013
sg20
S'4692.07804958'
p1083
sba(igraph
Edge
p1084
(dp1085
g7
I1
sg8
I00
sg9
I5
sg10
(lp1086
(igraph
Vertex
p1087
(dp1088
g14
F0.0
sg8
I00
sg15
g16
sg17
F111.0
sg18
F-576.0
sg19
I3597771
sg20
S'4691.54811044'
p1089
sg22
F0.66666666666666663
sba(igraph
Vertex
p1090
(dp1091
g14
F0.055555555555555539
sg8
I00
sg15
g16
sg17
F111.0
sg18
F-511.88888888888891
sg19
I3597772
sg20
S'4691.54939804'
p1092
sg22
F0.66666666666666663
sbasg26
I00
sg27
I00
sg28
I3597014
sg20
S'4692.08237863'
p1093
sba(igraph
Edge
p1094
(dp1095
g7
I1
sg8
I00
sg9
I5
sg10
(lp1096
g1090
a(igraph
Vertex
p1097
(dp1098
g14
F0.11111111111111108
sg8
I00
sg15
g16
sg17
F111.0
sg18
F-447.77777777777783
sg19
I3597773
sg20
S'4691.5507281'
p1099
sg22
F0.66666666666666663
sbasg26
I00
sg27
I00
sg28
I3597015
sg20
S'4692.08726612'
p1100
sba(igraph
Edge
p1101
(dp1102
g7
I1
sg8
I00
sg9
I5
sg10
(lp1103
g1097
a(igraph
Vertex
p1104
(dp1105
g14
F0.1666666666666666
sg8
I00
sg15
g16
sg17
F111.0
sg18
F-383.66666666666674
sg19
I3597774
sg20
S'4691.55231349'
p1106
sg22
F0.66666666666666663
sbasg26
I00
sg27
I00
sg28
I3597016
sg20
S'4692.09184854'
p1107
sba(igraph
Edge
p1108
(dp1109
g7
I1
sg8
I00
sg9
I5
sg10
(lp1110
g1104
a(igraph
Vertex
p1111
(dp1112
g14
F0.22222222222222215
sg8
I00
sg15
g16
sg17
F111.0
sg18
F-319.55555555555566
sg19
I3597775
sg20
S'4691.55365444'
p1113
sg22
F0.66666666666666663
sbasg26
I00
sg27
I00
sg28
I3597017
sg20
S'4692.09602869'
p1114
sba(igraph
Edge
p1115
(dp1116
g7
I1
sg8
I00
sg9
I5
sg10
(lp1117
g1111
a(igraph
Vertex
p1118
(dp1119
g14
F0.27777777777777768
sg8
I01
sg15
I0
sg17
F111.0
sg18
F-255.44444444444457
sg19
I3597777
sg20
S'4691.55499679'
p1120
sg22
F0.66666666666666663
sbasg26
I00
sg27
I00
sg28
I3597018
sg20
S'4692.10049154'
p1121
sba(igraph
Edge
p1122
(dp1123
g7
I1
sg8
I00
sg9
I5
sg10
(lp1124
g1118
a(igraph
Vertex
p1125
(dp1126
g14
F0.3333333333333332
sg8
I00
sg15
g16
sg17
F111.0
sg18
F-191.33333333333348
sg19
I3597779
sg20
S'4691.55637099'
p1127
sg22
F0.66666666666666663
sbasg26
I00
sg27
I00
sg28
I3597019
sg20
S'4692.10461246'
p1128
sba(igraph
Edge
p1129
(dp1130
g7
I1
sg8
I00
sg9
I5
sg10
(lp1131
g1125
a(igraph
Vertex
p1132
(dp1133
g14
F0.38888888888888884
sg8
I00
sg15
g16
sg17
F111.0
sg18
F-127.22222222222229
sg19
I3597780
sg20
S'4691.55771055'
p1134
sg22
F0.66666666666666663
sbasg26
I00
sg27
I00
sg28
I3597020
sg20
S'4692.10905297'
p1135
sba(igraph
Edge
p1136
(dp1137
g7
I1
sg8
I00
sg9
I5
sg10
(lp1138
g1132
a(igraph
Vertex
p1139
(dp1140
g14
F0.44444444444444436
sg8
I00
sg15
g16
sg17
F111.0
sg18
F-63.1111111111112
sg19
I3597781
sg20
S'4691.55905513'
p1141
sg22
F0.66666666666666663
sbasg26
I00
sg27
I00
sg28
I3597021
sg20
S'4692.11282272'
p1142
sba(igraph
Edge
p1143
(dp1144
g7
I1
sg8
I00
sg9
I5
sg10
(lp1145
g1139
a(igraph
Vertex
p1146
(dp1147
g14
F0.5
sg8
I00
sg15
g16
sg17
F111.0
sg18
F1.0
sg19
I3597782
sg20
S'4691.56042374'
p1148
sg22
F0.66666666666666663
sbasg26
I00
sg27
I00
sg28
I3597022
sg20
S'4692.11688469'
p1149
sba(igraph
Edge
p1150
(dp1151
g7
I1
sg8
I00
sg9
I5
sg10
(lp1152
g1146
a(igraph
Vertex
p1153
(dp1154
g14
F0.55555555555555558
sg8
I00
sg15
g16
sg17
F111.0
sg18
F65.111111111111086
sg19
I3597783
sg20
S'4691.56273856'
p1155
sg22
F0.66666666666666663
sbasg26
I00
sg27
I00
sg28
I3597023
sg20
S'4692.12110031'
p1156
sba(igraph
Edge
p1157
(dp1158
g7
I1
sg8
I00
sg9
I5
sg10
(lp1159
g1153
a(igraph
Vertex
p1160
(dp1161
g14
F0.61111111111111116
sg8
I00
sg15
g16
sg17
F111.0
sg18
F129.22222222222229
sg19
I3597784
sg20
S'4691.56426389'
p1162
sg22
F0.66666666666666663
sbasg26
I00
sg27
I00
sg28
I3597024
sg20
S'4692.12488822'
p1163
sba(igraph
Edge
p1164
(dp1165
g7
I1
sg8
I00
sg9
I5
sg10
(lp1166
g1160
a(igraph
Vertex
p1167
(dp1168
g14
F0.66666666666666663
sg8
I00
sg15
g16
sg17
F111.0
sg18
F193.33333333333326
sg19
I3597785
sg20
S'4691.56573782'
p1169
sg22
F0.66666666666666663
sbasg26
I00
sg27
I00
sg28
I3597025
sg20
S'4692.12867669'
p1170
sba(igraph
Edge
p1171
(dp1172
g7
I1
sg8
I00
sg9
I5
sg10
(lp1173
g1167
a(igraph
Vertex
p1174
(dp1175
g14
F0.72222222222222221
sg8
I00
sg15
g16
sg17
F111.0
sg18
F257.44444444444446
sg19
I3597786
sg20
S'4691.56723299'
p1176
sg22
F0.66666666666666663
sbasg26
I00
sg27
I00
sg28
I3597026
sg20
S'4692.13249282'
p1177
sba(igraph
Edge
p1178
(dp1179
g7
I1
sg8
I00
sg9
I5
sg10
(lp1180
g1174
a(igraph
Vertex
p1181
(dp1182
g14
F0.7777777777777779
sg8
I00
sg15
g16
sg17
F111.0
sg18
F321.55555555555566
sg19
I3597787
sg20
S'4691.57019817'
p1183
sg22
F0.66666666666666663
sbasg26
I00
sg27
I00
sg28
I3597027
sg20
S'4692.13641119'
p1184
sba(igraph
Edge
p1185
(dp1186
g7
I1
sg8
I00
sg9
I5
sg10
(lp1187
g1181
a(igraph
Vertex
p1188
(dp1189
g14
F0.83333333333333337
sg8
I00
sg15
g16
sg17
F111.0
sg18
F385.66666666666674
sg19
I3597788
sg20
S'4691.57170786'
p1190
sg22
F0.66666666666666663
sbasg26
I00
sg27
I00
sg28
I3597028
sg20
S'4692.14048629'
p1191
sba(igraph
Edge
p1192
(dp1193
g7
I1
sg8
I00
sg9
I5
sg10
(lp1194
g1188
a(igraph
Vertex
p1195
(dp1196
g14
F0.88888888888888873
sg8
I00
sg15
g16
sg17
F111.0
sg18
F449.7777777777776
sg19
I3597789
sg20
S'4691.57356005'
p1197
sg22
F0.66666666666666663
sbasg26
I00
sg27
I00
sg28
I3597029
sg20
S'4692.14520505'
p1198
sba(igraph
Edge
p1199
(dp1200
g7
I1
sg8
I00
sg9
I5
sg10
(lp1201
g1195
a(igraph
Vertex
p1202
(dp1203
g14
F0.94444444444444442
sg8
I00
sg15
g16
sg17
F111.0
sg18
F513.88888888888891
sg19
I3597790
sg20
S'4691.57522953'
p1204
sg22
F0.66666666666666663
sbasg26
I00
sg27
I00
sg28
I3597030
sg20
S'4692.14915276'
p1205
sba(igraph
Edge
p1206
(dp1207
g7
I1
sg8
I00
sg9
I5
sg10
(lp1208
g1202
a(igraph
Vertex
p1209
(dp1210
g14
F1.0
sg8
I00
sg15
g16
sg17
F111.0
sg18
F578.0
sg19
I3597791
sg20
S'4691.57679761'
p1211
sg22
F0.66666666666666663
sbasg26
I00
sg27
I00
sg28
I3597031
sg20
S'4692.15352147'
p1212
sba(igraph
Edge
p1213
(dp1214
g7
I1
sg8
I00
sg9
I5
sg10
(lp1215
g1209
ag1087
asg26
I00
sg27
I00
sg28
I3597032
sg20
S'4692.15837069'
p1216
sba(igraph
Edge
p1217
(dp1218
g7
I1
sg8
I00
sg9
I5
sg10
(lp1219
(igraph
Vertex
p1220
(dp1221
g14
F0.0
sg8
I00
sg15
g16
sg17
F165.75
sg18
F-576.0
sg19
I3597792
sg20
S'4691.57844111'
p1222
sg22
F0.75
sba(igraph
Vertex
p1223
(dp1224
g14
F0.055555555555555539
sg8
I00
sg15
g16
sg17
F165.75
sg18
F-511.88888888888891
sg19
I3597793
sg20
S'4691.5802609'
p1225
sg22
F0.75
sbasg26
I00
sg27
I00
sg28
I3597033
sg20
S'4692.16248965'
p1226
sba(igraph
Edge
p1227
(dp1228
g7
I1
sg8
I00
sg9
I5
sg10
(lp1229
g1223
a(igraph
Vertex
p1230
(dp1231
g14
F0.11111111111111108
sg8
I00
sg15
g16
sg17
F165.75
sg18
F-447.77777777777783
sg19
I3597794
sg20
S'4691.58181501'
p1232
sg22
F0.75
sbasg26
I00
sg27
I00
sg28
I3597034
sg20
S'4692.16647926'
p1233
sba(igraph
Edge
p1234
(dp1235
g7
I1
sg8
I00
sg9
I5
sg10
(lp1236
g1230
a(igraph
Vertex
p1237
(dp1238
g14
F0.1666666666666666
sg8
I00
sg15
g16
sg17
F165.75
sg18
F-383.66666666666674
sg19
I3597795
sg20
S'4691.58338476'
p1239
sg22
F0.75
sbasg26
I00
sg27
I00
sg28
I3597035
sg20
S'4692.17047195'
p1240
sba(igraph
Edge
p1241
(dp1242
g7
I1
sg8
I00
sg9
I5
sg10
(lp1243
g1237
a(igraph
Vertex
p1244
(dp1245
g14
F0.22222222222222215
sg8
I00
sg15
g16
sg17
F165.75
sg18
F-319.55555555555566
sg19
I3597796
sg20
S'4691.58564315'
p1246
sg22
F0.75
sbasg26
I00
sg27
I00
sg28
I3597036
sg20
S'4692.17447832'
p1247
sba(igraph
Edge
p1248
(dp1249
g7
I1
sg8
I00
sg9
I5
sg10
(lp1250
g1244
a(igraph
Vertex
p1251
(dp1252
g14
F0.27777777777777768
sg8
I00
sg15
g16
sg17
F165.75
sg18
F-255.44444444444457
sg19
I3597797
sg20
S'4691.5872766'
p1253
sg22
F0.75
sbasg26
I00
sg27
I00
sg28
I3597037
sg20
S'4692.17934067'
p1254
sba(igraph
Edge
p1255
(dp1256
g7
I1
sg8
I00
sg9
I5
sg10
(lp1257
g1251
a(igraph
Vertex
p1258
(dp1259
g14
F0.3333333333333332
sg8
I01
sg15
I0
sg17
F165.75
sg18
F-191.33333333333348
sg19
I3597799
sg20
S'4691.58889999'
p1260
sg22
F0.75
sbasg26
I00
sg27
I00
sg28
I3597038
sg20
S'4692.18397338'
p1261
sba(igraph
Edge
p1262
(dp1263
g7
I1
sg8
I00
sg9
I5
sg10
(lp1264
g1258
a(igraph
Vertex
p1265
(dp1266
g14
F0.38888888888888884
sg8
I00
sg15
g16
sg17
F165.75
sg18
F-127.22222222222229
sg19
I3597801
sg20
S'4691.59079324'
p1267
sg22
F0.75
sbasg26
I00
sg27
I00
sg28
I3597039
sg20
S'4692.18893183'
p1268
sba(igraph
Edge
p1269
(dp1270
g7
I1
sg8
I00
sg9
I5
sg10
(lp1271
g1265
a(igraph
Vertex
p1272
(dp1273
g14
F0.44444444444444436
sg8
I00
sg15
g16
sg17
F165.75
sg18
F-63.1111111111112
sg19
I3597802
sg20
S'4691.59261834'
p1274
sg22
F0.75
sbasg26
I00
sg27
I00
sg28
I3597040
sg20
S'4692.19393359'
p1275
sba(igraph
Edge
p1276
(dp1277
g7
I1
sg8
I00
sg9
I5
sg10
(lp1278
g1272
a(igraph
Vertex
p1279
(dp1280
g14
F0.5
sg8
I00
sg15
g16
sg17
F165.75
sg18
F1.0
sg19
I3597803
sg20
S'4691.59465295'
p1281
sg22
F0.75
sbasg26
I00
sg27
I00
sg28
I3597041
sg20
S'4692.1989345'
p1282
sba(igraph
Edge
p1283
(dp1284
g7
I1
sg8
I00
sg9
I5
sg10
(lp1285
g1279
a(igraph
Vertex
p1286
(dp1287
g14
F0.55555555555555558
sg8
I00
sg15
g16
sg17
F165.75
sg18
F65.111111111111086
sg19
I3597804
sg20
S'4691.59640262'
p1288
sg22
F0.75
sbasg26
I00
sg27
I00
sg28
I3597042
sg20
S'4692.20396866'
p1289
sba(igraph
Edge
p1290
(dp1291
g7
I1
sg8
I00
sg9
I5
sg10
(lp1292
g1286
a(igraph
Vertex
p1293
(dp1294
g14
F0.61111111111111116
sg8
I00
sg15
g16
sg17
F165.75
sg18
F129.22222222222229
sg19
I3597805
sg20
S'4691.59807685'
p1295
sg22
F0.75
sbasg26
I00
sg27
I00
sg28
I3597043
sg20
S'4692.20917603'
p1296
sba(igraph
Edge
p1297
(dp1298
g7
I1
sg8
I00
sg9
I5
sg10
(lp1299
g1293
a(igraph
Vertex
p1300
(dp1301
g14
F0.66666666666666663
sg8
I00
sg15
g16
sg17
F165.75
sg18
F193.33333333333326
sg19
I3597806
sg20
S'4691.59975863'
p1302
sg22
F0.75
sbasg26
I00
sg27
I00
sg28
I3597044
sg20
S'4692.2146622'
p1303
sba(igraph
Edge
p1304
(dp1305
g7
I1
sg8
I00
sg9
I5
sg10
(lp1306
g1300
a(igraph
Vertex
p1307
(dp1308
g14
F0.72222222222222221
sg8
I00
sg15
g16
sg17
F165.75
sg18
F257.44444444444446
sg19
I3597807
sg20
S'4691.60153316'
p1309
sg22
F0.75
sbasg26
I00
sg27
I00
sg28
I3597045
sg20
S'4692.21987292'
p1310
sba(igraph
Edge
p1311
(dp1312
g7
I1
sg8
I00
sg9
I5
sg10
(lp1313
g1307
a(igraph
Vertex
p1314
(dp1315
g14
F0.7777777777777779
sg8
I00
sg15
g16
sg17
F165.75
sg18
F321.55555555555566
sg19
I3597808
sg20
S'4691.60333394'
p1316
sg22
F0.75
sbasg26
I00
sg27
I00
sg28
I3597046
sg20
S'4692.22513699'
p1317
sba(igraph
Edge
p1318
(dp1319
g7
I1
sg8
I00
sg9
I5
sg10
(lp1320
g1314
a(igraph
Vertex
p1321
(dp1322
g14
F0.83333333333333337
sg8
I00
sg15
g16
sg17
F165.75
sg18
F385.66666666666674
sg19
I3597809
sg20
S'4691.6053599'
p1323
sg22
F0.75
sbasg26
I00
sg27
I00
sg28
I3597047
sg20
S'4692.23050304'
p1324
sba(igraph
Edge
p1325
(dp1326
g7
I1
sg8
I00
sg9
I5
sg10
(lp1327
g1321
a(igraph
Vertex
p1328
(dp1329
g14
F0.88888888888888873
sg8
I00
sg15
g16
sg17
F165.75
sg18
F449.7777777777776
sg19
I3597810
sg20
S'4691.60709923'
p1330
sg22
F0.75
sbasg26
I00
sg27
I00
sg28
I3597048
sg20
S'4692.23497484'
p1331
sba(igraph
Edge
p1332
(dp1333
g7
I1
sg8
I00
sg9
I5
sg10
(lp1334
g1328
a(igraph
Vertex
p1335
(dp1336
g14
F0.94444444444444442
sg8
I00
sg15
g16
sg17
F165.75
sg18
F513.88888888888891
sg19
I3597811
sg20
S'4691.60890141'
p1337
sg22
F0.75
sbasg26
I00
sg27
I00
sg28
I3597049
sg20
S'4692.2399981'
p1338
sba(igraph
Edge
p1339
(dp1340
g7
I1
sg8
I00
sg9
I5
sg10
(lp1341
g1335
a(igraph
Vertex
p1342
(dp1343
g14
F1.0
sg8
I00
sg15
g16
sg17
F165.75
sg18
F578.0
sg19
I3597812
sg20
S'4691.61062845'
p1344
sg22
F0.75
sbasg26
I00
sg27
I00
sg28
I3597050
sg20
S'4692.24458835'
p1345
sba(igraph
Edge
p1346
(dp1347
g7
I1
sg8
I00
sg9
I5
sg10
(lp1348
g1342
ag1220
asg26
I00
sg27
I00
sg28
I3597051
sg20
S'4692.24945712'
p1349
sba(igraph
Edge
p1350
(dp1351
g7
I1
sg8
I00
sg9
I5
sg10
(lp1352
(igraph
Vertex
p1353
(dp1354
g14
F0.0
sg8
I00
sg15
g16
sg17
F220.5
sg18
F-576.0
sg19
I3597813
sg20
S'4691.61330337'
p1355
sg22
F0.83333333333333337
sba(igraph
Vertex
p1356
(dp1357
g14
F0.055555555555555539
sg8
I00
sg15
g16
sg17
F220.5
sg18
F-511.88888888888891
sg19
I3597814
sg20
S'4691.61582324'
p1358
sg22
F0.83333333333333337
sbasg26
I00
sg27
I00
sg28
I3597052
sg20
S'4692.25401999'
p1359
sba(igraph
Edge
p1360
(dp1361
g7
I1
sg8
I00
sg9
I5
sg10
(lp1362
g1356
a(igraph
Vertex
p1363
(dp1364
g14
F0.11111111111111108
sg8
I00
sg15
g16
sg17
F220.5
sg18
F-447.77777777777783
sg19
I3597815
sg20
S'4691.62519762'
p1365
sg22
F0.83333333333333337
sbasg26
I00
sg27
I00
sg28
I3597053
sg20
S'4692.25833367'
p1366
sba(igraph
Edge
p1367
(dp1368
g7
I1
sg8
I00
sg9
I5
sg10
(lp1369
g1363
a(igraph
Vertex
p1370
(dp1371
g14
F0.1666666666666666
sg8
I00
sg15
g16
sg17
F220.5
sg18
F-383.66666666666674
sg19
I3597816
sg20
S'4691.62826169'
p1372
sg22
F0.83333333333333337
sbasg26
I00
sg27
I00
sg28
I3597054
sg20
S'4692.26260712'
p1373
sba(igraph
Edge
p1374
(dp1375
g7
I1
sg8
I00
sg9
I5
sg10
(lp1376
g1370
a(igraph
Vertex
p1377
(dp1378
g14
F0.22222222222222215
sg8
I01
sg15
I0
sg17
F220.5
sg18
F-319.55555555555566
sg19
I3597818
sg20
S'4691.63128442'
p1379
sg22
F0.83333333333333337
sbasg26
I00
sg27
I00
sg28
I3597055
sg20
S'4692.26682833'
p1380
sba(igraph
Edge
p1381
(dp1382
g7
I1
sg8
I00
sg9
I5
sg10
(lp1383
g1377
a(igraph
Vertex
p1384
(dp1385
g14
F0.27777777777777768
sg8
I00
sg15
g16
sg17
F220.5
sg18
F-255.44444444444457
sg19
I3597820
sg20
S'4691.63447226'
p1386
sg22
F0.83333333333333337
sbasg26
I00
sg27
I00
sg28
I3597056
sg20
S'4692.27108166'
p1387
sba(igraph
Edge
p1388
(dp1389
g7
I1
sg8
I00
sg9
I5
sg10
(lp1390
g1384
a(igraph
Vertex
p1391
(dp1392
g14
F0.3333333333333332
sg8
I00
sg15
g16
sg17
F220.5
sg18
F-191.33333333333348
sg19
I3597821
sg20
S'4691.63739805'
p1393
sg22
F0.83333333333333337
sbasg26
I00
sg27
I00
sg28
I3597057
sg20
S'4692.27583645'
p1394
sba(igraph
Edge
p1395
(dp1396
g7
I1
sg8
I00
sg9
I5
sg10
(lp1397
g1391
a(igraph
Vertex
p1398
(dp1399
g14
F0.38888888888888884
sg8
I00
sg15
g16
sg17
F220.5
sg18
F-127.22222222222229
sg19
I3597822
sg20
S'4691.64026266'
p1400
sg22
F0.83333333333333337
sbasg26
I00
sg27
I00
sg28
I3597058
sg20
S'4692.2801831'
p1401
sba(igraph
Edge
p1402
(dp1403
g7
I1
sg8
I00
sg9
I5
sg10
(lp1404
g1398
a(igraph
Vertex
p1405
(dp1406
g14
F0.44444444444444436
sg8
I00
sg15
g16
sg17
F220.5
sg18
F-63.1111111111112
sg19
I3597823
sg20
S'4691.64317308'
p1407
sg22
F0.83333333333333337
sbasg26
I00
sg27
I00
sg28
I3597059
sg20
S'4692.28449566'
p1408
sba(igraph
Edge
p1409
(dp1410
g7
I1
sg8
I00
sg9
I5
sg10
(lp1411
g1405
a(igraph
Vertex
p1412
(dp1413
g14
F0.5
sg8
I00
sg15
g16
sg17
F220.5
sg18
F1.0
sg19
I3597824
sg20
S'4691.64606815'
p1414
sg22
F0.83333333333333337
sbasg26
I00
sg27
I00
sg28
I3597060
sg20
S'4692.28887247'
p1415
sba(igraph
Edge
p1416
(dp1417
g7
I1
sg8
I00
sg9
I5
sg10
(lp1418
g1412
a(igraph
Vertex
p1419
(dp1420
g14
F0.55555555555555558
sg8
I00
sg15
g16
sg17
F220.5
sg18
F65.111111111111086
sg19
I3597825
sg20
S'4691.64924481'
p1421
sg22
F0.83333333333333337
sbasg26
I00
sg27
I00
sg28
I3597061
sg20
S'4692.29319313'
p1422
sba(igraph
Edge
p1423
(dp1424
g7
I1
sg8
I00
sg9
I5
sg10
(lp1425
g1419
a(igraph
Vertex
p1426
(dp1427
g14
F0.61111111111111116
sg8
I00
sg15
g16
sg17
F220.5
sg18
F129.22222222222229
sg19
I3597826
sg20
S'4691.65231112'
p1428
sg22
F0.83333333333333337
sbasg26
I00
sg27
I00
sg28
I3597062
sg20
S'4692.29753055'
p1429
sba(igraph
Edge
p1430
(dp1431
g7
I1
sg8
I00
sg9
I5
sg10
(lp1432
g1426
a(igraph
Vertex
p1433
(dp1434
g14
F0.66666666666666663
sg8
I00
sg15
g16
sg17
F220.5
sg18
F193.33333333333326
sg19
I3597827
sg20
S'4691.65539643'
p1435
sg22
F0.83333333333333337
sbasg26
I00
sg27
I00
sg28
I3597063
sg20
S'4692.30189954'
p1436
sba(igraph
Edge
p1437
(dp1438
g7
I1
sg8
I00
sg9
I5
sg10
(lp1439
g1433
a(igraph
Vertex
p1440
(dp1441
g14
F0.72222222222222221
sg8
I00
sg15
g16
sg17
F220.5
sg18
F257.44444444444446
sg19
I3597828
sg20
S'4691.6582426'
p1442
sg22
F0.83333333333333337
sbasg26
I00
sg27
I00
sg28
I3597064
sg20
S'4692.30629088'
p1443
sba(igraph
Edge
p1444
(dp1445
g7
I1
sg8
I00
sg9
I5
sg10
(lp1446
g1440
a(igraph
Vertex
p1447
(dp1448
g14
F0.7777777777777779
sg8
I00
sg15
g16
sg17
F220.5
sg18
F321.55555555555566
sg19
I3597829
sg20
S'4691.66133517'
p1449
sg22
F0.83333333333333337
sbasg26
I00
sg27
I00
sg28
I3597065
sg20
S'4692.31077497'
p1450
sba(igraph
Edge
p1451
(dp1452
g7
I1
sg8
I00
sg9
I5
sg10
(lp1453
g1447
a(igraph
Vertex
p1454
(dp1455
g14
F0.83333333333333337
sg8
I00
sg15
g16
sg17
F220.5
sg18
F385.66666666666674
sg19
I3597830
sg20
S'4691.66378325'
p1456
sg22
F0.83333333333333337
sbasg26
I00
sg27
I00
sg28
I3597066
sg20
S'4692.31523196'
p1457
sba(igraph
Edge
p1458
(dp1459
g7
I1
sg8
I00
sg9
I5
sg10
(lp1460
g1454
a(igraph
Vertex
p1461
(dp1462
g14
F0.88888888888888873
sg8
I00
sg15
g16
sg17
F220.5
sg18
F449.7777777777776
sg19
I3597831
sg20
S'4691.66616176'
p1463
sg22
F0.83333333333333337
sbasg26
I00
sg27
I00
sg28
I3597067
sg20
S'4692.31981439'
p1464
sba(igraph
Edge
p1465
(dp1466
g7
I1
sg8
I00
sg9
I5
sg10
(lp1467
g1461
a(igraph
Vertex
p1468
(dp1469
g14
F0.94444444444444442
sg8
I00
sg15
g16
sg17
F220.5
sg18
F513.88888888888891
sg19
I3597832
sg20
S'4691.66883417'
p1470
sg22
F0.83333333333333337
sbasg26
I00
sg27
I00
sg28
I3597068
sg20
S'4692.32437586'
p1471
sba(igraph
Edge
p1472
(dp1473
g7
I1
sg8
I00
sg9
I5
sg10
(lp1474
g1468
a(igraph
Vertex
p1475
(dp1476
g14
F1.0
sg8
I01
sg15
I0
sg17
F220.5
sg18
F578.0
sg19
I3597834
sg20
S'4691.67132778'
p1477
sg22
F0.83333333333333337
sbasg26
I00
sg27
I00
sg28
I3597069
sg20
S'4692.32894432'
p1478
sba(igraph
Edge
p1479
(dp1480
g7
I1
sg8
I01
sg9
I5
sg10
(lp1481
g1475
ag1353
asg26
I00
sg27
I00
sg28
I3597071
sg20
S'4692.3338212'
p1482
sba(igraph
Edge
p1483
(dp1484
g7
I1
sg8
I00
sg9
I5
sg10
(lp1485
(igraph
Vertex
p1486
(dp1487
g14
F0.0
sg8
I00
sg15
g16
sg17
F275.25
sg18
F-576.0
sg19
I3597836
sg20
S'4691.67367612'
p1488
sg22
F0.91666666666666663
sba(igraph
Vertex
p1489
(dp1490
g14
F0.055555555555555539
sg8
I00
sg15
g16
sg17
F275.25
sg18
F-511.88888888888891
sg19
I3597837
sg20
S'4691.6766455'
p1491
sg22
F0.91666666666666663
sbasg26
I00
sg27
I00
sg28
I3597072
sg20
S'4692.33839776'
p1492
sba(igraph
Edge
p1493
(dp1494
g7
I1
sg8
I00
sg9
I5
sg10
(lp1495
g1489
a(igraph
Vertex
p1496
(dp1497
g14
F0.11111111111111108
sg8
I01
sg15
I0
sg17
F275.25
sg18
F-447.77777777777783
sg19
I3597839
sg20
S'4691.67881477'
p1498
sg22
F0.91666666666666663
sbasg26
I00
sg27
I00
sg28
I3597073
sg20
S'4692.34298186'
p1499
sba(igraph
Edge
p1500
(dp1501
g7
I1
sg8
I00
sg9
I5
sg10
(lp1502
g1496
a(igraph
Vertex
p1503
(dp1504
g14
F0.1666666666666666
sg8
I00
sg15
g16
sg17
F275.25
sg18
F-383.66666666666674
sg19
I3597841
sg20
S'4691.68067813'
p1505
sg22
F0.91666666666666663
sbasg26
I00
sg27
I00
sg28
I3597074
sg20
S'4692.34758691'
p1506
sba(igraph
Edge
p1507
(dp1508
g7
I1
sg8
I00
sg9
I5
sg10
(lp1509
g1503
a(igraph
Vertex
p1510
(dp1511
g14
F0.22222222222222215
sg8
I00
sg15
g16
sg17
F275.25
sg18
F-319.55555555555566
sg19
I3597842
sg20
S'4691.68281108'
p1512
sg22
F0.91666666666666663
sbasg26
I00
sg27
I00
sg28
I3597075
sg20
S'4692.35241462'
p1513
sba(igraph
Edge
p1514
(dp1515
g7
I1
sg8
I00
sg9
I5
sg10
(lp1516
g1510
a(igraph
Vertex
p1517
(dp1518
g14
F0.27777777777777768
sg8
I00
sg15
g16
sg17
F275.25
sg18
F-255.44444444444457
sg19
I3597843
sg20
S'4691.68519267'
p1519
sg22
F0.91666666666666663
sbasg26
I00
sg27
I00
sg28
I3597076
sg20
S'4692.35711019'
p1520
sba(igraph
Edge
p1521
(dp1522
g7
I1
sg8
I00
sg9
I5
sg10
(lp1523
g1517
a(igraph
Vertex
p1524
(dp1525
g14
F0.3333333333333332
sg8
I00
sg15
g16
sg17
F275.25
sg18
F-191.33333333333348
sg19
I3597844
sg20
S'4691.68723846'
p1526
sg22
F0.91666666666666663
sbasg26
I00
sg27
I00
sg28
I3597077
sg20
S'4692.36180688'
p1527
sba(igraph
Edge
p1528
(dp1529
g7
I1
sg8
I00
sg9
I5
sg10
(lp1530
g1524
a(igraph
Vertex
p1531
(dp1532
g14
F0.38888888888888884
sg8
I00
sg15
g16
sg17
F275.25
sg18
F-127.22222222222229
sg19
I3597845
sg20
S'4691.68930856'
p1533
sg22
F0.91666666666666663
sbasg26
I00
sg27
I00
sg28
I3597078
sg20
S'4692.36667984'
p1534
sba(igraph
Edge
p1535
(dp1536
g7
I1
sg8
I00
sg9
I5
sg10
(lp1537
g1531
a(igraph
Vertex
p1538
(dp1539
g14
F0.44444444444444436
sg8
I00
sg15
g16
sg17
F275.25
sg18
F-63.1111111111112
sg19
I3597846
sg20
S'4691.69193208'
p1540
sg22
F0.91666666666666663
sbasg26
I00
sg27
I00
sg28
I3597079
sg20
S'4692.37147431'
p1541
sba(igraph
Edge
p1542
(dp1543
g7
I1
sg8
I00
sg9
I5
sg10
(lp1544
g1538
a(igraph
Vertex
p1545
(dp1546
g14
F0.5
sg8
I00
sg15
g16
sg17
F275.25
sg18
F1.0
sg19
I3597847
sg20
S'4691.69412369'
p1547
sg22
F0.91666666666666663
sbasg26
I00
sg27
I00
sg28
I3597080
sg20
S'4692.37628525'
p1548
sba(igraph
Edge
p1549
(dp1550
g7
I1
sg8
I00
sg9
I5
sg10
(lp1551
g1545
a(igraph
Vertex
p1552
(dp1553
g14
F0.55555555555555558
sg8
I00
sg15
g16
sg17
F275.25
sg18
F65.111111111111086
sg19
I3597848
sg20
S'4691.69622508'
p1554
sg22
F0.91666666666666663
sbasg26
I00
sg27
I00
sg28
I3597081
sg20
S'4692.38105932'
p1555
sba(igraph
Edge
p1556
(dp1557
g7
I1
sg8
I00
sg9
I5
sg10
(lp1558
g1552
a(igraph
Vertex
p1559
(dp1560
g14
F0.61111111111111116
sg8
I00
sg15
g16
sg17
F275.25
sg18
F129.22222222222229
sg19
I3597849
sg20
S'4691.69835356'
p1561
sg22
F0.91666666666666663
sbasg26
I00
sg27
I00
sg28
I3597082
sg20
S'4692.38584233'
p1562
sba(igraph
Edge
p1563
(dp1564
g7
I1
sg8
I00
sg9
I5
sg10
(lp1565
g1559
a(igraph
Vertex
p1566
(dp1567
g14
F0.66666666666666663
sg8
I00
sg15
g16
sg17
F275.25
sg18
F193.33333333333326
sg19
I3597850
sg20
S'4691.70078935'
p1568
sg22
F0.91666666666666663
sbasg26
I00
sg27
I00
sg28
I3597083
sg20
S'4692.39070636'
p1569
sba(igraph
Edge
p1570
(dp1571
g7
I1
sg8
I00
sg9
I5
sg10
(lp1572
g1566
a(igraph
Vertex
p1573
(dp1574
g14
F0.72222222222222221
sg8
I00
sg15
g16
sg17
F275.25
sg18
F257.44444444444446
sg19
I3597851
sg20
S'4691.70306142'
p1575
sg22
F0.91666666666666663
sbasg26
I00
sg27
I00
sg28
I3597084
sg20
S'4692.39552764'
p1576
sba(igraph
Edge
p1577
(dp1578
g7
I1
sg8
I00
sg9
I5
sg10
(lp1579
g1573
a(igraph
Vertex
p1580
(dp1581
g14
F0.7777777777777779
sg8
I00
sg15
g16
sg17
F275.25
sg18
F321.55555555555566
sg19
I3597852
sg20
S'4691.70537457'
p1582
sg22
F0.91666666666666663
sbasg26
I00
sg27
I00
sg28
I3597085
sg20
S'4692.40041178'
p1583
sba(igraph
Edge
p1584
(dp1585
g7
I1
sg8
I00
sg9
I5
sg10
(lp1586
g1580
a(igraph
Vertex
p1587
(dp1588
g14
F0.83333333333333337
sg8
I00
sg15
g16
sg17
F275.25
sg18
F385.66666666666674
sg19
I3597853
sg20
S'4691.70750892'
p1589
sg22
F0.91666666666666663
sbasg26
I00
sg27
I00
sg28
I3597086
sg20
S'4692.4052638'
p1590
sba(igraph
Edge
p1591
(dp1592
g7
I1
sg8
I00
sg9
I5
sg10
(lp1593
g1587
a(igraph
Vertex
p1594
(dp1595
g14
F0.88888888888888873
sg8
I01
sg15
I0
sg17
F275.25
sg18
F449.7777777777776
sg19
I3597855
sg20
S'4691.71184075'
p1596
sg22
F0.91666666666666663
sbasg26
I00
sg27
I00
sg28
I3597087
sg20
S'4692.41014095'
p1597
sba(igraph
Edge
p1598
(dp1599
g7
I1
sg8
I00
sg9
I5
sg10
(lp1600
g1594
a(igraph
Vertex
p1601
(dp1602
g14
F0.94444444444444442
sg8
I00
sg15
g16
sg17
F275.25
sg18
F513.88888888888891
sg19
I3597857
sg20
S'4691.71387844'
p1603
sg22
F0.91666666666666663
sbasg26
I00
sg27
I00
sg28
I3597088
sg20
S'4692.41507901'
p1604
sba(igraph
Edge
p1605
(dp1606
g7
I1
sg8
I00
sg9
I5
sg10
(lp1607
g1601
a(igraph
Vertex
p1608
(dp1609
g14
F1.0
sg8
I00
sg15
g16
sg17
F275.25
sg18
F578.0
sg19
I3597858
sg20
S'4691.71591753'
p1610
sg22
F0.91666666666666663
sbasg26
I00
sg27
I00
sg28
I3597089
sg20
S'4692.41999779'
p1611
sba(igraph
Edge
p1612
(dp1613
g7
I1
sg8
I00
sg9
I5
sg10
(lp1614
g1608
ag1486
asg26
I00
sg27
I00
sg28
I3597090
sg20
S'4692.42494395'
p1615
sba(igraph
Edge
p1616
(dp1617
g7
I1
sg8
I00
sg9
I5
sg10
(lp1618
(igraph
Vertex
p1619
(dp1620
g14
F0.0
sg8
I01
sg15
I0
sg17
F330.0
sg18
F-576.0
sg19
I3597860
sg20
S'4691.71808708'
p1621
sg22
F1.0
sba(igraph
Vertex
p1622
(dp1623
g14
F0.055555555555555539
sg8
I00
sg15
g16
sg17
F330.0
sg18
F-511.88888888888891
sg19
I3597862
sg20
S'4691.72038374'
p1624
sg22
F1.0
sbasg26
I00
sg27
I00
sg28
I3597091
sg20
S'4692.43000661'
p1625
sba(igraph
Edge
p1626
(dp1627
g7
I1
sg8
I00
sg9
I5
sg10
(lp1628
g1622
a(igraph
Vertex
p1629
(dp1630
g14
F0.11111111111111108
sg8
I00
sg15
g16
sg17
F330.0
sg18
F-447.77777777777783
sg19
I3597863
sg20
S'4691.72262508'
p1631
sg22
F1.0
sbasg26
I00
sg27
I00
sg28
I3597092
sg20
S'4692.43505725'
p1632
sba(igraph
Edge
p1633
(dp1634
g7
I1
sg8
I00
sg9
I5
sg10
(lp1635
g1629
a(igraph
Vertex
p1636
(dp1637
g14
F0.1666666666666666
sg8
I00
sg15
g16
sg17
F330.0
sg18
F-383.66666666666674
sg19
I3597864
sg20
S'4691.72496365'
p1638
sg22
F1.0
sbasg26
I00
sg27
I00
sg28
I3597093
sg20
S'4692.44018807'
p1639
sba(igraph
Edge
p1640
(dp1641
g7
I1
sg8
I00
sg9
I5
sg10
(lp1642
g1636
a(igraph
Vertex
p1643
(dp1644
g14
F0.22222222222222215
sg8
I00
sg15
g16
sg17
F330.0
sg18
F-319.55555555555566
sg19
I3597865
sg20
S'4691.72729914'
p1645
sg22
F1.0
sbasg26
I00
sg27
I00
sg28
I3597094
sg20
S'4692.44538202'
p1646
sba(igraph
Edge
p1647
(dp1648
g7
I1
sg8
I00
sg9
I5
sg10
(lp1649
g1643
a(igraph
Vertex
p1650
(dp1651
g14
F0.27777777777777768
sg8
I00
sg15
g16
sg17
F330.0
sg18
F-255.44444444444457
sg19
I3597866
sg20
S'4691.72953294'
p1652
sg22
F1.0
sbasg26
I00
sg27
I00
sg28
I3597095
sg20
S'4692.45047848'
p1653
sba(igraph
Edge
p1654
(dp1655
g7
I1
sg8
I00
sg9
I5
sg10
(lp1656
g1650
a(igraph
Vertex
p1657
(dp1658
g14
F0.3333333333333332
sg8
I00
sg15
g16
sg17
F330.0
sg18
F-191.33333333333348
sg19
I3597867
sg20
S'4691.73199555'
p1659
sg22
F1.0
sbasg26
I00
sg27
I00
sg28
I3597096
sg20
S'4692.4555822'
p1660
sba(igraph
Edge
p1661
(dp1662
g7
I1
sg8
I00
sg9
I5
sg10
(lp1663
g1657
a(igraph
Vertex
p1664
(dp1665
g14
F0.38888888888888884
sg8
I00
sg15
g16
sg17
F330.0
sg18
F-127.22222222222229
sg19
I3597868
sg20
S'4691.7342003'
p1666
sg22
F1.0
sbasg26
I00
sg27
I00
sg28
I3597097
sg20
S'4692.46082756'
p1667
sba(igraph
Edge
p1668
(dp1669
g7
I1
sg8
I00
sg9
I5
sg10
(lp1670
g1664
a(igraph
Vertex
p1671
(dp1672
g14
F0.44444444444444436
sg8
I00
sg15
g16
sg17
F330.0
sg18
F-63.1111111111112
sg19
I3597869
sg20
S'4691.73646651'
p1673
sg22
F1.0
sbasg26
I00
sg27
I00
sg28
I3597098
sg20
S'4692.466038'
p1674
sba(igraph
Edge
p1675
(dp1676
g7
I1
sg8
I00
sg9
I5
sg10
(lp1677
g1671
a(igraph
Vertex
p1678
(dp1679
g14
F0.5
sg8
I00
sg15
g16
sg17
F330.0
sg18
F1.0
sg19
I3597870
sg20
S'4691.73882127'
p1680
sg22
F1.0
sbasg26
I00
sg27
I00
sg28
I3597099
sg20
S'4692.47125151'
p1681
sba(igraph
Edge
p1682
(dp1683
g7
I1
sg8
I00
sg9
I5
sg10
(lp1684
g1678
a(igraph
Vertex
p1685
(dp1686
g14
F0.55555555555555558
sg8
I00
sg15
g16
sg17
F330.0
sg18
F65.111111111111086
sg19
I3597871
sg20
S'4691.74117185'
p1687
sg22
F1.0
sbasg26
I00
sg27
I00
sg28
I3597100
sg20
S'4692.47662063'
p1688
sba(igraph
Edge
p1689
(dp1690
g7
I1
sg8
I00
sg9
I5
sg10
(lp1691
g1685
a(igraph
Vertex
p1692
(dp1693
g14
F0.61111111111111116
sg8
I00
sg15
g16
sg17
F330.0
sg18
F129.22222222222229
sg19
I3597872
sg20
S'4691.74347941'
p1694
sg22
F1.0
sbasg26
I00
sg27
I00
sg28
I3597101
sg20
S'4692.48183386'
p1695
sba(igraph
Edge
p1696
(dp1697
g7
I1
sg8
I00
sg9
I5
sg10
(lp1698
g1692
a(igraph
Vertex
p1699
(dp1700
g14
F0.66666666666666663
sg8
I00
sg15
g16
sg17
F330.0
sg18
F193.33333333333326
sg19
I3597873
sg20
S'4691.74583781'
p1701
sg22
F1.0
sbasg26
I00
sg27
I00
sg28
I3597102
sg20
S'4692.48708677'
p1702
sba(igraph
Edge
p1703
(dp1704
g7
I1
sg8
I00
sg9
I5
sg10
(lp1705
g1699
a(igraph
Vertex
p1706
(dp1707
g14
F0.72222222222222221
sg8
I00
sg15
g16
sg17
F330.0
sg18
F257.44444444444446
sg19
I3597874
sg20
S'4691.74827136'
p1708
sg22
F1.0
sbasg26
I00
sg27
I00
sg28
I3597103
sg20
S'4692.49229246'
p1709
sba(igraph
Edge
p1710
(dp1711
g7
I1
sg8
I00
sg9
I5
sg10
(lp1712
g1706
a(igraph
Vertex
p1713
(dp1714
g14
F0.7777777777777779
sg8
I00
sg15
g16
sg17
F330.0
sg18
F321.55555555555566
sg19
I3597875
sg20
S'4691.75051913'
p1715
sg22
F1.0
sbasg26
I00
sg27
I00
sg28
I3597104
sg20
S'4692.49776662'
p1716
sba(igraph
Edge
p1717
(dp1718
g7
I1
sg8
I00
sg9
I5
sg10
(lp1719
g1713
a(igraph
Vertex
p1720
(dp1721
g14
F0.83333333333333337
sg8
I00
sg15
g16
sg17
F330.0
sg18
F385.66666666666674
sg19
I3597876
sg20
S'4691.75316947'
p1722
sg22
F1.0
sbasg26
I00
sg27
I00
sg28
I3597105
sg20
S'4692.50313797'
p1723
sba(igraph
Edge
p1724
(dp1725
g7
I1
sg8
I00
sg9
I5
sg10
(lp1726
g1720
a(igraph
Vertex
p1727
(dp1728
g14
F0.88888888888888873
sg8
I00
sg15
g16
sg17
F330.0
sg18
F449.7777777777776
sg19
I3597877
sg20
S'4691.75579187'
p1729
sg22
F1.0
sbasg26
I00
sg27
I00
sg28
I3597106
sg20
S'4692.50847189'
p1730
sba(igraph
Edge
p1731
(dp1732
g7
I1
sg8
I00
sg9
I5
sg10
(lp1733
g1727
a(igraph
Vertex
p1734
(dp1735
g14
F0.94444444444444442
sg8
I00
sg15
g16
sg17
F330.0
sg18
F513.88888888888891
sg19
I3597878
sg20
S'4691.75829051'
p1736
sg22
F1.0
sbasg26
I00
sg27
I00
sg28
I3597107
sg20
S'4692.51379631'
p1737
sba(igraph
Edge
p1738
(dp1739
g7
I1
sg8
I00
sg9
I5
sg10
(lp1740
g1734
a(igraph
Vertex
p1741
(dp1742
g14
F1.0
sg8
I00
sg15
g16
sg17
F330.0
sg18
F578.0
sg19
I3597879
sg20
S'4691.76100175'
p1743
sg22
F1.0
sbasg26
I00
sg27
I00
sg28
I3597108
sg20
S'4692.51913609'
p1744
sba(igraph
Edge
p1745
(dp1746
g7
I1
sg8
I00
sg9
I5
sg10
(lp1747
g1741
ag1619
asg26
I00
sg27
I00
sg28
I3597109
sg20
S'4692.52449208'
p1748
sba(igraph
Edge
p1749
(dp1750
g7
I1
sg8
I00
sg9
I5
sg10
(lp1751
g12
ag156
asg26
I00
sg27
I00
sg28
I3597110
sg20
S'4692.52994389'
p1752
sba(igraph
Edge
p1753
(dp1754
g7
I1
sg8
I00
sg9
I5
sg10
(lp1755
g23
ag156
asg26
I00
sg27
I00
sg28
I3597111
sg20
S'4692.53534709'
p1756
sba(igraph
Edge
p1757
(dp1758
g7
I1
sg8
I00
sg9
I5
sg10
(lp1759
g33
ag166
asg26
I00
sg27
I00
sg28
I3597112
sg20
S'4692.54083131'
p1760
sba(igraph
Edge
p1761
(dp1762
g7
I1
sg8
I00
sg9
I5
sg10
(lp1763
g40
ag166
asg26
I00
sg27
I00
sg28
I3597113
sg20
S'4692.54630156'
p1764
sba(igraph
Edge
p1765
(dp1766
g7
I1
sg8
I00
sg9
I5
sg10
(lp1767
g47
ag180
asg26
I00
sg27
I00
sg28
I3597114
sg20
S'4692.55177683'
p1768
sba(igraph
Edge
p1769
(dp1770
g7
I1
sg8
I00
sg9
I5
sg10
(lp1771
g54
ag180
asg26
I00
sg27
I00
sg28
I3597115
sg20
S'4692.55748203'
p1772
sba(igraph
Edge
p1773
(dp1774
g7
I1
sg8
I00
sg9
I5
sg10
(lp1775
g61
ag194
asg26
I00
sg27
I00
sg28
I3597116
sg20
S'4692.56304474'
p1776
sba(igraph
Edge
p1777
(dp1778
g7
I1
sg8
I00
sg9
I5
sg10
(lp1779
g68
ag194
asg26
I00
sg27
I00
sg28
I3597117
sg20
S'4692.56872396'
p1780
sba(igraph
Edge
p1781
(dp1782
g7
I1
sg8
I00
sg9
I5
sg10
(lp1783
g75
ag208
asg26
I00
sg27
I00
sg28
I3597118
sg20
S'4692.5743459'
p1784
sba(igraph
Edge
p1785
(dp1786
g7
I1
sg8
I00
sg9
I5
sg10
(lp1787
g82
ag208
asg26
I00
sg27
I00
sg28
I3597119
sg20
S'4692.57998209'
p1788
sba(igraph
Edge
p1789
(dp1790
g7
I1
sg8
I00
sg9
I5
sg10
(lp1791
g89
ag222
asg26
I00
sg27
I00
sg28
I3597120
sg20
S'4692.58566773'
p1792
sba(igraph
Edge
p1793
(dp1794
g7
I1
sg8
I00
sg9
I5
sg10
(lp1795
g96
ag222
asg26
I00
sg27
I00
sg28
I3597121
sg20
S'4692.59151596'
p1796
sba(igraph
Edge
p1797
(dp1798
g7
I1
sg8
I00
sg9
I5
sg10
(lp1799
g103
ag236
asg26
I00
sg27
I00
sg28
I3597122
sg20
S'4692.59724043'
p1800
sba(igraph
Edge
p1801
(dp1802
g7
I1
sg8
I00
sg9
I5
sg10
(lp1803
g110
ag236
asg26
I00
sg27
I00
sg28
I3597123
sg20
S'4692.6030286'
p1804
sba(igraph
Edge
p1805
(dp1806
g7
I1
sg8
I00
sg9
I5
sg10
(lp1807
g117
ag250
asg26
I00
sg27
I00
sg28
I3597124
sg20
S'4692.60879441'
p1808
sba(igraph
Edge
p1809
(dp1810
g7
I1
sg8
I00
sg9
I5
sg10
(lp1811
g124
ag250
asg26
I00
sg27
I00
sg28
I3597125
sg20
S'4692.61455492'
p1812
sba(igraph
Edge
p1813
(dp1814
g7
I1
sg8
I00
sg9
I5
sg10
(lp1815
g131
ag264
asg26
I00
sg27
I00
sg28
I3597126
sg20
S'4692.62033387'
p1816
sba(igraph
Edge
p1817
(dp1818
g7
I1
sg8
I00
sg9
I5
sg10
(lp1819
g138
ag264
asg26
I00
sg27
I00
sg28
I3597127
sg20
S'4692.62629384'
p1820
sba(igraph
Edge
p1821
(dp1822
g7
I1
sg8
I00
sg9
I5
sg10
(lp1823
g145
ag278
asg26
I00
sg27
I00
sg28
I3597128
sg20
S'4692.63212559'
p1824
sba(igraph
Edge
p1825
(dp1826
g7
I1
sg8
I00
sg9
I5
sg10
(lp1827
g12
ag278
asg26
I00
sg27
I00
sg28
I3597129
sg20
S'4692.63797494'
p1828
sba(igraph
Edge
p1829
(dp1830
g7
I1
sg8
I00
sg9
I5
sg10
(lp1831
g23
ag159
asg26
I00
sg27
I00
sg28
I3597130
sg20
S'4692.64381674'
p1832
sba(igraph
Edge
p1833
(dp1834
g7
I1
sg8
I00
sg9
I5
sg10
(lp1835
g33
ag159
asg26
I00
sg27
I00
sg28
I3597131
sg20
S'4692.64970352'
p1836
sba(igraph
Edge
p1837
(dp1838
g7
I1
sg8
I00
sg9
I5
sg10
(lp1839
g40
ag173
asg26
I00
sg27
I00
sg28
I3597132
sg20
S'4692.65568557'
p1840
sba(igraph
Edge
p1841
(dp1842
g7
I1
sg8
I00
sg9
I5
sg10
(lp1843
g47
ag173
asg26
I00
sg27
I00
sg28
I3597133
sg20
S'4692.66179752'
p1844
sba(igraph
Edge
p1845
(dp1846
g7
I1
sg8
I00
sg9
I5
sg10
(lp1847
g54
ag187
asg26
I00
sg27
I00
sg28
I3597134
sg20
S'4692.6678075'
p1848
sba(igraph
Edge
p1849
(dp1850
g7
I1
sg8
I00
sg9
I5
sg10
(lp1851
g61
ag187
asg26
I00
sg27
I00
sg28
I3597135
sg20
S'4692.6738077'
p1852
sba(igraph
Edge
p1853
(dp1854
g7
I1
sg8
I00
sg9
I5
sg10
(lp1855
g68
ag201
asg26
I00
sg27
I00
sg28
I3597136
sg20
S'4692.67978556'
p1856
sba(igraph
Edge
p1857
(dp1858
g7
I1
sg8
I00
sg9
I5
sg10
(lp1859
g75
ag201
asg26
I00
sg27
I00
sg28
I3597137
sg20
S'4692.68592461'
p1860
sba(igraph
Edge
p1861
(dp1862
g7
I1
sg8
I00
sg9
I5
sg10
(lp1863
g82
ag215
asg26
I00
sg27
I00
sg28
I3597138
sg20
S'4692.69212735'
p1864
sba(igraph
Edge
p1865
(dp1866
g7
I1
sg8
I00
sg9
I5
sg10
(lp1867
g89
ag215
asg26
I00
sg27
I00
sg28
I3597139
sg20
S'4692.69819237'
p1868
sba(igraph
Edge
p1869
(dp1870
g7
I1
sg8
I00
sg9
I5
sg10
(lp1871
g96
ag229
asg26
I00
sg27
I00
sg28
I3597140
sg20
S'4692.70424649'
p1872
sba(igraph
Edge
p1873
(dp1874
g7
I1
sg8
I00
sg9
I5
sg10
(lp1875
g103
ag229
asg26
I00
sg27
I00
sg28
I3597141
sg20
S'4692.7103224'
p1876
sba(igraph
Edge
p1877
(dp1878
g7
I1
sg8
I00
sg9
I5
sg10
(lp1879
g110
ag243
asg26
I00
sg27
I00
sg28
I3597142
sg20
S'4692.7164824'
p1880
sba(igraph
Edge
p1881
(dp1882
g7
I1
sg8
I00
sg9
I5
sg10
(lp1883
g117
ag243
asg26
I00
sg27
I00
sg28
I3597143
sg20
S'4692.72260441'
p1884
sba(igraph
Edge
p1885
(dp1886
g7
I1
sg8
I00
sg9
I5
sg10
(lp1887
g124
ag257
asg26
I00
sg27
I00
sg28
I3597144
sg20
S'4692.7288742'
p1888
sba(igraph
Edge
p1889
(dp1890
g7
I1
sg8
I00
sg9
I5
sg10
(lp1891
g131
ag257
asg26
I00
sg27
I00
sg28
I3597145
sg20
S'4692.73504258'
p1892
sba(igraph
Edge
p1893
(dp1894
g7
I1
sg8
I00
sg9
I5
sg10
(lp1895
g138
ag271
asg26
I00
sg27
I00
sg28
I3597146
sg20
S'4692.74133696'
p1896
sba(igraph
Edge
p1897
(dp1898
g7
I1
sg8
I00
sg9
I5
sg10
(lp1899
g145
ag271
asg26
I00
sg27
I00
sg28
I3597147
sg20
S'4692.74773861'
p1900
sba(igraph
Edge
p1901
(dp1902
g7
I1
sg8
I00
sg9
I5
sg10
(lp1903
g12
ag1619
asg26
I00
sg27
I00
sg28
I3597148
sg20
S'4692.7539665'
p1904
sba(igraph
Edge
p1905
(dp1906
g7
I1
sg8
I00
sg9
I5
sg10
(lp1907
g23
ag1629
asg26
I00
sg27
I00
sg28
I3597149
sg20
S'4692.7602645'
p1908
sba(igraph
Edge
p1909
(dp1910
g7
I1
sg8
I00
sg9
I5
sg10
(lp1911
g33
ag1629
asg26
I00
sg27
I00
sg28
I3597150
sg20
S'4692.76653625'
p1912
sba(igraph
Edge
p1913
(dp1914
g7
I1
sg8
I00
sg9
I5
sg10
(lp1915
g40
ag1643
asg26
I00
sg27
I00
sg28
I3597151
sg20
S'4692.77280883'
p1916
sba(igraph
Edge
p1917
(dp1918
g7
I1
sg8
I00
sg9
I5
sg10
(lp1919
g47
ag1643
asg26
I00
sg27
I00
sg28
I3597152
sg20
S'4692.77917864'
p1920
sba(igraph
Edge
p1921
(dp1922
g7
I1
sg8
I00
sg9
I5
sg10
(lp1923
g54
ag1657
asg26
I00
sg27
I00
sg28
I3597153
sg20
S'4692.78551492'
p1924
sba(igraph
Edge
p1925
(dp1926
g7
I1
sg8
I00
sg9
I5
sg10
(lp1927
g61
ag1657
asg26
I00
sg27
I00
sg28
I3597154
sg20
S'4692.79212665'
p1928
sba(igraph
Edge
p1929
(dp1930
g7
I1
sg8
I00
sg9
I5
sg10
(lp1931
g68
ag1671
asg26
I00
sg27
I00
sg28
I3597155
sg20
S'4692.79848389'
p1932
sba(igraph
Edge
p1933
(dp1934
g7
I1
sg8
I00
sg9
I5
sg10
(lp1935
g75
ag1671
asg26
I00
sg27
I00
sg28
I3597156
sg20
S'4692.80490453'
p1936
sba(igraph
Edge
p1937
(dp1938
g7
I1
sg8
I00
sg9
I5
sg10
(lp1939
g82
ag1685
asg26
I00
sg27
I00
sg28
I3597157
sg20
S'4692.81135312'
p1940
sba(igraph
Edge
p1941
(dp1942
g7
I1
sg8
I00
sg9
I5
sg10
(lp1943
g89
ag1685
asg26
I00
sg27
I00
sg28
I3597158
sg20
S'4692.81779695'
p1944
sba(igraph
Edge
p1945
(dp1946
g7
I1
sg8
I00
sg9
I5
sg10
(lp1947
g96
ag1699
asg26
I00
sg27
I00
sg28
I3597159
sg20
S'4692.8242609'
p1948
sba(igraph
Edge
p1949
(dp1950
g7
I1
sg8
I00
sg9
I5
sg10
(lp1951
g103
ag1699
asg26
I00
sg27
I00
sg28
I3597160
sg20
S'4692.83071256'
p1952
sba(igraph
Edge
p1953
(dp1954
g7
I1
sg8
I00
sg9
I5
sg10
(lp1955
g110
ag1713
asg26
I00
sg27
I00
sg28
I3597161
sg20
S'4692.83831884'
p1956
sba(igraph
Edge
p1957
(dp1958
g7
I1
sg8
I00
sg9
I5
sg10
(lp1959
g117
ag1713
asg26
I00
sg27
I00
sg28
I3597162
sg20
S'4692.8449775'
p1960
sba(igraph
Edge
p1961
(dp1962
g7
I1
sg8
I00
sg9
I5
sg10
(lp1963
g124
ag1727
asg26
I00
sg27
I00
sg28
I3597163
sg20
S'4692.85173507'
p1964
sba(igraph
Edge
p1965
(dp1966
g7
I1
sg8
I00
sg9
I5
sg10
(lp1967
g131
ag1727
asg26
I00
sg27
I00
sg28
I3597164
sg20
S'4692.85837586'
p1968
sba(igraph
Edge
p1969
(dp1970
g7
I1
sg8
I00
sg9
I5
sg10
(lp1971
g138
ag1741
asg26
I00
sg27
I00
sg28
I3597165
sg20
S'4692.86497753'
p1972
sba(igraph
Edge
p1973
(dp1974
g7
I1
sg8
I00
sg9
I5
sg10
(lp1975
g145
ag1741
asg26
I00
sg27
I00
sg28
I3597166
sg20
S'4692.87159178'
p1976
sba(igraph
Edge
p1977
(dp1978
g7
I1
sg8
I00
sg9
I5
sg10
(lp1979
g12
ag1622
asg26
I00
sg27
I00
sg28
I3597167
sg20
S'4692.87854741'
p1980
sba(igraph
Edge
p1981
(dp1982
g7
I1
sg8
I00
sg9
I5
sg10
(lp1983
g23
ag1622
asg26
I00
sg27
I00
sg28
I3597168
sg20
S'4692.88534548'
p1984
sba(igraph
Edge
p1985
(dp1986
g7
I1
sg8
I00
sg9
I5
sg10
(lp1987
g33
ag1636
asg26
I00
sg27
I00
sg28
I3597169
sg20
S'4692.89203795'
p1988
sba(igraph
Edge
p1989
(dp1990
g7
I1
sg8
I00
sg9
I5
sg10
(lp1991
g40
ag1636
asg26
I00
sg27
I00
sg28
I3597170
sg20
S'4692.89875836'
p1992
sba(igraph
Edge
p1993
(dp1994
g7
I1
sg8
I00
sg9
I5
sg10
(lp1995
g47
ag1650
asg26
I00
sg27
I00
sg28
I3597171
sg20
S'4692.90554889'
p1996
sba(igraph
Edge
p1997
(dp1998
g7
I1
sg8
I00
sg9
I5
sg10
(lp1999
g54
ag1650
asg26
I00
sg27
I00
sg28
I3597172
sg20
S'4692.91231595'
p2000
sba(igraph
Edge
p2001
(dp2002
g7
I1
sg8
I00
sg9
I5
sg10
(lp2003
g61
ag1664
asg26
I00
sg27
I00
sg28
I3597173
sg20
S'4692.91906513'
p2004
sba(igraph
Edge
p2005
(dp2006
g7
I1
sg8
I00
sg9
I5
sg10
(lp2007
g68
ag1664
asg26
I00
sg27
I00
sg28
I3597174
sg20
S'4692.92581208'
p2008
sba(igraph
Edge
p2009
(dp2010
g7
I1
sg8
I00
sg9
I5
sg10
(lp2011
g75
ag1678
asg26
I00
sg27
I00
sg28
I3597175
sg20
S'4692.93263613'
p2012
sba(igraph
Edge
p2013
(dp2014
g7
I1
sg8
I00
sg9
I5
sg10
(lp2015
g82
ag1678
asg26
I00
sg27
I00
sg28
I3597176
sg20
S'4692.93939761'
p2016
sba(igraph
Edge
p2017
(dp2018
g7
I1
sg8
I00
sg9
I5
sg10
(lp2019
g89
ag1692
asg26
I00
sg27
I00
sg28
I3597177
sg20
S'4692.9461926'
p2020
sba(igraph
Edge
p2021
(dp2022
g7
I1
sg8
I00
sg9
I5
sg10
(lp2023
g96
ag1692
asg26
I00
sg27
I00
sg28
I3597178
sg20
S'4692.95313902'
p2024
sba(igraph
Edge
p2025
(dp2026
g7
I1
sg8
I00
sg9
I5
sg10
(lp2027
g103
ag1706
asg26
I00
sg27
I00
sg28
I3597179
sg20
S'4692.96003822'
p2028
sba(igraph
Edge
p2029
(dp2030
g7
I1
sg8
I00
sg9
I5
sg10
(lp2031
g110
ag1706
asg26
I00
sg27
I00
sg28
I3597180
sg20
S'4692.96699441'
p2032
sba(igraph
Edge
p2033
(dp2034
g7
I1
sg8
I00
sg9
I5
sg10
(lp2035
g117
ag1720
asg26
I00
sg27
I00
sg28
I3597181
sg20
S'4692.97394864'
p2036
sba(igraph
Edge
p2037
(dp2038
g7
I1
sg8
I00
sg9
I5
sg10
(lp2039
g124
ag1720
asg26
I00
sg27
I00
sg28
I3597182
sg20
S'4692.98114369'
p2040
sba(igraph
Edge
p2041
(dp2042
g7
I1
sg8
I00
sg9
I5
sg10
(lp2043
g131
ag1734
asg26
I00
sg27
I00
sg28
I3597183
sg20
S'4692.98809234'
p2044
sba(igraph
Edge
p2045
(dp2046
g7
I1
sg8
I00
sg9
I5
sg10
(lp2047
g138
ag1734
asg26
I00
sg27
I00
sg28
I3597184
sg20
S'4692.99517369'
p2048
sba(igraph
Edge
p2049
(dp2050
g7
I1
sg8
I00
sg9
I5
sg10
(lp2051
g145
ag1619
asg26
I00
sg27
I00
sg28
I3597185
sg20
S'4693.00220782'
p2052
sba(igraph
Edge
p2053
(dp2054
g7
I1
sg8
I00
sg9
I5
sg10
(lp2055
g156
ag289
asg26
I00
sg27
I00
sg28
I3597186
sg20
S'4693.00927185'
p2056
sba(igraph
Edge
p2057
(dp2058
g7
I1
sg8
I00
sg9
I5
sg10
(lp2059
g159
ag289
asg26
I00
sg27
I00
sg28
I3597187
sg20
S'4693.01639929'
p2060
sba(igraph
Edge
p2061
(dp2062
g7
I1
sg8
I00
sg9
I5
sg10
(lp2063
g166
ag299
asg26
I00
sg27
I00
sg28
I3597188
sg20
S'4693.02354601'
p2064
sba(igraph
Edge
p2065
(dp2066
g7
I1
sg8
I00
sg9
I5
sg10
(lp2067
g173
ag299
asg26
I00
sg27
I00
sg28
I3597189
sg20
S'4693.03067597'
p2068
sba(igraph
Edge
p2069
(dp2070
g7
I1
sg8
I00
sg9
I5
sg10
(lp2071
g180
ag313
asg26
I00
sg27
I00
sg28
I3597190
sg20
S'4693.03782715'
p2072
sba(igraph
Edge
p2073
(dp2074
g7
I1
sg8
I00
sg9
I5
sg10
(lp2075
g187
ag313
asg26
I00
sg27
I00
sg28
I3597191
sg20
S'4693.04520351'
p2076
sba(igraph
Edge
p2077
(dp2078
g7
I1
sg8
I00
sg9
I5
sg10
(lp2079
g194
ag327
asg26
I00
sg27
I00
sg28
I3597192
sg20
S'4693.05240498'
p2080
sba(igraph
Edge
p2081
(dp2082
g7
I1
sg8
I00
sg9
I5
sg10
(lp2083
g201
ag327
asg26
I00
sg27
I00
sg28
I3597193
sg20
S'4693.05958495'
p2084
sba(igraph
Edge
p2085
(dp2086
g7
I1
sg8
I00
sg9
I5
sg10
(lp2087
g208
ag341
asg26
I00
sg27
I00
sg28
I3597194
sg20
S'4693.06686604'
p2088
sba(igraph
Edge
p2089
(dp2090
g7
I1
sg8
I00
sg9
I5
sg10
(lp2091
g215
ag341
asg26
I00
sg27
I00
sg28
I3597195
sg20
S'4693.07415188'
p2092
sba(igraph
Edge
p2093
(dp2094
g7
I1
sg8
I00
sg9
I5
sg10
(lp2095
g222
ag355
asg26
I00
sg27
I00
sg28
I3597196
sg20
S'4693.08140811'
p2096
sba(igraph
Edge
p2097
(dp2098
g7
I1
sg8
I00
sg9
I5
sg10
(lp2099
g229
ag355
asg26
I00
sg27
I00
sg28
I3597197
sg20
S'4693.0887339'
p2100
sba(igraph
Edge
p2101
(dp2102
g7
I1
sg8
I00
sg9
I5
sg10
(lp2103
g236
ag369
asg26
I00
sg27
I00
sg28
I3597198
sg20
S'4693.09607394'
p2104
sba(igraph
Edge
p2105
(dp2106
g7
I1
sg8
I00
sg9
I5
sg10
(lp2107
g243
ag369
asg26
I00
sg27
I00
sg28
I3597199
sg20
S'4693.10347628'
p2108
sba(igraph
Edge
p2109
(dp2110
g7
I1
sg8
I00
sg9
I5
sg10
(lp2111
g250
ag383
asg26
I00
sg27
I00
sg28
I3597200
sg20
S'4693.11080291'
p2112
sba(igraph
Edge
p2113
(dp2114
g7
I1
sg8
I00
sg9
I5
sg10
(lp2115
g257
ag383
asg26
I00
sg27
I00
sg28
I3597201
sg20
S'4693.11838572'
p2116
sba(igraph
Edge
p2117
(dp2118
g7
I1
sg8
I00
sg9
I5
sg10
(lp2119
g264
ag397
asg26
I00
sg27
I00
sg28
I3597202
sg20
S'4693.12584588'
p2120
sba(igraph
Edge
p2121
(dp2122
g7
I1
sg8
I00
sg9
I5
sg10
(lp2123
g271
ag397
asg26
I00
sg27
I00
sg28
I3597203
sg20
S'4693.13330689'
p2124
sba(igraph
Edge
p2125
(dp2126
g7
I1
sg8
I00
sg9
I5
sg10
(lp2127
g278
ag411
asg26
I00
sg27
I00
sg28
I3597204
sg20
S'4693.14086064'
p2128
sba(igraph
Edge
p2129
(dp2130
g7
I1
sg8
I00
sg9
I5
sg10
(lp2131
g156
ag411
asg26
I00
sg27
I00
sg28
I3597205
sg20
S'4693.14848032'
p2132
sba(igraph
Edge
p2133
(dp2134
g7
I1
sg8
I00
sg9
I5
sg10
(lp2135
g159
ag292
asg26
I00
sg27
I00
sg28
I3597206
sg20
S'4693.15606844'
p2136
sba(igraph
Edge
p2137
(dp2138
g7
I1
sg8
I00
sg9
I5
sg10
(lp2139
g166
ag292
asg26
I00
sg27
I00
sg28
I3597207
sg20
S'4693.16367555'
p2140
sba(igraph
Edge
p2141
(dp2142
g7
I1
sg8
I00
sg9
I5
sg10
(lp2143
g173
ag306
asg26
I00
sg27
I00
sg28
I3597208
sg20
S'4693.17117986'
p2144
sba(igraph
Edge
p2145
(dp2146
g7
I1
sg8
I00
sg9
I5
sg10
(lp2147
g180
ag306
asg26
I00
sg27
I00
sg28
I3597209
sg20
S'4693.17874087'
p2148
sba(igraph
Edge
p2149
(dp2150
g7
I1
sg8
I00
sg9
I5
sg10
(lp2151
g187
ag320
asg26
I00
sg27
I00
sg28
I3597210
sg20
S'4693.18642313'
p2152
sba(igraph
Edge
p2153
(dp2154
g7
I1
sg8
I00
sg9
I5
sg10
(lp2155
g194
ag320
asg26
I00
sg27
I00
sg28
I3597211
sg20
S'4693.19403444'
p2156
sba(igraph
Edge
p2157
(dp2158
g7
I1
sg8
I00
sg9
I5
sg10
(lp2159
g201
ag334
asg26
I00
sg27
I00
sg28
I3597212
sg20
S'4693.20168681'
p2160
sba(igraph
Edge
p2161
(dp2162
g7
I1
sg8
I00
sg9
I5
sg10
(lp2163
g208
ag334
asg26
I00
sg27
I00
sg28
I3597213
sg20
S'4693.20942913'
p2164
sba(igraph
Edge
p2165
(dp2166
g7
I1
sg8
I00
sg9
I5
sg10
(lp2167
g215
ag348
asg26
I00
sg27
I00
sg28
I3597214
sg20
S'4693.21734997'
p2168
sba(igraph
Edge
p2169
(dp2170
g7
I1
sg8
I00
sg9
I5
sg10
(lp2171
g222
ag348
asg26
I00
sg27
I00
sg28
I3597215
sg20
S'4693.22520292'
p2172
sba(igraph
Edge
p2173
(dp2174
g7
I1
sg8
I00
sg9
I5
sg10
(lp2175
g229
ag362
asg26
I00
sg27
I00
sg28
I3597216
sg20
S'4693.23289552'
p2176
sba(igraph
Edge
p2177
(dp2178
g7
I1
sg8
I00
sg9
I5
sg10
(lp2179
g236
ag362
asg26
I00
sg27
I00
sg28
I3597217
sg20
S'4693.24083703'
p2180
sba(igraph
Edge
p2181
(dp2182
g7
I1
sg8
I00
sg9
I5
sg10
(lp2183
g243
ag376
asg26
I00
sg27
I00
sg28
I3597218
sg20
S'4693.24862825'
p2184
sba(igraph
Edge
p2185
(dp2186
g7
I1
sg8
I00
sg9
I5
sg10
(lp2187
g250
ag376
asg26
I00
sg27
I00
sg28
I3597219
sg20
S'4693.25649238'
p2188
sba(igraph
Edge
p2189
(dp2190
g7
I1
sg8
I00
sg9
I5
sg10
(lp2191
g257
ag390
asg26
I00
sg27
I00
sg28
I3597220
sg20
S'4693.26425426'
p2192
sba(igraph
Edge
p2193
(dp2194
g7
I1
sg8
I00
sg9
I5
sg10
(lp2195
g264
ag390
asg26
I00
sg27
I00
sg28
I3597221
sg20
S'4693.27203849'
p2196
sba(igraph
Edge
p2197
(dp2198
g7
I1
sg8
I00
sg9
I5
sg10
(lp2199
g271
ag404
asg26
I00
sg27
I00
sg28
I3597222
sg20
S'4693.27990289'
p2200
sba(igraph
Edge
p2201
(dp2202
g7
I1
sg8
I00
sg9
I5
sg10
(lp2203
g278
ag404
asg26
I00
sg27
I00
sg28
I3597223
sg20
S'4693.28775054'
p2204
sba(igraph
Edge
p2205
(dp2206
g7
I1
sg8
I00
sg9
I5
sg10
(lp2207
g289
ag422
asg26
I00
sg27
I00
sg28
I3597224
sg20
S'4693.29577558'
p2208
sba(igraph
Edge
p2209
(dp2210
g7
I1
sg8
I00
sg9
I5
sg10
(lp2211
g292
ag422
asg26
I00
sg27
I00
sg28
I3597225
sg20
S'4693.30371318'
p2212
sba(igraph
Edge
p2213
(dp2214
g7
I1
sg8
I00
sg9
I5
sg10
(lp2215
g299
ag432
asg26
I00
sg27
I00
sg28
I3597226
sg20
S'4693.31192121'
p2216
sba(igraph
Edge
p2217
(dp2218
g7
I1
sg8
I00
sg9
I5
sg10
(lp2219
g306
ag432
asg26
I00
sg27
I00
sg28
I3597227
sg20
S'4693.31988619'
p2220
sba(igraph
Edge
p2221
(dp2222
g7
I1
sg8
I00
sg9
I5
sg10
(lp2223
g313
ag446
asg26
I00
sg27
I00
sg28
I3597228
sg20
S'4693.32790536'
p2224
sba(igraph
Edge
p2225
(dp2226
g7
I1
sg8
I00
sg9
I5
sg10
(lp2227
g320
ag446
asg26
I00
sg27
I00
sg28
I3597229
sg20
S'4693.33590359'
p2228
sba(igraph
Edge
p2229
(dp2230
g7
I1
sg8
I00
sg9
I5
sg10
(lp2231
g327
ag460
asg26
I00
sg27
I00
sg28
I3597230
sg20
S'4693.34397724'
p2232
sba(igraph
Edge
p2233
(dp2234
g7
I1
sg8
I00
sg9
I5
sg10
(lp2235
g334
ag460
asg26
I00
sg27
I00
sg28
I3597231
sg20
S'4693.35224309'
p2236
sba(igraph
Edge
p2237
(dp2238
g7
I1
sg8
I00
sg9
I5
sg10
(lp2239
g341
ag474
asg26
I00
sg27
I00
sg28
I3597232
sg20
S'4693.36029579'
p2240
sba(igraph
Edge
p2241
(dp2242
g7
I1
sg8
I00
sg9
I5
sg10
(lp2243
g348
ag474
asg26
I00
sg27
I00
sg28
I3597233
sg20
S'4693.36851415'
p2244
sba(igraph
Edge
p2245
(dp2246
g7
I1
sg8
I00
sg9
I5
sg10
(lp2247
g355
ag488
asg26
I00
sg27
I00
sg28
I3597234
sg20
S'4693.37676884'
p2248
sba(igraph
Edge
p2249
(dp2250
g7
I1
sg8
I00
sg9
I5
sg10
(lp2251
g362
ag488
asg26
I00
sg27
I00
sg28
I3597235
sg20
S'4693.3849682'
p2252
sba(igraph
Edge
p2253
(dp2254
g7
I1
sg8
I00
sg9
I5
sg10
(lp2255
g369
ag502
asg26
I00
sg27
I00
sg28
I3597236
sg20
S'4693.39312063'
p2256
sba(igraph
Edge
p2257
(dp2258
g7
I1
sg8
I00
sg9
I5
sg10
(lp2259
g376
ag502
asg26
I00
sg27
I00
sg28
I3597237
sg20
S'4693.40127083'
p2260
sba(igraph
Edge
p2261
(dp2262
g7
I1
sg8
I00
sg9
I5
sg10
(lp2263
g383
ag516
asg26
I00
sg27
I00
sg28
I3597238
sg20
S'4693.40940231'
p2264
sba(igraph
Edge
p2265
(dp2266
g7
I1
sg8
I00
sg9
I5
sg10
(lp2267
g390
ag516
asg26
I00
sg27
I00
sg28
I3597239
sg20
S'4693.41762487'
p2268
sba(igraph
Edge
p2269
(dp2270
g7
I1
sg8
I00
sg9
I5
sg10
(lp2271
g397
ag530
asg26
I00
sg27
I00
sg28
I3597240
sg20
S'4693.42577646'
p2272
sba(igraph
Edge
p2273
(dp2274
g7
I1
sg8
I00
sg9
I5
sg10
(lp2275
g404
ag530
asg26
I00
sg27
I00
sg28
I3597241
sg20
S'4693.43420435'
p2276
sba(igraph
Edge
p2277
(dp2278
g7
I1
sg8
I00
sg9
I5
sg10
(lp2279
g411
ag544
asg26
I00
sg27
I00
sg28
I3597242
sg20
S'4693.44239589'
p2280
sba(igraph
Edge
p2281
(dp2282
g7
I1
sg8
I00
sg9
I5
sg10
(lp2283
g289
ag544
asg26
I00
sg27
I00
sg28
I3597243
sg20
S'4693.45065839'
p2284
sba(igraph
Edge
p2285
(dp2286
g7
I1
sg8
I00
sg9
I5
sg10
(lp2287
g292
ag425
asg26
I00
sg27
I00
sg28
I3597244
sg20
S'4693.45896615'
p2288
sba(igraph
Edge
p2289
(dp2290
g7
I1
sg8
I00
sg9
I5
sg10
(lp2291
g299
ag425
asg26
I00
sg27
I00
sg28
I3597245
sg20
S'4693.4672714'
p2292
sba(igraph
Edge
p2293
(dp2294
g7
I1
sg8
I00
sg9
I5
sg10
(lp2295
g306
ag439
asg26
I00
sg27
I00
sg28
I3597246
sg20
S'4693.4757451'
p2296
sba(igraph
Edge
p2297
(dp2298
g7
I1
sg8
I00
sg9
I5
sg10
(lp2299
g313
ag439
asg26
I00
sg27
I00
sg28
I3597247
sg20
S'4693.48420316'
p2300
sba(igraph
Edge
p2301
(dp2302
g7
I1
sg8
I00
sg9
I5
sg10
(lp2303
g320
ag453
asg26
I00
sg27
I00
sg28
I3597248
sg20
S'4693.49297187'
p2304
sba(igraph
Edge
p2305
(dp2306
g7
I1
sg8
I00
sg9
I5
sg10
(lp2307
g327
ag453
asg26
I00
sg27
I00
sg28
I3597249
sg20
S'4693.50153721'
p2308
sba(igraph
Edge
p2309
(dp2310
g7
I1
sg8
I00
sg9
I5
sg10
(lp2311
g334
ag467
asg26
I00
sg27
I00
sg28
I3597250
sg20
S'4693.51002069'
p2312
sba(igraph
Edge
p2313
(dp2314
g7
I1
sg8
I00
sg9
I5
sg10
(lp2315
g341
ag467
asg26
I00
sg27
I00
sg28
I3597251
sg20
S'4693.51858015'
p2316
sba(igraph
Edge
p2317
(dp2318
g7
I1
sg8
I00
sg9
I5
sg10
(lp2319
g348
ag481
asg26
I00
sg27
I00
sg28
I3597252
sg20
S'4693.52710051'
p2320
sba(igraph
Edge
p2321
(dp2322
g7
I1
sg8
I00
sg9
I5
sg10
(lp2323
g355
ag481
asg26
I00
sg27
I00
sg28
I3597253
sg20
S'4693.53566473'
p2324
sba(igraph
Edge
p2325
(dp2326
g7
I1
sg8
I00
sg9
I5
sg10
(lp2327
g362
ag495
asg26
I00
sg27
I00
sg28
I3597254
sg20
S'4693.54433063'
p2328
sba(igraph
Edge
p2329
(dp2330
g7
I1
sg8
I00
sg9
I5
sg10
(lp2331
g369
ag495
asg26
I00
sg27
I00
sg28
I3597255
sg20
S'4693.5529158'
p2332
sba(igraph
Edge
p2333
(dp2334
g7
I1
sg8
I00
sg9
I5
sg10
(lp2335
g376
ag509
asg26
I00
sg27
I00
sg28
I3597256
sg20
S'4693.56159707'
p2336
sba(igraph
Edge
p2337
(dp2338
g7
I1
sg8
I00
sg9
I5
sg10
(lp2339
g383
ag509
asg26
I00
sg27
I00
sg28
I3597257
sg20
S'4693.57032779'
p2340
sba(igraph
Edge
p2341
(dp2342
g7
I1
sg8
I00
sg9
I5
sg10
(lp2343
g390
ag523
asg26
I00
sg27
I00
sg28
I3597258
sg20
S'4693.57903588'
p2344
sba(igraph
Edge
p2345
(dp2346
g7
I1
sg8
I00
sg9
I5
sg10
(lp2347
g397
ag523
asg26
I00
sg27
I00
sg28
I3597259
sg20
S'4693.58782806'
p2348
sba(igraph
Edge
p2349
(dp2350
g7
I1
sg8
I00
sg9
I5
sg10
(lp2351
g404
ag537
asg26
I00
sg27
I00
sg28
I3597260
sg20
S'4693.59644396'
p2352
sba(igraph
Edge
p2353
(dp2354
g7
I1
sg8
I00
sg9
I5
sg10
(lp2355
g411
ag537
asg26
I00
sg27
I00
sg28
I3597261
sg20
S'4693.60524508'
p2356
sba(igraph
Edge
p2357
(dp2358
g7
I1
sg8
I00
sg9
I5
sg10
(lp2359
g422
ag555
asg26
I00
sg27
I00
sg28
I3597262
sg20
S'4693.61391993'
p2360
sba(igraph
Edge
p2361
(dp2362
g7
I1
sg8
I00
sg9
I5
sg10
(lp2363
g425
ag555
asg26
I00
sg27
I00
sg28
I3597263
sg20
S'4693.62269059'
p2364
sba(igraph
Edge
p2365
(dp2366
g7
I1
sg8
I00
sg9
I5
sg10
(lp2367
g432
ag565
asg26
I00
sg27
I00
sg28
I3597264
sg20
S'4693.63141014'
p2368
sba(igraph
Edge
p2369
(dp2370
g7
I1
sg8
I00
sg9
I5
sg10
(lp2371
g439
ag565
asg26
I00
sg27
I00
sg28
I3597265
sg20
S'4693.640185'
p2372
sba(igraph
Edge
p2373
(dp2374
g7
I1
sg8
I00
sg9
I5
sg10
(lp2375
g446
ag579
asg26
I00
sg27
I00
sg28
I3597266
sg20
S'4693.64914926'
p2376
sba(igraph
Edge
p2377
(dp2378
g7
I1
sg8
I00
sg9
I5
sg10
(lp2379
g453
ag579
asg26
I00
sg27
I00
sg28
I3597267
sg20
S'4693.65805961'
p2380
sba(igraph
Edge
p2381
(dp2382
g7
I1
sg8
I00
sg9
I5
sg10
(lp2383
g460
ag593
asg26
I00
sg27
I00
sg28
I3597268
sg20
S'4693.66689593'
p2384
sba(igraph
Edge
p2385
(dp2386
g7
I1
sg8
I00
sg9
I5
sg10
(lp2387
g467
ag593
asg26
I00
sg27
I00
sg28
I3597269
sg20
S'4693.6756937'
p2388
sba(igraph
Edge
p2389
(dp2390
g7
I1
sg8
I00
sg9
I5
sg10
(lp2391
g474
ag607
asg26
I00
sg27
I00
sg28
I3597270
sg20
S'4693.68461634'
p2392
sba(igraph
Edge
p2393
(dp2394
g7
I1
sg8
I00
sg9
I5
sg10
(lp2395
g481
ag607
asg26
I00
sg27
I00
sg28
I3597271
sg20
S'4693.69349233'
p2396
sba(igraph
Edge
p2397
(dp2398
g7
I1
sg8
I00
sg9
I5
sg10
(lp2399
g488
ag621
asg26
I00
sg27
I00
sg28
I3597272
sg20
S'4693.70245269'
p2400
sba(igraph
Edge
p2401
(dp2402
g7
I1
sg8
I00
sg9
I5
sg10
(lp2403
g495
ag621
asg26
I00
sg27
I00
sg28
I3597273
sg20
S'4693.7118388'
p2404
sba(igraph
Edge
p2405
(dp2406
g7
I1
sg8
I00
sg9
I5
sg10
(lp2407
g502
ag635
asg26
I00
sg27
I00
sg28
I3597274
sg20
S'4693.72086313'
p2408
sba(igraph
Edge
p2409
(dp2410
g7
I1
sg8
I00
sg9
I5
sg10
(lp2411
g509
ag635
asg26
I00
sg27
I00
sg28
I3597275
sg20
S'4693.72991903'
p2412
sba(igraph
Edge
p2413
(dp2414
g7
I1
sg8
I00
sg9
I5
sg10
(lp2415
g516
ag649
asg26
I00
sg27
I00
sg28
I3597276
sg20
S'4693.73892324'
p2416
sba(igraph
Edge
p2417
(dp2418
g7
I1
sg8
I00
sg9
I5
sg10
(lp2419
g523
ag649
asg26
I00
sg27
I00
sg28
I3597277
sg20
S'4693.74795149'
p2420
sba(igraph
Edge
p2421
(dp2422
g7
I1
sg8
I00
sg9
I5
sg10
(lp2423
g530
ag663
asg26
I00
sg27
I00
sg28
I3597278
sg20
S'4693.75782313'
p2424
sba(igraph
Edge
p2425
(dp2426
g7
I1
sg8
I00
sg9
I5
sg10
(lp2427
g537
ag663
asg26
I00
sg27
I00
sg28
I3597279
sg20
S'4693.7669634'
p2428
sba(igraph
Edge
p2429
(dp2430
g7
I1
sg8
I00
sg9
I5
sg10
(lp2431
g544
ag677
asg26
I00
sg27
I00
sg28
I3597280
sg20
S'4693.77655289'
p2432
sba(igraph
Edge
p2433
(dp2434
g7
I1
sg8
I00
sg9
I5
sg10
(lp2435
g422
ag677
asg26
I00
sg27
I00
sg28
I3597281
sg20
S'4693.78641252'
p2436
sba(igraph
Edge
p2437
(dp2438
g7
I1
sg8
I00
sg9
I5
sg10
(lp2439
g425
ag558
asg26
I00
sg27
I00
sg28
I3597282
sg20
S'4693.79554636'
p2440
sba(igraph
Edge
p2441
(dp2442
g7
I1
sg8
I00
sg9
I5
sg10
(lp2443
g432
ag558
asg26
I00
sg27
I00
sg28
I3597283
sg20
S'4693.80469808'
p2444
sba(igraph
Edge
p2445
(dp2446
g7
I1
sg8
I00
sg9
I5
sg10
(lp2447
g439
ag572
asg26
I00
sg27
I00
sg28
I3597284
sg20
S'4693.81391266'
p2448
sba(igraph
Edge
p2449
(dp2450
g7
I1
sg8
I00
sg9
I5
sg10
(lp2451
g446
ag572
asg26
I00
sg27
I00
sg28
I3597285
sg20
S'4693.8232144'
p2452
sba(igraph
Edge
p2453
(dp2454
g7
I1
sg8
I00
sg9
I5
sg10
(lp2455
g453
ag586
asg26
I00
sg27
I00
sg28
I3597286
sg20
S'4693.83255581'
p2456
sba(igraph
Edge
p2457
(dp2458
g7
I1
sg8
I00
sg9
I5
sg10
(lp2459
g460
ag586
asg26
I00
sg27
I00
sg28
I3597287
sg20
S'4693.84380557'
p2460
sba(igraph
Edge
p2461
(dp2462
g7
I1
sg8
I00
sg9
I5
sg10
(lp2463
g467
ag600
asg26
I00
sg27
I00
sg28
I3597288
sg20
S'4693.85406888'
p2464
sba(igraph
Edge
p2465
(dp2466
g7
I1
sg8
I00
sg9
I5
sg10
(lp2467
g474
ag600
asg26
I00
sg27
I00
sg28
I3597289
sg20
S'4693.86418106'
p2468
sba(igraph
Edge
p2469
(dp2470
g7
I1
sg8
I00
sg9
I5
sg10
(lp2471
g481
ag614
asg26
I00
sg27
I00
sg28
I3597290
sg20
S'4693.87436755'
p2472
sba(igraph
Edge
p2473
(dp2474
g7
I1
sg8
I00
sg9
I5
sg10
(lp2475
g488
ag614
asg26
I00
sg27
I00
sg28
I3597291
sg20
S'4693.88447554'
p2476
sba(igraph
Edge
p2477
(dp2478
g7
I1
sg8
I00
sg9
I5
sg10
(lp2479
g495
ag628
asg26
I00
sg27
I00
sg28
I3597292
sg20
S'4693.89455029'
p2480
sba(igraph
Edge
p2481
(dp2482
g7
I1
sg8
I00
sg9
I5
sg10
(lp2483
g502
ag628
asg26
I00
sg27
I00
sg28
I3597293
sg20
S'4693.90493149'
p2484
sba(igraph
Edge
p2485
(dp2486
g7
I1
sg8
I00
sg9
I5
sg10
(lp2487
g509
ag642
asg26
I00
sg27
I00
sg28
I3597294
sg20
S'4693.91558033'
p2488
sba(igraph
Edge
p2489
(dp2490
g7
I1
sg8
I00
sg9
I5
sg10
(lp2491
g516
ag642
asg26
I00
sg27
I00
sg28
I3597295
sg20
S'4693.92715108'
p2492
sba(igraph
Edge
p2493
(dp2494
g7
I1
sg8
I00
sg9
I5
sg10
(lp2495
g523
ag656
asg26
I00
sg27
I00
sg28
I3597296
sg20
S'4693.93753368'
p2496
sba(igraph
Edge
p2497
(dp2498
g7
I1
sg8
I00
sg9
I5
sg10
(lp2499
g530
ag656
asg26
I00
sg27
I00
sg28
I3597297
sg20
S'4693.94944246'
p2500
sba(igraph
Edge
p2501
(dp2502
g7
I1
sg8
I00
sg9
I5
sg10
(lp2503
g537
ag670
asg26
I00
sg27
I00
sg28
I3597298
sg20
S'4693.96149483'
p2504
sba(igraph
Edge
p2505
(dp2506
g7
I1
sg8
I00
sg9
I5
sg10
(lp2507
g544
ag670
asg26
I00
sg27
I00
sg28
I3597299
sg20
S'4693.97307758'
p2508
sba(igraph
Edge
p2509
(dp2510
g7
I1
sg8
I00
sg9
I5
sg10
(lp2511
g555
ag688
asg26
I00
sg27
I00
sg28
I3597300
sg20
S'4693.98482964'
p2512
sba(igraph
Edge
p2513
(dp2514
g7
I1
sg8
I00
sg9
I5
sg10
(lp2515
g558
ag688
asg26
I00
sg27
I00
sg28
I3597301
sg20
S'4693.99607073'
p2516
sba(igraph
Edge
p2517
(dp2518
g7
I1
sg8
I00
sg9
I5
sg10
(lp2519
g565
ag698
asg26
I00
sg27
I00
sg28
I3597302
sg20
S'4694.00734982'
p2520
sba(igraph
Edge
p2521
(dp2522
g7
I1
sg8
I00
sg9
I5
sg10
(lp2523
g572
ag698
asg26
I00
sg27
I00
sg28
I3597303
sg20
S'4694.01907477'
p2524
sba(igraph
Edge
p2525
(dp2526
g7
I1
sg8
I00
sg9
I5
sg10
(lp2527
g579
ag712
asg26
I00
sg27
I00
sg28
I3597304
sg20
S'4694.02970405'
p2528
sba(igraph
Edge
p2529
(dp2530
g7
I1
sg8
I00
sg9
I5
sg10
(lp2531
g586
ag712
asg26
I00
sg27
I00
sg28
I3597305
sg20
S'4694.04027383'
p2532
sba(igraph
Edge
p2533
(dp2534
g7
I1
sg8
I00
sg9
I5
sg10
(lp2535
g593
ag726
asg26
I00
sg27
I00
sg28
I3597306
sg20
S'4694.05084389'
p2536
sba(igraph
Edge
p2537
(dp2538
g7
I1
sg8
I00
sg9
I5
sg10
(lp2539
g600
ag726
asg26
I00
sg27
I00
sg28
I3597307
sg20
S'4694.06325106'
p2540
sba(igraph
Edge
p2541
(dp2542
g7
I1
sg8
I00
sg9
I5
sg10
(lp2543
g607
ag740
asg26
I00
sg27
I00
sg28
I3597308
sg20
S'4694.07623343'
p2544
sba(igraph
Edge
p2545
(dp2546
g7
I1
sg8
I00
sg9
I5
sg10
(lp2547
g614
ag740
asg26
I00
sg27
I00
sg28
I3597309
sg20
S'4694.09005167'
p2548
sba(igraph
Edge
p2549
(dp2550
g7
I1
sg8
I00
sg9
I5
sg10
(lp2551
g621
ag754
asg26
I00
sg27
I00
sg28
I3597310
sg20
S'4694.1026069'
p2552
sba(igraph
Edge
p2553
(dp2554
g7
I1
sg8
I00
sg9
I5
sg10
(lp2555
g628
ag754
asg26
I00
sg27
I00
sg28
I3597311
sg20
S'4694.11361193'
p2556
sba(igraph
Edge
p2557
(dp2558
g7
I1
sg8
I00
sg9
I5
sg10
(lp2559
g635
ag768
asg26
I00
sg27
I00
sg28
I3597312
sg20
S'4694.12441078'
p2560
sba(igraph
Edge
p2561
(dp2562
g7
I1
sg8
I00
sg9
I5
sg10
(lp2563
g642
ag768
asg26
I00
sg27
I00
sg28
I3597313
sg20
S'4694.13542922'
p2564
sba(igraph
Edge
p2565
(dp2566
g7
I1
sg8
I00
sg9
I5
sg10
(lp2567
g649
ag782
asg26
I00
sg27
I00
sg28
I3597314
sg20
S'4694.14619121'
p2568
sba(igraph
Edge
p2569
(dp2570
g7
I1
sg8
I00
sg9
I5
sg10
(lp2571
g656
ag782
asg26
I00
sg27
I00
sg28
I3597315
sg20
S'4694.15710405'
p2572
sba(igraph
Edge
p2573
(dp2574
g7
I1
sg8
I00
sg9
I5
sg10
(lp2575
g663
ag796
asg26
I00
sg27
I00
sg28
I3597316
sg20
S'4694.16849348'
p2576
sba(igraph
Edge
p2577
(dp2578
g7
I1
sg8
I00
sg9
I5
sg10
(lp2579
g670
ag796
asg26
I00
sg27
I00
sg28
I3597317
sg20
S'4694.17946638'
p2580
sba(igraph
Edge
p2581
(dp2582
g7
I1
sg8
I00
sg9
I5
sg10
(lp2583
g677
ag810
asg26
I00
sg27
I00
sg28
I3597318
sg20
S'4694.19021719'
p2584
sba(igraph
Edge
p2585
(dp2586
g7
I1
sg8
I00
sg9
I5
sg10
(lp2587
g555
ag810
asg26
I00
sg27
I00
sg28
I3597319
sg20
S'4694.20132056'
p2588
sba(igraph
Edge
p2589
(dp2590
g7
I1
sg8
I00
sg9
I5
sg10
(lp2591
g558
ag691
asg26
I00
sg27
I00
sg28
I3597320
sg20
S'4694.21308937'
p2592
sba(igraph
Edge
p2593
(dp2594
g7
I1
sg8
I00
sg9
I5
sg10
(lp2595
g565
ag691
asg26
I00
sg27
I00
sg28
I3597321
sg20
S'4694.2263039'
p2596
sba(igraph
Edge
p2597
(dp2598
g7
I1
sg8
I00
sg9
I5
sg10
(lp2599
g572
ag705
asg26
I00
sg27
I00
sg28
I3597322
sg20
S'4694.23887729'
p2600
sba(igraph
Edge
p2601
(dp2602
g7
I1
sg8
I00
sg9
I5
sg10
(lp2603
g579
ag705
asg26
I00
sg27
I00
sg28
I3597323
sg20
S'4694.25275559'
p2604
sba(igraph
Edge
p2605
(dp2606
g7
I1
sg8
I00
sg9
I5
sg10
(lp2607
g586
ag719
asg26
I00
sg27
I00
sg28
I3597324
sg20
S'4694.26590419'
p2608
sba(igraph
Edge
p2609
(dp2610
g7
I1
sg8
I00
sg9
I5
sg10
(lp2611
g593
ag719
asg26
I00
sg27
I00
sg28
I3597325
sg20
S'4694.27777748'
p2612
sba(igraph
Edge
p2613
(dp2614
g7
I1
sg8
I00
sg9
I5
sg10
(lp2615
g600
ag733
asg26
I00
sg27
I00
sg28
I3597326
sg20
S'4694.28882609'
p2616
sba(igraph
Edge
p2617
(dp2618
g7
I1
sg8
I00
sg9
I5
sg10
(lp2619
g607
ag733
asg26
I00
sg27
I00
sg28
I3597327
sg20
S'4694.2996487'
p2620
sba(igraph
Edge
p2621
(dp2622
g7
I1
sg8
I00
sg9
I5
sg10
(lp2623
g614
ag747
asg26
I00
sg27
I00
sg28
I3597328
sg20
S'4694.31259532'
p2624
sba(igraph
Edge
p2625
(dp2626
g7
I1
sg8
I00
sg9
I5
sg10
(lp2627
g621
ag747
asg26
I00
sg27
I00
sg28
I3597329
sg20
S'4694.32389256'
p2628
sba(igraph
Edge
p2629
(dp2630
g7
I1
sg8
I00
sg9
I5
sg10
(lp2631
g628
ag761
asg26
I00
sg27
I00
sg28
I3597330
sg20
S'4694.33739037'
p2632
sba(igraph
Edge
p2633
(dp2634
g7
I1
sg8
I00
sg9
I5
sg10
(lp2635
g635
ag761
asg26
I00
sg27
I00
sg28
I3597331
sg20
S'4694.35153071'
p2636
sba(igraph
Edge
p2637
(dp2638
g7
I1
sg8
I00
sg9
I5
sg10
(lp2639
g642
ag775
asg26
I00
sg27
I00
sg28
I3597332
sg20
S'4694.36517071'
p2640
sba(igraph
Edge
p2641
(dp2642
g7
I1
sg8
I00
sg9
I5
sg10
(lp2643
g649
ag775
asg26
I00
sg27
I00
sg28
I3597333
sg20
S'4694.37808744'
p2644
sba(igraph
Edge
p2645
(dp2646
g7
I1
sg8
I00
sg9
I5
sg10
(lp2647
g656
ag789
asg26
I00
sg27
I00
sg28
I3597334
sg20
S'4694.38991687'
p2648
sba(igraph
Edge
p2649
(dp2650
g7
I1
sg8
I00
sg9
I5
sg10
(lp2651
g663
ag789
asg26
I00
sg27
I00
sg28
I3597335
sg20
S'4694.40127949'
p2652
sba(igraph
Edge
p2653
(dp2654
g7
I1
sg8
I00
sg9
I5
sg10
(lp2655
g670
ag803
asg26
I00
sg27
I00
sg28
I3597336
sg20
S'4694.41301255'
p2656
sba(igraph
Edge
p2657
(dp2658
g7
I1
sg8
I00
sg9
I5
sg10
(lp2659
g677
ag803
asg26
I00
sg27
I00
sg28
I3597337
sg20
S'4694.42452993'
p2660
sba(igraph
Edge
p2661
(dp2662
g7
I1
sg8
I00
sg9
I5
sg10
(lp2663
g688
ag821
asg26
I00
sg27
I00
sg28
I3597338
sg20
S'4694.43512681'
p2664
sba(igraph
Edge
p2665
(dp2666
g7
I1
sg8
I00
sg9
I5
sg10
(lp2667
g691
ag821
asg26
I00
sg27
I00
sg28
I3597339
sg20
S'4694.44543119'
p2668
sba(igraph
Edge
p2669
(dp2670
g7
I1
sg8
I00
sg9
I5
sg10
(lp2671
g698
ag831
asg26
I00
sg27
I00
sg28
I3597340
sg20
S'4694.45591158'
p2672
sba(igraph
Edge
p2673
(dp2674
g7
I1
sg8
I00
sg9
I5
sg10
(lp2675
g705
ag831
asg26
I00
sg27
I00
sg28
I3597341
sg20
S'4694.46663305'
p2676
sba(igraph
Edge
p2677
(dp2678
g7
I1
sg8
I00
sg9
I5
sg10
(lp2679
g712
ag845
asg26
I00
sg27
I00
sg28
I3597342
sg20
S'4694.47729809'
p2680
sba(igraph
Edge
p2681
(dp2682
g7
I1
sg8
I00
sg9
I5
sg10
(lp2683
g719
ag845
asg26
I00
sg27
I00
sg28
I3597343
sg20
S'4694.48776255'
p2684
sba(igraph
Edge
p2685
(dp2686
g7
I1
sg8
I00
sg9
I5
sg10
(lp2687
g726
ag859
asg26
I00
sg27
I00
sg28
I3597344
sg20
S'4694.49831669'
p2688
sba(igraph
Edge
p2689
(dp2690
g7
I1
sg8
I00
sg9
I5
sg10
(lp2691
g733
ag859
asg26
I00
sg27
I00
sg28
I3597345
sg20
S'4694.50891161'
p2692
sba(igraph
Edge
p2693
(dp2694
g7
I1
sg8
I00
sg9
I5
sg10
(lp2695
g740
ag873
asg26
I00
sg27
I00
sg28
I3597346
sg20
S'4694.51942188'
p2696
sba(igraph
Edge
p2697
(dp2698
g7
I1
sg8
I00
sg9
I5
sg10
(lp2699
g747
ag873
asg26
I00
sg27
I00
sg28
I3597347
sg20
S'4694.53089848'
p2700
sba(igraph
Edge
p2701
(dp2702
g7
I1
sg8
I00
sg9
I5
sg10
(lp2703
g754
ag887
asg26
I00
sg27
I00
sg28
I3597348
sg20
S'4694.54156995'
p2704
sba(igraph
Edge
p2705
(dp2706
g7
I1
sg8
I00
sg9
I5
sg10
(lp2707
g761
ag887
asg26
I00
sg27
I00
sg28
I3597349
sg20
S'4694.55225008'
p2708
sba(igraph
Edge
p2709
(dp2710
g7
I1
sg8
I00
sg9
I5
sg10
(lp2711
g768
ag901
asg26
I00
sg27
I00
sg28
I3597350
sg20
S'4694.56331573'
p2712
sba(igraph
Edge
p2713
(dp2714
g7
I1
sg8
I00
sg9
I5
sg10
(lp2715
g775
ag901
asg26
I00
sg27
I00
sg28
I3597351
sg20
S'4694.5740224'
p2716
sba(igraph
Edge
p2717
(dp2718
g7
I1
sg8
I00
sg9
I5
sg10
(lp2719
g782
ag915
asg26
I00
sg27
I00
sg28
I3597352
sg20
S'4694.58460586'
p2720
sba(igraph
Edge
p2721
(dp2722
g7
I1
sg8
I00
sg9
I5
sg10
(lp2723
g789
ag915
asg26
I00
sg27
I00
sg28
I3597353
sg20
S'4694.5954064'
p2724
sba(igraph
Edge
p2725
(dp2726
g7
I1
sg8
I00
sg9
I5
sg10
(lp2727
g796
ag929
asg26
I00
sg27
I00
sg28
I3597354
sg20
S'4694.6061681'
p2728
sba(igraph
Edge
p2729
(dp2730
g7
I1
sg8
I00
sg9
I5
sg10
(lp2731
g803
ag929
asg26
I00
sg27
I00
sg28
I3597355
sg20
S'4694.61700915'
p2732
sba(igraph
Edge
p2733
(dp2734
g7
I1
sg8
I00
sg9
I5
sg10
(lp2735
g810
ag943
asg26
I00
sg27
I00
sg28
I3597356
sg20
S'4694.62804602'
p2736
sba(igraph
Edge
p2737
(dp2738
g7
I1
sg8
I00
sg9
I5
sg10
(lp2739
g688
ag943
asg26
I00
sg27
I00
sg28
I3597357
sg20
S'4694.63887282'
p2740
sba(igraph
Edge
p2741
(dp2742
g7
I1
sg8
I00
sg9
I5
sg10
(lp2743
g691
ag824
asg26
I00
sg27
I00
sg28
I3597358
sg20
S'4694.64962474'
p2744
sba(igraph
Edge
p2745
(dp2746
g7
I1
sg8
I00
sg9
I5
sg10
(lp2747
g698
ag824
asg26
I00
sg27
I00
sg28
I3597359
sg20
S'4694.66061022'
p2748
sba(igraph
Edge
p2749
(dp2750
g7
I1
sg8
I00
sg9
I5
sg10
(lp2751
g705
ag838
asg26
I00
sg27
I00
sg28
I3597360
sg20
S'4694.67191864'
p2752
sba(igraph
Edge
p2753
(dp2754
g7
I1
sg8
I00
sg9
I5
sg10
(lp2755
g712
ag838
asg26
I00
sg27
I00
sg28
I3597361
sg20
S'4694.68298317'
p2756
sba(igraph
Edge
p2757
(dp2758
g7
I1
sg8
I00
sg9
I5
sg10
(lp2759
g719
ag852
asg26
I00
sg27
I00
sg28
I3597362
sg20
S'4694.69410023'
p2760
sba(igraph
Edge
p2761
(dp2762
g7
I1
sg8
I00
sg9
I5
sg10
(lp2763
g726
ag852
asg26
I00
sg27
I00
sg28
I3597363
sg20
S'4694.70510749'
p2764
sba(igraph
Edge
p2765
(dp2766
g7
I1
sg8
I00
sg9
I5
sg10
(lp2767
g733
ag866
asg26
I00
sg27
I00
sg28
I3597364
sg20
S'4694.71631003'
p2768
sba(igraph
Edge
p2769
(dp2770
g7
I1
sg8
I00
sg9
I5
sg10
(lp2771
g740
ag866
asg26
I00
sg27
I00
sg28
I3597365
sg20
S'4694.72755252'
p2772
sba(igraph
Edge
p2773
(dp2774
g7
I1
sg8
I00
sg9
I5
sg10
(lp2775
g747
ag880
asg26
I00
sg27
I00
sg28
I3597366
sg20
S'4694.73855029'
p2776
sba(igraph
Edge
p2777
(dp2778
g7
I1
sg8
I00
sg9
I5
sg10
(lp2779
g754
ag880
asg26
I00
sg27
I00
sg28
I3597367
sg20
S'4694.74967657'
p2780
sba(igraph
Edge
p2781
(dp2782
g7
I1
sg8
I00
sg9
I5
sg10
(lp2783
g761
ag894
asg26
I00
sg27
I00
sg28
I3597368
sg20
S'4694.76084223'
p2784
sba(igraph
Edge
p2785
(dp2786
g7
I1
sg8
I00
sg9
I5
sg10
(lp2787
g768
ag894
asg26
I00
sg27
I00
sg28
I3597369
sg20
S'4694.77198052'
p2788
sba(igraph
Edge
p2789
(dp2790
g7
I1
sg8
I00
sg9
I5
sg10
(lp2791
g775
ag908
asg26
I00
sg27
I00
sg28
I3597370
sg20
S'4694.78299058'
p2792
sba(igraph
Edge
p2793
(dp2794
g7
I1
sg8
I00
sg9
I5
sg10
(lp2795
g782
ag908
asg26
I00
sg27
I00
sg28
I3597371
sg20
S'4694.79423418'
p2796
sba(igraph
Edge
p2797
(dp2798
g7
I1
sg8
I00
sg9
I5
sg10
(lp2799
g789
ag922
asg26
I00
sg27
I00
sg28
I3597372
sg20
S'4694.80537778'
p2800
sba(igraph
Edge
p2801
(dp2802
g7
I1
sg8
I00
sg9
I5
sg10
(lp2803
g796
ag922
asg26
I00
sg27
I00
sg28
I3597373
sg20
S'4694.81639985'
p2804
sba(igraph
Edge
p2805
(dp2806
g7
I1
sg8
I00
sg9
I5
sg10
(lp2807
g803
ag936
asg26
I00
sg27
I00
sg28
I3597374
sg20
S'4694.8278446'
p2808
sba(igraph
Edge
p2809
(dp2810
g7
I1
sg8
I00
sg9
I5
sg10
(lp2811
g810
ag936
asg26
I00
sg27
I00
sg28
I3597375
sg20
S'4694.83977992'
p2812
sba(igraph
Edge
p2813
(dp2814
g7
I1
sg8
I00
sg9
I5
sg10
(lp2815
g821
ag954
asg26
I00
sg27
I00
sg28
I3597376
sg20
S'4694.85140206'
p2816
sba(igraph
Edge
p2817
(dp2818
g7
I1
sg8
I00
sg9
I5
sg10
(lp2819
g824
ag954
asg26
I00
sg27
I00
sg28
I3597377
sg20
S'4694.8626331'
p2820
sba(igraph
Edge
p2821
(dp2822
g7
I1
sg8
I00
sg9
I5
sg10
(lp2823
g831
ag964
asg26
I00
sg27
I00
sg28
I3597378
sg20
S'4694.87384263'
p2824
sba(igraph
Edge
p2825
(dp2826
g7
I1
sg8
I00
sg9
I5
sg10
(lp2827
g838
ag964
asg26
I00
sg27
I00
sg28
I3597379
sg20
S'4694.88505774'
p2828
sba(igraph
Edge
p2829
(dp2830
g7
I1
sg8
I00
sg9
I5
sg10
(lp2831
g845
ag978
asg26
I00
sg27
I00
sg28
I3597380
sg20
S'4694.89633738'
p2832
sba(igraph
Edge
p2833
(dp2834
g7
I1
sg8
I00
sg9
I5
sg10
(lp2835
g852
ag978
asg26
I00
sg27
I00
sg28
I3597381
sg20
S'4694.90771369'
p2836
sba(igraph
Edge
p2837
(dp2838
g7
I1
sg8
I00
sg9
I5
sg10
(lp2839
g859
ag992
asg26
I00
sg27
I00
sg28
I3597382
sg20
S'4694.91905452'
p2840
sba(igraph
Edge
p2841
(dp2842
g7
I1
sg8
I00
sg9
I5
sg10
(lp2843
g866
ag992
asg26
I00
sg27
I00
sg28
I3597383
sg20
S'4694.93034282'
p2844
sba(igraph
Edge
p2845
(dp2846
g7
I1
sg8
I00
sg9
I5
sg10
(lp2847
g873
ag1006
asg26
I00
sg27
I00
sg28
I3597384
sg20
S'4694.94205437'
p2848
sba(igraph
Edge
p2849
(dp2850
g7
I1
sg8
I00
sg9
I5
sg10
(lp2851
g880
ag1006
asg26
I00
sg27
I00
sg28
I3597385
sg20
S'4694.95349353'
p2852
sba(igraph
Edge
p2853
(dp2854
g7
I1
sg8
I00
sg9
I5
sg10
(lp2855
g887
ag1020
asg26
I00
sg27
I00
sg28
I3597386
sg20
S'4694.96508467'
p2856
sba(igraph
Edge
p2857
(dp2858
g7
I1
sg8
I00
sg9
I5
sg10
(lp2859
g894
ag1020
asg26
I00
sg27
I00
sg28
I3597387
sg20
S'4694.97667413'
p2860
sba(igraph
Edge
p2861
(dp2862
g7
I1
sg8
I00
sg9
I5
sg10
(lp2863
g901
ag1034
asg26
I00
sg27
I00
sg28
I3597388
sg20
S'4694.98822253'
p2864
sba(igraph
Edge
p2865
(dp2866
g7
I1
sg8
I00
sg9
I5
sg10
(lp2867
g908
ag1034
asg26
I00
sg27
I00
sg28
I3597389
sg20
S'4694.99981199'
p2868
sba(igraph
Edge
p2869
(dp2870
g7
I1
sg8
I00
sg9
I5
sg10
(lp2871
g915
ag1048
asg26
I00
sg27
I00
sg28
I3597390
sg20
S'4695.01132518'
p2872
sba(igraph
Edge
p2873
(dp2874
g7
I1
sg8
I00
sg9
I5
sg10
(lp2875
g922
ag1048
asg26
I00
sg27
I00
sg28
I3597391
sg20
S'4695.02292973'
p2876
sba(igraph
Edge
p2877
(dp2878
g7
I1
sg8
I00
sg9
I5
sg10
(lp2879
g929
ag1062
asg26
I00
sg27
I00
sg28
I3597392
sg20
S'4695.03467396'
p2880
sba(igraph
Edge
p2881
(dp2882
g7
I1
sg8
I00
sg9
I5
sg10
(lp2883
g936
ag1062
asg26
I00
sg27
I00
sg28
I3597393
sg20
S'4695.04626202'
p2884
sba(igraph
Edge
p2885
(dp2886
g7
I1
sg8
I00
sg9
I5
sg10
(lp2887
g943
ag1076
asg26
I00
sg27
I00
sg28
I3597394
sg20
S'4695.05775371'
p2888
sba(igraph
Edge
p2889
(dp2890
g7
I1
sg8
I00
sg9
I5
sg10
(lp2891
g821
ag1076
asg26
I00
sg27
I00
sg28
I3597395
sg20
S'4695.06937139'
p2892
sba(igraph
Edge
p2893
(dp2894
g7
I1
sg8
I00
sg9
I5
sg10
(lp2895
g824
ag957
asg26
I00
sg27
I00
sg28
I3597396
sg20
S'4695.08113126'
p2896
sba(igraph
Edge
p2897
(dp2898
g7
I1
sg8
I00
sg9
I5
sg10
(lp2899
g831
ag957
asg26
I00
sg27
I00
sg28
I3597397
sg20
S'4695.09286013'
p2900
sba(igraph
Edge
p2901
(dp2902
g7
I1
sg8
I00
sg9
I5
sg10
(lp2903
g838
ag971
asg26
I00
sg27
I00
sg28
I3597398
sg20
S'4695.10475242'
p2904
sba(igraph
Edge
p2905
(dp2906
g7
I1
sg8
I00
sg9
I5
sg10
(lp2907
g845
ag971
asg26
I00
sg27
I00
sg28
I3597399
sg20
S'4695.11644189'
p2908
sba(igraph
Edge
p2909
(dp2910
g7
I1
sg8
I00
sg9
I5
sg10
(lp2911
g852
ag985
asg26
I00
sg27
I00
sg28
I3597400
sg20
S'4695.12820065'
p2912
sba(igraph
Edge
p2913
(dp2914
g7
I1
sg8
I00
sg9
I5
sg10
(lp2915
g859
ag985
asg26
I00
sg27
I00
sg28
I3597401
sg20
S'4695.14004936'
p2916
sba(igraph
Edge
p2917
(dp2918
g7
I1
sg8
I01
sg9
I5
sg10
(lp2919
g866
ag999
asg26
I00
sg27
I00
sg28
I3597403
sg20
S'4695.15174694'
p2920
sba(igraph
Edge
p2921
(dp2922
g7
I1
sg8
I00
sg9
I5
sg10
(lp2923
g873
ag999
asg26
I00
sg27
I00
sg28
I3597404
sg20
S'4695.16364678'
p2924
sba(igraph
Edge
p2925
(dp2926
g7
I1
sg8
I00
sg9
I5
sg10
(lp2927
g880
ag1013
asg26
I00
sg27
I00
sg28
I3597405
sg20
S'4695.17561981'
p2928
sba(igraph
Edge
p2929
(dp2930
g7
I1
sg8
I00
sg9
I5
sg10
(lp2931
g887
ag1013
asg26
I00
sg27
I00
sg28
I3597406
sg20
S'4695.18757049'
p2932
sba(igraph
Edge
p2933
(dp2934
g7
I1
sg8
I00
sg9
I5
sg10
(lp2935
g894
ag1027
asg26
I00
sg27
I00
sg28
I3597407
sg20
S'4695.19948345'
p2936
sba(igraph
Edge
p2937
(dp2938
g7
I1
sg8
I00
sg9
I5
sg10
(lp2939
g901
ag1027
asg26
I00
sg27
I00
sg28
I3597408
sg20
S'4695.211509'
p2940
sba(igraph
Edge
p2941
(dp2942
g7
I1
sg8
I00
sg9
I5
sg10
(lp2943
g908
ag1041
asg26
I00
sg27
I00
sg28
I3597409
sg20
S'4695.22345522'
p2944
sba(igraph
Edge
p2945
(dp2946
g7
I1
sg8
I00
sg9
I5
sg10
(lp2947
g915
ag1041
asg26
I00
sg27
I00
sg28
I3597410
sg20
S'4695.23543299'
p2948
sba(igraph
Edge
p2949
(dp2950
g7
I1
sg8
I00
sg9
I5
sg10
(lp2951
g922
ag1055
asg26
I00
sg27
I00
sg28
I3597411
sg20
S'4695.24754291'
p2952
sba(igraph
Edge
p2953
(dp2954
g7
I1
sg8
I00
sg9
I5
sg10
(lp2955
g929
ag1055
asg26
I00
sg27
I00
sg28
I3597412
sg20
S'4695.25953913'
p2956
sba(igraph
Edge
p2957
(dp2958
g7
I1
sg8
I00
sg9
I5
sg10
(lp2959
g936
ag1069
asg26
I00
sg27
I00
sg28
I3597413
sg20
S'4695.27159821'
p2960
sba(igraph
Edge
p2961
(dp2962
g7
I1
sg8
I00
sg9
I5
sg10
(lp2963
g943
ag1069
asg26
I00
sg27
I00
sg28
I3597414
sg20
S'4695.28390061'
p2964
sba(igraph
Edge
p2965
(dp2966
g7
I1
sg8
I00
sg9
I5
sg10
(lp2967
g954
ag1087
asg26
I00
sg27
I00
sg28
I3597415
sg20
S'4695.29646505'
p2968
sba(igraph
Edge
p2969
(dp2970
g7
I1
sg8
I00
sg9
I5
sg10
(lp2971
g957
ag1087
asg26
I00
sg27
I00
sg28
I3597416
sg20
S'4695.3084934'
p2972
sba(igraph
Edge
p2973
(dp2974
g7
I1
sg8
I00
sg9
I5
sg10
(lp2975
g964
ag1097
asg26
I00
sg27
I00
sg28
I3597417
sg20
S'4695.32061365'
p2976
sba(igraph
Edge
p2977
(dp2978
g7
I1
sg8
I00
sg9
I5
sg10
(lp2979
g971
ag1097
asg26
I00
sg27
I00
sg28
I3597418
sg20
S'4695.33278224'
p2980
sba(igraph
Edge
p2981
(dp2982
g7
I1
sg8
I00
sg9
I5
sg10
(lp2983
g978
ag1111
asg26
I00
sg27
I00
sg28
I3597419
sg20
S'4695.34500362'
p2984
sba(igraph
Edge
p2985
(dp2986
g7
I1
sg8
I00
sg9
I5
sg10
(lp2987
g985
ag1111
asg26
I00
sg27
I00
sg28
I3597420
sg20
S'4695.35738425'
p2988
sba(igraph
Edge
p2989
(dp2990
g7
I1
sg8
I00
sg9
I5
sg10
(lp2991
g992
ag1125
asg26
I00
sg27
I00
sg28
I3597421
sg20
S'4695.36957183'
p2992
sba(igraph
Edge
p2993
(dp2994
g7
I1
sg8
I00
sg9
I5
sg10
(lp2995
g999
ag1125
asg26
I00
sg27
I00
sg28
I3597422
sg20
S'4695.38171192'
p2996
sba(igraph
Edge
p2997
(dp2998
g7
I1
sg8
I00
sg9
I5
sg10
(lp2999
g1006
ag1139
asg26
I00
sg27
I00
sg28
I3597423
sg20
S'4695.39417803'
p3000
sba(igraph
Edge
p3001
(dp3002
g7
I1
sg8
I00
sg9
I5
sg10
(lp3003
g1013
ag1139
asg26
I00
sg27
I00
sg28
I3597424
sg20
S'4695.40648462'
p3004
sba(igraph
Edge
p3005
(dp3006
g7
I1
sg8
I00
sg9
I5
sg10
(lp3007
g1020
ag1153
asg26
I00
sg27
I00
sg28
I3597425
sg20
S'4695.41876775'
p3008
sba(igraph
Edge
p3009
(dp3010
g7
I1
sg8
I00
sg9
I5
sg10
(lp3011
g1027
ag1153
asg26
I00
sg27
I00
sg28
I3597426
sg20
S'4695.43108635'
p3012
sba(igraph
Edge
p3013
(dp3014
g7
I1
sg8
I00
sg9
I5
sg10
(lp3015
g1034
ag1167
asg26
I00
sg27
I00
sg28
I3597427
sg20
S'4695.44359856'
p3016
sba(igraph
Edge
p3017
(dp3018
g7
I1
sg8
I00
sg9
I5
sg10
(lp3019
g1041
ag1167
asg26
I00
sg27
I00
sg28
I3597428
sg20
S'4695.45606439'
p3020
sba(igraph
Edge
p3021
(dp3022
g7
I1
sg8
I00
sg9
I5
sg10
(lp3023
g1048
ag1181
asg26
I00
sg27
I00
sg28
I3597429
sg20
S'4695.46871879'
p3024
sba(igraph
Edge
p3025
(dp3026
g7
I1
sg8
I00
sg9
I5
sg10
(lp3027
g1055
ag1181
asg26
I00
sg27
I00
sg28
I3597430
sg20
S'4695.48121423'
p3028
sba(igraph
Edge
p3029
(dp3030
g7
I1
sg8
I00
sg9
I5
sg10
(lp3031
g1062
ag1195
asg26
I00
sg27
I00
sg28
I3597431
sg20
S'4695.49362195'
p3032
sba(igraph
Edge
p3033
(dp3034
g7
I1
sg8
I00
sg9
I5
sg10
(lp3035
g1069
ag1195
asg26
I00
sg27
I00
sg28
I3597432
sg20
S'4695.50629368'
p3036
sba(igraph
Edge
p3037
(dp3038
g7
I1
sg8
I00
sg9
I5
sg10
(lp3039
g1076
ag1209
asg26
I00
sg27
I00
sg28
I3597433
sg20
S'4695.51874917'
p3040
sba(igraph
Edge
p3041
(dp3042
g7
I1
sg8
I00
sg9
I5
sg10
(lp3043
g954
ag1209
asg26
I00
sg27
I00
sg28
I3597434
sg20
S'4695.53141139'
p3044
sba(igraph
Edge
p3045
(dp3046
g7
I1
sg8
I00
sg9
I5
sg10
(lp3047
g957
ag1090
asg26
I00
sg27
I00
sg28
I3597435
sg20
S'4695.54389762'
p3048
sba(igraph
Edge
p3049
(dp3050
g7
I1
sg8
I00
sg9
I5
sg10
(lp3051
g964
ag1090
asg26
I00
sg27
I00
sg28
I3597436
sg20
S'4695.55635563'
p3052
sba(igraph
Edge
p3053
(dp3054
g7
I1
sg8
I00
sg9
I5
sg10
(lp3055
g971
ag1104
asg26
I00
sg27
I00
sg28
I3597437
sg20
S'4695.56884576'
p3056
sba(igraph
Edge
p3057
(dp3058
g7
I1
sg8
I00
sg9
I5
sg10
(lp3059
g978
ag1104
asg26
I00
sg27
I00
sg28
I3597438
sg20
S'4695.58145602'
p3060
sba(igraph
Edge
p3061
(dp3062
g7
I1
sg8
I00
sg9
I5
sg10
(lp3063
g985
ag1118
asg26
I00
sg27
I00
sg28
I3597439
sg20
S'4695.59431157'
p3064
sba(igraph
Edge
p3065
(dp3066
g7
I1
sg8
I00
sg9
I5
sg10
(lp3067
g992
ag1118
asg26
I00
sg27
I00
sg28
I3597440
sg20
S'4695.60706878'
p3068
sba(igraph
Edge
p3069
(dp3070
g7
I1
sg8
I00
sg9
I5
sg10
(lp3071
g999
ag1132
asg26
I00
sg27
I00
sg28
I3597441
sg20
S'4695.61965054'
p3072
sba(igraph
Edge
p3073
(dp3074
g7
I1
sg8
I00
sg9
I5
sg10
(lp3075
g1006
ag1132
asg26
I00
sg27
I00
sg28
I3597442
sg20
S'4695.63247284'
p3076
sba(igraph
Edge
p3077
(dp3078
g7
I1
sg8
I00
sg9
I5
sg10
(lp3079
g1013
ag1146
asg26
I00
sg27
I00
sg28
I3597443
sg20
S'4695.64538342'
p3080
sba(igraph
Edge
p3081
(dp3082
g7
I1
sg8
I00
sg9
I5
sg10
(lp3083
g1020
ag1146
asg26
I00
sg27
I00
sg28
I3597444
sg20
S'4695.65850352'
p3084
sba(igraph
Edge
p3085
(dp3086
g7
I1
sg8
I00
sg9
I5
sg10
(lp3087
g1027
ag1160
asg26
I00
sg27
I00
sg28
I3597445
sg20
S'4695.67147193'
p3088
sba(igraph
Edge
p3089
(dp3090
g7
I1
sg8
I00
sg9
I5
sg10
(lp3091
g1034
ag1160
asg26
I00
sg27
I00
sg28
I3597446
sg20
S'4695.68431546'
p3092
sba(igraph
Edge
p3093
(dp3094
g7
I1
sg8
I00
sg9
I5
sg10
(lp3095
g1041
ag1174
asg26
I00
sg27
I00
sg28
I3597447
sg20
S'4695.69713469'
p3096
sba(igraph
Edge
p3097
(dp3098
g7
I1
sg8
I00
sg9
I5
sg10
(lp3099
g1048
ag1174
asg26
I00
sg27
I00
sg28
I3597448
sg20
S'4695.70976004'
p3100
sba(igraph
Edge
p3101
(dp3102
g7
I1
sg8
I00
sg9
I5
sg10
(lp3103
g1055
ag1188
asg26
I00
sg27
I00
sg28
I3597449
sg20
S'4695.72263961'
p3104
sba(igraph
Edge
p3105
(dp3106
g7
I1
sg8
I00
sg9
I5
sg10
(lp3107
g1062
ag1188
asg26
I00
sg27
I00
sg28
I3597450
sg20
S'4695.73616982'
p3108
sba(igraph
Edge
p3109
(dp3110
g7
I1
sg8
I00
sg9
I5
sg10
(lp3111
g1069
ag1202
asg26
I00
sg27
I00
sg28
I3597451
sg20
S'4695.74975842'
p3112
sba(igraph
Edge
p3113
(dp3114
g7
I1
sg8
I00
sg9
I5
sg10
(lp3115
g1076
ag1202
asg26
I00
sg27
I00
sg28
I3597452
sg20
S'4695.76306095'
p3116
sba(igraph
Edge
p3117
(dp3118
g7
I1
sg8
I00
sg9
I5
sg10
(lp3119
g1087
ag1220
asg26
I00
sg27
I00
sg28
I3597453
sg20
S'4695.77595924'
p3120
sba(igraph
Edge
p3121
(dp3122
g7
I1
sg8
I00
sg9
I5
sg10
(lp3123
g1090
ag1220
asg26
I00
sg27
I00
sg28
I3597454
sg20
S'4695.78903827'
p3124
sba(igraph
Edge
p3125
(dp3126
g7
I1
sg8
I00
sg9
I5
sg10
(lp3127
g1097
ag1230
asg26
I00
sg27
I00
sg28
I3597455
sg20
S'4695.80197958'
p3128
sba(igraph
Edge
p3129
(dp3130
g7
I1
sg8
I00
sg9
I5
sg10
(lp3131
g1104
ag1230
asg26
I00
sg27
I00
sg28
I3597456
sg20
S'4695.8155584'
p3132
sba(igraph
Edge
p3133
(dp3134
g7
I1
sg8
I00
sg9
I5
sg10
(lp3135
g1111
ag1244
asg26
I00
sg27
I00
sg28
I3597457
sg20
S'4695.82860866'
p3136
sba(igraph
Edge
p3137
(dp3138
g7
I1
sg8
I00
sg9
I5
sg10
(lp3139
g1118
ag1244
asg26
I00
sg27
I00
sg28
I3597458
sg20
S'4695.84552143'
p3140
sba(igraph
Edge
p3141
(dp3142
g7
I1
sg8
I00
sg9
I5
sg10
(lp3143
g1125
ag1258
asg26
I00
sg27
I00
sg28
I3597459
sg20
S'4695.86004422'
p3144
sba(igraph
Edge
p3145
(dp3146
g7
I1
sg8
I00
sg9
I5
sg10
(lp3147
g1132
ag1258
asg26
I00
sg27
I00
sg28
I3597460
sg20
S'4695.87317243'
p3148
sba(igraph
Edge
p3149
(dp3150
g7
I1
sg8
I00
sg9
I5
sg10
(lp3151
g1139
ag1272
asg26
I00
sg27
I00
sg28
I3597461
sg20
S'4695.88676131'
p3152
sba(igraph
Edge
p3153
(dp3154
g7
I1
sg8
I00
sg9
I5
sg10
(lp3155
g1146
ag1272
asg26
I00
sg27
I00
sg28
I3597462
sg20
S'4695.89979704'
p3156
sba(igraph
Edge
p3157
(dp3158
g7
I1
sg8
I00
sg9
I5
sg10
(lp3159
g1153
ag1286
asg26
I00
sg27
I00
sg28
I3597463
sg20
S'4695.91293474'
p3160
sba(igraph
Edge
p3161
(dp3162
g7
I1
sg8
I00
sg9
I5
sg10
(lp3163
g1160
ag1286
asg26
I00
sg27
I00
sg28
I3597464
sg20
S'4695.9259269'
p3164
sba(igraph
Edge
p3165
(dp3166
g7
I1
sg8
I00
sg9
I5
sg10
(lp3167
g1167
ag1300
asg26
I00
sg27
I00
sg28
I3597465
sg20
S'4695.93912075'
p3168
sba(igraph
Edge
p3169
(dp3170
g7
I1
sg8
I00
sg9
I5
sg10
(lp3171
g1174
ag1300
asg26
I00
sg27
I00
sg28
I3597466
sg20
S'4695.95235596'
p3172
sba(igraph
Edge
p3173
(dp3174
g7
I1
sg8
I00
sg9
I5
sg10
(lp3175
g1181
ag1314
asg26
I00
sg27
I00
sg28
I3597467
sg20
S'4695.96571659'
p3176
sba(igraph
Edge
p3177
(dp3178
g7
I1
sg8
I00
sg9
I5
sg10
(lp3179
g1188
ag1314
asg26
I00
sg27
I00
sg28
I3597468
sg20
S'4695.97898727'
p3180
sba(igraph
Edge
p3181
(dp3182
g7
I1
sg8
I00
sg9
I5
sg10
(lp3183
g1195
ag1328
asg26
I00
sg27
I00
sg28
I3597469
sg20
S'4695.99203809'
p3184
sba(igraph
Edge
p3185
(dp3186
g7
I1
sg8
I00
sg9
I5
sg10
(lp3187
g1202
ag1328
asg26
I00
sg27
I00
sg28
I3597470
sg20
S'4696.00527274'
p3188
sba(igraph
Edge
p3189
(dp3190
g7
I1
sg8
I00
sg9
I5
sg10
(lp3191
g1209
ag1342
asg26
I00
sg27
I00
sg28
I3597471
sg20
S'4696.01862304'
p3192
sba(igraph
Edge
p3193
(dp3194
g7
I1
sg8
I00
sg9
I5
sg10
(lp3195
g1087
ag1342
asg26
I00
sg27
I00
sg28
I3597472
sg20
S'4696.03222085'
p3196
sba(igraph
Edge
p3197
(dp3198
g7
I1
sg8
I00
sg9
I5
sg10
(lp3199
g1090
ag1223
asg26
I00
sg27
I00
sg28
I3597473
sg20
S'4696.04579856'
p3200
sba(igraph
Edge
p3201
(dp3202
g7
I1
sg8
I00
sg9
I5
sg10
(lp3203
g1097
ag1223
asg26
I00
sg27
I00
sg28
I3597474
sg20
S'4696.05966736'
p3204
sba(igraph
Edge
p3205
(dp3206
g7
I1
sg8
I00
sg9
I5
sg10
(lp3207
g1104
ag1237
asg26
I00
sg27
I00
sg28
I3597475
sg20
S'4696.07301487'
p3208
sba(igraph
Edge
p3209
(dp3210
g7
I1
sg8
I00
sg9
I5
sg10
(lp3211
g1111
ag1237
asg26
I00
sg27
I00
sg28
I3597476
sg20
S'4696.08691496'
p3212
sba(igraph
Edge
p3213
(dp3214
g7
I1
sg8
I00
sg9
I5
sg10
(lp3215
g1118
ag1251
asg26
I00
sg27
I00
sg28
I3597477
sg20
S'4696.10032811'
p3216
sba(igraph
Edge
p3217
(dp3218
g7
I1
sg8
I00
sg9
I5
sg10
(lp3219
g1125
ag1251
asg26
I00
sg27
I00
sg28
I3597478
sg20
S'4696.11367646'
p3220
sba(igraph
Edge
p3221
(dp3222
g7
I1
sg8
I00
sg9
I5
sg10
(lp3223
g1132
ag1265
asg26
I00
sg27
I00
sg28
I3597479
sg20
S'4696.12732344'
p3224
sba(igraph
Edge
p3225
(dp3226
g7
I1
sg8
I00
sg9
I5
sg10
(lp3227
g1139
ag1265
asg26
I00
sg27
I00
sg28
I3597480
sg20
S'4696.14079527'
p3228
sba(igraph
Edge
p3229
(dp3230
g7
I1
sg8
I00
sg9
I5
sg10
(lp3231
g1146
ag1279
asg26
I00
sg27
I00
sg28
I3597481
sg20
S'4696.15442493'
p3232
sba(igraph
Edge
p3233
(dp3234
g7
I1
sg8
I00
sg9
I5
sg10
(lp3235
g1153
ag1279
asg26
I00
sg27
I00
sg28
I3597482
sg20
S'4696.1680018'
p3236
sba(igraph
Edge
p3237
(dp3238
g7
I1
sg8
I00
sg9
I5
sg10
(lp3239
g1160
ag1293
asg26
I00
sg27
I00
sg28
I3597483
sg20
S'4696.18151804'
p3240
sba(igraph
Edge
p3241
(dp3242
g7
I1
sg8
I00
sg9
I5
sg10
(lp3243
g1167
ag1293
asg26
I00
sg27
I00
sg28
I3597484
sg20
S'4696.19512983'
p3244
sba(igraph
Edge
p3245
(dp3246
g7
I1
sg8
I00
sg9
I5
sg10
(lp3247
g1174
ag1307
asg26
I00
sg27
I00
sg28
I3597485
sg20
S'4696.20894695'
p3248
sba(igraph
Edge
p3249
(dp3250
g7
I1
sg8
I00
sg9
I5
sg10
(lp3251
g1181
ag1307
asg26
I00
sg27
I00
sg28
I3597486
sg20
S'4696.22288503'
p3252
sba(igraph
Edge
p3253
(dp3254
g7
I1
sg8
I00
sg9
I5
sg10
(lp3255
g1188
ag1321
asg26
I00
sg27
I00
sg28
I3597487
sg20
S'4696.23659152'
p3256
sba(igraph
Edge
p3257
(dp3258
g7
I1
sg8
I00
sg9
I5
sg10
(lp3259
g1195
ag1321
asg26
I00
sg27
I00
sg28
I3597488
sg20
S'4696.25014967'
p3260
sba(igraph
Edge
p3261
(dp3262
g7
I1
sg8
I00
sg9
I5
sg10
(lp3263
g1202
ag1335
asg26
I00
sg27
I00
sg28
I3597489
sg20
S'4696.26372486'
p3264
sba(igraph
Edge
p3265
(dp3266
g7
I1
sg8
I00
sg9
I5
sg10
(lp3267
g1209
ag1335
asg26
I00
sg27
I00
sg28
I3597490
sg20
S'4696.27773111'
p3268
sba(igraph
Edge
p3269
(dp3270
g7
I1
sg8
I00
sg9
I5
sg10
(lp3271
g1220
ag1353
asg26
I00
sg27
I00
sg28
I3597491
sg20
S'4696.29160829'
p3272
sba(igraph
Edge
p3273
(dp3274
g7
I1
sg8
I00
sg9
I5
sg10
(lp3275
g1223
ag1353
asg26
I00
sg27
I00
sg28
I3597492
sg20
S'4696.3052103'
p3276
sba(igraph
Edge
p3277
(dp3278
g7
I1
sg8
I00
sg9
I5
sg10
(lp3279
g1230
ag1363
asg26
I00
sg27
I00
sg28
I3597493
sg20
S'4696.31928248'
p3280
sba(igraph
Edge
p3281
(dp3282
g7
I1
sg8
I00
sg9
I5
sg10
(lp3283
g1237
ag1363
asg26
I00
sg27
I00
sg28
I3597494
sg20
S'4696.33292667'
p3284
sba(igraph
Edge
p3285
(dp3286
g7
I1
sg8
I00
sg9
I5
sg10
(lp3287
g1244
ag1377
asg26
I00
sg27
I00
sg28
I3597495
sg20
S'4696.34676782'
p3288
sba(igraph
Edge
p3289
(dp3290
g7
I1
sg8
I00
sg9
I5
sg10
(lp3291
g1251
ag1377
asg26
I00
sg27
I00
sg28
I3597496
sg20
S'4696.36280421'
p3292
sba(igraph
Edge
p3293
(dp3294
g7
I1
sg8
I00
sg9
I5
sg10
(lp3295
g1258
ag1391
asg26
I00
sg27
I00
sg28
I3597497
sg20
S'4696.3769711'
p3296
sba(igraph
Edge
p3297
(dp3298
g7
I1
sg8
I00
sg9
I5
sg10
(lp3299
g1265
ag1391
asg26
I00
sg27
I00
sg28
I3597498
sg20
S'4696.39083906'
p3300
sba(igraph
Edge
p3301
(dp3302
g7
I1
sg8
I00
sg9
I5
sg10
(lp3303
g1272
ag1405
asg26
I00
sg27
I00
sg28
I3597499
sg20
S'4696.40470171'
p3304
sba(igraph
Edge
p3305
(dp3306
g7
I1
sg8
I00
sg9
I5
sg10
(lp3307
g1279
ag1405
asg26
I00
sg27
I00
sg28
I3597500
sg20
S'4696.41869707'
p3308
sba(igraph
Edge
p3309
(dp3310
g7
I1
sg8
I00
sg9
I5
sg10
(lp3311
g1286
ag1419
asg26
I00
sg27
I00
sg28
I3597501
sg20
S'4696.43278154'
p3312
sba(igraph
Edge
p3313
(dp3314
g7
I1
sg8
I00
sg9
I5
sg10
(lp3315
g1293
ag1419
asg26
I00
sg27
I00
sg28
I3597502
sg20
S'4696.44677326'
p3316
sba(igraph
Edge
p3317
(dp3318
g7
I1
sg8
I00
sg9
I5
sg10
(lp3319
g1300
ag1433
asg26
I00
sg27
I00
sg28
I3597503
sg20
S'4696.46082924'
p3320
sba(igraph
Edge
p3321
(dp3322
g7
I1
sg8
I00
sg9
I5
sg10
(lp3323
g1307
ag1433
asg26
I00
sg27
I00
sg28
I3597504
sg20
S'4696.47493494'
p3324
sba(igraph
Edge
p3325
(dp3326
g7
I1
sg8
I00
sg9
I5
sg10
(lp3327
g1314
ag1447
asg26
I00
sg27
I00
sg28
I3597505
sg20
S'4696.48935884'
p3328
sba(igraph
Edge
p3329
(dp3330
g7
I1
sg8
I00
sg9
I5
sg10
(lp3331
g1321
ag1447
asg26
I00
sg27
I00
sg28
I3597506
sg20
S'4696.50388276'
p3332
sba(igraph
Edge
p3333
(dp3334
g7
I1
sg8
I00
sg9
I5
sg10
(lp3335
g1328
ag1461
asg26
I00
sg27
I00
sg28
I3597507
sg20
S'4696.51835638'
p3336
sba(igraph
Edge
p3337
(dp3338
g7
I1
sg8
I00
sg9
I5
sg10
(lp3339
g1335
ag1461
asg26
I00
sg27
I00
sg28
I3597508
sg20
S'4696.53239476'
p3340
sba(igraph
Edge
p3341
(dp3342
g7
I1
sg8
I00
sg9
I5
sg10
(lp3343
g1342
ag1475
asg26
I00
sg27
I00
sg28
I3597509
sg20
S'4696.54642615'
p3344
sba(igraph
Edge
p3345
(dp3346
g7
I1
sg8
I00
sg9
I5
sg10
(lp3347
g1220
ag1475
asg26
I00
sg27
I00
sg28
I3597510
sg20
S'4696.56081737'
p3348
sba(igraph
Edge
p3349
(dp3350
g7
I1
sg8
I00
sg9
I5
sg10
(lp3351
g1223
ag1356
asg26
I00
sg27
I00
sg28
I3597511
sg20
S'4696.57636236'
p3352
sba(igraph
Edge
p3353
(dp3354
g7
I1
sg8
I00
sg9
I5
sg10
(lp3355
g1230
ag1356
asg26
I00
sg27
I00
sg28
I3597512
sg20
S'4696.59647525'
p3356
sba(igraph
Edge
p3357
(dp3358
g7
I1
sg8
I00
sg9
I5
sg10
(lp3359
g1237
ag1370
asg26
I00
sg27
I00
sg28
I3597513
sg20
S'4696.62177791'
p3360
sba(igraph
Edge
p3361
(dp3362
g7
I1
sg8
I00
sg9
I5
sg10
(lp3363
g1244
ag1370
asg26
I00
sg27
I00
sg28
I3597514
sg20
S'4696.64109908'
p3364
sba(igraph
Edge
p3365
(dp3366
g7
I1
sg8
I00
sg9
I5
sg10
(lp3367
g1251
ag1384
asg26
I00
sg27
I00
sg28
I3597515
sg20
S'4696.65961707'
p3368
sba(igraph
Edge
p3369
(dp3370
g7
I1
sg8
I00
sg9
I5
sg10
(lp3371
g1258
ag1384
asg26
I00
sg27
I00
sg28
I3597516
sg20
S'4696.67703605'
p3372
sba(igraph
Edge
p3373
(dp3374
g7
I1
sg8
I00
sg9
I5
sg10
(lp3375
g1265
ag1398
asg26
I00
sg27
I00
sg28
I3597517
sg20
S'4696.69143425'
p3376
sba(igraph
Edge
p3377
(dp3378
g7
I1
sg8
I00
sg9
I5
sg10
(lp3379
g1272
ag1398
asg26
I00
sg27
I00
sg28
I3597518
sg20
S'4696.70574025'
p3380
sba(igraph
Edge
p3381
(dp3382
g7
I1
sg8
I00
sg9
I5
sg10
(lp3383
g1279
ag1412
asg26
I00
sg27
I00
sg28
I3597519
sg20
S'4696.72020885'
p3384
sba(igraph
Edge
p3385
(dp3386
g7
I1
sg8
I00
sg9
I5
sg10
(lp3387
g1286
ag1412
asg26
I00
sg27
I00
sg28
I3597520
sg20
S'4696.73472159'
p3388
sba(igraph
Edge
p3389
(dp3390
g7
I1
sg8
I00
sg9
I5
sg10
(lp3391
g1293
ag1426
asg26
I00
sg27
I00
sg28
I3597521
sg20
S'4696.74914996'
p3392
sba(igraph
Edge
p3393
(dp3394
g7
I1
sg8
I00
sg9
I5
sg10
(lp3395
g1300
ag1426
asg26
I00
sg27
I00
sg28
I3597522
sg20
S'4696.76352386'
p3396
sba(igraph
Edge
p3397
(dp3398
g7
I1
sg8
I00
sg9
I5
sg10
(lp3399
g1307
ag1440
asg26
I00
sg27
I00
sg28
I3597523
sg20
S'4696.77832015'
p3400
sba(igraph
Edge
p3401
(dp3402
g7
I1
sg8
I00
sg9
I5
sg10
(lp3403
g1314
ag1440
asg26
I00
sg27
I00
sg28
I3597524
sg20
S'4696.79312678'
p3404
sba(igraph
Edge
p3405
(dp3406
g7
I1
sg8
I00
sg9
I5
sg10
(lp3407
g1321
ag1454
asg26
I00
sg27
I00
sg28
I3597525
sg20
S'4696.80747749'
p3408
sba(igraph
Edge
p3409
(dp3410
g7
I1
sg8
I00
sg9
I5
sg10
(lp3411
g1328
ag1454
asg26
I00
sg27
I00
sg28
I3597526
sg20
S'4696.82248247'
p3412
sba(igraph
Edge
p3413
(dp3414
g7
I1
sg8
I00
sg9
I5
sg10
(lp3415
g1335
ag1468
asg26
I00
sg27
I00
sg28
I3597527
sg20
S'4696.8369776'
p3416
sba(igraph
Edge
p3417
(dp3418
g7
I1
sg8
I00
sg9
I5
sg10
(lp3419
g1342
ag1468
asg26
I00
sg27
I00
sg28
I3597528
sg20
S'4696.85271396'
p3420
sba(igraph
Edge
p3421
(dp3422
g7
I1
sg8
I00
sg9
I5
sg10
(lp3423
g1353
ag1486
asg26
I00
sg27
I00
sg28
I3597529
sg20
S'4696.86727475'
p3424
sba(igraph
Edge
p3425
(dp3426
g7
I1
sg8
I00
sg9
I5
sg10
(lp3427
g1356
ag1486
asg26
I00
sg27
I00
sg28
I3597530
sg20
S'4696.8817724'
p3428
sba(igraph
Edge
p3429
(dp3430
g7
I1
sg8
I00
sg9
I5
sg10
(lp3431
g1363
ag1496
asg26
I00
sg27
I00
sg28
I3597531
sg20
S'4696.89635806'
p3432
sba(igraph
Edge
p3433
(dp3434
g7
I1
sg8
I00
sg9
I5
sg10
(lp3435
g1370
ag1496
asg26
I00
sg27
I00
sg28
I3597532
sg20
S'4696.91106803'
p3436
sba(igraph
Edge
p3437
(dp3438
g7
I1
sg8
I00
sg9
I5
sg10
(lp3439
g1377
ag1510
asg26
I00
sg27
I00
sg28
I3597533
sg20
S'4696.92580258'
p3440
sba(igraph
Edge
p3441
(dp3442
g7
I1
sg8
I00
sg9
I5
sg10
(lp3443
g1384
ag1510
asg26
I00
sg27
I00
sg28
I3597534
sg20
S'4696.94055194'
p3444
sba(igraph
Edge
p3445
(dp3446
g7
I1
sg8
I00
sg9
I5
sg10
(lp3447
g1391
ag1524
asg26
I00
sg27
I00
sg28
I3597535
sg20
S'4696.95534684'
p3448
sba(igraph
Edge
p3449
(dp3450
g7
I1
sg8
I00
sg9
I5
sg10
(lp3451
g1398
ag1524
asg26
I00
sg27
I00
sg28
I3597536
sg20
S'4696.9704049'
p3452
sba(igraph
Edge
p3453
(dp3454
g7
I1
sg8
I00
sg9
I5
sg10
(lp3455
g1405
ag1538
asg26
I00
sg27
I00
sg28
I3597537
sg20
S'4696.98539284'
p3456
sba(igraph
Edge
p3457
(dp3458
g7
I1
sg8
I00
sg9
I5
sg10
(lp3459
g1412
ag1538
asg26
I00
sg27
I00
sg28
I3597538
sg20
S'4697.0004238'
p3460
sba(igraph
Edge
p3461
(dp3462
g7
I1
sg8
I00
sg9
I5
sg10
(lp3463
g1419
ag1552
asg26
I00
sg27
I00
sg28
I3597539
sg20
S'4697.01518042'
p3464
sba(igraph
Edge
p3465
(dp3466
g7
I1
sg8
I00
sg9
I5
sg10
(lp3467
g1426
ag1552
asg26
I00
sg27
I00
sg28
I3597540
sg20
S'4697.02997783'
p3468
sba(igraph
Edge
p3469
(dp3470
g7
I1
sg8
I00
sg9
I5
sg10
(lp3471
g1433
ag1566
asg26
I00
sg27
I00
sg28
I3597541
sg20
S'4697.04489342'
p3472
sba(igraph
Edge
p3473
(dp3474
g7
I1
sg8
I00
sg9
I5
sg10
(lp3475
g1440
ag1566
asg26
I00
sg27
I00
sg28
I3597542
sg20
S'4697.06101558'
p3476
sba(igraph
Edge
p3477
(dp3478
g7
I1
sg8
I00
sg9
I5
sg10
(lp3479
g1447
ag1580
asg26
I00
sg27
I00
sg28
I3597543
sg20
S'4697.07593284'
p3480
sba(igraph
Edge
p3481
(dp3482
g7
I1
sg8
I00
sg9
I5
sg10
(lp3483
g1454
ag1580
asg26
I00
sg27
I00
sg28
I3597544
sg20
S'4697.09101073'
p3484
sba(igraph
Edge
p3485
(dp3486
g7
I1
sg8
I00
sg9
I5
sg10
(lp3487
g1461
ag1594
asg26
I00
sg27
I00
sg28
I3597545
sg20
S'4697.10585005'
p3488
sba(igraph
Edge
p3489
(dp3490
g7
I1
sg8
I00
sg9
I5
sg10
(lp3491
g1468
ag1594
asg26
I00
sg27
I00
sg28
I3597546
sg20
S'4697.12056616'
p3492
sba(igraph
Edge
p3493
(dp3494
g7
I1
sg8
I00
sg9
I5
sg10
(lp3495
g1475
ag1608
asg26
I00
sg27
I00
sg28
I3597547
sg20
S'4697.13564126'
p3496
sba(igraph
Edge
p3497
(dp3498
g7
I1
sg8
I00
sg9
I5
sg10
(lp3499
g1353
ag1608
asg26
I00
sg27
I00
sg28
I3597548
sg20
S'4697.15078062'
p3500
sba(igraph
Edge
p3501
(dp3502
g7
I1
sg8
I00
sg9
I5
sg10
(lp3503
g1356
ag1489
asg26
I00
sg27
I00
sg28
I3597549
sg20
S'4697.16601635'
p3504
sba(igraph
Edge
p3505
(dp3506
g7
I1
sg8
I00
sg9
I5
sg10
(lp3507
g1363
ag1489
asg26
I00
sg27
I00
sg28
I3597550
sg20
S'4697.18105011'
p3508
sba(igraph
Edge
p3509
(dp3510
g7
I1
sg8
I00
sg9
I5
sg10
(lp3511
g1370
ag1503
asg26
I00
sg27
I00
sg28
I3597551
sg20
S'4697.1960386'
p3512
sba(igraph
Edge
p3513
(dp3514
g7
I1
sg8
I00
sg9
I5
sg10
(lp3515
g1377
ag1503
asg26
I00
sg27
I00
sg28
I3597552
sg20
S'4697.21100587'
p3516
sba(igraph
Edge
p3517
(dp3518
g7
I1
sg8
I00
sg9
I5
sg10
(lp3519
g1384
ag1517
asg26
I00
sg27
I00
sg28
I3597553
sg20
S'4697.22601671'
p3520
sba(igraph
Edge
p3521
(dp3522
g7
I1
sg8
I00
sg9
I5
sg10
(lp3523
g1391
ag1517
asg26
I00
sg27
I00
sg28
I3597554
sg20
S'4697.24105885'
p3524
sba(igraph
Edge
p3525
(dp3526
g7
I1
sg8
I00
sg9
I5
sg10
(lp3527
g1398
ag1531
asg26
I00
sg27
I00
sg28
I3597555
sg20
S'4697.25642728'
p3528
sba(igraph
Edge
p3529
(dp3530
g7
I1
sg8
I00
sg9
I5
sg10
(lp3531
g1405
ag1531
asg26
I00
sg27
I00
sg28
I3597556
sg20
S'4697.27187394'
p3532
sba(igraph
Edge
p3533
(dp3534
g7
I1
sg8
I00
sg9
I5
sg10
(lp3535
g1412
ag1545
asg26
I00
sg27
I00
sg28
I3597557
sg20
S'4697.28711219'
p3536
sba(igraph
Edge
p3537
(dp3538
g7
I1
sg8
I00
sg9
I5
sg10
(lp3539
g1419
ag1545
asg26
I00
sg27
I00
sg28
I3597558
sg20
S'4697.30229792'
p3540
sba(igraph
Edge
p3541
(dp3542
g7
I1
sg8
I00
sg9
I5
sg10
(lp3543
g1426
ag1559
asg26
I00
sg27
I00
sg28
I3597559
sg20
S'4697.31757193'
p3544
sba(igraph
Edge
p3545
(dp3546
g7
I1
sg8
I00
sg9
I5
sg10
(lp3547
g1433
ag1559
asg26
I00
sg27
I00
sg28
I3597560
sg20
S'4697.3326311'
p3548
sba(igraph
Edge
p3549
(dp3550
g7
I1
sg8
I00
sg9
I5
sg10
(lp3551
g1440
ag1573
asg26
I00
sg27
I00
sg28
I3597561
sg20
S'4697.34870968'
p3552
sba(igraph
Edge
p3553
(dp3554
g7
I1
sg8
I00
sg9
I5
sg10
(lp3555
g1447
ag1573
asg26
I00
sg27
I00
sg28
I3597562
sg20
S'4697.36392279'
p3556
sba(igraph
Edge
p3557
(dp3558
g7
I1
sg8
I00
sg9
I5
sg10
(lp3559
g1454
ag1587
asg26
I00
sg27
I00
sg28
I3597563
sg20
S'4697.37928144'
p3560
sba(igraph
Edge
p3561
(dp3562
g7
I1
sg8
I00
sg9
I5
sg10
(lp3563
g1461
ag1587
asg26
I00
sg27
I00
sg28
I3597564
sg20
S'4697.39461747'
p3564
sba(igraph
Edge
p3565
(dp3566
g7
I1
sg8
I00
sg9
I5
sg10
(lp3567
g1468
ag1601
asg26
I00
sg27
I00
sg28
I3597565
sg20
S'4697.41019878'
p3568
sba(igraph
Edge
p3569
(dp3570
g7
I1
sg8
I00
sg9
I5
sg10
(lp3571
g1475
ag1601
asg26
I00
sg27
I00
sg28
I3597566
sg20
S'4697.42551414'
p3572
sba(igraph
Edge
p3573
(dp3574
g7
I1
sg8
I00
sg9
I5
sg10
(lp3575
g1486
ag1619
asg26
I00
sg27
I00
sg28
I3597567
sg20
S'4697.44089011'
p3576
sba(igraph
Edge
p3577
(dp3578
g7
I1
sg8
I00
sg9
I5
sg10
(lp3579
g1489
ag1619
asg26
I00
sg27
I00
sg28
I3597568
sg20
S'4697.45623229'
p3580
sba(igraph
Edge
p3581
(dp3582
g7
I1
sg8
I00
sg9
I5
sg10
(lp3583
g1496
ag1629
asg26
I00
sg27
I00
sg28
I3597569
sg20
S'4697.47166022'
p3584
sba(igraph
Edge
p3585
(dp3586
g7
I1
sg8
I00
sg9
I5
sg10
(lp3587
g1503
ag1629
asg26
I00
sg27
I00
sg28
I3597570
sg20
S'4697.48718175'
p3588
sba(igraph
Edge
p3589
(dp3590
g7
I1
sg8
I00
sg9
I5
sg10
(lp3591
g1510
ag1643
asg26
I00
sg27
I00
sg28
I3597571
sg20
S'4697.50274015'
p3592
sba(igraph
Edge
p3593
(dp3594
g7
I1
sg8
I00
sg9
I5
sg10
(lp3595
g1517
ag1643
asg26
I00
sg27
I00
sg28
I3597572
sg20
S'4697.51815273'
p3596
sba(igraph
Edge
p3597
(dp3598
g7
I1
sg8
I00
sg9
I5
sg10
(lp3599
g1524
ag1657
asg26
I00
sg27
I00
sg28
I3597573
sg20
S'4697.53362089'
p3600
sba(igraph
Edge
p3601
(dp3602
g7
I1
sg8
I00
sg9
I5
sg10
(lp3603
g1531
ag1657
asg26
I00
sg27
I00
sg28
I3597574
sg20
S'4697.54922511'
p3604
sba(igraph
Edge
p3605
(dp3606
g7
I1
sg8
I00
sg9
I5
sg10
(lp3607
g1538
ag1671
asg26
I00
sg27
I00
sg28
I3597575
sg20
S'4697.56482961'
p3608
sba(igraph
Edge
p3609
(dp3610
g7
I1
sg8
I00
sg9
I5
sg10
(lp3611
g1545
ag1671
asg26
I00
sg27
I00
sg28
I3597576
sg20
S'4697.58045422'
p3612
sba(igraph
Edge
p3613
(dp3614
g7
I1
sg8
I00
sg9
I5
sg10
(lp3615
g1552
ag1685
asg26
I00
sg27
I00
sg28
I3597577
sg20
S'4697.59645122'
p3616
sba(igraph
Edge
p3617
(dp3618
g7
I1
sg8
I00
sg9
I5
sg10
(lp3619
g1559
ag1685
asg26
I00
sg27
I00
sg28
I3597578
sg20
S'4697.61232252'
p3620
sba(igraph
Edge
p3621
(dp3622
g7
I1
sg8
I00
sg9
I5
sg10
(lp3623
g1566
ag1699
asg26
I00
sg27
I00
sg28
I3597579
sg20
S'4697.62804323'
p3624
sba(igraph
Edge
p3625
(dp3626
g7
I1
sg8
I00
sg9
I5
sg10
(lp3627
g1573
ag1699
asg26
I00
sg27
I00
sg28
I3597580
sg20
S'4697.64369662'
p3628
sba(igraph
Edge
p3629
(dp3630
g7
I1
sg8
I00
sg9
I5
sg10
(lp3631
g1580
ag1713
asg26
I00
sg27
I00
sg28
I3597581
sg20
S'4697.65945756'
p3632
sba(igraph
Edge
p3633
(dp3634
g7
I1
sg8
I00
sg9
I5
sg10
(lp3635
g1587
ag1713
asg26
I00
sg27
I00
sg28
I3597582
sg20
S'4697.67510117'
p3636
sba(igraph
Edge
p3637
(dp3638
g7
I1
sg8
I00
sg9
I5
sg10
(lp3639
g1594
ag1727
asg26
I00
sg27
I00
sg28
I3597583
sg20
S'4697.69088725'
p3640
sba(igraph
Edge
p3641
(dp3642
g7
I1
sg8
I00
sg9
I5
sg10
(lp3643
g1601
ag1727
asg26
I00
sg27
I00
sg28
I3597584
sg20
S'4697.70680519'
p3644
sba(igraph
Edge
p3645
(dp3646
g7
I1
sg8
I00
sg9
I5
sg10
(lp3647
g1608
ag1741
asg26
I00
sg27
I00
sg28
I3597585
sg20
S'4697.72284019'
p3648
sba(igraph
Edge
p3649
(dp3650
g7
I1
sg8
I00
sg9
I5
sg10
(lp3651
g1486
ag1741
asg26
I00
sg27
I00
sg28
I3597586
sg20
S'4697.73922803'
p3652
sba(igraph
Edge
p3653
(dp3654
g7
I1
sg8
I00
sg9
I5
sg10
(lp3655
g1489
ag1622
asg26
I00
sg27
I00
sg28
I3597587
sg20
S'4697.75507641'
p3656
sba(igraph
Edge
p3657
(dp3658
g7
I1
sg8
I00
sg9
I5
sg10
(lp3659
g1496
ag1622
asg26
I00
sg27
I00
sg28
I3597588
sg20
S'4697.7708421'
p3660
sba(igraph
Edge
p3661
(dp3662
g7
I1
sg8
I00
sg9
I5
sg10
(lp3663
g1503
ag1636
asg26
I00
sg27
I00
sg28
I3597589
sg20
S'4697.78672178'
p3664
sba(igraph
Edge
p3665
(dp3666
g7
I1
sg8
I00
sg9
I5
sg10
(lp3667
g1510
ag1636
asg26
I00
sg27
I00
sg28
I3597590
sg20
S'4697.8024749'
p3668
sba(igraph
Edge
p3669
(dp3670
g7
I1
sg8
I00
sg9
I5
sg10
(lp3671
g1517
ag1650
asg26
I00
sg27
I00
sg28
I3597591
sg20
S'4697.81862248'
p3672
sba(igraph
Edge
p3673
(dp3674
g7
I1
sg8
I00
sg9
I5
sg10
(lp3675
g1524
ag1650
asg26
I00
sg27
I00
sg28
I3597592
sg20
S'4697.83466921'
p3676
sba(igraph
Edge
p3677
(dp3678
g7
I1
sg8
I00
sg9
I5
sg10
(lp3679
g1531
ag1664
asg26
I00
sg27
I00
sg28
I3597593
sg20
S'4697.85575653'
p3680
sba(igraph
Edge
p3681
(dp3682
g7
I1
sg8
I00
sg9
I5
sg10
(lp3683
g1538
ag1664
asg26
I00
sg27
I00
sg28
I3597594
sg20
S'4697.87339704'
p3684
sba(igraph
Edge
p3685
(dp3686
g7
I1
sg8
I00
sg9
I5
sg10
(lp3687
g1545
ag1678
asg26
I00
sg27
I00
sg28
I3597595
sg20
S'4697.89112052'
p3688
sba(igraph
Edge
p3689
(dp3690
g7
I1
sg8
I00
sg9
I5
sg10
(lp3691
g1552
ag1678
asg26
I00
sg27
I00
sg28
I3597596
sg20
S'4697.90937452'
p3692
sba(igraph
Edge
p3693
(dp3694
g7
I1
sg8
I00
sg9
I5
sg10
(lp3695
g1559
ag1692
asg26
I00
sg27
I00
sg28
I3597597
sg20
S'4697.92832078'
p3696
sba(igraph
Edge
p3697
(dp3698
g7
I1
sg8
I00
sg9
I5
sg10
(lp3699
g1566
ag1692
asg26
I00
sg27
I00
sg28
I3597598
sg20
S'4697.94713434'
p3700
sba(igraph
Edge
p3701
(dp3702
g7
I1
sg8
I00
sg9
I5
sg10
(lp3703
g1573
ag1706
asg26
I00
sg27
I00
sg28
I3597599
sg20
S'4697.9669187'
p3704
sba(igraph
Edge
p3705
(dp3706
g7
I1
sg8
I00
sg9
I5
sg10
(lp3707
g1580
ag1706
asg26
I00
sg27
I00
sg28
I3597600
sg20
S'4697.98664327'
p3708
sba(igraph
Edge
p3709
(dp3710
g7
I1
sg8
I00
sg9
I5
sg10
(lp3711
g1587
ag1720
asg26
I00
sg27
I00
sg28
I3597601
sg20
S'4698.00479474'
p3712
sba(igraph
Edge
p3713
(dp3714
g7
I1
sg8
I00
sg9
I5
sg10
(lp3715
g1594
ag1720
asg26
I00
sg27
I00
sg28
I3597602
sg20
S'4698.02255985'
p3716
sba(igraph
Edge
p3717
(dp3718
g7
I1
sg8
I00
sg9
I5
sg10
(lp3719
g1601
ag1734
asg26
I00
sg27
I00
sg28
I3597603
sg20
S'4698.04235231'
p3720
sba(igraph
Edge
p3721
(dp3722
g7
I1
sg8
I00
sg9
I5
sg10
(lp3723
g1608
ag1734
asg26
I00
sg27
I00
sg28
I3597604
sg20
S'4698.06101166'
p3724
sbasS'vertices'
p3725
(lp3726
g12
ag23
ag33
ag40
ag47
ag54
ag61
ag68
ag75
ag82
ag89
ag96
ag103
ag110
ag117
ag124
ag131
ag138
ag145
ag156
ag159
ag166
ag173
ag180
ag187
ag194
ag201
ag208
ag215
ag222
ag229
ag236
ag243
ag250
ag257
ag264
ag271
ag278
ag289
ag292
ag299
ag306
ag313
ag320
ag327
ag334
ag341
ag348
ag355
ag362
ag369
ag376
ag383
ag390
ag397
ag404
ag411
ag422
ag425
ag432
ag439
ag446
ag453
ag460
ag467
ag474
ag481
ag488
ag495
ag502
ag509
ag516
ag523
ag530
ag537
ag544
ag555
ag558
ag565
ag572
ag579
ag586
ag593
ag600
ag607
ag614
ag621
ag628
ag635
ag642
ag649
ag656
ag663
ag670
ag677
ag688
ag691
ag698
ag705
ag712
ag719
ag726
ag733
ag740
ag747
ag754
ag761
ag768
ag775
ag782
ag789
ag796
ag803
ag810
ag821
ag824
ag831
ag838
ag845
ag852
ag859
ag866
ag873
ag880
ag887
ag894
ag901
ag908
ag915
ag922
ag929
ag936
ag943
ag954
ag957
ag964
ag971
ag978
ag985
ag992
ag999
ag1006
ag1013
ag1020
ag1027
ag1034
ag1041
ag1048
ag1055
ag1062
ag1069
ag1076
ag1087
ag1090
ag1097
ag1104
ag1111
ag1118
ag1125
ag1132
ag1139
ag1146
ag1153
ag1160
ag1167
ag1174
ag1181
ag1188
ag1195
ag1202
ag1209
ag1220
ag1223
ag1230
ag1237
ag1244
ag1251
ag1258
ag1265
ag1272
ag1279
ag1286
ag1293
ag1300
ag1307
ag1314
ag1321
ag1328
ag1335
ag1342
ag1353
ag1356
ag1363
ag1370
ag1377
ag1384
ag1391
ag1398
ag1405
ag1412
ag1419
ag1426
ag1433
ag1440
ag1447
ag1454
ag1461
ag1468
ag1475
ag1486
ag1489
ag1496
ag1503
ag1510
ag1517
ag1524
ag1531
ag1538
ag1545
ag1552
ag1559
ag1566
ag1573
ag1580
ag1587
ag1594
ag1601
ag1608
ag1619
ag1622
ag1629
ag1636
ag1643
ag1650
ag1657
ag1664
ag1671
ag1678
ag1685
ag1692
ag1699
ag1706
ag1713
ag1720
ag1727
ag1734
ag1741
asS'tags'
p3727
(lp3728
sb.