(igraph
Graph
p0
(dp1
S'labelingConstraints'
p2
I-1
sS'edges'
p3
(lp4
(igraph
Edge
p5
(dp6
S'direction'
p7
I1
sS'selected'
p8
I00
sS'height'
p9
I5
sS'vs'
p10
(lp11
(igraph
Vertex
p12
(dp13
S'xnorm'
p14
F0.35117160361572236
sg8
I00
sS'label'
p15
I0
sS'y'
p16
F138.58664695299871
sS'x'
p17
F-104.98925029792011
sS'circle'
p18
I16808667
sS'id'
p19
S'104678.043593'
p20
sS'ynorm'
p21
F0.74582237325982248
sba(igraph
Vertex
p22
(dp23
g14
F0.41316315696614647
sg8
I00
sg15
S'NULL'
p24
sg16
F138.58664695299871
sg17
F-62.091095379426633
sg18
I16808669
sg19
S'104678.044477'
p25
sg21
F0.74582237325982248
sbasS'wrap'
p26
I00
sS'curved'
p27
I00
sS'line'
p28
I16808496
sg19
S'104678.919682'
p29
sba(igraph
Edge
p30
(dp31
g7
I1
sg8
I00
sg9
I5
sg10
(lp32
(igraph
Vertex
p33
(dp34
g14
F0.48006079030565335
sg8
I00
sg15
g24
sg16
F138.54219258547641
sg17
F-15.797933108487882
sg18
I16808670
sg19
S'104678.045362'
p35
sg21
F0.74572531132200093
sba(igraph
Vertex
p36
(dp37
g14
F0.54205234365607757
sg8
I00
sg15
g24
sg16
F138.54219258547641
sg17
F27.100221810005678
sg18
I16808671
sg19
S'104678.046269'
p38
sg21
F0.74572531132200093
sbasg26
I00
sg27
I00
sg28
I16808497
sg19
S'104678.934627'
p39
sba(igraph
Edge
p40
(dp41
g7
I1
sg8
I00
sg9
I5
sg10
(lp42
g36
a(igraph
Vertex
p43
(dp44
g14
F0.60404389700650174
sg8
I00
sg15
g24
sg16
F138.54219258547641
sg17
F69.998376728499238
sg18
I16808672
sg19
S'104678.047187'
p45
sg21
F0.74572531132200093
sbasg26
I00
sg27
I00
sg28
I16808498
sg19
S'104678.943247'
p46
sba(igraph
Edge
p47
(dp48
g7
I1
sg8
I00
sg9
I5
sg10
(lp49
g22
ag33
asg26
I00
sg27
I00
sg28
I16808499
sg19
S'104678.951476'
p50
sba(igraph
Edge
p51
(dp52
g7
I1
sg8
I00
sg9
I5
sg10
(lp53
(igraph
Vertex
p54
(dp55
g14
F0.66899496278028514
sg8
I00
sg15
g24
sg16
F138.42413405893376
sg17
F114.94451424395731
sg18
I16808673
sg19
S'104678.048114'
p56
sg21
F0.74546754161339246
sba(igraph
Vertex
p57
(dp58
g14
F0.73098651613070931
sg8
I00
sg15
I0
sg16
F138.42413405893376
sg17
F157.84266916245087
sg18
I16808674
sg19
S'104678.049055'
p59
sg21
F0.74546754161339246
sbasg26
I00
sg27
I00
sg28
I16808500
sg19
S'104678.95876'
p60
sba(igraph
Edge
p61
(dp62
g7
I1
sg8
I00
sg9
I5
sg10
(lp63
g57
a(igraph
Vertex
p64
(dp65
g14
F0.79297806948113336
sg8
I00
sg15
g24
sg16
F138.42413405893376
sg17
F200.74082408094432
sg18
I16808676
sg19
S'104678.050043'
p66
sg21
F0.74546754161339246
sbasg26
I00
sg27
I00
sg28
I16808501
sg19
S'104678.966368'
p67
sba(igraph
Edge
p68
(dp69
g7
I1
sg8
I00
sg9
I5
sg10
(lp70
g64
a(igraph
Vertex
p71
(dp72
g14
F0.85987570282064041
sg8
I00
sg15
g24
sg16
F138.37967969141158
sg17
F247.03398635188319
sg18
I16808677
sg19
S'104678.051015'
p73
sg21
F0.74537047967557113
sbasg26
I00
sg27
I00
sg28
I16808502
sg19
S'104678.973564'
p74
sba(igraph
Edge
p75
(dp76
g7
I1
sg8
I00
sg9
I5
sg10
(lp77
g43
ag54
asg26
I00
sg27
I00
sg28
I16808503
sg19
S'104678.979468'
p78
sba(igraph
Edge
p79
(dp80
g7
I1
sg8
I00
sg9
I5
sg10
(lp81
(igraph
Vertex
p82
(dp83
g14
F0.3557466149229776
sg8
I00
sg15
g24
sg16
F165.47507333886927
sg17
F-101.8233424732995
sg18
I16808678
sg19
S'104678.061574'
p84
sg21
F0.80453072781412505
sba(igraph
Vertex
p85
(dp86
g14
F0.41773816827340171
sg8
I00
sg15
g24
sg16
F165.47507333886927
sg17
F-58.92518755480603
sg18
I16808679
sg19
S'104678.062804'
p87
sg21
F0.80453072781412505
sbasg26
I00
sg27
I00
sg28
I16808504
sg19
S'104679.269866'
p88
sba(igraph
Edge
p89
(dp90
g7
I1
sg8
I00
sg9
I5
sg10
(lp91
(igraph
Vertex
p92
(dp93
g14
F0.48463580161290853
sg8
I00
sg15
g24
sg16
F165.43061897134703
sg17
F-12.632025283867279
sg18
I16808680
sg19
S'104678.063976'
p94
sg21
F0.80443366587630361
sba(igraph
Vertex
p95
(dp96
g14
F0.54662735496333281
sg8
I00
sg15
g24
sg16
F165.43061897134703
sg17
F30.266129634626282
sg18
I16808681
sg19
S'104678.065397'
p97
sg21
F0.80443366587630361
sbasg26
I00
sg27
I00
sg28
I16808505
sg19
S'104679.277188'
p98
sba(igraph
Edge
p99
(dp100
g7
I1
sg8
I00
sg9
I5
sg10
(lp101
g95
a(igraph
Vertex
p102
(dp103
g14
F0.60861890831375698
sg8
I00
sg15
I0
sg16
F165.43061897134703
sg17
F73.164284553119842
sg18
I16808682
sg19
S'104678.066591'
p104
sg21
F0.80443366587630361
sbasg26
I00
sg27
I00
sg28
I16808506
sg19
S'104679.285104'
p105
sba(igraph
Edge
p106
(dp107
g7
I1
sg8
I00
sg9
I5
sg10
(lp108
g85
ag92
asg26
I00
sg27
I00
sg28
I16808507
sg19
S'104679.293359'
p109
sba(igraph
Edge
p110
(dp111
g7
I1
sg8
I00
sg9
I5
sg10
(lp112
(igraph
Vertex
p113
(dp114
g14
F0.67356997408754038
sg8
I00
sg15
g24
sg16
F165.31256044480443
sg17
F118.11042206857792
sg18
I16808684
sg19
S'104678.067761'
p115
sg21
F0.80417589616769525
sba(igraph
Vertex
p116
(dp117
g14
F0.73556152743796455
sg8
I00
sg15
g24
sg16
F165.31256044480443
sg17
F161.00857698707148
sg18
I16808685
sg19
S'104678.068967'
p118
sg21
F0.80417589616769525
sbasg26
I00
sg27
I00
sg28
I16808508
sg19
S'104679.302952'
p119
sba(igraph
Edge
p120
(dp121
g7
I1
sg8
I00
sg9
I5
sg10
(lp122
g116
a(igraph
Vertex
p123
(dp124
g14
F0.7975530807883886
sg8
I00
sg15
g24
sg16
F165.31256044480443
sg17
F203.90673190556493
sg18
I16808686
sg19
S'104678.070147'
p125
sg21
F0.80417589616769525
sbasg26
I00
sg27
I00
sg28
I16808509
sg19
S'104679.311752'
p126
sba(igraph
Edge
p127
(dp128
g7
I1
sg8
I00
sg9
I5
sg10
(lp129
g123
a(igraph
Vertex
p130
(dp131
g14
F0.86445071412789565
sg8
I00
sg15
I0
sg16
F165.2681060772822
sg17
F250.19989417650379
sg18
I16808687
sg19
S'104678.071346'
p132
sg21
F0.80407883422987381
sbasg26
I00
sg27
I00
sg28
I16808510
sg19
S'104679.320935'
p133
sba(igraph
Edge
p134
(dp135
g7
I1
sg8
I00
sg9
I5
sg10
(lp136
g102
ag113
asg26
I00
sg27
I00
sg28
I16808511
sg19
S'104679.330849'
p137
sba(igraph
Edge
p138
(dp139
g7
I1
sg8
I00
sg9
I5
sg10
(lp140
(igraph
Vertex
p141
(dp142
g14
F0.35736680534300302
sg8
I00
sg15
g24
sg16
F196.46484602082307
sg17
F-100.70217070264189
sg18
I16808689
sg19
S'104678.072562'
p143
sg21
F0.87219398694502859
sba(igraph
Vertex
p144
(dp145
g14
F0.42062834168380631
sg8
I00
sg15
g24
sg16
F196.67993686244245
sg17
F-56.92518755480603
sg18
I16808690
sg19
S'104678.073779'
p146
sg21
F0.87266361760358613
sbasg26
I00
sg27
I00
sg28
I16808512
sg19
S'104679.33911'
p147
sba(igraph
Edge
p148
(dp149
g7
I1
sg8
I00
sg9
I5
sg10
(lp150
(igraph
Vertex
p151
(dp152
g14
F0.48752597502331319
sg8
I00
sg15
I0
sg16
F196.63548249492021
sg17
F-10.632025283867279
sg18
I16808691
sg19
S'104678.075104'
p153
sg21
F0.87256655566576469
sba(igraph
Vertex
p154
(dp155
g14
F0.54951752837373735
sg8
I00
sg15
g24
sg16
F196.63548249492021
sg17
F32.266129634626282
sg18
I16808693
sg19
S'104678.076372'
p156
sg21
F0.87256655566576469
sbasg26
I00
sg27
I00
sg28
I16808513
sg19
S'104679.347992'
p157
sba(igraph
Edge
p158
(dp159
g7
I1
sg8
I00
sg9
I5
sg10
(lp160
g154
a(igraph
Vertex
p161
(dp162
g14
F0.61150908172416163
sg8
I00
sg15
g24
sg16
F196.63548249492021
sg17
F75.164284553119842
sg18
I16808694
sg19
S'104678.077634'
p163
sg21
F0.87256655566576469
sbasg26
I00
sg27
I00
sg28
I16808514
sg19
S'104679.356346'
p164
sba(igraph
Edge
p165
(dp166
g7
I1
sg8
I00
sg9
I5
sg10
(lp167
g144
ag151
asg26
I00
sg27
I00
sg28
I16808515
sg19
S'104679.366137'
p168
sba(igraph
Edge
p169
(dp170
g7
I1
sg8
I00
sg9
I5
sg10
(lp171
(igraph
Vertex
p172
(dp173
g14
F0.67646014749794492
sg8
I00
sg15
g24
sg16
F196.51742396837767
sg17
F120.11042206857792
sg18
I16808695
sg19
S'104678.078901'
p174
sg21
F0.87230878595715644
sba(igraph
Vertex
p175
(dp176
g14
F0.7384517008483692
sg8
I00
sg15
I0
sg16
F196.51742396837767
sg17
F163.00857698707148
sg18
I16808696
sg19
S'104678.080232'
p177
sg21
F0.87230878595715644
sbasg26
I00
sg27
I00
sg28
I16808516
sg19
S'104679.375147'
p178
sba(igraph
Edge
p179
(dp180
g7
I1
sg8
I00
sg9
I5
sg10
(lp181
g175
a(igraph
Vertex
p182
(dp183
g14
F0.80044325419879325
sg8
I00
sg15
g24
sg16
F196.51742396837767
sg17
F205.90673190556493
sg18
I16808698
sg19
S'104678.08171'
p184
sg21
F0.87230878595715644
sbasg26
I00
sg27
I00
sg28
I16808517
sg19
S'104679.38398'
p185
sba(igraph
Edge
p186
(dp187
g7
I1
sg8
I00
sg9
I5
sg10
(lp188
g182
a(igraph
Vertex
p189
(dp190
g14
F0.8673408875383003
sg8
I00
sg15
g24
sg16
F196.47296960085544
sg17
F252.19989417650379
sg18
I16808699
sg19
S'104678.083096'
p191
sg21
F0.872211724019335
sbasg26
I00
sg27
I00
sg28
I16808518
sg19
S'104679.393514'
p192
sba(igraph
Edge
p193
(dp194
g7
I1
sg8
I00
sg9
I5
sg10
(lp195
g161
ag172
asg26
I00
sg27
I00
sg28
I16808519
sg19
S'104679.408559'
p196
sba(igraph
Edge
p197
(dp198
g7
I1
sg8
I00
sg9
I5
sg10
(lp199
g82
ag141
asg26
I00
sg27
I00
sg28
I16808520
sg19
S'104679.417265'
p200
sba(igraph
Edge
p201
(dp202
g7
I1
sg8
I00
sg9
I5
sg10
(lp203
g85
ag141
asg26
I00
sg27
I00
sg28
I16808521
sg19
S'104679.427757'
p204
sba(igraph
Edge
p205
(dp206
g7
I1
sg8
I00
sg9
I5
sg10
(lp207
g85
ag144
asg26
I00
sg27
I00
sg28
I16808522
sg19
S'104679.43721'
p208
sba(igraph
Edge
p209
(dp210
g7
I1
sg8
I00
sg9
I5
sg10
(lp211
g92
ag144
asg26
I00
sg27
I00
sg28
I16808523
sg19
S'104679.446773'
p212
sba(igraph
Edge
p213
(dp214
g7
I1
sg8
I00
sg9
I5
sg10
(lp215
g92
ag151
asg26
I00
sg27
I00
sg28
I16808524
sg19
S'104679.457495'
p216
sba(igraph
Edge
p217
(dp218
g7
I1
sg8
I00
sg9
I5
sg10
(lp219
g95
ag151
asg26
I00
sg27
I00
sg28
I16808525
sg19
S'104679.47001'
p220
sba(igraph
Edge
p221
(dp222
g7
I1
sg8
I00
sg9
I5
sg10
(lp223
g95
ag154
asg26
I00
sg27
I00
sg28
I16808526
sg19
S'104679.479749'
p224
sba(igraph
Edge
p225
(dp226
g7
I1
sg8
I00
sg9
I5
sg10
(lp227
g102
ag154
asg26
I00
sg27
I00
sg28
I16808527
sg19
S'104679.490412'
p228
sba(igraph
Edge
p229
(dp230
g7
I1
sg8
I00
sg9
I5
sg10
(lp231
g102
ag161
asg26
I00
sg27
I00
sg28
I16808528
sg19
S'104679.499741'
p232
sba(igraph
Edge
p233
(dp234
g7
I1
sg8
I00
sg9
I5
sg10
(lp235
g113
ag161
asg26
I00
sg27
I00
sg28
I16808529
sg19
S'104679.510233'
p236
sba(igraph
Edge
p237
(dp238
g7
I1
sg8
I00
sg9
I5
sg10
(lp239
g113
ag172
asg26
I00
sg27
I00
sg28
I16808530
sg19
S'104679.520114'
p240
sba(igraph
Edge
p241
(dp242
g7
I1
sg8
I00
sg9
I5
sg10
(lp243
g116
ag172
asg26
I00
sg27
I00
sg28
I16808531
sg19
S'104679.528767'
p244
sba(igraph
Edge
p245
(dp246
g7
I1
sg8
I00
sg9
I5
sg10
(lp247
g116
ag175
asg26
I00
sg27
I00
sg28
I16808532
sg19
S'104679.540058'
p248
sba(igraph
Edge
p249
(dp250
g7
I1
sg8
I00
sg9
I5
sg10
(lp251
g123
ag175
asg26
I00
sg27
I00
sg28
I16808533
sg19
S'104679.549454'
p252
sba(igraph
Edge
p253
(dp254
g7
I1
sg8
I00
sg9
I5
sg10
(lp255
g123
ag182
asg26
I00
sg27
I00
sg28
I16808534
sg19
S'104679.558451'
p256
sba(igraph
Edge
p257
(dp258
g7
I1
sg8
I00
sg9
I5
sg10
(lp259
g130
ag182
asg26
I00
sg27
I00
sg28
I16808535
sg19
S'104679.568539'
p260
sba(igraph
Edge
p261
(dp262
g7
I1
sg8
I00
sg9
I5
sg10
(lp263
g130
ag189
asg26
I00
sg27
I00
sg28
I16808536
sg19
S'104679.577921'
p264
sba(igraph
Edge
p265
(dp266
g7
I1
sg8
I00
sg9
I5
sg10
(lp267
g12
ag82
asg26
I00
sg27
I00
sg28
I16808537
sg19
S'104679.630624'
p268
sba(igraph
Edge
p269
(dp270
g7
I1
sg8
I00
sg9
I5
sg10
(lp271
g22
ag82
asg26
I00
sg27
I00
sg28
I16808538
sg19
S'104679.641061'
p272
sba(igraph
Edge
p273
(dp274
g7
I1
sg8
I00
sg9
I5
sg10
(lp275
g22
ag85
asg26
I00
sg27
I00
sg28
I16808539
sg19
S'104679.655346'
p276
sba(igraph
Edge
p277
(dp278
g7
I1
sg8
I00
sg9
I5
sg10
(lp279
g33
ag85
asg26
I00
sg27
I00
sg28
I16808540
sg19
S'104679.666256'
p280
sba(igraph
Edge
p281
(dp282
g7
I1
sg8
I00
sg9
I5
sg10
(lp283
g33
ag92
asg26
I00
sg27
I00
sg28
I16808541
sg19
S'104679.676764'
p284
sba(igraph
Edge
p285
(dp286
g7
I1
sg8
I00
sg9
I5
sg10
(lp287
g36
ag92
asg26
I00
sg27
I00
sg28
I16808542
sg19
S'104679.686601'
p288
sba(igraph
Edge
p289
(dp290
g7
I1
sg8
I00
sg9
I5
sg10
(lp291
g36
ag95
asg26
I00
sg27
I00
sg28
I16808543
sg19
S'104679.695922'
p292
sba(igraph
Edge
p293
(dp294
g7
I1
sg8
I00
sg9
I5
sg10
(lp295
g43
ag95
asg26
I00
sg27
I00
sg28
I16808544
sg19
S'104679.705635'
p296
sba(igraph
Edge
p297
(dp298
g7
I1
sg8
I00
sg9
I5
sg10
(lp299
g43
ag102
asg26
I00
sg27
I00
sg28
I16808545
sg19
S'104679.715299'
p300
sba(igraph
Edge
p301
(dp302
g7
I1
sg8
I00
sg9
I5
sg10
(lp303
g54
ag102
asg26
I00
sg27
I00
sg28
I16808546
sg19
S'104679.724975'
p304
sba(igraph
Edge
p305
(dp306
g7
I1
sg8
I00
sg9
I5
sg10
(lp307
g54
ag113
asg26
I00
sg27
I00
sg28
I16808547
sg19
S'104679.734529'
p308
sba(igraph
Edge
p309
(dp310
g7
I1
sg8
I00
sg9
I5
sg10
(lp311
g57
ag113
asg26
I00
sg27
I00
sg28
I16808548
sg19
S'104679.744502'
p312
sba(igraph
Edge
p313
(dp314
g7
I1
sg8
I00
sg9
I5
sg10
(lp315
g57
ag116
asg26
I00
sg27
I00
sg28
I16808549
sg19
S'104679.756709'
p316
sba(igraph
Edge
p317
(dp318
g7
I1
sg8
I00
sg9
I5
sg10
(lp319
g64
ag116
asg26
I00
sg27
I00
sg28
I16808550
sg19
S'104679.768332'
p320
sba(igraph
Edge
p321
(dp322
g7
I1
sg8
I00
sg9
I5
sg10
(lp323
g64
ag123
asg26
I00
sg27
I00
sg28
I16808551
sg19
S'104679.78053'
p324
sba(igraph
Edge
p325
(dp326
g7
I1
sg8
I00
sg9
I5
sg10
(lp327
g71
ag123
asg26
I00
sg27
I00
sg28
I16808552
sg19
S'104679.793568'
p328
sba(igraph
Edge
p329
(dp330
g7
I1
sg8
I00
sg9
I5
sg10
(lp331
g71
ag130
asg26
I00
sg27
I00
sg28
I16808553
sg19
S'104679.810421'
p332
sba(igraph
Edge
p333
(dp334
g7
I1
sg8
I00
sg9
I5
sg10
(lp335
(igraph
Vertex
p336
(dp337
g14
F0.24087116186920624
sg8
I00
sg15
g24
sg16
F137.79301740983863
sg17
F-181.31715598650928
sg18
I16808700
sg19
S'104678.257458'
p338
sg21
F0.74408955766340312
sba(igraph
Vertex
p339
(dp340
g14
F0.30286271521963043
sg8
I00
sg15
g24
sg16
F137.79301740983863
sg17
F-138.41900106801575
sg18
I16808701
sg19
S'104678.260153'
p341
sg21
F0.74408955766340312
sbasg26
I00
sg27
I00
sg28
I16808554
sg19
S'104683.290747'
p342
sba(igraph
Edge
p343
(dp344
g7
I1
sg8
I00
sg9
I5
sg10
(lp345
(igraph
Vertex
p346
(dp347
g14
F0.2454461731764615
sg8
I00
sg15
I0
sg16
F164.68144379570924
sg17
F-178.15124816188865
sg18
I16808702
sg19
S'104678.26272'
p348
sg21
F0.8027979122177058
sba(igraph
Vertex
p349
(dp350
g14
F0.30743772652688561
sg8
I00
sg15
g24
sg16
F164.68144379570924
sg17
F-135.25309324339514
sg18
I16808704
sg19
S'104678.265324'
p351
sg21
F0.8027979122177058
sbasg26
I00
sg27
I00
sg28
I16808555
sg19
S'104683.387363'
p352
sba(igraph
Edge
p353
(dp354
g7
I1
sg8
I00
sg9
I5
sg10
(lp355
(igraph
Vertex
p356
(dp357
g14
F0.24706636359648695
sg8
I00
sg15
g24
sg16
F195.67121647766305
sg17
F-177.03007639123103
sg18
I16808705
sg19
S'104678.303786'
p358
sg21
F0.87046117134860923
sba(igraph
Vertex
p359
(dp360
g14
F0.31032789993729026
sg8
I00
sg15
g24
sg16
F195.88630731928242
sg17
F-133.25309324339514
sg18
I16808706
sg19
S'104678.306541'
p361
sg21
F0.87093080200716688
sbasg26
I00
sg27
I00
sg28
I16808556
sg19
S'104683.410183'
p362
sba(igraph
Edge
p363
(dp364
g7
I1
sg8
I00
sg9
I5
sg10
(lp365
g346
ag356
asg26
I00
sg27
I00
sg28
I16808557
sg19
S'104683.430677'
p366
sba(igraph
Edge
p367
(dp368
g7
I1
sg8
I00
sg9
I5
sg10
(lp369
g349
ag356
asg26
I00
sg27
I00
sg28
I16808558
sg19
S'104683.451304'
p370
sba(igraph
Edge
p371
(dp372
g7
I1
sg8
I00
sg9
I5
sg10
(lp373
g349
ag359
asg26
I00
sg27
I00
sg28
I16808559
sg19
S'104683.470337'
p374
sba(igraph
Edge
p375
(dp376
g7
I1
sg8
I00
sg9
I5
sg10
(lp377
g336
ag346
asg26
I00
sg27
I00
sg28
I16808560
sg19
S'104683.491348'
p378
sba(igraph
Edge
p379
(dp380
g7
I1
sg8
I00
sg9
I5
sg10
(lp381
g339
ag346
asg26
I00
sg27
I00
sg28
I16808561
sg19
S'104683.512087'
p382
sba(igraph
Edge
p383
(dp384
g7
I1
sg8
I00
sg9
I5
sg10
(lp385
g339
ag349
asg26
I00
sg27
I00
sg28
I16808562
sg19
S'104683.532626'
p386
sba(igraph
Edge
p387
(dp388
g7
I1
sg8
I00
sg9
I5
sg10
(lp389
g141
ag359
asg26
I00
sg27
I00
sg28
I16808563
sg19
S'104684.228739'
p390
sba(igraph
Edge
p391
(dp392
g7
I1
sg8
I00
sg9
I5
sg10
(lp393
g359
ag82
asg26
I00
sg27
I00
sg28
I16808564
sg19
S'104684.262657'
p394
sba(igraph
Edge
p395
(dp396
g7
I1
sg8
I00
sg9
I5
sg10
(lp397
g82
ag349
asg26
I00
sg27
I00
sg28
I16808565
sg19
S'104684.320353'
p398
sba(igraph
Edge
p399
(dp400
g7
I1
sg8
I00
sg9
I5
sg10
(lp401
g349
ag12
asg26
I00
sg27
I00
sg28
I16808566
sg19
S'104684.346351'
p402
sba(igraph
Edge
p403
(dp404
g7
I1
sg8
I00
sg9
I5
sg10
(lp405
g12
ag339
asg26
I00
sg27
I00
sg28
I16808567
sg19
S'104684.387906'
p406
sba(igraph
Edge
p407
(dp408
g7
I1
sg8
I00
sg9
I5
sg10
(lp409
g336
ag356
asg26
I00
sg27
I00
sg28
I16808568
sg19
S'169196.516815'
p410
sba(igraph
Edge
p411
(dp412
g7
I1
sg8
I00
sg9
I5
sg10
(lp413
g336
ag359
asg26
I00
sg27
I00
sg28
I16808569
sg19
S'169199.129004'
p414
sba(igraph
Edge
p415
(dp416
g7
I1
sg8
I00
sg9
I5
sg10
(lp417
g359
ag339
asg26
I00
sg27
I00
sg28
I16808570
sg19
S'169201.160024'
p418
sba(igraph
Edge
p419
(dp420
g7
I1
sg8
I00
sg9
I5
sg10
(lp421
g339
ag141
asg26
I00
sg27
I00
sg28
I16808571
sg19
S'169203.404693'
p422
sba(igraph
Edge
p423
(dp424
g7
I1
sg8
I00
sg9
I5
sg10
(lp425
g141
ag12
asg26
I00
sg27
I00
sg28
I16808572
sg19
S'169205.050724'
p426
sba(igraph
Edge
p427
(dp428
g7
I1
sg8
I00
sg9
I5
sg10
(lp429
g12
ag144
asg26
I00
sg27
I00
sg28
I16808573
sg19
S'169206.876842'
p430
sba(igraph
Edge
p431
(dp432
g7
I1
sg8
I00
sg9
I5
sg10
(lp433
g144
ag22
asg26
I00
sg27
I00
sg28
I16808574
sg19
S'169209.509947'
p434
sba(igraph
Edge
p435
(dp436
g7
I1
sg8
I00
sg9
I5
sg10
(lp437
g22
ag151
asg26
I00
sg27
I00
sg28
I16808575
sg19
S'169211.713801'
p438
sba(igraph
Edge
p439
(dp440
g7
I1
sg8
I00
sg9
I5
sg10
(lp441
g151
ag33
asg26
I00
sg27
I00
sg28
I16808576
sg19
S'169213.358216'
p442
sba(igraph
Edge
p443
(dp444
g7
I1
sg8
I00
sg9
I5
sg10
(lp445
g33
ag154
asg26
I00
sg27
I00
sg28
I16808577
sg19
S'169216.107716'
p446
sba(igraph
Edge
p447
(dp448
g7
I1
sg8
I00
sg9
I5
sg10
(lp449
g154
ag36
asg26
I00
sg27
I00
sg28
I16808578
sg19
S'169217.607987'
p450
sba(igraph
Edge
p451
(dp452
g7
I1
sg8
I00
sg9
I5
sg10
(lp453
g36
ag161
asg26
I00
sg27
I00
sg28
I16808579
sg19
S'169219.66264'
p454
sba(igraph
Edge
p455
(dp456
g7
I1
sg8
I00
sg9
I5
sg10
(lp457
g161
ag43
asg26
I00
sg27
I00
sg28
I16808580
sg19
S'169222.086081'
p458
sba(igraph
Edge
p459
(dp460
g7
I1
sg8
I00
sg9
I5
sg10
(lp461
g43
ag172
asg26
I00
sg27
I00
sg28
I16808581
sg19
S'169224.060828'
p462
sba(igraph
Edge
p463
(dp464
g7
I1
sg8
I00
sg9
I5
sg10
(lp465
g172
ag54
asg26
I00
sg27
I00
sg28
I16808582
sg19
S'169225.648563'
p466
sba(igraph
Edge
p467
(dp468
g7
I1
sg8
I00
sg9
I5
sg10
(lp469
g54
ag175
asg26
I00
sg27
I00
sg28
I16808583
sg19
S'169227.951875'
p470
sba(igraph
Edge
p471
(dp472
g7
I1
sg8
I00
sg9
I5
sg10
(lp473
g175
ag57
asg26
I00
sg27
I00
sg28
I16808584
sg19
S'169229.528879'
p474
sba(igraph
Edge
p475
(dp476
g7
I1
sg8
I00
sg9
I5
sg10
(lp477
g57
ag182
asg26
I00
sg27
I00
sg28
I16808585
sg19
S'169231.602839'
p478
sba(igraph
Edge
p479
(dp480
g7
I1
sg8
I00
sg9
I5
sg10
(lp481
g182
ag64
asg26
I00
sg27
I00
sg28
I16808586
sg19
S'169233.622845'
p482
sba(igraph
Edge
p483
(dp484
g7
I1
sg8
I00
sg9
I5
sg10
(lp485
g64
ag189
asg26
I00
sg27
I00
sg28
I16808587
sg19
S'169235.571287'
p486
sba(igraph
Edge
p487
(dp488
g7
I1
sg8
I00
sg9
I5
sg10
(lp489
g189
ag71
asg26
I00
sg27
I00
sg28
I16808588
sg19
S'169237.039936'
p490
sba(igraph
Edge
p491
(dp492
g7
I1
sg8
I00
sg9
I5
sg10
(lp493
(igraph
Vertex
p494
(dp495
g16
F139.0123843085494
sg17
F-489.8523325070264
sg18
I16808708
sg8
I00
sg19
S'169669.983166'
p496
sg15
g24
sba(igraph
Vertex
p497
(dp498
g16
F139.0123843085494
sg17
F-446.95417758853296
sg18
I16808709
sg8
I00
sg19
S'169669.983738'
p499
sg15
g24
sbasg26
I00
sg27
I00
sg28
I16808589
sg19
S'169670.002926'
p500
sba(igraph
Edge
p501
(dp502
g7
I1
sg8
I00
sg9
I5
sg10
(lp503
g497
a(igraph
Vertex
p504
(dp505
g16
F139.0123843085494
sg17
F-404.05602267003934
sg18
I16808710
sg8
I00
sg19
S'169669.984328'
p506
sg15
g24
sbasg26
I00
sg27
I00
sg28
I16808590
sg19
S'169670.007452'
p507
sba(igraph
Edge
p508
(dp509
g7
I1
sg8
I00
sg9
I5
sg10
(lp510
(igraph
Vertex
p511
(dp512
g16
F139.05683867607169
sg17
F-536.14549477796527
sg18
I16808707
sg8
I00
sg19
S'169669.982594'
p513
sg15
g24
sbag494
asg26
I00
sg27
I00
sg28
I16808591
sg19
S'169670.01191'
p514
sba(igraph
Edge
p515
(dp516
g7
I1
sg8
I00
sg9
I5
sg10
(lp517
(igraph
Vertex
p518
(dp519
g16
F138.89432578200675
sg17
F-359.10988515458126
sg18
I16808711
sg8
I00
sg19
S'169669.984933'
p520
sg15
I0
sba(igraph
Vertex
p521
(dp522
g16
F138.89432578200675
sg17
F-316.2117302360877
sg18
I16808713
sg8
I00
sg19
S'169669.985557'
p523
sg15
g24
sbasg26
I00
sg27
I00
sg28
I16808592
sg19
S'169670.016637'
p524
sba(igraph
Edge
p525
(dp526
g7
I1
sg8
I00
sg9
I5
sg10
(lp527
g521
a(igraph
Vertex
p528
(dp529
g16
F138.89432578200675
sg17
F-273.31357531759426
sg18
I16808714
sg8
I00
sg19
S'169669.986203'
p530
sg15
g24
sbasg26
I00
sg27
I00
sg28
I16808593
sg19
S'169670.021149'
p531
sba(igraph
Edge
p532
(dp533
g7
I1
sg8
I00
sg9
I5
sg10
(lp534
g528
a(igraph
Vertex
p535
(dp536
g16
F138.84987141448457
sg17
F-227.02041304665539
sg18
I16808715
sg8
I00
sg19
S'169669.986859'
p537
sg15
g24
sbasg26
I00
sg27
I00
sg28
I16808594
sg19
S'169670.025761'
p538
sba(igraph
Edge
p539
(dp540
g7
I1
sg8
I00
sg9
I5
sg10
(lp541
g504
ag518
asg26
I00
sg27
I00
sg28
I16808595
sg19
S'169670.03043'
p542
sba(igraph
Edge
p543
(dp544
g7
I1
sg8
I00
sg9
I5
sg10
(lp545
(igraph
Vertex
p546
(dp547
g16
F165.90081069442002
sg17
F-486.68642468240591
sg18
I16808717
sg8
I00
sg19
S'169669.98822'
p548
sg15
g24
sba(igraph
Vertex
p549
(dp550
g16
F165.90081069442002
sg17
F-443.78826976391224
sg18
I16808718
sg8
I00
sg19
S'169669.988978'
p551
sg15
I0
sbasg26
I00
sg27
I00
sg28
I16808596
sg19
S'169670.035193'
p552
sba(igraph
Edge
p553
(dp554
g7
I1
sg8
I00
sg9
I5
sg10
(lp555
g549
a(igraph
Vertex
p556
(dp557
g16
F165.90081069442002
sg17
F-400.89011484541874
sg18
I16808720
sg8
I00
sg19
S'169669.989701'
p558
sg15
g24
sbasg26
I00
sg27
I00
sg28
I16808597
sg19
S'169670.040155'
p559
sba(igraph
Edge
p560
(dp561
g7
I1
sg8
I00
sg9
I5
sg10
(lp562
(igraph
Vertex
p563
(dp564
g16
F165.94526506194225
sg17
F-532.97958695334455
sg18
I16808716
sg8
I00
sg19
S'169669.987533'
p565
sg15
g24
sbag546
asg26
I00
sg27
I00
sg28
I16808598
sg19
S'169670.045091'
p566
sba(igraph
Edge
p567
(dp568
g7
I1
sg8
I00
sg9
I5
sg10
(lp569
(igraph
Vertex
p570
(dp571
g16
F165.78275216787742
sg17
F-355.94397732996066
sg18
I16808721
sg8
I00
sg19
S'169669.990439'
p572
sg15
g24
sba(igraph
Vertex
p573
(dp574
g16
F165.78275216787742
sg17
F-313.0458224114671
sg18
I16808722
sg8
I00
sg19
S'169669.991191'
p575
sg15
g24
sbasg26
I00
sg27
I00
sg28
I16808599
sg19
S'169670.049888'
p576
sba(igraph
Edge
p577
(dp578
g7
I1
sg8
I00
sg9
I5
sg10
(lp579
g573
a(igraph
Vertex
p580
(dp581
g16
F165.78275216787742
sg17
F-270.14766749297365
sg18
I16808723
sg8
I00
sg19
S'169669.991971'
p582
sg15
g24
sbasg26
I00
sg27
I00
sg28
I16808600
sg19
S'169670.054689'
p583
sba(igraph
Edge
p584
(dp585
g7
I1
sg8
I00
sg9
I5
sg10
(lp586
g580
a(igraph
Vertex
p587
(dp588
g16
F165.73829780035518
sg17
F-223.85450522203479
sg18
I16808724
sg8
I00
sg19
S'169669.992757'
p589
sg15
g24
sbasg26
I00
sg27
I00
sg28
I16808601
sg19
S'169670.059532'
p590
sba(igraph
Edge
p591
(dp592
g7
I1
sg8
I00
sg9
I5
sg10
(lp593
g556
ag570
asg26
I00
sg27
I00
sg28
I16808602
sg19
S'169670.064551'
p594
sba(igraph
Edge
p595
(dp596
g7
I1
sg8
I00
sg9
I5
sg10
(lp597
(igraph
Vertex
p598
(dp599
g16
F197.1056742179932
sg17
F-484.68642468240591
sg18
I16808727
sg8
I00
sg19
S'169669.994385'
p600
sg15
g24
sba(igraph
Vertex
p601
(dp602
g16
F197.1056742179932
sg17
F-441.78826976391224
sg18
I16808728
sg8
I00
sg19
S'169669.995224'
p603
sg15
g24
sbasg26
I00
sg27
I00
sg28
I16808603
sg19
S'169670.069526'
p604
sba(igraph
Edge
p605
(dp606
g7
I1
sg8
I00
sg9
I5
sg10
(lp607
g601
a(igraph
Vertex
p608
(dp609
g16
F197.1056742179932
sg17
F-398.89011484541874
sg18
I16808729
sg8
I00
sg19
S'169669.996084'
p610
sg15
g24
sbasg26
I00
sg27
I00
sg28
I16808604
sg19
S'169670.073569'
p611
sba(igraph
Edge
p612
(dp613
g7
I1
sg8
I00
sg9
I5
sg10
(lp614
(igraph
Vertex
p615
(dp616
g16
F197.15012858551543
sg17
F-530.97958695334455
sg18
I16808725
sg8
I00
sg19
S'169669.99356'
p617
sg15
I0
sbag598
asg26
I00
sg27
I00
sg28
I16808605
sg19
S'169670.075888'
p618
sba(igraph
Edge
p619
(dp620
g7
I1
sg8
I00
sg9
I5
sg10
(lp621
(igraph
Vertex
p622
(dp623
g16
F196.98761569145066
sg17
F-353.94397732996066
sg18
I16808730
sg8
I00
sg19
S'169669.996956'
p624
sg15
g24
sba(igraph
Vertex
p625
(dp626
g16
F196.98761569145066
sg17
F-311.0458224114671
sg18
I16808731
sg8
I00
sg19
S'169669.997846'
p627
sg15
g24
sbasg26
I00
sg27
I00
sg28
I16808606
sg19
S'169670.078239'
p628
sba(igraph
Edge
p629
(dp630
g7
I1
sg8
I00
sg9
I5
sg10
(lp631
g625
a(igraph
Vertex
p632
(dp633
g16
F196.98761569145066
sg17
F-268.14766749297365
sg18
I16808732
sg8
I00
sg19
S'169669.998762'
p634
sg15
I0
sbasg26
I00
sg27
I00
sg28
I16808607
sg19
S'169670.080629'
p635
sba(igraph
Edge
p636
(dp637
g7
I1
sg8
I00
sg9
I5
sg10
(lp638
g632
a(igraph
Vertex
p639
(dp640
g16
F196.94316132392842
sg17
F-221.85450522203479
sg18
I16808734
sg8
I00
sg19
S'169669.999683'
p641
sg15
g24
sbasg26
I00
sg27
I00
sg28
I16808608
sg19
S'169670.083034'
p642
sba(igraph
Edge
p643
(dp644
g7
I1
sg8
I00
sg9
I5
sg10
(lp645
g608
ag622
asg26
I00
sg27
I00
sg28
I16808609
sg19
S'169670.085442'
p646
sba(igraph
Edge
p647
(dp648
g7
I1
sg8
I00
sg9
I5
sg10
(lp649
g563
ag615
asg26
I00
sg27
I00
sg28
I16808610
sg19
S'169670.087966'
p650
sba(igraph
Edge
p651
(dp652
g7
I1
sg8
I00
sg9
I5
sg10
(lp653
g546
ag615
asg26
I00
sg27
I00
sg28
I16808611
sg19
S'169670.090437'
p654
sba(igraph
Edge
p655
(dp656
g7
I1
sg8
I00
sg9
I5
sg10
(lp657
g546
ag598
asg26
I00
sg27
I00
sg28
I16808612
sg19
S'169670.092975'
p658
sba(igraph
Edge
p659
(dp660
g7
I1
sg8
I00
sg9
I5
sg10
(lp661
g549
ag598
asg26
I00
sg27
I00
sg28
I16808613
sg19
S'169670.095613'
p662
sba(igraph
Edge
p663
(dp664
g7
I1
sg8
I00
sg9
I5
sg10
(lp665
g549
ag601
asg26
I00
sg27
I00
sg28
I16808614
sg19
S'169670.098131'
p666
sba(igraph
Edge
p667
(dp668
g7
I1
sg8
I00
sg9
I5
sg10
(lp669
g556
ag601
asg26
I00
sg27
I00
sg28
I16808615
sg19
S'169670.100664'
p670
sba(igraph
Edge
p671
(dp672
g7
I1
sg8
I00
sg9
I5
sg10
(lp673
g556
ag608
asg26
I00
sg27
I00
sg28
I16808616
sg19
S'169670.103222'
p674
sba(igraph
Edge
p675
(dp676
g7
I1
sg8
I00
sg9
I5
sg10
(lp677
g570
ag608
asg26
I00
sg27
I00
sg28
I16808617
sg19
S'169670.105805'
p678
sba(igraph
Edge
p679
(dp680
g7
I1
sg8
I00
sg9
I5
sg10
(lp681
g570
ag622
asg26
I00
sg27
I00
sg28
I16808618
sg19
S'169670.108427'
p682
sba(igraph
Edge
p683
(dp684
g7
I1
sg8
I00
sg9
I5
sg10
(lp685
g573
ag622
asg26
I00
sg27
I00
sg28
I16808619
sg19
S'169670.111081'
p686
sba(igraph
Edge
p687
(dp688
g7
I1
sg8
I00
sg9
I5
sg10
(lp689
g573
ag625
asg26
I00
sg27
I00
sg28
I16808620
sg19
S'169670.113802'
p690
sba(igraph
Edge
p691
(dp692
g7
I1
sg8
I00
sg9
I5
sg10
(lp693
g580
ag625
asg26
I00
sg27
I00
sg28
I16808621
sg19
S'169670.11652'
p694
sba(igraph
Edge
p695
(dp696
g7
I1
sg8
I00
sg9
I5
sg10
(lp697
g580
ag632
asg26
I00
sg27
I00
sg28
I16808622
sg19
S'169670.119245'
p698
sba(igraph
Edge
p699
(dp700
g7
I1
sg8
I00
sg9
I5
sg10
(lp701
g587
ag632
asg26
I00
sg27
I00
sg28
I16808623
sg19
S'169670.122024'
p702
sba(igraph
Edge
p703
(dp704
g7
I1
sg8
I00
sg9
I5
sg10
(lp705
g587
ag639
asg26
I00
sg27
I00
sg28
I16808624
sg19
S'169670.124807'
p706
sba(igraph
Edge
p707
(dp708
g7
I1
sg8
I00
sg9
I5
sg10
(lp709
g511
ag563
asg26
I00
sg27
I00
sg28
I16808625
sg19
S'169670.127601'
p710
sba(igraph
Edge
p711
(dp712
g7
I1
sg8
I00
sg9
I5
sg10
(lp713
g494
ag563
asg26
I00
sg27
I00
sg28
I16808626
sg19
S'169670.130446'
p714
sba(igraph
Edge
p715
(dp716
g7
I1
sg8
I00
sg9
I5
sg10
(lp717
g494
ag546
asg26
I00
sg27
I00
sg28
I16808627
sg19
S'169670.133299'
p718
sba(igraph
Edge
p719
(dp720
g7
I1
sg8
I00
sg9
I5
sg10
(lp721
g497
ag546
asg26
I00
sg27
I00
sg28
I16808628
sg19
S'169670.137604'
p722
sba(igraph
Edge
p723
(dp724
g7
I1
sg8
I00
sg9
I5
sg10
(lp725
g497
ag549
asg26
I00
sg27
I00
sg28
I16808629
sg19
S'169670.141652'
p726
sba(igraph
Edge
p727
(dp728
g7
I1
sg8
I00
sg9
I5
sg10
(lp729
g504
ag549
asg26
I00
sg27
I00
sg28
I16808630
sg19
S'169670.144858'
p730
sba(igraph
Edge
p731
(dp732
g7
I1
sg8
I00
sg9
I5
sg10
(lp733
g504
ag556
asg26
I00
sg27
I00
sg28
I16808631
sg19
S'169670.147978'
p734
sba(igraph
Edge
p735
(dp736
g7
I1
sg8
I00
sg9
I5
sg10
(lp737
g518
ag556
asg26
I00
sg27
I00
sg28
I16808632
sg19
S'169670.151185'
p738
sba(igraph
Edge
p739
(dp740
g7
I1
sg8
I00
sg9
I5
sg10
(lp741
g518
ag570
asg26
I00
sg27
I00
sg28
I16808633
sg19
S'169670.154375'
p742
sba(igraph
Edge
p743
(dp744
g7
I1
sg8
I00
sg9
I5
sg10
(lp745
g521
ag570
asg26
I00
sg27
I00
sg28
I16808634
sg19
S'169670.157368'
p746
sba(igraph
Edge
p747
(dp748
g7
I1
sg8
I00
sg9
I5
sg10
(lp749
g521
ag573
asg26
I00
sg27
I00
sg28
I16808635
sg19
S'169670.160477'
p750
sba(igraph
Edge
p751
(dp752
g7
I1
sg8
I00
sg9
I5
sg10
(lp753
g528
ag573
asg26
I00
sg27
I00
sg28
I16808636
sg19
S'169670.163524'
p754
sba(igraph
Edge
p755
(dp756
g7
I1
sg8
I00
sg9
I5
sg10
(lp757
g528
ag580
asg26
I00
sg27
I00
sg28
I16808637
sg19
S'169670.166528'
p758
sba(igraph
Edge
p759
(dp760
g7
I1
sg8
I00
sg9
I5
sg10
(lp761
g535
ag580
asg26
I00
sg27
I00
sg28
I16808638
sg19
S'169670.16955'
p762
sba(igraph
Edge
p763
(dp764
g7
I1
sg8
I00
sg9
I5
sg10
(lp765
g535
ag587
asg26
I00
sg27
I00
sg28
I16808639
sg19
S'169670.172794'
p766
sba(igraph
Edge
p767
(dp768
g7
I1
sg8
I00
sg9
I5
sg10
(lp769
g615
ag511
asg26
I00
sg27
I00
sg28
I16808640
sg19
S'169670.175844'
p770
sba(igraph
Edge
p771
(dp772
g7
I1
sg8
I00
sg9
I5
sg10
(lp773
g511
ag598
asg26
I00
sg27
I00
sg28
I16808641
sg19
S'169670.178921'
p774
sba(igraph
Edge
p775
(dp776
g7
I1
sg8
I00
sg9
I5
sg10
(lp777
g598
ag494
asg26
I00
sg27
I00
sg28
I16808642
sg19
S'169670.182075'
p778
sba(igraph
Edge
p779
(dp780
g7
I1
sg8
I00
sg9
I5
sg10
(lp781
g494
ag601
asg26
I00
sg27
I00
sg28
I16808643
sg19
S'169670.185265'
p782
sba(igraph
Edge
p783
(dp784
g7
I1
sg8
I00
sg9
I5
sg10
(lp785
g601
ag497
asg26
I00
sg27
I00
sg28
I16808644
sg19
S'169670.188444'
p786
sba(igraph
Edge
p787
(dp788
g7
I1
sg8
I00
sg9
I5
sg10
(lp789
g497
ag608
asg26
I00
sg27
I00
sg28
I16808645
sg19
S'169670.191646'
p790
sba(igraph
Edge
p791
(dp792
g7
I1
sg8
I00
sg9
I5
sg10
(lp793
g608
ag504
asg26
I00
sg27
I00
sg28
I16808646
sg19
S'169670.194863'
p794
sba(igraph
Edge
p795
(dp796
g7
I1
sg8
I00
sg9
I5
sg10
(lp797
g504
ag622
asg26
I00
sg27
I00
sg28
I16808647
sg19
S'169670.1982'
p798
sba(igraph
Edge
p799
(dp800
g7
I1
sg8
I00
sg9
I5
sg10
(lp801
g622
ag518
asg26
I00
sg27
I00
sg28
I16808648
sg19
S'169670.201467'
p802
sba(igraph
Edge
p803
(dp804
g7
I1
sg8
I00
sg9
I5
sg10
(lp805
g518
ag625
asg26
I00
sg27
I00
sg28
I16808649
sg19
S'169670.204789'
p806
sba(igraph
Edge
p807
(dp808
g7
I1
sg8
I00
sg9
I5
sg10
(lp809
g625
ag521
asg26
I00
sg27
I00
sg28
I16808650
sg19
S'169670.208162'
p810
sba(igraph
Edge
p811
(dp812
g7
I1
sg8
I00
sg9
I5
sg10
(lp813
g521
ag632
asg26
I00
sg27
I00
sg28
I16808651
sg19
S'169670.211553'
p814
sba(igraph
Edge
p815
(dp816
g7
I1
sg8
I00
sg9
I5
sg10
(lp817
g632
ag528
asg26
I00
sg27
I00
sg28
I16808652
sg19
S'169670.214969'
p818
sba(igraph
Edge
p819
(dp820
g7
I1
sg8
I00
sg9
I5
sg10
(lp821
g528
ag639
asg26
I00
sg27
I00
sg28
I16808653
sg19
S'169670.218387'
p822
sba(igraph
Edge
p823
(dp824
g7
I1
sg8
I00
sg9
I5
sg10
(lp825
g639
ag535
asg26
I00
sg27
I00
sg28
I16808654
sg19
S'169670.221839'
p826
sba(igraph
Edge
p827
(dp828
g7
I1
sg8
I00
sg9
I5
sg10
(lp829
g639
ag356
asg26
I00
sg27
I00
sg28
I16808655
sg19
S'169677.246391'
p830
sba(igraph
Edge
p831
(dp832
g7
I1
sg8
I00
sg9
I5
sg10
(lp833
g535
ag336
asg26
I00
sg27
I00
sg28
I16808656
sg19
S'169683.080959'
p834
sba(igraph
Edge
p835
(dp836
g7
I1
sg8
I00
sg9
I5
sg10
(lp837
g535
ag356
asg26
I00
sg27
I00
sg28
I16808657
sg19
S'169691.426441'
p838
sba(igraph
Edge
p839
(dp840
g7
I1
sg8
I00
sg9
I5
sg10
(lp841
g587
ag346
asg26
I00
sg27
I00
sg28
I16808658
sg19
S'169701.684512'
p842
sba(igraph
Edge
p843
(dp844
g7
I1
sg8
I00
sg9
I5
sg10
(lp845
g639
ag346
asg26
I00
sg27
I00
sg28
I16808659
sg19
S'169705.210048'
p846
sba(igraph
Edge
p847
(dp848
g7
I1
sg8
I00
sg9
I5
sg10
(lp849
g587
ag336
asg26
I00
sg27
I00
sg28
I16808660
sg19
S'169707.942622'
p850
sba(igraph
Edge
p851
(dp852
g7
I1
sg8
I00
sg9
I5
sg10
(lp853
g511
ag71
asg26
I00
sg27
I00
sg28
I16808661
sg19
S'169715.028362'
p854
sba(igraph
Edge
p855
(dp856
g7
I1
sg8
I00
sg9
I5
sg10
(lp857
g563
ag130
asg26
I00
sg27
I00
sg28
I16808662
sg19
S'169721.092071'
p858
sba(igraph
Edge
p859
(dp860
g7
I1
sg8
I00
sg9
I5
sg10
(lp861
g615
ag189
asg26
I00
sg27
I00
sg28
I16808663
sg19
S'169725.835582'
p862
sba(igraph
Edge
p863
(dp864
g7
I1
sg8
I00
sg9
I5
sg10
(lp865
g563
ag189
asg26
I00
sg27
I00
sg28
I16808664
sg19
S'169737.394645'
p866
sba(igraph
Edge
p867
(dp868
g7
I1
sg8
I00
sg9
I5
sg10
(lp869
g511
ag130
asg26
I00
sg27
I00
sg28
I16808665
sg19
S'169746.012922'
p870
sba(igraph
Edge
p871
(dp872
g7
I1
sg8
I00
sg9
I5
sg10
(lp873
g71
ag615
asg26
I00
sg27
I00
sg28
I16808666
sg19
S'169750.351175'
p874
sbasS'vertices'
p875
(lp876
g12
ag22
ag33
ag36
ag43
ag54
ag57
ag64
ag71
ag82
ag85
ag92
ag95
ag102
ag113
ag116
ag123
ag130
ag141
ag144
ag151
ag154
ag161
ag172
ag175
ag182
ag189
ag336
ag339
ag346
ag349
ag356
ag359
ag511
ag494
ag497
ag504
ag518
ag521
ag528
ag535
ag563
ag546
ag549
ag556
ag570
ag573
ag580
ag587
ag615
ag598
ag601
ag608
ag622
ag625
ag632
ag639
asS'tags'
p877
(lp878
sb.