(igraph
Graph
p0
(dp1
S'labelingConstraints'
p2
I-1
sS'edges'
p3
(lp4
(igraph
Edge
p5
(dp6
S'direction'
p7
I1
sS'selected'
p8
I00
sS'height'
p9
I5
sS'vs'
p10
(lp11
(igraph
Vertex
p12
(dp13
S'xnorm'
p14
F0.35117160361572236
sg8
I00
sS'label'
p15
I0
sS'y'
p16
F138.58664695299871
sS'x'
p17
F-104.98925029792011
sS'circle'
p18
I16814552
sS'id'
p19
S'104678.043593'
p20
sS'ynorm'
p21
F0.74582237325982248
sba(igraph
Vertex
p22
(dp23
g14
F0.41316315696614647
sg8
I00
sg15
S'NULL'
p24
sg16
F138.58664695299871
sg17
F-62.091095379426633
sg18
I16814554
sg19
S'104678.044477'
p25
sg21
F0.74582237325982248
sbasS'wrap'
p26
I00
sS'curved'
p27
I00
sS'line'
p28
I16814390
sg19
S'104678.919682'
p29
sba(igraph
Edge
p30
(dp31
g7
I1
sg8
I00
sg9
I5
sg10
(lp32
(igraph
Vertex
p33
(dp34
g14
F0.48006079030565335
sg8
I00
sg15
g24
sg16
F138.54219258547641
sg17
F-15.797933108487882
sg18
I16814555
sg19
S'104678.045362'
p35
sg21
F0.74572531132200093
sba(igraph
Vertex
p36
(dp37
g14
F0.54205234365607757
sg8
I00
sg15
g24
sg16
F138.54219258547641
sg17
F27.100221810005678
sg18
I16814556
sg19
S'104678.046269'
p38
sg21
F0.74572531132200093
sbasg26
I00
sg27
I00
sg28
I16814391
sg19
S'104678.934627'
p39
sba(igraph
Edge
p40
(dp41
g7
I1
sg8
I00
sg9
I5
sg10
(lp42
g36
a(igraph
Vertex
p43
(dp44
g14
F0.60404389700650174
sg8
I00
sg15
g24
sg16
F138.54219258547641
sg17
F69.998376728499238
sg18
I16814557
sg19
S'104678.047187'
p45
sg21
F0.74572531132200093
sbasg26
I00
sg27
I00
sg28
I16814392
sg19
S'104678.943247'
p46
sba(igraph
Edge
p47
(dp48
g7
I1
sg8
I00
sg9
I5
sg10
(lp49
g22
ag33
asg26
I00
sg27
I00
sg28
I16814393
sg19
S'104678.951476'
p50
sba(igraph
Edge
p51
(dp52
g7
I1
sg8
I00
sg9
I5
sg10
(lp53
(igraph
Vertex
p54
(dp55
g14
F0.66899496278028514
sg8
I00
sg15
g24
sg16
F138.42413405893376
sg17
F114.94451424395731
sg18
I16814558
sg19
S'104678.048114'
p56
sg21
F0.74546754161339246
sba(igraph
Vertex
p57
(dp58
g14
F0.73098651613070931
sg8
I00
sg15
I0
sg16
F138.42413405893376
sg17
F157.84266916245087
sg18
I16814559
sg19
S'104678.049055'
p59
sg21
F0.74546754161339246
sbasg26
I00
sg27
I00
sg28
I16814394
sg19
S'104678.95876'
p60
sba(igraph
Edge
p61
(dp62
g7
I1
sg8
I00
sg9
I5
sg10
(lp63
g57
a(igraph
Vertex
p64
(dp65
g14
F0.79297806948113336
sg8
I00
sg15
g24
sg16
F138.42413405893376
sg17
F200.74082408094432
sg18
I16814561
sg19
S'104678.050043'
p66
sg21
F0.74546754161339246
sbasg26
I00
sg27
I00
sg28
I16814395
sg19
S'104678.966368'
p67
sba(igraph
Edge
p68
(dp69
g7
I1
sg8
I00
sg9
I5
sg10
(lp70
g43
ag54
asg26
I00
sg27
I00
sg28
I16814396
sg19
S'104678.979468'
p71
sba(igraph
Edge
p72
(dp73
g7
I1
sg8
I00
sg9
I5
sg10
(lp74
(igraph
Vertex
p75
(dp76
g14
F0.3557466149229776
sg8
I00
sg15
g24
sg16
F165.47507333886927
sg17
F-101.8233424732995
sg18
I16814562
sg19
S'104678.061574'
p77
sg21
F0.80453072781412505
sba(igraph
Vertex
p78
(dp79
g14
F0.41773816827340171
sg8
I00
sg15
g24
sg16
F165.47507333886927
sg17
F-58.92518755480603
sg18
I16814563
sg19
S'104678.062804'
p80
sg21
F0.80453072781412505
sbasg26
I00
sg27
I00
sg28
I16814397
sg19
S'104679.269866'
p81
sba(igraph
Edge
p82
(dp83
g7
I1
sg8
I00
sg9
I5
sg10
(lp84
(igraph
Vertex
p85
(dp86
g14
F0.48463580161290853
sg8
I00
sg15
g24
sg16
F165.43061897134703
sg17
F-12.632025283867279
sg18
I16814564
sg19
S'104678.063976'
p87
sg21
F0.80443366587630361
sba(igraph
Vertex
p88
(dp89
g14
F0.54662735496333281
sg8
I00
sg15
g24
sg16
F165.43061897134703
sg17
F30.266129634626282
sg18
I16814565
sg19
S'104678.065397'
p90
sg21
F0.80443366587630361
sbasg26
I00
sg27
I00
sg28
I16814398
sg19
S'104679.277188'
p91
sba(igraph
Edge
p92
(dp93
g7
I1
sg8
I00
sg9
I5
sg10
(lp94
g88
a(igraph
Vertex
p95
(dp96
g14
F0.60861890831375698
sg8
I00
sg15
I0
sg16
F165.43061897134703
sg17
F73.164284553119842
sg18
I16814566
sg19
S'104678.066591'
p97
sg21
F0.80443366587630361
sbasg26
I00
sg27
I00
sg28
I16814399
sg19
S'104679.285104'
p98
sba(igraph
Edge
p99
(dp100
g7
I1
sg8
I00
sg9
I5
sg10
(lp101
g78
ag85
asg26
I00
sg27
I00
sg28
I16814400
sg19
S'104679.293359'
p102
sba(igraph
Edge
p103
(dp104
g7
I1
sg8
I00
sg9
I5
sg10
(lp105
(igraph
Vertex
p106
(dp107
g14
F0.67356997408754038
sg8
I00
sg15
g24
sg16
F165.31256044480443
sg17
F118.11042206857792
sg18
I16814568
sg19
S'104678.067761'
p108
sg21
F0.80417589616769525
sba(igraph
Vertex
p109
(dp110
g14
F0.73556152743796455
sg8
I00
sg15
g24
sg16
F165.31256044480443
sg17
F161.00857698707148
sg18
I16814569
sg19
S'104678.068967'
p111
sg21
F0.80417589616769525
sbasg26
I00
sg27
I00
sg28
I16814401
sg19
S'104679.302952'
p112
sba(igraph
Edge
p113
(dp114
g7
I1
sg8
I00
sg9
I5
sg10
(lp115
g109
a(igraph
Vertex
p116
(dp117
g14
F0.7975530807883886
sg8
I00
sg15
g24
sg16
F165.31256044480443
sg17
F203.90673190556493
sg18
I16814570
sg19
S'104678.070147'
p118
sg21
F0.80417589616769525
sbasg26
I00
sg27
I00
sg28
I16814402
sg19
S'104679.311752'
p119
sba(igraph
Edge
p120
(dp121
g7
I1
sg8
I00
sg9
I5
sg10
(lp122
g95
ag106
asg26
I00
sg27
I00
sg28
I16814403
sg19
S'104679.330849'
p123
sba(igraph
Edge
p124
(dp125
g7
I1
sg8
I00
sg9
I5
sg10
(lp126
(igraph
Vertex
p127
(dp128
g14
F0.35736680534300302
sg8
I00
sg15
g24
sg16
F196.46484602082307
sg17
F-100.70217070264189
sg18
I16814571
sg19
S'104678.072562'
p129
sg21
F0.87219398694502859
sba(igraph
Vertex
p130
(dp131
g14
F0.42062834168380631
sg8
I00
sg15
g24
sg16
F196.67993686244245
sg17
F-56.92518755480603
sg18
I16814572
sg19
S'104678.073779'
p132
sg21
F0.87266361760358613
sbasg26
I00
sg27
I00
sg28
I16814404
sg19
S'104679.33911'
p133
sba(igraph
Edge
p134
(dp135
g7
I1
sg8
I00
sg9
I5
sg10
(lp136
(igraph
Vertex
p137
(dp138
g14
F0.48752597502331319
sg8
I00
sg15
I0
sg16
F196.63548249492021
sg17
F-10.632025283867279
sg18
I16814573
sg19
S'104678.075104'
p139
sg21
F0.87256655566576469
sba(igraph
Vertex
p140
(dp141
g14
F0.54951752837373735
sg8
I00
sg15
g24
sg16
F196.63548249492021
sg17
F32.266129634626282
sg18
I16814575
sg19
S'104678.076372'
p142
sg21
F0.87256655566576469
sbasg26
I00
sg27
I00
sg28
I16814405
sg19
S'104679.347992'
p143
sba(igraph
Edge
p144
(dp145
g7
I1
sg8
I00
sg9
I5
sg10
(lp146
g140
a(igraph
Vertex
p147
(dp148
g14
F0.61150908172416163
sg8
I00
sg15
g24
sg16
F196.63548249492021
sg17
F75.164284553119842
sg18
I16814576
sg19
S'104678.077634'
p149
sg21
F0.87256655566576469
sbasg26
I00
sg27
I00
sg28
I16814406
sg19
S'104679.356346'
p150
sba(igraph
Edge
p151
(dp152
g7
I1
sg8
I00
sg9
I5
sg10
(lp153
g130
ag137
asg26
I00
sg27
I00
sg28
I16814407
sg19
S'104679.366137'
p154
sba(igraph
Edge
p155
(dp156
g7
I1
sg8
I00
sg9
I5
sg10
(lp157
(igraph
Vertex
p158
(dp159
g14
F0.67646014749794492
sg8
I00
sg15
g24
sg16
F196.51742396837767
sg17
F120.11042206857792
sg18
I16814577
sg19
S'104678.078901'
p160
sg21
F0.87230878595715644
sba(igraph
Vertex
p161
(dp162
g14
F0.7384517008483692
sg8
I00
sg15
I0
sg16
F196.51742396837767
sg17
F163.00857698707148
sg18
I16814578
sg19
S'104678.080232'
p163
sg21
F0.87230878595715644
sbasg26
I00
sg27
I00
sg28
I16814408
sg19
S'104679.375147'
p164
sba(igraph
Edge
p165
(dp166
g7
I1
sg8
I00
sg9
I5
sg10
(lp167
g161
a(igraph
Vertex
p168
(dp169
g14
F0.80044325419879325
sg8
I00
sg15
g24
sg16
F196.51742396837767
sg17
F205.90673190556493
sg18
I16814580
sg19
S'104678.08171'
p170
sg21
F0.87230878595715644
sbasg26
I00
sg27
I00
sg28
I16814409
sg19
S'104679.38398'
p171
sba(igraph
Edge
p172
(dp173
g7
I1
sg8
I00
sg9
I5
sg10
(lp174
g147
ag158
asg26
I00
sg27
I00
sg28
I16814410
sg19
S'104679.408559'
p175
sba(igraph
Edge
p176
(dp177
g7
I1
sg8
I00
sg9
I5
sg10
(lp178
g75
ag127
asg26
I00
sg27
I00
sg28
I16814411
sg19
S'104679.417265'
p179
sba(igraph
Edge
p180
(dp181
g7
I1
sg8
I00
sg9
I5
sg10
(lp182
g78
ag127
asg26
I00
sg27
I00
sg28
I16814412
sg19
S'104679.427757'
p183
sba(igraph
Edge
p184
(dp185
g7
I1
sg8
I00
sg9
I5
sg10
(lp186
g78
ag130
asg26
I00
sg27
I00
sg28
I16814413
sg19
S'104679.43721'
p187
sba(igraph
Edge
p188
(dp189
g7
I1
sg8
I00
sg9
I5
sg10
(lp190
g85
ag130
asg26
I00
sg27
I00
sg28
I16814414
sg19
S'104679.446773'
p191
sba(igraph
Edge
p192
(dp193
g7
I1
sg8
I00
sg9
I5
sg10
(lp194
g85
ag137
asg26
I00
sg27
I00
sg28
I16814415
sg19
S'104679.457495'
p195
sba(igraph
Edge
p196
(dp197
g7
I1
sg8
I00
sg9
I5
sg10
(lp198
g88
ag137
asg26
I00
sg27
I00
sg28
I16814416
sg19
S'104679.47001'
p199
sba(igraph
Edge
p200
(dp201
g7
I1
sg8
I00
sg9
I5
sg10
(lp202
g88
ag140
asg26
I00
sg27
I00
sg28
I16814417
sg19
S'104679.479749'
p203
sba(igraph
Edge
p204
(dp205
g7
I1
sg8
I00
sg9
I5
sg10
(lp206
g95
ag140
asg26
I00
sg27
I00
sg28
I16814418
sg19
S'104679.490412'
p207
sba(igraph
Edge
p208
(dp209
g7
I1
sg8
I00
sg9
I5
sg10
(lp210
g95
ag147
asg26
I00
sg27
I00
sg28
I16814419
sg19
S'104679.499741'
p211
sba(igraph
Edge
p212
(dp213
g7
I1
sg8
I00
sg9
I5
sg10
(lp214
g106
ag147
asg26
I00
sg27
I00
sg28
I16814420
sg19
S'104679.510233'
p215
sba(igraph
Edge
p216
(dp217
g7
I1
sg8
I00
sg9
I5
sg10
(lp218
g106
ag158
asg26
I00
sg27
I00
sg28
I16814421
sg19
S'104679.520114'
p219
sba(igraph
Edge
p220
(dp221
g7
I1
sg8
I00
sg9
I5
sg10
(lp222
g109
ag158
asg26
I00
sg27
I00
sg28
I16814422
sg19
S'104679.528767'
p223
sba(igraph
Edge
p224
(dp225
g7
I1
sg8
I00
sg9
I5
sg10
(lp226
g109
ag161
asg26
I00
sg27
I00
sg28
I16814423
sg19
S'104679.540058'
p227
sba(igraph
Edge
p228
(dp229
g7
I1
sg8
I00
sg9
I5
sg10
(lp230
g116
ag161
asg26
I00
sg27
I00
sg28
I16814424
sg19
S'104679.549454'
p231
sba(igraph
Edge
p232
(dp233
g7
I1
sg8
I00
sg9
I5
sg10
(lp234
g116
ag168
asg26
I00
sg27
I00
sg28
I16814425
sg19
S'104679.558451'
p235
sba(igraph
Edge
p236
(dp237
g7
I1
sg8
I00
sg9
I5
sg10
(lp238
g12
ag75
asg26
I00
sg27
I00
sg28
I16814426
sg19
S'104679.630624'
p239
sba(igraph
Edge
p240
(dp241
g7
I1
sg8
I00
sg9
I5
sg10
(lp242
g22
ag75
asg26
I00
sg27
I00
sg28
I16814427
sg19
S'104679.641061'
p243
sba(igraph
Edge
p244
(dp245
g7
I1
sg8
I00
sg9
I5
sg10
(lp246
g22
ag78
asg26
I00
sg27
I00
sg28
I16814428
sg19
S'104679.655346'
p247
sba(igraph
Edge
p248
(dp249
g7
I1
sg8
I00
sg9
I5
sg10
(lp250
g33
ag78
asg26
I00
sg27
I00
sg28
I16814429
sg19
S'104679.666256'
p251
sba(igraph
Edge
p252
(dp253
g7
I1
sg8
I00
sg9
I5
sg10
(lp254
g33
ag85
asg26
I00
sg27
I00
sg28
I16814430
sg19
S'104679.676764'
p255
sba(igraph
Edge
p256
(dp257
g7
I1
sg8
I00
sg9
I5
sg10
(lp258
g36
ag85
asg26
I00
sg27
I00
sg28
I16814431
sg19
S'104679.686601'
p259
sba(igraph
Edge
p260
(dp261
g7
I1
sg8
I00
sg9
I5
sg10
(lp262
g36
ag88
asg26
I00
sg27
I00
sg28
I16814432
sg19
S'104679.695922'
p263
sba(igraph
Edge
p264
(dp265
g7
I1
sg8
I00
sg9
I5
sg10
(lp266
g43
ag88
asg26
I00
sg27
I00
sg28
I16814433
sg19
S'104679.705635'
p267
sba(igraph
Edge
p268
(dp269
g7
I1
sg8
I00
sg9
I5
sg10
(lp270
g43
ag95
asg26
I00
sg27
I00
sg28
I16814434
sg19
S'104679.715299'
p271
sba(igraph
Edge
p272
(dp273
g7
I1
sg8
I00
sg9
I5
sg10
(lp274
g54
ag95
asg26
I00
sg27
I00
sg28
I16814435
sg19
S'104679.724975'
p275
sba(igraph
Edge
p276
(dp277
g7
I1
sg8
I00
sg9
I5
sg10
(lp278
g54
ag106
asg26
I00
sg27
I00
sg28
I16814436
sg19
S'104679.734529'
p279
sba(igraph
Edge
p280
(dp281
g7
I1
sg8
I00
sg9
I5
sg10
(lp282
g57
ag106
asg26
I00
sg27
I00
sg28
I16814437
sg19
S'104679.744502'
p283
sba(igraph
Edge
p284
(dp285
g7
I1
sg8
I00
sg9
I5
sg10
(lp286
g57
ag109
asg26
I00
sg27
I00
sg28
I16814438
sg19
S'104679.756709'
p287
sba(igraph
Edge
p288
(dp289
g7
I1
sg8
I00
sg9
I5
sg10
(lp290
g64
ag109
asg26
I00
sg27
I00
sg28
I16814439
sg19
S'104679.768332'
p291
sba(igraph
Edge
p292
(dp293
g7
I1
sg8
I00
sg9
I5
sg10
(lp294
g64
ag116
asg26
I00
sg27
I00
sg28
I16814440
sg19
S'104679.78053'
p295
sba(igraph
Edge
p296
(dp297
g7
I1
sg8
I00
sg9
I5
sg10
(lp298
(igraph
Vertex
p299
(dp300
g14
F0.24087116186920624
sg8
I00
sg15
g24
sg16
F137.79301740983863
sg17
F-181.31715598650928
sg18
I16814581
sg19
S'104678.257458'
p301
sg21
F0.74408955766340312
sba(igraph
Vertex
p302
(dp303
g14
F0.30286271521963043
sg8
I00
sg15
g24
sg16
F137.79301740983863
sg17
F-138.41900106801575
sg18
I16814582
sg19
S'104678.260153'
p304
sg21
F0.74408955766340312
sbasg26
I00
sg27
I00
sg28
I16814441
sg19
S'104683.290747'
p305
sba(igraph
Edge
p306
(dp307
g7
I1
sg8
I00
sg9
I5
sg10
(lp308
(igraph
Vertex
p309
(dp310
g14
F0.2454461731764615
sg8
I00
sg15
I0
sg16
F164.68144379570924
sg17
F-178.15124816188865
sg18
I16814583
sg19
S'104678.26272'
p311
sg21
F0.8027979122177058
sba(igraph
Vertex
p312
(dp313
g14
F0.30743772652688561
sg8
I00
sg15
g24
sg16
F164.68144379570924
sg17
F-135.25309324339514
sg18
I16814585
sg19
S'104678.265324'
p314
sg21
F0.8027979122177058
sbasg26
I00
sg27
I00
sg28
I16814442
sg19
S'104683.387363'
p315
sba(igraph
Edge
p316
(dp317
g7
I1
sg8
I00
sg9
I5
sg10
(lp318
(igraph
Vertex
p319
(dp320
g14
F0.24706636359648695
sg8
I00
sg15
g24
sg16
F195.67121647766305
sg17
F-177.03007639123103
sg18
I16814586
sg19
S'104678.303786'
p321
sg21
F0.87046117134860923
sba(igraph
Vertex
p322
(dp323
g14
F0.31032789993729026
sg8
I00
sg15
g24
sg16
F195.88630731928242
sg17
F-133.25309324339514
sg18
I16814587
sg19
S'104678.306541'
p324
sg21
F0.87093080200716688
sbasg26
I00
sg27
I00
sg28
I16814443
sg19
S'104683.410183'
p325
sba(igraph
Edge
p326
(dp327
g7
I1
sg8
I00
sg9
I5
sg10
(lp328
g309
ag319
asg26
I00
sg27
I00
sg28
I16814444
sg19
S'104683.430677'
p329
sba(igraph
Edge
p330
(dp331
g7
I1
sg8
I00
sg9
I5
sg10
(lp332
g312
ag319
asg26
I00
sg27
I00
sg28
I16814445
sg19
S'104683.451304'
p333
sba(igraph
Edge
p334
(dp335
g7
I1
sg8
I00
sg9
I5
sg10
(lp336
g312
ag322
asg26
I00
sg27
I00
sg28
I16814446
sg19
S'104683.470337'
p337
sba(igraph
Edge
p338
(dp339
g7
I1
sg8
I00
sg9
I5
sg10
(lp340
g299
ag309
asg26
I00
sg27
I00
sg28
I16814447
sg19
S'104683.491348'
p341
sba(igraph
Edge
p342
(dp343
g7
I1
sg8
I00
sg9
I5
sg10
(lp344
g302
ag309
asg26
I00
sg27
I00
sg28
I16814448
sg19
S'104683.512087'
p345
sba(igraph
Edge
p346
(dp347
g7
I1
sg8
I00
sg9
I5
sg10
(lp348
g302
ag312
asg26
I00
sg27
I00
sg28
I16814449
sg19
S'104683.532626'
p349
sba(igraph
Edge
p350
(dp351
g7
I1
sg8
I00
sg9
I5
sg10
(lp352
g127
ag322
asg26
I00
sg27
I00
sg28
I16814450
sg19
S'104684.228739'
p353
sba(igraph
Edge
p354
(dp355
g7
I1
sg8
I00
sg9
I5
sg10
(lp356
g322
ag75
asg26
I00
sg27
I00
sg28
I16814451
sg19
S'104684.262657'
p357
sba(igraph
Edge
p358
(dp359
g7
I1
sg8
I00
sg9
I5
sg10
(lp360
g75
ag312
asg26
I00
sg27
I00
sg28
I16814452
sg19
S'104684.320353'
p361
sba(igraph
Edge
p362
(dp363
g7
I1
sg8
I00
sg9
I5
sg10
(lp364
g312
ag12
asg26
I00
sg27
I00
sg28
I16814453
sg19
S'104684.346351'
p365
sba(igraph
Edge
p366
(dp367
g7
I1
sg8
I00
sg9
I5
sg10
(lp368
g12
ag302
asg26
I00
sg27
I00
sg28
I16814454
sg19
S'104684.387906'
p369
sba(igraph
Edge
p370
(dp371
g7
I1
sg8
I00
sg9
I5
sg10
(lp372
g299
ag319
asg26
I00
sg27
I00
sg28
I16814455
sg19
S'169196.516815'
p373
sba(igraph
Edge
p374
(dp375
g7
I1
sg8
I00
sg9
I5
sg10
(lp376
g299
ag322
asg26
I00
sg27
I00
sg28
I16814456
sg19
S'169199.129004'
p377
sba(igraph
Edge
p378
(dp379
g7
I1
sg8
I00
sg9
I5
sg10
(lp380
g322
ag302
asg26
I00
sg27
I00
sg28
I16814457
sg19
S'169201.160024'
p381
sba(igraph
Edge
p382
(dp383
g7
I1
sg8
I00
sg9
I5
sg10
(lp384
g302
ag127
asg26
I00
sg27
I00
sg28
I16814458
sg19
S'169203.404693'
p385
sba(igraph
Edge
p386
(dp387
g7
I1
sg8
I00
sg9
I5
sg10
(lp388
g127
ag12
asg26
I00
sg27
I00
sg28
I16814459
sg19
S'169205.050724'
p389
sba(igraph
Edge
p390
(dp391
g7
I1
sg8
I00
sg9
I5
sg10
(lp392
g12
ag130
asg26
I00
sg27
I00
sg28
I16814460
sg19
S'169206.876842'
p393
sba(igraph
Edge
p394
(dp395
g7
I1
sg8
I00
sg9
I5
sg10
(lp396
g130
ag22
asg26
I00
sg27
I00
sg28
I16814461
sg19
S'169209.509947'
p397
sba(igraph
Edge
p398
(dp399
g7
I1
sg8
I00
sg9
I5
sg10
(lp400
g22
ag137
asg26
I00
sg27
I00
sg28
I16814462
sg19
S'169211.713801'
p401
sba(igraph
Edge
p402
(dp403
g7
I1
sg8
I00
sg9
I5
sg10
(lp404
g137
ag33
asg26
I00
sg27
I00
sg28
I16814463
sg19
S'169213.358216'
p405
sba(igraph
Edge
p406
(dp407
g7
I1
sg8
I00
sg9
I5
sg10
(lp408
g33
ag140
asg26
I00
sg27
I00
sg28
I16814464
sg19
S'169216.107716'
p409
sba(igraph
Edge
p410
(dp411
g7
I1
sg8
I00
sg9
I5
sg10
(lp412
g140
ag36
asg26
I00
sg27
I00
sg28
I16814465
sg19
S'169217.607987'
p413
sba(igraph
Edge
p414
(dp415
g7
I1
sg8
I00
sg9
I5
sg10
(lp416
g36
ag147
asg26
I00
sg27
I00
sg28
I16814466
sg19
S'169219.66264'
p417
sba(igraph
Edge
p418
(dp419
g7
I1
sg8
I00
sg9
I5
sg10
(lp420
g147
ag43
asg26
I00
sg27
I00
sg28
I16814467
sg19
S'169222.086081'
p421
sba(igraph
Edge
p422
(dp423
g7
I1
sg8
I00
sg9
I5
sg10
(lp424
g43
ag158
asg26
I00
sg27
I00
sg28
I16814468
sg19
S'169224.060828'
p425
sba(igraph
Edge
p426
(dp427
g7
I1
sg8
I00
sg9
I5
sg10
(lp428
g158
ag54
asg26
I00
sg27
I00
sg28
I16814469
sg19
S'169225.648563'
p429
sba(igraph
Edge
p430
(dp431
g7
I1
sg8
I00
sg9
I5
sg10
(lp432
g54
ag161
asg26
I00
sg27
I00
sg28
I16814470
sg19
S'169227.951875'
p433
sba(igraph
Edge
p434
(dp435
g7
I1
sg8
I00
sg9
I5
sg10
(lp436
g161
ag57
asg26
I00
sg27
I00
sg28
I16814471
sg19
S'169229.528879'
p437
sba(igraph
Edge
p438
(dp439
g7
I1
sg8
I00
sg9
I5
sg10
(lp440
g57
ag168
asg26
I00
sg27
I00
sg28
I16814472
sg19
S'169231.602839'
p441
sba(igraph
Edge
p442
(dp443
g7
I1
sg8
I00
sg9
I5
sg10
(lp444
g168
ag64
asg26
I00
sg27
I00
sg28
I16814473
sg19
S'169233.622845'
p445
sba(igraph
Edge
p446
(dp447
g7
I1
sg8
I00
sg9
I5
sg10
(lp448
(igraph
Vertex
p449
(dp450
g16
F139.0123843085494
sg17
F-489.8523325070264
sg18
I16814589
sg8
I00
sg19
S'169669.983166'
p451
sg15
g24
sba(igraph
Vertex
p452
(dp453
g16
F139.0123843085494
sg17
F-446.95417758853296
sg18
I16814590
sg8
I00
sg19
S'169669.983738'
p454
sg15
g24
sbasg26
I00
sg27
I00
sg28
I16814474
sg19
S'169670.002926'
p455
sba(igraph
Edge
p456
(dp457
g7
I1
sg8
I00
sg9
I5
sg10
(lp458
g452
a(igraph
Vertex
p459
(dp460
g16
F139.0123843085494
sg17
F-404.05602267003934
sg18
I16814591
sg8
I00
sg19
S'169669.984328'
p461
sg15
g24
sbasg26
I00
sg27
I00
sg28
I16814475
sg19
S'169670.007452'
p462
sba(igraph
Edge
p463
(dp464
g7
I1
sg8
I00
sg9
I5
sg10
(lp465
(igraph
Vertex
p466
(dp467
g16
F139.05683867607169
sg17
F-536.14549477796527
sg18
I16814588
sg8
I00
sg19
S'169669.982594'
p468
sg15
g24
sbag449
asg26
I00
sg27
I00
sg28
I16814476
sg19
S'169670.01191'
p469
sba(igraph
Edge
p470
(dp471
g7
I1
sg8
I00
sg9
I5
sg10
(lp472
(igraph
Vertex
p473
(dp474
g16
F138.89432578200675
sg17
F-359.10988515458126
sg18
I16814592
sg8
I00
sg19
S'169669.984933'
p475
sg15
I0
sba(igraph
Vertex
p476
(dp477
g16
F138.89432578200675
sg17
F-316.2117302360877
sg18
I16814594
sg8
I00
sg19
S'169669.985557'
p478
sg15
g24
sbasg26
I00
sg27
I00
sg28
I16814477
sg19
S'169670.016637'
p479
sba(igraph
Edge
p480
(dp481
g7
I1
sg8
I00
sg9
I5
sg10
(lp482
g476
a(igraph
Vertex
p483
(dp484
g16
F138.89432578200675
sg17
F-273.31357531759426
sg18
I16814595
sg8
I00
sg19
S'169669.986203'
p485
sg15
g24
sbasg26
I00
sg27
I00
sg28
I16814478
sg19
S'169670.021149'
p486
sba(igraph
Edge
p487
(dp488
g7
I1
sg8
I00
sg9
I5
sg10
(lp489
g483
a(igraph
Vertex
p490
(dp491
g16
F138.84987141448457
sg17
F-227.02041304665539
sg18
I16814596
sg8
I00
sg19
S'169669.986859'
p492
sg15
g24
sbasg26
I00
sg27
I00
sg28
I16814479
sg19
S'169670.025761'
p493
sba(igraph
Edge
p494
(dp495
g7
I1
sg8
I00
sg9
I5
sg10
(lp496
g459
ag473
asg26
I00
sg27
I00
sg28
I16814480
sg19
S'169670.03043'
p497
sba(igraph
Edge
p498
(dp499
g7
I1
sg8
I00
sg9
I5
sg10
(lp500
(igraph
Vertex
p501
(dp502
g16
F165.90081069442002
sg17
F-486.68642468240591
sg18
I16814598
sg8
I00
sg19
S'169669.98822'
p503
sg15
g24
sba(igraph
Vertex
p504
(dp505
g16
F165.90081069442002
sg17
F-443.78826976391224
sg18
I16814599
sg8
I00
sg19
S'169669.988978'
p506
sg15
I0
sbasg26
I00
sg27
I00
sg28
I16814481
sg19
S'169670.035193'
p507
sba(igraph
Edge
p508
(dp509
g7
I1
sg8
I00
sg9
I5
sg10
(lp510
g504
a(igraph
Vertex
p511
(dp512
g16
F165.90081069442002
sg17
F-400.89011484541874
sg18
I16814601
sg8
I00
sg19
S'169669.989701'
p513
sg15
g24
sbasg26
I00
sg27
I00
sg28
I16814482
sg19
S'169670.040155'
p514
sba(igraph
Edge
p515
(dp516
g7
I1
sg8
I00
sg9
I5
sg10
(lp517
(igraph
Vertex
p518
(dp519
g16
F165.94526506194225
sg17
F-532.97958695334455
sg18
I16814597
sg8
I00
sg19
S'169669.987533'
p520
sg15
g24
sbag501
asg26
I00
sg27
I00
sg28
I16814483
sg19
S'169670.045091'
p521
sba(igraph
Edge
p522
(dp523
g7
I1
sg8
I00
sg9
I5
sg10
(lp524
(igraph
Vertex
p525
(dp526
g16
F165.78275216787742
sg17
F-355.94397732996066
sg18
I16814602
sg8
I00
sg19
S'169669.990439'
p527
sg15
g24
sba(igraph
Vertex
p528
(dp529
g16
F165.78275216787742
sg17
F-313.0458224114671
sg18
I16814603
sg8
I00
sg19
S'169669.991191'
p530
sg15
g24
sbasg26
I00
sg27
I00
sg28
I16814484
sg19
S'169670.049888'
p531
sba(igraph
Edge
p532
(dp533
g7
I1
sg8
I00
sg9
I5
sg10
(lp534
g528
a(igraph
Vertex
p535
(dp536
g16
F165.78275216787742
sg17
F-270.14766749297365
sg18
I16814604
sg8
I00
sg19
S'169669.991971'
p537
sg15
g24
sbasg26
I00
sg27
I00
sg28
I16814485
sg19
S'169670.054689'
p538
sba(igraph
Edge
p539
(dp540
g7
I1
sg8
I00
sg9
I5
sg10
(lp541
g535
a(igraph
Vertex
p542
(dp543
g16
F165.73829780035518
sg17
F-223.85450522203479
sg18
I16814605
sg8
I00
sg19
S'169669.992757'
p544
sg15
g24
sbasg26
I00
sg27
I00
sg28
I16814486
sg19
S'169670.059532'
p545
sba(igraph
Edge
p546
(dp547
g7
I1
sg8
I00
sg9
I5
sg10
(lp548
g511
ag525
asg26
I00
sg27
I00
sg28
I16814487
sg19
S'169670.064551'
p549
sba(igraph
Edge
p550
(dp551
g7
I1
sg8
I00
sg9
I5
sg10
(lp552
(igraph
Vertex
p553
(dp554
g16
F197.1056742179932
sg17
F-484.68642468240591
sg18
I16814608
sg8
I00
sg19
S'169669.994385'
p555
sg15
g24
sba(igraph
Vertex
p556
(dp557
g16
F197.1056742179932
sg17
F-441.78826976391224
sg18
I16814609
sg8
I00
sg19
S'169669.995224'
p558
sg15
g24
sbasg26
I00
sg27
I00
sg28
I16814488
sg19
S'169670.069526'
p559
sba(igraph
Edge
p560
(dp561
g7
I1
sg8
I00
sg9
I5
sg10
(lp562
g556
a(igraph
Vertex
p563
(dp564
g16
F197.1056742179932
sg17
F-398.89011484541874
sg18
I16814610
sg8
I00
sg19
S'169669.996084'
p565
sg15
g24
sbasg26
I00
sg27
I00
sg28
I16814489
sg19
S'169670.073569'
p566
sba(igraph
Edge
p567
(dp568
g7
I1
sg8
I00
sg9
I5
sg10
(lp569
(igraph
Vertex
p570
(dp571
g16
F197.15012858551543
sg17
F-530.97958695334455
sg18
I16814606
sg8
I00
sg19
S'169669.99356'
p572
sg15
I0
sbag553
asg26
I00
sg27
I00
sg28
I16814490
sg19
S'169670.075888'
p573
sba(igraph
Edge
p574
(dp575
g7
I1
sg8
I00
sg9
I5
sg10
(lp576
(igraph
Vertex
p577
(dp578
g16
F196.98761569145066
sg17
F-353.94397732996066
sg18
I16814611
sg8
I00
sg19
S'169669.996956'
p579
sg15
g24
sba(igraph
Vertex
p580
(dp581
g16
F196.98761569145066
sg17
F-311.0458224114671
sg18
I16814612
sg8
I00
sg19
S'169669.997846'
p582
sg15
g24
sbasg26
I00
sg27
I00
sg28
I16814491
sg19
S'169670.078239'
p583
sba(igraph
Edge
p584
(dp585
g7
I1
sg8
I00
sg9
I5
sg10
(lp586
g580
a(igraph
Vertex
p587
(dp588
g16
F196.98761569145066
sg17
F-268.14766749297365
sg18
I16814613
sg8
I00
sg19
S'169669.998762'
p589
sg15
I0
sbasg26
I00
sg27
I00
sg28
I16814492
sg19
S'169670.080629'
p590
sba(igraph
Edge
p591
(dp592
g7
I1
sg8
I00
sg9
I5
sg10
(lp593
g587
a(igraph
Vertex
p594
(dp595
g16
F196.94316132392842
sg17
F-221.85450522203479
sg18
I16814615
sg8
I00
sg19
S'169669.999683'
p596
sg15
g24
sbasg26
I00
sg27
I00
sg28
I16814493
sg19
S'169670.083034'
p597
sba(igraph
Edge
p598
(dp599
g7
I1
sg8
I00
sg9
I5
sg10
(lp600
g563
ag577
asg26
I00
sg27
I00
sg28
I16814494
sg19
S'169670.085442'
p601
sba(igraph
Edge
p602
(dp603
g7
I1
sg8
I00
sg9
I5
sg10
(lp604
g518
ag570
asg26
I00
sg27
I00
sg28
I16814495
sg19
S'169670.087966'
p605
sba(igraph
Edge
p606
(dp607
g7
I1
sg8
I00
sg9
I5
sg10
(lp608
g501
ag570
asg26
I00
sg27
I00
sg28
I16814496
sg19
S'169670.090437'
p609
sba(igraph
Edge
p610
(dp611
g7
I1
sg8
I00
sg9
I5
sg10
(lp612
g501
ag553
asg26
I00
sg27
I00
sg28
I16814497
sg19
S'169670.092975'
p613
sba(igraph
Edge
p614
(dp615
g7
I1
sg8
I00
sg9
I5
sg10
(lp616
g504
ag553
asg26
I00
sg27
I00
sg28
I16814498
sg19
S'169670.095613'
p617
sba(igraph
Edge
p618
(dp619
g7
I1
sg8
I00
sg9
I5
sg10
(lp620
g504
ag556
asg26
I00
sg27
I00
sg28
I16814499
sg19
S'169670.098131'
p621
sba(igraph
Edge
p622
(dp623
g7
I1
sg8
I00
sg9
I5
sg10
(lp624
g511
ag556
asg26
I00
sg27
I00
sg28
I16814500
sg19
S'169670.100664'
p625
sba(igraph
Edge
p626
(dp627
g7
I1
sg8
I00
sg9
I5
sg10
(lp628
g511
ag563
asg26
I00
sg27
I00
sg28
I16814501
sg19
S'169670.103222'
p629
sba(igraph
Edge
p630
(dp631
g7
I1
sg8
I00
sg9
I5
sg10
(lp632
g525
ag563
asg26
I00
sg27
I00
sg28
I16814502
sg19
S'169670.105805'
p633
sba(igraph
Edge
p634
(dp635
g7
I1
sg8
I00
sg9
I5
sg10
(lp636
g525
ag577
asg26
I00
sg27
I00
sg28
I16814503
sg19
S'169670.108427'
p637
sba(igraph
Edge
p638
(dp639
g7
I1
sg8
I00
sg9
I5
sg10
(lp640
g528
ag577
asg26
I00
sg27
I00
sg28
I16814504
sg19
S'169670.111081'
p641
sba(igraph
Edge
p642
(dp643
g7
I1
sg8
I00
sg9
I5
sg10
(lp644
g528
ag580
asg26
I00
sg27
I00
sg28
I16814505
sg19
S'169670.113802'
p645
sba(igraph
Edge
p646
(dp647
g7
I1
sg8
I00
sg9
I5
sg10
(lp648
g535
ag580
asg26
I00
sg27
I00
sg28
I16814506
sg19
S'169670.11652'
p649
sba(igraph
Edge
p650
(dp651
g7
I1
sg8
I00
sg9
I5
sg10
(lp652
g535
ag587
asg26
I00
sg27
I00
sg28
I16814507
sg19
S'169670.119245'
p653
sba(igraph
Edge
p654
(dp655
g7
I1
sg8
I00
sg9
I5
sg10
(lp656
g542
ag587
asg26
I00
sg27
I00
sg28
I16814508
sg19
S'169670.122024'
p657
sba(igraph
Edge
p658
(dp659
g7
I1
sg8
I00
sg9
I5
sg10
(lp660
g542
ag594
asg26
I00
sg27
I00
sg28
I16814509
sg19
S'169670.124807'
p661
sba(igraph
Edge
p662
(dp663
g7
I1
sg8
I00
sg9
I5
sg10
(lp664
g466
ag518
asg26
I00
sg27
I00
sg28
I16814510
sg19
S'169670.127601'
p665
sba(igraph
Edge
p666
(dp667
g7
I1
sg8
I00
sg9
I5
sg10
(lp668
g449
ag518
asg26
I00
sg27
I00
sg28
I16814511
sg19
S'169670.130446'
p669
sba(igraph
Edge
p670
(dp671
g7
I1
sg8
I00
sg9
I5
sg10
(lp672
g449
ag501
asg26
I00
sg27
I00
sg28
I16814512
sg19
S'169670.133299'
p673
sba(igraph
Edge
p674
(dp675
g7
I1
sg8
I00
sg9
I5
sg10
(lp676
g452
ag501
asg26
I00
sg27
I00
sg28
I16814513
sg19
S'169670.137604'
p677
sba(igraph
Edge
p678
(dp679
g7
I1
sg8
I00
sg9
I5
sg10
(lp680
g452
ag504
asg26
I00
sg27
I00
sg28
I16814514
sg19
S'169670.141652'
p681
sba(igraph
Edge
p682
(dp683
g7
I1
sg8
I00
sg9
I5
sg10
(lp684
g459
ag504
asg26
I00
sg27
I00
sg28
I16814515
sg19
S'169670.144858'
p685
sba(igraph
Edge
p686
(dp687
g7
I1
sg8
I00
sg9
I5
sg10
(lp688
g459
ag511
asg26
I00
sg27
I00
sg28
I16814516
sg19
S'169670.147978'
p689
sba(igraph
Edge
p690
(dp691
g7
I1
sg8
I00
sg9
I5
sg10
(lp692
g473
ag511
asg26
I00
sg27
I00
sg28
I16814517
sg19
S'169670.151185'
p693
sba(igraph
Edge
p694
(dp695
g7
I1
sg8
I00
sg9
I5
sg10
(lp696
g473
ag525
asg26
I00
sg27
I00
sg28
I16814518
sg19
S'169670.154375'
p697
sba(igraph
Edge
p698
(dp699
g7
I1
sg8
I00
sg9
I5
sg10
(lp700
g476
ag525
asg26
I00
sg27
I00
sg28
I16814519
sg19
S'169670.157368'
p701
sba(igraph
Edge
p702
(dp703
g7
I1
sg8
I00
sg9
I5
sg10
(lp704
g476
ag528
asg26
I00
sg27
I00
sg28
I16814520
sg19
S'169670.160477'
p705
sba(igraph
Edge
p706
(dp707
g7
I1
sg8
I00
sg9
I5
sg10
(lp708
g483
ag528
asg26
I00
sg27
I00
sg28
I16814521
sg19
S'169670.163524'
p709
sba(igraph
Edge
p710
(dp711
g7
I1
sg8
I00
sg9
I5
sg10
(lp712
g483
ag535
asg26
I00
sg27
I00
sg28
I16814522
sg19
S'169670.166528'
p713
sba(igraph
Edge
p714
(dp715
g7
I1
sg8
I00
sg9
I5
sg10
(lp716
g490
ag535
asg26
I00
sg27
I00
sg28
I16814523
sg19
S'169670.16955'
p717
sba(igraph
Edge
p718
(dp719
g7
I1
sg8
I00
sg9
I5
sg10
(lp720
g490
ag542
asg26
I00
sg27
I00
sg28
I16814524
sg19
S'169670.172794'
p721
sba(igraph
Edge
p722
(dp723
g7
I1
sg8
I00
sg9
I5
sg10
(lp724
g570
ag466
asg26
I00
sg27
I00
sg28
I16814525
sg19
S'169670.175844'
p725
sba(igraph
Edge
p726
(dp727
g7
I1
sg8
I00
sg9
I5
sg10
(lp728
g466
ag553
asg26
I00
sg27
I00
sg28
I16814526
sg19
S'169670.178921'
p729
sba(igraph
Edge
p730
(dp731
g7
I1
sg8
I00
sg9
I5
sg10
(lp732
g553
ag449
asg26
I00
sg27
I00
sg28
I16814527
sg19
S'169670.182075'
p733
sba(igraph
Edge
p734
(dp735
g7
I1
sg8
I00
sg9
I5
sg10
(lp736
g449
ag556
asg26
I00
sg27
I00
sg28
I16814528
sg19
S'169670.185265'
p737
sba(igraph
Edge
p738
(dp739
g7
I1
sg8
I00
sg9
I5
sg10
(lp740
g556
ag452
asg26
I00
sg27
I00
sg28
I16814529
sg19
S'169670.188444'
p741
sba(igraph
Edge
p742
(dp743
g7
I1
sg8
I00
sg9
I5
sg10
(lp744
g452
ag563
asg26
I00
sg27
I00
sg28
I16814530
sg19
S'169670.191646'
p745
sba(igraph
Edge
p746
(dp747
g7
I1
sg8
I00
sg9
I5
sg10
(lp748
g563
ag459
asg26
I00
sg27
I00
sg28
I16814531
sg19
S'169670.194863'
p749
sba(igraph
Edge
p750
(dp751
g7
I1
sg8
I00
sg9
I5
sg10
(lp752
g459
ag577
asg26
I00
sg27
I00
sg28
I16814532
sg19
S'169670.1982'
p753
sba(igraph
Edge
p754
(dp755
g7
I1
sg8
I00
sg9
I5
sg10
(lp756
g577
ag473
asg26
I00
sg27
I00
sg28
I16814533
sg19
S'169670.201467'
p757
sba(igraph
Edge
p758
(dp759
g7
I1
sg8
I00
sg9
I5
sg10
(lp760
g473
ag580
asg26
I00
sg27
I00
sg28
I16814534
sg19
S'169670.204789'
p761
sba(igraph
Edge
p762
(dp763
g7
I1
sg8
I00
sg9
I5
sg10
(lp764
g580
ag476
asg26
I00
sg27
I00
sg28
I16814535
sg19
S'169670.208162'
p765
sba(igraph
Edge
p766
(dp767
g7
I1
sg8
I00
sg9
I5
sg10
(lp768
g476
ag587
asg26
I00
sg27
I00
sg28
I16814536
sg19
S'169670.211553'
p769
sba(igraph
Edge
p770
(dp771
g7
I1
sg8
I00
sg9
I5
sg10
(lp772
g587
ag483
asg26
I00
sg27
I00
sg28
I16814537
sg19
S'169670.214969'
p773
sba(igraph
Edge
p774
(dp775
g7
I1
sg8
I00
sg9
I5
sg10
(lp776
g483
ag594
asg26
I00
sg27
I00
sg28
I16814538
sg19
S'169670.218387'
p777
sba(igraph
Edge
p778
(dp779
g7
I1
sg8
I00
sg9
I5
sg10
(lp780
g594
ag490
asg26
I00
sg27
I00
sg28
I16814539
sg19
S'169670.221839'
p781
sba(igraph
Edge
p782
(dp783
g7
I1
sg8
I00
sg9
I5
sg10
(lp784
g594
ag319
asg26
I00
sg27
I00
sg28
I16814540
sg19
S'169677.246391'
p785
sba(igraph
Edge
p786
(dp787
g7
I1
sg8
I00
sg9
I5
sg10
(lp788
g490
ag299
asg26
I00
sg27
I00
sg28
I16814541
sg19
S'169683.080959'
p789
sba(igraph
Edge
p790
(dp791
g7
I1
sg8
I00
sg9
I5
sg10
(lp792
g490
ag319
asg26
I00
sg27
I00
sg28
I16814542
sg19
S'169691.426441'
p793
sba(igraph
Edge
p794
(dp795
g7
I1
sg8
I00
sg9
I5
sg10
(lp796
g542
ag309
asg26
I00
sg27
I00
sg28
I16814543
sg19
S'169701.684512'
p797
sba(igraph
Edge
p798
(dp799
g7
I1
sg8
I00
sg9
I5
sg10
(lp800
g594
ag309
asg26
I00
sg27
I00
sg28
I16814544
sg19
S'169705.210048'
p801
sba(igraph
Edge
p802
(dp803
g7
I1
sg8
I00
sg9
I5
sg10
(lp804
g542
ag299
asg26
I00
sg27
I00
sg28
I16814545
sg19
S'169707.942622'
p805
sba(igraph
Edge
p806
(dp807
g7
I1
sg8
I00
sg9
I5
sg10
(lp808
g570
ag168
asg26
I00
sg27
I00
sg28
I16814546
sg19
S'170006.485266'
p809
sba(igraph
Edge
p810
(dp811
g7
I1
sg8
I00
sg9
I5
sg10
(lp812
g168
ag518
asg26
I00
sg27
I00
sg28
I16814547
sg19
S'170009.279755'
p813
sba(igraph
Edge
p814
(dp815
g7
I1
sg8
I00
sg9
I5
sg10
(lp816
g518
ag116
asg26
I00
sg27
I00
sg28
I16814548
sg19
S'170012.284107'
p817
sba(igraph
Edge
p818
(dp819
g7
I1
sg8
I00
sg9
I5
sg10
(lp820
g116
ag466
asg26
I00
sg27
I00
sg28
I16814549
sg19
S'170015.679219'
p821
sba(igraph
Edge
p822
(dp823
g7
I1
sg8
I00
sg9
I5
sg10
(lp824
g466
ag64
asg26
I00
sg27
I00
sg28
I16814550
sg19
S'170018.299421'
p825
sba(igraph
Edge
p826
(dp827
g7
I1
sg8
I00
sg9
I5
sg10
(lp828
g64
ag570
asg26
I00
sg27
I00
sg28
I16814551
sg19
S'170022.508988'
p829
sbasS'vertices'
p830
(lp831
g12
ag22
ag33
ag36
ag43
ag54
ag57
ag64
ag75
ag78
ag85
ag88
ag95
ag106
ag109
ag116
ag127
ag130
ag137
ag140
ag147
ag158
ag161
ag168
ag299
ag302
ag309
ag312
ag319
ag322
ag466
ag449
ag452
ag459
ag473
ag476
ag483
ag490
ag518
ag501
ag504
ag511
ag525
ag528
ag535
ag542
ag570
ag553
ag556
ag563
ag577
ag580
ag587
ag594
asS'tags'
p832
(lp833
sb.