(igraph
Graph
p0
(dp1
S'labelingConstraints'
p2
I-1
sS'edges'
p3
(lp4
(igraph
Edge
p5
(dp6
S'direction'
p7
I1
sS'selected'
p8
I00
sS'height'
p9
I5
sS'vs'
p10
(lp11
(igraph
Vertex
p12
(dp13
S'xnorm'
p14
F0.0
sg8
I01
sS'label'
p15
I0
sS'y'
p16
F-150.0
sS'x'
p17
F403.0
sS'circle'
p18
I4903924
sS'id'
p19
S'16608.8474929'
p20
sS'ynorm'
p21
F0.0
sba(igraph
Vertex
p22
(dp23
g14
F0.25
sg8
I00
sg15
S'NULL'
p24
sg16
F-150.0
sg17
F339.75
sg18
I4903926
sg19
S'16608.8475303'
p25
sg21
F0.0
sbasS'wrap'
p26
I00
sS'curved'
p27
I00
sS'line'
p28
I4903848
sg19
S'16608.8530769'
p29
sba(igraph
Edge
p30
(dp31
g7
I1
sg8
I00
sg9
I5
sg10
(lp32
g22
a(igraph
Vertex
p33
(dp34
g14
F0.5
sg8
I01
sg15
I0
sg16
F-150.0
sg17
F276.5
sg18
I4903928
sg19
S'16608.8475717'
p35
sg21
F0.0
sbasg26
I00
sg27
I00
sg28
I4903849
sg19
S'16608.8531984'
p36
sba(igraph
Edge
p37
(dp38
g7
I1
sg8
I00
sg9
I5
sg10
(lp39
g33
a(igraph
Vertex
p40
(dp41
g14
F0.75
sg8
I00
sg15
g24
sg16
F-150.0
sg17
F213.25
sg18
I4903930
sg19
S'16608.8476264'
p42
sg21
F0.0
sbasg26
I00
sg27
I00
sg28
I4903850
sg19
S'16608.8533632'
p43
sba(igraph
Edge
p44
(dp45
g7
I1
sg8
I00
sg9
I5
sg10
(lp46
g40
a(igraph
Vertex
p47
(dp48
g14
F1.0
sg8
I00
sg15
g24
sg16
F-150.0
sg17
F150.0
sg18
I4903931
sg19
S'16608.8476941'
p49
sg21
F0.0
sbasg26
I00
sg27
I00
sg28
I4903851
sg19
S'16608.8535719'
p50
sba(igraph
Edge
p51
(dp52
g7
I1
sg8
I00
sg9
I5
sg10
(lp53
g47
ag12
asg26
I00
sg27
I00
sg28
I4903852
sg19
S'16608.853825'
p54
sba(igraph
Edge
p55
(dp56
g7
I1
sg8
I00
sg9
I5
sg10
(lp57
(igraph
Vertex
p58
(dp59
g14
F0.0
sg8
I00
sg15
g24
sg16
F-75.0
sg17
F403.0
sg18
I4903932
sg19
S'16608.8477762'
p60
sg21
F0.25
sba(igraph
Vertex
p61
(dp62
g14
F0.25
sg8
I00
sg15
g24
sg16
F-75.0
sg17
F339.75
sg18
I4903933
sg19
S'16608.8478768'
p63
sg21
F0.25
sbasg26
I00
sg27
I00
sg28
I4903853
sg19
S'16608.8541275'
p64
sba(igraph
Edge
p65
(dp66
g7
I1
sg8
I00
sg9
I5
sg10
(lp67
g61
a(igraph
Vertex
p68
(dp69
g14
F0.5
sg8
I00
sg15
g24
sg16
F-75.0
sg17
F276.5
sg18
I4903934
sg19
S'16608.8479899'
p70
sg21
F0.25
sbasg26
I00
sg27
I00
sg28
I4903854
sg19
S'16608.8544737'
p71
sba(igraph
Edge
p72
(dp73
g7
I1
sg8
I00
sg9
I5
sg10
(lp74
g68
a(igraph
Vertex
p75
(dp76
g14
F0.75
sg8
I00
sg15
g24
sg16
F-75.0
sg17
F213.25
sg18
I4903935
sg19
S'16608.8481195'
p77
sg21
F0.25
sbasg26
I00
sg27
I00
sg28
I4903855
sg19
S'16608.854929'
p78
sba(igraph
Edge
p79
(dp80
g7
I1
sg8
I00
sg9
I5
sg10
(lp81
g75
a(igraph
Vertex
p82
(dp83
g14
F1.0
sg8
I00
sg15
g24
sg16
F-75.0
sg17
F150.0
sg18
I4903936
sg19
S'16608.848264'
p84
sg21
F0.25
sbasg26
I00
sg27
I00
sg28
I4903856
sg19
S'16608.8553716'
p85
sba(igraph
Edge
p86
(dp87
g7
I1
sg8
I00
sg9
I5
sg10
(lp88
g82
ag58
asg26
I00
sg27
I00
sg28
I4903857
sg19
S'16608.8558591'
p89
sba(igraph
Edge
p90
(dp91
g7
I1
sg8
I00
sg9
I5
sg10
(lp92
(igraph
Vertex
p93
(dp94
g14
F0.0
sg8
I00
sg15
g24
sg16
F0.0
sg17
F403.0
sg18
I4903937
sg19
S'16608.8484254'
p95
sg21
F0.5
sba(igraph
Vertex
p96
(dp97
g14
F0.25
sg8
I00
sg15
g24
sg16
F0.0
sg17
F339.75
sg18
I4903938
sg19
S'16608.8486045'
p98
sg21
F0.5
sbasg26
I00
sg27
I00
sg28
I4903858
sg19
S'16608.8564435'
p99
sba(igraph
Edge
p100
(dp101
g7
I1
sg8
I00
sg9
I5
sg10
(lp102
g96
a(igraph
Vertex
p103
(dp104
g14
F0.5
sg8
I00
sg15
g24
sg16
F0.0
sg17
F276.5
sg18
I4903939
sg19
S'16608.8489487'
p105
sg21
F0.5
sbasg26
I00
sg27
I00
sg28
I4903859
sg19
S'16608.8590751'
p106
sba(igraph
Edge
p107
(dp108
g7
I1
sg8
I00
sg9
I5
sg10
(lp109
g103
a(igraph
Vertex
p110
(dp111
g14
F0.75
sg8
I01
sg15
I0
sg16
F0.0
sg17
F213.25
sg18
I4903941
sg19
S'16608.8491671'
p112
sg21
F0.5
sbasg26
I00
sg27
I00
sg28
I4903860
sg19
S'16608.8601434'
p113
sba(igraph
Edge
p114
(dp115
g7
I1
sg8
I00
sg9
I5
sg10
(lp116
g110
a(igraph
Vertex
p117
(dp118
g14
F1.0
sg8
I00
sg15
g24
sg16
F0.0
sg17
F150.0
sg18
I4903943
sg19
S'16608.8493931'
p119
sg21
F0.5
sbasg26
I00
sg27
I00
sg28
I4903861
sg19
S'16608.8608379'
p120
sba(igraph
Edge
p121
(dp122
g7
I1
sg8
I00
sg9
I5
sg10
(lp123
g117
ag93
asg26
I00
sg27
I00
sg28
I4903862
sg19
S'16608.8615609'
p124
sba(igraph
Edge
p125
(dp126
g7
I1
sg8
I00
sg9
I5
sg10
(lp127
(igraph
Vertex
p128
(dp129
g14
F0.0
sg8
I00
sg15
g24
sg16
F75.0
sg17
F403.0
sg18
I4903944
sg19
S'16608.8496356'
p130
sg21
F0.75
sba(igraph
Vertex
p131
(dp132
g14
F0.25
sg8
I00
sg15
g24
sg16
F75.0
sg17
F339.75
sg18
I4903945
sg19
S'16608.8498954'
p133
sg21
F0.75
sbasg26
I00
sg27
I00
sg28
I4903863
sg19
S'16608.8623258'
p134
sba(igraph
Edge
p135
(dp136
g7
I1
sg8
I00
sg9
I5
sg10
(lp137
g131
a(igraph
Vertex
p138
(dp139
g14
F0.5
sg8
I01
sg15
I0
sg16
F75.0
sg17
F276.5
sg18
I4903947
sg19
S'16608.8501703'
p140
sg21
F0.75
sbasg26
I00
sg27
I00
sg28
I4903864
sg19
S'16608.8631351'
p141
sba(igraph
Edge
p142
(dp143
g7
I1
sg8
I00
sg9
I5
sg10
(lp144
g138
a(igraph
Vertex
p145
(dp146
g14
F0.75
sg8
I00
sg15
g24
sg16
F75.0
sg17
F213.25
sg18
I4903949
sg19
S'16608.8504606'
p147
sg21
F0.75
sbasg26
I00
sg27
I00
sg28
I4903865
sg19
S'16608.8640229'
p148
sba(igraph
Edge
p149
(dp150
g7
I1
sg8
I00
sg9
I5
sg10
(lp151
g145
a(igraph
Vertex
p152
(dp153
g14
F1.0
sg8
I00
sg15
g24
sg16
F75.0
sg17
F150.0
sg18
I4903950
sg19
S'16608.8507986'
p154
sg21
F0.75
sbasg26
I00
sg27
I00
sg28
I4903866
sg19
S'16608.8649309'
p155
sba(igraph
Edge
p156
(dp157
g7
I1
sg8
I00
sg9
I5
sg10
(lp158
g152
ag128
asg26
I00
sg27
I00
sg28
I4903867
sg19
S'16608.8658774'
p159
sba(igraph
Edge
p160
(dp161
g7
I1
sg8
I00
sg9
I5
sg10
(lp162
(igraph
Vertex
p163
(dp164
g14
F0.0
sg8
I00
sg15
g24
sg16
F150.0
sg17
F403.0
sg18
I4903951
sg19
S'16608.8511526'
p165
sg21
F1.0
sba(igraph
Vertex
p166
(dp167
g14
F0.25
sg8
I00
sg15
g24
sg16
F150.0
sg17
F339.75
sg18
I4903952
sg19
S'16608.8514951'
p168
sg21
F1.0
sbasg26
I00
sg27
I00
sg28
I4903868
sg19
S'16608.8668702'
p169
sba(igraph
Edge
p170
(dp171
g7
I1
sg8
I00
sg9
I5
sg10
(lp172
g166
a(igraph
Vertex
p173
(dp174
g14
F0.5
sg8
I00
sg15
g24
sg16
F150.0
sg17
F276.5
sg18
I4903953
sg19
S'16608.8518602'
p175
sg21
F1.0
sbasg26
I00
sg27
I00
sg28
I4903869
sg19
S'16608.8680223'
p176
sba(igraph
Edge
p177
(dp178
g7
I1
sg8
I00
sg9
I5
sg10
(lp179
g173
a(igraph
Vertex
p180
(dp181
g14
F0.75
sg8
I00
sg15
g24
sg16
F150.0
sg17
F213.25
sg18
I4903954
sg19
S'16608.8522379'
p182
sg21
F1.0
sbasg26
I00
sg27
I00
sg28
I4903870
sg19
S'16608.8692141'
p183
sba(igraph
Edge
p184
(dp185
g7
I1
sg8
I00
sg9
I5
sg10
(lp186
g180
a(igraph
Vertex
p187
(dp188
g14
F1.0
sg8
I01
sg15
I0
sg16
F150.0
sg17
F150.0
sg18
I4903956
sg19
S'16608.8526243'
p189
sg21
F1.0
sbasg26
I00
sg27
I00
sg28
I4903871
sg19
S'16608.8703536'
p190
sba(igraph
Edge
p191
(dp192
g7
I1
sg8
I00
sg9
I5
sg10
(lp193
g187
ag163
asg26
I00
sg27
I00
sg28
I4903872
sg19
S'16608.8715636'
p194
sba(igraph
Edge
p195
(dp196
g7
I1
sg8
I00
sg9
I5
sg10
(lp197
g12
ag58
asg26
I00
sg27
I00
sg28
I4903873
sg19
S'16608.8727958'
p198
sba(igraph
Edge
p199
(dp200
g7
I1
sg8
I00
sg9
I5
sg10
(lp201
g22
ag68
asg26
I00
sg27
I00
sg28
I4903874
sg19
S'16608.8740711'
p202
sba(igraph
Edge
p203
(dp204
g7
I1
sg8
I00
sg9
I5
sg10
(lp205
g33
ag68
asg26
I00
sg27
I00
sg28
I4903875
sg19
S'16608.875687'
p206
sba(igraph
Edge
p207
(dp208
g7
I1
sg8
I00
sg9
I5
sg10
(lp209
g40
ag82
asg26
I00
sg27
I00
sg28
I4903876
sg19
S'16608.8771523'
p210
sba(igraph
Edge
p211
(dp212
g7
I1
sg8
I00
sg9
I5
sg10
(lp213
g47
ag82
asg26
I00
sg27
I00
sg28
I4903877
sg19
S'16608.8786689'
p214
sba(igraph
Edge
p215
(dp216
g7
I1
sg8
I00
sg9
I5
sg10
(lp217
g12
ag61
asg26
I00
sg27
I00
sg28
I4903878
sg19
S'16608.8801789'
p218
sba(igraph
Edge
p219
(dp220
g7
I1
sg8
I00
sg9
I5
sg10
(lp221
g22
ag61
asg26
I00
sg27
I00
sg28
I4903879
sg19
S'16608.8816883'
p222
sba(igraph
Edge
p223
(dp224
g7
I1
sg8
I00
sg9
I5
sg10
(lp225
g33
ag75
asg26
I00
sg27
I00
sg28
I4903880
sg19
S'16608.8832871'
p226
sba(igraph
Edge
p227
(dp228
g7
I1
sg8
I00
sg9
I5
sg10
(lp229
g40
ag75
asg26
I00
sg27
I00
sg28
I4903881
sg19
S'16608.8848795'
p230
sba(igraph
Edge
p231
(dp232
g7
I1
sg8
I00
sg9
I5
sg10
(lp233
g47
ag58
asg26
I00
sg27
I00
sg28
I4903882
sg19
S'16608.8866515'
p234
sba(igraph
Edge
p235
(dp236
g7
I1
sg8
I00
sg9
I5
sg10
(lp237
g12
ag163
asg26
I00
sg27
I00
sg28
I4903883
sg19
S'16608.8885459'
p238
sba(igraph
Edge
p239
(dp240
g7
I1
sg8
I00
sg9
I5
sg10
(lp241
g22
ag163
asg26
I00
sg27
I00
sg28
I4903884
sg19
S'16608.8902983'
p242
sba(igraph
Edge
p243
(dp244
g7
I1
sg8
I00
sg9
I5
sg10
(lp245
g33
ag173
asg26
I00
sg27
I00
sg28
I4903885
sg19
S'16608.8921639'
p246
sba(igraph
Edge
p247
(dp248
g7
I1
sg8
I00
sg9
I5
sg10
(lp249
g40
ag173
asg26
I00
sg27
I00
sg28
I4903886
sg19
S'16608.894131'
p250
sba(igraph
Edge
p251
(dp252
g7
I1
sg8
I00
sg9
I5
sg10
(lp253
g47
ag187
asg26
I00
sg27
I00
sg28
I4903887
sg19
S'16608.8961835'
p254
sba(igraph
Edge
p255
(dp256
g7
I1
sg8
I00
sg9
I5
sg10
(lp257
g12
ag187
asg26
I00
sg27
I00
sg28
I4903888
sg19
S'16608.8982262'
p258
sba(igraph
Edge
p259
(dp260
g7
I1
sg8
I00
sg9
I5
sg10
(lp261
g22
ag166
asg26
I00
sg27
I00
sg28
I4903889
sg19
S'16608.9003703'
p262
sba(igraph
Edge
p263
(dp264
g7
I1
sg8
I00
sg9
I5
sg10
(lp265
g33
ag166
asg26
I00
sg27
I00
sg28
I4903890
sg19
S'16608.9024189'
p266
sba(igraph
Edge
p267
(dp268
g7
I1
sg8
I00
sg9
I5
sg10
(lp269
g40
ag180
asg26
I00
sg27
I00
sg28
I4903891
sg19
S'16608.9045664'
p270
sba(igraph
Edge
p271
(dp272
g7
I1
sg8
I00
sg9
I5
sg10
(lp273
g47
ag180
asg26
I00
sg27
I00
sg28
I4903892
sg19
S'16608.9067267'
p274
sba(igraph
Edge
p275
(dp276
g7
I1
sg8
I00
sg9
I5
sg10
(lp277
g58
ag93
asg26
I00
sg27
I00
sg28
I4903893
sg19
S'16608.9091602'
p278
sba(igraph
Edge
p279
(dp280
g7
I1
sg8
I00
sg9
I5
sg10
(lp281
g61
ag103
asg26
I00
sg27
I00
sg28
I4903894
sg19
S'16608.9114312'
p282
sba(igraph
Edge
p283
(dp284
g7
I1
sg8
I00
sg9
I5
sg10
(lp285
g68
ag103
asg26
I00
sg27
I00
sg28
I4903895
sg19
S'16608.9137441'
p286
sba(igraph
Edge
p287
(dp288
g7
I1
sg8
I00
sg9
I5
sg10
(lp289
g75
ag117
asg26
I00
sg27
I00
sg28
I4903896
sg19
S'16608.9161025'
p290
sba(igraph
Edge
p291
(dp292
g7
I1
sg8
I00
sg9
I5
sg10
(lp293
g82
ag117
asg26
I00
sg27
I00
sg28
I4903897
sg19
S'16608.9184776'
p294
sba(igraph
Edge
p295
(dp296
g7
I1
sg8
I00
sg9
I5
sg10
(lp297
g58
ag96
asg26
I00
sg27
I00
sg28
I4903898
sg19
S'16608.9209718'
p298
sba(igraph
Edge
p299
(dp300
g7
I1
sg8
I00
sg9
I5
sg10
(lp301
g61
ag96
asg26
I00
sg27
I00
sg28
I4903899
sg19
S'16608.9234478'
p302
sba(igraph
Edge
p303
(dp304
g7
I1
sg8
I00
sg9
I5
sg10
(lp305
g68
ag110
asg26
I00
sg27
I00
sg28
I4903900
sg19
S'16608.9259258'
p306
sba(igraph
Edge
p307
(dp308
g7
I1
sg8
I00
sg9
I5
sg10
(lp309
g75
ag110
asg26
I00
sg27
I00
sg28
I4903901
sg19
S'16608.9285233'
p310
sba(igraph
Edge
p311
(dp312
g7
I1
sg8
I00
sg9
I5
sg10
(lp313
g82
ag93
asg26
I00
sg27
I00
sg28
I4903902
sg19
S'16608.9312371'
p314
sba(igraph
Edge
p315
(dp316
g7
I1
sg8
I00
sg9
I5
sg10
(lp317
g93
ag128
asg26
I00
sg27
I00
sg28
I4903903
sg19
S'16608.9339058'
p318
sba(igraph
Edge
p319
(dp320
g7
I1
sg8
I00
sg9
I5
sg10
(lp321
g96
ag138
asg26
I00
sg27
I00
sg28
I4903904
sg19
S'16608.9366682'
p322
sba(igraph
Edge
p323
(dp324
g7
I1
sg8
I00
sg9
I5
sg10
(lp325
g103
ag138
asg26
I00
sg27
I00
sg28
I4903905
sg19
S'16608.9394775'
p326
sba(igraph
Edge
p327
(dp328
g7
I1
sg8
I00
sg9
I5
sg10
(lp329
g110
ag152
asg26
I00
sg27
I00
sg28
I4903906
sg19
S'16608.942355'
p330
sba(igraph
Edge
p331
(dp332
g7
I1
sg8
I00
sg9
I5
sg10
(lp333
g117
ag152
asg26
I00
sg27
I00
sg28
I4903907
sg19
S'16608.9452578'
p334
sba(igraph
Edge
p335
(dp336
g7
I1
sg8
I00
sg9
I5
sg10
(lp337
g93
ag131
asg26
I00
sg27
I00
sg28
I4903908
sg19
S'16608.9481853'
p338
sba(igraph
Edge
p339
(dp340
g7
I1
sg8
I00
sg9
I5
sg10
(lp341
g96
ag131
asg26
I00
sg27
I00
sg28
I4903909
sg19
S'16608.9510899'
p342
sba(igraph
Edge
p343
(dp344
g7
I1
sg8
I00
sg9
I5
sg10
(lp345
g103
ag145
asg26
I00
sg27
I00
sg28
I4903910
sg19
S'16608.9549161'
p346
sba(igraph
Edge
p347
(dp348
g7
I1
sg8
I00
sg9
I5
sg10
(lp349
g110
ag145
asg26
I00
sg27
I00
sg28
I4903911
sg19
S'16608.9581788'
p350
sba(igraph
Edge
p351
(dp352
g7
I1
sg8
I00
sg9
I5
sg10
(lp353
g117
ag128
asg26
I00
sg27
I00
sg28
I4903912
sg19
S'16608.9613638'
p354
sba(igraph
Edge
p355
(dp356
g7
I1
sg8
I00
sg9
I5
sg10
(lp357
g128
ag163
asg26
I00
sg27
I00
sg28
I4903913
sg19
S'16608.9646341'
p358
sba(igraph
Edge
p359
(dp360
g7
I1
sg8
I00
sg9
I5
sg10
(lp361
g131
ag173
asg26
I00
sg27
I00
sg28
I4903914
sg19
S'16608.9678719'
p362
sba(igraph
Edge
p363
(dp364
g7
I1
sg8
I00
sg9
I5
sg10
(lp365
g138
ag173
asg26
I00
sg27
I00
sg28
I4903915
sg19
S'16608.9711103'
p366
sba(igraph
Edge
p367
(dp368
g7
I1
sg8
I00
sg9
I5
sg10
(lp369
g145
ag187
asg26
I00
sg27
I00
sg28
I4903916
sg19
S'16608.9744998'
p370
sba(igraph
Edge
p371
(dp372
g7
I1
sg8
I00
sg9
I5
sg10
(lp373
g152
ag187
asg26
I00
sg27
I00
sg28
I4903917
sg19
S'16608.978007'
p374
sba(igraph
Edge
p375
(dp376
g7
I1
sg8
I00
sg9
I5
sg10
(lp377
g128
ag166
asg26
I00
sg27
I00
sg28
I4903918
sg19
S'16608.9813803'
p378
sba(igraph
Edge
p379
(dp380
g7
I1
sg8
I00
sg9
I5
sg10
(lp381
g131
ag166
asg26
I00
sg27
I00
sg28
I4903919
sg19
S'16608.9850559'
p382
sba(igraph
Edge
p383
(dp384
g7
I1
sg8
I00
sg9
I5
sg10
(lp385
g138
ag180
asg26
I00
sg27
I00
sg28
I4903920
sg19
S'16608.9868528'
p386
sba(igraph
Edge
p387
(dp388
g7
I1
sg8
I00
sg9
I5
sg10
(lp389
g145
ag180
asg26
I00
sg27
I00
sg28
I4903921
sg19
S'16608.9885097'
p390
sba(igraph
Edge
p391
(dp392
g7
I1
sg8
I00
sg9
I5
sg10
(lp393
g152
ag163
asg26
I00
sg27
I00
sg28
I4903922
sg19
S'16608.990137'
p394
sbasS'vertices'
p395
(lp396
g12
ag22
ag33
ag40
ag47
ag58
ag61
ag68
ag75
ag82
ag93
ag96
ag103
ag110
ag117
ag128
ag131
ag138
ag145
ag152
ag163
ag166
ag173
ag180
ag187
asS'tags'
p397
(lp398
sb.