(igraph
Graph
p0
(dp1
S'labelingConstraints'
p2
I-1
sS'edges'
p3
(lp4
(igraph
Edge
p5
(dp6
S'direction'
p7
I1
sS'selected'
p8
I00
sS'height'
p9
I5
sS'vs'
p10
(lp11
(igraph
Vertex
p12
(dp13
S'xnorm'
p14
F0.25
sg8
I00
sS'label'
p15
S'NULL'
p16
sS'y'
p17
F-150.0
sS'x'
p18
F321.0
sS'circle'
p19
I4895267
sS'id'
p20
S'16456.2864501'
p21
sS'ynorm'
p22
F0.0
sba(igraph
Vertex
p23
(dp24
g14
F0.5
sg8
I00
sg15
g16
sg17
F-150.0
sg18
F254.0
sg19
I4895268
sg20
S'16456.2864708'
p25
sg22
F0.0
sbasS'wrap'
p26
I00
sS'curved'
p27
I00
sS'line'
p28
I4895195
sg20
S'16456.290402'
p29
sba(igraph
Edge
p30
(dp31
g7
I1
sg8
I00
sg9
I5
sg10
(lp32
g23
a(igraph
Vertex
p33
(dp34
g14
F0.75
sg8
I00
sg15
g16
sg17
F-150.0
sg18
F187.0
sg19
I4895269
sg20
S'16456.2865258'
p35
sg22
F0.0
sbasg26
I00
sg27
I00
sg28
I4895196
sg20
S'16456.2904788'
p36
sba(igraph
Edge
p37
(dp38
g7
I1
sg8
I00
sg9
I5
sg10
(lp39
g33
a(igraph
Vertex
p40
(dp41
g14
F1.0
sg8
I00
sg15
g16
sg17
F-150.0
sg18
F120.0
sg19
I4895270
sg20
S'16456.2865596'
p42
sg22
F0.0
sbasg26
I00
sg27
I00
sg28
I4895197
sg20
S'16456.2905758'
p43
sba(igraph
Edge
p44
(dp45
g7
I1
sg8
I00
sg9
I5
sg10
(lp46
(igraph
Vertex
p47
(dp48
g14
F0.25
sg8
I00
sg15
g16
sg17
F-90.0
sg18
F321.0
sg19
I4895271
sg20
S'16456.2866504'
p49
sg22
F0.20000000000000001
sba(igraph
Vertex
p50
(dp51
g14
F0.5
sg8
I00
sg15
I0
sg17
F-90.0
sg18
F254.0
sg19
I4895272
sg20
S'16456.2867068'
p52
sg22
F0.20000000000000001
sbasg26
I00
sg27
I00
sg28
I4895198
sg20
S'16456.290994'
p53
sba(igraph
Edge
p54
(dp55
g7
I1
sg8
I00
sg9
I5
sg10
(lp56
g50
a(igraph
Vertex
p57
(dp58
g14
F0.75
sg8
I00
sg15
g16
sg17
F-90.0
sg18
F187.0
sg19
I4895274
sg20
S'16456.2867716'
p59
sg22
F0.20000000000000001
sbasg26
I00
sg27
I00
sg28
I4895199
sg20
S'16456.2911753'
p60
sba(igraph
Edge
p61
(dp62
g7
I1
sg8
I00
sg9
I5
sg10
(lp63
g57
a(igraph
Vertex
p64
(dp65
g14
F1.0
sg8
I00
sg15
g16
sg17
F-90.0
sg18
F120.0
sg19
I4895275
sg20
S'16456.2868437'
p66
sg22
F0.20000000000000001
sbasg26
I00
sg27
I00
sg28
I4895200
sg20
S'16456.2913798'
p67
sba(igraph
Edge
p68
(dp69
g7
I1
sg8
I00
sg9
I5
sg10
(lp70
(igraph
Vertex
p71
(dp72
g14
F0.25
sg8
I00
sg15
I0
sg17
F-30.0
sg18
F321.0
sg19
I4895276
sg20
S'16456.2870574'
p73
sg22
F0.40000000000000002
sba(igraph
Vertex
p74
(dp75
g14
F0.5
sg8
I00
sg15
g16
sg17
F-30.0
sg18
F254.0
sg19
I4895278
sg20
S'16456.2871547'
p76
sg22
F0.40000000000000002
sbasg26
I00
sg27
I00
sg28
I4895201
sg20
S'16456.2921201'
p77
sba(igraph
Edge
p78
(dp79
g7
I1
sg8
I00
sg9
I5
sg10
(lp80
g74
a(igraph
Vertex
p81
(dp82
g14
F0.75
sg8
I00
sg15
g16
sg17
F-30.0
sg18
F187.0
sg19
I4895279
sg20
S'16456.2872591'
p83
sg22
F0.40000000000000002
sbasg26
I00
sg27
I00
sg28
I4895202
sg20
S'16456.2924333'
p84
sba(igraph
Edge
p85
(dp86
g7
I1
sg8
I00
sg9
I5
sg10
(lp87
g81
a(igraph
Vertex
p88
(dp89
g14
F1.0
sg8
I00
sg15
g16
sg17
F-30.0
sg18
F120.0
sg19
I4895280
sg20
S'16456.2873765'
p90
sg22
F0.40000000000000002
sbasg26
I00
sg27
I00
sg28
I4895203
sg20
S'16456.2927481'
p91
sba(igraph
Edge
p92
(dp93
g7
I1
sg8
I00
sg9
I5
sg10
(lp94
(igraph
Vertex
p95
(dp96
g14
F0.25
sg8
I00
sg15
g16
sg17
F30.0
sg18
F321.0
sg19
I4895281
sg20
S'16456.2876231'
p97
sg22
F0.59999999999999998
sba(igraph
Vertex
p98
(dp99
g14
F0.5
sg8
I00
sg15
g16
sg17
F30.0
sg18
F254.0
sg19
I4895282
sg20
S'16456.2877578'
p100
sg22
F0.59999999999999998
sbasg26
I00
sg27
I00
sg28
I4895204
sg20
S'16456.2938533'
p101
sba(igraph
Edge
p102
(dp103
g7
I1
sg8
I00
sg9
I5
sg10
(lp104
g98
a(igraph
Vertex
p105
(dp106
g14
F0.75
sg8
I00
sg15
I0
sg17
F30.0
sg18
F187.0
sg19
I4895283
sg20
S'16456.2879008'
p107
sg22
F0.59999999999999998
sbasg26
I00
sg27
I00
sg28
I4895205
sg20
S'16456.2942673'
p108
sba(igraph
Edge
p109
(dp110
g7
I1
sg8
I00
sg9
I5
sg10
(lp111
g105
a(igraph
Vertex
p112
(dp113
g14
F1.0
sg8
I00
sg15
g16
sg17
F30.0
sg18
F120.0
sg19
I4895285
sg20
S'16456.2880514'
p114
sg22
F0.59999999999999998
sbasg26
I00
sg27
I00
sg28
I4895206
sg20
S'16456.2946925'
p115
sba(igraph
Edge
p116
(dp117
g7
I1
sg8
I00
sg9
I5
sg10
(lp118
(igraph
Vertex
p119
(dp120
g14
F0.25
sg8
I00
sg15
g16
sg17
F90.0
sg18
F321.0
sg19
I4895286
sg20
S'16456.2884408'
p121
sg22
F0.80000000000000004
sba(igraph
Vertex
p122
(dp123
g14
F0.5
sg8
I00
sg15
g16
sg17
F90.0
sg18
F254.0
sg19
I4895287
sg20
S'16456.2886199'
p124
sg22
F0.80000000000000004
sbasg26
I00
sg27
I00
sg28
I4895207
sg20
S'16456.2960971'
p125
sba(igraph
Edge
p126
(dp127
g7
I1
sg8
I00
sg9
I5
sg10
(lp128
g122
a(igraph
Vertex
p129
(dp130
g14
F0.75
sg8
I00
sg15
g16
sg17
F90.0
sg18
F187.0
sg19
I4895288
sg20
S'16456.2888032'
p131
sg22
F0.80000000000000004
sbasg26
I00
sg27
I00
sg28
I4895208
sg20
S'16456.2966022'
p132
sba(igraph
Edge
p133
(dp134
g7
I1
sg8
I00
sg9
I5
sg10
(lp135
g129
a(igraph
Vertex
p136
(dp137
g14
F1.0
sg8
I00
sg15
g16
sg17
F90.0
sg18
F120.0
sg19
I4895289
sg20
S'16456.2889948'
p138
sg22
F0.80000000000000004
sbasg26
I00
sg27
I00
sg28
I4895209
sg20
S'16456.2971353'
p139
sba(igraph
Edge
p140
(dp141
g7
I1
sg8
I00
sg9
I5
sg10
(lp142
(igraph
Vertex
p143
(dp144
g14
F0.25
sg8
I00
sg15
g16
sg17
F150.0
sg18
F321.0
sg19
I4895290
sg20
S'16456.2894019'
p145
sg22
F1.0
sba(igraph
Vertex
p146
(dp147
g14
F0.5
sg8
I00
sg15
g16
sg17
F150.0
sg18
F254.0
sg19
I4895291
sg20
S'16456.2896198'
p148
sg22
F1.0
sbasg26
I00
sg27
I00
sg28
I4895210
sg20
S'16456.2989299'
p149
sba(igraph
Edge
p150
(dp151
g7
I1
sg8
I00
sg9
I5
sg10
(lp152
g146
a(igraph
Vertex
p153
(dp154
g14
F0.75
sg8
I00
sg15
g16
sg17
F150.0
sg18
F187.0
sg19
I4895292
sg20
S'16456.2898461'
p155
sg22
F1.0
sbasg26
I00
sg27
I00
sg28
I4895211
sg20
S'16456.2995411'
p156
sba(igraph
Edge
p157
(dp158
g7
I1
sg8
I00
sg9
I5
sg10
(lp159
g153
a(igraph
Vertex
p160
(dp161
g14
F1.0
sg8
I00
sg15
I0
sg17
F150.0
sg18
F120.0
sg19
I4895293
sg20
S'16456.2900771'
p162
sg22
F1.0
sbasg26
I00
sg27
I00
sg28
I4895212
sg20
S'16456.3002133'
p163
sba(igraph
Edge
p164
(dp165
g7
I1
sg8
I00
sg9
I5
sg10
(lp166
g12
ag50
asg26
I00
sg27
I00
sg28
I4895213
sg20
S'16456.3022474'
p167
sba(igraph
Edge
p168
(dp169
g7
I1
sg8
I00
sg9
I5
sg10
(lp170
g23
ag50
asg26
I00
sg27
I00
sg28
I4895214
sg20
S'16456.3029645'
p171
sba(igraph
Edge
p172
(dp173
g7
I1
sg8
I00
sg9
I5
sg10
(lp174
g33
ag64
asg26
I00
sg27
I00
sg28
I4895215
sg20
S'16456.3037073'
p175
sba(igraph
Edge
p176
(dp177
g7
I1
sg8
I00
sg9
I5
sg10
(lp178
g40
ag64
asg26
I00
sg27
I00
sg28
I4895216
sg20
S'16456.3044839'
p179
sba(igraph
Edge
p180
(dp181
g7
I1
sg8
I00
sg9
I5
sg10
(lp182
g12
ag47
asg26
I00
sg27
I00
sg28
I4895217
sg20
S'16456.306064'
p183
sba(igraph
Edge
p184
(dp185
g7
I1
sg8
I00
sg9
I5
sg10
(lp186
g23
ag57
asg26
I00
sg27
I00
sg28
I4895218
sg20
S'16456.3068879'
p187
sba(igraph
Edge
p188
(dp189
g7
I1
sg8
I00
sg9
I5
sg10
(lp190
g33
ag57
asg26
I00
sg27
I00
sg28
I4895219
sg20
S'16456.3077307'
p191
sba(igraph
Edge
p192
(dp193
g7
I1
sg8
I00
sg9
I5
sg10
(lp194
g23
ag146
asg26
I00
sg27
I00
sg28
I4895220
sg20
S'16456.3114209'
p195
sba(igraph
Edge
p196
(dp197
g7
I1
sg8
I00
sg9
I5
sg10
(lp198
g33
ag146
asg26
I00
sg27
I00
sg28
I4895221
sg20
S'16456.3123894'
p199
sba(igraph
Edge
p200
(dp201
g7
I1
sg8
I00
sg9
I5
sg10
(lp202
g40
ag160
asg26
I00
sg27
I00
sg28
I4895222
sg20
S'16456.3133745'
p203
sba(igraph
Edge
p204
(dp205
g7
I1
sg8
I00
sg9
I5
sg10
(lp206
g12
ag143
asg26
I00
sg27
I00
sg28
I4895223
sg20
S'16456.3154267'
p207
sba(igraph
Edge
p208
(dp209
g7
I1
sg8
I00
sg9
I5
sg10
(lp210
g23
ag143
asg26
I00
sg27
I00
sg28
I4895224
sg20
S'16456.316476'
p211
sba(igraph
Edge
p212
(dp213
g7
I1
sg8
I00
sg9
I5
sg10
(lp214
g33
ag153
asg26
I00
sg27
I00
sg28
I4895225
sg20
S'16456.3175468'
p215
sba(igraph
Edge
p216
(dp217
g7
I1
sg8
I00
sg9
I5
sg10
(lp218
g40
ag153
asg26
I00
sg27
I00
sg28
I4895226
sg20
S'16456.3186438'
p219
sba(igraph
Edge
p220
(dp221
g7
I1
sg8
I00
sg9
I5
sg10
(lp222
g47
ag74
asg26
I00
sg27
I00
sg28
I4895227
sg20
S'16456.3209212'
p223
sba(igraph
Edge
p224
(dp225
g7
I1
sg8
I00
sg9
I5
sg10
(lp226
g50
ag74
asg26
I00
sg27
I00
sg28
I4895228
sg20
S'16456.3220644'
p227
sba(igraph
Edge
p228
(dp229
g7
I1
sg8
I00
sg9
I5
sg10
(lp230
g57
ag88
asg26
I00
sg27
I00
sg28
I4895229
sg20
S'16456.3232268'
p231
sba(igraph
Edge
p232
(dp233
g7
I1
sg8
I00
sg9
I5
sg10
(lp234
g64
ag88
asg26
I00
sg27
I00
sg28
I4895230
sg20
S'16456.3244085'
p235
sba(igraph
Edge
p236
(dp237
g7
I1
sg8
I00
sg9
I5
sg10
(lp238
g47
ag71
asg26
I00
sg27
I00
sg28
I4895231
sg20
S'16456.3268943'
p239
sba(igraph
Edge
p240
(dp241
g7
I1
sg8
I00
sg9
I5
sg10
(lp242
g50
ag81
asg26
I00
sg27
I00
sg28
I4895232
sg20
S'16456.3281571'
p243
sba(igraph
Edge
p244
(dp245
g7
I1
sg8
I00
sg9
I5
sg10
(lp246
g57
ag81
asg26
I00
sg27
I00
sg28
I4895233
sg20
S'16456.3295058'
p247
sba(igraph
Edge
p248
(dp249
g7
I1
sg8
I00
sg9
I5
sg10
(lp250
g71
ag98
asg26
I00
sg27
I00
sg28
I4895234
sg20
S'16456.3335346'
p251
sba(igraph
Edge
p252
(dp253
g7
I1
sg8
I00
sg9
I5
sg10
(lp254
g74
ag98
asg26
I00
sg27
I00
sg28
I4895235
sg20
S'16456.3349029'
p255
sba(igraph
Edge
p256
(dp257
g7
I1
sg8
I00
sg9
I5
sg10
(lp258
g81
ag112
asg26
I00
sg27
I00
sg28
I4895236
sg20
S'16456.33634'
p259
sba(igraph
Edge
p260
(dp261
g7
I1
sg8
I00
sg9
I5
sg10
(lp262
g88
ag112
asg26
I00
sg27
I00
sg28
I4895237
sg20
S'16456.3377561'
p263
sba(igraph
Edge
p264
(dp265
g7
I1
sg8
I00
sg9
I5
sg10
(lp266
g71
ag95
asg26
I00
sg27
I00
sg28
I4895238
sg20
S'16456.340681'
p267
sba(igraph
Edge
p268
(dp269
g7
I1
sg8
I00
sg9
I5
sg10
(lp270
g74
ag105
asg26
I00
sg27
I00
sg28
I4895239
sg20
S'16456.3421452'
p271
sba(igraph
Edge
p272
(dp273
g7
I1
sg8
I00
sg9
I5
sg10
(lp274
g81
ag105
asg26
I00
sg27
I00
sg28
I4895240
sg20
S'16456.3436266'
p275
sba(igraph
Edge
p276
(dp277
g7
I1
sg8
I00
sg9
I5
sg10
(lp278
g95
ag122
asg26
I00
sg27
I00
sg28
I4895241
sg20
S'16456.3482529'
p279
sba(igraph
Edge
p280
(dp281
g7
I1
sg8
I00
sg9
I5
sg10
(lp282
g98
ag122
asg26
I00
sg27
I00
sg28
I4895242
sg20
S'16456.3498313'
p283
sba(igraph
Edge
p284
(dp285
g7
I1
sg8
I00
sg9
I5
sg10
(lp286
g105
ag136
asg26
I00
sg27
I00
sg28
I4895243
sg20
S'16456.3514435'
p287
sba(igraph
Edge
p288
(dp289
g7
I1
sg8
I00
sg9
I5
sg10
(lp290
g112
ag136
asg26
I00
sg27
I00
sg28
I4895244
sg20
S'16456.3531941'
p291
sba(igraph
Edge
p292
(dp293
g7
I1
sg8
I00
sg9
I5
sg10
(lp294
g95
ag119
asg26
I00
sg27
I00
sg28
I4895245
sg20
S'16456.3564998'
p295
sba(igraph
Edge
p296
(dp297
g7
I1
sg8
I00
sg9
I5
sg10
(lp298
g98
ag129
asg26
I00
sg27
I00
sg28
I4895246
sg20
S'16456.3582461'
p299
sba(igraph
Edge
p300
(dp301
g7
I1
sg8
I00
sg9
I5
sg10
(lp302
g105
ag129
asg26
I00
sg27
I00
sg28
I4895247
sg20
S'16456.3599918'
p303
sba(igraph
Edge
p304
(dp305
g7
I1
sg8
I00
sg9
I5
sg10
(lp306
g119
ag146
asg26
I00
sg27
I00
sg28
I4895248
sg20
S'16456.3652785'
p307
sba(igraph
Edge
p308
(dp309
g7
I1
sg8
I00
sg9
I5
sg10
(lp310
g122
ag146
asg26
I00
sg27
I00
sg28
I4895249
sg20
S'16456.3671081'
p311
sba(igraph
Edge
p312
(dp313
g7
I1
sg8
I00
sg9
I5
sg10
(lp314
g129
ag160
asg26
I00
sg27
I00
sg28
I4895250
sg20
S'16456.3689829'
p315
sba(igraph
Edge
p316
(dp317
g7
I1
sg8
I00
sg9
I5
sg10
(lp318
g136
ag160
asg26
I00
sg27
I00
sg28
I4895251
sg20
S'16456.3708111'
p319
sba(igraph
Edge
p320
(dp321
g7
I1
sg8
I00
sg9
I5
sg10
(lp322
g119
ag143
asg26
I00
sg27
I00
sg28
I4895252
sg20
S'16456.3749253'
p323
sba(igraph
Edge
p324
(dp325
g7
I1
sg8
I00
sg9
I5
sg10
(lp326
g122
ag153
asg26
I00
sg27
I00
sg28
I4895253
sg20
S'16456.3768364'
p327
sba(igraph
Edge
p328
(dp329
g7
I1
sg8
I00
sg9
I5
sg10
(lp330
g129
ag153
asg26
I00
sg27
I00
sg28
I4895254
sg20
S'16456.3787479'
p331
sba(igraph
Edge
p332
(dp333
g7
I1
sg8
I00
sg9
I5
sg10
(lp334
g160
ag143
asg26
I00
sg27
I00
sg28
I4895255
sg20
S'16525.3328719'
p335
sba(igraph
Edge
p336
(dp337
g7
I1
sg8
I00
sg9
I5
sg10
(lp338
g143
ag136
asg26
I00
sg27
I00
sg28
I4895256
sg20
S'16531.7427315'
p339
sba(igraph
Edge
p340
(dp341
g7
I1
sg8
I00
sg9
I5
sg10
(lp342
g136
ag119
asg26
I00
sg27
I00
sg28
I4895257
sg20
S'16533.1727856'
p343
sba(igraph
Edge
p344
(dp345
g7
I1
sg8
I00
sg9
I5
sg10
(lp346
g119
ag112
asg26
I00
sg27
I00
sg28
I4895258
sg20
S'16534.4262427'
p347
sba(igraph
Edge
p348
(dp349
g7
I1
sg8
I00
sg9
I5
sg10
(lp350
g112
ag95
asg26
I00
sg27
I00
sg28
I4895259
sg20
S'16535.893568'
p351
sba(igraph
Edge
p352
(dp353
g7
I1
sg8
I00
sg9
I5
sg10
(lp354
g95
ag88
asg26
I00
sg27
I00
sg28
I4895260
sg20
S'16537.2715675'
p355
sba(igraph
Edge
p356
(dp357
g7
I1
sg8
I00
sg9
I5
sg10
(lp358
g88
ag71
asg26
I00
sg27
I00
sg28
I4895261
sg20
S'16538.8840179'
p359
sba(igraph
Edge
p360
(dp361
g7
I1
sg8
I00
sg9
I5
sg10
(lp362
g71
ag64
asg26
I00
sg27
I00
sg28
I4895262
sg20
S'16540.5791501'
p363
sba(igraph
Edge
p364
(dp365
g7
I1
sg8
I00
sg9
I5
sg10
(lp366
g64
ag47
asg26
I00
sg27
I00
sg28
I4895263
sg20
S'16542.0720265'
p367
sba(igraph
Edge
p368
(dp369
g7
I1
sg8
I00
sg9
I5
sg10
(lp370
g47
ag40
asg26
I00
sg27
I00
sg28
I4895264
sg20
S'16543.4767491'
p371
sba(igraph
Edge
p372
(dp373
g7
I1
sg8
I00
sg9
I5
sg10
(lp374
g40
ag12
asg26
I00
sg27
I00
sg28
I4895265
sg20
S'16545.0969911'
p375
sba(igraph
Edge
p376
(dp377
g7
I1
sg8
I00
sg9
I5
sg10
(lp378
g12
ag160
asg26
I00
sg27
I00
sg28
I4895266
sg20
S'16547.3900147'
p379
sbasS'vertices'
p380
(lp381
g12
ag23
ag33
ag40
ag47
ag50
ag57
ag64
ag71
ag74
ag81
ag88
ag95
ag98
ag105
ag112
ag119
ag122
ag129
ag136
ag143
ag146
ag153
ag160
asS'tags'
p382
(lp383
sb.