(igraph
Graph
p0
(dp1
S'labelingConstraints'
p2
I-1
sS'edges'
p3
(lp4
(igraph
Edge
p5
(dp6
S'direction'
p7
I1
sS'selected'
p8
I00
sS'height'
p9
I5
sS'vs'
p10
(lp11
(igraph
Vertex
p12
(dp13
S'xnorm'
p14
F0.0
sg8
I01
sS'label'
p15
I0
sS'y'
p16
F-150.0
sS'x'
p17
F388.0
sS'circle'
p18
I4888615
sS'id'
p19
S'16456.2864289'
p20
sS'ynorm'
p21
F0.0
sba(igraph
Vertex
p22
(dp23
g14
F0.25
sg8
I00
sg15
S'NULL'
p24
sg16
F-150.0
sg17
F321.0
sg18
I4888617
sg19
S'16456.2864501'
p25
sg21
F0.0
sbasS'wrap'
p26
I00
sS'curved'
p27
I00
sS'line'
p28
I4888524
sg19
S'16456.2903447'
p29
sba(igraph
Edge
p30
(dp31
g7
I1
sg8
I00
sg9
I5
sg10
(lp32
g22
a(igraph
Vertex
p33
(dp34
g14
F0.5
sg8
I00
sg15
g24
sg16
F-150.0
sg17
F254.0
sg18
I4888618
sg19
S'16456.2864708'
p35
sg21
F0.0
sbasg26
I00
sg27
I00
sg28
I4888525
sg19
S'16456.290402'
p36
sba(igraph
Edge
p37
(dp38
g7
I1
sg8
I00
sg9
I5
sg10
(lp39
g33
a(igraph
Vertex
p40
(dp41
g14
F0.75
sg8
I00
sg15
g24
sg16
F-150.0
sg17
F187.0
sg18
I4888619
sg19
S'16456.2865258'
p42
sg21
F0.0
sbasg26
I00
sg27
I00
sg28
I4888526
sg19
S'16456.2904788'
p43
sba(igraph
Edge
p44
(dp45
g7
I1
sg8
I00
sg9
I5
sg10
(lp46
g40
a(igraph
Vertex
p47
(dp48
g14
F1.0
sg8
I00
sg15
g24
sg16
F-150.0
sg17
F120.0
sg18
I4888620
sg19
S'16456.2865596'
p49
sg21
F0.0
sbasg26
I00
sg27
I00
sg28
I4888527
sg19
S'16456.2905758'
p50
sba(igraph
Edge
p51
(dp52
g7
I1
sg8
I00
sg9
I5
sg10
(lp53
g47
ag12
asg26
I00
sg27
I00
sg28
I4888528
sg19
S'16456.2906934'
p54
sba(igraph
Edge
p55
(dp56
g7
I1
sg8
I00
sg9
I5
sg10
(lp57
(igraph
Vertex
p58
(dp59
g14
F0.0
sg8
I00
sg15
g24
sg16
F-90.0
sg17
F388.0
sg18
I4888621
sg19
S'16456.286601'
p60
sg21
F0.20000000000000001
sba(igraph
Vertex
p61
(dp62
g14
F0.25
sg8
I00
sg15
g24
sg16
F-90.0
sg17
F321.0
sg18
I4888622
sg19
S'16456.2866504'
p63
sg21
F0.20000000000000001
sbasg26
I00
sg27
I00
sg28
I4888529
sg19
S'16456.2908331'
p64
sba(igraph
Edge
p65
(dp66
g7
I1
sg8
I00
sg9
I5
sg10
(lp67
g61
a(igraph
Vertex
p68
(dp69
g14
F0.5
sg8
I00
sg15
g24
sg16
F-90.0
sg17
F254.0
sg18
I4888623
sg19
S'16456.2867068'
p70
sg21
F0.20000000000000001
sbasg26
I00
sg27
I00
sg28
I4888530
sg19
S'16456.290994'
p71
sba(igraph
Edge
p72
(dp73
g7
I1
sg8
I00
sg9
I5
sg10
(lp74
g68
a(igraph
Vertex
p75
(dp76
g14
F0.75
sg8
I00
sg15
g24
sg16
F-90.0
sg17
F187.0
sg18
I4888624
sg19
S'16456.2867716'
p77
sg21
F0.20000000000000001
sbasg26
I00
sg27
I00
sg28
I4888531
sg19
S'16456.2911753'
p78
sba(igraph
Edge
p79
(dp80
g7
I1
sg8
I00
sg9
I5
sg10
(lp81
g75
a(igraph
Vertex
p82
(dp83
g14
F1.0
sg8
I00
sg15
g24
sg16
F-90.0
sg17
F120.0
sg18
I4888625
sg19
S'16456.2868437'
p84
sg21
F0.20000000000000001
sbasg26
I00
sg27
I00
sg28
I4888532
sg19
S'16456.2913798'
p85
sba(igraph
Edge
p86
(dp87
g7
I1
sg8
I00
sg9
I5
sg10
(lp88
g82
ag58
asg26
I00
sg27
I00
sg28
I4888533
sg19
S'16456.2916049'
p89
sba(igraph
Edge
p90
(dp91
g7
I1
sg8
I00
sg9
I5
sg10
(lp92
(igraph
Vertex
p93
(dp94
g14
F0.0
sg8
I00
sg15
g24
sg16
F-30.0
sg17
F388.0
sg18
I4888626
sg19
S'16456.286965'
p95
sg21
F0.40000000000000002
sba(igraph
Vertex
p96
(dp97
g14
F0.25
sg8
I01
sg15
I0
sg16
F-30.0
sg17
F321.0
sg18
I4888628
sg19
S'16456.2870574'
p98
sg21
F0.40000000000000002
sbasg26
I00
sg27
I00
sg28
I4888534
sg19
S'16456.2918522'
p99
sba(igraph
Edge
p100
(dp101
g7
I1
sg8
I00
sg9
I5
sg10
(lp102
g96
a(igraph
Vertex
p103
(dp104
g14
F0.5
sg8
I00
sg15
g24
sg16
F-30.0
sg17
F254.0
sg18
I4888630
sg19
S'16456.2871547'
p105
sg21
F0.40000000000000002
sbasg26
I00
sg27
I00
sg28
I4888535
sg19
S'16456.2921201'
p106
sba(igraph
Edge
p107
(dp108
g7
I1
sg8
I00
sg9
I5
sg10
(lp109
g103
a(igraph
Vertex
p110
(dp111
g14
F0.75
sg8
I00
sg15
g24
sg16
F-30.0
sg17
F187.0
sg18
I4888631
sg19
S'16456.2872591'
p112
sg21
F0.40000000000000002
sbasg26
I00
sg27
I00
sg28
I4888536
sg19
S'16456.2924333'
p113
sba(igraph
Edge
p114
(dp115
g7
I1
sg8
I00
sg9
I5
sg10
(lp116
g110
a(igraph
Vertex
p117
(dp118
g14
F1.0
sg8
I00
sg15
g24
sg16
F-30.0
sg17
F120.0
sg18
I4888632
sg19
S'16456.2873765'
p119
sg21
F0.40000000000000002
sbasg26
I00
sg27
I00
sg28
I4888537
sg19
S'16456.2927481'
p120
sba(igraph
Edge
p121
(dp122
g7
I1
sg8
I00
sg9
I5
sg10
(lp123
g117
ag93
asg26
I00
sg27
I00
sg28
I4888538
sg19
S'16456.29308'
p124
sba(igraph
Edge
p125
(dp126
g7
I1
sg8
I00
sg9
I5
sg10
(lp127
(igraph
Vertex
p128
(dp129
g14
F0.0
sg8
I00
sg15
g24
sg16
F30.0
sg17
F388.0
sg18
I4888633
sg19
S'16456.2874966'
p130
sg21
F0.59999999999999998
sba(igraph
Vertex
p131
(dp132
g14
F0.25
sg8
I00
sg15
g24
sg16
F30.0
sg17
F321.0
sg18
I4888634
sg19
S'16456.2876231'
p133
sg21
F0.59999999999999998
sbasg26
I00
sg27
I00
sg28
I4888539
sg19
S'16456.2934747'
p134
sba(igraph
Edge
p135
(dp136
g7
I1
sg8
I00
sg9
I5
sg10
(lp137
g131
a(igraph
Vertex
p138
(dp139
g14
F0.5
sg8
I00
sg15
g24
sg16
F30.0
sg17
F254.0
sg18
I4888635
sg19
S'16456.2877578'
p140
sg21
F0.59999999999999998
sbasg26
I00
sg27
I00
sg28
I4888540
sg19
S'16456.2938533'
p141
sba(igraph
Edge
p142
(dp143
g7
I1
sg8
I00
sg9
I5
sg10
(lp144
g138
a(igraph
Vertex
p145
(dp146
g14
F0.75
sg8
I01
sg15
I0
sg16
F30.0
sg17
F187.0
sg18
I4888637
sg19
S'16456.2879008'
p147
sg21
F0.59999999999999998
sbasg26
I00
sg27
I00
sg28
I4888541
sg19
S'16456.2942673'
p148
sba(igraph
Edge
p149
(dp150
g7
I1
sg8
I00
sg9
I5
sg10
(lp151
g145
a(igraph
Vertex
p152
(dp153
g14
F1.0
sg8
I00
sg15
g24
sg16
F30.0
sg17
F120.0
sg18
I4888639
sg19
S'16456.2880514'
p154
sg21
F0.59999999999999998
sbasg26
I00
sg27
I00
sg28
I4888542
sg19
S'16456.2946925'
p155
sba(igraph
Edge
p156
(dp157
g7
I1
sg8
I00
sg9
I5
sg10
(lp158
g152
ag128
asg26
I00
sg27
I00
sg28
I4888543
sg19
S'16456.2951406'
p159
sba(igraph
Edge
p160
(dp161
g7
I1
sg8
I00
sg9
I5
sg10
(lp162
(igraph
Vertex
p163
(dp164
g14
F0.0
sg8
I00
sg15
g24
sg16
F90.0
sg17
F388.0
sg18
I4888640
sg19
S'16456.2882098'
p165
sg21
F0.80000000000000004
sba(igraph
Vertex
p166
(dp167
g14
F0.25
sg8
I00
sg15
g24
sg16
F90.0
sg17
F321.0
sg18
I4888641
sg19
S'16456.2884408'
p168
sg21
F0.80000000000000004
sbasg26
I00
sg27
I00
sg28
I4888544
sg19
S'16456.2956068'
p169
sba(igraph
Edge
p170
(dp171
g7
I1
sg8
I00
sg9
I5
sg10
(lp172
g166
a(igraph
Vertex
p173
(dp174
g14
F0.5
sg8
I01
sg15
I0
sg16
F90.0
sg17
F254.0
sg18
I4888643
sg19
S'16456.2886199'
p175
sg21
F0.80000000000000004
sbasg26
I00
sg27
I00
sg28
I4888545
sg19
S'16456.2960971'
p176
sba(igraph
Edge
p177
(dp178
g7
I1
sg8
I00
sg9
I5
sg10
(lp179
g173
a(igraph
Vertex
p180
(dp181
g14
F0.75
sg8
I00
sg15
g24
sg16
F90.0
sg17
F187.0
sg18
I4888645
sg19
S'16456.2888032'
p182
sg21
F0.80000000000000004
sbasg26
I00
sg27
I00
sg28
I4888546
sg19
S'16456.2966022'
p183
sba(igraph
Edge
p184
(dp185
g7
I1
sg8
I00
sg9
I5
sg10
(lp186
g180
a(igraph
Vertex
p187
(dp188
g14
F1.0
sg8
I00
sg15
g24
sg16
F90.0
sg17
F120.0
sg18
I4888646
sg19
S'16456.2889948'
p189
sg21
F0.80000000000000004
sbasg26
I00
sg27
I00
sg28
I4888547
sg19
S'16456.2971353'
p190
sba(igraph
Edge
p191
(dp192
g7
I1
sg8
I00
sg9
I5
sg10
(lp193
g187
ag163
asg26
I00
sg27
I00
sg28
I4888548
sg19
S'16456.2976948'
p194
sba(igraph
Edge
p195
(dp196
g7
I1
sg8
I00
sg9
I5
sg10
(lp197
(igraph
Vertex
p198
(dp199
g14
F0.0
sg8
I00
sg15
g24
sg16
F150.0
sg17
F388.0
sg18
I4888647
sg19
S'16456.2891932'
p200
sg21
F1.0
sba(igraph
Vertex
p201
(dp202
g14
F0.25
sg8
I00
sg15
g24
sg16
F150.0
sg17
F321.0
sg18
I4888648
sg19
S'16456.2894019'
p203
sg21
F1.0
sbasg26
I00
sg27
I00
sg28
I4888549
sg19
S'16456.2983309'
p204
sba(igraph
Edge
p205
(dp206
g7
I1
sg8
I00
sg9
I5
sg10
(lp207
g201
a(igraph
Vertex
p208
(dp209
g14
F0.5
sg8
I00
sg15
g24
sg16
F150.0
sg17
F254.0
sg18
I4888649
sg19
S'16456.2896198'
p210
sg21
F1.0
sbasg26
I00
sg27
I00
sg28
I4888550
sg19
S'16456.2989299'
p211
sba(igraph
Edge
p212
(dp213
g7
I1
sg8
I00
sg9
I5
sg10
(lp214
g208
a(igraph
Vertex
p215
(dp216
g14
F0.75
sg8
I00
sg15
g24
sg16
F150.0
sg17
F187.0
sg18
I4888650
sg19
S'16456.2898461'
p217
sg21
F1.0
sbasg26
I00
sg27
I00
sg28
I4888551
sg19
S'16456.2995411'
p218
sba(igraph
Edge
p219
(dp220
g7
I1
sg8
I00
sg9
I5
sg10
(lp221
g215
a(igraph
Vertex
p222
(dp223
g14
F1.0
sg8
I01
sg15
I0
sg16
F150.0
sg17
F120.0
sg18
I4888652
sg19
S'16456.2900771'
p224
sg21
F1.0
sbasg26
I00
sg27
I00
sg28
I4888552
sg19
S'16456.3002133'
p225
sba(igraph
Edge
p226
(dp227
g7
I1
sg8
I00
sg9
I5
sg10
(lp228
g222
ag198
asg26
I00
sg27
I00
sg28
I4888553
sg19
S'16456.300872'
p229
sba(igraph
Edge
p230
(dp231
g7
I1
sg8
I00
sg9
I5
sg10
(lp232
g12
ag58
asg26
I00
sg27
I00
sg28
I4888554
sg19
S'16456.3015503'
p233
sba(igraph
Edge
p234
(dp235
g7
I1
sg8
I00
sg9
I5
sg10
(lp236
g22
ag68
asg26
I00
sg27
I00
sg28
I4888555
sg19
S'16456.3022474'
p237
sba(igraph
Edge
p238
(dp239
g7
I1
sg8
I00
sg9
I5
sg10
(lp240
g33
ag68
asg26
I00
sg27
I00
sg28
I4888556
sg19
S'16456.3029645'
p241
sba(igraph
Edge
p242
(dp243
g7
I1
sg8
I00
sg9
I5
sg10
(lp244
g40
ag82
asg26
I00
sg27
I00
sg28
I4888557
sg19
S'16456.3037073'
p245
sba(igraph
Edge
p246
(dp247
g7
I1
sg8
I00
sg9
I5
sg10
(lp248
g47
ag82
asg26
I00
sg27
I00
sg28
I4888558
sg19
S'16456.3044839'
p249
sba(igraph
Edge
p250
(dp251
g7
I1
sg8
I00
sg9
I5
sg10
(lp252
g12
ag61
asg26
I00
sg27
I00
sg28
I4888559
sg19
S'16456.3052628'
p253
sba(igraph
Edge
p254
(dp255
g7
I1
sg8
I00
sg9
I5
sg10
(lp256
g22
ag61
asg26
I00
sg27
I00
sg28
I4888560
sg19
S'16456.306064'
p257
sba(igraph
Edge
p258
(dp259
g7
I1
sg8
I00
sg9
I5
sg10
(lp260
g33
ag75
asg26
I00
sg27
I00
sg28
I4888561
sg19
S'16456.3068879'
p261
sba(igraph
Edge
p262
(dp263
g7
I1
sg8
I00
sg9
I5
sg10
(lp264
g40
ag75
asg26
I00
sg27
I00
sg28
I4888562
sg19
S'16456.3077307'
p265
sba(igraph
Edge
p266
(dp267
g7
I1
sg8
I00
sg9
I5
sg10
(lp268
g47
ag58
asg26
I00
sg27
I00
sg28
I4888563
sg19
S'16456.3086308'
p269
sba(igraph
Edge
p270
(dp271
g7
I1
sg8
I00
sg9
I5
sg10
(lp272
g12
ag198
asg26
I00
sg27
I00
sg28
I4888564
sg19
S'16456.3095486'
p273
sba(igraph
Edge
p274
(dp275
g7
I1
sg8
I00
sg9
I5
sg10
(lp276
g22
ag198
asg26
I00
sg27
I00
sg28
I4888565
sg19
S'16456.310468'
p277
sba(igraph
Edge
p278
(dp279
g7
I1
sg8
I00
sg9
I5
sg10
(lp280
g33
ag208
asg26
I00
sg27
I00
sg28
I4888566
sg19
S'16456.3114209'
p281
sba(igraph
Edge
p282
(dp283
g7
I1
sg8
I00
sg9
I5
sg10
(lp284
g40
ag208
asg26
I00
sg27
I00
sg28
I4888567
sg19
S'16456.3123894'
p285
sba(igraph
Edge
p286
(dp287
g7
I1
sg8
I00
sg9
I5
sg10
(lp288
g47
ag222
asg26
I00
sg27
I00
sg28
I4888568
sg19
S'16456.3133745'
p289
sba(igraph
Edge
p290
(dp291
g7
I1
sg8
I00
sg9
I5
sg10
(lp292
g12
ag222
asg26
I00
sg27
I00
sg28
I4888569
sg19
S'16456.3143863'
p293
sba(igraph
Edge
p294
(dp295
g7
I1
sg8
I00
sg9
I5
sg10
(lp296
g22
ag201
asg26
I00
sg27
I00
sg28
I4888570
sg19
S'16456.3154267'
p297
sba(igraph
Edge
p298
(dp299
g7
I1
sg8
I00
sg9
I5
sg10
(lp300
g33
ag201
asg26
I00
sg27
I00
sg28
I4888571
sg19
S'16456.316476'
p301
sba(igraph
Edge
p302
(dp303
g7
I1
sg8
I00
sg9
I5
sg10
(lp304
g40
ag215
asg26
I00
sg27
I00
sg28
I4888572
sg19
S'16456.3175468'
p305
sba(igraph
Edge
p306
(dp307
g7
I1
sg8
I00
sg9
I5
sg10
(lp308
g47
ag215
asg26
I00
sg27
I00
sg28
I4888573
sg19
S'16456.3186438'
p309
sba(igraph
Edge
p310
(dp311
g7
I1
sg8
I00
sg9
I5
sg10
(lp312
g58
ag93
asg26
I00
sg27
I00
sg28
I4888574
sg19
S'16456.3197912'
p313
sba(igraph
Edge
p314
(dp315
g7
I1
sg8
I00
sg9
I5
sg10
(lp316
g61
ag103
asg26
I00
sg27
I00
sg28
I4888575
sg19
S'16456.3209212'
p317
sba(igraph
Edge
p318
(dp319
g7
I1
sg8
I00
sg9
I5
sg10
(lp320
g68
ag103
asg26
I00
sg27
I00
sg28
I4888576
sg19
S'16456.3220644'
p321
sba(igraph
Edge
p322
(dp323
g7
I1
sg8
I00
sg9
I5
sg10
(lp324
g75
ag117
asg26
I00
sg27
I00
sg28
I4888577
sg19
S'16456.3232268'
p325
sba(igraph
Edge
p326
(dp327
g7
I1
sg8
I00
sg9
I5
sg10
(lp328
g82
ag117
asg26
I00
sg27
I00
sg28
I4888578
sg19
S'16456.3244085'
p329
sba(igraph
Edge
p330
(dp331
g7
I1
sg8
I00
sg9
I5
sg10
(lp332
g58
ag96
asg26
I00
sg27
I00
sg28
I4888579
sg19
S'16456.3256573'
p333
sba(igraph
Edge
p334
(dp335
g7
I1
sg8
I00
sg9
I5
sg10
(lp336
g61
ag96
asg26
I00
sg27
I00
sg28
I4888580
sg19
S'16456.3268943'
p337
sba(igraph
Edge
p338
(dp339
g7
I1
sg8
I00
sg9
I5
sg10
(lp340
g68
ag110
asg26
I00
sg27
I00
sg28
I4888581
sg19
S'16456.3281571'
p341
sba(igraph
Edge
p342
(dp343
g7
I1
sg8
I00
sg9
I5
sg10
(lp344
g75
ag110
asg26
I00
sg27
I00
sg28
I4888582
sg19
S'16456.3295058'
p345
sba(igraph
Edge
p346
(dp347
g7
I1
sg8
I00
sg9
I5
sg10
(lp348
g82
ag93
asg26
I00
sg27
I00
sg28
I4888583
sg19
S'16456.3308434'
p349
sba(igraph
Edge
p350
(dp351
g7
I1
sg8
I00
sg9
I5
sg10
(lp352
g93
ag128
asg26
I00
sg27
I00
sg28
I4888584
sg19
S'16456.3321699'
p353
sba(igraph
Edge
p354
(dp355
g7
I1
sg8
I00
sg9
I5
sg10
(lp356
g96
ag138
asg26
I00
sg27
I00
sg28
I4888585
sg19
S'16456.3335346'
p357
sba(igraph
Edge
p358
(dp359
g7
I1
sg8
I00
sg9
I5
sg10
(lp360
g103
ag138
asg26
I00
sg27
I00
sg28
I4888586
sg19
S'16456.3349029'
p361
sba(igraph
Edge
p362
(dp363
g7
I1
sg8
I00
sg9
I5
sg10
(lp364
g110
ag152
asg26
I00
sg27
I00
sg28
I4888587
sg19
S'16456.33634'
p365
sba(igraph
Edge
p366
(dp367
g7
I1
sg8
I00
sg9
I5
sg10
(lp368
g117
ag152
asg26
I00
sg27
I00
sg28
I4888588
sg19
S'16456.3377561'
p369
sba(igraph
Edge
p370
(dp371
g7
I1
sg8
I00
sg9
I5
sg10
(lp372
g93
ag131
asg26
I00
sg27
I00
sg28
I4888589
sg19
S'16456.3391953'
p373
sba(igraph
Edge
p374
(dp375
g7
I1
sg8
I00
sg9
I5
sg10
(lp376
g96
ag131
asg26
I00
sg27
I00
sg28
I4888590
sg19
S'16456.340681'
p377
sba(igraph
Edge
p378
(dp379
g7
I1
sg8
I00
sg9
I5
sg10
(lp380
g103
ag145
asg26
I00
sg27
I00
sg28
I4888591
sg19
S'16456.3421452'
p381
sba(igraph
Edge
p382
(dp383
g7
I1
sg8
I00
sg9
I5
sg10
(lp384
g110
ag145
asg26
I00
sg27
I00
sg28
I4888592
sg19
S'16456.3436266'
p385
sba(igraph
Edge
p386
(dp387
g7
I1
sg8
I00
sg9
I5
sg10
(lp388
g117
ag128
asg26
I00
sg27
I00
sg28
I4888593
sg19
S'16456.3451777'
p389
sba(igraph
Edge
p390
(dp391
g7
I1
sg8
I00
sg9
I5
sg10
(lp392
g128
ag163
asg26
I00
sg27
I00
sg28
I4888594
sg19
S'16456.3467061'
p393
sba(igraph
Edge
p394
(dp395
g7
I1
sg8
I00
sg9
I5
sg10
(lp396
g131
ag173
asg26
I00
sg27
I00
sg28
I4888595
sg19
S'16456.3482529'
p397
sba(igraph
Edge
p398
(dp399
g7
I1
sg8
I00
sg9
I5
sg10
(lp400
g138
ag173
asg26
I00
sg27
I00
sg28
I4888596
sg19
S'16456.3498313'
p401
sba(igraph
Edge
p402
(dp403
g7
I1
sg8
I00
sg9
I5
sg10
(lp404
g145
ag187
asg26
I00
sg27
I00
sg28
I4888597
sg19
S'16456.3514435'
p405
sba(igraph
Edge
p406
(dp407
g7
I1
sg8
I00
sg9
I5
sg10
(lp408
g152
ag187
asg26
I00
sg27
I00
sg28
I4888598
sg19
S'16456.3531941'
p409
sba(igraph
Edge
p410
(dp411
g7
I1
sg8
I00
sg9
I5
sg10
(lp412
g128
ag166
asg26
I00
sg27
I00
sg28
I4888599
sg19
S'16456.3548367'
p413
sba(igraph
Edge
p414
(dp415
g7
I1
sg8
I00
sg9
I5
sg10
(lp416
g131
ag166
asg26
I00
sg27
I00
sg28
I4888600
sg19
S'16456.3564998'
p417
sba(igraph
Edge
p418
(dp419
g7
I1
sg8
I00
sg9
I5
sg10
(lp420
g138
ag180
asg26
I00
sg27
I00
sg28
I4888601
sg19
S'16456.3582461'
p421
sba(igraph
Edge
p422
(dp423
g7
I1
sg8
I00
sg9
I5
sg10
(lp424
g145
ag180
asg26
I00
sg27
I00
sg28
I4888602
sg19
S'16456.3599918'
p425
sba(igraph
Edge
p426
(dp427
g7
I1
sg8
I00
sg9
I5
sg10
(lp428
g152
ag163
asg26
I00
sg27
I00
sg28
I4888603
sg19
S'16456.361727'
p429
sba(igraph
Edge
p430
(dp431
g7
I1
sg8
I00
sg9
I5
sg10
(lp432
g163
ag198
asg26
I00
sg27
I00
sg28
I4888604
sg19
S'16456.3634906'
p433
sba(igraph
Edge
p434
(dp435
g7
I1
sg8
I00
sg9
I5
sg10
(lp436
g166
ag208
asg26
I00
sg27
I00
sg28
I4888605
sg19
S'16456.3652785'
p437
sba(igraph
Edge
p438
(dp439
g7
I1
sg8
I00
sg9
I5
sg10
(lp440
g173
ag208
asg26
I00
sg27
I00
sg28
I4888606
sg19
S'16456.3671081'
p441
sba(igraph
Edge
p442
(dp443
g7
I1
sg8
I00
sg9
I5
sg10
(lp444
g180
ag222
asg26
I00
sg27
I00
sg28
I4888607
sg19
S'16456.3689829'
p445
sba(igraph
Edge
p446
(dp447
g7
I1
sg8
I00
sg9
I5
sg10
(lp448
g187
ag222
asg26
I00
sg27
I00
sg28
I4888608
sg19
S'16456.3708111'
p449
sba(igraph
Edge
p450
(dp451
g7
I1
sg8
I00
sg9
I5
sg10
(lp452
g163
ag201
asg26
I00
sg27
I00
sg28
I4888609
sg19
S'16456.3726745'
p453
sba(igraph
Edge
p454
(dp455
g7
I1
sg8
I00
sg9
I5
sg10
(lp456
g166
ag201
asg26
I00
sg27
I00
sg28
I4888610
sg19
S'16456.3749253'
p457
sba(igraph
Edge
p458
(dp459
g7
I1
sg8
I00
sg9
I5
sg10
(lp460
g173
ag215
asg26
I00
sg27
I00
sg28
I4888611
sg19
S'16456.3768364'
p461
sba(igraph
Edge
p462
(dp463
g7
I1
sg8
I00
sg9
I5
sg10
(lp464
g180
ag215
asg26
I00
sg27
I00
sg28
I4888612
sg19
S'16456.3787479'
p465
sba(igraph
Edge
p466
(dp467
g7
I1
sg8
I00
sg9
I5
sg10
(lp468
g187
ag198
asg26
I00
sg27
I00
sg28
I4888613
sg19
S'16456.3807034'
p469
sbasS'vertices'
p470
(lp471
g12
ag22
ag33
ag40
ag47
ag58
ag61
ag68
ag75
ag82
ag93
ag96
ag103
ag110
ag117
ag128
ag131
ag138
ag145
ag152
ag163
ag166
ag173
ag180
ag187
ag198
ag201
ag208
ag215
ag222
asS'tags'
p472
(lp473
sb.