(igraph
Graph
p0
(dp1
S'labelingConstraints'
p2
I-1
sS'edges'
p3
(lp4
(igraph
Edge
p5
(dp6
S'direction'
p7
I1
sS'selected'
p8
I00
sS'height'
p9
I5
sS'vs'
p10
(lp11
(igraph
Vertex
p12
(dp13
S'xnorm'
p14
F0.0
sg8
I00
sS'label'
p15
S'NULL'
p16
sS'y'
p17
F-100.0
sS'x'
p18
F434.0
sS'circle'
p19
I4851918
sS'id'
p20
S'16278.2873334'
p21
sS'ynorm'
p22
F0.0
sba(igraph
Vertex
p23
(dp24
g14
F0.16666666666666669
sg8
I00
sg15
g16
sg17
F-100.0
sg18
F386.66666666666669
sg19
I4851919
sg20
S'16278.2873692'
p25
sg22
F0.0
sbasS'wrap'
p26
I00
sS'curved'
p27
I00
sS'line'
p28
I4851813
sg20
S'16278.2980261'
p29
sba(igraph
Edge
p30
(dp31
g7
I1
sg8
I00
sg9
I5
sg10
(lp32
g23
a(igraph
Vertex
p33
(dp34
g14
F0.33333333333333337
sg8
I00
sg15
g16
sg17
F-100.0
sg18
F339.33333333333331
sg19
I4851920
sg20
S'16278.2874103'
p35
sg22
F0.0
sbasg26
I00
sg27
I00
sg28
I4851814
sg20
S'16278.2981479'
p36
sba(igraph
Edge
p37
(dp38
g7
I1
sg8
I00
sg9
I5
sg10
(lp39
g33
a(igraph
Vertex
p40
(dp41
g14
F0.50000000000000011
sg8
I00
sg15
g16
sg17
F-100.0
sg18
F292.0
sg19
I4851921
sg20
S'16278.2874631'
p42
sg22
F0.0
sbasg26
I00
sg27
I00
sg28
I4851815
sg20
S'16278.2983119'
p43
sba(igraph
Edge
p44
(dp45
g7
I1
sg8
I00
sg9
I5
sg10
(lp46
g40
a(igraph
Vertex
p47
(dp48
g14
F0.66666666666666674
sg8
I00
sg15
g16
sg17
F-100.0
sg18
F244.66666666666666
sg19
I4851922
sg20
S'16278.2875282'
p49
sg22
F0.0
sbasg26
I00
sg27
I00
sg28
I4851816
sg20
S'16278.2985203'
p50
sba(igraph
Edge
p51
(dp52
g7
I1
sg8
I00
sg9
I5
sg10
(lp53
g47
a(igraph
Vertex
p54
(dp55
g14
F0.83333333333333337
sg8
I00
sg15
g16
sg17
F-100.0
sg18
F197.33333333333331
sg19
I4851923
sg20
S'16278.2876086'
p56
sg22
F0.0
sbasg26
I00
sg27
I00
sg28
I4851817
sg20
S'16278.2987765'
p57
sba(igraph
Edge
p58
(dp59
g7
I1
sg8
I00
sg9
I5
sg10
(lp60
g54
a(igraph
Vertex
p61
(dp62
g14
F1.0
sg8
I00
sg15
g16
sg17
F-100.0
sg18
F150.0
sg19
I4851924
sg20
S'16278.2877075'
p63
sg22
F0.0
sbasg26
I00
sg27
I00
sg28
I4851818
sg20
S'16278.2990788'
p64
sba(igraph
Edge
p65
(dp66
g7
I1
sg8
I00
sg9
I5
sg10
(lp67
g61
ag12
asg26
I00
sg27
I00
sg28
I4851819
sg20
S'16278.2994249'
p68
sba(igraph
Edge
p69
(dp70
g7
I1
sg8
I00
sg9
I5
sg10
(lp71
(igraph
Vertex
p72
(dp73
g14
F0.0
sg8
I01
sg15
I0
sg17
F-50.0
sg18
F434.0
sg19
I4851926
sg20
S'16278.2878207'
p74
sg22
F0.25
sba(igraph
Vertex
p75
(dp76
g14
F0.16666666666666669
sg8
I00
sg15
g16
sg17
F-50.0
sg18
F386.66666666666669
sg19
I4851928
sg20
S'16278.2879548'
p77
sg22
F0.25
sbasg26
I00
sg27
I00
sg28
I4851820
sg20
S'16278.2998191'
p78
sba(igraph
Edge
p79
(dp80
g7
I1
sg8
I00
sg9
I5
sg10
(lp81
g75
a(igraph
Vertex
p82
(dp83
g14
F0.33333333333333337
sg8
I00
sg15
g16
sg17
F-50.0
sg18
F339.33333333333331
sg19
I4851929
sg20
S'16278.2880989'
p84
sg22
F0.25
sbasg26
I00
sg27
I00
sg28
I4851821
sg20
S'16278.300256'
p85
sba(igraph
Edge
p86
(dp87
g7
I1
sg8
I00
sg9
I5
sg10
(lp88
g82
a(igraph
Vertex
p89
(dp90
g14
F0.50000000000000011
sg8
I00
sg15
g16
sg17
F-50.0
sg18
F292.0
sg19
I4851930
sg20
S'16278.2882584'
p91
sg22
F0.25
sbasg26
I00
sg27
I00
sg28
I4851822
sg20
S'16278.3007762'
p92
sba(igraph
Edge
p93
(dp94
g7
I1
sg8
I00
sg9
I5
sg10
(lp95
g89
a(igraph
Vertex
p96
(dp97
g14
F0.66666666666666674
sg8
I00
sg15
g16
sg17
F-50.0
sg18
F244.66666666666666
sg19
I4851931
sg20
S'16278.288449'
p98
sg22
F0.25
sbasg26
I00
sg27
I00
sg28
I4851823
sg20
S'16278.3013087'
p99
sba(igraph
Edge
p100
(dp101
g7
I1
sg8
I00
sg9
I5
sg10
(lp102
g96
a(igraph
Vertex
p103
(dp104
g14
F0.83333333333333337
sg8
I00
sg15
g16
sg17
F-50.0
sg18
F197.33333333333331
sg19
I4851932
sg20
S'16278.2886412'
p105
sg22
F0.25
sbasg26
I00
sg27
I00
sg28
I4851824
sg20
S'16278.30189'
p106
sba(igraph
Edge
p107
(dp108
g7
I1
sg8
I00
sg9
I5
sg10
(lp109
g103
a(igraph
Vertex
p110
(dp111
g14
F1.0
sg8
I00
sg15
g16
sg17
F-50.0
sg18
F150.0
sg19
I4851933
sg20
S'16278.2888624'
p112
sg22
F0.25
sbasg26
I00
sg27
I00
sg28
I4851825
sg20
S'16278.3025144'
p113
sba(igraph
Edge
p114
(dp115
g7
I1
sg8
I00
sg9
I5
sg10
(lp116
g110
ag72
asg26
I00
sg27
I00
sg28
I4851826
sg20
S'16278.3031857'
p117
sba(igraph
Edge
p118
(dp119
g7
I1
sg8
I00
sg9
I5
sg10
(lp120
(igraph
Vertex
p121
(dp122
g14
F0.0
sg8
I00
sg15
g16
sg17
F0.0
sg18
F434.0
sg19
I4851934
sg20
S'16278.2890895'
p123
sg22
F0.5
sba(igraph
Vertex
p124
(dp125
g14
F0.16666666666666669
sg8
I00
sg15
g16
sg17
F0.0
sg18
F386.66666666666669
sg19
I4851935
sg20
S'16278.2893315'
p126
sg22
F0.5
sbasg26
I00
sg27
I00
sg28
I4851827
sg20
S'16278.3039048'
p127
sba(igraph
Edge
p128
(dp129
g7
I1
sg8
I00
sg9
I5
sg10
(lp130
g124
a(igraph
Vertex
p131
(dp132
g14
F0.33333333333333337
sg8
I01
sg15
I0
sg17
F0.0
sg18
F339.33333333333331
sg19
I4851937
sg20
S'16278.2895971'
p133
sg22
F0.5
sbasg26
I00
sg27
I00
sg28
I4851828
sg20
S'16278.3046711'
p134
sba(igraph
Edge
p135
(dp136
g7
I1
sg8
I00
sg9
I5
sg10
(lp137
g131
a(igraph
Vertex
p138
(dp139
g14
F0.50000000000000011
sg8
I00
sg15
g16
sg17
F0.0
sg18
F292.0
sg19
I4851939
sg20
S'16278.2898854'
p140
sg22
F0.5
sbasg26
I00
sg27
I00
sg28
I4851829
sg20
S'16278.3054788'
p141
sba(igraph
Edge
p142
(dp143
g7
I1
sg8
I00
sg9
I5
sg10
(lp144
g138
a(igraph
Vertex
p145
(dp146
g14
F0.66666666666666674
sg8
I00
sg15
g16
sg17
F0.0
sg18
F244.66666666666666
sg19
I4851940
sg20
S'16278.2901791'
p147
sg22
F0.5
sbasg26
I00
sg27
I00
sg28
I4851830
sg20
S'16278.3063353'
p148
sba(igraph
Edge
p149
(dp150
g7
I1
sg8
I00
sg9
I5
sg10
(lp151
g145
a(igraph
Vertex
p152
(dp153
g14
F0.83333333333333337
sg8
I00
sg15
g16
sg17
F0.0
sg18
F197.33333333333331
sg19
I4851941
sg20
S'16278.2904838'
p154
sg22
F0.5
sbasg26
I00
sg27
I00
sg28
I4851831
sg20
S'16278.3072385'
p155
sba(igraph
Edge
p156
(dp157
g7
I1
sg8
I00
sg9
I5
sg10
(lp158
g152
a(igraph
Vertex
p159
(dp160
g14
F1.0
sg8
I00
sg15
g16
sg17
F0.0
sg18
F150.0
sg19
I4851942
sg20
S'16278.2908294'
p161
sg22
F0.5
sbasg26
I00
sg27
I00
sg28
I4851832
sg20
S'16278.3082478'
p162
sba(igraph
Edge
p163
(dp164
g7
I1
sg8
I00
sg9
I5
sg10
(lp165
g159
ag121
asg26
I00
sg27
I00
sg28
I4851833
sg20
S'16278.309282'
p166
sba(igraph
Edge
p167
(dp168
g7
I1
sg8
I00
sg9
I5
sg10
(lp169
(igraph
Vertex
p170
(dp171
g14
F0.0
sg8
I00
sg15
g16
sg17
F50.0
sg18
F434.0
sg19
I4851943
sg20
S'16278.2911744'
p172
sg22
F0.75
sba(igraph
Vertex
p173
(dp174
g14
F0.16666666666666669
sg8
I00
sg15
g16
sg17
F50.0
sg18
F386.66666666666669
sg19
I4851944
sg20
S'16278.2915365'
p175
sg22
F0.75
sbasg26
I00
sg27
I00
sg28
I4851834
sg20
S'16278.3103313'
p176
sba(igraph
Edge
p177
(dp178
g7
I1
sg8
I00
sg9
I5
sg10
(lp179
g173
a(igraph
Vertex
p180
(dp181
g14
F0.33333333333333337
sg8
I00
sg15
g16
sg17
F50.0
sg18
F339.33333333333331
sg19
I4851945
sg20
S'16278.2920486'
p182
sg22
F0.75
sbasg26
I00
sg27
I00
sg28
I4851835
sg20
S'16278.3114223'
p183
sba(igraph
Edge
p184
(dp185
g7
I1
sg8
I00
sg9
I5
sg10
(lp186
g180
a(igraph
Vertex
p187
(dp188
g14
F0.50000000000000011
sg8
I00
sg15
g16
sg17
F50.0
sg18
F292.0
sg19
I4851946
sg20
S'16278.2924455'
p189
sg22
F0.75
sbasg26
I00
sg27
I00
sg28
I4851836
sg20
S'16278.3127087'
p190
sba(igraph
Edge
p191
(dp192
g7
I1
sg8
I00
sg9
I5
sg10
(lp193
g187
a(igraph
Vertex
p194
(dp195
g14
F0.66666666666666674
sg8
I01
sg15
I0
sg17
F50.0
sg18
F244.66666666666666
sg19
I4851948
sg20
S'16278.2929071'
p196
sg22
F0.75
sbasg26
I00
sg27
I00
sg28
I4851837
sg20
S'16278.3144844'
p197
sba(igraph
Edge
p198
(dp199
g7
I1
sg8
I00
sg9
I5
sg10
(lp200
g194
a(igraph
Vertex
p201
(dp202
g14
F0.83333333333333337
sg8
I00
sg15
g16
sg17
F50.0
sg18
F197.33333333333331
sg19
I4851950
sg20
S'16278.2933418'
p203
sg22
F0.75
sbasg26
I00
sg27
I00
sg28
I4851838
sg20
S'16278.3157116'
p204
sba(igraph
Edge
p205
(dp206
g7
I1
sg8
I00
sg9
I5
sg10
(lp207
g201
a(igraph
Vertex
p208
(dp209
g14
F1.0
sg8
I00
sg15
g16
sg17
F50.0
sg18
F150.0
sg19
I4851951
sg20
S'16278.2937879'
p210
sg22
F0.75
sbasg26
I00
sg27
I00
sg28
I4851839
sg20
S'16278.3169897'
p211
sba(igraph
Edge
p212
(dp213
g7
I1
sg8
I00
sg9
I5
sg10
(lp214
g208
ag170
asg26
I00
sg27
I00
sg28
I4851840
sg20
S'16278.3183444'
p215
sba(igraph
Edge
p216
(dp217
g7
I1
sg8
I00
sg9
I5
sg10
(lp218
(igraph
Vertex
p219
(dp220
g14
F0.0
sg8
I00
sg15
g16
sg17
F100.0
sg18
F434.0
sg19
I4851952
sg20
S'16278.2942547'
p221
sg22
F1.0
sba(igraph
Vertex
p222
(dp223
g14
F0.16666666666666669
sg8
I00
sg15
g16
sg17
F100.0
sg18
F386.66666666666669
sg19
I4851953
sg20
S'16278.2947391'
p224
sg22
F1.0
sbasg26
I00
sg27
I00
sg28
I4851841
sg20
S'16278.3197831'
p225
sba(igraph
Edge
p226
(dp227
g7
I1
sg8
I00
sg9
I5
sg10
(lp228
g222
a(igraph
Vertex
p229
(dp230
g14
F0.33333333333333337
sg8
I00
sg15
g16
sg17
F100.0
sg18
F339.33333333333331
sg19
I4851954
sg20
S'16278.2952269'
p231
sg22
F1.0
sbasg26
I00
sg27
I00
sg28
I4851842
sg20
S'16278.3212288'
p232
sba(igraph
Edge
p233
(dp234
g7
I1
sg8
I00
sg9
I5
sg10
(lp235
g229
a(igraph
Vertex
p236
(dp237
g14
F0.50000000000000011
sg8
I01
sg15
I0
sg17
F100.0
sg18
F292.0
sg19
I4851956
sg20
S'16278.2957446'
p238
sg22
F1.0
sbasg26
I00
sg27
I00
sg28
I4851843
sg20
S'16278.322703'
p239
sba(igraph
Edge
p240
(dp241
g7
I1
sg8
I00
sg9
I5
sg10
(lp242
g236
a(igraph
Vertex
p243
(dp244
g14
F0.66666666666666674
sg8
I00
sg15
g16
sg17
F100.0
sg18
F244.66666666666666
sg19
I4851958
sg20
S'16278.2962653'
p245
sg22
F1.0
sbasg26
I00
sg27
I00
sg28
I4851844
sg20
S'16278.3243907'
p246
sba(igraph
Edge
p247
(dp248
g7
I1
sg8
I00
sg9
I5
sg10
(lp249
g243
a(igraph
Vertex
p250
(dp251
g14
F0.83333333333333337
sg8
I00
sg15
g16
sg17
F100.0
sg18
F197.33333333333331
sg19
I4851959
sg20
S'16278.2968545'
p252
sg22
F1.0
sbasg26
I00
sg27
I00
sg28
I4851845
sg20
S'16278.3261241'
p253
sba(igraph
Edge
p254
(dp255
g7
I1
sg8
I00
sg9
I5
sg10
(lp256
g250
a(igraph
Vertex
p257
(dp258
g14
F1.0
sg8
I01
sg15
I0
sg17
F100.0
sg18
F150.0
sg19
I4851961
sg20
S'16278.2974107'
p259
sg22
F1.0
sbasg26
I00
sg27
I00
sg28
I4851846
sg20
S'16278.3277341'
p260
sba(igraph
Edge
p261
(dp262
g7
I1
sg8
I00
sg9
I5
sg10
(lp263
g257
ag219
asg26
I00
sg27
I00
sg28
I4851847
sg20
S'16278.3294452'
p264
sba(igraph
Edge
p265
(dp266
g7
I1
sg8
I00
sg9
I5
sg10
(lp267
g12
ag72
asg26
I00
sg27
I00
sg28
I4851848
sg20
S'16278.3312809'
p268
sba(igraph
Edge
p269
(dp270
g7
I1
sg8
I00
sg9
I5
sg10
(lp271
g23
ag82
asg26
I00
sg27
I00
sg28
I4851849
sg20
S'16278.3331094'
p272
sba(igraph
Edge
p273
(dp274
g7
I1
sg8
I00
sg9
I5
sg10
(lp275
g33
ag82
asg26
I00
sg27
I00
sg28
I4851850
sg20
S'16278.3348942'
p276
sba(igraph
Edge
p277
(dp278
g7
I1
sg8
I00
sg9
I5
sg10
(lp279
g40
ag96
asg26
I00
sg27
I00
sg28
I4851851
sg20
S'16278.3367959'
p280
sba(igraph
Edge
p281
(dp282
g7
I1
sg8
I00
sg9
I5
sg10
(lp283
g47
ag96
asg26
I00
sg27
I00
sg28
I4851852
sg20
S'16278.338771'
p284
sba(igraph
Edge
p285
(dp286
g7
I1
sg8
I00
sg9
I5
sg10
(lp287
g54
ag110
asg26
I00
sg27
I00
sg28
I4851853
sg20
S'16278.3407422'
p288
sba(igraph
Edge
p289
(dp290
g7
I1
sg8
I00
sg9
I5
sg10
(lp291
g61
ag110
asg26
I00
sg27
I00
sg28
I4851854
sg20
S'16278.3427919'
p292
sba(igraph
Edge
p293
(dp294
g7
I1
sg8
I00
sg9
I5
sg10
(lp295
g12
ag75
asg26
I00
sg27
I00
sg28
I4851855
sg20
S'16278.3448846'
p296
sba(igraph
Edge
p297
(dp298
g7
I1
sg8
I00
sg9
I5
sg10
(lp299
g23
ag75
asg26
I00
sg27
I00
sg28
I4851856
sg20
S'16278.3469458'
p300
sba(igraph
Edge
p301
(dp302
g7
I1
sg8
I00
sg9
I5
sg10
(lp303
g33
ag89
asg26
I00
sg27
I00
sg28
I4851857
sg20
S'16278.3491704'
p304
sba(igraph
Edge
p305
(dp306
g7
I1
sg8
I00
sg9
I5
sg10
(lp307
g40
ag89
asg26
I00
sg27
I00
sg28
I4851858
sg20
S'16278.3513393'
p308
sba(igraph
Edge
p309
(dp310
g7
I1
sg8
I00
sg9
I5
sg10
(lp311
g47
ag103
asg26
I00
sg27
I00
sg28
I4851859
sg20
S'16278.3536061'
p312
sba(igraph
Edge
p313
(dp314
g7
I1
sg8
I00
sg9
I5
sg10
(lp315
g54
ag103
asg26
I00
sg27
I00
sg28
I4851860
sg20
S'16278.3560925'
p316
sba(igraph
Edge
p317
(dp318
g7
I1
sg8
I00
sg9
I5
sg10
(lp319
g61
ag72
asg26
I00
sg27
I00
sg28
I4851861
sg20
S'16278.3584271'
p320
sba(igraph
Edge
p321
(dp322
g7
I1
sg8
I00
sg9
I5
sg10
(lp323
g12
ag219
asg26
I00
sg27
I00
sg28
I4851862
sg20
S'16278.3608325'
p324
sba(igraph
Edge
p325
(dp326
g7
I1
sg8
I00
sg9
I5
sg10
(lp327
g23
ag219
asg26
I00
sg27
I00
sg28
I4851863
sg20
S'16278.363252'
p328
sba(igraph
Edge
p329
(dp330
g7
I1
sg8
I00
sg9
I5
sg10
(lp331
g33
ag229
asg26
I00
sg27
I00
sg28
I4851864
sg20
S'16278.3657417'
p332
sba(igraph
Edge
p333
(dp334
g7
I1
sg8
I00
sg9
I5
sg10
(lp335
g40
ag229
asg26
I00
sg27
I00
sg28
I4851865
sg20
S'16278.3682194'
p336
sba(igraph
Edge
p337
(dp338
g7
I1
sg8
I00
sg9
I5
sg10
(lp339
g47
ag243
asg26
I00
sg27
I00
sg28
I4851866
sg20
S'16278.3707857'
p340
sba(igraph
Edge
p341
(dp342
g7
I1
sg8
I00
sg9
I5
sg10
(lp343
g54
ag243
asg26
I00
sg27
I00
sg28
I4851867
sg20
S'16278.3735059'
p344
sba(igraph
Edge
p345
(dp346
g7
I1
sg8
I00
sg9
I5
sg10
(lp347
g61
ag257
asg26
I00
sg27
I00
sg28
I4851868
sg20
S'16278.3761277'
p348
sba(igraph
Edge
p349
(dp350
g7
I1
sg8
I00
sg9
I5
sg10
(lp351
g12
ag257
asg26
I00
sg27
I00
sg28
I4851869
sg20
S'16278.3789205'
p352
sba(igraph
Edge
p353
(dp354
g7
I1
sg8
I00
sg9
I5
sg10
(lp355
g23
ag222
asg26
I00
sg27
I00
sg28
I4851870
sg20
S'16278.3816541'
p356
sba(igraph
Edge
p357
(dp358
g7
I1
sg8
I00
sg9
I5
sg10
(lp359
g33
ag222
asg26
I00
sg27
I00
sg28
I4851871
sg20
S'16278.3844751'
p360
sba(igraph
Edge
p361
(dp362
g7
I1
sg8
I00
sg9
I5
sg10
(lp363
g40
ag236
asg26
I00
sg27
I00
sg28
I4851872
sg20
S'16278.3873216'
p364
sba(igraph
Edge
p365
(dp366
g7
I1
sg8
I00
sg9
I5
sg10
(lp367
g47
ag236
asg26
I00
sg27
I00
sg28
I4851873
sg20
S'16278.390496'
p368
sba(igraph
Edge
p369
(dp370
g7
I1
sg8
I00
sg9
I5
sg10
(lp371
g54
ag250
asg26
I00
sg27
I00
sg28
I4851874
sg20
S'16278.3934159'
p372
sba(igraph
Edge
p373
(dp374
g7
I1
sg8
I00
sg9
I5
sg10
(lp375
g61
ag250
asg26
I00
sg27
I00
sg28
I4851875
sg20
S'16278.3963434'
p376
sba(igraph
Edge
p377
(dp378
g7
I1
sg8
I00
sg9
I5
sg10
(lp379
g72
ag121
asg26
I00
sg27
I00
sg28
I4851876
sg20
S'16278.3993424'
p380
sba(igraph
Edge
p381
(dp382
g7
I1
sg8
I00
sg9
I5
sg10
(lp383
g75
ag131
asg26
I00
sg27
I00
sg28
I4851877
sg20
S'16278.4025732'
p384
sba(igraph
Edge
p385
(dp386
g7
I1
sg8
I00
sg9
I5
sg10
(lp387
g82
ag131
asg26
I00
sg27
I00
sg28
I4851878
sg20
S'16278.4058262'
p388
sba(igraph
Edge
p389
(dp390
g7
I1
sg8
I00
sg9
I5
sg10
(lp391
g89
ag145
asg26
I00
sg27
I00
sg28
I4851879
sg20
S'16278.4089402'
p392
sba(igraph
Edge
p393
(dp394
g7
I1
sg8
I00
sg9
I5
sg10
(lp395
g96
ag145
asg26
I00
sg27
I00
sg28
I4851880
sg20
S'16278.4121015'
p396
sba(igraph
Edge
p397
(dp398
g7
I1
sg8
I00
sg9
I5
sg10
(lp399
g103
ag159
asg26
I00
sg27
I00
sg28
I4851881
sg20
S'16278.4154034'
p400
sba(igraph
Edge
p401
(dp402
g7
I1
sg8
I00
sg9
I5
sg10
(lp403
g110
ag159
asg26
I00
sg27
I00
sg28
I4851882
sg20
S'16278.4190217'
p404
sba(igraph
Edge
p405
(dp406
g7
I1
sg8
I00
sg9
I5
sg10
(lp407
g72
ag124
asg26
I00
sg27
I00
sg28
I4851883
sg20
S'16278.4224621'
p408
sba(igraph
Edge
p409
(dp410
g7
I1
sg8
I00
sg9
I5
sg10
(lp411
g75
ag124
asg26
I00
sg27
I00
sg28
I4851884
sg20
S'16278.4259458'
p412
sba(igraph
Edge
p413
(dp414
g7
I1
sg8
I00
sg9
I5
sg10
(lp415
g82
ag138
asg26
I00
sg27
I00
sg28
I4851885
sg20
S'16278.4294333'
p416
sba(igraph
Edge
p417
(dp418
g7
I1
sg8
I00
sg9
I5
sg10
(lp419
g89
ag138
asg26
I00
sg27
I00
sg28
I4851886
sg20
S'16278.4326846'
p420
sba(igraph
Edge
p421
(dp422
g7
I1
sg8
I00
sg9
I5
sg10
(lp423
g96
ag152
asg26
I00
sg27
I00
sg28
I4851887
sg20
S'16278.4343125'
p424
sba(igraph
Edge
p425
(dp426
g7
I1
sg8
I00
sg9
I5
sg10
(lp427
g103
ag152
asg26
I00
sg27
I00
sg28
I4851888
sg20
S'16278.4359641'
p428
sba(igraph
Edge
p429
(dp430
g7
I1
sg8
I00
sg9
I5
sg10
(lp431
g110
ag121
asg26
I00
sg27
I00
sg28
I4851889
sg20
S'16278.4376336'
p432
sba(igraph
Edge
p433
(dp434
g7
I1
sg8
I00
sg9
I5
sg10
(lp435
g121
ag170
asg26
I00
sg27
I00
sg28
I4851890
sg20
S'16278.4393866'
p436
sba(igraph
Edge
p437
(dp438
g7
I1
sg8
I00
sg9
I5
sg10
(lp439
g124
ag180
asg26
I00
sg27
I00
sg28
I4851891
sg20
S'16278.4412754'
p440
sba(igraph
Edge
p441
(dp442
g7
I1
sg8
I00
sg9
I5
sg10
(lp443
g131
ag180
asg26
I00
sg27
I00
sg28
I4851892
sg20
S'16278.4429951'
p444
sba(igraph
Edge
p445
(dp446
g7
I1
sg8
I00
sg9
I5
sg10
(lp447
g138
ag194
asg26
I00
sg27
I00
sg28
I4851893
sg20
S'16278.4447353'
p448
sba(igraph
Edge
p449
(dp450
g7
I1
sg8
I00
sg9
I5
sg10
(lp451
g145
ag194
asg26
I00
sg27
I00
sg28
I4851894
sg20
S'16278.4465137'
p452
sba(igraph
Edge
p453
(dp454
g7
I1
sg8
I00
sg9
I5
sg10
(lp455
g152
ag208
asg26
I00
sg27
I00
sg28
I4851895
sg20
S'16278.4482952'
p456
sba(igraph
Edge
p457
(dp458
g7
I1
sg8
I00
sg9
I5
sg10
(lp459
g159
ag208
asg26
I00
sg27
I00
sg28
I4851896
sg20
S'16278.4504827'
p460
sba(igraph
Edge
p461
(dp462
g7
I1
sg8
I00
sg9
I5
sg10
(lp463
g121
ag173
asg26
I00
sg27
I00
sg28
I4851897
sg20
S'16278.4523312'
p464
sba(igraph
Edge
p465
(dp466
g7
I1
sg8
I00
sg9
I5
sg10
(lp467
g124
ag173
asg26
I00
sg27
I00
sg28
I4851898
sg20
S'16278.4543195'
p468
sba(igraph
Edge
p469
(dp470
g7
I1
sg8
I00
sg9
I5
sg10
(lp471
g131
ag187
asg26
I00
sg27
I00
sg28
I4851899
sg20
S'16278.4562035'
p472
sba(igraph
Edge
p473
(dp474
g7
I1
sg8
I00
sg9
I5
sg10
(lp475
g138
ag187
asg26
I00
sg27
I00
sg28
I4851900
sg20
S'16278.45823'
p476
sba(igraph
Edge
p477
(dp478
g7
I1
sg8
I00
sg9
I5
sg10
(lp479
g145
ag201
asg26
I00
sg27
I00
sg28
I4851901
sg20
S'16278.4601585'
p480
sba(igraph
Edge
p481
(dp482
g7
I1
sg8
I00
sg9
I5
sg10
(lp483
g152
ag201
asg26
I00
sg27
I00
sg28
I4851902
sg20
S'16278.4621129'
p484
sba(igraph
Edge
p485
(dp486
g7
I1
sg8
I00
sg9
I5
sg10
(lp487
g159
ag170
asg26
I00
sg27
I00
sg28
I4851903
sg20
S'16278.4641202'
p488
sba(igraph
Edge
p489
(dp490
g7
I1
sg8
I00
sg9
I5
sg10
(lp491
g170
ag219
asg26
I00
sg27
I00
sg28
I4851904
sg20
S'16278.4664408'
p492
sba(igraph
Edge
p493
(dp494
g7
I1
sg8
I00
sg9
I5
sg10
(lp495
g173
ag229
asg26
I00
sg27
I00
sg28
I4851905
sg20
S'16278.468476'
p496
sba(igraph
Edge
p497
(dp498
g7
I1
sg8
I00
sg9
I5
sg10
(lp499
g180
ag229
asg26
I00
sg27
I00
sg28
I4851906
sg20
S'16278.4704947'
p500
sba(igraph
Edge
p501
(dp502
g7
I1
sg8
I00
sg9
I5
sg10
(lp503
g187
ag243
asg26
I00
sg27
I00
sg28
I4851907
sg20
S'16278.4725296'
p504
sba(igraph
Edge
p505
(dp506
g7
I1
sg8
I00
sg9
I5
sg10
(lp507
g194
ag243
asg26
I00
sg27
I00
sg28
I4851908
sg20
S'16278.4745774'
p508
sba(igraph
Edge
p509
(dp510
g7
I1
sg8
I00
sg9
I5
sg10
(lp511
g201
ag257
asg26
I00
sg27
I00
sg28
I4851909
sg20
S'16278.4766645'
p512
sba(igraph
Edge
p513
(dp514
g7
I1
sg8
I00
sg9
I5
sg10
(lp515
g208
ag257
asg26
I00
sg27
I00
sg28
I4851910
sg20
S'16278.4787578'
p516
sba(igraph
Edge
p517
(dp518
g7
I1
sg8
I00
sg9
I5
sg10
(lp519
g170
ag222
asg26
I00
sg27
I00
sg28
I4851911
sg20
S'16278.4808647'
p520
sba(igraph
Edge
p521
(dp522
g7
I1
sg8
I00
sg9
I5
sg10
(lp523
g173
ag222
asg26
I00
sg27
I00
sg28
I4851912
sg20
S'16278.4831444'
p524
sba(igraph
Edge
p525
(dp526
g7
I1
sg8
I00
sg9
I5
sg10
(lp527
g180
ag236
asg26
I00
sg27
I00
sg28
I4851913
sg20
S'16278.4853849'
p528
sba(igraph
Edge
p529
(dp530
g7
I1
sg8
I00
sg9
I5
sg10
(lp531
g187
ag236
asg26
I00
sg27
I00
sg28
I4851914
sg20
S'16278.487653'
p532
sba(igraph
Edge
p533
(dp534
g7
I1
sg8
I00
sg9
I5
sg10
(lp535
g194
ag250
asg26
I00
sg27
I00
sg28
I4851915
sg20
S'16278.4899139'
p536
sba(igraph
Edge
p537
(dp538
g7
I1
sg8
I00
sg9
I5
sg10
(lp539
g201
ag250
asg26
I00
sg27
I00
sg28
I4851916
sg20
S'16278.4921592'
p540
sba(igraph
Edge
p541
(dp542
g7
I1
sg8
I00
sg9
I5
sg10
(lp543
g208
ag219
asg26
I00
sg27
I00
sg28
I4851917
sg20
S'16278.4945006'
p544
sbasS'vertices'
p545
(lp546
g12
ag23
ag33
ag40
ag47
ag54
ag61
ag72
ag75
ag82
ag89
ag96
ag103
ag110
ag121
ag124
ag131
ag138
ag145
ag152
ag159
ag170
ag173
ag180
ag187
ag194
ag201
ag208
ag219
ag222
ag229
ag236
ag243
ag250
ag257
asS'tags'
p547
(lp548
sb.