(igraph
Graph
p0
(dp1
S'labelingConstraints'
p2
I-1
sS'edges'
p3
(lp4
(igraph
Edge
p5
(dp6
S'direction'
p7
I1
sS'selected'
p8
I00
sS'height'
p9
I5
sS'vs'
p10
(lp11
(igraph
Vertex
p12
(dp13
S'xnorm'
p14
F0.0
sg8
I01
sS'label'
p15
I0
sS'y'
p16
F-125.0
sS'x'
p17
F459.0
sS'circle'
p18
I4846459
sS'id'
p19
S'16228.8720332'
p20
sS'ynorm'
p21
F0.0
sba(igraph
Vertex
p22
(dp23
g14
F0.16666666666666669
sg8
I00
sg15
S'NULL'
p24
sg16
F-125.0
sg17
F407.5
sg18
I4846461
sg19
S'16228.8720715'
p25
sg21
F0.0
sbasS'wrap'
p26
I00
sS'curved'
p27
I00
sS'line'
p28
I4846332
sg19
S'16228.8874175'
p29
sba(igraph
Edge
p30
(dp31
g7
I1
sg8
I00
sg9
I5
sg10
(lp32
g22
a(igraph
Vertex
p33
(dp34
g14
F0.33333333333333337
sg8
I00
sg15
g24
sg16
F-125.0
sg17
F356.0
sg18
I4846462
sg19
S'16228.8721145'
p35
sg21
F0.0
sbasg26
I00
sg27
I00
sg28
I4846333
sg19
S'16228.8876502'
p36
sba(igraph
Edge
p37
(dp38
g7
I1
sg8
I00
sg9
I5
sg10
(lp39
g33
a(igraph
Vertex
p40
(dp41
g14
F0.50000000000000011
sg8
I00
sg15
g24
sg16
F-125.0
sg17
F304.5
sg18
I4846463
sg19
S'16228.8721684'
p42
sg21
F0.0
sbasg26
I00
sg27
I00
sg28
I4846334
sg19
S'16228.8878207'
p43
sba(igraph
Edge
p44
(dp45
g7
I1
sg8
I00
sg9
I5
sg10
(lp46
g40
a(igraph
Vertex
p47
(dp48
g14
F0.66666666666666674
sg8
I00
sg15
g24
sg16
F-125.0
sg17
F252.99999999999997
sg18
I4846464
sg19
S'16228.872236'
p49
sg21
F0.0
sbasg26
I00
sg27
I00
sg28
I4846335
sg19
S'16228.8880305'
p50
sba(igraph
Edge
p51
(dp52
g7
I1
sg8
I00
sg9
I5
sg10
(lp53
g47
a(igraph
Vertex
p54
(dp55
g14
F0.83333333333333337
sg8
I00
sg15
g24
sg16
F-125.0
sg17
F201.5
sg18
I4846465
sg19
S'16228.8723248'
p56
sg21
F0.0
sbasg26
I00
sg27
I00
sg28
I4846336
sg19
S'16228.8882861'
p57
sba(igraph
Edge
p58
(dp59
g7
I1
sg8
I00
sg9
I5
sg10
(lp60
g54
a(igraph
Vertex
p61
(dp62
g14
F1.0
sg8
I00
sg15
g24
sg16
F-125.0
sg17
F150.0
sg18
I4846466
sg19
S'16228.8724262'
p63
sg21
F0.0
sbasg26
I00
sg27
I00
sg28
I4846337
sg19
S'16228.8885909'
p64
sba(igraph
Edge
p65
(dp66
g7
I1
sg8
I00
sg9
I5
sg10
(lp67
g61
ag12
asg26
I00
sg27
I00
sg28
I4846338
sg19
S'16228.8889398'
p68
sba(igraph
Edge
p69
(dp70
g7
I1
sg8
I00
sg9
I5
sg10
(lp71
(igraph
Vertex
p72
(dp73
g14
F0.0
sg8
I00
sg15
g24
sg16
F-75.0
sg17
F459.0
sg18
I4846467
sg19
S'16228.8725402'
p74
sg21
F0.20000000000000001
sba(igraph
Vertex
p75
(dp76
g14
F0.16666666666666669
sg8
I01
sg15
I0
sg16
F-75.0
sg17
F407.5
sg18
I4846469
sg19
S'16228.872671'
p77
sg21
F0.20000000000000001
sbasg26
I00
sg27
I00
sg28
I4846339
sg19
S'16228.8893337'
p78
sba(igraph
Edge
p79
(dp80
g7
I1
sg8
I00
sg9
I5
sg10
(lp81
g75
a(igraph
Vertex
p82
(dp83
g14
F0.33333333333333337
sg8
I00
sg15
g24
sg16
F-75.0
sg17
F356.0
sg18
I4846471
sg19
S'16228.8728165'
p84
sg21
F0.20000000000000001
sbasg26
I00
sg27
I00
sg28
I4846340
sg19
S'16228.8899053'
p85
sba(igraph
Edge
p86
(dp87
g7
I1
sg8
I00
sg9
I5
sg10
(lp88
g82
a(igraph
Vertex
p89
(dp90
g14
F0.50000000000000011
sg8
I00
sg15
g24
sg16
F-75.0
sg17
F304.5
sg18
I4846472
sg19
S'16228.8729911'
p91
sg21
F0.20000000000000001
sbasg26
I00
sg27
I00
sg28
I4846341
sg19
S'16228.8904039'
p92
sba(igraph
Edge
p93
(dp94
g7
I1
sg8
I00
sg9
I5
sg10
(lp95
g89
a(igraph
Vertex
p96
(dp97
g14
F0.66666666666666674
sg8
I00
sg15
g24
sg16
F-75.0
sg17
F252.99999999999997
sg18
I4846473
sg19
S'16228.8731724'
p98
sg21
F0.20000000000000001
sbasg26
I00
sg27
I00
sg28
I4846342
sg19
S'16228.8909462'
p99
sba(igraph
Edge
p100
(dp101
g7
I1
sg8
I00
sg9
I5
sg10
(lp102
g96
a(igraph
Vertex
p103
(dp104
g14
F0.83333333333333337
sg8
I00
sg15
g24
sg16
F-75.0
sg17
F201.5
sg18
I4846474
sg19
S'16228.8733646'
p105
sg21
F0.20000000000000001
sbasg26
I00
sg27
I00
sg28
I4846343
sg19
S'16228.8915616'
p106
sba(igraph
Edge
p107
(dp108
g7
I1
sg8
I00
sg9
I5
sg10
(lp109
g103
a(igraph
Vertex
p110
(dp111
g14
F1.0
sg8
I00
sg15
g24
sg16
F-75.0
sg17
F150.0
sg18
I4846475
sg19
S'16228.8735895'
p112
sg21
F0.20000000000000001
sbasg26
I00
sg27
I00
sg28
I4846344
sg19
S'16228.8921941'
p113
sba(igraph
Edge
p114
(dp115
g7
I1
sg8
I00
sg9
I5
sg10
(lp116
g110
ag72
asg26
I00
sg27
I00
sg28
I4846345
sg19
S'16228.8928682'
p117
sba(igraph
Edge
p118
(dp119
g7
I1
sg8
I00
sg9
I5
sg10
(lp120
(igraph
Vertex
p121
(dp122
g14
F0.0
sg8
I00
sg15
g24
sg16
F-25.0
sg17
F459.0
sg18
I4846476
sg19
S'16228.873815'
p123
sg21
F0.40000000000000002
sba(igraph
Vertex
p124
(dp125
g14
F0.16666666666666669
sg8
I00
sg15
g24
sg16
F-25.0
sg17
F407.5
sg18
I4846477
sg19
S'16228.8740647'
p126
sg21
F0.40000000000000002
sbasg26
I00
sg27
I00
sg28
I4846346
sg19
S'16228.8935879'
p127
sba(igraph
Edge
p128
(dp129
g7
I1
sg8
I00
sg9
I5
sg10
(lp130
g124
a(igraph
Vertex
p131
(dp132
g14
F0.33333333333333337
sg8
I00
sg15
g24
sg16
F-25.0
sg17
F356.0
sg18
I4846478
sg19
S'16228.8743217'
p133
sg21
F0.40000000000000002
sbasg26
I00
sg27
I00
sg28
I4846347
sg19
S'16228.8943617'
p134
sba(igraph
Edge
p135
(dp136
g7
I1
sg8
I00
sg9
I5
sg10
(lp137
g131
a(igraph
Vertex
p138
(dp139
g14
F0.50000000000000011
sg8
I01
sg15
I0
sg16
F-25.0
sg17
F304.5
sg18
I4846480
sg19
S'16228.8745924'
p140
sg21
F0.40000000000000002
sbasg26
I00
sg27
I00
sg28
I4846348
sg19
S'16228.8951741'
p141
sba(igraph
Edge
p142
(dp143
g7
I1
sg8
I00
sg9
I5
sg10
(lp144
g138
a(igraph
Vertex
p145
(dp146
g14
F0.66666666666666674
sg8
I00
sg15
g24
sg16
F-25.0
sg17
F252.99999999999997
sg18
I4846482
sg19
S'16228.8748886'
p147
sg21
F0.40000000000000002
sbasg26
I00
sg27
I00
sg28
I4846349
sg19
S'16228.8961005'
p148
sba(igraph
Edge
p149
(dp150
g7
I1
sg8
I00
sg9
I5
sg10
(lp151
g145
a(igraph
Vertex
p152
(dp153
g14
F0.83333333333333337
sg8
I00
sg15
g24
sg16
F-25.0
sg17
F201.5
sg18
I4846483
sg19
S'16228.8751928'
p154
sg21
F0.40000000000000002
sbasg26
I00
sg27
I00
sg28
I4846350
sg19
S'16228.8970481'
p155
sba(igraph
Edge
p156
(dp157
g7
I1
sg8
I00
sg9
I5
sg10
(lp158
g152
a(igraph
Vertex
p159
(dp160
g14
F1.0
sg8
I00
sg15
g24
sg16
F-25.0
sg17
F150.0
sg18
I4846484
sg19
S'16228.8755143'
p161
sg21
F0.40000000000000002
sbasg26
I00
sg27
I00
sg28
I4846351
sg19
S'16228.8980038'
p162
sba(igraph
Edge
p163
(dp164
g7
I1
sg8
I00
sg9
I5
sg10
(lp165
g159
ag121
asg26
I00
sg27
I00
sg28
I4846352
sg19
S'16228.8990031'
p166
sba(igraph
Edge
p167
(dp168
g7
I1
sg8
I00
sg9
I5
sg10
(lp169
(igraph
Vertex
p170
(dp171
g14
F0.0
sg8
I00
sg15
g24
sg16
F25.0
sg17
F459.0
sg18
I4846485
sg19
S'16228.8759096'
p172
sg21
F0.59999999999999998
sba(igraph
Vertex
p173
(dp174
g14
F0.16666666666666669
sg8
I00
sg15
g24
sg16
F25.0
sg17
F407.5
sg18
I4846486
sg19
S'16228.8763206'
p175
sg21
F0.59999999999999998
sbasg26
I00
sg27
I00
sg28
I4846353
sg19
S'16228.900046'
p176
sba(igraph
Edge
p177
(dp178
g7
I1
sg8
I00
sg9
I5
sg10
(lp179
g173
a(igraph
Vertex
p180
(dp181
g14
F0.33333333333333337
sg8
I00
sg15
g24
sg16
F25.0
sg17
F356.0
sg18
I4846487
sg19
S'16228.8766885'
p182
sg21
F0.59999999999999998
sbasg26
I00
sg27
I00
sg28
I4846354
sg19
S'16228.9011715'
p183
sba(igraph
Edge
p184
(dp185
g7
I1
sg8
I00
sg9
I5
sg10
(lp186
g180
a(igraph
Vertex
p187
(dp188
g14
F0.50000000000000011
sg8
I00
sg15
g24
sg16
F25.0
sg17
F304.5
sg18
I4846488
sg19
S'16228.8770763'
p189
sg21
F0.59999999999999998
sbasg26
I00
sg27
I00
sg28
I4846355
sg19
S'16228.9024753'
p190
sba(igraph
Edge
p191
(dp192
g7
I1
sg8
I00
sg9
I5
sg10
(lp193
g187
a(igraph
Vertex
p194
(dp195
g14
F0.66666666666666674
sg8
I00
sg15
g24
sg16
F25.0
sg17
F252.99999999999997
sg18
I4846489
sg19
S'16228.8774822'
p196
sg21
F0.59999999999999998
sbasg26
I00
sg27
I00
sg28
I4846356
sg19
S'16228.9039305'
p197
sba(igraph
Edge
p198
(dp199
g7
I1
sg8
I00
sg9
I5
sg10
(lp200
g194
a(igraph
Vertex
p201
(dp202
g14
F0.83333333333333337
sg8
I01
sg15
I0
sg16
F25.0
sg17
F201.5
sg18
I4846491
sg19
S'16228.8779004'
p203
sg21
F0.59999999999999998
sbasg26
I00
sg27
I00
sg28
I4846357
sg19
S'16228.9052271'
p204
sba(igraph
Edge
p205
(dp206
g7
I1
sg8
I00
sg9
I5
sg10
(lp207
g201
a(igraph
Vertex
p208
(dp209
g14
F1.0
sg8
I00
sg15
g24
sg16
F25.0
sg17
F150.0
sg18
I4846493
sg19
S'16228.8783371'
p210
sg21
F0.59999999999999998
sbasg26
I00
sg27
I00
sg28
I4846358
sg19
S'16228.9065021'
p211
sba(igraph
Edge
p212
(dp213
g7
I1
sg8
I00
sg9
I5
sg10
(lp214
g208
ag170
asg26
I00
sg27
I00
sg28
I4846359
sg19
S'16228.9078187'
p215
sba(igraph
Edge
p216
(dp217
g7
I1
sg8
I00
sg9
I5
sg10
(lp218
(igraph
Vertex
p219
(dp220
g14
F0.0
sg8
I00
sg15
g24
sg16
F75.0
sg17
F459.0
sg18
I4846494
sg19
S'16228.8787896'
p221
sg21
F0.80000000000000004
sba(igraph
Vertex
p222
(dp223
g14
F0.16666666666666669
sg8
I00
sg15
g24
sg16
F75.0
sg17
F407.5
sg18
I4846495
sg19
S'16228.8792556'
p224
sg21
F0.80000000000000004
sbasg26
I00
sg27
I00
sg28
I4846360
sg19
S'16228.9092142'
p225
sba(igraph
Edge
p226
(dp227
g7
I1
sg8
I00
sg9
I5
sg10
(lp228
g222
a(igraph
Vertex
p229
(dp230
g14
F0.33333333333333337
sg8
I00
sg15
g24
sg16
F75.0
sg17
F356.0
sg18
I4846496
sg19
S'16228.8801839'
p231
sg21
F0.80000000000000004
sbasg26
I00
sg27
I00
sg28
I4846361
sg19
S'16228.9106238'
p232
sba(igraph
Edge
p233
(dp234
g7
I1
sg8
I00
sg9
I5
sg10
(lp235
g229
a(igraph
Vertex
p236
(dp237
g14
F0.50000000000000011
sg8
I00
sg15
g24
sg16
F75.0
sg17
F304.5
sg18
I4846497
sg19
S'16228.8806955'
p238
sg21
F0.80000000000000004
sbasg26
I00
sg27
I00
sg28
I4846362
sg19
S'16228.912274'
p239
sba(igraph
Edge
p240
(dp241
g7
I1
sg8
I00
sg9
I5
sg10
(lp242
g236
a(igraph
Vertex
p243
(dp244
g14
F0.66666666666666674
sg8
I01
sg15
I0
sg16
F75.0
sg17
F252.99999999999997
sg18
I4846499
sg19
S'16228.8812209'
p245
sg21
F0.80000000000000004
sbasg26
I00
sg27
I00
sg28
I4846363
sg19
S'16228.9138399'
p246
sba(igraph
Edge
p247
(dp248
g7
I1
sg8
I00
sg9
I5
sg10
(lp249
g243
a(igraph
Vertex
p250
(dp251
g14
F0.83333333333333337
sg8
I00
sg15
g24
sg16
F75.0
sg17
F201.5
sg18
I4846501
sg19
S'16228.8817607'
p252
sg21
F0.80000000000000004
sbasg26
I00
sg27
I00
sg28
I4846364
sg19
S'16228.915413'
p253
sba(igraph
Edge
p254
(dp255
g7
I1
sg8
I00
sg9
I5
sg10
(lp256
g250
a(igraph
Vertex
p257
(dp258
g14
F1.0
sg8
I00
sg15
g24
sg16
F75.0
sg17
F150.0
sg18
I4846502
sg19
S'16228.8823174'
p259
sg21
F0.80000000000000004
sbasg26
I00
sg27
I00
sg28
I4846365
sg19
S'16228.9170688'
p260
sba(igraph
Edge
p261
(dp262
g7
I1
sg8
I00
sg9
I5
sg10
(lp263
g257
ag219
asg26
I00
sg27
I00
sg28
I4846366
sg19
S'16228.9187601'
p264
sba(igraph
Edge
p265
(dp266
g7
I1
sg8
I00
sg9
I5
sg10
(lp267
(igraph
Vertex
p268
(dp269
g14
F0.0
sg8
I00
sg15
g24
sg16
F125.0
sg17
F459.0
sg18
I4846503
sg19
S'16228.8828915'
p270
sg21
F1.0
sba(igraph
Vertex
p271
(dp272
g14
F0.16666666666666669
sg8
I00
sg15
g24
sg16
F125.0
sg17
F407.5
sg18
I4846504
sg19
S'16228.8834807'
p273
sg21
F1.0
sbasg26
I00
sg27
I00
sg28
I4846367
sg19
S'16228.9206567'
p274
sba(igraph
Edge
p275
(dp276
g7
I1
sg8
I00
sg9
I5
sg10
(lp277
g271
a(igraph
Vertex
p278
(dp279
g14
F0.33333333333333337
sg8
I00
sg15
g24
sg16
F125.0
sg17
F356.0
sg18
I4846505
sg19
S'16228.8841171'
p280
sg21
F1.0
sbasg26
I00
sg27
I00
sg28
I4846368
sg19
S'16228.922408'
p281
sba(igraph
Edge
p282
(dp283
g7
I1
sg8
I00
sg9
I5
sg10
(lp284
g278
a(igraph
Vertex
p285
(dp286
g14
F0.50000000000000011
sg8
I00
sg15
g24
sg16
F125.0
sg17
F304.5
sg18
I4846506
sg19
S'16228.8847362'
p287
sg21
F1.0
sbasg26
I00
sg27
I00
sg28
I4846369
sg19
S'16228.9242806'
p288
sba(igraph
Edge
p289
(dp290
g7
I1
sg8
I00
sg9
I5
sg10
(lp291
g285
a(igraph
Vertex
p292
(dp293
g14
F0.66666666666666674
sg8
I00
sg15
g24
sg16
F125.0
sg17
F252.99999999999997
sg18
I4846507
sg19
S'16228.8853717'
p294
sg21
F1.0
sbasg26
I00
sg27
I00
sg28
I4846370
sg19
S'16228.9261079'
p295
sba(igraph
Edge
p296
(dp297
g7
I1
sg8
I00
sg9
I5
sg10
(lp298
g292
a(igraph
Vertex
p299
(dp300
g14
F0.83333333333333337
sg8
I00
sg15
g24
sg16
F125.0
sg17
F201.5
sg18
I4846508
sg19
S'16228.8860221'
p301
sg21
F1.0
sbasg26
I00
sg27
I00
sg28
I4846371
sg19
S'16228.9280098'
p302
sba(igraph
Edge
p303
(dp304
g7
I1
sg8
I00
sg9
I5
sg10
(lp305
g299
a(igraph
Vertex
p306
(dp307
g14
F1.0
sg8
I01
sg15
I0
sg16
F125.0
sg17
F150.0
sg18
I4846510
sg19
S'16228.8866878'
p308
sg21
F1.0
sbasg26
I00
sg27
I00
sg28
I4846372
sg19
S'16228.9299668'
p309
sba(igraph
Edge
p310
(dp311
g7
I1
sg8
I00
sg9
I5
sg10
(lp312
g306
ag268
asg26
I00
sg27
I00
sg28
I4846373
sg19
S'16228.9320489'
p313
sba(igraph
Edge
p314
(dp315
g7
I1
sg8
I00
sg9
I5
sg10
(lp316
g12
ag72
asg26
I00
sg27
I00
sg28
I4846374
sg19
S'16228.934071'
p317
sba(igraph
Edge
p318
(dp319
g7
I1
sg8
I00
sg9
I5
sg10
(lp320
g22
ag82
asg26
I00
sg27
I00
sg28
I4846375
sg19
S'16228.9363796'
p321
sba(igraph
Edge
p322
(dp323
g7
I1
sg8
I00
sg9
I5
sg10
(lp324
g33
ag82
asg26
I00
sg27
I00
sg28
I4846376
sg19
S'16228.9384897'
p325
sba(igraph
Edge
p326
(dp327
g7
I1
sg8
I00
sg9
I5
sg10
(lp328
g40
ag96
asg26
I00
sg27
I00
sg28
I4846377
sg19
S'16228.9406327'
p329
sba(igraph
Edge
p330
(dp331
g7
I1
sg8
I00
sg9
I5
sg10
(lp332
g47
ag96
asg26
I00
sg27
I00
sg28
I4846378
sg19
S'16228.9429307'
p333
sba(igraph
Edge
p334
(dp335
g7
I1
sg8
I00
sg9
I5
sg10
(lp336
g54
ag110
asg26
I00
sg27
I00
sg28
I4846379
sg19
S'16228.9452131'
p337
sba(igraph
Edge
p338
(dp339
g7
I1
sg8
I00
sg9
I5
sg10
(lp340
g61
ag110
asg26
I00
sg27
I00
sg28
I4846380
sg19
S'16228.9477361'
p341
sba(igraph
Edge
p342
(dp343
g7
I1
sg8
I00
sg9
I5
sg10
(lp344
g12
ag75
asg26
I00
sg27
I00
sg28
I4846381
sg19
S'16228.9501459'
p345
sba(igraph
Edge
p346
(dp347
g7
I1
sg8
I00
sg9
I5
sg10
(lp348
g22
ag75
asg26
I00
sg27
I00
sg28
I4846382
sg19
S'16228.9526758'
p349
sba(igraph
Edge
p350
(dp351
g7
I1
sg8
I00
sg9
I5
sg10
(lp352
g33
ag89
asg26
I00
sg27
I00
sg28
I4846383
sg19
S'16228.9552097'
p353
sba(igraph
Edge
p354
(dp355
g7
I1
sg8
I00
sg9
I5
sg10
(lp356
g40
ag89
asg26
I00
sg27
I00
sg28
I4846384
sg19
S'16228.9579994'
p357
sba(igraph
Edge
p358
(dp359
g7
I1
sg8
I00
sg9
I5
sg10
(lp360
g47
ag103
asg26
I00
sg27
I00
sg28
I4846385
sg19
S'16228.9606855'
p361
sba(igraph
Edge
p362
(dp363
g7
I1
sg8
I00
sg9
I5
sg10
(lp364
g54
ag103
asg26
I00
sg27
I00
sg28
I4846386
sg19
S'16228.9632939'
p365
sba(igraph
Edge
p366
(dp367
g7
I1
sg8
I00
sg9
I5
sg10
(lp368
g61
ag72
asg26
I00
sg27
I00
sg28
I4846387
sg19
S'16228.9660482'
p369
sba(igraph
Edge
p370
(dp371
g7
I1
sg8
I00
sg9
I5
sg10
(lp372
g12
ag268
asg26
I00
sg27
I00
sg28
I4846388
sg19
S'16228.9687156'
p373
sba(igraph
Edge
p374
(dp375
g7
I1
sg8
I00
sg9
I5
sg10
(lp376
g22
ag268
asg26
I00
sg27
I00
sg28
I4846389
sg19
S'16228.9714615'
p377
sba(igraph
Edge
p378
(dp379
g7
I1
sg8
I00
sg9
I5
sg10
(lp380
g33
ag278
asg26
I00
sg27
I00
sg28
I4846390
sg19
S'16228.9742842'
p381
sba(igraph
Edge
p382
(dp383
g7
I1
sg8
I00
sg9
I5
sg10
(lp384
g40
ag278
asg26
I00
sg27
I00
sg28
I4846391
sg19
S'16228.9771703'
p385
sba(igraph
Edge
p386
(dp387
g7
I1
sg8
I00
sg9
I5
sg10
(lp388
g47
ag292
asg26
I00
sg27
I00
sg28
I4846392
sg19
S'16228.9801391'
p389
sba(igraph
Edge
p390
(dp391
g7
I1
sg8
I00
sg9
I5
sg10
(lp392
g54
ag292
asg26
I00
sg27
I00
sg28
I4846393
sg19
S'16228.9832959'
p393
sba(igraph
Edge
p394
(dp395
g7
I1
sg8
I00
sg9
I5
sg10
(lp396
g61
ag306
asg26
I00
sg27
I00
sg28
I4846394
sg19
S'16228.9863539'
p397
sba(igraph
Edge
p398
(dp399
g7
I1
sg8
I00
sg9
I5
sg10
(lp400
g12
ag306
asg26
I00
sg27
I00
sg28
I4846395
sg19
S'16228.9894383'
p401
sba(igraph
Edge
p402
(dp403
g7
I1
sg8
I00
sg9
I5
sg10
(lp404
g22
ag271
asg26
I00
sg27
I00
sg28
I4846396
sg19
S'16228.9925932'
p405
sba(igraph
Edge
p406
(dp407
g7
I1
sg8
I00
sg9
I5
sg10
(lp408
g33
ag271
asg26
I00
sg27
I00
sg28
I4846397
sg19
S'16228.9956668'
p409
sba(igraph
Edge
p410
(dp411
g7
I1
sg8
I00
sg9
I5
sg10
(lp412
g40
ag285
asg26
I00
sg27
I00
sg28
I4846398
sg19
S'16228.9988621'
p413
sba(igraph
Edge
p414
(dp415
g7
I1
sg8
I00
sg9
I5
sg10
(lp416
g47
ag285
asg26
I00
sg27
I00
sg28
I4846399
sg19
S'16229.002238'
p417
sba(igraph
Edge
p418
(dp419
g7
I1
sg8
I00
sg9
I5
sg10
(lp420
g54
ag299
asg26
I00
sg27
I00
sg28
I4846400
sg19
S'16229.0056471'
p421
sba(igraph
Edge
p422
(dp423
g7
I1
sg8
I00
sg9
I5
sg10
(lp424
g61
ag299
asg26
I00
sg27
I00
sg28
I4846401
sg19
S'16229.0089101'
p425
sba(igraph
Edge
p426
(dp427
g7
I1
sg8
I00
sg9
I5
sg10
(lp428
g72
ag121
asg26
I00
sg27
I00
sg28
I4846402
sg19
S'16229.0105147'
p429
sba(igraph
Edge
p430
(dp431
g7
I1
sg8
I00
sg9
I5
sg10
(lp432
g75
ag131
asg26
I00
sg27
I00
sg28
I4846403
sg19
S'16229.0121468'
p433
sba(igraph
Edge
p434
(dp435
g7
I1
sg8
I00
sg9
I5
sg10
(lp436
g82
ag131
asg26
I00
sg27
I00
sg28
I4846404
sg19
S'16229.0137467'
p437
sba(igraph
Edge
p438
(dp439
g7
I1
sg8
I00
sg9
I5
sg10
(lp440
g89
ag145
asg26
I00
sg27
I00
sg28
I4846405
sg19
S'16229.015362'
p441
sba(igraph
Edge
p442
(dp443
g7
I1
sg8
I00
sg9
I5
sg10
(lp444
g96
ag145
asg26
I00
sg27
I00
sg28
I4846406
sg19
S'16229.0169896'
p445
sba(igraph
Edge
p446
(dp447
g7
I1
sg8
I00
sg9
I5
sg10
(lp448
g103
ag159
asg26
I00
sg27
I00
sg28
I4846407
sg19
S'16229.0186395'
p449
sba(igraph
Edge
p450
(dp451
g7
I1
sg8
I00
sg9
I5
sg10
(lp452
g110
ag159
asg26
I00
sg27
I00
sg28
I4846408
sg19
S'16229.0203462'
p453
sba(igraph
Edge
p454
(dp455
g7
I1
sg8
I00
sg9
I5
sg10
(lp456
g72
ag124
asg26
I00
sg27
I00
sg28
I4846409
sg19
S'16229.0220184'
p457
sba(igraph
Edge
p458
(dp459
g7
I1
sg8
I00
sg9
I5
sg10
(lp460
g75
ag124
asg26
I00
sg27
I00
sg28
I4846410
sg19
S'16229.0237044'
p461
sba(igraph
Edge
p462
(dp463
g7
I1
sg8
I00
sg9
I5
sg10
(lp464
g82
ag138
asg26
I00
sg27
I00
sg28
I4846411
sg19
S'16229.0254421'
p465
sba(igraph
Edge
p466
(dp467
g7
I1
sg8
I00
sg9
I5
sg10
(lp468
g89
ag138
asg26
I00
sg27
I00
sg28
I4846412
sg19
S'16229.0271733'
p469
sba(igraph
Edge
p470
(dp471
g7
I1
sg8
I00
sg9
I5
sg10
(lp472
g96
ag152
asg26
I00
sg27
I00
sg28
I4846413
sg19
S'16229.0290702'
p473
sba(igraph
Edge
p474
(dp475
g7
I1
sg8
I00
sg9
I5
sg10
(lp476
g103
ag152
asg26
I00
sg27
I00
sg28
I4846414
sg19
S'16229.0308964'
p477
sba(igraph
Edge
p478
(dp479
g7
I1
sg8
I00
sg9
I5
sg10
(lp480
g110
ag121
asg26
I00
sg27
I00
sg28
I4846415
sg19
S'16229.0327215'
p481
sba(igraph
Edge
p482
(dp483
g7
I1
sg8
I00
sg9
I5
sg10
(lp484
g121
ag170
asg26
I00
sg27
I00
sg28
I4846416
sg19
S'16229.0345798'
p485
sba(igraph
Edge
p486
(dp487
g7
I1
sg8
I00
sg9
I5
sg10
(lp488
g124
ag180
asg26
I00
sg27
I00
sg28
I4846417
sg19
S'16229.0364471'
p489
sba(igraph
Edge
p490
(dp491
g7
I1
sg8
I00
sg9
I5
sg10
(lp492
g131
ag180
asg26
I00
sg27
I00
sg28
I4846418
sg19
S'16229.0383208'
p493
sba(igraph
Edge
p494
(dp495
g7
I1
sg8
I00
sg9
I5
sg10
(lp496
g138
ag194
asg26
I00
sg27
I00
sg28
I4846419
sg19
S'16229.0402406'
p497
sba(igraph
Edge
p498
(dp499
g7
I1
sg8
I00
sg9
I5
sg10
(lp500
g145
ag194
asg26
I00
sg27
I00
sg28
I4846420
sg19
S'16229.0421554'
p501
sba(igraph
Edge
p502
(dp503
g7
I1
sg8
I00
sg9
I5
sg10
(lp504
g152
ag208
asg26
I00
sg27
I00
sg28
I4846421
sg19
S'16229.0441165'
p505
sba(igraph
Edge
p506
(dp507
g7
I1
sg8
I00
sg9
I5
sg10
(lp508
g159
ag208
asg26
I00
sg27
I00
sg28
I4846422
sg19
S'16229.0460958'
p509
sba(igraph
Edge
p510
(dp511
g7
I1
sg8
I00
sg9
I5
sg10
(lp512
g121
ag173
asg26
I00
sg27
I00
sg28
I4846423
sg19
S'16229.0482637'
p513
sba(igraph
Edge
p514
(dp515
g7
I1
sg8
I00
sg9
I5
sg10
(lp516
g124
ag173
asg26
I00
sg27
I00
sg28
I4846424
sg19
S'16229.0502673'
p517
sba(igraph
Edge
p518
(dp519
g7
I1
sg8
I00
sg9
I5
sg10
(lp520
g131
ag187
asg26
I00
sg27
I00
sg28
I4846425
sg19
S'16229.0524782'
p521
sba(igraph
Edge
p522
(dp523
g7
I1
sg8
I00
sg9
I5
sg10
(lp524
g138
ag187
asg26
I00
sg27
I00
sg28
I4846426
sg19
S'16229.0545343'
p525
sba(igraph
Edge
p526
(dp527
g7
I1
sg8
I00
sg9
I5
sg10
(lp528
g145
ag201
asg26
I00
sg27
I00
sg28
I4846427
sg19
S'16229.0566217'
p529
sba(igraph
Edge
p530
(dp531
g7
I1
sg8
I00
sg9
I5
sg10
(lp532
g152
ag201
asg26
I00
sg27
I00
sg28
I4846428
sg19
S'16229.0587807'
p533
sba(igraph
Edge
p534
(dp535
g7
I1
sg8
I00
sg9
I5
sg10
(lp536
g159
ag170
asg26
I00
sg27
I00
sg28
I4846429
sg19
S'16229.0609656'
p537
sba(igraph
Edge
p538
(dp539
g7
I1
sg8
I00
sg9
I5
sg10
(lp540
g170
ag219
asg26
I00
sg27
I00
sg28
I4846430
sg19
S'16229.0630899'
p541
sba(igraph
Edge
p542
(dp543
g7
I1
sg8
I00
sg9
I5
sg10
(lp544
g173
ag229
asg26
I00
sg27
I00
sg28
I4846431
sg19
S'16229.0652787'
p545
sba(igraph
Edge
p546
(dp547
g7
I1
sg8
I00
sg9
I5
sg10
(lp548
g180
ag229
asg26
I00
sg27
I00
sg28
I4846432
sg19
S'16229.0674494'
p549
sba(igraph
Edge
p550
(dp551
g7
I1
sg8
I00
sg9
I5
sg10
(lp552
g187
ag243
asg26
I00
sg27
I00
sg28
I4846433
sg19
S'16229.0696988'
p553
sba(igraph
Edge
p554
(dp555
g7
I1
sg8
I00
sg9
I5
sg10
(lp556
g194
ag243
asg26
I00
sg27
I00
sg28
I4846434
sg19
S'16229.0719334'
p557
sba(igraph
Edge
p558
(dp559
g7
I1
sg8
I00
sg9
I5
sg10
(lp560
g201
ag257
asg26
I00
sg27
I00
sg28
I4846435
sg19
S'16229.0742237'
p561
sba(igraph
Edge
p562
(dp563
g7
I1
sg8
I00
sg9
I5
sg10
(lp564
g208
ag257
asg26
I00
sg27
I00
sg28
I4846436
sg19
S'16229.0765231'
p565
sba(igraph
Edge
p566
(dp567
g7
I1
sg8
I00
sg9
I5
sg10
(lp568
g170
ag222
asg26
I00
sg27
I00
sg28
I4846437
sg19
S'16229.0788109'
p569
sba(igraph
Edge
p570
(dp571
g7
I1
sg8
I00
sg9
I5
sg10
(lp572
g173
ag222
asg26
I00
sg27
I00
sg28
I4846438
sg19
S'16229.0812067'
p573
sba(igraph
Edge
p574
(dp575
g7
I1
sg8
I00
sg9
I5
sg10
(lp576
g180
ag236
asg26
I00
sg27
I00
sg28
I4846439
sg19
S'16229.0835534'
p577
sba(igraph
Edge
p578
(dp579
g7
I1
sg8
I00
sg9
I5
sg10
(lp580
g187
ag236
asg26
I00
sg27
I00
sg28
I4846440
sg19
S'16229.0859704'
p581
sba(igraph
Edge
p582
(dp583
g7
I1
sg8
I00
sg9
I5
sg10
(lp584
g194
ag250
asg26
I00
sg27
I00
sg28
I4846441
sg19
S'16229.0884906'
p585
sba(igraph
Edge
p586
(dp587
g7
I1
sg8
I00
sg9
I5
sg10
(lp588
g201
ag250
asg26
I00
sg27
I00
sg28
I4846442
sg19
S'16229.0909713'
p589
sba(igraph
Edge
p590
(dp591
g7
I1
sg8
I00
sg9
I5
sg10
(lp592
g208
ag219
asg26
I00
sg27
I00
sg28
I4846443
sg19
S'16229.0934351'
p593
sba(igraph
Edge
p594
(dp595
g7
I1
sg8
I00
sg9
I5
sg10
(lp596
g219
ag268
asg26
I00
sg27
I00
sg28
I4846444
sg19
S'16229.0958893'
p597
sba(igraph
Edge
p598
(dp599
g7
I1
sg8
I00
sg9
I5
sg10
(lp600
g222
ag278
asg26
I00
sg27
I00
sg28
I4846445
sg19
S'16229.0983793'
p601
sba(igraph
Edge
p602
(dp603
g7
I1
sg8
I00
sg9
I5
sg10
(lp604
g229
ag278
asg26
I00
sg27
I00
sg28
I4846446
sg19
S'16229.1009961'
p605
sba(igraph
Edge
p606
(dp607
g7
I1
sg8
I00
sg9
I5
sg10
(lp608
g236
ag292
asg26
I00
sg27
I00
sg28
I4846447
sg19
S'16229.1035545'
p609
sba(igraph
Edge
p610
(dp611
g7
I1
sg8
I00
sg9
I5
sg10
(lp612
g243
ag292
asg26
I00
sg27
I00
sg28
I4846448
sg19
S'16229.1060978'
p613
sba(igraph
Edge
p614
(dp615
g7
I1
sg8
I00
sg9
I5
sg10
(lp616
g250
ag306
asg26
I00
sg27
I00
sg28
I4846449
sg19
S'16229.1086378'
p617
sba(igraph
Edge
p618
(dp619
g7
I1
sg8
I00
sg9
I5
sg10
(lp620
g257
ag306
asg26
I00
sg27
I00
sg28
I4846450
sg19
S'16229.1112488'
p621
sba(igraph
Edge
p622
(dp623
g7
I1
sg8
I00
sg9
I5
sg10
(lp624
g219
ag271
asg26
I00
sg27
I00
sg28
I4846451
sg19
S'16229.1138402'
p625
sba(igraph
Edge
p626
(dp627
g7
I1
sg8
I00
sg9
I5
sg10
(lp628
g222
ag271
asg26
I00
sg27
I00
sg28
I4846452
sg19
S'16229.1164642'
p629
sba(igraph
Edge
p630
(dp631
g7
I1
sg8
I00
sg9
I5
sg10
(lp632
g229
ag285
asg26
I00
sg27
I00
sg28
I4846453
sg19
S'16229.1191467'
p633
sba(igraph
Edge
p634
(dp635
g7
I1
sg8
I00
sg9
I5
sg10
(lp636
g236
ag285
asg26
I00
sg27
I00
sg28
I4846454
sg19
S'16229.1218605'
p637
sba(igraph
Edge
p638
(dp639
g7
I1
sg8
I00
sg9
I5
sg10
(lp640
g243
ag299
asg26
I00
sg27
I00
sg28
I4846455
sg19
S'16229.1247843'
p641
sba(igraph
Edge
p642
(dp643
g7
I1
sg8
I00
sg9
I5
sg10
(lp644
g250
ag299
asg26
I00
sg27
I00
sg28
I4846456
sg19
S'16229.1275425'
p645
sba(igraph
Edge
p646
(dp647
g7
I1
sg8
I00
sg9
I5
sg10
(lp648
g257
ag268
asg26
I00
sg27
I00
sg28
I4846457
sg19
S'16229.1302615'
p649
sbasS'vertices'
p650
(lp651
g12
ag22
ag33
ag40
ag47
ag54
ag61
ag72
ag75
ag82
ag89
ag96
ag103
ag110
ag121
ag124
ag131
ag138
ag145
ag152
ag159
ag170
ag173
ag180
ag187
ag194
ag201
ag208
ag219
ag222
ag229
ag236
ag243
ag250
ag257
ag268
ag271
ag278
ag285
ag292
ag299
ag306
asS'tags'
p652
(lp653
sb.