(igraph
Graph
p0
(dp1
S'labelingConstraints'
p2
I-1
sS'edges'
p3
(lp4
(igraph
Edge
p5
(dp6
S'direction'
p7
I1
sS'selected'
p8
I00
sS'height'
p9
I5
sS'vs'
p10
(lp11
(igraph
Vertex
p12
(dp13
S'xnorm'
p14
F0.69076726342711003
sg8
I00
sS'label'
p15
S'NULL'
p16
sS'y'
p17
F-157.0
sS'x'
p18
F339.57608695652175
sS'circle'
p19
I4759760
sS'id'
p20
S'15944.1826883'
p21
sS'ynorm'
p22
F0.13043478260869565
sba(igraph
Vertex
p23
(dp24
g14
F0.53849104859335029
sg8
I00
sg15
g16
sg17
F-157.0
sg18
F274.85869565217388
sg19
I4759761
sg20
S'15944.1827324'
p25
sg22
F0.13043478260869565
sbasS'wrap'
p26
I00
sS'curved'
p27
I00
sS'line'
p28
I4759664
sg20
S'15944.1967999'
p29
sba(igraph
Edge
p30
(dp31
g7
I1
sg8
I00
sg9
I5
sg10
(lp32
g23
a(igraph
Vertex
p33
(dp34
g14
F0.38621483375959087
sg8
I00
sg15
g16
sg17
F-157.0
sg18
F210.14130434782612
sg19
I4759762
sg20
S'15944.1827875'
p35
sg22
F0.13043478260869565
sbasg26
I00
sg27
I00
sg28
I4759665
sg20
S'15944.1969667'
p36
sba(igraph
Edge
p37
(dp38
g7
I1
sg8
I00
sg9
I5
sg10
(lp39
g33
a(igraph
Vertex
p40
(dp41
g14
F0.23393861892583118
sg8
I00
sg15
g16
sg17
F-157.0
sg18
F145.42391304347825
sg19
I4759763
sg20
S'15944.1828545'
p42
sg22
F0.13043478260869565
sbasg26
I00
sg27
I00
sg28
I4759666
sg20
S'15944.1971765'
p43
sba(igraph
Edge
p44
(dp45
g7
I1
sg8
I00
sg9
I5
sg10
(lp46
(igraph
Vertex
p47
(dp48
g14
F0.69076726342711003
sg8
I00
sg15
I0
sg17
F-109.71428571428572
sg18
F339.57608695652175
sg19
I4759764
sg20
S'15944.183042'
p49
sg22
F0.22833481218574384
sba(igraph
Vertex
p50
(dp51
g14
F0.53849104859335029
sg8
I00
sg15
g16
sg17
F-109.71428571428572
sg18
F274.85869565217388
sg19
I4759766
sg20
S'15944.1831562'
p52
sg22
F0.22833481218574384
sbasg26
I00
sg27
I00
sg28
I4759667
sg20
S'15944.1980858'
p53
sba(igraph
Edge
p54
(dp55
g7
I1
sg8
I00
sg9
I5
sg10
(lp56
g50
a(igraph
Vertex
p57
(dp58
g14
F0.38621483375959087
sg8
I00
sg15
g16
sg17
F-109.71428571428572
sg18
F210.14130434782612
sg19
I4759767
sg20
S'15944.1832845'
p59
sg22
F0.22833481218574384
sbasg26
I00
sg27
I00
sg28
I4759668
sg20
S'15944.1984803'
p60
sba(igraph
Edge
p61
(dp62
g7
I1
sg8
I00
sg9
I5
sg10
(lp63
g57
a(igraph
Vertex
p64
(dp65
g14
F0.23393861892583118
sg8
I00
sg15
g16
sg17
F-109.71428571428572
sg18
F145.42391304347825
sg19
I4759768
sg20
S'15944.1834295'
p66
sg22
F0.22833481218574384
sbasg26
I00
sg27
I00
sg28
I4759669
sg20
S'15944.19892'
p67
sba(igraph
Edge
p68
(dp69
g7
I1
sg8
I00
sg9
I5
sg10
(lp70
(igraph
Vertex
p71
(dp72
g14
F0.69076726342711003
sg8
I00
sg15
g16
sg17
F-62.428571428571431
sg18
F339.57608695652175
sg19
I4759769
sg20
S'15944.1837669'
p73
sg22
F0.32623484176279205
sba(igraph
Vertex
p74
(dp75
g14
F0.53849104859335029
sg8
I00
sg15
g16
sg17
F-62.428571428571431
sg18
F274.85869565217388
sg19
I4759770
sg20
S'15944.1840837'
p76
sg22
F0.32623484176279205
sbasg26
I00
sg27
I00
sg28
I4759670
sg20
S'15944.2006085'
p77
sba(igraph
Edge
p78
(dp79
g7
I1
sg8
I00
sg9
I5
sg10
(lp80
g74
a(igraph
Vertex
p81
(dp82
g14
F0.38621483375959087
sg8
I00
sg15
g16
sg17
F-62.428571428571431
sg18
F210.14130434782612
sg19
I4759771
sg20
S'15944.1843047'
p83
sg22
F0.32623484176279205
sbasg26
I00
sg27
I00
sg28
I4759671
sg20
S'15944.2012393'
p84
sba(igraph
Edge
p85
(dp86
g7
I1
sg8
I00
sg9
I5
sg10
(lp87
g81
a(igraph
Vertex
p88
(dp89
g14
F0.23393861892583118
sg8
I00
sg15
g16
sg17
F-62.428571428571431
sg18
F145.42391304347825
sg19
I4759772
sg20
S'15944.1845363'
p90
sg22
F0.32623484176279205
sbasg26
I00
sg27
I00
sg28
I4759672
sg20
S'15944.201924'
p91
sba(igraph
Edge
p92
(dp93
g7
I1
sg8
I00
sg9
I5
sg10
(lp94
(igraph
Vertex
p95
(dp96
g14
F0.69076726342711003
sg8
I00
sg15
g16
sg17
F-15.142857142857139
sg18
F339.57608695652175
sg19
I4759773
sg20
S'15944.1850422'
p97
sg22
F0.42413487133984029
sba(igraph
Vertex
p98
(dp99
g14
F0.53849104859335029
sg8
I00
sg15
I0
sg17
F-15.142857142857139
sg18
F274.85869565217388
sg19
I4759774
sg20
S'15944.1853163'
p100
sg22
F0.42413487133984029
sbasg26
I00
sg27
I00
sg28
I4759673
sg20
S'15944.2042883'
p101
sba(igraph
Edge
p102
(dp103
g7
I1
sg8
I00
sg9
I5
sg10
(lp104
g98
a(igraph
Vertex
p105
(dp106
g14
F0.38621483375959087
sg8
I00
sg15
g16
sg17
F-15.142857142857139
sg18
F210.14130434782612
sg19
I4759776
sg20
S'15944.1856052'
p107
sg22
F0.42413487133984029
sbasg26
I00
sg27
I00
sg28
I4759674
sg20
S'15944.2051453'
p108
sba(igraph
Edge
p109
(dp110
g7
I1
sg8
I00
sg9
I5
sg10
(lp111
g105
a(igraph
Vertex
p112
(dp113
g14
F0.23393861892583118
sg8
I00
sg15
g16
sg17
F-15.142857142857139
sg18
F145.42391304347825
sg19
I4759777
sg20
S'15944.1859714'
p114
sg22
F0.42413487133984029
sbasg26
I00
sg27
I00
sg28
I4759675
sg20
S'15944.2060477'
p115
sba(igraph
Edge
p116
(dp117
g7
I1
sg8
I00
sg9
I5
sg10
(lp118
(igraph
Vertex
p119
(dp120
g14
F0.69076726342711003
sg8
I00
sg15
I0
sg17
F32.142857142857139
sg18
F339.57608695652175
sg19
I4759778
sg20
S'15944.186631'
p121
sg22
F0.52203490091688853
sba(igraph
Vertex
p122
(dp123
g14
F0.53849104859335029
sg8
I00
sg15
g16
sg17
F32.142857142857139
sg18
F274.85869565217388
sg19
I4759780
sg20
S'15944.1869956'
p124
sg22
F0.52203490091688853
sbasg26
I00
sg27
I00
sg28
I4759676
sg20
S'15944.2092246'
p125
sba(igraph
Edge
p126
(dp127
g7
I1
sg8
I00
sg9
I5
sg10
(lp128
g122
a(igraph
Vertex
p129
(dp130
g14
F0.38621483375959087
sg8
I00
sg15
g16
sg17
F32.142857142857139
sg18
F210.14130434782612
sg19
I4759781
sg20
S'15944.1873679'
p131
sg22
F0.52203490091688853
sbasg26
I00
sg27
I00
sg28
I4759677
sg20
S'15944.2103225'
p132
sba(igraph
Edge
p133
(dp134
g7
I1
sg8
I00
sg9
I5
sg10
(lp135
g129
a(igraph
Vertex
p136
(dp137
g14
F0.23393861892583118
sg8
I00
sg15
g16
sg17
F32.142857142857139
sg18
F145.42391304347825
sg19
I4759782
sg20
S'15944.1877593'
p138
sg22
F0.52203490091688853
sbasg26
I00
sg27
I00
sg28
I4759678
sg20
S'15944.2115037'
p139
sba(igraph
Edge
p140
(dp141
g7
I1
sg8
I00
sg9
I5
sg10
(lp142
(igraph
Vertex
p143
(dp144
g14
F0.69076726342711003
sg8
I00
sg15
g16
sg17
F79.428571428571445
sg18
F339.57608695652175
sg19
I4759783
sg20
S'15944.1887162'
p145
sg22
F0.61993493049393678
sba(igraph
Vertex
p146
(dp147
g14
F0.53849104859335029
sg8
I00
sg15
g16
sg17
F79.428571428571445
sg18
F274.85869565217388
sg19
I4759784
sg20
S'15944.1891637'
p148
sg22
F0.61993493049393678
sbasg26
I00
sg27
I00
sg28
I4759679
sg20
S'15944.2153243'
p149
sba(igraph
Edge
p150
(dp151
g7
I1
sg8
I00
sg9
I5
sg10
(lp152
g146
a(igraph
Vertex
p153
(dp154
g14
F0.38621483375959087
sg8
I00
sg15
I0
sg17
F79.428571428571445
sg18
F210.14130434782612
sg19
I4759785
sg20
S'15944.189618'
p155
sg22
F0.61993493049393678
sbasg26
I00
sg27
I00
sg28
I4759680
sg20
S'15944.2166485'
p156
sba(igraph
Edge
p157
(dp158
g7
I1
sg8
I00
sg9
I5
sg10
(lp159
g153
a(igraph
Vertex
p160
(dp161
g14
F0.23393861892583118
sg8
I00
sg15
g16
sg17
F79.428571428571445
sg18
F145.42391304347825
sg19
I4759787
sg20
S'15944.1900943'
p162
sg22
F0.61993493049393678
sbasg26
I00
sg27
I00
sg28
I4759681
sg20
S'15944.2180109'
p163
sba(igraph
Edge
p164
(dp165
g7
I1
sg8
I00
sg9
I5
sg10
(lp166
(igraph
Vertex
p167
(dp168
g14
F0.69076726342711003
sg8
I00
sg15
g16
sg17
F126.71428571428572
sg18
F339.57608695652175
sg19
I4759788
sg20
S'15944.1911003'
p169
sg22
F0.71783496007098491
sba(igraph
Vertex
p170
(dp171
g14
F0.53849104859335029
sg8
I00
sg15
g16
sg17
F126.71428571428572
sg18
F274.85869565217388
sg19
I4759789
sg20
S'15944.1916249'
p172
sg22
F0.71783496007098491
sbasg26
I00
sg27
I00
sg28
I4759682
sg20
S'15944.2225682'
p173
sba(igraph
Edge
p174
(dp175
g7
I1
sg8
I00
sg9
I5
sg10
(lp176
g170
a(igraph
Vertex
p177
(dp178
g14
F0.38621483375959087
sg8
I00
sg15
g16
sg17
F126.71428571428572
sg18
F210.14130434782612
sg19
I4759790
sg20
S'15944.1922895'
p179
sg22
F0.71783496007098491
sbasg26
I00
sg27
I00
sg28
I4759683
sg20
S'15944.2244939'
p180
sba(igraph
Edge
p181
(dp182
g7
I1
sg8
I00
sg9
I5
sg10
(lp183
g177
a(igraph
Vertex
p184
(dp185
g14
F0.23393861892583118
sg8
I00
sg15
g16
sg17
F126.71428571428572
sg18
F145.42391304347825
sg19
I4759791
sg20
S'15944.1928488'
p186
sg22
F0.71783496007098491
sbasg26
I00
sg27
I00
sg28
I4759684
sg20
S'15944.2261033'
p187
sba(igraph
Edge
p188
(dp189
g7
I1
sg8
I00
sg9
I5
sg10
(lp190
(igraph
Vertex
p191
(dp192
g14
F0.69076726342711003
sg8
I00
sg15
g16
sg17
F174.0
sg18
F339.57608695652175
sg19
I4759792
sg20
S'15944.194014'
p193
sg22
F0.81573498964803315
sba(igraph
Vertex
p194
(dp195
g14
F0.53849104859335029
sg8
I00
sg15
g16
sg17
F174.0
sg18
F274.85869565217388
sg19
I4759793
sg20
S'15944.1946845'
p196
sg22
F0.81573498964803315
sbasg26
I00
sg27
I00
sg28
I4759685
sg20
S'15944.2314411'
p197
sba(igraph
Edge
p198
(dp199
g7
I1
sg8
I00
sg9
I5
sg10
(lp200
g194
a(igraph
Vertex
p201
(dp202
g14
F0.38621483375959087
sg8
I00
sg15
g16
sg17
F174.0
sg18
F210.14130434782612
sg19
I4759794
sg20
S'15944.1953173'
p203
sg22
F0.81573498964803315
sbasg26
I00
sg27
I00
sg28
I4759686
sg20
S'15944.2332699'
p204
sba(igraph
Edge
p205
(dp206
g7
I1
sg8
I00
sg9
I5
sg10
(lp207
g201
a(igraph
Vertex
p208
(dp209
g14
F0.23393861892583118
sg8
I00
sg15
I0
sg17
F174.0
sg18
F145.42391304347825
sg19
I4759795
sg20
S'15944.1959604'
p210
sg22
F0.81573498964803315
sbasg26
I00
sg27
I00
sg28
I4759687
sg20
S'15944.2351064'
p211
sba(igraph
Edge
p212
(dp213
g7
I1
sg8
I00
sg9
I5
sg10
(lp214
g12
ag50
asg26
I00
sg27
I00
sg28
I4759688
sg20
S'15944.2463009'
p215
sba(igraph
Edge
p216
(dp217
g7
I1
sg8
I00
sg9
I5
sg10
(lp218
g23
ag50
asg26
I00
sg27
I00
sg28
I4759689
sg20
S'15944.248388'
p219
sba(igraph
Edge
p220
(dp221
g7
I1
sg8
I00
sg9
I5
sg10
(lp222
g33
ag64
asg26
I00
sg27
I00
sg28
I4759690
sg20
S'15944.2504553'
p223
sba(igraph
Edge
p224
(dp225
g7
I1
sg8
I00
sg9
I5
sg10
(lp226
g40
ag64
asg26
I00
sg27
I00
sg28
I4759691
sg20
S'15944.2526804'
p227
sba(igraph
Edge
p228
(dp229
g7
I1
sg8
I00
sg9
I5
sg10
(lp230
g12
ag47
asg26
I00
sg27
I00
sg28
I4759692
sg20
S'15944.2572891'
p231
sba(igraph
Edge
p232
(dp233
g7
I1
sg8
I00
sg9
I5
sg10
(lp234
g23
ag57
asg26
I00
sg27
I00
sg28
I4759693
sg20
S'15944.2597716'
p235
sba(igraph
Edge
p236
(dp237
g7
I1
sg8
I00
sg9
I5
sg10
(lp238
g33
ag57
asg26
I00
sg27
I00
sg28
I4759694
sg20
S'15944.26209'
p239
sba(igraph
Edge
p240
(dp241
g7
I1
sg8
I00
sg9
I5
sg10
(lp242
g23
ag194
asg26
I00
sg27
I00
sg28
I4759695
sg20
S'15944.2728201'
p243
sba(igraph
Edge
p244
(dp245
g7
I1
sg8
I00
sg9
I5
sg10
(lp246
g33
ag194
asg26
I00
sg27
I00
sg28
I4759696
sg20
S'15944.2753529'
p247
sba(igraph
Edge
p248
(dp249
g7
I1
sg8
I00
sg9
I5
sg10
(lp250
g40
ag208
asg26
I00
sg27
I00
sg28
I4759697
sg20
S'15944.2780806'
p251
sba(igraph
Edge
p252
(dp253
g7
I1
sg8
I00
sg9
I5
sg10
(lp254
g12
ag191
asg26
I00
sg27
I00
sg28
I4759698
sg20
S'15944.2836277'
p255
sba(igraph
Edge
p256
(dp257
g7
I1
sg8
I00
sg9
I5
sg10
(lp258
g23
ag191
asg26
I00
sg27
I00
sg28
I4759699
sg20
S'15944.2864811'
p259
sba(igraph
Edge
p260
(dp261
g7
I1
sg8
I00
sg9
I5
sg10
(lp262
g33
ag201
asg26
I00
sg27
I00
sg28
I4759700
sg20
S'15944.289277'
p263
sba(igraph
Edge
p264
(dp265
g7
I1
sg8
I00
sg9
I5
sg10
(lp266
g40
ag201
asg26
I00
sg27
I00
sg28
I4759701
sg20
S'15944.2921162'
p267
sba(igraph
Edge
p268
(dp269
g7
I1
sg8
I00
sg9
I5
sg10
(lp270
g47
ag74
asg26
I00
sg27
I00
sg28
I4759702
sg20
S'15944.2980689'
p271
sba(igraph
Edge
p272
(dp273
g7
I1
sg8
I00
sg9
I5
sg10
(lp274
g50
ag74
asg26
I00
sg27
I00
sg28
I4759703
sg20
S'15944.3011081'
p275
sba(igraph
Edge
p276
(dp277
g7
I1
sg8
I00
sg9
I5
sg10
(lp278
g57
ag88
asg26
I00
sg27
I00
sg28
I4759704
sg20
S'15944.304218'
p279
sba(igraph
Edge
p280
(dp281
g7
I1
sg8
I00
sg9
I5
sg10
(lp282
g64
ag88
asg26
I00
sg27
I00
sg28
I4759705
sg20
S'15944.3074092'
p283
sba(igraph
Edge
p284
(dp285
g7
I1
sg8
I00
sg9
I5
sg10
(lp286
g47
ag71
asg26
I00
sg27
I00
sg28
I4759706
sg20
S'15944.313886'
p287
sba(igraph
Edge
p288
(dp289
g7
I1
sg8
I00
sg9
I5
sg10
(lp290
g50
ag81
asg26
I00
sg27
I00
sg28
I4759707
sg20
S'15944.3197267'
p291
sba(igraph
Edge
p292
(dp293
g7
I1
sg8
I00
sg9
I5
sg10
(lp294
g57
ag81
asg26
I00
sg27
I00
sg28
I4759708
sg20
S'15944.3230701'
p295
sba(igraph
Edge
p296
(dp297
g7
I1
sg8
I00
sg9
I5
sg10
(lp298
g71
ag98
asg26
I00
sg27
I00
sg28
I4759709
sg20
S'15944.3326093'
p299
sba(igraph
Edge
p300
(dp301
g7
I1
sg8
I00
sg9
I5
sg10
(lp302
g74
ag98
asg26
I00
sg27
I00
sg28
I4759710
sg20
S'15944.3342084'
p303
sba(igraph
Edge
p304
(dp305
g7
I1
sg8
I00
sg9
I5
sg10
(lp306
g81
ag112
asg26
I00
sg27
I00
sg28
I4759711
sg20
S'15944.3358282'
p307
sba(igraph
Edge
p308
(dp309
g7
I1
sg8
I00
sg9
I5
sg10
(lp310
g88
ag112
asg26
I00
sg27
I00
sg28
I4759712
sg20
S'15944.3374471'
p311
sba(igraph
Edge
p312
(dp313
g7
I1
sg8
I00
sg9
I5
sg10
(lp314
g71
ag95
asg26
I00
sg27
I00
sg28
I4759713
sg20
S'15944.3407612'
p315
sba(igraph
Edge
p316
(dp317
g7
I1
sg8
I00
sg9
I5
sg10
(lp318
g74
ag105
asg26
I00
sg27
I00
sg28
I4759714
sg20
S'15944.342465'
p319
sba(igraph
Edge
p320
(dp321
g7
I1
sg8
I00
sg9
I5
sg10
(lp322
g81
ag105
asg26
I00
sg27
I00
sg28
I4759715
sg20
S'15944.3441949'
p323
sba(igraph
Edge
p324
(dp325
g7
I1
sg8
I00
sg9
I5
sg10
(lp326
g95
ag122
asg26
I00
sg27
I00
sg28
I4759716
sg20
S'15944.3496056'
p327
sba(igraph
Edge
p328
(dp329
g7
I1
sg8
I00
sg9
I5
sg10
(lp330
g98
ag122
asg26
I00
sg27
I00
sg28
I4759717
sg20
S'15944.3514505'
p331
sba(igraph
Edge
p332
(dp333
g7
I1
sg8
I00
sg9
I5
sg10
(lp334
g105
ag136
asg26
I00
sg27
I00
sg28
I4759718
sg20
S'15944.3533497'
p335
sba(igraph
Edge
p336
(dp337
g7
I1
sg8
I00
sg9
I5
sg10
(lp338
g112
ag136
asg26
I00
sg27
I00
sg28
I4759719
sg20
S'15944.355187'
p339
sba(igraph
Edge
p340
(dp341
g7
I1
sg8
I00
sg9
I5
sg10
(lp342
g95
ag119
asg26
I00
sg27
I00
sg28
I4759720
sg20
S'15944.3589733'
p343
sba(igraph
Edge
p344
(dp345
g7
I1
sg8
I00
sg9
I5
sg10
(lp346
g98
ag129
asg26
I00
sg27
I00
sg28
I4759721
sg20
S'15944.3608665'
p347
sba(igraph
Edge
p348
(dp349
g7
I1
sg8
I00
sg9
I5
sg10
(lp350
g105
ag129
asg26
I00
sg27
I00
sg28
I4759722
sg20
S'15944.3631512'
p351
sba(igraph
Edge
p352
(dp353
g7
I1
sg8
I00
sg9
I5
sg10
(lp354
g119
ag146
asg26
I00
sg27
I00
sg28
I4759723
sg20
S'15944.3691603'
p355
sba(igraph
Edge
p356
(dp357
g7
I1
sg8
I00
sg9
I5
sg10
(lp358
g122
ag146
asg26
I00
sg27
I00
sg28
I4759724
sg20
S'15944.3712198'
p359
sba(igraph
Edge
p360
(dp361
g7
I1
sg8
I00
sg9
I5
sg10
(lp362
g129
ag160
asg26
I00
sg27
I00
sg28
I4759725
sg20
S'15944.3732572'
p363
sba(igraph
Edge
p364
(dp365
g7
I1
sg8
I00
sg9
I5
sg10
(lp366
g136
ag160
asg26
I00
sg27
I00
sg28
I4759726
sg20
S'15944.3754731'
p367
sba(igraph
Edge
p368
(dp369
g7
I1
sg8
I00
sg9
I5
sg10
(lp370
g119
ag143
asg26
I00
sg27
I00
sg28
I4759727
sg20
S'15944.3798055'
p371
sba(igraph
Edge
p372
(dp373
g7
I1
sg8
I00
sg9
I5
sg10
(lp374
g122
ag153
asg26
I00
sg27
I00
sg28
I4759728
sg20
S'15944.3819254'
p375
sba(igraph
Edge
p376
(dp377
g7
I1
sg8
I00
sg9
I5
sg10
(lp378
g129
ag153
asg26
I00
sg27
I00
sg28
I4759729
sg20
S'15944.3840899'
p379
sba(igraph
Edge
p380
(dp381
g7
I1
sg8
I00
sg9
I5
sg10
(lp382
g143
ag170
asg26
I00
sg27
I00
sg28
I4759730
sg20
S'15944.3906564'
p383
sba(igraph
Edge
p384
(dp385
g7
I1
sg8
I00
sg9
I5
sg10
(lp386
g146
ag170
asg26
I00
sg27
I00
sg28
I4759731
sg20
S'15944.3929511'
p387
sba(igraph
Edge
p388
(dp389
g7
I1
sg8
I00
sg9
I5
sg10
(lp390
g153
ag184
asg26
I00
sg27
I00
sg28
I4759732
sg20
S'15944.3953148'
p391
sba(igraph
Edge
p392
(dp393
g7
I1
sg8
I00
sg9
I5
sg10
(lp394
g160
ag184
asg26
I00
sg27
I00
sg28
I4759733
sg20
S'15944.3979693'
p395
sba(igraph
Edge
p396
(dp397
g7
I1
sg8
I00
sg9
I5
sg10
(lp398
g143
ag167
asg26
I00
sg27
I00
sg28
I4759734
sg20
S'15944.4026378'
p399
sba(igraph
Edge
p400
(dp401
g7
I1
sg8
I00
sg9
I5
sg10
(lp402
g146
ag177
asg26
I00
sg27
I00
sg28
I4759735
sg20
S'15944.4049839'
p403
sba(igraph
Edge
p404
(dp405
g7
I1
sg8
I00
sg9
I5
sg10
(lp406
g153
ag177
asg26
I00
sg27
I00
sg28
I4759736
sg20
S'15944.4073222'
p407
sba(igraph
Edge
p408
(dp409
g7
I1
sg8
I00
sg9
I5
sg10
(lp410
g167
ag194
asg26
I00
sg27
I00
sg28
I4759737
sg20
S'15944.414648'
p411
sba(igraph
Edge
p412
(dp413
g7
I1
sg8
I00
sg9
I5
sg10
(lp414
g170
ag194
asg26
I00
sg27
I00
sg28
I4759738
sg20
S'15944.4171371'
p415
sba(igraph
Edge
p416
(dp417
g7
I1
sg8
I00
sg9
I5
sg10
(lp418
g177
ag208
asg26
I00
sg27
I00
sg28
I4759739
sg20
S'15944.4195922'
p419
sba(igraph
Edge
p420
(dp421
g7
I1
sg8
I00
sg9
I5
sg10
(lp422
g184
ag208
asg26
I00
sg27
I00
sg28
I4759740
sg20
S'15944.4221305'
p423
sba(igraph
Edge
p424
(dp425
g7
I1
sg8
I00
sg9
I5
sg10
(lp426
g167
ag191
asg26
I00
sg27
I00
sg28
I4759741
sg20
S'15944.4272437'
p427
sba(igraph
Edge
p428
(dp429
g7
I1
sg8
I00
sg9
I5
sg10
(lp430
g170
ag201
asg26
I00
sg27
I00
sg28
I4759742
sg20
S'15944.4298161'
p431
sba(igraph
Edge
p432
(dp433
g7
I1
sg8
I00
sg9
I5
sg10
(lp434
g177
ag201
asg26
I00
sg27
I00
sg28
I4759743
sg20
S'15944.4323798'
p435
sba(igraph
Edge
p436
(dp437
g7
I1
sg8
I00
sg9
I5
sg10
(lp438
g208
ag191
asg26
I00
sg27
I00
sg28
I4759744
sg20
S'16026.5853216'
p439
sba(igraph
Edge
p440
(dp441
g7
I1
sg8
I00
sg9
I5
sg10
(lp442
g191
ag184
asg26
I00
sg27
I00
sg28
I4759745
sg20
S'16027.7538534'
p443
sba(igraph
Edge
p444
(dp445
g7
I1
sg8
I00
sg9
I5
sg10
(lp446
g184
ag167
asg26
I00
sg27
I00
sg28
I4759746
sg20
S'16028.8651289'
p447
sba(igraph
Edge
p448
(dp449
g7
I1
sg8
I00
sg9
I5
sg10
(lp450
g167
ag160
asg26
I00
sg27
I00
sg28
I4759747
sg20
S'16037.4356956'
p451
sba(igraph
Edge
p452
(dp453
g7
I1
sg8
I00
sg9
I5
sg10
(lp454
g160
ag143
asg26
I00
sg27
I00
sg28
I4759748
sg20
S'16039.4329978'
p455
sba(igraph
Edge
p456
(dp457
g7
I1
sg8
I00
sg9
I5
sg10
(lp458
g143
ag136
asg26
I00
sg27
I00
sg28
I4759749
sg20
S'16040.7626025'
p459
sba(igraph
Edge
p460
(dp461
g7
I1
sg8
I00
sg9
I5
sg10
(lp462
g136
ag119
asg26
I00
sg27
I00
sg28
I4759750
sg20
S'16042.0860344'
p463
sba(igraph
Edge
p464
(dp465
g7
I1
sg8
I00
sg9
I5
sg10
(lp466
g119
ag112
asg26
I00
sg27
I00
sg28
I4759751
sg20
S'16043.545347'
p467
sba(igraph
Edge
p468
(dp469
g7
I1
sg8
I00
sg9
I5
sg10
(lp470
g112
ag95
asg26
I00
sg27
I00
sg28
I4759752
sg20
S'16045.6600375'
p471
sba(igraph
Edge
p472
(dp473
g7
I1
sg8
I00
sg9
I5
sg10
(lp474
g95
ag88
asg26
I00
sg27
I00
sg28
I4759753
sg20
S'16047.1341536'
p475
sba(igraph
Edge
p476
(dp477
g7
I1
sg8
I00
sg9
I5
sg10
(lp478
g88
ag71
asg26
I00
sg27
I00
sg28
I4759754
sg20
S'16048.677078'
p479
sba(igraph
Edge
p480
(dp481
g7
I1
sg8
I00
sg9
I5
sg10
(lp482
g71
ag64
asg26
I00
sg27
I00
sg28
I4759755
sg20
S'16050.642214'
p483
sba(igraph
Edge
p484
(dp485
g7
I1
sg8
I00
sg9
I5
sg10
(lp486
g64
ag47
asg26
I00
sg27
I00
sg28
I4759756
sg20
S'16052.2234326'
p487
sba(igraph
Edge
p488
(dp489
g7
I1
sg8
I00
sg9
I5
sg10
(lp490
g47
ag40
asg26
I00
sg27
I00
sg28
I4759757
sg20
S'16053.6250241'
p491
sba(igraph
Edge
p492
(dp493
g7
I1
sg8
I00
sg9
I5
sg10
(lp494
g40
ag12
asg26
I00
sg27
I00
sg28
I4759758
sg20
S'16054.9794703'
p495
sba(igraph
Edge
p496
(dp497
g7
I1
sg8
I00
sg9
I5
sg10
(lp498
g12
ag208
asg26
I00
sg27
I00
sg28
I4759759
sg20
S'16056.9794094'
p499
sbasS'vertices'
p500
(lp501
g12
ag23
ag33
ag40
ag47
ag50
ag57
ag64
ag71
ag74
ag81
ag88
ag95
ag98
ag105
ag112
ag119
ag122
ag129
ag136
ag143
ag146
ag153
ag160
ag167
ag170
ag177
ag184
ag191
ag194
ag201
ag208
asS'tags'
p502
(lp503
sb.