(igraph
Graph
p0
(dp1
S'labelingConstraints'
p2
I-1
sS'edges'
p3
(lp4
(igraph
Edge
p5
(dp6
S'direction'
p7
I1
sS'selected'
p8
I00
sS'height'
p9
I5
sS'vs'
p10
(lp11
(igraph
Vertex
p12
(dp13
S'xnorm'
p14
F0.073369565217391311
sg8
I01
sS'label'
p15
I0
sS'y'
p16
F-157.0
sS'x'
p17
F404.29347826086956
sS'circle'
p18
I4752357
sS'id'
p19
S'15944.1826495'
p20
sS'ynorm'
p21
F0.059808612440191387
sba(igraph
Vertex
p22
(dp23
g14
F0.25116459627329196
sg8
I00
sg15
S'NULL'
p24
sg16
F-157.0
sg17
F339.57608695652175
sg18
I4752359
sg19
S'15944.1826883'
p25
sg21
F0.059808612440191387
sbasS'wrap'
p26
I00
sS'curved'
p27
I00
sS'line'
p28
I4752236
sg19
S'15944.1966756'
p29
sba(igraph
Edge
p30
(dp31
g7
I1
sg8
I00
sg9
I5
sg10
(lp32
g22
a(igraph
Vertex
p33
(dp34
g14
F0.42895962732919257
sg8
I00
sg15
g24
sg16
F-157.0
sg17
F274.85869565217388
sg18
I4752360
sg19
S'15944.1827324'
p35
sg21
F0.059808612440191387
sbasg26
I00
sg27
I00
sg28
I4752237
sg19
S'15944.1967999'
p36
sba(igraph
Edge
p37
(dp38
g7
I1
sg8
I00
sg9
I5
sg10
(lp39
g33
a(igraph
Vertex
p40
(dp41
g14
F0.60675465838509313
sg8
I00
sg15
g24
sg16
F-157.0
sg17
F210.14130434782612
sg18
I4752361
sg19
S'15944.1827875'
p42
sg21
F0.059808612440191387
sbasg26
I00
sg27
I00
sg28
I4752238
sg19
S'15944.1969667'
p43
sba(igraph
Edge
p44
(dp45
g7
I1
sg8
I00
sg9
I5
sg10
(lp46
g40
a(igraph
Vertex
p47
(dp48
g14
F0.78454968944099379
sg8
I00
sg15
g24
sg16
F-157.0
sg17
F145.42391304347825
sg18
I4752362
sg19
S'15944.1828545'
p49
sg21
F0.059808612440191387
sbasg26
I00
sg27
I00
sg28
I4752239
sg19
S'15944.1971765'
p50
sba(igraph
Edge
p51
(dp52
g7
I1
sg8
I00
sg9
I5
sg10
(lp53
g47
ag12
asg26
I00
sg27
I00
sg28
I4752240
sg19
S'15944.1974307'
p54
sba(igraph
Edge
p55
(dp56
g7
I1
sg8
I00
sg9
I5
sg10
(lp57
(igraph
Vertex
p58
(dp59
g14
F0.073369565217391311
sg8
I00
sg15
g24
sg16
F-109.71428571428572
sg17
F404.29347826086956
sg18
I4752363
sg19
S'15944.1829436'
p60
sg21
F0.17293233082706766
sba(igraph
Vertex
p61
(dp62
g14
F0.25116459627329196
sg8
I01
sg15
I0
sg16
F-109.71428571428572
sg17
F339.57608695652175
sg18
I4752365
sg19
S'15944.183042'
p63
sg21
F0.17293233082706766
sbasg26
I00
sg27
I00
sg28
I4752241
sg19
S'15944.1977355'
p64
sba(igraph
Edge
p65
(dp66
g7
I1
sg8
I00
sg9
I5
sg10
(lp67
g61
a(igraph
Vertex
p68
(dp69
g14
F0.42895962732919257
sg8
I00
sg15
g24
sg16
F-109.71428571428572
sg17
F274.85869565217388
sg18
I4752367
sg19
S'15944.1831562'
p70
sg21
F0.17293233082706766
sbasg26
I00
sg27
I00
sg28
I4752242
sg19
S'15944.1980858'
p71
sba(igraph
Edge
p72
(dp73
g7
I1
sg8
I00
sg9
I5
sg10
(lp74
g68
a(igraph
Vertex
p75
(dp76
g14
F0.60675465838509313
sg8
I00
sg15
g24
sg16
F-109.71428571428572
sg17
F210.14130434782612
sg18
I4752368
sg19
S'15944.1832845'
p77
sg21
F0.17293233082706766
sbasg26
I00
sg27
I00
sg28
I4752243
sg19
S'15944.1984803'
p78
sba(igraph
Edge
p79
(dp80
g7
I1
sg8
I00
sg9
I5
sg10
(lp81
g75
a(igraph
Vertex
p82
(dp83
g14
F0.78454968944099379
sg8
I00
sg15
g24
sg16
F-109.71428571428572
sg17
F145.42391304347825
sg18
I4752369
sg19
S'15944.1834295'
p84
sg21
F0.17293233082706766
sbasg26
I00
sg27
I00
sg28
I4752244
sg19
S'15944.19892'
p85
sba(igraph
Edge
p86
(dp87
g7
I1
sg8
I00
sg9
I5
sg10
(lp88
g82
ag58
asg26
I00
sg27
I00
sg28
I4752245
sg19
S'15944.1994083'
p89
sba(igraph
Edge
p90
(dp91
g7
I1
sg8
I00
sg9
I5
sg10
(lp92
(igraph
Vertex
p93
(dp94
g14
F0.073369565217391311
sg8
I00
sg15
g24
sg16
F-62.428571428571431
sg17
F404.29347826086956
sg18
I4752370
sg19
S'15944.1835923'
p95
sg21
F0.28605604921394395
sba(igraph
Vertex
p96
(dp97
g14
F0.25116459627329196
sg8
I00
sg15
g24
sg16
F-62.428571428571431
sg17
F339.57608695652175
sg18
I4752371
sg19
S'15944.1837669'
p98
sg21
F0.28605604921394395
sbasg26
I00
sg27
I00
sg28
I4752246
sg19
S'15944.2000067'
p99
sba(igraph
Edge
p100
(dp101
g7
I1
sg8
I00
sg9
I5
sg10
(lp102
g96
a(igraph
Vertex
p103
(dp104
g14
F0.42895962732919257
sg8
I00
sg15
g24
sg16
F-62.428571428571431
sg17
F274.85869565217388
sg18
I4752372
sg19
S'15944.1840837'
p105
sg21
F0.28605604921394395
sbasg26
I00
sg27
I00
sg28
I4752247
sg19
S'15944.2006085'
p106
sba(igraph
Edge
p107
(dp108
g7
I1
sg8
I00
sg9
I5
sg10
(lp109
g103
a(igraph
Vertex
p110
(dp111
g14
F0.60675465838509313
sg8
I00
sg15
g24
sg16
F-62.428571428571431
sg17
F210.14130434782612
sg18
I4752373
sg19
S'15944.1843047'
p112
sg21
F0.28605604921394395
sbasg26
I00
sg27
I00
sg28
I4752248
sg19
S'15944.2012393'
p113
sba(igraph
Edge
p114
(dp115
g7
I1
sg8
I00
sg9
I5
sg10
(lp116
g110
a(igraph
Vertex
p117
(dp118
g14
F0.78454968944099379
sg8
I00
sg15
g24
sg16
F-62.428571428571431
sg17
F145.42391304347825
sg18
I4752374
sg19
S'15944.1845363'
p119
sg21
F0.28605604921394395
sbasg26
I00
sg27
I00
sg28
I4752249
sg19
S'15944.201924'
p120
sba(igraph
Edge
p121
(dp122
g7
I1
sg8
I00
sg9
I5
sg10
(lp123
g117
ag93
asg26
I00
sg27
I00
sg28
I4752250
sg19
S'15944.202695'
p124
sba(igraph
Edge
p125
(dp126
g7
I1
sg8
I00
sg9
I5
sg10
(lp127
(igraph
Vertex
p128
(dp129
g14
F0.073369565217391311
sg8
I00
sg15
g24
sg16
F-15.142857142857139
sg17
F404.29347826086956
sg18
I4752375
sg19
S'15944.184781'
p130
sg21
F0.39917976760082025
sba(igraph
Vertex
p131
(dp132
g14
F0.25116459627329196
sg8
I00
sg15
g24
sg16
F-15.142857142857139
sg17
F339.57608695652175
sg18
I4752376
sg19
S'15944.1850422'
p133
sg21
F0.39917976760082025
sbasg26
I00
sg27
I00
sg28
I4752251
sg19
S'15944.2034728'
p134
sba(igraph
Edge
p135
(dp136
g7
I1
sg8
I00
sg9
I5
sg10
(lp137
g131
a(igraph
Vertex
p138
(dp139
g14
F0.42895962732919257
sg8
I01
sg15
I0
sg16
F-15.142857142857139
sg17
F274.85869565217388
sg18
I4752378
sg19
S'15944.1853163'
p140
sg21
F0.39917976760082025
sbasg26
I00
sg27
I00
sg28
I4752252
sg19
S'15944.2042883'
p141
sba(igraph
Edge
p142
(dp143
g7
I1
sg8
I00
sg9
I5
sg10
(lp144
g138
a(igraph
Vertex
p145
(dp146
g14
F0.60675465838509313
sg8
I00
sg15
g24
sg16
F-15.142857142857139
sg17
F210.14130434782612
sg18
I4752380
sg19
S'15944.1856052'
p147
sg21
F0.39917976760082025
sbasg26
I00
sg27
I00
sg28
I4752253
sg19
S'15944.2051453'
p148
sba(igraph
Edge
p149
(dp150
g7
I1
sg8
I00
sg9
I5
sg10
(lp151
g145
a(igraph
Vertex
p152
(dp153
g14
F0.78454968944099379
sg8
I00
sg15
g24
sg16
F-15.142857142857139
sg17
F145.42391304347825
sg18
I4752381
sg19
S'15944.1859714'
p154
sg21
F0.39917976760082025
sbasg26
I00
sg27
I00
sg28
I4752254
sg19
S'15944.2060477'
p155
sba(igraph
Edge
p156
(dp157
g7
I1
sg8
I00
sg9
I5
sg10
(lp158
g152
ag128
asg26
I00
sg27
I00
sg28
I4752255
sg19
S'15944.2071632'
p159
sba(igraph
Edge
p160
(dp161
g7
I1
sg8
I00
sg9
I5
sg10
(lp162
(igraph
Vertex
p163
(dp164
g14
F0.073369565217391311
sg8
I00
sg15
g24
sg16
F32.142857142857139
sg17
F404.29347826086956
sg18
I4752382
sg19
S'15944.1862935'
p165
sg21
F0.51230348598769648
sba(igraph
Vertex
p166
(dp167
g14
F0.25116459627329196
sg8
I01
sg15
I0
sg16
F32.142857142857139
sg17
F339.57608695652175
sg18
I4752384
sg19
S'15944.186631'
p168
sg21
F0.51230348598769648
sbasg26
I00
sg27
I00
sg28
I4752256
sg19
S'15944.208172'
p169
sba(igraph
Edge
p170
(dp171
g7
I1
sg8
I00
sg9
I5
sg10
(lp172
g166
a(igraph
Vertex
p173
(dp174
g14
F0.42895962732919257
sg8
I00
sg15
g24
sg16
F32.142857142857139
sg17
F274.85869565217388
sg18
I4752386
sg19
S'15944.1869956'
p175
sg21
F0.51230348598769648
sbasg26
I00
sg27
I00
sg28
I4752257
sg19
S'15944.2092246'
p176
sba(igraph
Edge
p177
(dp178
g7
I1
sg8
I00
sg9
I5
sg10
(lp179
g173
a(igraph
Vertex
p180
(dp181
g14
F0.60675465838509313
sg8
I00
sg15
g24
sg16
F32.142857142857139
sg17
F210.14130434782612
sg18
I4752387
sg19
S'15944.1873679'
p182
sg21
F0.51230348598769648
sbasg26
I00
sg27
I00
sg28
I4752258
sg19
S'15944.2103225'
p183
sba(igraph
Edge
p184
(dp185
g7
I1
sg8
I00
sg9
I5
sg10
(lp186
g180
a(igraph
Vertex
p187
(dp188
g14
F0.78454968944099379
sg8
I00
sg15
g24
sg16
F32.142857142857139
sg17
F145.42391304347825
sg18
I4752388
sg19
S'15944.1877593'
p189
sg21
F0.51230348598769648
sbasg26
I00
sg27
I00
sg28
I4752259
sg19
S'15944.2115037'
p190
sba(igraph
Edge
p191
(dp192
g7
I1
sg8
I00
sg9
I5
sg10
(lp193
g187
ag163
asg26
I00
sg27
I00
sg28
I4752260
sg19
S'15944.212729'
p194
sba(igraph
Edge
p195
(dp196
g7
I1
sg8
I00
sg9
I5
sg10
(lp197
(igraph
Vertex
p198
(dp199
g14
F0.073369565217391311
sg8
I00
sg15
g24
sg16
F79.428571428571445
sg17
F404.29347826086956
sg18
I4752389
sg19
S'15944.1882815'
p200
sg21
F0.62542720437457289
sba(igraph
Vertex
p201
(dp202
g14
F0.25116459627329196
sg8
I00
sg15
g24
sg16
F79.428571428571445
sg17
F339.57608695652175
sg18
I4752390
sg19
S'15944.1887162'
p203
sg21
F0.62542720437457289
sbasg26
I00
sg27
I00
sg28
I4752261
sg19
S'15944.2140043'
p204
sba(igraph
Edge
p205
(dp206
g7
I1
sg8
I00
sg9
I5
sg10
(lp207
g201
a(igraph
Vertex
p208
(dp209
g14
F0.42895962732919257
sg8
I00
sg15
g24
sg16
F79.428571428571445
sg17
F274.85869565217388
sg18
I4752391
sg19
S'15944.1891637'
p210
sg21
F0.62542720437457289
sbasg26
I00
sg27
I00
sg28
I4752262
sg19
S'15944.2153243'
p211
sba(igraph
Edge
p212
(dp213
g7
I1
sg8
I00
sg9
I5
sg10
(lp214
g208
a(igraph
Vertex
p215
(dp216
g14
F0.60675465838509313
sg8
I01
sg15
I0
sg16
F79.428571428571445
sg17
F210.14130434782612
sg18
I4752393
sg19
S'15944.189618'
p217
sg21
F0.62542720437457289
sbasg26
I00
sg27
I00
sg28
I4752263
sg19
S'15944.2166485'
p218
sba(igraph
Edge
p219
(dp220
g7
I1
sg8
I00
sg9
I5
sg10
(lp221
g215
a(igraph
Vertex
p222
(dp223
g14
F0.78454968944099379
sg8
I00
sg15
g24
sg16
F79.428571428571445
sg17
F145.42391304347825
sg18
I4752395
sg19
S'15944.1900943'
p224
sg21
F0.62542720437457289
sbasg26
I00
sg27
I00
sg28
I4752264
sg19
S'15944.2180109'
p225
sba(igraph
Edge
p226
(dp227
g7
I1
sg8
I00
sg9
I5
sg10
(lp228
g222
ag198
asg26
I00
sg27
I00
sg28
I4752265
sg19
S'15944.2194919'
p229
sba(igraph
Edge
p230
(dp231
g7
I1
sg8
I00
sg9
I5
sg10
(lp232
(igraph
Vertex
p233
(dp234
g14
F0.073369565217391311
sg8
I00
sg15
g24
sg16
F126.71428571428572
sg17
F404.29347826086956
sg18
I4752396
sg19
S'15944.1905893'
p235
sg21
F0.73855092276144907
sba(igraph
Vertex
p236
(dp237
g14
F0.25116459627329196
sg8
I00
sg15
g24
sg16
F126.71428571428572
sg17
F339.57608695652175
sg18
I4752397
sg19
S'15944.1911003'
p238
sg21
F0.73855092276144907
sbasg26
I00
sg27
I00
sg28
I4752266
sg19
S'15944.2210147'
p239
sba(igraph
Edge
p240
(dp241
g7
I1
sg8
I00
sg9
I5
sg10
(lp242
g236
a(igraph
Vertex
p243
(dp244
g14
F0.42895962732919257
sg8
I00
sg15
g24
sg16
F126.71428571428572
sg17
F274.85869565217388
sg18
I4752398
sg19
S'15944.1916249'
p245
sg21
F0.73855092276144907
sbasg26
I00
sg27
I00
sg28
I4752267
sg19
S'15944.2225682'
p246
sba(igraph
Edge
p247
(dp248
g7
I1
sg8
I00
sg9
I5
sg10
(lp249
g243
a(igraph
Vertex
p250
(dp251
g14
F0.60675465838509313
sg8
I00
sg15
g24
sg16
F126.71428571428572
sg17
F210.14130434782612
sg18
I4752399
sg19
S'15944.1922895'
p252
sg21
F0.73855092276144907
sbasg26
I00
sg27
I00
sg28
I4752268
sg19
S'15944.2244939'
p253
sba(igraph
Edge
p254
(dp255
g7
I1
sg8
I00
sg9
I5
sg10
(lp256
g250
a(igraph
Vertex
p257
(dp258
g14
F0.78454968944099379
sg8
I00
sg15
g24
sg16
F126.71428571428572
sg17
F145.42391304347825
sg18
I4752400
sg19
S'15944.1928488'
p259
sg21
F0.73855092276144907
sbasg26
I00
sg27
I00
sg28
I4752269
sg19
S'15944.2261033'
p260
sba(igraph
Edge
p261
(dp262
g7
I1
sg8
I00
sg9
I5
sg10
(lp263
g257
ag233
asg26
I00
sg27
I00
sg28
I4752270
sg19
S'15944.227756'
p264
sba(igraph
Edge
p265
(dp266
g7
I1
sg8
I00
sg9
I5
sg10
(lp267
(igraph
Vertex
p268
(dp269
g14
F0.073369565217391311
sg8
I00
sg15
g24
sg16
F174.0
sg17
F404.29347826086956
sg18
I4752401
sg19
S'15944.1934218'
p270
sg21
F0.85167464114832536
sba(igraph
Vertex
p271
(dp272
g14
F0.25116459627329196
sg8
I00
sg15
g24
sg16
F174.0
sg17
F339.57608695652175
sg18
I4752402
sg19
S'15944.194014'
p273
sg21
F0.85167464114832536
sbasg26
I00
sg27
I00
sg28
I4752271
sg19
S'15944.2296001'
p274
sba(igraph
Edge
p275
(dp276
g7
I1
sg8
I00
sg9
I5
sg10
(lp277
g271
a(igraph
Vertex
p278
(dp279
g14
F0.42895962732919257
sg8
I00
sg15
g24
sg16
F174.0
sg17
F274.85869565217388
sg18
I4752403
sg19
S'15944.1946845'
p280
sg21
F0.85167464114832536
sbasg26
I00
sg27
I00
sg28
I4752272
sg19
S'15944.2314411'
p281
sba(igraph
Edge
p282
(dp283
g7
I1
sg8
I00
sg9
I5
sg10
(lp284
g278
a(igraph
Vertex
p285
(dp286
g14
F0.60675465838509313
sg8
I00
sg15
g24
sg16
F174.0
sg17
F210.14130434782612
sg18
I4752404
sg19
S'15944.1953173'
p287
sg21
F0.85167464114832536
sbasg26
I00
sg27
I00
sg28
I4752273
sg19
S'15944.2332699'
p288
sba(igraph
Edge
p289
(dp290
g7
I1
sg8
I00
sg9
I5
sg10
(lp291
g285
a(igraph
Vertex
p292
(dp293
g14
F0.78454968944099379
sg8
I01
sg15
I0
sg16
F174.0
sg17
F145.42391304347825
sg18
I4752406
sg19
S'15944.1959604'
p294
sg21
F0.85167464114832536
sbasg26
I00
sg27
I00
sg28
I4752274
sg19
S'15944.2351064'
p295
sba(igraph
Edge
p296
(dp297
g7
I1
sg8
I00
sg9
I5
sg10
(lp298
g292
ag268
asg26
I00
sg27
I00
sg28
I4752275
sg19
S'15944.2422727'
p299
sba(igraph
Edge
p300
(dp301
g7
I1
sg8
I00
sg9
I5
sg10
(lp302
g12
ag58
asg26
I00
sg27
I00
sg28
I4752276
sg19
S'15944.2442998'
p303
sba(igraph
Edge
p304
(dp305
g7
I1
sg8
I00
sg9
I5
sg10
(lp306
g22
ag68
asg26
I00
sg27
I00
sg28
I4752277
sg19
S'15944.2463009'
p307
sba(igraph
Edge
p308
(dp309
g7
I1
sg8
I00
sg9
I5
sg10
(lp310
g33
ag68
asg26
I00
sg27
I00
sg28
I4752278
sg19
S'15944.248388'
p311
sba(igraph
Edge
p312
(dp313
g7
I1
sg8
I00
sg9
I5
sg10
(lp314
g40
ag82
asg26
I00
sg27
I00
sg28
I4752279
sg19
S'15944.2504553'
p315
sba(igraph
Edge
p316
(dp317
g7
I1
sg8
I00
sg9
I5
sg10
(lp318
g47
ag82
asg26
I00
sg27
I00
sg28
I4752280
sg19
S'15944.2526804'
p319
sba(igraph
Edge
p320
(dp321
g7
I1
sg8
I00
sg9
I5
sg10
(lp322
g12
ag61
asg26
I00
sg27
I00
sg28
I4752281
sg19
S'15944.254924'
p323
sba(igraph
Edge
p324
(dp325
g7
I1
sg8
I00
sg9
I5
sg10
(lp326
g22
ag61
asg26
I00
sg27
I00
sg28
I4752282
sg19
S'15944.2572891'
p327
sba(igraph
Edge
p328
(dp329
g7
I1
sg8
I00
sg9
I5
sg10
(lp330
g33
ag75
asg26
I00
sg27
I00
sg28
I4752283
sg19
S'15944.2597716'
p331
sba(igraph
Edge
p332
(dp333
g7
I1
sg8
I00
sg9
I5
sg10
(lp334
g40
ag75
asg26
I00
sg27
I00
sg28
I4752284
sg19
S'15944.26209'
p335
sba(igraph
Edge
p336
(dp337
g7
I1
sg8
I00
sg9
I5
sg10
(lp338
g47
ag58
asg26
I00
sg27
I00
sg28
I4752285
sg19
S'15944.264497'
p339
sba(igraph
Edge
p340
(dp341
g7
I1
sg8
I00
sg9
I5
sg10
(lp342
g12
ag268
asg26
I00
sg27
I00
sg28
I4752286
sg19
S'15944.2670085'
p343
sba(igraph
Edge
p344
(dp345
g7
I1
sg8
I00
sg9
I5
sg10
(lp346
g22
ag268
asg26
I00
sg27
I00
sg28
I4752287
sg19
S'15944.2699142'
p347
sba(igraph
Edge
p348
(dp349
g7
I1
sg8
I00
sg9
I5
sg10
(lp350
g33
ag278
asg26
I00
sg27
I00
sg28
I4752288
sg19
S'15944.2728201'
p351
sba(igraph
Edge
p352
(dp353
g7
I1
sg8
I00
sg9
I5
sg10
(lp354
g40
ag278
asg26
I00
sg27
I00
sg28
I4752289
sg19
S'15944.2753529'
p355
sba(igraph
Edge
p356
(dp357
g7
I1
sg8
I00
sg9
I5
sg10
(lp358
g47
ag292
asg26
I00
sg27
I00
sg28
I4752290
sg19
S'15944.2780806'
p359
sba(igraph
Edge
p360
(dp361
g7
I1
sg8
I00
sg9
I5
sg10
(lp362
g12
ag292
asg26
I00
sg27
I00
sg28
I4752291
sg19
S'15944.2807309'
p363
sba(igraph
Edge
p364
(dp365
g7
I1
sg8
I00
sg9
I5
sg10
(lp366
g22
ag271
asg26
I00
sg27
I00
sg28
I4752292
sg19
S'15944.2836277'
p367
sba(igraph
Edge
p368
(dp369
g7
I1
sg8
I00
sg9
I5
sg10
(lp370
g33
ag271
asg26
I00
sg27
I00
sg28
I4752293
sg19
S'15944.2864811'
p371
sba(igraph
Edge
p372
(dp373
g7
I1
sg8
I00
sg9
I5
sg10
(lp374
g40
ag285
asg26
I00
sg27
I00
sg28
I4752294
sg19
S'15944.289277'
p375
sba(igraph
Edge
p376
(dp377
g7
I1
sg8
I00
sg9
I5
sg10
(lp378
g47
ag285
asg26
I00
sg27
I00
sg28
I4752295
sg19
S'15944.2921162'
p379
sba(igraph
Edge
p380
(dp381
g7
I1
sg8
I00
sg9
I5
sg10
(lp382
g58
ag93
asg26
I00
sg27
I00
sg28
I4752296
sg19
S'15944.2950093'
p383
sba(igraph
Edge
p384
(dp385
g7
I1
sg8
I00
sg9
I5
sg10
(lp386
g61
ag103
asg26
I00
sg27
I00
sg28
I4752297
sg19
S'15944.2980689'
p387
sba(igraph
Edge
p388
(dp389
g7
I1
sg8
I00
sg9
I5
sg10
(lp390
g68
ag103
asg26
I00
sg27
I00
sg28
I4752298
sg19
S'15944.3011081'
p391
sba(igraph
Edge
p392
(dp393
g7
I1
sg8
I00
sg9
I5
sg10
(lp394
g75
ag117
asg26
I00
sg27
I00
sg28
I4752299
sg19
S'15944.304218'
p395
sba(igraph
Edge
p396
(dp397
g7
I1
sg8
I00
sg9
I5
sg10
(lp398
g82
ag117
asg26
I00
sg27
I00
sg28
I4752300
sg19
S'15944.3074092'
p399
sba(igraph
Edge
p400
(dp401
g7
I1
sg8
I00
sg9
I5
sg10
(lp402
g58
ag96
asg26
I00
sg27
I00
sg28
I4752301
sg19
S'15944.3105674'
p403
sba(igraph
Edge
p404
(dp405
g7
I1
sg8
I00
sg9
I5
sg10
(lp406
g61
ag96
asg26
I00
sg27
I00
sg28
I4752302
sg19
S'15944.313886'
p407
sba(igraph
Edge
p408
(dp409
g7
I1
sg8
I00
sg9
I5
sg10
(lp410
g68
ag110
asg26
I00
sg27
I00
sg28
I4752303
sg19
S'15944.3197267'
p411
sba(igraph
Edge
p412
(dp413
g7
I1
sg8
I00
sg9
I5
sg10
(lp414
g75
ag110
asg26
I00
sg27
I00
sg28
I4752304
sg19
S'15944.3230701'
p415
sba(igraph
Edge
p416
(dp417
g7
I1
sg8
I00
sg9
I5
sg10
(lp418
g82
ag93
asg26
I00
sg27
I00
sg28
I4752305
sg19
S'15944.3264295'
p419
sba(igraph
Edge
p420
(dp421
g7
I1
sg8
I00
sg9
I5
sg10
(lp422
g93
ag128
asg26
I00
sg27
I00
sg28
I4752306
sg19
S'15944.3309988'
p423
sba(igraph
Edge
p424
(dp425
g7
I1
sg8
I00
sg9
I5
sg10
(lp426
g96
ag138
asg26
I00
sg27
I00
sg28
I4752307
sg19
S'15944.3326093'
p427
sba(igraph
Edge
p428
(dp429
g7
I1
sg8
I00
sg9
I5
sg10
(lp430
g103
ag138
asg26
I00
sg27
I00
sg28
I4752308
sg19
S'15944.3342084'
p431
sba(igraph
Edge
p432
(dp433
g7
I1
sg8
I00
sg9
I5
sg10
(lp434
g110
ag152
asg26
I00
sg27
I00
sg28
I4752309
sg19
S'15944.3358282'
p435
sba(igraph
Edge
p436
(dp437
g7
I1
sg8
I00
sg9
I5
sg10
(lp438
g117
ag152
asg26
I00
sg27
I00
sg28
I4752310
sg19
S'15944.3374471'
p439
sba(igraph
Edge
p440
(dp441
g7
I1
sg8
I00
sg9
I5
sg10
(lp442
g93
ag131
asg26
I00
sg27
I00
sg28
I4752311
sg19
S'15944.3390911'
p443
sba(igraph
Edge
p444
(dp445
g7
I1
sg8
I00
sg9
I5
sg10
(lp446
g96
ag131
asg26
I00
sg27
I00
sg28
I4752312
sg19
S'15944.3407612'
p447
sba(igraph
Edge
p448
(dp449
g7
I1
sg8
I00
sg9
I5
sg10
(lp450
g103
ag145
asg26
I00
sg27
I00
sg28
I4752313
sg19
S'15944.342465'
p451
sba(igraph
Edge
p452
(dp453
g7
I1
sg8
I00
sg9
I5
sg10
(lp454
g110
ag145
asg26
I00
sg27
I00
sg28
I4752314
sg19
S'15944.3441949'
p455
sba(igraph
Edge
p456
(dp457
g7
I1
sg8
I00
sg9
I5
sg10
(lp458
g117
ag128
asg26
I00
sg27
I00
sg28
I4752315
sg19
S'15944.3459378'
p459
sba(igraph
Edge
p460
(dp461
g7
I1
sg8
I00
sg9
I5
sg10
(lp462
g128
ag163
asg26
I00
sg27
I00
sg28
I4752316
sg19
S'15944.3477006'
p463
sba(igraph
Edge
p464
(dp465
g7
I1
sg8
I00
sg9
I5
sg10
(lp466
g131
ag173
asg26
I00
sg27
I00
sg28
I4752317
sg19
S'15944.3496056'
p467
sba(igraph
Edge
p468
(dp469
g7
I1
sg8
I00
sg9
I5
sg10
(lp470
g138
ag173
asg26
I00
sg27
I00
sg28
I4752318
sg19
S'15944.3514505'
p471
sba(igraph
Edge
p472
(dp473
g7
I1
sg8
I00
sg9
I5
sg10
(lp474
g145
ag187
asg26
I00
sg27
I00
sg28
I4752319
sg19
S'15944.3533497'
p475
sba(igraph
Edge
p476
(dp477
g7
I1
sg8
I00
sg9
I5
sg10
(lp478
g152
ag187
asg26
I00
sg27
I00
sg28
I4752320
sg19
S'15944.355187'
p479
sba(igraph
Edge
p480
(dp481
g7
I1
sg8
I00
sg9
I5
sg10
(lp482
g128
ag166
asg26
I00
sg27
I00
sg28
I4752321
sg19
S'15944.3570725'
p483
sba(igraph
Edge
p484
(dp485
g7
I1
sg8
I00
sg9
I5
sg10
(lp486
g131
ag166
asg26
I00
sg27
I00
sg28
I4752322
sg19
S'15944.3589733'
p487
sba(igraph
Edge
p488
(dp489
g7
I1
sg8
I00
sg9
I5
sg10
(lp490
g138
ag180
asg26
I00
sg27
I00
sg28
I4752323
sg19
S'15944.3608665'
p491
sba(igraph
Edge
p492
(dp493
g7
I1
sg8
I00
sg9
I5
sg10
(lp494
g145
ag180
asg26
I00
sg27
I00
sg28
I4752324
sg19
S'15944.3631512'
p495
sba(igraph
Edge
p496
(dp497
g7
I1
sg8
I00
sg9
I5
sg10
(lp498
g152
ag163
asg26
I00
sg27
I00
sg28
I4752325
sg19
S'15944.3651682'
p499
sba(igraph
Edge
p500
(dp501
g7
I1
sg8
I00
sg9
I5
sg10
(lp502
g163
ag198
asg26
I00
sg27
I00
sg28
I4752326
sg19
S'15944.3671461'
p503
sba(igraph
Edge
p504
(dp505
g7
I1
sg8
I00
sg9
I5
sg10
(lp506
g166
ag208
asg26
I00
sg27
I00
sg28
I4752327
sg19
S'15944.3691603'
p507
sba(igraph
Edge
p508
(dp509
g7
I1
sg8
I00
sg9
I5
sg10
(lp510
g173
ag208
asg26
I00
sg27
I00
sg28
I4752328
sg19
S'15944.3712198'
p511
sba(igraph
Edge
p512
(dp513
g7
I1
sg8
I00
sg9
I5
sg10
(lp514
g180
ag222
asg26
I00
sg27
I00
sg28
I4752329
sg19
S'15944.3732572'
p515
sba(igraph
Edge
p516
(dp517
g7
I1
sg8
I00
sg9
I5
sg10
(lp518
g187
ag222
asg26
I00
sg27
I00
sg28
I4752330
sg19
S'15944.3754731'
p519
sba(igraph
Edge
p520
(dp521
g7
I1
sg8
I00
sg9
I5
sg10
(lp522
g163
ag201
asg26
I00
sg27
I00
sg28
I4752331
sg19
S'15944.377579'
p523
sba(igraph
Edge
p524
(dp525
g7
I1
sg8
I00
sg9
I5
sg10
(lp526
g166
ag201
asg26
I00
sg27
I00
sg28
I4752332
sg19
S'15944.3798055'
p527
sba(igraph
Edge
p528
(dp529
g7
I1
sg8
I00
sg9
I5
sg10
(lp530
g173
ag215
asg26
I00
sg27
I00
sg28
I4752333
sg19
S'15944.3819254'
p531
sba(igraph
Edge
p532
(dp533
g7
I1
sg8
I00
sg9
I5
sg10
(lp534
g180
ag215
asg26
I00
sg27
I00
sg28
I4752334
sg19
S'15944.3840899'
p535
sba(igraph
Edge
p536
(dp537
g7
I1
sg8
I00
sg9
I5
sg10
(lp538
g187
ag198
asg26
I00
sg27
I00
sg28
I4752335
sg19
S'15944.3862709'
p539
sba(igraph
Edge
p540
(dp541
g7
I1
sg8
I00
sg9
I5
sg10
(lp542
g198
ag233
asg26
I00
sg27
I00
sg28
I4752336
sg19
S'15944.3884829'
p543
sba(igraph
Edge
p544
(dp545
g7
I1
sg8
I00
sg9
I5
sg10
(lp546
g201
ag243
asg26
I00
sg27
I00
sg28
I4752337
sg19
S'15944.3906564'
p547
sba(igraph
Edge
p548
(dp549
g7
I1
sg8
I00
sg9
I5
sg10
(lp550
g208
ag243
asg26
I00
sg27
I00
sg28
I4752338
sg19
S'15944.3929511'
p551
sba(igraph
Edge
p552
(dp553
g7
I1
sg8
I00
sg9
I5
sg10
(lp554
g215
ag257
asg26
I00
sg27
I00
sg28
I4752339
sg19
S'15944.3953148'
p555
sba(igraph
Edge
p556
(dp557
g7
I1
sg8
I00
sg9
I5
sg10
(lp558
g222
ag257
asg26
I00
sg27
I00
sg28
I4752340
sg19
S'15944.3979693'
p559
sba(igraph
Edge
p560
(dp561
g7
I1
sg8
I00
sg9
I5
sg10
(lp562
g198
ag236
asg26
I00
sg27
I00
sg28
I4752341
sg19
S'15944.4003112'
p563
sba(igraph
Edge
p564
(dp565
g7
I1
sg8
I00
sg9
I5
sg10
(lp566
g201
ag236
asg26
I00
sg27
I00
sg28
I4752342
sg19
S'15944.4026378'
p567
sba(igraph
Edge
p568
(dp569
g7
I1
sg8
I00
sg9
I5
sg10
(lp570
g208
ag250
asg26
I00
sg27
I00
sg28
I4752343
sg19
S'15944.4049839'
p571
sba(igraph
Edge
p572
(dp573
g7
I1
sg8
I00
sg9
I5
sg10
(lp574
g215
ag250
asg26
I00
sg27
I00
sg28
I4752344
sg19
S'15944.4073222'
p575
sba(igraph
Edge
p576
(dp577
g7
I1
sg8
I00
sg9
I5
sg10
(lp578
g222
ag233
asg26
I00
sg27
I00
sg28
I4752345
sg19
S'15944.4098166'
p579
sba(igraph
Edge
p580
(dp581
g7
I1
sg8
I00
sg9
I5
sg10
(lp582
g233
ag268
asg26
I00
sg27
I00
sg28
I4752346
sg19
S'15944.4122468'
p583
sba(igraph
Edge
p584
(dp585
g7
I1
sg8
I00
sg9
I5
sg10
(lp586
g236
ag278
asg26
I00
sg27
I00
sg28
I4752347
sg19
S'15944.414648'
p587
sba(igraph
Edge
p588
(dp589
g7
I1
sg8
I00
sg9
I5
sg10
(lp590
g243
ag278
asg26
I00
sg27
I00
sg28
I4752348
sg19
S'15944.4171371'
p591
sba(igraph
Edge
p592
(dp593
g7
I1
sg8
I00
sg9
I5
sg10
(lp594
g250
ag292
asg26
I00
sg27
I00
sg28
I4752349
sg19
S'15944.4195922'
p595
sba(igraph
Edge
p596
(dp597
g7
I1
sg8
I00
sg9
I5
sg10
(lp598
g257
ag292
asg26
I00
sg27
I00
sg28
I4752350
sg19
S'15944.4221305'
p599
sba(igraph
Edge
p600
(dp601
g7
I1
sg8
I00
sg9
I5
sg10
(lp602
g233
ag271
asg26
I00
sg27
I00
sg28
I4752351
sg19
S'15944.4246886'
p603
sba(igraph
Edge
p604
(dp605
g7
I1
sg8
I00
sg9
I5
sg10
(lp606
g236
ag271
asg26
I00
sg27
I00
sg28
I4752352
sg19
S'15944.4272437'
p607
sba(igraph
Edge
p608
(dp609
g7
I1
sg8
I00
sg9
I5
sg10
(lp610
g243
ag285
asg26
I00
sg27
I00
sg28
I4752353
sg19
S'15944.4298161'
p611
sba(igraph
Edge
p612
(dp613
g7
I1
sg8
I00
sg9
I5
sg10
(lp614
g250
ag285
asg26
I00
sg27
I00
sg28
I4752354
sg19
S'15944.4323798'
p615
sba(igraph
Edge
p616
(dp617
g7
I1
sg8
I00
sg9
I5
sg10
(lp618
g257
ag268
asg26
I00
sg27
I00
sg28
I4752355
sg19
S'15944.435024'
p619
sbasS'vertices'
p620
(lp621
g12
ag22
ag33
ag40
ag47
ag58
ag61
ag68
ag75
ag82
ag93
ag96
ag103
ag110
ag117
ag128
ag131
ag138
ag145
ag152
ag163
ag166
ag173
ag180
ag187
ag198
ag201
ag208
ag215
ag222
ag233
ag236
ag243
ag250
ag257
ag268
ag271
ag278
ag285
ag292
asS'tags'
p622
(lp623
sb.