(igraph
Graph
p0
(dp1
S'labelingConstraints'
p2
I-1
sS'edges'
p3
(lp4
(igraph
Edge
p5
(dp6
S'direction'
p7
I1
sS'selected'
p8
I00
sS'height'
p9
I5
sS'vs'
p10
(lp11
(igraph
Vertex
p12
(dp13
S'xnorm'
p14
F0.0
sg8
I01
sS'label'
p15
I0
sS'y'
p16
F-74.0
sS'x'
p17
F-150.0
sS'circle'
p18
I4624260
sS'id'
p19
S'15516.8076716'
p20
sS'ynorm'
p21
F0.0
sba(igraph
Vertex
p22
(dp23
g14
F0.125
sg8
I00
sg15
S'NULL'
p24
sg16
F-74.0
sg17
F-192.75
sg18
I4624262
sg19
S'15516.8077116'
p25
sg21
F0.0
sbasS'wrap'
p26
I00
sS'curved'
p27
I00
sS'line'
p28
I4624123
sg19
S'15516.8252527'
p29
sba(igraph
Edge
p30
(dp31
g7
I1
sg8
I00
sg9
I5
sg10
(lp32
g22
a(igraph
Vertex
p33
(dp34
g14
F0.25
sg8
I00
sg15
g24
sg16
F-74.0
sg17
F-235.5
sg18
I4624263
sg19
S'15516.8077566'
p35
sg21
F0.0
sbasg26
I00
sg27
I00
sg28
I4624124
sg19
S'15516.8253764'
p36
sba(igraph
Edge
p37
(dp38
g7
I1
sg8
I00
sg9
I5
sg10
(lp39
g33
a(igraph
Vertex
p40
(dp41
g14
F0.375
sg8
I00
sg15
g24
sg16
F-74.0
sg17
F-278.25
sg18
I4624264
sg19
S'15516.8078102'
p42
sg21
F0.0
sbasg26
I00
sg27
I00
sg28
I4624125
sg19
S'15516.8255421'
p43
sba(igraph
Edge
p44
(dp45
g7
I1
sg8
I00
sg9
I5
sg10
(lp46
g40
a(igraph
Vertex
p47
(dp48
g14
F0.5
sg8
I00
sg15
g24
sg16
F-74.0
sg17
F-321.0
sg18
I4624265
sg19
S'15516.8079083'
p49
sg21
F0.0
sbasg26
I00
sg27
I00
sg28
I4624126
sg19
S'15516.8257619'
p50
sba(igraph
Edge
p51
(dp52
g7
I1
sg8
I00
sg9
I5
sg10
(lp53
g47
a(igraph
Vertex
p54
(dp55
g14
F0.625
sg8
I00
sg15
g24
sg16
F-74.0
sg17
F-363.75
sg18
I4624266
sg19
S'15516.8080033'
p56
sg21
F0.0
sbasg26
I00
sg27
I00
sg28
I4624127
sg19
S'15516.8261315'
p57
sba(igraph
Edge
p58
(dp59
g7
I1
sg8
I00
sg9
I5
sg10
(lp60
g54
a(igraph
Vertex
p61
(dp62
g14
F0.75
sg8
I00
sg15
g24
sg16
F-74.0
sg17
F-406.5
sg18
I4624267
sg19
S'15516.8081041'
p63
sg21
F0.0
sbasg26
I00
sg27
I00
sg28
I4624128
sg19
S'15516.826443'
p64
sba(igraph
Edge
p65
(dp66
g7
I1
sg8
I00
sg9
I5
sg10
(lp67
g61
a(igraph
Vertex
p68
(dp69
g14
F0.875
sg8
I00
sg15
g24
sg16
F-74.0
sg17
F-449.25
sg18
I4624268
sg19
S'15516.8082189'
p70
sg21
F0.0
sbasg26
I00
sg27
I00
sg28
I4624129
sg19
S'15516.8269073'
p71
sba(igraph
Edge
p72
(dp73
g7
I1
sg8
I00
sg9
I5
sg10
(lp74
g68
a(igraph
Vertex
p75
(dp76
g14
F1.0
sg8
I00
sg15
g24
sg16
F-74.0
sg17
F-492.0
sg18
I4624269
sg19
S'15516.8083491'
p77
sg21
F0.0
sbasg26
I00
sg27
I00
sg28
I4624130
sg19
S'15516.8273105'
p78
sba(igraph
Edge
p79
(dp80
g7
I1
sg8
I00
sg9
I5
sg10
(lp81
g75
ag12
asg26
I00
sg27
I00
sg28
I4624131
sg19
S'15516.8277572'
p82
sba(igraph
Edge
p83
(dp84
g7
I1
sg8
I00
sg9
I5
sg10
(lp85
(igraph
Vertex
p86
(dp87
g14
F0.0
sg8
I00
sg15
g24
sg16
F15.75
sg17
F-150.0
sg18
I4624270
sg19
S'15516.8084955'
p88
sg21
F0.25
sba(igraph
Vertex
p89
(dp90
g14
F0.125
sg8
I00
sg15
g24
sg16
F15.75
sg17
F-192.75
sg18
I4624271
sg19
S'15516.8086564'
p91
sg21
F0.25
sbasg26
I00
sg27
I00
sg28
I4624132
sg19
S'15516.82825'
p92
sba(igraph
Edge
p93
(dp94
g7
I1
sg8
I00
sg9
I5
sg10
(lp95
g89
a(igraph
Vertex
p96
(dp97
g14
F0.25
sg8
I01
sg15
I0
sg16
F15.75
sg17
F-235.5
sg18
I4624273
sg19
S'15516.8088358'
p98
sg21
F0.25
sbasg26
I00
sg27
I00
sg28
I4624133
sg19
S'15516.8287858'
p99
sba(igraph
Edge
p100
(dp101
g7
I1
sg8
I00
sg9
I5
sg10
(lp102
g96
a(igraph
Vertex
p103
(dp104
g14
F0.375
sg8
I00
sg15
g24
sg16
F15.75
sg17
F-278.25
sg18
I4624275
sg19
S'15516.8090282'
p105
sg21
F0.25
sbasg26
I00
sg27
I00
sg28
I4624134
sg19
S'15516.8293691'
p106
sba(igraph
Edge
p107
(dp108
g7
I1
sg8
I00
sg9
I5
sg10
(lp109
g103
a(igraph
Vertex
p110
(dp111
g14
F0.5
sg8
I00
sg15
g24
sg16
F15.75
sg17
F-321.0
sg18
I4624276
sg19
S'15516.8092392'
p112
sg21
F0.25
sbasg26
I00
sg27
I00
sg28
I4624135
sg19
S'15516.8299968'
p113
sba(igraph
Edge
p114
(dp115
g7
I1
sg8
I00
sg9
I5
sg10
(lp116
g110
a(igraph
Vertex
p117
(dp118
g14
F0.625
sg8
I00
sg15
g24
sg16
F15.75
sg17
F-363.75
sg18
I4624277
sg19
S'15516.8094652'
p119
sg21
F0.25
sbasg26
I00
sg27
I00
sg28
I4624136
sg19
S'15516.830674'
p120
sba(igraph
Edge
p121
(dp122
g7
I1
sg8
I00
sg9
I5
sg10
(lp123
g117
a(igraph
Vertex
p124
(dp125
g14
F0.75
sg8
I00
sg15
g24
sg16
F15.75
sg17
F-406.5
sg18
I4624278
sg19
S'15516.8097065'
p126
sg21
F0.25
sbasg26
I00
sg27
I00
sg28
I4624137
sg19
S'15516.8314185'
p127
sba(igraph
Edge
p128
(dp129
g7
I1
sg8
I00
sg9
I5
sg10
(lp130
g124
a(igraph
Vertex
p131
(dp132
g14
F0.875
sg8
I00
sg15
g24
sg16
F15.75
sg17
F-449.25
sg18
I4624279
sg19
S'15516.8099644'
p133
sg21
F0.25
sbasg26
I00
sg27
I00
sg28
I4624138
sg19
S'15516.8322295'
p134
sba(igraph
Edge
p135
(dp136
g7
I1
sg8
I00
sg9
I5
sg10
(lp137
g131
a(igraph
Vertex
p138
(dp139
g14
F1.0
sg8
I00
sg15
g24
sg16
F15.75
sg17
F-492.0
sg18
I4624280
sg19
S'15516.8102385'
p140
sg21
F0.25
sbasg26
I00
sg27
I00
sg28
I4624139
sg19
S'15516.8331011'
p141
sba(igraph
Edge
p142
(dp143
g7
I1
sg8
I00
sg9
I5
sg10
(lp144
g138
ag86
asg26
I00
sg27
I00
sg28
I4624140
sg19
S'15516.8339627'
p145
sba(igraph
Edge
p146
(dp147
g7
I1
sg8
I00
sg9
I5
sg10
(lp148
(igraph
Vertex
p149
(dp150
g14
F0.0
sg8
I00
sg15
g24
sg16
F105.5
sg17
F-150.0
sg18
I4624281
sg19
S'15516.8105259'
p151
sg21
F0.5
sba(igraph
Vertex
p152
(dp153
g14
F0.125
sg8
I00
sg15
g24
sg16
F105.5
sg17
F-192.75
sg18
I4624282
sg19
S'15516.8108313'
p154
sg21
F0.5
sbasg26
I00
sg27
I00
sg28
I4624141
sg19
S'15516.8348667'
p155
sba(igraph
Edge
p156
(dp157
g7
I1
sg8
I00
sg9
I5
sg10
(lp158
g152
a(igraph
Vertex
p159
(dp160
g14
F0.25
sg8
I00
sg15
g24
sg16
F105.5
sg17
F-235.5
sg18
I4624283
sg19
S'15516.81119'
p161
sg21
F0.5
sbasg26
I00
sg27
I00
sg28
I4624142
sg19
S'15516.8358177'
p162
sba(igraph
Edge
p163
(dp164
g7
I1
sg8
I00
sg9
I5
sg10
(lp165
g159
a(igraph
Vertex
p166
(dp167
g14
F0.375
sg8
I00
sg15
g24
sg16
F105.5
sg17
F-278.25
sg18
I4624284
sg19
S'15516.8115294'
p168
sg21
F0.5
sbasg26
I00
sg27
I00
sg28
I4624143
sg19
S'15516.8368145'
p169
sba(igraph
Edge
p170
(dp171
g7
I1
sg8
I00
sg9
I5
sg10
(lp172
g166
a(igraph
Vertex
p173
(dp174
g14
F0.5
sg8
I01
sg15
I0
sg16
F105.5
sg17
F-321.0
sg18
I4624286
sg19
S'15516.8118884'
p175
sg21
F0.5
sbasg26
I00
sg27
I00
sg28
I4624144
sg19
S'15516.8379087'
p176
sba(igraph
Edge
p177
(dp178
g7
I1
sg8
I00
sg9
I5
sg10
(lp179
g173
a(igraph
Vertex
p180
(dp181
g14
F0.625
sg8
I00
sg15
g24
sg16
F105.5
sg17
F-363.75
sg18
I4624288
sg19
S'15516.8122552'
p182
sg21
F0.5
sbasg26
I00
sg27
I00
sg28
I4624145
sg19
S'15516.8390027'
p183
sba(igraph
Edge
p184
(dp185
g7
I1
sg8
I00
sg9
I5
sg10
(lp186
g180
a(igraph
Vertex
p187
(dp188
g14
F0.75
sg8
I00
sg15
g24
sg16
F105.5
sg17
F-406.5
sg18
I4624289
sg19
S'15516.8126429'
p189
sg21
F0.5
sbasg26
I00
sg27
I00
sg28
I4624146
sg19
S'15516.8401671'
p190
sba(igraph
Edge
p191
(dp192
g7
I1
sg8
I00
sg9
I5
sg10
(lp193
g187
a(igraph
Vertex
p194
(dp195
g14
F0.875
sg8
I00
sg15
g24
sg16
F105.5
sg17
F-449.25
sg18
I4624290
sg19
S'15516.813041'
p196
sg21
F0.5
sbasg26
I00
sg27
I00
sg28
I4624147
sg19
S'15516.8413499'
p197
sba(igraph
Edge
p198
(dp199
g7
I1
sg8
I00
sg9
I5
sg10
(lp200
g194
a(igraph
Vertex
p201
(dp202
g14
F1.0
sg8
I00
sg15
g24
sg16
F105.5
sg17
F-492.0
sg18
I4624291
sg19
S'15516.813462'
p203
sg21
F0.5
sbasg26
I00
sg27
I00
sg28
I4624148
sg19
S'15516.842575'
p204
sba(igraph
Edge
p205
(dp206
g7
I1
sg8
I00
sg9
I5
sg10
(lp207
g201
ag149
asg26
I00
sg27
I00
sg28
I4624149
sg19
S'15516.8440441'
p208
sba(igraph
Edge
p209
(dp210
g7
I1
sg8
I00
sg9
I5
sg10
(lp211
(igraph
Vertex
p212
(dp213
g14
F0.0
sg8
I00
sg15
g24
sg16
F195.25
sg17
F-150.0
sg18
I4624292
sg19
S'15516.8138937'
p214
sg21
F0.75
sba(igraph
Vertex
p215
(dp216
g14
F0.125
sg8
I00
sg15
g24
sg16
F195.25
sg17
F-192.75
sg18
I4624293
sg19
S'15516.8143485'
p217
sg21
F0.75
sbasg26
I00
sg27
I00
sg28
I4624150
sg19
S'15516.84542'
p218
sba(igraph
Edge
p219
(dp220
g7
I1
sg8
I00
sg9
I5
sg10
(lp221
g215
a(igraph
Vertex
p222
(dp223
g14
F0.25
sg8
I00
sg15
g24
sg16
F195.25
sg17
F-235.5
sg18
I4624294
sg19
S'15516.814817'
p224
sg21
F0.75
sbasg26
I00
sg27
I00
sg28
I4624151
sg19
S'15516.8468691'
p225
sba(igraph
Edge
p226
(dp227
g7
I1
sg8
I00
sg9
I5
sg10
(lp228
g222
a(igraph
Vertex
p229
(dp230
g14
F0.375
sg8
I00
sg15
g24
sg16
F195.25
sg17
F-278.25
sg18
I4624295
sg19
S'15516.8153385'
p231
sg21
F0.75
sbasg26
I00
sg27
I00
sg28
I4624152
sg19
S'15516.8483436'
p232
sba(igraph
Edge
p233
(dp234
g7
I1
sg8
I00
sg9
I5
sg10
(lp235
g229
a(igraph
Vertex
p236
(dp237
g14
F0.5
sg8
I00
sg15
g24
sg16
F195.25
sg17
F-321.0
sg18
I4624296
sg19
S'15516.8158442'
p238
sg21
F0.75
sbasg26
I00
sg27
I00
sg28
I4624153
sg19
S'15516.8498854'
p239
sba(igraph
Edge
p240
(dp241
g7
I1
sg8
I00
sg9
I5
sg10
(lp242
g236
a(igraph
Vertex
p243
(dp244
g14
F0.625
sg8
I00
sg15
g24
sg16
F195.25
sg17
F-363.75
sg18
I4624297
sg19
S'15516.8163602'
p245
sg21
F0.75
sbasg26
I00
sg27
I00
sg28
I4624154
sg19
S'15516.8514565'
p246
sba(igraph
Edge
p247
(dp248
g7
I1
sg8
I00
sg9
I5
sg10
(lp249
g243
a(igraph
Vertex
p250
(dp251
g14
F0.75
sg8
I01
sg15
I0
sg16
F195.25
sg17
F-406.5
sg18
I4624299
sg19
S'15516.8168935'
p252
sg21
F0.75
sbasg26
I00
sg27
I00
sg28
I4624155
sg19
S'15516.8530319'
p253
sba(igraph
Edge
p254
(dp255
g7
I1
sg8
I00
sg9
I5
sg10
(lp256
g250
a(igraph
Vertex
p257
(dp258
g14
F0.875
sg8
I00
sg15
g24
sg16
F195.25
sg17
F-449.25
sg18
I4624301
sg19
S'15516.817441'
p259
sg21
F0.75
sbasg26
I00
sg27
I00
sg28
I4624156
sg19
S'15516.8546813'
p260
sba(igraph
Edge
p261
(dp262
g7
I1
sg8
I00
sg9
I5
sg10
(lp263
g257
a(igraph
Vertex
p264
(dp265
g14
F1.0
sg8
I00
sg15
g24
sg16
F195.25
sg17
F-492.0
sg18
I4624302
sg19
S'15516.8180098'
p266
sg21
F0.75
sbasg26
I00
sg27
I00
sg28
I4624157
sg19
S'15516.8563734'
p267
sba(igraph
Edge
p268
(dp269
g7
I1
sg8
I00
sg9
I5
sg10
(lp270
g264
ag212
asg26
I00
sg27
I00
sg28
I4624158
sg19
S'15516.8580635'
p271
sba(igraph
Edge
p272
(dp273
g7
I1
sg8
I00
sg9
I5
sg10
(lp274
(igraph
Vertex
p275
(dp276
g14
F0.0
sg8
I00
sg15
g24
sg16
F285.0
sg17
F-150.0
sg18
I4624303
sg19
S'15516.8185876'
p277
sg21
F1.0
sba(igraph
Vertex
p278
(dp279
g14
F0.125
sg8
I00
sg15
g24
sg16
F285.0
sg17
F-192.75
sg18
I4624304
sg19
S'15516.8192206'
p280
sg21
F1.0
sbasg26
I00
sg27
I00
sg28
I4624159
sg19
S'15516.8598344'
p281
sba(igraph
Edge
p282
(dp283
g7
I1
sg8
I00
sg9
I5
sg10
(lp284
g278
a(igraph
Vertex
p285
(dp286
g14
F0.25
sg8
I00
sg15
g24
sg16
F285.0
sg17
F-235.5
sg18
I4624305
sg19
S'15516.8198411'
p287
sg21
F1.0
sbasg26
I00
sg27
I00
sg28
I4624160
sg19
S'15516.8616522'
p288
sba(igraph
Edge
p289
(dp290
g7
I1
sg8
I00
sg9
I5
sg10
(lp291
g285
a(igraph
Vertex
p292
(dp293
g14
F0.375
sg8
I00
sg15
g24
sg16
F285.0
sg17
F-278.25
sg18
I4624306
sg19
S'15516.8204772'
p294
sg21
F1.0
sbasg26
I00
sg27
I00
sg28
I4624161
sg19
S'15516.8635824'
p295
sba(igraph
Edge
p296
(dp297
g7
I1
sg8
I00
sg9
I5
sg10
(lp298
g292
a(igraph
Vertex
p299
(dp300
g14
F0.5
sg8
I00
sg15
g24
sg16
F285.0
sg17
F-321.0
sg18
I4624307
sg19
S'15516.8211256'
p301
sg21
F1.0
sbasg26
I00
sg27
I00
sg28
I4624162
sg19
S'15516.8654614'
p302
sba(igraph
Edge
p303
(dp304
g7
I1
sg8
I00
sg9
I5
sg10
(lp305
g299
a(igraph
Vertex
p306
(dp307
g14
F0.625
sg8
I01
sg15
I0
sg16
F285.0
sg17
F-363.75
sg18
I4624309
sg19
S'15516.8217902'
p308
sg21
F1.0
sbasg26
I00
sg27
I00
sg28
I4624163
sg19
S'15516.8674429'
p309
sba(igraph
Edge
p310
(dp311
g7
I1
sg8
I00
sg9
I5
sg10
(lp312
g306
a(igraph
Vertex
p313
(dp314
g14
F0.75
sg8
I00
sg15
g24
sg16
F285.0
sg17
F-406.5
sg18
I4624311
sg19
S'15516.8226319'
p315
sg21
F1.0
sbasg26
I00
sg27
I00
sg28
I4624164
sg19
S'15516.8694105'
p316
sba(igraph
Edge
p317
(dp318
g7
I1
sg8
I00
sg9
I5
sg10
(lp319
g313
a(igraph
Vertex
p320
(dp321
g14
F0.875
sg8
I00
sg15
g24
sg16
F285.0
sg17
F-449.25
sg18
I4624312
sg19
S'15516.8237312'
p322
sg21
F1.0
sbasg26
I00
sg27
I00
sg28
I4624165
sg19
S'15516.8717032'
p323
sba(igraph
Edge
p324
(dp325
g7
I1
sg8
I00
sg9
I5
sg10
(lp326
g320
a(igraph
Vertex
p327
(dp328
g14
F1.0
sg8
I01
sg15
I0
sg16
F285.0
sg17
F-492.0
sg18
I4624314
sg19
S'15516.8244615'
p329
sg21
F1.0
sbasg26
I00
sg27
I00
sg28
I4624166
sg19
S'15516.8738706'
p330
sba(igraph
Edge
p331
(dp332
g7
I1
sg8
I00
sg9
I5
sg10
(lp333
g327
ag275
asg26
I00
sg27
I00
sg28
I4624167
sg19
S'15516.8761005'
p334
sba(igraph
Edge
p335
(dp336
g7
I1
sg8
I00
sg9
I5
sg10
(lp337
g12
ag86
asg26
I00
sg27
I00
sg28
I4624168
sg19
S'15516.878287'
p338
sba(igraph
Edge
p339
(dp340
g7
I1
sg8
I00
sg9
I5
sg10
(lp341
g22
ag96
asg26
I00
sg27
I00
sg28
I4624169
sg19
S'15516.8806217'
p342
sba(igraph
Edge
p343
(dp344
g7
I1
sg8
I00
sg9
I5
sg10
(lp345
g33
ag96
asg26
I00
sg27
I00
sg28
I4624170
sg19
S'15516.8829161'
p346
sba(igraph
Edge
p347
(dp348
g7
I1
sg8
I00
sg9
I5
sg10
(lp349
g40
ag110
asg26
I00
sg27
I00
sg28
I4624171
sg19
S'15516.885462'
p350
sba(igraph
Edge
p351
(dp352
g7
I1
sg8
I00
sg9
I5
sg10
(lp353
g47
ag110
asg26
I00
sg27
I00
sg28
I4624172
sg19
S'15516.8878749'
p354
sba(igraph
Edge
p355
(dp356
g7
I1
sg8
I00
sg9
I5
sg10
(lp357
g54
ag124
asg26
I00
sg27
I00
sg28
I4624173
sg19
S'15516.890343'
p358
sba(igraph
Edge
p359
(dp360
g7
I1
sg8
I00
sg9
I5
sg10
(lp361
g61
ag124
asg26
I00
sg27
I00
sg28
I4624174
sg19
S'15516.8928015'
p362
sba(igraph
Edge
p363
(dp364
g7
I1
sg8
I00
sg9
I5
sg10
(lp365
g68
ag138
asg26
I00
sg27
I00
sg28
I4624175
sg19
S'15516.8953772'
p366
sba(igraph
Edge
p367
(dp368
g7
I1
sg8
I00
sg9
I5
sg10
(lp369
g75
ag138
asg26
I00
sg27
I00
sg28
I4624176
sg19
S'15516.8979273'
p370
sba(igraph
Edge
p371
(dp372
g7
I1
sg8
I00
sg9
I5
sg10
(lp373
g12
ag89
asg26
I00
sg27
I00
sg28
I4624177
sg19
S'15516.9007368'
p374
sba(igraph
Edge
p375
(dp376
g7
I1
sg8
I00
sg9
I5
sg10
(lp377
g22
ag89
asg26
I00
sg27
I00
sg28
I4624178
sg19
S'15516.903502'
p378
sba(igraph
Edge
p379
(dp380
g7
I1
sg8
I00
sg9
I5
sg10
(lp381
g33
ag103
asg26
I00
sg27
I00
sg28
I4624179
sg19
S'15516.9061839'
p382
sba(igraph
Edge
p383
(dp384
g7
I1
sg8
I00
sg9
I5
sg10
(lp385
g40
ag103
asg26
I00
sg27
I00
sg28
I4624180
sg19
S'15516.9089985'
p386
sba(igraph
Edge
p387
(dp388
g7
I1
sg8
I00
sg9
I5
sg10
(lp389
g47
ag117
asg26
I00
sg27
I00
sg28
I4624181
sg19
S'15516.911857'
p390
sba(igraph
Edge
p391
(dp392
g7
I1
sg8
I00
sg9
I5
sg10
(lp393
g54
ag117
asg26
I00
sg27
I00
sg28
I4624182
sg19
S'15516.9146894'
p394
sba(igraph
Edge
p395
(dp396
g7
I1
sg8
I00
sg9
I5
sg10
(lp397
g61
ag131
asg26
I00
sg27
I00
sg28
I4624183
sg19
S'15516.9175797'
p398
sba(igraph
Edge
p399
(dp400
g7
I1
sg8
I00
sg9
I5
sg10
(lp401
g68
ag131
asg26
I00
sg27
I00
sg28
I4624184
sg19
S'15516.9206117'
p402
sba(igraph
Edge
p403
(dp404
g7
I1
sg8
I00
sg9
I5
sg10
(lp405
g75
ag86
asg26
I00
sg27
I00
sg28
I4624185
sg19
S'15516.9235758'
p406
sba(igraph
Edge
p407
(dp408
g7
I1
sg8
I00
sg9
I5
sg10
(lp409
g12
ag275
asg26
I00
sg27
I00
sg28
I4624186
sg19
S'15516.9266736'
p410
sba(igraph
Edge
p411
(dp412
g7
I1
sg8
I00
sg9
I5
sg10
(lp413
g22
ag275
asg26
I00
sg27
I00
sg28
I4624187
sg19
S'15516.9296536'
p414
sba(igraph
Edge
p415
(dp416
g7
I1
sg8
I00
sg9
I5
sg10
(lp417
g33
ag285
asg26
I00
sg27
I00
sg28
I4624188
sg19
S'15516.9310943'
p418
sba(igraph
Edge
p419
(dp420
g7
I1
sg8
I00
sg9
I5
sg10
(lp421
g40
ag285
asg26
I00
sg27
I00
sg28
I4624189
sg19
S'15516.9325431'
p422
sba(igraph
Edge
p423
(dp424
g7
I1
sg8
I00
sg9
I5
sg10
(lp425
g47
ag299
asg26
I00
sg27
I00
sg28
I4624190
sg19
S'15516.9340944'
p426
sba(igraph
Edge
p427
(dp428
g7
I1
sg8
I00
sg9
I5
sg10
(lp429
g54
ag299
asg26
I00
sg27
I00
sg28
I4624191
sg19
S'15516.9356474'
p430
sba(igraph
Edge
p431
(dp432
g7
I1
sg8
I00
sg9
I5
sg10
(lp433
g61
ag313
asg26
I00
sg27
I00
sg28
I4624192
sg19
S'15516.9372046'
p434
sba(igraph
Edge
p435
(dp436
g7
I1
sg8
I00
sg9
I5
sg10
(lp437
g68
ag313
asg26
I00
sg27
I00
sg28
I4624193
sg19
S'15516.9387648'
p438
sba(igraph
Edge
p439
(dp440
g7
I1
sg8
I00
sg9
I5
sg10
(lp441
g75
ag327
asg26
I00
sg27
I00
sg28
I4624194
sg19
S'15516.9403421'
p442
sba(igraph
Edge
p443
(dp444
g7
I1
sg8
I01
sg9
I5
sg10
(lp445
g12
ag327
asg26
I00
sg27
I00
sg28
I4624196
sg19
S'15516.941932'
p446
sba(igraph
Edge
p447
(dp448
g7
I1
sg8
I00
sg9
I5
sg10
(lp449
g22
ag278
asg26
I00
sg27
I00
sg28
I4624197
sg19
S'15516.943642'
p450
sba(igraph
Edge
p451
(dp452
g7
I1
sg8
I00
sg9
I5
sg10
(lp453
g33
ag278
asg26
I00
sg27
I00
sg28
I4624198
sg19
S'15516.9452782'
p454
sba(igraph
Edge
p455
(dp456
g7
I1
sg8
I00
sg9
I5
sg10
(lp457
g40
ag292
asg26
I00
sg27
I00
sg28
I4624199
sg19
S'15516.9469458'
p458
sba(igraph
Edge
p459
(dp460
g7
I1
sg8
I00
sg9
I5
sg10
(lp461
g47
ag292
asg26
I00
sg27
I00
sg28
I4624200
sg19
S'15516.948644'
p462
sba(igraph
Edge
p463
(dp464
g7
I1
sg8
I00
sg9
I5
sg10
(lp465
g54
ag306
asg26
I00
sg27
I00
sg28
I4624201
sg19
S'15516.9503233'
p466
sba(igraph
Edge
p467
(dp468
g7
I1
sg8
I00
sg9
I5
sg10
(lp469
g61
ag306
asg26
I00
sg27
I00
sg28
I4624202
sg19
S'15516.9520392'
p470
sba(igraph
Edge
p471
(dp472
g7
I1
sg8
I00
sg9
I5
sg10
(lp473
g68
ag320
asg26
I00
sg27
I00
sg28
I4624203
sg19
S'15516.9537802'
p474
sba(igraph
Edge
p475
(dp476
g7
I1
sg8
I00
sg9
I5
sg10
(lp477
g75
ag320
asg26
I00
sg27
I00
sg28
I4624204
sg19
S'15516.9555689'
p478
sba(igraph
Edge
p479
(dp480
g7
I1
sg8
I00
sg9
I5
sg10
(lp481
g86
ag149
asg26
I00
sg27
I00
sg28
I4624205
sg19
S'15516.9574907'
p482
sba(igraph
Edge
p483
(dp484
g7
I1
sg8
I00
sg9
I5
sg10
(lp485
g89
ag159
asg26
I00
sg27
I00
sg28
I4624206
sg19
S'15516.9592923'
p486
sba(igraph
Edge
p487
(dp488
g7
I1
sg8
I00
sg9
I5
sg10
(lp489
g96
ag159
asg26
I00
sg27
I00
sg28
I4624207
sg19
S'15516.961156'
p490
sba(igraph
Edge
p491
(dp492
g7
I1
sg8
I00
sg9
I5
sg10
(lp493
g103
ag173
asg26
I00
sg27
I00
sg28
I4624208
sg19
S'15516.9630168'
p494
sba(igraph
Edge
p495
(dp496
g7
I1
sg8
I00
sg9
I5
sg10
(lp497
g110
ag173
asg26
I00
sg27
I00
sg28
I4624209
sg19
S'15516.9649117'
p498
sba(igraph
Edge
p499
(dp500
g7
I1
sg8
I00
sg9
I5
sg10
(lp501
g117
ag187
asg26
I00
sg27
I00
sg28
I4624210
sg19
S'15516.967'
p502
sba(igraph
Edge
p503
(dp504
g7
I1
sg8
I00
sg9
I5
sg10
(lp505
g124
ag187
asg26
I00
sg27
I00
sg28
I4624211
sg19
S'15516.9689785'
p506
sba(igraph
Edge
p507
(dp508
g7
I1
sg8
I00
sg9
I5
sg10
(lp509
g131
ag201
asg26
I00
sg27
I00
sg28
I4624212
sg19
S'15516.9709262'
p510
sba(igraph
Edge
p511
(dp512
g7
I1
sg8
I00
sg9
I5
sg10
(lp513
g138
ag201
asg26
I00
sg27
I00
sg28
I4624213
sg19
S'15516.9728926'
p514
sba(igraph
Edge
p515
(dp516
g7
I1
sg8
I00
sg9
I5
sg10
(lp517
g86
ag152
asg26
I00
sg27
I00
sg28
I4624214
sg19
S'15516.9748633'
p518
sba(igraph
Edge
p519
(dp520
g7
I1
sg8
I00
sg9
I5
sg10
(lp521
g89
ag152
asg26
I00
sg27
I00
sg28
I4624215
sg19
S'15516.976975'
p522
sba(igraph
Edge
p523
(dp524
g7
I1
sg8
I00
sg9
I5
sg10
(lp525
g96
ag166
asg26
I00
sg27
I00
sg28
I4624216
sg19
S'15516.97902'
p526
sba(igraph
Edge
p527
(dp528
g7
I1
sg8
I00
sg9
I5
sg10
(lp529
g103
ag166
asg26
I00
sg27
I00
sg28
I4624217
sg19
S'15516.9810593'
p530
sba(igraph
Edge
p531
(dp532
g7
I1
sg8
I00
sg9
I5
sg10
(lp533
g110
ag180
asg26
I00
sg27
I00
sg28
I4624218
sg19
S'15516.9831289'
p534
sba(igraph
Edge
p535
(dp536
g7
I1
sg8
I00
sg9
I5
sg10
(lp537
g117
ag180
asg26
I00
sg27
I00
sg28
I4624219
sg19
S'15516.9851953'
p538
sba(igraph
Edge
p539
(dp540
g7
I1
sg8
I00
sg9
I5
sg10
(lp541
g124
ag194
asg26
I00
sg27
I00
sg28
I4624220
sg19
S'15516.9873165'
p542
sba(igraph
Edge
p543
(dp544
g7
I1
sg8
I00
sg9
I5
sg10
(lp545
g131
ag194
asg26
I00
sg27
I00
sg28
I4624221
sg19
S'15516.9894783'
p546
sba(igraph
Edge
p547
(dp548
g7
I1
sg8
I00
sg9
I5
sg10
(lp549
g138
ag149
asg26
I00
sg27
I00
sg28
I4624222
sg19
S'15516.9916732'
p550
sba(igraph
Edge
p551
(dp552
g7
I1
sg8
I00
sg9
I5
sg10
(lp553
g149
ag212
asg26
I00
sg27
I00
sg28
I4624223
sg19
S'15516.9939249'
p554
sba(igraph
Edge
p555
(dp556
g7
I1
sg8
I00
sg9
I5
sg10
(lp557
g152
ag222
asg26
I00
sg27
I00
sg28
I4624224
sg19
S'15516.9967351'
p558
sba(igraph
Edge
p559
(dp560
g7
I1
sg8
I00
sg9
I5
sg10
(lp561
g159
ag222
asg26
I00
sg27
I00
sg28
I4624225
sg19
S'15516.9991071'
p562
sba(igraph
Edge
p563
(dp564
g7
I1
sg8
I00
sg9
I5
sg10
(lp565
g166
ag236
asg26
I00
sg27
I00
sg28
I4624226
sg19
S'15517.0013809'
p566
sba(igraph
Edge
p567
(dp568
g7
I1
sg8
I00
sg9
I5
sg10
(lp569
g173
ag236
asg26
I00
sg27
I00
sg28
I4624227
sg19
S'15517.0036605'
p570
sba(igraph
Edge
p571
(dp572
g7
I1
sg8
I00
sg9
I5
sg10
(lp573
g180
ag250
asg26
I00
sg27
I00
sg28
I4624228
sg19
S'15517.0059706'
p574
sba(igraph
Edge
p575
(dp576
g7
I1
sg8
I00
sg9
I5
sg10
(lp577
g187
ag250
asg26
I00
sg27
I00
sg28
I4624229
sg19
S'15517.0082804'
p578
sba(igraph
Edge
p579
(dp580
g7
I1
sg8
I00
sg9
I5
sg10
(lp581
g194
ag264
asg26
I00
sg27
I00
sg28
I4624230
sg19
S'15517.0106793'
p582
sba(igraph
Edge
p583
(dp584
g7
I1
sg8
I00
sg9
I5
sg10
(lp585
g201
ag264
asg26
I00
sg27
I00
sg28
I4624231
sg19
S'15517.0131064'
p586
sba(igraph
Edge
p587
(dp588
g7
I1
sg8
I00
sg9
I5
sg10
(lp589
g149
ag215
asg26
I00
sg27
I00
sg28
I4624232
sg19
S'15517.015462'
p590
sba(igraph
Edge
p591
(dp592
g7
I1
sg8
I00
sg9
I5
sg10
(lp593
g152
ag215
asg26
I00
sg27
I00
sg28
I4624233
sg19
S'15517.017852'
p594
sba(igraph
Edge
p595
(dp596
g7
I1
sg8
I00
sg9
I5
sg10
(lp597
g159
ag229
asg26
I00
sg27
I00
sg28
I4624234
sg19
S'15517.0202478'
p598
sba(igraph
Edge
p599
(dp600
g7
I1
sg8
I00
sg9
I5
sg10
(lp601
g166
ag229
asg26
I00
sg27
I00
sg28
I4624235
sg19
S'15517.0226462'
p602
sba(igraph
Edge
p603
(dp604
g7
I1
sg8
I00
sg9
I5
sg10
(lp605
g173
ag243
asg26
I00
sg27
I00
sg28
I4624236
sg19
S'15517.0251515'
p606
sba(igraph
Edge
p607
(dp608
g7
I1
sg8
I00
sg9
I5
sg10
(lp609
g180
ag243
asg26
I00
sg27
I00
sg28
I4624237
sg19
S'15517.0276295'
p610
sba(igraph
Edge
p611
(dp612
g7
I1
sg8
I00
sg9
I5
sg10
(lp613
g187
ag257
asg26
I00
sg27
I00
sg28
I4624238
sg19
S'15517.0301494'
p614
sba(igraph
Edge
p615
(dp616
g7
I1
sg8
I00
sg9
I5
sg10
(lp617
g194
ag257
asg26
I00
sg27
I00
sg28
I4624239
sg19
S'15517.0326634'
p618
sba(igraph
Edge
p619
(dp620
g7
I1
sg8
I00
sg9
I5
sg10
(lp621
g201
ag212
asg26
I00
sg27
I00
sg28
I4624240
sg19
S'15517.0353587'
p622
sba(igraph
Edge
p623
(dp624
g7
I1
sg8
I00
sg9
I5
sg10
(lp625
g212
ag275
asg26
I00
sg27
I00
sg28
I4624241
sg19
S'15517.0379255'
p626
sba(igraph
Edge
p627
(dp628
g7
I1
sg8
I00
sg9
I5
sg10
(lp629
g215
ag285
asg26
I00
sg27
I00
sg28
I4624242
sg19
S'15517.0404845'
p630
sba(igraph
Edge
p631
(dp632
g7
I1
sg8
I00
sg9
I5
sg10
(lp633
g222
ag285
asg26
I00
sg27
I00
sg28
I4624243
sg19
S'15517.0431074'
p634
sba(igraph
Edge
p635
(dp636
g7
I1
sg8
I00
sg9
I5
sg10
(lp637
g229
ag299
asg26
I00
sg27
I00
sg28
I4624244
sg19
S'15517.0458318'
p638
sba(igraph
Edge
p639
(dp640
g7
I1
sg8
I00
sg9
I5
sg10
(lp641
g236
ag299
asg26
I00
sg27
I00
sg28
I4624245
sg19
S'15517.0484455'
p642
sba(igraph
Edge
p643
(dp644
g7
I1
sg8
I00
sg9
I5
sg10
(lp645
g243
ag313
asg26
I00
sg27
I00
sg28
I4624246
sg19
S'15517.0510934'
p646
sba(igraph
Edge
p647
(dp648
g7
I1
sg8
I00
sg9
I5
sg10
(lp649
g250
ag313
asg26
I00
sg27
I00
sg28
I4624247
sg19
S'15517.0537993'
p650
sba(igraph
Edge
p651
(dp652
g7
I1
sg8
I00
sg9
I5
sg10
(lp653
g257
ag327
asg26
I00
sg27
I00
sg28
I4624248
sg19
S'15517.0565329'
p654
sba(igraph
Edge
p655
(dp656
g7
I1
sg8
I00
sg9
I5
sg10
(lp657
g264
ag327
asg26
I00
sg27
I00
sg28
I4624249
sg19
S'15517.0592402'
p658
sba(igraph
Edge
p659
(dp660
g7
I1
sg8
I00
sg9
I5
sg10
(lp661
g212
ag278
asg26
I00
sg27
I00
sg28
I4624250
sg19
S'15517.0619439'
p662
sba(igraph
Edge
p663
(dp664
g7
I1
sg8
I00
sg9
I5
sg10
(lp665
g215
ag278
asg26
I00
sg27
I00
sg28
I4624251
sg19
S'15517.0647404'
p666
sba(igraph
Edge
p667
(dp668
g7
I1
sg8
I00
sg9
I5
sg10
(lp669
g222
ag292
asg26
I00
sg27
I00
sg28
I4624252
sg19
S'15517.0675952'
p670
sba(igraph
Edge
p671
(dp672
g7
I1
sg8
I00
sg9
I5
sg10
(lp673
g229
ag292
asg26
I00
sg27
I00
sg28
I4624253
sg19
S'15517.0703729'
p674
sba(igraph
Edge
p675
(dp676
g7
I1
sg8
I00
sg9
I5
sg10
(lp677
g236
ag306
asg26
I00
sg27
I00
sg28
I4624254
sg19
S'15517.0731864'
p678
sba(igraph
Edge
p679
(dp680
g7
I1
sg8
I00
sg9
I5
sg10
(lp681
g243
ag306
asg26
I00
sg27
I00
sg28
I4624255
sg19
S'15517.076151'
p682
sba(igraph
Edge
p683
(dp684
g7
I1
sg8
I00
sg9
I5
sg10
(lp685
g250
ag320
asg26
I00
sg27
I00
sg28
I4624256
sg19
S'15517.079095'
p686
sba(igraph
Edge
p687
(dp688
g7
I1
sg8
I00
sg9
I5
sg10
(lp689
g257
ag320
asg26
I00
sg27
I00
sg28
I4624257
sg19
S'15517.0820275'
p690
sba(igraph
Edge
p691
(dp692
g7
I1
sg8
I00
sg9
I5
sg10
(lp693
g264
ag275
asg26
I00
sg27
I00
sg28
I4624258
sg19
S'15517.0849438'
p694
sbasS'vertices'
p695
(lp696
g12
ag22
ag33
ag40
ag47
ag54
ag61
ag68
ag75
ag86
ag89
ag96
ag103
ag110
ag117
ag124
ag131
ag138
ag149
ag152
ag159
ag166
ag173
ag180
ag187
ag194
ag201
ag212
ag215
ag222
ag229
ag236
ag243
ag250
ag257
ag264
ag275
ag278
ag285
ag292
ag299
ag306
ag313
ag320
ag327
asS'tags'
p697
(lp698
sb.