(igraph
Graph
p0
(dp1
S'labelingConstraints'
p2
I-1
sS'edges'
p3
(lp4
(igraph
Edge
p5
(dp6
S'direction'
p7
I1
sS'selected'
p8
I00
sS'height'
p9
I5
sS'vs'
p10
(lp11
(igraph
Vertex
p12
(dp13
S'xnorm'
p14
F0.0
sg8
I00
sS'label'
p15
S'NULL'
p16
sS'y'
p17
F-111.0
sS'x'
p18
F-150.0
sS'circle'
p19
I4587292
sS'id'
p20
S'15355.7648223'
p21
sS'ynorm'
p22
F0.0
sba(igraph
Vertex
p23
(dp24
g14
F0.125
sg8
I00
sg15
g16
sg17
F-111.0
sg18
F-196.0
sg19
I4587293
sg20
S'15355.7648447'
p25
sg22
F0.0
sbasS'wrap'
p26
I00
sS'curved'
p27
I00
sS'line'
p28
I4587103
sg20
S'15355.7822693'
p29
sba(igraph
Edge
p30
(dp31
g7
I1
sg8
I00
sg9
I5
sg10
(lp32
g23
a(igraph
Vertex
p33
(dp34
g14
F0.25
sg8
I01
sg15
I0
sg17
F-111.0
sg18
F-242.0
sg19
I4587295
sg20
S'15355.764867'
p35
sg22
F0.0
sbasg26
I00
sg27
I00
sg28
I4587104
sg20
S'15355.7823279'
p36
sba(igraph
Edge
p37
(dp38
g7
I1
sg8
I00
sg9
I5
sg10
(lp39
g33
a(igraph
Vertex
p40
(dp41
g14
F0.375
sg8
I00
sg15
g16
sg17
F-111.0
sg18
F-288.0
sg19
I4587297
sg20
S'15355.7648955'
p42
sg22
F0.0
sbasg26
I00
sg27
I00
sg28
I4587105
sg20
S'15355.7824053'
p43
sba(igraph
Edge
p44
(dp45
g7
I1
sg8
I00
sg9
I5
sg10
(lp46
g40
a(igraph
Vertex
p47
(dp48
g14
F0.5
sg8
I00
sg15
g16
sg17
F-111.0
sg18
F-334.0
sg19
I4587298
sg20
S'15355.7649293'
p49
sg22
F0.0
sbasg26
I00
sg27
I00
sg28
I4587106
sg20
S'15355.7825193'
p50
sba(igraph
Edge
p51
(dp52
g7
I1
sg8
I00
sg9
I5
sg10
(lp53
g47
a(igraph
Vertex
p54
(dp55
g14
F0.625
sg8
I00
sg15
g16
sg17
F-111.0
sg18
F-380.0
sg19
I4587299
sg20
S'15355.7649704'
p56
sg22
F0.0
sbasg26
I00
sg27
I00
sg28
I4587107
sg20
S'15355.7826397'
p57
sba(igraph
Edge
p58
(dp59
g7
I1
sg8
I00
sg9
I5
sg10
(lp60
g54
a(igraph
Vertex
p61
(dp62
g14
F0.75
sg8
I00
sg15
g16
sg17
F-111.0
sg18
F-426.0
sg19
I4587300
sg20
S'15355.7650193'
p63
sg22
F0.0
sbasg26
I00
sg27
I00
sg28
I4587108
sg20
S'15355.7827805'
p64
sba(igraph
Edge
p65
(dp66
g7
I1
sg8
I00
sg9
I5
sg10
(lp67
g61
a(igraph
Vertex
p68
(dp69
g14
F0.875
sg8
I00
sg15
g16
sg17
F-111.0
sg18
F-472.0
sg19
I4587301
sg20
S'15355.765076'
p70
sg22
F0.0
sbasg26
I00
sg27
I00
sg28
I4587109
sg20
S'15355.7829431'
p71
sba(igraph
Edge
p72
(dp73
g7
I1
sg8
I00
sg9
I5
sg10
(lp74
g68
a(igraph
Vertex
p75
(dp76
g14
F1.0
sg8
I00
sg15
g16
sg17
F-111.0
sg18
F-518.0
sg19
I4587302
sg20
S'15355.7651397'
p77
sg22
F0.0
sbasg26
I00
sg27
I00
sg28
I4587110
sg20
S'15355.7831261'
p78
sba(igraph
Edge
p79
(dp80
g7
I1
sg8
I00
sg9
I5
sg10
(lp81
g75
ag12
asg26
I00
sg27
I00
sg28
I4587111
sg20
S'15355.7833289'
p82
sba(igraph
Edge
p83
(dp84
g7
I1
sg8
I00
sg9
I5
sg10
(lp85
(igraph
Vertex
p86
(dp87
g14
F0.0
sg8
I00
sg15
g16
sg17
F-45.833333333333343
sg18
F-150.0
sg19
I4587303
sg20
S'15355.7652118'
p88
sg22
F0.16666666666666666
sba(igraph
Vertex
p89
(dp90
g14
F0.125
sg8
I00
sg15
g16
sg17
F-45.833333333333343
sg18
F-196.0
sg19
I4587304
sg20
S'15355.7652914'
p91
sg22
F0.16666666666666666
sbasg26
I00
sg27
I00
sg28
I4587112
sg20
S'15355.7835557'
p92
sba(igraph
Edge
p93
(dp94
g7
I1
sg8
I00
sg9
I5
sg10
(lp95
g89
a(igraph
Vertex
p96
(dp97
g14
F0.25
sg8
I00
sg15
g16
sg17
F-45.833333333333343
sg18
F-242.0
sg19
I4587305
sg20
S'15355.7653802'
p98
sg22
F0.16666666666666666
sbasg26
I00
sg27
I00
sg28
I4587113
sg20
S'15355.783803'
p99
sba(igraph
Edge
p100
(dp101
g7
I1
sg8
I00
sg9
I5
sg10
(lp102
g96
a(igraph
Vertex
p103
(dp104
g14
F0.375
sg8
I00
sg15
g16
sg17
F-45.833333333333343
sg18
F-288.0
sg19
I4587306
sg20
S'15355.7654749'
p105
sg22
F0.16666666666666666
sbasg26
I00
sg27
I00
sg28
I4587114
sg20
S'15355.7840712'
p106
sba(igraph
Edge
p107
(dp108
g7
I1
sg8
I00
sg9
I5
sg10
(lp109
g103
a(igraph
Vertex
p110
(dp111
g14
F0.5
sg8
I00
sg15
g16
sg17
F-45.833333333333343
sg18
F-334.0
sg19
I4587307
sg20
S'15355.7655786'
p112
sg22
F0.16666666666666666
sbasg26
I00
sg27
I00
sg28
I4587115
sg20
S'15355.7843609'
p113
sba(igraph
Edge
p114
(dp115
g7
I1
sg8
I00
sg9
I5
sg10
(lp116
g110
a(igraph
Vertex
p117
(dp118
g14
F0.625
sg8
I00
sg15
g16
sg17
F-45.833333333333343
sg18
F-380.0
sg19
I4587308
sg20
S'15355.765723'
p119
sg22
F0.16666666666666666
sbasg26
I00
sg27
I00
sg28
I4587116
sg20
S'15355.7846718'
p120
sba(igraph
Edge
p121
(dp122
g7
I1
sg8
I00
sg9
I5
sg10
(lp123
g117
a(igraph
Vertex
p124
(dp125
g14
F0.75
sg8
I00
sg15
g16
sg17
F-45.833333333333343
sg18
F-426.0
sg19
I4587309
sg20
S'15355.7659141'
p126
sg22
F0.16666666666666666
sbasg26
I00
sg27
I00
sg28
I4587117
sg20
S'15355.785004'
p127
sba(igraph
Edge
p128
(dp129
g7
I1
sg8
I00
sg9
I5
sg10
(lp130
g124
a(igraph
Vertex
p131
(dp132
g14
F0.875
sg8
I00
sg15
g16
sg17
F-45.833333333333343
sg18
F-472.0
sg19
I4587310
sg20
S'15355.7660432'
p133
sg22
F0.16666666666666666
sbasg26
I00
sg27
I00
sg28
I4587118
sg20
S'15355.7853574'
p134
sba(igraph
Edge
p135
(dp136
g7
I1
sg8
I00
sg9
I5
sg10
(lp137
g131
a(igraph
Vertex
p138
(dp139
g14
F1.0
sg8
I00
sg15
g16
sg17
F-45.833333333333343
sg18
F-518.0
sg19
I4587311
sg20
S'15355.7661784'
p140
sg22
F0.16666666666666666
sbasg26
I00
sg27
I00
sg28
I4587119
sg20
S'15355.7857328'
p141
sba(igraph
Edge
p142
(dp143
g7
I1
sg8
I00
sg9
I5
sg10
(lp144
g138
ag86
asg26
I00
sg27
I00
sg28
I4587120
sg20
S'15355.7861569'
p145
sba(igraph
Edge
p146
(dp147
g7
I1
sg8
I00
sg9
I5
sg10
(lp148
(igraph
Vertex
p149
(dp150
g14
F0.0
sg8
I00
sg15
g16
sg17
F19.333333333333314
sg18
F-150.0
sg19
I4587312
sg20
S'15355.7663217'
p151
sg22
F0.33333333333333331
sba(igraph
Vertex
p152
(dp153
g14
F0.125
sg8
I00
sg15
g16
sg17
F19.333333333333314
sg18
F-196.0
sg19
I4587313
sg20
S'15355.7664742'
p154
sg22
F0.33333333333333331
sbasg26
I00
sg27
I00
sg28
I4587121
sg20
S'15355.7867628'
p155
sba(igraph
Edge
p156
(dp157
g7
I1
sg8
I00
sg9
I5
sg10
(lp158
g152
a(igraph
Vertex
p159
(dp160
g14
F0.25
sg8
I00
sg15
g16
sg17
F19.333333333333314
sg18
F-242.0
sg19
I4587314
sg20
S'15355.7666354'
p161
sg22
F0.33333333333333331
sbasg26
I00
sg27
I00
sg28
I4587122
sg20
S'15355.7872179'
p162
sba(igraph
Edge
p163
(dp164
g7
I1
sg8
I00
sg9
I5
sg10
(lp165
g159
a(igraph
Vertex
p166
(dp167
g14
F0.375
sg8
I01
sg15
I0
sg17
F19.333333333333314
sg18
F-288.0
sg19
I4587316
sg20
S'15355.7669271'
p168
sg22
F0.33333333333333331
sbasg26
I00
sg27
I00
sg28
I4587123
sg20
S'15355.7876937'
p169
sba(igraph
Edge
p170
(dp171
g7
I1
sg8
I00
sg9
I5
sg10
(lp172
g166
a(igraph
Vertex
p173
(dp174
g14
F0.5
sg8
I00
sg15
g16
sg17
F19.333333333333314
sg18
F-334.0
sg19
I4587318
sg20
S'15355.7671064'
p175
sg22
F0.33333333333333331
sbasg26
I00
sg27
I00
sg28
I4587124
sg20
S'15355.7881904'
p176
sba(igraph
Edge
p177
(dp178
g7
I1
sg8
I00
sg9
I5
sg10
(lp179
g173
a(igraph
Vertex
p180
(dp181
g14
F0.625
sg8
I00
sg15
g16
sg17
F19.333333333333314
sg18
F-380.0
sg19
I4587319
sg20
S'15355.7672908'
p182
sg22
F0.33333333333333331
sbasg26
I00
sg27
I00
sg28
I4587125
sg20
S'15355.7887016'
p183
sba(igraph
Edge
p184
(dp185
g7
I1
sg8
I00
sg9
I5
sg10
(lp186
g180
a(igraph
Vertex
p187
(dp188
g14
F0.75
sg8
I00
sg15
g16
sg17
F19.333333333333314
sg18
F-426.0
sg19
I4587320
sg20
S'15355.767483'
p189
sg22
F0.33333333333333331
sbasg26
I00
sg27
I00
sg28
I4587126
sg20
S'15355.7892335'
p190
sba(igraph
Edge
p191
(dp192
g7
I1
sg8
I00
sg9
I5
sg10
(lp193
g187
a(igraph
Vertex
p194
(dp195
g14
F0.875
sg8
I00
sg15
g16
sg17
F19.333333333333314
sg18
F-472.0
sg19
I4587321
sg20
S'15355.7677705'
p196
sg22
F0.33333333333333331
sbasg26
I00
sg27
I00
sg28
I4587127
sg20
S'15355.7897872'
p197
sba(igraph
Edge
p198
(dp199
g7
I1
sg8
I00
sg9
I5
sg10
(lp200
g194
a(igraph
Vertex
p201
(dp202
g14
F1.0
sg8
I00
sg15
g16
sg17
F19.333333333333314
sg18
F-518.0
sg19
I4587322
sg20
S'15355.7679775'
p203
sg22
F0.33333333333333331
sbasg26
I00
sg27
I00
sg28
I4587128
sg20
S'15355.7903639'
p204
sba(igraph
Edge
p205
(dp206
g7
I1
sg8
I00
sg9
I5
sg10
(lp207
g201
ag149
asg26
I00
sg27
I00
sg28
I4587129
sg20
S'15355.790955'
p208
sba(igraph
Edge
p209
(dp210
g7
I1
sg8
I00
sg9
I5
sg10
(lp211
(igraph
Vertex
p212
(dp213
g14
F0.0
sg8
I00
sg15
g16
sg17
F84.5
sg18
F-150.0
sg19
I4587323
sg20
S'15355.7681912'
p214
sg22
F0.5
sba(igraph
Vertex
p215
(dp216
g14
F0.125
sg8
I00
sg15
g16
sg17
F84.5
sg18
F-196.0
sg19
I4587324
sg20
S'15355.7684404'
p217
sg22
F0.5
sbasg26
I00
sg27
I00
sg28
I4587130
sg20
S'15355.7916372'
p218
sba(igraph
Edge
p219
(dp220
g7
I1
sg8
I00
sg9
I5
sg10
(lp221
g215
a(igraph
Vertex
p222
(dp223
g14
F0.25
sg8
I00
sg15
g16
sg17
F84.5
sg18
F-242.0
sg19
I4587325
sg20
S'15355.7686745'
p224
sg22
F0.5
sbasg26
I00
sg27
I00
sg28
I4587131
sg20
S'15355.7922946'
p225
sba(igraph
Edge
p226
(dp227
g7
I1
sg8
I00
sg9
I5
sg10
(lp228
g222
a(igraph
Vertex
p229
(dp230
g14
F0.375
sg8
I00
sg15
g16
sg17
F84.5
sg18
F-288.0
sg19
I4587326
sg20
S'15355.768915'
p231
sg22
F0.5
sbasg26
I00
sg27
I00
sg28
I4587132
sg20
S'15355.7930145'
p232
sba(igraph
Edge
p233
(dp234
g7
I1
sg8
I00
sg9
I5
sg10
(lp235
g229
a(igraph
Vertex
p236
(dp237
g14
F0.5
sg8
I00
sg15
g16
sg17
F84.5
sg18
F-334.0
sg19
I4587327
sg20
S'15355.7692017'
p238
sg22
F0.5
sbasg26
I00
sg27
I00
sg28
I4587133
sg20
S'15355.7937026'
p239
sba(igraph
Edge
p240
(dp241
g7
I1
sg8
I00
sg9
I5
sg10
(lp242
g236
a(igraph
Vertex
p243
(dp244
g14
F0.625
sg8
I01
sg15
I0
sg17
F84.5
sg18
F-380.0
sg19
I4587329
sg20
S'15355.7694581'
p245
sg22
F0.5
sbasg26
I00
sg27
I00
sg28
I4587134
sg20
S'15355.7944219'
p246
sba(igraph
Edge
p247
(dp248
g7
I1
sg8
I00
sg9
I5
sg10
(lp249
g243
a(igraph
Vertex
p250
(dp251
g14
F0.75
sg8
I00
sg15
g16
sg17
F84.5
sg18
F-426.0
sg19
I4587331
sg20
S'15355.7697788'
p252
sg22
F0.5
sbasg26
I00
sg27
I00
sg28
I4587135
sg20
S'15355.7951432'
p253
sba(igraph
Edge
p254
(dp255
g7
I1
sg8
I00
sg9
I5
sg10
(lp256
g250
a(igraph
Vertex
p257
(dp258
g14
F0.875
sg8
I00
sg15
g16
sg17
F84.5
sg18
F-472.0
sg19
I4587332
sg20
S'15355.7700532'
p259
sg22
F0.5
sbasg26
I00
sg27
I00
sg28
I4587136
sg20
S'15355.7959492'
p260
sba(igraph
Edge
p261
(dp262
g7
I1
sg8
I00
sg9
I5
sg10
(lp263
g257
a(igraph
Vertex
p264
(dp265
g14
F1.0
sg8
I00
sg15
g16
sg17
F84.5
sg18
F-518.0
sg19
I4587333
sg20
S'15355.7703365'
p266
sg22
F0.5
sbasg26
I00
sg27
I00
sg28
I4587137
sg20
S'15355.7967205'
p267
sba(igraph
Edge
p268
(dp269
g7
I1
sg8
I00
sg9
I5
sg10
(lp270
g264
ag212
asg26
I00
sg27
I00
sg28
I4587138
sg20
S'15355.797519'
p271
sba(igraph
Edge
p272
(dp273
g7
I1
sg8
I00
sg9
I5
sg10
(lp274
(igraph
Vertex
p275
(dp276
g14
F0.0
sg8
I00
sg15
g16
sg17
F149.66666666666663
sg18
F-150.0
sg19
I4587334
sg20
S'15355.7706538'
p277
sg22
F0.66666666666666663
sba(igraph
Vertex
p278
(dp279
g14
F0.125
sg8
I00
sg15
g16
sg17
F149.66666666666663
sg18
F-196.0
sg19
I4587335
sg20
S'15355.7709765'
p280
sg22
F0.66666666666666663
sbasg26
I00
sg27
I00
sg28
I4587139
sg20
S'15355.7984417'
p281
sba(igraph
Edge
p282
(dp283
g7
I1
sg8
I00
sg9
I5
sg10
(lp284
g278
a(igraph
Vertex
p285
(dp286
g14
F0.25
sg8
I00
sg15
g16
sg17
F149.66666666666663
sg18
F-242.0
sg19
I4587336
sg20
S'15355.7712846'
p287
sg22
F0.66666666666666663
sbasg26
I00
sg27
I00
sg28
I4587140
sg20
S'15355.7992985'
p288
sba(igraph
Edge
p289
(dp290
g7
I1
sg8
I00
sg9
I5
sg10
(lp291
g285
a(igraph
Vertex
p292
(dp293
g14
F0.375
sg8
I00
sg15
g16
sg17
F149.66666666666663
sg18
F-288.0
sg19
I4587337
sg20
S'15355.7715981'
p294
sg22
F0.66666666666666663
sbasg26
I00
sg27
I00
sg28
I4587141
sg20
S'15355.8001509'
p295
sba(igraph
Edge
p296
(dp297
g7
I1
sg8
I00
sg9
I5
sg10
(lp298
g292
a(igraph
Vertex
p299
(dp300
g14
F0.5
sg8
I00
sg15
g16
sg17
F149.66666666666663
sg18
F-334.0
sg19
I4587338
sg20
S'15355.77193'
p301
sg22
F0.66666666666666663
sbasg26
I00
sg27
I00
sg28
I4587142
sg20
S'15355.8010214'
p302
sba(igraph
Edge
p303
(dp304
g7
I1
sg8
I00
sg9
I5
sg10
(lp305
g299
a(igraph
Vertex
p306
(dp307
g14
F0.625
sg8
I00
sg15
g16
sg17
F149.66666666666663
sg18
F-380.0
sg19
I4587339
sg20
S'15355.7722638'
p308
sg22
F0.66666666666666663
sbasg26
I00
sg27
I00
sg28
I4587143
sg20
S'15355.801948'
p309
sba(igraph
Edge
p310
(dp311
g7
I1
sg8
I00
sg9
I5
sg10
(lp312
g306
a(igraph
Vertex
p313
(dp314
g14
F0.75
sg8
I00
sg15
g16
sg17
F149.66666666666663
sg18
F-426.0
sg19
I4587340
sg20
S'15355.7726018'
p315
sg22
F0.66666666666666663
sbasg26
I00
sg27
I00
sg28
I4587144
sg20
S'15355.8029113'
p316
sba(igraph
Edge
p317
(dp318
g7
I1
sg8
I00
sg9
I5
sg10
(lp319
g313
a(igraph
Vertex
p320
(dp321
g14
F0.875
sg8
I01
sg15
I0
sg17
F149.66666666666663
sg18
F-472.0
sg19
I4587342
sg20
S'15355.7729538'
p322
sg22
F0.66666666666666663
sbasg26
I00
sg27
I00
sg28
I4587145
sg20
S'15355.8038731'
p323
sba(igraph
Edge
p324
(dp325
g7
I1
sg8
I00
sg9
I5
sg10
(lp326
g320
a(igraph
Vertex
p327
(dp328
g14
F1.0
sg8
I00
sg15
g16
sg17
F149.66666666666663
sg18
F-518.0
sg19
I4587344
sg20
S'15355.77331'
p329
sg22
F0.66666666666666663
sbasg26
I00
sg27
I00
sg28
I4587146
sg20
S'15355.8052049'
p330
sba(igraph
Edge
p331
(dp332
g7
I1
sg8
I00
sg9
I5
sg10
(lp333
g327
ag275
asg26
I00
sg27
I00
sg28
I4587147
sg20
S'15355.8062053'
p334
sba(igraph
Edge
p335
(dp336
g7
I1
sg8
I00
sg9
I5
sg10
(lp337
(igraph
Vertex
p338
(dp339
g14
F0.0
sg8
I00
sg15
g16
sg17
F214.83333333333337
sg18
F-150.0
sg19
I4587345
sg20
S'15355.7736844'
p340
sg22
F0.83333333333333337
sba(igraph
Vertex
p341
(dp342
g14
F0.125
sg8
I00
sg15
g16
sg17
F214.83333333333337
sg18
F-196.0
sg19
I4587346
sg20
S'15355.7741193'
p343
sg22
F0.83333333333333337
sbasg26
I00
sg27
I00
sg28
I4587148
sg20
S'15355.8072386'
p344
sba(igraph
Edge
p345
(dp346
g7
I1
sg8
I00
sg9
I5
sg10
(lp347
g341
a(igraph
Vertex
p348
(dp349
g14
F0.25
sg8
I00
sg15
g16
sg17
F214.83333333333337
sg18
F-242.0
sg19
I4587347
sg20
S'15355.7745501'
p350
sg22
F0.83333333333333337
sbasg26
I00
sg27
I00
sg28
I4587149
sg20
S'15355.8082756'
p351
sba(igraph
Edge
p352
(dp353
g7
I1
sg8
I00
sg9
I5
sg10
(lp354
g348
a(igraph
Vertex
p355
(dp356
g14
F0.375
sg8
I00
sg15
g16
sg17
F214.83333333333337
sg18
F-288.0
sg19
I4587348
sg20
S'15355.7749558'
p357
sg22
F0.83333333333333337
sbasg26
I00
sg27
I00
sg28
I4587150
sg20
S'15355.8093347'
p358
sba(igraph
Edge
p359
(dp360
g7
I1
sg8
I00
sg9
I5
sg10
(lp361
g355
a(igraph
Vertex
p362
(dp363
g14
F0.5
sg8
I00
sg15
g16
sg17
F214.83333333333337
sg18
F-334.0
sg19
I4587349
sg20
S'15355.7753628'
p364
sg22
F0.83333333333333337
sbasg26
I00
sg27
I00
sg28
I4587151
sg20
S'15355.8104156'
p365
sba(igraph
Edge
p366
(dp367
g7
I1
sg8
I00
sg9
I5
sg10
(lp368
g362
a(igraph
Vertex
p369
(dp370
g14
F0.625
sg8
I00
sg15
g16
sg17
F214.83333333333337
sg18
F-380.0
sg19
I4587350
sg20
S'15355.7757785'
p371
sg22
F0.83333333333333337
sbasg26
I00
sg27
I00
sg28
I4587152
sg20
S'15355.8115219'
p372
sba(igraph
Edge
p373
(dp374
g7
I1
sg8
I00
sg9
I5
sg10
(lp375
g369
a(igraph
Vertex
p376
(dp377
g14
F0.75
sg8
I01
sg15
I0
sg17
F214.83333333333337
sg18
F-426.0
sg19
I4587352
sg20
S'15355.7762582'
p378
sg22
F0.83333333333333337
sbasg26
I00
sg27
I00
sg28
I4587153
sg20
S'15355.812636'
p379
sba(igraph
Edge
p380
(dp381
g7
I1
sg8
I00
sg9
I5
sg10
(lp382
g376
a(igraph
Vertex
p383
(dp384
g14
F0.875
sg8
I00
sg15
g16
sg17
F214.83333333333337
sg18
F-472.0
sg19
I4587354
sg20
S'15355.776723'
p385
sg22
F0.83333333333333337
sbasg26
I00
sg27
I00
sg28
I4587154
sg20
S'15355.8138107'
p386
sba(igraph
Edge
p387
(dp388
g7
I1
sg8
I00
sg9
I5
sg10
(lp389
g383
a(igraph
Vertex
p390
(dp391
g14
F1.0
sg8
I00
sg15
g16
sg17
F214.83333333333337
sg18
F-518.0
sg19
I4587355
sg20
S'15355.7772513'
p392
sg22
F0.83333333333333337
sbasg26
I00
sg27
I00
sg28
I4587155
sg20
S'15355.815'
p393
sba(igraph
Edge
p394
(dp395
g7
I1
sg8
I00
sg9
I5
sg10
(lp396
g390
ag338
asg26
I00
sg27
I00
sg28
I4587156
sg20
S'15355.816161'
p397
sba(igraph
Edge
p398
(dp399
g7
I1
sg8
I00
sg9
I5
sg10
(lp400
(igraph
Vertex
p401
(dp402
g14
F0.0
sg8
I01
sg15
I0
sg17
F280.0
sg18
F-150.0
sg19
I4587357
sg20
S'15355.7776941'
p403
sg22
F1.0
sba(igraph
Vertex
p404
(dp405
g14
F0.125
sg8
I00
sg15
g16
sg17
F280.0
sg18
F-196.0
sg19
I4587359
sg20
S'15355.7781696'
p406
sg22
F1.0
sbasg26
I00
sg27
I00
sg28
I4587157
sg20
S'15355.8173483'
p407
sba(igraph
Edge
p408
(dp409
g7
I1
sg8
I00
sg9
I5
sg10
(lp410
g404
a(igraph
Vertex
p411
(dp412
g14
F0.25
sg8
I00
sg15
g16
sg17
F280.0
sg18
F-242.0
sg19
I4587360
sg20
S'15355.7786668'
p413
sg22
F1.0
sbasg26
I00
sg27
I00
sg28
I4587158
sg20
S'15355.8185783'
p414
sba(igraph
Edge
p415
(dp416
g7
I1
sg8
I00
sg9
I5
sg10
(lp417
g411
a(igraph
Vertex
p418
(dp419
g14
F0.375
sg8
I00
sg15
g16
sg17
F280.0
sg18
F-288.0
sg19
I4587361
sg20
S'15355.7791325'
p420
sg22
F1.0
sbasg26
I00
sg27
I00
sg28
I4587159
sg20
S'15355.8202696'
p421
sba(igraph
Edge
p422
(dp423
g7
I1
sg8
I00
sg9
I5
sg10
(lp424
g418
a(igraph
Vertex
p425
(dp426
g14
F0.5
sg8
I00
sg15
g16
sg17
F280.0
sg18
F-334.0
sg19
I4587362
sg20
S'15355.7796686'
p427
sg22
F1.0
sbasg26
I00
sg27
I00
sg28
I4587160
sg20
S'15355.8215368'
p428
sba(igraph
Edge
p429
(dp430
g7
I1
sg8
I00
sg9
I5
sg10
(lp431
g425
a(igraph
Vertex
p432
(dp433
g14
F0.625
sg8
I00
sg15
g16
sg17
F280.0
sg18
F-380.0
sg19
I4587363
sg20
S'15355.7802078'
p434
sg22
F1.0
sbasg26
I00
sg27
I00
sg28
I4587161
sg20
S'15355.8228225'
p435
sba(igraph
Edge
p436
(dp437
g7
I1
sg8
I00
sg9
I5
sg10
(lp438
g432
a(igraph
Vertex
p439
(dp440
g14
F0.75
sg8
I00
sg15
g16
sg17
F280.0
sg18
F-426.0
sg19
I4587364
sg20
S'15355.780702'
p441
sg22
F1.0
sbasg26
I00
sg27
I00
sg28
I4587162
sg20
S'15355.8241296'
p442
sba(igraph
Edge
p443
(dp444
g7
I1
sg8
I00
sg9
I5
sg10
(lp445
g439
a(igraph
Vertex
p446
(dp447
g14
F0.875
sg8
I00
sg15
g16
sg17
F280.0
sg18
F-472.0
sg19
I4587365
sg20
S'15355.7812001'
p448
sg22
F1.0
sbasg26
I00
sg27
I00
sg28
I4587163
sg20
S'15355.8254787'
p449
sba(igraph
Edge
p450
(dp451
g7
I1
sg8
I00
sg9
I5
sg10
(lp452
g446
a(igraph
Vertex
p453
(dp454
g14
F1.0
sg8
I01
sg15
I0
sg17
F280.0
sg18
F-518.0
sg19
I4587367
sg20
S'15355.781727'
p455
sg22
F1.0
sbasg26
I00
sg27
I00
sg28
I4587164
sg20
S'15355.8268327'
p456
sba(igraph
Edge
p457
(dp458
g7
I1
sg8
I00
sg9
I5
sg10
(lp459
g453
ag401
asg26
I00
sg27
I00
sg28
I4587165
sg20
S'15355.828181'
p460
sba(igraph
Edge
p461
(dp462
g7
I1
sg8
I00
sg9
I5
sg10
(lp463
g12
ag86
asg26
I00
sg27
I00
sg28
I4587166
sg20
S'15355.8295552'
p464
sba(igraph
Edge
p465
(dp466
g7
I1
sg8
I00
sg9
I5
sg10
(lp467
g23
ag96
asg26
I00
sg27
I00
sg28
I4587167
sg20
S'15355.8309975'
p468
sba(igraph
Edge
p469
(dp470
g7
I1
sg8
I00
sg9
I5
sg10
(lp471
g33
ag96
asg26
I00
sg27
I00
sg28
I4587168
sg20
S'15355.8324295'
p472
sba(igraph
Edge
p473
(dp474
g7
I1
sg8
I00
sg9
I5
sg10
(lp475
g40
ag110
asg26
I00
sg27
I00
sg28
I4587169
sg20
S'15355.8338663'
p476
sba(igraph
Edge
p477
(dp478
g7
I1
sg8
I00
sg9
I5
sg10
(lp479
g47
ag110
asg26
I00
sg27
I00
sg28
I4587170
sg20
S'15355.835421'
p480
sba(igraph
Edge
p481
(dp482
g7
I1
sg8
I00
sg9
I5
sg10
(lp483
g54
ag124
asg26
I00
sg27
I00
sg28
I4587171
sg20
S'15355.8370771'
p484
sba(igraph
Edge
p485
(dp486
g7
I1
sg8
I00
sg9
I5
sg10
(lp487
g61
ag124
asg26
I00
sg27
I00
sg28
I4587172
sg20
S'15355.8386116'
p488
sba(igraph
Edge
p489
(dp490
g7
I1
sg8
I00
sg9
I5
sg10
(lp491
g68
ag138
asg26
I00
sg27
I00
sg28
I4587173
sg20
S'15355.8401766'
p492
sba(igraph
Edge
p493
(dp494
g7
I1
sg8
I00
sg9
I5
sg10
(lp495
g75
ag138
asg26
I00
sg27
I00
sg28
I4587174
sg20
S'15355.8417782'
p496
sba(igraph
Edge
p497
(dp498
g7
I1
sg8
I00
sg9
I5
sg10
(lp499
g12
ag89
asg26
I00
sg27
I00
sg28
I4587175
sg20
S'15355.8434664'
p500
sba(igraph
Edge
p501
(dp502
g7
I1
sg8
I00
sg9
I5
sg10
(lp503
g23
ag89
asg26
I00
sg27
I00
sg28
I4587176
sg20
S'15355.8450663'
p504
sba(igraph
Edge
p505
(dp506
g7
I1
sg8
I00
sg9
I5
sg10
(lp507
g33
ag103
asg26
I00
sg27
I00
sg28
I4587177
sg20
S'15355.8466802'
p508
sba(igraph
Edge
p509
(dp510
g7
I1
sg8
I00
sg9
I5
sg10
(lp511
g40
ag103
asg26
I00
sg27
I00
sg28
I4587178
sg20
S'15355.8483461'
p512
sba(igraph
Edge
p513
(dp514
g7
I1
sg8
I00
sg9
I5
sg10
(lp515
g47
ag117
asg26
I00
sg27
I00
sg28
I4587179
sg20
S'15355.8500329'
p516
sba(igraph
Edge
p517
(dp518
g7
I1
sg8
I00
sg9
I5
sg10
(lp519
g54
ag117
asg26
I00
sg27
I00
sg28
I4587180
sg20
S'15355.8517792'
p520
sba(igraph
Edge
p521
(dp522
g7
I1
sg8
I00
sg9
I5
sg10
(lp523
g61
ag131
asg26
I00
sg27
I00
sg28
I4587181
sg20
S'15355.8534747'
p524
sba(igraph
Edge
p525
(dp526
g7
I1
sg8
I00
sg9
I5
sg10
(lp527
g68
ag131
asg26
I00
sg27
I00
sg28
I4587182
sg20
S'15355.8552447'
p528
sba(igraph
Edge
p529
(dp530
g7
I1
sg8
I00
sg9
I5
sg10
(lp531
g75
ag86
asg26
I00
sg27
I00
sg28
I4587183
sg20
S'15355.8569841'
p532
sba(igraph
Edge
p533
(dp534
g7
I1
sg8
I00
sg9
I5
sg10
(lp535
g12
ag401
asg26
I00
sg27
I00
sg28
I4587184
sg20
S'15355.858739'
p536
sba(igraph
Edge
p537
(dp538
g7
I1
sg8
I00
sg9
I5
sg10
(lp539
g23
ag401
asg26
I00
sg27
I00
sg28
I4587185
sg20
S'15355.860539'
p540
sba(igraph
Edge
p541
(dp542
g7
I1
sg8
I00
sg9
I5
sg10
(lp543
g33
ag411
asg26
I00
sg27
I00
sg28
I4587186
sg20
S'15355.8623347'
p544
sba(igraph
Edge
p545
(dp546
g7
I1
sg8
I00
sg9
I5
sg10
(lp547
g40
ag411
asg26
I00
sg27
I00
sg28
I4587187
sg20
S'15355.8642084'
p548
sba(igraph
Edge
p549
(dp550
g7
I1
sg8
I00
sg9
I5
sg10
(lp551
g47
ag425
asg26
I00
sg27
I00
sg28
I4587188
sg20
S'15355.8661626'
p552
sba(igraph
Edge
p553
(dp554
g7
I1
sg8
I00
sg9
I5
sg10
(lp555
g54
ag425
asg26
I00
sg27
I00
sg28
I4587189
sg20
S'15355.8681458'
p556
sba(igraph
Edge
p557
(dp558
g7
I1
sg8
I00
sg9
I5
sg10
(lp559
g61
ag439
asg26
I00
sg27
I00
sg28
I4587190
sg20
S'15355.8700419'
p560
sba(igraph
Edge
p561
(dp562
g7
I1
sg8
I00
sg9
I5
sg10
(lp563
g68
ag439
asg26
I00
sg27
I00
sg28
I4587191
sg20
S'15355.8719916'
p564
sba(igraph
Edge
p565
(dp566
g7
I1
sg8
I00
sg9
I5
sg10
(lp567
g75
ag453
asg26
I00
sg27
I00
sg28
I4587192
sg20
S'15355.8739767'
p568
sba(igraph
Edge
p569
(dp570
g7
I1
sg8
I00
sg9
I5
sg10
(lp571
g12
ag453
asg26
I00
sg27
I00
sg28
I4587193
sg20
S'15355.8759437'
p572
sba(igraph
Edge
p573
(dp574
g7
I1
sg8
I00
sg9
I5
sg10
(lp575
g23
ag404
asg26
I00
sg27
I00
sg28
I4587194
sg20
S'15355.8779378'
p576
sba(igraph
Edge
p577
(dp578
g7
I1
sg8
I00
sg9
I5
sg10
(lp579
g33
ag404
asg26
I00
sg27
I00
sg28
I4587195
sg20
S'15355.8799685'
p580
sba(igraph
Edge
p581
(dp582
g7
I1
sg8
I00
sg9
I5
sg10
(lp583
g40
ag418
asg26
I00
sg27
I00
sg28
I4587196
sg20
S'15355.8820498'
p584
sba(igraph
Edge
p585
(dp586
g7
I1
sg8
I00
sg9
I5
sg10
(lp587
g47
ag418
asg26
I00
sg27
I00
sg28
I4587197
sg20
S'15355.8841439'
p588
sba(igraph
Edge
p589
(dp590
g7
I1
sg8
I00
sg9
I5
sg10
(lp591
g54
ag432
asg26
I00
sg27
I00
sg28
I4587198
sg20
S'15355.8861928'
p592
sba(igraph
Edge
p593
(dp594
g7
I1
sg8
I00
sg9
I5
sg10
(lp595
g61
ag432
asg26
I00
sg27
I00
sg28
I4587199
sg20
S'15355.8883073'
p596
sba(igraph
Edge
p597
(dp598
g7
I1
sg8
I00
sg9
I5
sg10
(lp599
g68
ag446
asg26
I00
sg27
I00
sg28
I4587200
sg20
S'15355.890435'
p600
sba(igraph
Edge
p601
(dp602
g7
I1
sg8
I00
sg9
I5
sg10
(lp603
g75
ag446
asg26
I00
sg27
I00
sg28
I4587201
sg20
S'15355.8926031'
p604
sba(igraph
Edge
p605
(dp606
g7
I1
sg8
I00
sg9
I5
sg10
(lp607
g86
ag149
asg26
I00
sg27
I00
sg28
I4587202
sg20
S'15355.8947696'
p608
sba(igraph
Edge
p609
(dp610
g7
I1
sg8
I00
sg9
I5
sg10
(lp611
g89
ag159
asg26
I00
sg27
I00
sg28
I4587203
sg20
S'15355.8970959'
p612
sba(igraph
Edge
p613
(dp614
g7
I1
sg8
I00
sg9
I5
sg10
(lp615
g96
ag159
asg26
I00
sg27
I00
sg28
I4587204
sg20
S'15355.8993084'
p616
sba(igraph
Edge
p617
(dp618
g7
I1
sg8
I00
sg9
I5
sg10
(lp619
g103
ag173
asg26
I00
sg27
I00
sg28
I4587205
sg20
S'15355.9015207'
p620
sba(igraph
Edge
p621
(dp622
g7
I1
sg8
I00
sg9
I5
sg10
(lp623
g110
ag173
asg26
I00
sg27
I00
sg28
I4587206
sg20
S'15355.9037623'
p624
sba(igraph
Edge
p625
(dp626
g7
I1
sg8
I00
sg9
I5
sg10
(lp627
g117
ag187
asg26
I00
sg27
I00
sg28
I4587207
sg20
S'15355.9060517'
p628
sba(igraph
Edge
p629
(dp630
g7
I1
sg8
I00
sg9
I5
sg10
(lp631
g124
ag187
asg26
I00
sg27
I00
sg28
I4587208
sg20
S'15355.9083448'
p632
sba(igraph
Edge
p633
(dp634
g7
I1
sg8
I00
sg9
I5
sg10
(lp635
g131
ag201
asg26
I00
sg27
I00
sg28
I4587209
sg20
S'15355.9106616'
p636
sba(igraph
Edge
p637
(dp638
g7
I1
sg8
I00
sg9
I5
sg10
(lp639
g138
ag201
asg26
I00
sg27
I00
sg28
I4587210
sg20
S'15355.9129789'
p640
sba(igraph
Edge
p641
(dp642
g7
I1
sg8
I00
sg9
I5
sg10
(lp643
g86
ag152
asg26
I00
sg27
I00
sg28
I4587211
sg20
S'15355.9153216'
p644
sba(igraph
Edge
p645
(dp646
g7
I1
sg8
I00
sg9
I5
sg10
(lp647
g89
ag152
asg26
I00
sg27
I00
sg28
I4587212
sg20
S'15355.9177217'
p648
sba(igraph
Edge
p649
(dp650
g7
I1
sg8
I00
sg9
I5
sg10
(lp651
g96
ag166
asg26
I00
sg27
I00
sg28
I4587213
sg20
S'15355.9203284'
p652
sba(igraph
Edge
p653
(dp654
g7
I1
sg8
I00
sg9
I5
sg10
(lp655
g103
ag166
asg26
I00
sg27
I00
sg28
I4587214
sg20
S'15355.9227187'
p656
sba(igraph
Edge
p657
(dp658
g7
I1
sg8
I00
sg9
I5
sg10
(lp659
g110
ag180
asg26
I00
sg27
I00
sg28
I4587215
sg20
S'15355.9252472'
p660
sba(igraph
Edge
p661
(dp662
g7
I1
sg8
I00
sg9
I5
sg10
(lp663
g117
ag180
asg26
I00
sg27
I00
sg28
I4587216
sg20
S'15355.9278084'
p664
sba(igraph
Edge
p665
(dp666
g7
I1
sg8
I00
sg9
I5
sg10
(lp667
g124
ag194
asg26
I00
sg27
I00
sg28
I4587217
sg20
S'15355.9302604'
p668
sba(igraph
Edge
p669
(dp670
g7
I1
sg8
I00
sg9
I5
sg10
(lp671
g131
ag194
asg26
I00
sg27
I00
sg28
I4587218
sg20
S'15355.9328817'
p672
sba(igraph
Edge
p673
(dp674
g7
I1
sg8
I00
sg9
I5
sg10
(lp675
g138
ag149
asg26
I00
sg27
I00
sg28
I4587219
sg20
S'15355.9354896'
p676
sba(igraph
Edge
p677
(dp678
g7
I1
sg8
I00
sg9
I5
sg10
(lp679
g149
ag212
asg26
I00
sg27
I00
sg28
I4587220
sg20
S'15355.9380335'
p680
sba(igraph
Edge
p681
(dp682
g7
I1
sg8
I00
sg9
I5
sg10
(lp683
g152
ag222
asg26
I00
sg27
I00
sg28
I4587221
sg20
S'15355.9406059'
p684
sba(igraph
Edge
p685
(dp686
g7
I1
sg8
I00
sg9
I5
sg10
(lp687
g159
ag222
asg26
I00
sg27
I00
sg28
I4587222
sg20
S'15355.9435202'
p688
sba(igraph
Edge
p689
(dp690
g7
I1
sg8
I00
sg9
I5
sg10
(lp691
g166
ag236
asg26
I00
sg27
I00
sg28
I4587223
sg20
S'15355.9462119'
p692
sba(igraph
Edge
p693
(dp694
g7
I1
sg8
I00
sg9
I5
sg10
(lp695
g173
ag236
asg26
I00
sg27
I00
sg28
I4587224
sg20
S'15355.9489147'
p696
sba(igraph
Edge
p697
(dp698
g7
I1
sg8
I00
sg9
I5
sg10
(lp699
g180
ag250
asg26
I00
sg27
I00
sg28
I4587225
sg20
S'15355.9516335'
p700
sba(igraph
Edge
p701
(dp702
g7
I1
sg8
I00
sg9
I5
sg10
(lp703
g187
ag250
asg26
I00
sg27
I00
sg28
I4587226
sg20
S'15355.9543294'
p704
sba(igraph
Edge
p705
(dp706
g7
I1
sg8
I00
sg9
I5
sg10
(lp707
g194
ag264
asg26
I00
sg27
I00
sg28
I4587227
sg20
S'15355.9570429'
p708
sba(igraph
Edge
p709
(dp710
g7
I1
sg8
I00
sg9
I5
sg10
(lp711
g201
ag264
asg26
I00
sg27
I00
sg28
I4587228
sg20
S'15355.9599103'
p712
sba(igraph
Edge
p713
(dp714
g7
I1
sg8
I00
sg9
I5
sg10
(lp715
g149
ag215
asg26
I00
sg27
I00
sg28
I4587229
sg20
S'15355.9626874'
p716
sba(igraph
Edge
p717
(dp718
g7
I1
sg8
I00
sg9
I5
sg10
(lp719
g152
ag215
asg26
I00
sg27
I00
sg28
I4587230
sg20
S'15355.9654998'
p720
sba(igraph
Edge
p721
(dp722
g7
I1
sg8
I00
sg9
I5
sg10
(lp723
g159
ag229
asg26
I00
sg27
I00
sg28
I4587231
sg20
S'15355.968289'
p724
sba(igraph
Edge
p725
(dp726
g7
I1
sg8
I00
sg9
I5
sg10
(lp727
g166
ag229
asg26
I00
sg27
I00
sg28
I4587232
sg20
S'15355.9711285'
p728
sba(igraph
Edge
p729
(dp730
g7
I1
sg8
I00
sg9
I5
sg10
(lp731
g173
ag243
asg26
I00
sg27
I00
sg28
I4587233
sg20
S'15355.9739886'
p732
sba(igraph
Edge
p733
(dp734
g7
I1
sg8
I00
sg9
I5
sg10
(lp735
g180
ag243
asg26
I00
sg27
I00
sg28
I4587234
sg20
S'15355.9769242'
p736
sba(igraph
Edge
p737
(dp738
g7
I1
sg8
I00
sg9
I5
sg10
(lp739
g187
ag257
asg26
I00
sg27
I00
sg28
I4587235
sg20
S'15355.9798843'
p740
sba(igraph
Edge
p741
(dp742
g7
I1
sg8
I00
sg9
I5
sg10
(lp743
g194
ag257
asg26
I00
sg27
I00
sg28
I4587236
sg20
S'15355.9828674'
p744
sba(igraph
Edge
p745
(dp746
g7
I1
sg8
I00
sg9
I5
sg10
(lp747
g201
ag212
asg26
I00
sg27
I00
sg28
I4587237
sg20
S'15355.9857784'
p748
sba(igraph
Edge
p749
(dp750
g7
I1
sg8
I00
sg9
I5
sg10
(lp751
g212
ag275
asg26
I00
sg27
I00
sg28
I4587238
sg20
S'15355.9887614'
p752
sba(igraph
Edge
p753
(dp754
g7
I1
sg8
I00
sg9
I5
sg10
(lp755
g215
ag285
asg26
I00
sg27
I00
sg28
I4587239
sg20
S'15355.9918456'
p756
sba(igraph
Edge
p757
(dp758
g7
I1
sg8
I00
sg9
I5
sg10
(lp759
g222
ag285
asg26
I00
sg27
I00
sg28
I4587240
sg20
S'15355.9947996'
p760
sba(igraph
Edge
p761
(dp762
g7
I1
sg8
I00
sg9
I5
sg10
(lp763
g229
ag299
asg26
I00
sg27
I00
sg28
I4587241
sg20
S'15355.9977539'
p764
sba(igraph
Edge
p765
(dp766
g7
I1
sg8
I00
sg9
I5
sg10
(lp767
g236
ag299
asg26
I00
sg27
I00
sg28
I4587242
sg20
S'15356.0008085'
p768
sba(igraph
Edge
p769
(dp770
g7
I1
sg8
I00
sg9
I5
sg10
(lp771
g243
ag313
asg26
I00
sg27
I00
sg28
I4587243
sg20
S'15356.0038653'
p772
sba(igraph
Edge
p773
(dp774
g7
I1
sg8
I00
sg9
I5
sg10
(lp775
g250
ag313
asg26
I00
sg27
I00
sg28
I4587244
sg20
S'15356.0069548'
p776
sba(igraph
Edge
p777
(dp778
g7
I1
sg8
I00
sg9
I5
sg10
(lp779
g257
ag327
asg26
I00
sg27
I00
sg28
I4587245
sg20
S'15356.0100359'
p780
sba(igraph
Edge
p781
(dp782
g7
I1
sg8
I00
sg9
I5
sg10
(lp783
g264
ag327
asg26
I00
sg27
I00
sg28
I4587246
sg20
S'15356.0132838'
p784
sba(igraph
Edge
p785
(dp786
g7
I1
sg8
I00
sg9
I5
sg10
(lp787
g212
ag278
asg26
I00
sg27
I00
sg28
I4587247
sg20
S'15356.016408'
p788
sba(igraph
Edge
p789
(dp790
g7
I1
sg8
I00
sg9
I5
sg10
(lp791
g215
ag278
asg26
I00
sg27
I00
sg28
I4587248
sg20
S'15356.0195268'
p792
sba(igraph
Edge
p793
(dp794
g7
I1
sg8
I00
sg9
I5
sg10
(lp795
g222
ag292
asg26
I00
sg27
I00
sg28
I4587249
sg20
S'15356.0233594'
p796
sba(igraph
Edge
p797
(dp798
g7
I1
sg8
I00
sg9
I5
sg10
(lp799
g229
ag292
asg26
I00
sg27
I00
sg28
I4587250
sg20
S'15356.0268445'
p800
sba(igraph
Edge
p801
(dp802
g7
I1
sg8
I00
sg9
I5
sg10
(lp803
g236
ag306
asg26
I00
sg27
I00
sg28
I4587251
sg20
S'15356.0309905'
p804
sba(igraph
Edge
p805
(dp806
g7
I1
sg8
I00
sg9
I5
sg10
(lp807
g243
ag306
asg26
I00
sg27
I00
sg28
I4587252
sg20
S'15356.0345485'
p808
sba(igraph
Edge
p809
(dp810
g7
I1
sg8
I00
sg9
I5
sg10
(lp811
g250
ag320
asg26
I00
sg27
I00
sg28
I4587253
sg20
S'15356.039828'
p812
sba(igraph
Edge
p813
(dp814
g7
I1
sg8
I00
sg9
I5
sg10
(lp815
g257
ag320
asg26
I00
sg27
I00
sg28
I4587254
sg20
S'15356.0435226'
p816
sba(igraph
Edge
p817
(dp818
g7
I1
sg8
I00
sg9
I5
sg10
(lp819
g264
ag275
asg26
I00
sg27
I00
sg28
I4587255
sg20
S'15356.0472641'
p820
sba(igraph
Edge
p821
(dp822
g7
I1
sg8
I00
sg9
I5
sg10
(lp823
g275
ag338
asg26
I00
sg27
I00
sg28
I4587256
sg20
S'15356.0507933'
p824
sba(igraph
Edge
p825
(dp826
g7
I1
sg8
I00
sg9
I5
sg10
(lp827
g278
ag348
asg26
I00
sg27
I00
sg28
I4587257
sg20
S'15356.0545365'
p828
sba(igraph
Edge
p829
(dp830
g7
I1
sg8
I00
sg9
I5
sg10
(lp831
g285
ag348
asg26
I00
sg27
I00
sg28
I4587258
sg20
S'15356.0585197'
p832
sba(igraph
Edge
p833
(dp834
g7
I1
sg8
I00
sg9
I5
sg10
(lp835
g292
ag362
asg26
I00
sg27
I00
sg28
I4587259
sg20
S'15356.0621763'
p836
sba(igraph
Edge
p837
(dp838
g7
I1
sg8
I00
sg9
I5
sg10
(lp839
g299
ag362
asg26
I00
sg27
I00
sg28
I4587260
sg20
S'15356.0661735'
p840
sba(igraph
Edge
p841
(dp842
g7
I1
sg8
I00
sg9
I5
sg10
(lp843
g306
ag376
asg26
I00
sg27
I00
sg28
I4587261
sg20
S'15356.0703777'
p844
sba(igraph
Edge
p845
(dp846
g7
I1
sg8
I00
sg9
I5
sg10
(lp847
g313
ag376
asg26
I00
sg27
I00
sg28
I4587262
sg20
S'15356.0790215'
p848
sba(igraph
Edge
p849
(dp850
g7
I1
sg8
I00
sg9
I5
sg10
(lp851
g320
ag390
asg26
I00
sg27
I00
sg28
I4587263
sg20
S'15356.0831866'
p852
sba(igraph
Edge
p853
(dp854
g7
I1
sg8
I00
sg9
I5
sg10
(lp855
g327
ag390
asg26
I00
sg27
I00
sg28
I4587264
sg20
S'15356.088416'
p856
sba(igraph
Edge
p857
(dp858
g7
I1
sg8
I00
sg9
I5
sg10
(lp859
g275
ag341
asg26
I00
sg27
I00
sg28
I4587265
sg20
S'15356.0927428'
p860
sba(igraph
Edge
p861
(dp862
g7
I1
sg8
I00
sg9
I5
sg10
(lp863
g278
ag341
asg26
I00
sg27
I00
sg28
I4587266
sg20
S'15356.0974364'
p864
sba(igraph
Edge
p865
(dp866
g7
I1
sg8
I00
sg9
I5
sg10
(lp867
g285
ag355
asg26
I00
sg27
I00
sg28
I4587267
sg20
S'15356.103764'
p868
sba(igraph
Edge
p869
(dp870
g7
I1
sg8
I00
sg9
I5
sg10
(lp871
g292
ag355
asg26
I00
sg27
I00
sg28
I4587268
sg20
S'15356.1083674'
p872
sba(igraph
Edge
p873
(dp874
g7
I1
sg8
I00
sg9
I5
sg10
(lp875
g299
ag369
asg26
I00
sg27
I00
sg28
I4587269
sg20
S'15356.112759'
p876
sba(igraph
Edge
p877
(dp878
g7
I1
sg8
I00
sg9
I5
sg10
(lp879
g306
ag369
asg26
I00
sg27
I00
sg28
I4587270
sg20
S'15356.1170889'
p880
sba(igraph
Edge
p881
(dp882
g7
I1
sg8
I00
sg9
I5
sg10
(lp883
g313
ag383
asg26
I00
sg27
I00
sg28
I4587271
sg20
S'15356.1216101'
p884
sba(igraph
Edge
p885
(dp886
g7
I1
sg8
I00
sg9
I5
sg10
(lp887
g320
ag383
asg26
I00
sg27
I00
sg28
I4587272
sg20
S'15356.1258207'
p888
sba(igraph
Edge
p889
(dp890
g7
I1
sg8
I00
sg9
I5
sg10
(lp891
g327
ag338
asg26
I00
sg27
I00
sg28
I4587273
sg20
S'15356.1296659'
p892
sba(igraph
Edge
p893
(dp894
g7
I1
sg8
I00
sg9
I5
sg10
(lp895
g338
ag401
asg26
I00
sg27
I00
sg28
I4587274
sg20
S'15356.1335538'
p896
sba(igraph
Edge
p897
(dp898
g7
I1
sg8
I00
sg9
I5
sg10
(lp899
g341
ag411
asg26
I00
sg27
I00
sg28
I4587275
sg20
S'15356.1373535'
p900
sba(igraph
Edge
p901
(dp902
g7
I1
sg8
I00
sg9
I5
sg10
(lp903
g348
ag411
asg26
I00
sg27
I00
sg28
I4587276
sg20
S'15356.1411389'
p904
sba(igraph
Edge
p905
(dp906
g7
I1
sg8
I00
sg9
I5
sg10
(lp907
g355
ag425
asg26
I00
sg27
I00
sg28
I4587277
sg20
S'15356.1450226'
p908
sba(igraph
Edge
p909
(dp910
g7
I1
sg8
I00
sg9
I5
sg10
(lp911
g362
ag425
asg26
I00
sg27
I00
sg28
I4587278
sg20
S'15356.1487901'
p912
sba(igraph
Edge
p913
(dp914
g7
I1
sg8
I00
sg9
I5
sg10
(lp915
g369
ag439
asg26
I00
sg27
I00
sg28
I4587279
sg20
S'15356.1526158'
p916
sba(igraph
Edge
p917
(dp918
g7
I1
sg8
I00
sg9
I5
sg10
(lp919
g376
ag439
asg26
I00
sg27
I00
sg28
I4587280
sg20
S'15356.1564316'
p920
sba(igraph
Edge
p921
(dp922
g7
I1
sg8
I00
sg9
I5
sg10
(lp923
g383
ag453
asg26
I00
sg27
I00
sg28
I4587281
sg20
S'15356.16031'
p924
sba(igraph
Edge
p925
(dp926
g7
I1
sg8
I00
sg9
I5
sg10
(lp927
g390
ag453
asg26
I00
sg27
I00
sg28
I4587282
sg20
S'15356.164213'
p928
sba(igraph
Edge
p929
(dp930
g7
I1
sg8
I00
sg9
I5
sg10
(lp931
g338
ag404
asg26
I00
sg27
I00
sg28
I4587283
sg20
S'15356.169081'
p932
sba(igraph
Edge
p933
(dp934
g7
I1
sg8
I00
sg9
I5
sg10
(lp935
g341
ag404
asg26
I00
sg27
I00
sg28
I4587284
sg20
S'15356.1732002'
p936
sba(igraph
Edge
p937
(dp938
g7
I1
sg8
I00
sg9
I5
sg10
(lp939
g348
ag418
asg26
I00
sg27
I00
sg28
I4587285
sg20
S'15356.1772317'
p940
sba(igraph
Edge
p941
(dp942
g7
I1
sg8
I00
sg9
I5
sg10
(lp943
g355
ag418
asg26
I00
sg27
I00
sg28
I4587286
sg20
S'15356.1815865'
p944
sba(igraph
Edge
p945
(dp946
g7
I1
sg8
I00
sg9
I5
sg10
(lp947
g362
ag432
asg26
I00
sg27
I00
sg28
I4587287
sg20
S'15356.1858194'
p948
sba(igraph
Edge
p949
(dp950
g7
I1
sg8
I00
sg9
I5
sg10
(lp951
g369
ag432
asg26
I00
sg27
I00
sg28
I4587288
sg20
S'15356.1898526'
p952
sba(igraph
Edge
p953
(dp954
g7
I1
sg8
I00
sg9
I5
sg10
(lp955
g376
ag446
asg26
I00
sg27
I00
sg28
I4587289
sg20
S'15356.1941238'
p956
sba(igraph
Edge
p957
(dp958
g7
I1
sg8
I00
sg9
I5
sg10
(lp959
g383
ag446
asg26
I00
sg27
I00
sg28
I4587290
sg20
S'15356.1981716'
p960
sba(igraph
Edge
p961
(dp962
g7
I1
sg8
I00
sg9
I5
sg10
(lp963
g390
ag401
asg26
I00
sg27
I00
sg28
I4587291
sg20
S'15356.202274'
p964
sbasS'vertices'
p965
(lp966
g12
ag23
ag33
ag40
ag47
ag54
ag61
ag68
ag75
ag86
ag89
ag96
ag103
ag110
ag117
ag124
ag131
ag138
ag149
ag152
ag159
ag166
ag173
ag180
ag187
ag194
ag201
ag212
ag215
ag222
ag229
ag236
ag243
ag250
ag257
ag264
ag275
ag278
ag285
ag292
ag299
ag306
ag313
ag320
ag327
ag338
ag341
ag348
ag355
ag362
ag369
ag376
ag383
ag390
ag401
ag404
ag411
ag418
ag425
ag432
ag439
ag446
ag453
asS'tags'
p967
(lp968
sb.