(igraph
Graph
p0
(dp1
S'labelingConstraints'
p2
I-1
sS'edges'
p3
(lp4
(igraph
Edge
p5
(dp6
S'direction'
p7
I1
sS'selected'
p8
I00
sS'height'
p9
I5
sS'vs'
p10
(lp11
(igraph
Vertex
p12
(dp13
S'xnorm'
p14
F0.0
sg8
I01
sS'label'
p15
I0
sS'y'
p16
F-129.0
sS'x'
p17
F-150.0
sS'circle'
p18
I4569189
sS'id'
p19
S'15295.6365086'
p20
sS'ynorm'
p21
F0.0
sba(igraph
Vertex
p22
(dp23
g14
F0.125
sg8
I00
sg15
S'NULL'
p24
sg16
F-129.0
sg17
F-196.625
sg18
I4569191
sg19
S'15295.6365323'
p25
sg21
F0.0
sbasS'wrap'
p26
I00
sS'curved'
p27
I00
sS'line'
p28
I4568971
sg19
S'15295.6688889'
p29
sba(igraph
Edge
p30
(dp31
g7
I1
sg8
I00
sg9
I5
sg10
(lp32
g22
a(igraph
Vertex
p33
(dp34
g14
F0.25
sg8
I00
sg15
g24
sg16
F-129.0
sg17
F-243.25
sg18
I4569192
sg19
S'15295.6365574'
p35
sg21
F0.0
sbasg26
I00
sg27
I00
sg28
I4568972
sg19
S'15295.6689521'
p36
sba(igraph
Edge
p37
(dp38
g7
I1
sg8
I00
sg9
I5
sg10
(lp39
g33
a(igraph
Vertex
p40
(dp41
g14
F0.375
sg8
I00
sg15
g24
sg16
F-129.0
sg17
F-289.875
sg18
I4569193
sg19
S'15295.6365859'
p42
sg21
F0.0
sbasg26
I00
sg27
I00
sg28
I4568973
sg19
S'15295.6690912'
p43
sba(igraph
Edge
p44
(dp45
g7
I1
sg8
I00
sg9
I5
sg10
(lp46
g40
a(igraph
Vertex
p47
(dp48
g14
F0.5
sg8
I00
sg15
g24
sg16
F-129.0
sg17
F-336.5
sg18
I4569194
sg19
S'15295.6366217'
p49
sg21
F0.0
sbasg26
I00
sg27
I00
sg28
I4568974
sg19
S'15295.6691962'
p50
sba(igraph
Edge
p51
(dp52
g7
I1
sg8
I00
sg9
I5
sg10
(lp53
g47
a(igraph
Vertex
p54
(dp55
g14
F0.625
sg8
I00
sg15
g24
sg16
F-129.0
sg17
F-383.125
sg18
I4569195
sg19
S'15295.6366644'
p56
sg21
F0.0
sbasg26
I00
sg27
I00
sg28
I4568975
sg19
S'15295.6693222'
p57
sba(igraph
Edge
p58
(dp59
g7
I1
sg8
I00
sg9
I5
sg10
(lp60
g54
a(igraph
Vertex
p61
(dp62
g14
F0.75
sg8
I00
sg15
g24
sg16
F-129.0
sg17
F-429.75
sg18
I4569196
sg19
S'15295.636717'
p63
sg21
F0.0
sbasg26
I00
sg27
I00
sg28
I4568976
sg19
S'15295.6694714'
p64
sba(igraph
Edge
p65
(dp66
g7
I1
sg8
I00
sg9
I5
sg10
(lp67
g61
a(igraph
Vertex
p68
(dp69
g14
F0.875
sg8
I00
sg15
g24
sg16
F-129.0
sg17
F-476.375
sg18
I4569197
sg19
S'15295.6370014'
p70
sg21
F0.0
sbasg26
I00
sg27
I00
sg28
I4568977
sg19
S'15295.6696438'
p71
sba(igraph
Edge
p72
(dp73
g7
I1
sg8
I00
sg9
I5
sg10
(lp74
g68
a(igraph
Vertex
p75
(dp76
g14
F1.0
sg8
I00
sg15
g24
sg16
F-129.0
sg17
F-523.0
sg18
I4569198
sg19
S'15295.6370704'
p77
sg21
F0.0
sbasg26
I00
sg27
I00
sg28
I4568978
sg19
S'15295.669836'
p78
sba(igraph
Edge
p79
(dp80
g7
I1
sg8
I00
sg9
I5
sg10
(lp81
g75
ag12
asg26
I00
sg27
I00
sg28
I4568979
sg19
S'15295.6700455'
p82
sba(igraph
Edge
p83
(dp84
g7
I1
sg8
I00
sg9
I5
sg10
(lp85
(igraph
Vertex
p86
(dp87
g14
F0.0
sg8
I00
sg15
g24
sg16
F-72.496124031007753
sg17
F-150.0
sg18
I4569199
sg19
S'15295.637148'
p88
sg21
F0.1434108527131783
sba(igraph
Vertex
p89
(dp90
g14
F0.125
sg8
I00
sg15
g24
sg16
F-72.496124031007753
sg17
F-196.625
sg18
I4569200
sg19
S'15295.6372329'
p91
sg21
F0.1434108527131783
sbasg26
I00
sg27
I00
sg28
I4568980
sg19
S'15295.6702846'
p92
sba(igraph
Edge
p93
(dp94
g7
I1
sg8
I00
sg9
I5
sg10
(lp95
g89
a(igraph
Vertex
p96
(dp97
g14
F0.25
sg8
I01
sg15
I0
sg16
F-72.496124031007753
sg17
F-243.25
sg18
I4569202
sg19
S'15295.6373282'
p98
sg21
F0.1434108527131783
sbasg26
I00
sg27
I00
sg28
I4568981
sg19
S'15295.6705486'
p99
sba(igraph
Edge
p100
(dp101
g7
I1
sg8
I00
sg9
I5
sg10
(lp102
g96
a(igraph
Vertex
p103
(dp104
g14
F0.375
sg8
I00
sg15
g24
sg16
F-72.496124031007753
sg17
F-289.875
sg18
I4569204
sg19
S'15295.6374327'
p105
sg21
F0.1434108527131783
sbasg26
I00
sg27
I00
sg28
I4568982
sg19
S'15295.6708355'
p106
sba(igraph
Edge
p107
(dp108
g7
I1
sg8
I00
sg9
I5
sg10
(lp109
g103
a(igraph
Vertex
p110
(dp111
g14
F0.5
sg8
I00
sg15
g24
sg16
F-72.496124031007753
sg17
F-336.5
sg18
I4569205
sg19
S'15295.637545'
p112
sg21
F0.1434108527131783
sbasg26
I00
sg27
I00
sg28
I4568983
sg19
S'15295.6712082'
p113
sba(igraph
Edge
p114
(dp115
g7
I1
sg8
I00
sg9
I5
sg10
(lp116
g110
a(igraph
Vertex
p117
(dp118
g14
F0.625
sg8
I00
sg15
g24
sg16
F-72.496124031007753
sg17
F-383.125
sg18
I4569206
sg19
S'15295.6376646'
p119
sg21
F0.1434108527131783
sbasg26
I00
sg27
I00
sg28
I4568984
sg19
S'15295.671544'
p120
sba(igraph
Edge
p121
(dp122
g7
I1
sg8
I00
sg9
I5
sg10
(lp123
g117
a(igraph
Vertex
p124
(dp125
g14
F0.75
sg8
I00
sg15
g24
sg16
F-72.496124031007753
sg17
F-429.75
sg18
I4569207
sg19
S'15295.6381166'
p126
sg21
F0.1434108527131783
sbasg26
I00
sg27
I00
sg28
I4568985
sg19
S'15295.671901'
p127
sba(igraph
Edge
p128
(dp129
g7
I1
sg8
I00
sg9
I5
sg10
(lp130
g124
a(igraph
Vertex
p131
(dp132
g14
F0.875
sg8
I00
sg15
g24
sg16
F-72.496124031007753
sg17
F-476.375
sg18
I4569208
sg19
S'15295.6382568'
p133
sg21
F0.1434108527131783
sbasg26
I00
sg27
I00
sg28
I4568986
sg19
S'15295.6723433'
p134
sba(igraph
Edge
p135
(dp136
g7
I1
sg8
I00
sg9
I5
sg10
(lp137
g131
a(igraph
Vertex
p138
(dp139
g14
F1.0
sg8
I00
sg15
g24
sg16
F-72.496124031007753
sg17
F-523.0
sg18
I4569209
sg19
S'15295.6384035'
p140
sg21
F0.1434108527131783
sbasg26
I00
sg27
I00
sg28
I4568987
sg19
S'15295.6727397'
p141
sba(igraph
Edge
p142
(dp143
g7
I1
sg8
I00
sg9
I5
sg10
(lp144
g138
ag86
asg26
I00
sg27
I00
sg28
I4568988
sg19
S'15295.6731559'
p145
sba(igraph
Edge
p146
(dp147
g7
I1
sg8
I00
sg9
I5
sg10
(lp148
(igraph
Vertex
p149
(dp150
g14
F0.0
sg8
I00
sg15
g24
sg16
F-15.992248062015506
sg17
F-150.0
sg18
I4569210
sg19
S'15295.6385585'
p151
sg21
F0.2868217054263566
sba(igraph
Vertex
p152
(dp153
g14
F0.125
sg8
I01
sg15
I0
sg16
F-15.992248062015506
sg17
F-196.625
sg18
I4569212
sg19
S'15295.6388236'
p154
sg21
F0.2868217054263566
sbasg26
I00
sg27
I00
sg28
I4568989
sg19
S'15295.6736591'
p155
sba(igraph
Edge
p156
(dp157
g7
I1
sg8
I00
sg9
I5
sg10
(lp158
g152
a(igraph
Vertex
p159
(dp160
g14
F0.25
sg8
I00
sg15
g24
sg16
F-15.992248062015506
sg17
F-243.25
sg18
I4569214
sg19
S'15295.6389971'
p161
sg21
F0.2868217054263566
sbasg26
I00
sg27
I00
sg28
I4568990
sg19
S'15295.6741089'
p162
sba(igraph
Edge
p163
(dp164
g7
I1
sg8
I00
sg9
I5
sg10
(lp165
g159
a(igraph
Vertex
p166
(dp167
g14
F0.375
sg8
I00
sg15
g24
sg16
F-15.992248062015506
sg17
F-289.875
sg18
I4569215
sg19
S'15295.639181'
p168
sg21
F0.2868217054263566
sbasg26
I00
sg27
I00
sg28
I4568991
sg19
S'15295.6749545'
p169
sba(igraph
Edge
p170
(dp171
g7
I1
sg8
I00
sg9
I5
sg10
(lp172
g166
a(igraph
Vertex
p173
(dp174
g14
F0.5
sg8
I00
sg15
g24
sg16
F-15.992248062015506
sg17
F-336.5
sg18
I4569216
sg19
S'15295.6393746'
p175
sg21
F0.2868217054263566
sbasg26
I00
sg27
I00
sg28
I4568992
sg19
S'15295.6760018'
p176
sba(igraph
Edge
p177
(dp178
g7
I1
sg8
I00
sg9
I5
sg10
(lp179
g173
a(igraph
Vertex
p180
(dp181
g14
F0.625
sg8
I00
sg15
g24
sg16
F-15.992248062015506
sg17
F-383.125
sg18
I4569217
sg19
S'15295.6395771'
p182
sg21
F0.2868217054263566
sbasg26
I00
sg27
I00
sg28
I4568993
sg19
S'15295.6766645'
p183
sba(igraph
Edge
p184
(dp185
g7
I1
sg8
I00
sg9
I5
sg10
(lp186
g180
a(igraph
Vertex
p187
(dp188
g14
F0.75
sg8
I00
sg15
g24
sg16
F-15.992248062015506
sg17
F-429.75
sg18
I4569218
sg19
S'15295.6397928'
p189
sg21
F0.2868217054263566
sbasg26
I00
sg27
I00
sg28
I4568994
sg19
S'15295.677347'
p190
sba(igraph
Edge
p191
(dp192
g7
I1
sg8
I00
sg9
I5
sg10
(lp193
g187
a(igraph
Vertex
p194
(dp195
g14
F0.875
sg8
I00
sg15
g24
sg16
F-15.992248062015506
sg17
F-476.375
sg18
I4569219
sg19
S'15295.6400084'
p196
sg21
F0.2868217054263566
sbasg26
I00
sg27
I00
sg28
I4568995
sg19
S'15295.6782152'
p197
sba(igraph
Edge
p198
(dp199
g7
I1
sg8
I00
sg9
I5
sg10
(lp200
g194
a(igraph
Vertex
p201
(dp202
g14
F1.0
sg8
I00
sg15
g24
sg16
F-15.992248062015506
sg17
F-523.0
sg18
I4569220
sg19
S'15295.6402319'
p203
sg21
F0.2868217054263566
sbasg26
I00
sg27
I00
sg28
I4568996
sg19
S'15295.6789064'
p204
sba(igraph
Edge
p205
(dp206
g7
I1
sg8
I00
sg9
I5
sg10
(lp207
g201
ag149
asg26
I00
sg27
I00
sg28
I4568997
sg19
S'15295.679583'
p208
sba(igraph
Edge
p209
(dp210
g7
I1
sg8
I00
sg9
I5
sg10
(lp211
(igraph
Vertex
p212
(dp213
g14
F0.0
sg8
I00
sg15
g24
sg16
F40.511627906976742
sg17
F-150.0
sg18
I4569221
sg19
S'15295.6404646'
p214
sg21
F0.43023255813953487
sba(igraph
Vertex
p215
(dp216
g14
F0.125
sg8
I00
sg15
g24
sg16
F40.511627906976742
sg17
F-196.625
sg18
I4569222
sg19
S'15295.6409823'
p217
sg21
F0.43023255813953487
sbasg26
I00
sg27
I00
sg28
I4568998
sg19
S'15295.6803837'
p218
sba(igraph
Edge
p219
(dp220
g7
I1
sg8
I00
sg9
I5
sg10
(lp221
g215
a(igraph
Vertex
p222
(dp223
g14
F0.25
sg8
I00
sg15
g24
sg16
F40.511627906976742
sg17
F-243.25
sg18
I4569223
sg19
S'15295.6412374'
p224
sg21
F0.43023255813953487
sbasg26
I00
sg27
I00
sg28
I4568999
sg19
S'15295.6813399'
p225
sba(igraph
Edge
p226
(dp227
g7
I1
sg8
I00
sg9
I5
sg10
(lp228
g222
a(igraph
Vertex
p229
(dp230
g14
F0.375
sg8
I01
sg15
I0
sg16
F40.511627906976742
sg17
F-289.875
sg18
I4569225
sg19
S'15295.6414986'
p231
sg21
F0.43023255813953487
sbasg26
I00
sg27
I00
sg28
I4569000
sg19
S'15295.682187'
p232
sba(igraph
Edge
p233
(dp234
g7
I1
sg8
I00
sg9
I5
sg10
(lp235
g229
a(igraph
Vertex
p236
(dp237
g14
F0.5
sg8
I00
sg15
g24
sg16
F40.511627906976742
sg17
F-336.5
sg18
I4569227
sg19
S'15295.6417684'
p238
sg21
F0.43023255813953487
sbasg26
I00
sg27
I00
sg28
I4569001
sg19
S'15295.683115'
p239
sba(igraph
Edge
p240
(dp241
g7
I1
sg8
I00
sg9
I5
sg10
(lp242
g236
a(igraph
Vertex
p243
(dp244
g14
F0.625
sg8
I00
sg15
g24
sg16
F40.511627906976742
sg17
F-383.125
sg18
I4569228
sg19
S'15295.6420439'
p245
sg21
F0.43023255813953487
sbasg26
I00
sg27
I00
sg28
I4569002
sg19
S'15295.6839987'
p246
sba(igraph
Edge
p247
(dp248
g7
I1
sg8
I00
sg9
I5
sg10
(lp249
g243
a(igraph
Vertex
p250
(dp251
g14
F0.75
sg8
I00
sg15
g24
sg16
F40.511627906976742
sg17
F-429.75
sg18
I4569229
sg19
S'15295.6423302'
p252
sg21
F0.43023255813953487
sbasg26
I00
sg27
I00
sg28
I4569003
sg19
S'15295.6849672'
p253
sba(igraph
Edge
p254
(dp255
g7
I1
sg8
I00
sg9
I5
sg10
(lp256
g250
a(igraph
Vertex
p257
(dp258
g14
F0.875
sg8
I00
sg15
g24
sg16
F40.511627906976742
sg17
F-476.375
sg18
I4569230
sg19
S'15295.6431898'
p259
sg21
F0.43023255813953487
sbasg26
I00
sg27
I00
sg28
I4569004
sg19
S'15295.6859363'
p260
sba(igraph
Edge
p261
(dp262
g7
I1
sg8
I00
sg9
I5
sg10
(lp263
g257
a(igraph
Vertex
p264
(dp265
g14
F1.0
sg8
I00
sg15
g24
sg16
F40.511627906976742
sg17
F-523.0
sg18
I4569231
sg19
S'15295.6434924'
p266
sg21
F0.43023255813953487
sbasg26
I00
sg27
I00
sg28
I4569005
sg19
S'15295.6874248'
p267
sba(igraph
Edge
p268
(dp269
g7
I1
sg8
I00
sg9
I5
sg10
(lp270
g264
ag212
asg26
I00
sg27
I00
sg28
I4569006
sg19
S'15295.6884115'
p271
sba(igraph
Edge
p272
(dp273
g7
I1
sg8
I00
sg9
I5
sg10
(lp274
(igraph
Vertex
p275
(dp276
g14
F0.0
sg8
I00
sg15
g24
sg16
F97.015503875968989
sg17
F-150.0
sg18
I4569232
sg19
S'15295.6491367'
p277
sg21
F0.5736434108527132
sba(igraph
Vertex
p278
(dp279
g14
F0.125
sg8
I00
sg15
g24
sg16
F97.015503875968989
sg17
F-196.625
sg18
I4569233
sg19
S'15295.6498242'
p280
sg21
F0.5736434108527132
sbasg26
I00
sg27
I00
sg28
I4569007
sg19
S'15295.6895438'
p281
sba(igraph
Edge
p282
(dp283
g7
I1
sg8
I00
sg9
I5
sg10
(lp284
g278
a(igraph
Vertex
p285
(dp286
g14
F0.25
sg8
I00
sg15
g24
sg16
F97.015503875968989
sg17
F-243.25
sg18
I4569234
sg19
S'15295.6501631'
p287
sg21
F0.5736434108527132
sbasg26
I00
sg27
I00
sg28
I4569008
sg19
S'15295.6906842'
p288
sba(igraph
Edge
p289
(dp290
g7
I1
sg8
I00
sg9
I5
sg10
(lp291
g285
a(igraph
Vertex
p292
(dp293
g14
F0.375
sg8
I00
sg15
g24
sg16
F97.015503875968989
sg17
F-289.875
sg18
I4569235
sg19
S'15295.6506075'
p294
sg21
F0.5736434108527132
sbasg26
I00
sg27
I00
sg28
I4569009
sg19
S'15295.6919259'
p295
sba(igraph
Edge
p296
(dp297
g7
I1
sg8
I00
sg9
I5
sg10
(lp298
g292
a(igraph
Vertex
p299
(dp300
g14
F0.5
sg8
I00
sg15
g24
sg16
F97.015503875968989
sg17
F-336.5
sg18
I4569236
sg19
S'15295.6509615'
p301
sg21
F0.5736434108527132
sbasg26
I00
sg27
I00
sg28
I4569010
sg19
S'15295.6930423'
p302
sba(igraph
Edge
p303
(dp304
g7
I1
sg8
I00
sg9
I5
sg10
(lp305
g299
a(igraph
Vertex
p306
(dp307
g14
F0.625
sg8
I01
sg15
I0
sg16
F97.015503875968989
sg17
F-383.125
sg18
I4569238
sg19
S'15295.6513244'
p308
sg21
F0.5736434108527132
sbasg26
I00
sg27
I00
sg28
I4569011
sg19
S'15295.6943106'
p309
sba(igraph
Edge
p310
(dp311
g7
I1
sg8
I00
sg9
I5
sg10
(lp312
g306
a(igraph
Vertex
p313
(dp314
g14
F0.75
sg8
I00
sg15
g24
sg16
F97.015503875968989
sg17
F-429.75
sg18
I4569240
sg19
S'15295.6516971'
p315
sg21
F0.5736434108527132
sbasg26
I00
sg27
I00
sg28
I4569012
sg19
S'15295.6954783'
p316
sba(igraph
Edge
p317
(dp318
g7
I1
sg8
I00
sg9
I5
sg10
(lp319
g313
a(igraph
Vertex
p320
(dp321
g14
F0.875
sg8
I00
sg15
g24
sg16
F97.015503875968989
sg17
F-476.375
sg18
I4569241
sg19
S'15295.6520765'
p322
sg21
F0.5736434108527132
sbasg26
I00
sg27
I00
sg28
I4569013
sg19
S'15295.6967017'
p323
sba(igraph
Edge
p324
(dp325
g7
I1
sg8
I00
sg9
I5
sg10
(lp326
g320
a(igraph
Vertex
p327
(dp328
g14
F1.0
sg8
I00
sg15
g24
sg16
F97.015503875968989
sg17
F-523.0
sg18
I4569242
sg19
S'15295.6524684'
p329
sg21
F0.5736434108527132
sbasg26
I00
sg27
I00
sg28
I4569014
sg19
S'15295.6979267'
p330
sba(igraph
Edge
p331
(dp332
g7
I1
sg8
I00
sg9
I5
sg10
(lp333
g327
ag275
asg26
I00
sg27
I00
sg28
I4569015
sg19
S'15295.6993746'
p334
sba(igraph
Edge
p335
(dp336
g7
I1
sg8
I00
sg9
I5
sg10
(lp337
(igraph
Vertex
p338
(dp339
g14
F0.0
sg8
I00
sg15
g24
sg16
F153.51937984496124
sg17
F-150.0
sg18
I4569243
sg19
S'15295.6528671'
p340
sg21
F0.71705426356589153
sba(igraph
Vertex
p341
(dp342
g14
F0.125
sg8
I00
sg15
g24
sg16
F153.51937984496124
sg17
F-196.625
sg18
I4569244
sg19
S'15295.6532738'
p343
sg21
F0.71705426356589153
sbasg26
I00
sg27
I00
sg28
I4569016
sg19
S'15295.7007391'
p344
sba(igraph
Edge
p345
(dp346
g7
I1
sg8
I00
sg9
I5
sg10
(lp347
g341
a(igraph
Vertex
p348
(dp349
g14
F0.25
sg8
I00
sg15
g24
sg16
F153.51937984496124
sg17
F-243.25
sg18
I4569245
sg19
S'15295.6536864'
p350
sg21
F0.71705426356589153
sbasg26
I00
sg27
I00
sg28
I4569017
sg19
S'15295.7020515'
p351
sba(igraph
Edge
p352
(dp353
g7
I1
sg8
I00
sg9
I5
sg10
(lp354
g348
a(igraph
Vertex
p355
(dp356
g14
F0.375
sg8
I00
sg15
g24
sg16
F153.51937984496124
sg17
F-289.875
sg18
I4569246
sg19
S'15295.6541094'
p357
sg21
F0.71705426356589153
sbasg26
I00
sg27
I00
sg28
I4569018
sg19
S'15295.7040345'
p358
sba(igraph
Edge
p359
(dp360
g7
I1
sg8
I00
sg9
I5
sg10
(lp361
g355
a(igraph
Vertex
p362
(dp363
g14
F0.5
sg8
I00
sg15
g24
sg16
F153.51937984496124
sg17
F-336.5
sg18
I4569247
sg19
S'15295.6546215'
p364
sg21
F0.71705426356589153
sbasg26
I00
sg27
I00
sg28
I4569019
sg19
S'15295.7054363'
p365
sba(igraph
Edge
p366
(dp367
g7
I1
sg8
I00
sg9
I5
sg10
(lp368
g362
a(igraph
Vertex
p369
(dp370
g14
F0.625
sg8
I00
sg15
g24
sg16
F153.51937984496124
sg17
F-383.125
sg18
I4569248
sg19
S'15295.6550626'
p371
sg21
F0.71705426356589153
sbasg26
I00
sg27
I00
sg28
I4569020
sg19
S'15295.7068938'
p372
sba(igraph
Edge
p373
(dp374
g7
I1
sg8
I00
sg9
I5
sg10
(lp375
g369
a(igraph
Vertex
p376
(dp377
g14
F0.75
sg8
I00
sg15
g24
sg16
F153.51937984496124
sg17
F-429.75
sg18
I4569249
sg19
S'15295.6556118'
p378
sg21
F0.71705426356589153
sbasg26
I00
sg27
I00
sg28
I4569021
sg19
S'15295.7081732'
p379
sba(igraph
Edge
p380
(dp381
g7
I1
sg8
I00
sg9
I5
sg10
(lp382
g376
a(igraph
Vertex
p383
(dp384
g14
F0.875
sg8
I00
sg15
g24
sg16
F153.51937984496124
sg17
F-476.375
sg18
I4569250
sg19
S'15295.656068'
p385
sg21
F0.71705426356589153
sbasg26
I00
sg27
I00
sg28
I4569022
sg19
S'15295.7093527'
p386
sba(igraph
Edge
p387
(dp388
g7
I1
sg8
I00
sg9
I5
sg10
(lp389
g383
a(igraph
Vertex
p390
(dp391
g14
F1.0
sg8
I00
sg15
g24
sg16
F153.51937984496124
sg17
F-523.0
sg18
I4569251
sg19
S'15295.6565376'
p392
sg21
F0.71705426356589153
sbasg26
I00
sg27
I00
sg28
I4569023
sg19
S'15295.7113812'
p393
sba(igraph
Edge
p394
(dp395
g7
I1
sg8
I00
sg9
I5
sg10
(lp396
g390
ag338
asg26
I00
sg27
I00
sg28
I4569024
sg19
S'15295.7128216'
p397
sba(igraph
Edge
p398
(dp399
g7
I1
sg8
I00
sg9
I5
sg10
(lp400
(igraph
Vertex
p401
(dp402
g14
F0.0
sg8
I00
sg15
g24
sg16
F210.02325581395348
sg17
F-150.0
sg18
I4569252
sg19
S'15295.6570095'
p403
sg21
F0.86046511627906974
sba(igraph
Vertex
p404
(dp405
g14
F0.125
sg8
I00
sg15
g24
sg16
F210.02325581395348
sg17
F-196.625
sg18
I4569253
sg19
S'15295.6577911'
p406
sg21
F0.86046511627906974
sbasg26
I00
sg27
I00
sg28
I4569025
sg19
S'15295.7144173'
p407
sba(igraph
Edge
p408
(dp409
g7
I1
sg8
I00
sg9
I5
sg10
(lp410
g404
a(igraph
Vertex
p411
(dp412
g14
F0.25
sg8
I00
sg15
g24
sg16
F210.02325581395348
sg17
F-243.25
sg18
I4569254
sg19
S'15295.6583462'
p413
sg21
F0.86046511627906974
sbasg26
I00
sg27
I00
sg28
I4569026
sg19
S'15295.7161229'
p414
sba(igraph
Edge
p415
(dp416
g7
I1
sg8
I00
sg9
I5
sg10
(lp417
g411
a(igraph
Vertex
p418
(dp419
g14
F0.375
sg8
I00
sg15
g24
sg16
F210.02325581395348
sg17
F-289.875
sg18
I4569255
sg19
S'15295.658846'
p420
sg21
F0.86046511627906974
sbasg26
I00
sg27
I00
sg28
I4569027
sg19
S'15295.7177208'
p421
sba(igraph
Edge
p422
(dp423
g7
I1
sg8
I00
sg9
I5
sg10
(lp424
g418
a(igraph
Vertex
p425
(dp426
g14
F0.5
sg8
I00
sg15
g24
sg16
F210.02325581395348
sg17
F-336.5
sg18
I4569256
sg19
S'15295.6593419'
p427
sg21
F0.86046511627906974
sbasg26
I00
sg27
I00
sg28
I4569028
sg19
S'15295.7195398'
p428
sba(igraph
Edge
p429
(dp430
g7
I1
sg8
I00
sg9
I5
sg10
(lp431
g425
a(igraph
Vertex
p432
(dp433
g14
F0.625
sg8
I00
sg15
g24
sg16
F210.02325581395348
sg17
F-383.125
sg18
I4569257
sg19
S'15295.6598534'
p434
sg21
F0.86046511627906974
sbasg26
I00
sg27
I00
sg28
I4569029
sg19
S'15295.7211763'
p435
sba(igraph
Edge
p436
(dp437
g7
I1
sg8
I00
sg9
I5
sg10
(lp438
g432
a(igraph
Vertex
p439
(dp440
g14
F0.75
sg8
I01
sg15
I0
sg16
F210.02325581395348
sg17
F-429.75
sg18
I4569259
sg19
S'15295.6603739'
p441
sg21
F0.86046511627906974
sbasg26
I00
sg27
I00
sg28
I4569030
sg19
S'15295.722748'
p442
sba(igraph
Edge
p443
(dp444
g7
I1
sg8
I00
sg9
I5
sg10
(lp445
g439
a(igraph
Vertex
p446
(dp447
g14
F0.875
sg8
I00
sg15
g24
sg16
F210.02325581395348
sg17
F-476.375
sg18
I4569261
sg19
S'15295.6609083'
p448
sg21
F0.86046511627906974
sbasg26
I00
sg27
I00
sg28
I4569031
sg19
S'15295.7244577'
p449
sba(igraph
Edge
p450
(dp451
g7
I1
sg8
I00
sg9
I5
sg10
(lp452
g446
a(igraph
Vertex
p453
(dp454
g14
F1.0
sg8
I00
sg15
g24
sg16
F210.02325581395348
sg17
F-523.0
sg18
I4569262
sg19
S'15295.6627644'
p455
sg21
F0.86046511627906974
sbasg26
I00
sg27
I00
sg28
I4569032
sg19
S'15295.7261283'
p456
sba(igraph
Edge
p457
(dp458
g7
I1
sg8
I00
sg9
I5
sg10
(lp459
g453
ag401
asg26
I00
sg27
I00
sg28
I4569033
sg19
S'15295.7276162'
p460
sba(igraph
Edge
p461
(dp462
g7
I1
sg8
I00
sg9
I5
sg10
(lp463
(igraph
Vertex
p464
(dp465
g14
F0.0
sg8
I00
sg15
g24
sg16
F266.52713178294573
sg17
F-150.0
sg18
I4569263
sg19
S'15295.6634195'
p466
sg21
F1.0038759689922481
sba(igraph
Vertex
p467
(dp468
g14
F0.125
sg8
I00
sg15
g24
sg16
F266.52713178294573
sg17
F-196.625
sg18
I4569264
sg19
S'15295.6639863'
p469
sg21
F1.0038759689922481
sbasg26
I00
sg27
I00
sg28
I4569034
sg19
S'15295.7300978'
p470
sba(igraph
Edge
p471
(dp472
g7
I1
sg8
I00
sg9
I5
sg10
(lp473
g467
a(igraph
Vertex
p474
(dp475
g14
F0.25
sg8
I00
sg15
g24
sg16
F266.52713178294573
sg17
F-243.25
sg18
I4569265
sg19
S'15295.6645596'
p476
sg21
F1.0038759689922481
sbasg26
I00
sg27
I00
sg28
I4569035
sg19
S'15295.7317955'
p477
sba(igraph
Edge
p478
(dp479
g7
I1
sg8
I00
sg9
I5
sg10
(lp480
g474
a(igraph
Vertex
p481
(dp482
g14
F0.375
sg8
I00
sg15
g24
sg16
F266.52713178294573
sg17
F-289.875
sg18
I4569266
sg19
S'15295.6651491'
p483
sg21
F1.0038759689922481
sbasg26
I00
sg27
I00
sg28
I4569036
sg19
S'15295.7347384'
p484
sba(igraph
Edge
p485
(dp486
g7
I1
sg8
I00
sg9
I5
sg10
(lp487
g481
a(igraph
Vertex
p488
(dp489
g14
F0.5
sg8
I00
sg15
g24
sg16
F266.52713178294573
sg17
F-336.5
sg18
I4569267
sg19
S'15295.6657394'
p490
sg21
F1.0038759689922481
sbasg26
I00
sg27
I00
sg28
I4569037
sg19
S'15295.7364788'
p491
sba(igraph
Edge
p492
(dp493
g7
I1
sg8
I00
sg9
I5
sg10
(lp494
g488
a(igraph
Vertex
p495
(dp496
g14
F0.625
sg8
I00
sg15
g24
sg16
F266.52713178294573
sg17
F-383.125
sg18
I4569268
sg19
S'15295.6663372'
p497
sg21
F1.0038759689922481
sbasg26
I00
sg27
I00
sg28
I4569038
sg19
S'15295.7381014'
p498
sba(igraph
Edge
p499
(dp500
g7
I1
sg8
I00
sg9
I5
sg10
(lp501
g495
a(igraph
Vertex
p502
(dp503
g14
F0.75
sg8
I00
sg15
g24
sg16
F266.52713178294573
sg17
F-429.75
sg18
I4569269
sg19
S'15295.6669445'
p504
sg21
F1.0038759689922481
sbasg26
I00
sg27
I00
sg28
I4569039
sg19
S'15295.7399412'
p505
sba(igraph
Edge
p506
(dp507
g7
I1
sg8
I00
sg9
I5
sg10
(lp508
g502
a(igraph
Vertex
p509
(dp510
g14
F0.875
sg8
I00
sg15
g24
sg16
F266.52713178294573
sg17
F-476.375
sg18
I4569270
sg19
S'15295.6676167'
p511
sg21
F1.0038759689922481
sbasg26
I00
sg27
I00
sg28
I4569040
sg19
S'15295.7415901'
p512
sba(igraph
Edge
p513
(dp514
g7
I1
sg8
I00
sg9
I5
sg10
(lp515
g509
a(igraph
Vertex
p516
(dp517
g14
F1.0
sg8
I01
sg15
I0
sg16
F266.52713178294573
sg17
F-523.0
sg18
I4569272
sg19
S'15295.668236'
p518
sg21
F1.0038759689922481
sbasg26
I00
sg27
I00
sg28
I4569041
sg19
S'15295.7433512'
p519
sba(igraph
Edge
p520
(dp521
g7
I1
sg8
I00
sg9
I5
sg10
(lp522
g516
ag464
asg26
I00
sg27
I00
sg28
I4569042
sg19
S'15295.7450344'
p523
sba(igraph
Edge
p524
(dp525
g7
I1
sg8
I00
sg9
I5
sg10
(lp526
g12
ag86
asg26
I00
sg27
I00
sg28
I4569043
sg19
S'15295.7468335'
p527
sba(igraph
Edge
p528
(dp529
g7
I1
sg8
I00
sg9
I5
sg10
(lp530
g22
ag96
asg26
I00
sg27
I00
sg28
I4569044
sg19
S'15295.7488577'
p531
sba(igraph
Edge
p532
(dp533
g7
I1
sg8
I00
sg9
I5
sg10
(lp534
g33
ag96
asg26
I00
sg27
I00
sg28
I4569045
sg19
S'15295.7507267'
p535
sba(igraph
Edge
p536
(dp537
g7
I1
sg8
I00
sg9
I5
sg10
(lp538
g40
ag110
asg26
I00
sg27
I00
sg28
I4569046
sg19
S'15295.7526158'
p539
sba(igraph
Edge
p540
(dp541
g7
I1
sg8
I00
sg9
I5
sg10
(lp542
g47
ag110
asg26
I00
sg27
I00
sg28
I4569047
sg19
S'15295.754397'
p543
sba(igraph
Edge
p544
(dp545
g7
I1
sg8
I00
sg9
I5
sg10
(lp546
g54
ag124
asg26
I00
sg27
I00
sg28
I4569048
sg19
S'15295.7564068'
p547
sba(igraph
Edge
p548
(dp549
g7
I1
sg8
I00
sg9
I5
sg10
(lp550
g61
ag124
asg26
I00
sg27
I00
sg28
I4569049
sg19
S'15295.7582397'
p551
sba(igraph
Edge
p552
(dp553
g7
I1
sg8
I00
sg9
I5
sg10
(lp554
g68
ag138
asg26
I00
sg27
I00
sg28
I4569050
sg19
S'15295.7601782'
p555
sba(igraph
Edge
p556
(dp557
g7
I1
sg8
I00
sg9
I5
sg10
(lp558
g75
ag138
asg26
I00
sg27
I00
sg28
I4569051
sg19
S'15295.7620633'
p559
sba(igraph
Edge
p560
(dp561
g7
I1
sg8
I00
sg9
I5
sg10
(lp562
g12
ag89
asg26
I00
sg27
I00
sg28
I4569052
sg19
S'15295.7641703'
p563
sba(igraph
Edge
p564
(dp565
g7
I1
sg8
I00
sg9
I5
sg10
(lp566
g22
ag89
asg26
I00
sg27
I00
sg28
I4569053
sg19
S'15295.7660893'
p567
sba(igraph
Edge
p568
(dp569
g7
I1
sg8
I00
sg9
I5
sg10
(lp570
g33
ag103
asg26
I00
sg27
I00
sg28
I4569054
sg19
S'15295.7681163'
p571
sba(igraph
Edge
p572
(dp573
g7
I1
sg8
I00
sg9
I5
sg10
(lp574
g40
ag103
asg26
I00
sg27
I00
sg28
I4569055
sg19
S'15295.7702211'
p575
sba(igraph
Edge
p576
(dp577
g7
I1
sg8
I00
sg9
I5
sg10
(lp578
g47
ag117
asg26
I00
sg27
I00
sg28
I4569056
sg19
S'15295.7725823'
p579
sba(igraph
Edge
p580
(dp581
g7
I1
sg8
I00
sg9
I5
sg10
(lp582
g54
ag117
asg26
I00
sg27
I00
sg28
I4569057
sg19
S'15295.7746887'
p583
sba(igraph
Edge
p584
(dp585
g7
I1
sg8
I00
sg9
I5
sg10
(lp586
g61
ag131
asg26
I00
sg27
I00
sg28
I4569058
sg19
S'15295.7768323'
p587
sba(igraph
Edge
p588
(dp589
g7
I1
sg8
I00
sg9
I5
sg10
(lp590
g68
ag131
asg26
I00
sg27
I00
sg28
I4569059
sg19
S'15295.7788088'
p591
sba(igraph
Edge
p592
(dp593
g7
I1
sg8
I00
sg9
I5
sg10
(lp594
g75
ag86
asg26
I00
sg27
I00
sg28
I4569060
sg19
S'15295.780747'
p595
sba(igraph
Edge
p596
(dp597
g7
I1
sg8
I00
sg9
I5
sg10
(lp598
g12
ag464
asg26
I00
sg27
I00
sg28
I4569061
sg19
S'15295.7827112'
p599
sba(igraph
Edge
p600
(dp601
g7
I1
sg8
I00
sg9
I5
sg10
(lp602
g22
ag464
asg26
I00
sg27
I00
sg28
I4569062
sg19
S'15295.7851154'
p603
sba(igraph
Edge
p604
(dp605
g7
I1
sg8
I00
sg9
I5
sg10
(lp606
g33
ag474
asg26
I00
sg27
I00
sg28
I4569063
sg19
S'15295.7872319'
p607
sba(igraph
Edge
p608
(dp609
g7
I1
sg8
I00
sg9
I5
sg10
(lp610
g40
ag474
asg26
I00
sg27
I00
sg28
I4569064
sg19
S'15295.7892581'
p611
sba(igraph
Edge
p612
(dp613
g7
I1
sg8
I00
sg9
I5
sg10
(lp614
g47
ag488
asg26
I00
sg27
I00
sg28
I4569065
sg19
S'15295.7912953'
p615
sba(igraph
Edge
p616
(dp617
g7
I1
sg8
I00
sg9
I5
sg10
(lp618
g54
ag488
asg26
I00
sg27
I00
sg28
I4569066
sg19
S'15295.793357'
p619
sba(igraph
Edge
p620
(dp621
g7
I1
sg8
I00
sg9
I5
sg10
(lp622
g61
ag502
asg26
I00
sg27
I00
sg28
I4569067
sg19
S'15295.7955327'
p623
sba(igraph
Edge
p624
(dp625
g7
I1
sg8
I01
sg9
I5
sg10
(lp626
g68
ag502
asg26
I00
sg27
I00
sg28
I4569069
sg19
S'15295.7976366'
p627
sba(igraph
Edge
p628
(dp629
g7
I1
sg8
I00
sg9
I5
sg10
(lp630
g75
ag516
asg26
I00
sg27
I00
sg28
I4569070
sg19
S'15295.7998165'
p631
sba(igraph
Edge
p632
(dp633
g7
I1
sg8
I00
sg9
I5
sg10
(lp634
g12
ag516
asg26
I00
sg27
I00
sg28
I4569071
sg19
S'15295.8019673'
p635
sba(igraph
Edge
p636
(dp637
g7
I1
sg8
I00
sg9
I5
sg10
(lp638
g22
ag467
asg26
I00
sg27
I00
sg28
I4569072
sg19
S'15295.8041368'
p639
sba(igraph
Edge
p640
(dp641
g7
I1
sg8
I00
sg9
I5
sg10
(lp642
g33
ag467
asg26
I00
sg27
I00
sg28
I4569073
sg19
S'15295.8063771'
p643
sba(igraph
Edge
p644
(dp645
g7
I1
sg8
I00
sg9
I5
sg10
(lp646
g40
ag481
asg26
I00
sg27
I00
sg28
I4569074
sg19
S'15295.8086313'
p647
sba(igraph
Edge
p648
(dp649
g7
I1
sg8
I00
sg9
I5
sg10
(lp650
g47
ag481
asg26
I00
sg27
I00
sg28
I4569075
sg19
S'15295.8109'
p651
sba(igraph
Edge
p652
(dp653
g7
I1
sg8
I00
sg9
I5
sg10
(lp654
g54
ag495
asg26
I00
sg27
I00
sg28
I4569076
sg19
S'15295.8132464'
p655
sba(igraph
Edge
p656
(dp657
g7
I1
sg8
I00
sg9
I5
sg10
(lp658
g61
ag495
asg26
I00
sg27
I00
sg28
I4569077
sg19
S'15295.815612'
p659
sba(igraph
Edge
p660
(dp661
g7
I1
sg8
I00
sg9
I5
sg10
(lp662
g68
ag509
asg26
I00
sg27
I00
sg28
I4569078
sg19
S'15295.8179341'
p663
sba(igraph
Edge
p664
(dp665
g7
I1
sg8
I00
sg9
I5
sg10
(lp666
g75
ag509
asg26
I00
sg27
I00
sg28
I4569079
sg19
S'15295.8203369'
p667
sba(igraph
Edge
p668
(dp669
g7
I1
sg8
I00
sg9
I5
sg10
(lp670
g86
ag149
asg26
I00
sg27
I00
sg28
I4569080
sg19
S'15295.8227107'
p671
sba(igraph
Edge
p672
(dp673
g7
I1
sg8
I00
sg9
I5
sg10
(lp674
g89
ag159
asg26
I00
sg27
I00
sg28
I4569081
sg19
S'15295.8251043'
p675
sba(igraph
Edge
p676
(dp677
g7
I1
sg8
I00
sg9
I5
sg10
(lp678
g96
ag159
asg26
I00
sg27
I00
sg28
I4569082
sg19
S'15295.8275789'
p679
sba(igraph
Edge
p680
(dp681
g7
I1
sg8
I00
sg9
I5
sg10
(lp682
g103
ag173
asg26
I00
sg27
I00
sg28
I4569083
sg19
S'15295.8299734'
p683
sba(igraph
Edge
p684
(dp685
g7
I1
sg8
I00
sg9
I5
sg10
(lp686
g110
ag173
asg26
I00
sg27
I00
sg28
I4569084
sg19
S'15295.8324279'
p687
sba(igraph
Edge
p688
(dp689
g7
I1
sg8
I00
sg9
I5
sg10
(lp690
g117
ag187
asg26
I00
sg27
I00
sg28
I4569085
sg19
S'15295.834855'
p691
sba(igraph
Edge
p692
(dp693
g7
I1
sg8
I00
sg9
I5
sg10
(lp694
g124
ag187
asg26
I00
sg27
I00
sg28
I4569086
sg19
S'15295.8373237'
p695
sba(igraph
Edge
p696
(dp697
g7
I1
sg8
I00
sg9
I5
sg10
(lp698
g131
ag201
asg26
I00
sg27
I00
sg28
I4569087
sg19
S'15295.8398238'
p699
sba(igraph
Edge
p700
(dp701
g7
I1
sg8
I00
sg9
I5
sg10
(lp702
g138
ag201
asg26
I00
sg27
I00
sg28
I4569088
sg19
S'15295.8425138'
p703
sba(igraph
Edge
p704
(dp705
g7
I1
sg8
I00
sg9
I5
sg10
(lp706
g86
ag152
asg26
I00
sg27
I00
sg28
I4569089
sg19
S'15295.8450758'
p707
sba(igraph
Edge
p708
(dp709
g7
I1
sg8
I00
sg9
I5
sg10
(lp710
g89
ag152
asg26
I00
sg27
I00
sg28
I4569090
sg19
S'15295.8476418'
p711
sba(igraph
Edge
p712
(dp713
g7
I1
sg8
I00
sg9
I5
sg10
(lp714
g96
ag166
asg26
I00
sg27
I00
sg28
I4569091
sg19
S'15295.8502818'
p715
sba(igraph
Edge
p716
(dp717
g7
I1
sg8
I00
sg9
I5
sg10
(lp718
g103
ag166
asg26
I00
sg27
I00
sg28
I4569092
sg19
S'15295.852895'
p719
sba(igraph
Edge
p720
(dp721
g7
I1
sg8
I00
sg9
I5
sg10
(lp722
g110
ag180
asg26
I00
sg27
I00
sg28
I4569093
sg19
S'15295.8555903'
p723
sba(igraph
Edge
p724
(dp725
g7
I1
sg8
I00
sg9
I5
sg10
(lp726
g117
ag180
asg26
I00
sg27
I00
sg28
I4569094
sg19
S'15295.8582359'
p727
sba(igraph
Edge
p728
(dp729
g7
I1
sg8
I00
sg9
I5
sg10
(lp730
g124
ag194
asg26
I00
sg27
I00
sg28
I4569095
sg19
S'15295.8612173'
p731
sba(igraph
Edge
p732
(dp733
g7
I1
sg8
I00
sg9
I5
sg10
(lp734
g131
ag194
asg26
I00
sg27
I00
sg28
I4569096
sg19
S'15295.8639578'
p735
sba(igraph
Edge
p736
(dp737
g7
I1
sg8
I00
sg9
I5
sg10
(lp738
g138
ag149
asg26
I00
sg27
I00
sg28
I4569097
sg19
S'15295.8667191'
p739
sba(igraph
Edge
p740
(dp741
g7
I1
sg8
I00
sg9
I5
sg10
(lp742
g149
ag212
asg26
I00
sg27
I00
sg28
I4569098
sg19
S'15295.8694437'
p743
sba(igraph
Edge
p744
(dp745
g7
I1
sg8
I00
sg9
I5
sg10
(lp746
g152
ag222
asg26
I00
sg27
I00
sg28
I4569099
sg19
S'15295.8722528'
p747
sba(igraph
Edge
p748
(dp749
g7
I1
sg8
I00
sg9
I5
sg10
(lp750
g159
ag222
asg26
I00
sg27
I00
sg28
I4569100
sg19
S'15295.875176'
p751
sba(igraph
Edge
p752
(dp753
g7
I1
sg8
I00
sg9
I5
sg10
(lp754
g166
ag236
asg26
I00
sg27
I00
sg28
I4569101
sg19
S'15295.8779987'
p755
sba(igraph
Edge
p756
(dp757
g7
I1
sg8
I00
sg9
I5
sg10
(lp758
g173
ag236
asg26
I00
sg27
I00
sg28
I4569102
sg19
S'15295.8808371'
p759
sba(igraph
Edge
p760
(dp761
g7
I1
sg8
I00
sg9
I5
sg10
(lp762
g180
ag250
asg26
I00
sg27
I00
sg28
I4569103
sg19
S'15295.8836819'
p763
sba(igraph
Edge
p764
(dp765
g7
I1
sg8
I00
sg9
I5
sg10
(lp766
g187
ag250
asg26
I00
sg27
I00
sg28
I4569104
sg19
S'15295.8865308'
p767
sba(igraph
Edge
p768
(dp769
g7
I1
sg8
I00
sg9
I5
sg10
(lp770
g194
ag264
asg26
I00
sg27
I00
sg28
I4569105
sg19
S'15295.8895024'
p771
sba(igraph
Edge
p772
(dp773
g7
I1
sg8
I00
sg9
I5
sg10
(lp774
g201
ag264
asg26
I00
sg27
I00
sg28
I4569106
sg19
S'15295.8924087'
p775
sba(igraph
Edge
p776
(dp777
g7
I1
sg8
I00
sg9
I5
sg10
(lp778
g149
ag215
asg26
I00
sg27
I00
sg28
I4569107
sg19
S'15295.8953864'
p779
sba(igraph
Edge
p780
(dp781
g7
I1
sg8
I00
sg9
I5
sg10
(lp782
g152
ag215
asg26
I00
sg27
I00
sg28
I4569108
sg19
S'15295.8984164'
p783
sba(igraph
Edge
p784
(dp785
g7
I1
sg8
I00
sg9
I5
sg10
(lp786
g159
ag229
asg26
I00
sg27
I00
sg28
I4569109
sg19
S'15295.9013903'
p787
sba(igraph
Edge
p788
(dp789
g7
I1
sg8
I00
sg9
I5
sg10
(lp790
g166
ag229
asg26
I00
sg27
I00
sg28
I4569110
sg19
S'15295.9043719'
p791
sba(igraph
Edge
p792
(dp793
g7
I1
sg8
I00
sg9
I5
sg10
(lp794
g173
ag243
asg26
I00
sg27
I00
sg28
I4569111
sg19
S'15295.9074271'
p795
sba(igraph
Edge
p796
(dp797
g7
I1
sg8
I00
sg9
I5
sg10
(lp798
g180
ag243
asg26
I00
sg27
I00
sg28
I4569112
sg19
S'15295.9104316'
p799
sba(igraph
Edge
p800
(dp801
g7
I1
sg8
I00
sg9
I5
sg10
(lp802
g187
ag257
asg26
I00
sg27
I00
sg28
I4569113
sg19
S'15295.9136508'
p803
sba(igraph
Edge
p804
(dp805
g7
I1
sg8
I00
sg9
I5
sg10
(lp806
g194
ag257
asg26
I00
sg27
I00
sg28
I4569114
sg19
S'15295.9166981'
p807
sba(igraph
Edge
p808
(dp809
g7
I1
sg8
I00
sg9
I5
sg10
(lp810
g201
ag212
asg26
I00
sg27
I00
sg28
I4569115
sg19
S'15295.9198507'
p811
sba(igraph
Edge
p812
(dp813
g7
I1
sg8
I00
sg9
I5
sg10
(lp814
g212
ag275
asg26
I00
sg27
I00
sg28
I4569116
sg19
S'15295.9231436'
p815
sba(igraph
Edge
p816
(dp817
g7
I1
sg8
I00
sg9
I5
sg10
(lp818
g215
ag285
asg26
I00
sg27
I00
sg28
I4569117
sg19
S'15295.9263965'
p819
sba(igraph
Edge
p820
(dp821
g7
I1
sg8
I00
sg9
I5
sg10
(lp822
g222
ag285
asg26
I00
sg27
I00
sg28
I4569118
sg19
S'15295.9295737'
p823
sba(igraph
Edge
p824
(dp825
g7
I1
sg8
I00
sg9
I5
sg10
(lp826
g229
ag299
asg26
I00
sg27
I00
sg28
I4569119
sg19
S'15295.9327783'
p827
sba(igraph
Edge
p828
(dp829
g7
I1
sg8
I00
sg9
I5
sg10
(lp830
g236
ag299
asg26
I00
sg27
I00
sg28
I4569120
sg19
S'15295.9360402'
p831
sba(igraph
Edge
p832
(dp833
g7
I1
sg8
I00
sg9
I5
sg10
(lp834
g243
ag313
asg26
I00
sg27
I00
sg28
I4569121
sg19
S'15295.9393618'
p835
sba(igraph
Edge
p836
(dp837
g7
I1
sg8
I00
sg9
I5
sg10
(lp838
g250
ag313
asg26
I00
sg27
I00
sg28
I4569122
sg19
S'15295.9427137'
p839
sba(igraph
Edge
p840
(dp841
g7
I1
sg8
I00
sg9
I5
sg10
(lp842
g257
ag327
asg26
I00
sg27
I00
sg28
I4569123
sg19
S'15295.9459666'
p843
sba(igraph
Edge
p844
(dp845
g7
I1
sg8
I00
sg9
I5
sg10
(lp846
g264
ag327
asg26
I00
sg27
I00
sg28
I4569124
sg19
S'15295.9493335'
p847
sba(igraph
Edge
p848
(dp849
g7
I1
sg8
I00
sg9
I5
sg10
(lp850
g212
ag278
asg26
I00
sg27
I00
sg28
I4569125
sg19
S'15295.952708'
p851
sba(igraph
Edge
p852
(dp853
g7
I1
sg8
I00
sg9
I5
sg10
(lp854
g215
ag278
asg26
I00
sg27
I00
sg28
I4569126
sg19
S'15295.9560852'
p855
sba(igraph
Edge
p856
(dp857
g7
I1
sg8
I00
sg9
I5
sg10
(lp858
g222
ag292
asg26
I00
sg27
I00
sg28
I4569127
sg19
S'15295.9594549'
p859
sba(igraph
Edge
p860
(dp861
g7
I1
sg8
I00
sg9
I5
sg10
(lp862
g229
ag292
asg26
I00
sg27
I00
sg28
I4569128
sg19
S'15295.962893'
p863
sba(igraph
Edge
p864
(dp865
g7
I1
sg8
I00
sg9
I5
sg10
(lp866
g236
ag306
asg26
I00
sg27
I00
sg28
I4569129
sg19
S'15295.9662767'
p867
sba(igraph
Edge
p868
(dp869
g7
I1
sg8
I00
sg9
I5
sg10
(lp870
g243
ag306
asg26
I00
sg27
I00
sg28
I4569130
sg19
S'15295.9696665'
p871
sba(igraph
Edge
p872
(dp873
g7
I1
sg8
I00
sg9
I5
sg10
(lp874
g250
ag320
asg26
I00
sg27
I00
sg28
I4569131
sg19
S'15295.9731882'
p875
sba(igraph
Edge
p876
(dp877
g7
I1
sg8
I00
sg9
I5
sg10
(lp878
g257
ag320
asg26
I00
sg27
I00
sg28
I4569132
sg19
S'15295.9766685'
p879
sba(igraph
Edge
p880
(dp881
g7
I1
sg8
I00
sg9
I5
sg10
(lp882
g264
ag275
asg26
I00
sg27
I00
sg28
I4569133
sg19
S'15295.9801665'
p883
sba(igraph
Edge
p884
(dp885
g7
I1
sg8
I00
sg9
I5
sg10
(lp886
g275
ag338
asg26
I00
sg27
I00
sg28
I4569134
sg19
S'15295.9840499'
p887
sba(igraph
Edge
p888
(dp889
g7
I1
sg8
I00
sg9
I5
sg10
(lp890
g278
ag348
asg26
I00
sg27
I00
sg28
I4569135
sg19
S'15295.9876903'
p891
sba(igraph
Edge
p892
(dp893
g7
I1
sg8
I00
sg9
I5
sg10
(lp894
g285
ag348
asg26
I00
sg27
I00
sg28
I4569136
sg19
S'15295.9912433'
p895
sba(igraph
Edge
p896
(dp897
g7
I1
sg8
I00
sg9
I5
sg10
(lp898
g292
ag362
asg26
I00
sg27
I00
sg28
I4569137
sg19
S'15295.9948622'
p899
sba(igraph
Edge
p900
(dp901
g7
I1
sg8
I00
sg9
I5
sg10
(lp902
g299
ag362
asg26
I00
sg27
I00
sg28
I4569138
sg19
S'15295.9985001'
p903
sba(igraph
Edge
p904
(dp905
g7
I1
sg8
I00
sg9
I5
sg10
(lp906
g306
ag376
asg26
I00
sg27
I00
sg28
I4569139
sg19
S'15296.0021503'
p907
sba(igraph
Edge
p908
(dp909
g7
I1
sg8
I00
sg9
I5
sg10
(lp910
g313
ag376
asg26
I00
sg27
I00
sg28
I4569140
sg19
S'15296.0062405'
p911
sba(igraph
Edge
p912
(dp913
g7
I1
sg8
I00
sg9
I5
sg10
(lp914
g320
ag390
asg26
I00
sg27
I00
sg28
I4569141
sg19
S'15296.0098599'
p915
sba(igraph
Edge
p916
(dp917
g7
I1
sg8
I00
sg9
I5
sg10
(lp918
g327
ag390
asg26
I00
sg27
I00
sg28
I4569142
sg19
S'15296.013554'
p919
sba(igraph
Edge
p920
(dp921
g7
I1
sg8
I00
sg9
I5
sg10
(lp922
g275
ag341
asg26
I00
sg27
I00
sg28
I4569143
sg19
S'15296.0172902'
p923
sba(igraph
Edge
p924
(dp925
g7
I1
sg8
I00
sg9
I5
sg10
(lp926
g278
ag341
asg26
I00
sg27
I00
sg28
I4569144
sg19
S'15296.0251772'
p927
sba(igraph
Edge
p928
(dp929
g7
I1
sg8
I00
sg9
I5
sg10
(lp930
g285
ag355
asg26
I00
sg27
I00
sg28
I4569145
sg19
S'15296.0293873'
p931
sba(igraph
Edge
p932
(dp933
g7
I1
sg8
I00
sg9
I5
sg10
(lp934
g292
ag355
asg26
I00
sg27
I00
sg28
I4569146
sg19
S'15296.0335626'
p935
sba(igraph
Edge
p936
(dp937
g7
I1
sg8
I00
sg9
I5
sg10
(lp938
g299
ag369
asg26
I00
sg27
I00
sg28
I4569147
sg19
S'15296.0376995'
p939
sba(igraph
Edge
p940
(dp941
g7
I1
sg8
I00
sg9
I5
sg10
(lp942
g306
ag369
asg26
I00
sg27
I00
sg28
I4569148
sg19
S'15296.0418576'
p943
sba(igraph
Edge
p944
(dp945
g7
I1
sg8
I00
sg9
I5
sg10
(lp946
g313
ag383
asg26
I00
sg27
I00
sg28
I4569149
sg19
S'15296.0466484'
p947
sba(igraph
Edge
p948
(dp949
g7
I1
sg8
I00
sg9
I5
sg10
(lp950
g320
ag383
asg26
I00
sg27
I00
sg28
I4569150
sg19
S'15296.0513867'
p951
sba(igraph
Edge
p952
(dp953
g7
I1
sg8
I00
sg9
I5
sg10
(lp954
g327
ag338
asg26
I00
sg27
I00
sg28
I4569151
sg19
S'15296.0556135'
p955
sba(igraph
Edge
p956
(dp957
g7
I1
sg8
I00
sg9
I5
sg10
(lp958
g338
ag401
asg26
I00
sg27
I00
sg28
I4569152
sg19
S'15296.0607675'
p959
sba(igraph
Edge
p960
(dp961
g7
I1
sg8
I00
sg9
I5
sg10
(lp962
g341
ag411
asg26
I00
sg27
I00
sg28
I4569153
sg19
S'15296.0656877'
p963
sba(igraph
Edge
p964
(dp965
g7
I1
sg8
I00
sg9
I5
sg10
(lp966
g348
ag411
asg26
I00
sg27
I00
sg28
I4569154
sg19
S'15296.0755979'
p967
sba(igraph
Edge
p968
(dp969
g7
I1
sg8
I00
sg9
I5
sg10
(lp970
g355
ag425
asg26
I00
sg27
I00
sg28
I4569155
sg19
S'15296.0808173'
p971
sba(igraph
Edge
p972
(dp973
g7
I1
sg8
I00
sg9
I5
sg10
(lp974
g362
ag425
asg26
I00
sg27
I00
sg28
I4569156
sg19
S'15296.0856584'
p975
sba(igraph
Edge
p976
(dp977
g7
I1
sg8
I00
sg9
I5
sg10
(lp978
g369
ag439
asg26
I00
sg27
I00
sg28
I4569157
sg19
S'15296.0906216'
p979
sba(igraph
Edge
p980
(dp981
g7
I1
sg8
I00
sg9
I5
sg10
(lp982
g376
ag439
asg26
I00
sg27
I00
sg28
I4569158
sg19
S'15296.0956454'
p983
sba(igraph
Edge
p984
(dp985
g7
I1
sg8
I00
sg9
I5
sg10
(lp986
g383
ag453
asg26
I00
sg27
I00
sg28
I4569159
sg19
S'15296.1024887'
p987
sba(igraph
Edge
p988
(dp989
g7
I1
sg8
I00
sg9
I5
sg10
(lp990
g390
ag453
asg26
I00
sg27
I00
sg28
I4569160
sg19
S'15296.1081135'
p991
sba(igraph
Edge
p992
(dp993
g7
I1
sg8
I00
sg9
I5
sg10
(lp994
g338
ag404
asg26
I00
sg27
I00
sg28
I4569161
sg19
S'15296.112992'
p995
sba(igraph
Edge
p996
(dp997
g7
I1
sg8
I00
sg9
I5
sg10
(lp998
g341
ag404
asg26
I00
sg27
I00
sg28
I4569162
sg19
S'15296.1189285'
p999
sba(igraph
Edge
p1000
(dp1001
g7
I1
sg8
I00
sg9
I5
sg10
(lp1002
g348
ag418
asg26
I00
sg27
I00
sg28
I4569163
sg19
S'15296.1236984'
p1003
sba(igraph
Edge
p1004
(dp1005
g7
I1
sg8
I00
sg9
I5
sg10
(lp1006
g355
ag418
asg26
I00
sg27
I00
sg28
I4569164
sg19
S'15296.1287278'
p1007
sba(igraph
Edge
p1008
(dp1009
g7
I1
sg8
I00
sg9
I5
sg10
(lp1010
g362
ag432
asg26
I00
sg27
I00
sg28
I4569165
sg19
S'15296.1334801'
p1011
sba(igraph
Edge
p1012
(dp1013
g7
I1
sg8
I00
sg9
I5
sg10
(lp1014
g369
ag432
asg26
I00
sg27
I00
sg28
I4569166
sg19
S'15296.137722'
p1015
sba(igraph
Edge
p1016
(dp1017
g7
I1
sg8
I00
sg9
I5
sg10
(lp1018
g376
ag446
asg26
I00
sg27
I00
sg28
I4569167
sg19
S'15296.1419569'
p1019
sba(igraph
Edge
p1020
(dp1021
g7
I1
sg8
I00
sg9
I5
sg10
(lp1022
g383
ag446
asg26
I00
sg27
I00
sg28
I4569168
sg19
S'15296.146491'
p1023
sba(igraph
Edge
p1024
(dp1025
g7
I1
sg8
I00
sg9
I5
sg10
(lp1026
g390
ag401
asg26
I00
sg27
I00
sg28
I4569169
sg19
S'15296.1508287'
p1027
sba(igraph
Edge
p1028
(dp1029
g7
I1
sg8
I00
sg9
I5
sg10
(lp1030
g401
ag464
asg26
I00
sg27
I00
sg28
I4569170
sg19
S'15296.1551113'
p1031
sba(igraph
Edge
p1032
(dp1033
g7
I1
sg8
I00
sg9
I5
sg10
(lp1034
g404
ag474
asg26
I00
sg27
I00
sg28
I4569171
sg19
S'15296.1607269'
p1035
sba(igraph
Edge
p1036
(dp1037
g7
I1
sg8
I00
sg9
I5
sg10
(lp1038
g411
ag474
asg26
I00
sg27
I00
sg28
I4569172
sg19
S'15296.1651567'
p1039
sba(igraph
Edge
p1040
(dp1041
g7
I1
sg8
I00
sg9
I5
sg10
(lp1042
g418
ag488
asg26
I00
sg27
I00
sg28
I4569173
sg19
S'15296.169642'
p1043
sba(igraph
Edge
p1044
(dp1045
g7
I1
sg8
I00
sg9
I5
sg10
(lp1046
g425
ag488
asg26
I00
sg27
I00
sg28
I4569174
sg19
S'15296.174173'
p1047
sba(igraph
Edge
p1048
(dp1049
g7
I1
sg8
I00
sg9
I5
sg10
(lp1050
g432
ag502
asg26
I00
sg27
I00
sg28
I4569175
sg19
S'15296.179101'
p1051
sba(igraph
Edge
p1052
(dp1053
g7
I1
sg8
I00
sg9
I5
sg10
(lp1054
g439
ag502
asg26
I00
sg27
I00
sg28
I4569176
sg19
S'15296.1835968'
p1055
sba(igraph
Edge
p1056
(dp1057
g7
I1
sg8
I00
sg9
I5
sg10
(lp1058
g446
ag516
asg26
I00
sg27
I00
sg28
I4569177
sg19
S'15296.1881762'
p1059
sba(igraph
Edge
p1060
(dp1061
g7
I1
sg8
I00
sg9
I5
sg10
(lp1062
g453
ag516
asg26
I00
sg27
I00
sg28
I4569178
sg19
S'15296.1928485'
p1063
sba(igraph
Edge
p1064
(dp1065
g7
I1
sg8
I00
sg9
I5
sg10
(lp1066
g401
ag467
asg26
I00
sg27
I00
sg28
I4569179
sg19
S'15296.197403'
p1067
sba(igraph
Edge
p1068
(dp1069
g7
I1
sg8
I00
sg9
I5
sg10
(lp1070
g404
ag467
asg26
I00
sg27
I00
sg28
I4569180
sg19
S'15296.2019748'
p1071
sba(igraph
Edge
p1072
(dp1073
g7
I1
sg8
I00
sg9
I5
sg10
(lp1074
g411
ag481
asg26
I00
sg27
I00
sg28
I4569181
sg19
S'15296.206762'
p1075
sba(igraph
Edge
p1076
(dp1077
g7
I1
sg8
I00
sg9
I5
sg10
(lp1078
g418
ag481
asg26
I00
sg27
I00
sg28
I4569182
sg19
S'15296.2129885'
p1079
sba(igraph
Edge
p1080
(dp1081
g7
I1
sg8
I00
sg9
I5
sg10
(lp1082
g425
ag495
asg26
I00
sg27
I00
sg28
I4569183
sg19
S'15296.2176285'
p1083
sba(igraph
Edge
p1084
(dp1085
g7
I1
sg8
I00
sg9
I5
sg10
(lp1086
g432
ag495
asg26
I00
sg27
I00
sg28
I4569184
sg19
S'15296.2239639'
p1087
sba(igraph
Edge
p1088
(dp1089
g7
I1
sg8
I00
sg9
I5
sg10
(lp1090
g439
ag509
asg26
I00
sg27
I00
sg28
I4569185
sg19
S'15296.228969'
p1091
sba(igraph
Edge
p1092
(dp1093
g7
I1
sg8
I00
sg9
I5
sg10
(lp1094
g446
ag509
asg26
I00
sg27
I00
sg28
I4569186
sg19
S'15296.2336414'
p1095
sba(igraph
Edge
p1096
(dp1097
g7
I1
sg8
I00
sg9
I5
sg10
(lp1098
g453
ag464
asg26
I00
sg27
I00
sg28
I4569187
sg19
S'15296.238394'
p1099
sbasS'vertices'
p1100
(lp1101
g12
ag22
ag33
ag40
ag47
ag54
ag61
ag68
ag75
ag86
ag89
ag96
ag103
ag110
ag117
ag124
ag131
ag138
ag149
ag152
ag159
ag166
ag173
ag180
ag187
ag194
ag201
ag212
ag215
ag222
ag229
ag236
ag243
ag250
ag257
ag264
ag275
ag278
ag285
ag292
ag299
ag306
ag313
ag320
ag327
ag338
ag341
ag348
ag355
ag362
ag369
ag376
ag383
ag390
ag401
ag404
ag411
ag418
ag425
ag432
ag439
ag446
ag453
ag464
ag467
ag474
ag481
ag488
ag495
ag502
ag509
ag516
asS'tags'
p1102
(lp1103
sb.