(igraph
Graph
p0
(dp1
S'labelingConstraints'
p2
(lp3
I2
aI1
asS'edges'
p4
(lp5
(igraph
Edge
p6
(dp7
S'direction'
p8
I1
sS'color'
p9
NsS'selected'
p10
I00
sS'height'
p11
I5
sS'vs'
p12
(lp13
(igraph
Vertex
p14
(dp15
g9
S'#000000'
p16
sS'text'
p17
Nsg10
I00
sS'label'
p18
S'NULL'
p19
sS'shape'
p20
I0
sS'circle'
p21
I28123
sS'ly'
p22
I-12
sS'y'
p23
F2.8421709430404007e-14
sS'x'
p24
F90.096886790241911
sS'lsize'
p25
I16
sS'lcolor'
p26
S'black'
p27
sS'id'
p28
S'56.8037504767'
p29
sS'lx'
p30
I-12
sS'size'
p31
I8
sba(igraph
Vertex
p32
(dp33
g9
g16
sg17
Nsg10
I00
sg18
g19
sg20
I0
sg21
I28127
sg22
I-12
sg23
F43.388373911755828
sg24
F-100.0
sg25
I16
sg26
g27
sg28
S'56.8040642037'
p34
sg30
I-12
sg31
I8
sbasS'wrap'
p35
I00
sS'curved'
p36
I00
sS'line'
p37
I28102
sg28
S'56.8067173342'
p38
sg31
I3
sba(igraph
Edge
p39
(dp40
g8
I1
sg9
Nsg10
I00
sg11
I5
sg12
(lp41
(igraph
Vertex
p42
(dp43
g9
g16
sg17
Nsg10
I00
sg18
g19
sg20
I0
sg21
I28124
sg22
I-12
sg23
F-78.183148246802958
sg24
F52.445866976115269
sg25
I16
sg26
g27
sg28
S'56.803803556'
p44
sg30
I-12
sg31
I8
sba(igraph
Vertex
p45
(dp46
g9
g16
sg17
Nsg10
I00
sg18
g19
sg20
I0
sg21
I28128
sg22
I-12
sg23
F97.492791218182361
sg24
F-32.155206605389637
sg25
I16
sg26
g27
sg28
S'56.804228191'
p47
sg30
I-12
sg31
I8
sbasg35
I00
sg36
I00
sg37
I28103
sg28
S'56.8068402548'
p48
sg31
I3
sba(igraph
Edge
p49
(dp50
g8
I1
sg9
Nsg10
I00
sg11
I5
sg12
(lp51
(igraph
Vertex
p52
(dp53
g9
g16
sg17
Nsg10
I00
sg18
g19
sg20
I0
sg21
I28125
sg22
I-12
sg23
F-97.492791218182333
sg24
F-32.155206605389523
sg25
I16
sg26
g27
sg28
S'56.8038703243'
p54
sg30
I-12
sg31
I8
sba(igraph
Vertex
p55
(dp56
g9
g16
sg17
Nsg10
I00
sg18
g19
sg20
I0
sg21
I28129
sg22
I-12
sg23
F78.183148246803071
sg24
F52.445866976115184
sg25
I16
sg26
g27
sg28
S'56.8043868704'
p57
sg30
I-12
sg31
I8
sbasg35
I00
sg36
I00
sg37
I28104
sg28
S'56.8069997723'
p58
sg31
I3
sba(igraph
Edge
p59
(dp60
g8
I1
sg9
Nsg10
I00
sg11
I5
sg12
(lp61
(igraph
Vertex
p62
(dp63
g9
g16
sg17
Nsg10
I00
sg18
g19
sg20
I0
sg21
I28126
sg22
I-12
sg23
F-43.388373911755792
sg24
F-100.0
sg25
I16
sg26
g27
sg28
S'56.8039563688'
p64
sg30
I-12
sg31
I8
sbag14
asg35
I00
sg36
I00
sg37
I28105
sg28
S'56.8071956073'
p65
sg31
I3
sba(igraph
Edge
p66
(dp67
g8
I1
sg9
Nsg10
I00
sg11
I5
sg12
(lp68
g32
ag42
asg35
I00
sg36
I00
sg37
I28106
sg28
S'56.8074327882'
p69
sg31
I3
sba(igraph
Edge
p70
(dp71
g8
I1
sg9
Nsg10
I00
sg11
I5
sg12
(lp72
g45
ag52
asg35
I00
sg36
I00
sg37
I28107
sg28
S'56.8077152264'
p73
sg31
I3
sba(igraph
Edge
p74
(dp75
g8
I1
sg9
Nsg10
I00
sg11
I5
sg12
(lp76
g55
ag62
asg35
I00
sg36
I00
sg37
I28108
sg28
S'56.8080345407'
p77
sg31
I3
sba(igraph
Edge
p78
(dp79
g8
I1
sg9
g27
sg10
I00
sg11
I5
sg12
(lp80
(igraph
Vertex
p81
(dp82
g9
S'#ffffff'
p83
sg17
Nsg10
I00
sg18
g19
sg20
I0
sg21
I28131
sg22
I-12
sg23
F2.8421709430404007e-14
sg24
F190.09688679024191
sg25
I16
sg26
g27
sg28
S'56.804567899'
p84
sg30
I-12
sg31
I8
sba(igraph
Vertex
p85
(dp86
g9
g83
sg17
Nsg10
I00
sg18
g19
sg20
I0
sg21
I28133
sg22
I-12
sg23
F-156.36629649360594
sg24
F114.79484716198863
sg25
I16
sg26
g27
sg28
S'56.8047732324'
p87
sg30
I-12
sg31
I8
sbasg35
I00
sg36
I00
sg37
I28109
sg28
S'56.8083946423'
p88
sg31
I3
sba(igraph
Edge
p89
(dp90
g8
I1
sg9
g27
sg10
I00
sg11
I5
sg12
(lp91
g85
a(igraph
Vertex
p92
(dp93
g9
g83
sg17
Nsg10
I00
sg18
g19
sg20
I0
sg21
I28135
sg22
I-12
sg23
F-194.98558243636469
sg24
F-54.407300001020957
sg25
I16
sg26
g27
sg28
S'56.8050067816'
p94
sg30
I-12
sg31
I8
sbasg35
I00
sg36
I00
sg37
I28110
sg28
S'56.8087977662'
p95
sg31
I3
sba(igraph
Edge
p96
(dp97
g8
I1
sg9
g27
sg10
I00
sg11
I5
sg12
(lp98
g92
a(igraph
Vertex
p99
(dp100
g9
g83
sg17
Nsg10
I00
sg18
g19
sg20
I0
sg21
I28137
sg22
I-12
sg23
F-86.776747823511613
sg24
F-190.09688679024191
sg25
I16
sg26
g27
sg28
S'56.80528028'
p101
sg30
I-12
sg31
I8
sbasg35
I00
sg36
I00
sg37
I28111
sg28
S'56.8092455885'
p102
sg31
I3
sba(igraph
Edge
p103
(dp104
g8
I1
sg9
g27
sg10
I00
sg11
I5
sg12
(lp105
g99
a(igraph
Vertex
p106
(dp107
g9
g83
sg17
Nsg10
I00
sg18
g19
sg20
I0
sg21
I28139
sg22
I-12
sg23
F86.776747823511627
sg24
F-190.09688679024191
sg25
I16
sg26
g27
sg28
S'56.8055646737'
p108
sg30
I-12
sg31
I8
sbasg35
I00
sg36
I00
sg37
I28112
sg28
S'56.8097353155'
p109
sg31
I3
sba(igraph
Edge
p110
(dp111
g8
I1
sg9
g27
sg10
I00
sg11
I5
sg12
(lp112
g106
a(igraph
Vertex
p113
(dp114
g9
g83
sg17
Nsg10
I00
sg18
g19
sg20
I0
sg21
I28141
sg22
I-12
sg23
F194.98558243636469
sg24
F-54.407300001021177
sg25
I16
sg26
g27
sg28
S'56.8058697404'
p115
sg30
I-12
sg31
I8
sbasg35
I00
sg36
I00
sg37
I28113
sg28
S'56.810263595'
p116
sg31
I3
sba(igraph
Edge
p117
(dp118
g8
I1
sg9
g27
sg10
I00
sg11
I5
sg12
(lp119
g113
a(igraph
Vertex
p120
(dp121
g9
g83
sg17
Nsg10
I00
sg18
g19
sg20
I0
sg21
I28143
sg22
I-12
sg23
F156.36629649360611
sg24
F114.79484716198846
sg25
I16
sg26
g27
sg28
S'56.8063016389'
p122
sg30
I-12
sg31
I8
sbasg35
I00
sg36
I00
sg37
I28114
sg28
S'56.8108307061'
p123
sg31
I3
sba(igraph
Edge
p124
(dp125
g8
I1
sg9
g27
sg10
I00
sg11
I5
sg12
(lp126
g120
ag81
asg35
I00
sg36
I00
sg37
I28115
sg28
S'56.8114425157'
p127
sg31
I3
sba(igraph
Edge
p128
(dp129
g8
I1
sg9
g27
sg10
I00
sg11
I5
sg12
(lp130
g14
ag81
asg35
I00
sg36
I00
sg37
I28116
sg28
S'56.8120875698'
p131
sg31
I3
sba(igraph
Edge
p132
(dp133
g8
I1
sg9
g27
sg10
I00
sg11
I5
sg12
(lp134
g42
ag85
asg35
I00
sg36
I00
sg37
I28117
sg28
S'56.8127792778'
p135
sg31
I3
sba(igraph
Edge
p136
(dp137
g8
I1
sg9
g27
sg10
I00
sg11
I5
sg12
(lp138
g52
ag92
asg35
I00
sg36
I00
sg37
I28118
sg28
S'56.8135042303'
p139
sg31
I3
sba(igraph
Edge
p140
(dp141
g8
I1
sg9
g27
sg10
I00
sg11
I5
sg12
(lp142
g62
ag99
asg35
I00
sg36
I00
sg37
I28119
sg28
S'56.8142817034'
p143
sg31
I3
sba(igraph
Edge
p144
(dp145
g8
I1
sg9
g27
sg10
I00
sg11
I5
sg12
(lp146
g32
ag106
asg35
I00
sg36
I00
sg37
I28120
sg28
S'56.8150974495'
p147
sg31
I3
sba(igraph
Edge
p148
(dp149
g8
I1
sg9
g27
sg10
I00
sg11
I5
sg12
(lp150
g45
ag113
asg35
I00
sg36
I00
sg37
I28121
sg28
S'56.8159986814'
p151
sg31
I3
sba(igraph
Edge
p152
(dp153
g8
I1
sg9
g27
sg10
I00
sg11
I5
sg12
(lp154
g55
ag120
asg35
I00
sg36
I00
sg37
I28122
sg28
S'56.8168985164'
p155
sg31
I3
sbasS'vertices'
p156
(lp157
g14
ag42
ag52
ag62
ag32
ag45
ag55
ag81
ag85
ag92
ag99
ag106
ag113
ag120
asS'tags'
p158
(lp159
sb.