(igraph
Graph
p0
(dp1
S'labelingConstraints'
p2
I-1
sS'edges'
p3
(lp4
(igraph
Edge
p5
(dp6
S'direction'
p7
I1
sS'selected'
p8
I00
sS'height'
p9
I5
sS'vs'
p10
(lp11
(igraph
Vertex
p12
(dp13
S'y'
p14
F-102.0
sS'x'
p15
F-125.0
sS'circle'
p16
I9208603
sg8
I00
sS'id'
p17
S'83865.9339679'
p18
sS'label'
p19
S'NULL'
p20
sba(igraph
Vertex
p21
(dp22
g14
F-99.61905624902387
sg15
F-78.708990221182276
sg16
I9208604
sg8
I00
sg17
S'83865.9340039'
p23
sg19
g20
sbasS'wrap'
p24
I00
sS'curved'
p25
I00
sS'line'
p26
I9208523
sg17
S'83865.9419368'
p27
sba(igraph
Edge
p28
(dp29
g7
I1
sg8
I00
sg9
I5
sg10
(lp30
g21
a(igraph
Vertex
p31
(dp32
g14
F-95.957712760462215
sg15
F-25.214007642313547
sg16
I9208605
sg8
I00
sg17
S'83865.9340458'
p33
sg19
g20
sbasg24
I00
sg25
I00
sg26
I9208524
sg17
S'83865.9420619'
p34
sba(igraph
Edge
p35
(dp36
g7
I1
sg8
I00
sg9
I5
sg10
(lp37
g31
a(igraph
Vertex
p38
(dp39
g14
F-94.124357530294418
sg15
F26.772229153775687
sg16
I9208606
sg8
I00
sg17
S'83865.9340994'
p40
sg19
g20
sbasg24
I00
sg25
I00
sg26
I9208525
sg17
S'83865.9422304'
p41
sba(igraph
Edge
p42
(dp43
g7
I1
sg8
I00
sg9
I5
sg10
(lp44
g38
a(igraph
Vertex
p45
(dp46
g14
F-100.0
sg15
F80.0
sg16
I9208607
sg8
I00
sg17
S'83865.9341657'
p47
sg19
g20
sbasg24
I00
sg25
I00
sg26
I9208526
sg17
S'83865.9424432'
p48
sba(igraph
Edge
p49
(dp50
g7
I1
sg8
I00
sg9
I5
sg10
(lp51
(igraph
Vertex
p52
(dp53
g14
F-57.044434934482844
sg15
F-110.67758447142485
sg16
I9208608
sg8
I00
sg17
S'83865.934247'
p54
sg19
g20
sba(igraph
Vertex
p55
(dp56
g14
F-51.300378041227482
sg15
F-59.10933877285099
sg16
I9208609
sg8
I00
sg17
S'83865.9343453'
p57
sg19
g20
sbasg24
I00
sg25
I00
sg26
I9208527
sg17
S'83865.9427285'
p58
sba(igraph
Edge
p59
(dp60
g7
I1
sg8
I00
sg9
I5
sg10
(lp61
g55
a(igraph
Vertex
p62
(dp63
g14
F-46.567126554263211
sg15
F-4.2835348418817283
sg16
I9208610
sg8
I00
sg17
S'83865.9344573'
p64
sg19
g20
sbasg24
I00
sg25
I00
sg26
I9208528
sg17
S'83865.9430372'
p65
sba(igraph
Edge
p66
(dp67
g7
I1
sg8
I00
sg9
I5
sg10
(lp68
g62
a(igraph
Vertex
p69
(dp70
g14
F-45.998582890929747
sg15
F50.305171674197098
sg16
I9208611
sg8
I00
sg17
S'83865.9345858'
p71
sg19
g20
sbasg24
I00
sg25
I00
sg26
I9208529
sg17
S'83865.9433883'
p72
sba(igraph
Edge
p73
(dp74
g7
I1
sg8
I00
sg9
I5
sg10
(lp75
g69
a(igraph
Vertex
p76
(dp77
g14
F-41.392089357199332
sg15
F102.1482568498422
sg16
I9208612
sg8
I00
sg17
S'83865.9347305'
p78
sg19
g20
sbasg24
I00
sg25
I00
sg26
I9208530
sg17
S'83865.9438107'
p79
sba(igraph
Edge
p80
(dp81
g7
I1
sg8
I00
sg9
I5
sg10
(lp82
(igraph
Vertex
p83
(dp84
g14
F-6.1527902134198271
sg15
F-91.356056529746738
sg16
I9208613
sg8
I00
sg17
S'83865.9349361'
p85
sg19
g20
sba(igraph
Vertex
p86
(dp87
g14
F0.37818828312311314
sg15
F-38.279921626089504
sg16
I9208614
sg8
I00
sg17
S'83865.9351247'
p88
sg19
g20
sbasg24
I00
sg25
I00
sg26
I9208531
sg17
S'83865.944258'
p89
sba(igraph
Edge
p90
(dp91
g7
I1
sg8
I00
sg9
I5
sg10
(lp92
g86
a(igraph
Vertex
p93
(dp94
g14
F4.7361817834678712
sg15
F16.315289687102485
sg16
I9208615
sg8
I00
sg17
S'83865.9353214'
p95
sg19
g20
sbasg24
I00
sg25
I00
sg26
I9208532
sg17
S'83865.9447843'
p96
sba(igraph
Edge
p97
(dp98
g7
I1
sg8
I00
sg9
I5
sg10
(lp99
g93
a(igraph
Vertex
p100
(dp101
g14
F6.0726071509921287
sg15
F70.949950104011819
sg16
I9208616
sg8
I00
sg17
S'83865.9355351'
p102
sg19
g20
sbasg24
I00
sg25
I00
sg26
I9208533
sg17
S'83865.9453704'
p103
sba(igraph
Edge
p104
(dp105
g7
I1
sg8
I00
sg9
I5
sg10
(lp106
g100
a(igraph
Vertex
p107
(dp108
g14
F12.228066009483102
sg15
F123.94689373215274
sg16
I9208617
sg8
I00
sg17
S'83865.9357633'
p109
sg19
g20
sbasg24
I00
sg25
I00
sg26
I9208534
sg17
S'83865.9459845'
p110
sba(igraph
Edge
p111
(dp112
g7
I1
sg8
I00
sg9
I5
sg10
(lp113
(igraph
Vertex
p114
(dp115
g14
F45.55710874679076
sg15
F-70.657589841435353
sg16
I9208618
sg8
I00
sg17
S'83865.9360201'
p116
sg19
g20
sba(igraph
Vertex
p117
(dp118
g14
F52.519997363543808
sg15
F-17.570264218116698
sg16
I9208619
sg8
I00
sg17
S'83865.9362832'
p119
sg19
g20
sbasg24
I00
sg25
I00
sg26
I9208535
sg17
S'83865.9466161'
p120
sba(igraph
Edge
p121
(dp122
g7
I1
sg8
I00
sg9
I5
sg10
(lp123
g117
a(igraph
Vertex
p124
(dp125
g14
F53.172847251281617
sg15
F37.281949139024299
sg16
I9208620
sg8
I00
sg17
S'83865.9365573'
p126
sg19
g20
sbasg24
I00
sg25
I00
sg26
I9208536
sg17
S'83865.9472922'
p127
sba(igraph
Edge
p128
(dp129
g7
I1
sg8
I00
sg9
I5
sg10
(lp130
g124
a(igraph
Vertex
p131
(dp132
g14
F57.871425082865024
sg15
F91.932001424254409
sg16
I9208621
sg8
I00
sg17
S'83865.9368638'
p133
sg19
g20
sbasg24
I00
sg25
I00
sg26
I9208537
sg17
S'83865.9481124'
p134
sba(igraph
Edge
p135
(dp136
g7
I1
sg8
I00
sg9
I5
sg10
(lp137
g131
a(igraph
Vertex
p138
(dp139
g14
F64.339650344042127
sg15
F145.54842175356333
sg16
I9208622
sg8
I00
sg17
S'83865.9371744'
p140
sg19
g20
sbasg24
I00
sg25
I00
sg26
I9208538
sg17
S'83865.9488829'
p141
sba(igraph
Edge
p142
(dp143
g7
I1
sg8
I00
sg9
I5
sg10
(lp144
(igraph
Vertex
p145
(dp146
g14
F98.640148014074157
sg15
F-49.905330932454255
sg16
I9208623
sg8
I00
sg17
S'83865.9374976'
p147
sg19
g20
sba(igraph
Vertex
p148
(dp149
g14
F103.95335872715408
sg15
F3.0386873295011902
sg16
I9208624
sg8
I00
sg17
S'83865.9378446'
p150
sg19
g20
sbasg24
I00
sg25
I00
sg26
I9208539
sg17
S'83865.9497322'
p151
sba(igraph
Edge
p152
(dp153
g7
I1
sg8
I00
sg9
I5
sg10
(lp154
g148
a(igraph
Vertex
p155
(dp156
g14
F105.27313561745555
sg15
F57.573199130602454
sg16
I9208625
sg8
I00
sg17
S'83865.9382056'
p157
sg19
g20
sbasg24
I00
sg25
I00
sg26
I9208540
sg17
S'83865.9506949'
p158
sba(igraph
Edge
p159
(dp160
g7
I1
sg8
I00
sg9
I5
sg10
(lp161
g155
a(igraph
Vertex
p162
(dp163
g14
F109.84339726562688
sg15
F114.46271276008943
sg16
I9208626
sg8
I00
sg17
S'83865.9385816'
p164
sg19
g20
sbasg24
I00
sg25
I00
sg26
I9208541
sg17
S'83865.9516137'
p165
sba(igraph
Edge
p166
(dp167
g7
I1
sg8
I00
sg9
I5
sg10
(lp168
g162
a(igraph
Vertex
p169
(dp170
g14
F115.77590246226191
sg15
F167.16990392206452
sg16
I9208627
sg8
I00
sg17
S'83865.9389847'
p171
sg19
g20
sbasg24
I00
sg25
I00
sg26
I9208542
sg17
S'83865.9526051'
p172
sba(igraph
Edge
p173
(dp174
g7
I1
sg8
I00
sg9
I5
sg10
(lp175
(igraph
Vertex
p176
(dp177
g14
F154.0
sg15
F-30.0
sg16
I9208628
sg8
I00
sg17
S'83865.9393929'
p178
sg19
g20
sba(igraph
Vertex
p179
(dp180
g14
F151.92558161129591
sg15
F26.706801985386825
sg16
I9208629
sg8
I00
sg17
S'83865.9399102'
p181
sg19
g20
sbasg24
I00
sg25
I00
sg26
I9208543
sg17
S'83865.9536813'
p182
sba(igraph
Edge
p183
(dp184
g7
I1
sg8
I00
sg9
I5
sg10
(lp185
g179
a(igraph
Vertex
p186
(dp187
g14
F153.94347475716526
sg15
F81.983829639297269
sg16
I9208630
sg8
I00
sg17
S'83865.9404178'
p188
sg19
g20
sbasg24
I00
sg25
I00
sg26
I9208544
sg17
S'83865.9547716'
p189
sba(igraph
Edge
p190
(dp191
g7
I1
sg8
I00
sg9
I5
sg10
(lp192
g186
a(igraph
Vertex
p193
(dp194
g14
F157.88269638581244
sg15
F136.89924586816062
sg16
I9208631
sg8
I00
sg17
S'83865.9409165'
p195
sg19
g20
sbasg24
I00
sg25
I00
sg26
I9208545
sg17
S'83865.9558782'
p196
sba(igraph
Edge
p197
(dp198
g7
I1
sg8
I00
sg9
I5
sg10
(lp199
g193
a(igraph
Vertex
p200
(dp201
g14
F162.0
sg15
F186.0
sg16
I9208632
sg8
I00
sg17
S'83865.9413959'
p202
sg19
g20
sbasg24
I00
sg25
I00
sg26
I9208546
sg17
S'83865.9574885'
p203
sba(igraph
Edge
p204
(dp205
g7
I1
sg8
I00
sg9
I5
sg10
(lp206
g12
ag52
asg24
I00
sg25
I00
sg26
I9208547
sg17
S'83865.959137'
p207
sba(igraph
Edge
p208
(dp209
g7
I1
sg8
I00
sg9
I5
sg10
(lp210
g21
ag55
asg24
I00
sg25
I00
sg26
I9208548
sg17
S'83865.9603857'
p211
sba(igraph
Edge
p212
(dp213
g7
I1
sg8
I00
sg9
I5
sg10
(lp214
g31
ag62
asg24
I00
sg25
I00
sg26
I9208549
sg17
S'83865.9617773'
p215
sba(igraph
Edge
p216
(dp217
g7
I1
sg8
I00
sg9
I5
sg10
(lp218
g38
ag69
asg24
I00
sg25
I00
sg26
I9208550
sg17
S'83865.9632358'
p219
sba(igraph
Edge
p220
(dp221
g7
I1
sg8
I00
sg9
I5
sg10
(lp222
g45
ag76
asg24
I00
sg25
I00
sg26
I9208551
sg17
S'83865.9646352'
p223
sba(igraph
Edge
p224
(dp225
g7
I1
sg8
I00
sg9
I5
sg10
(lp226
g52
ag83
asg24
I00
sg25
I00
sg26
I9208552
sg17
S'83865.9660851'
p227
sba(igraph
Edge
p228
(dp229
g7
I1
sg8
I00
sg9
I5
sg10
(lp230
g55
ag86
asg24
I00
sg25
I00
sg26
I9208553
sg17
S'83865.9677629'
p231
sba(igraph
Edge
p232
(dp233
g7
I1
sg8
I00
sg9
I5
sg10
(lp234
g62
ag93
asg24
I00
sg25
I00
sg26
I9208554
sg17
S'83865.9693592'
p235
sba(igraph
Edge
p236
(dp237
g7
I1
sg8
I00
sg9
I5
sg10
(lp238
g69
ag100
asg24
I00
sg25
I00
sg26
I9208555
sg17
S'83865.9710114'
p239
sba(igraph
Edge
p240
(dp241
g7
I1
sg8
I00
sg9
I5
sg10
(lp242
g76
ag107
asg24
I00
sg25
I00
sg26
I9208556
sg17
S'83865.9727516'
p243
sba(igraph
Edge
p244
(dp245
g7
I1
sg8
I00
sg9
I5
sg10
(lp246
g83
ag114
asg24
I00
sg25
I00
sg26
I9208557
sg17
S'83865.9744523'
p247
sba(igraph
Edge
p248
(dp249
g7
I1
sg8
I00
sg9
I5
sg10
(lp250
g86
ag117
asg24
I00
sg25
I00
sg26
I9208558
sg17
S'83865.9762244'
p251
sba(igraph
Edge
p252
(dp253
g7
I1
sg8
I00
sg9
I5
sg10
(lp254
g93
ag124
asg24
I00
sg25
I00
sg26
I9208559
sg17
S'83865.9780514'
p255
sba(igraph
Edge
p256
(dp257
g7
I1
sg8
I00
sg9
I5
sg10
(lp258
g100
ag131
asg24
I00
sg25
I00
sg26
I9208560
sg17
S'83865.9799053'
p259
sba(igraph
Edge
p260
(dp261
g7
I1
sg8
I00
sg9
I5
sg10
(lp262
g107
ag138
asg24
I00
sg25
I00
sg26
I9208561
sg17
S'83865.9817974'
p263
sba(igraph
Edge
p264
(dp265
g7
I1
sg8
I00
sg9
I5
sg10
(lp266
g114
ag145
asg24
I00
sg25
I00
sg26
I9208562
sg17
S'83865.9837211'
p267
sba(igraph
Edge
p268
(dp269
g7
I1
sg8
I00
sg9
I5
sg10
(lp270
g117
ag148
asg24
I00
sg25
I00
sg26
I9208563
sg17
S'83865.9856873'
p271
sba(igraph
Edge
p272
(dp273
g7
I1
sg8
I00
sg9
I5
sg10
(lp274
g124
ag155
asg24
I00
sg25
I00
sg26
I9208564
sg17
S'83865.9877845'
p275
sba(igraph
Edge
p276
(dp277
g7
I1
sg8
I00
sg9
I5
sg10
(lp278
g131
ag162
asg24
I00
sg25
I00
sg26
I9208565
sg17
S'83865.9900124'
p279
sba(igraph
Edge
p280
(dp281
g7
I1
sg8
I00
sg9
I5
sg10
(lp282
g138
ag169
asg24
I00
sg25
I00
sg26
I9208566
sg17
S'83865.9921183'
p283
sba(igraph
Edge
p284
(dp285
g7
I1
sg8
I00
sg9
I5
sg10
(lp286
g145
ag176
asg24
I00
sg25
I00
sg26
I9208567
sg17
S'83865.9942599'
p287
sba(igraph
Edge
p288
(dp289
g7
I1
sg8
I00
sg9
I5
sg10
(lp290
g148
ag179
asg24
I00
sg25
I00
sg26
I9208568
sg17
S'83865.9964889'
p291
sba(igraph
Edge
p292
(dp293
g7
I1
sg8
I00
sg9
I5
sg10
(lp294
g155
ag186
asg24
I00
sg25
I00
sg26
I9208569
sg17
S'83865.9997259'
p295
sba(igraph
Edge
p296
(dp297
g7
I1
sg8
I00
sg9
I5
sg10
(lp298
g162
ag193
asg24
I00
sg25
I00
sg26
I9208570
sg17
S'83866.002155'
p299
sba(igraph
Edge
p300
(dp301
g7
I1
sg8
I00
sg9
I5
sg10
(lp302
g169
ag200
asg24
I00
sg25
I00
sg26
I9208571
sg17
S'83866.0046146'
p303
sba(igraph
Edge
p304
(dp305
g7
I1
sg8
I00
sg9
I5
sg10
(lp306
g52
ag21
asg24
I00
sg25
I00
sg26
I9208572
sg17
S'83879.3967619'
p307
sba(igraph
Edge
p308
(dp309
g7
I1
sg8
I00
sg9
I5
sg10
(lp310
g55
ag31
asg24
I00
sg25
I00
sg26
I9208573
sg17
S'83883.2668456'
p311
sba(igraph
Edge
p312
(dp313
g7
I1
sg8
I00
sg9
I5
sg10
(lp314
g62
ag38
asg24
I00
sg25
I00
sg26
I9208574
sg17
S'83885.1538648'
p315
sba(igraph
Edge
p316
(dp317
g7
I1
sg8
I00
sg9
I5
sg10
(lp318
g69
ag45
asg24
I00
sg25
I00
sg26
I9208575
sg17
S'83888.3813395'
p319
sba(igraph
Edge
p320
(dp321
g7
I1
sg8
I00
sg9
I5
sg10
(lp322
g83
ag55
asg24
I00
sg25
I00
sg26
I9208576
sg17
S'83891.5182318'
p323
sba(igraph
Edge
p324
(dp325
g7
I1
sg8
I00
sg9
I5
sg10
(lp326
g86
ag62
asg24
I00
sg25
I00
sg26
I9208577
sg17
S'83893.9334287'
p327
sba(igraph
Edge
p328
(dp329
g7
I1
sg8
I00
sg9
I5
sg10
(lp330
g93
ag69
asg24
I00
sg25
I00
sg26
I9208578
sg17
S'83896.6373162'
p331
sba(igraph
Edge
p332
(dp333
g7
I1
sg8
I00
sg9
I5
sg10
(lp334
g100
ag76
asg24
I00
sg25
I00
sg26
I9208579
sg17
S'83899.470043'
p335
sba(igraph
Edge
p336
(dp337
g7
I1
sg8
I00
sg9
I5
sg10
(lp338
g114
ag86
asg24
I00
sg25
I00
sg26
I9208580
sg17
S'83902.3795932'
p339
sba(igraph
Edge
p340
(dp341
g7
I1
sg8
I00
sg9
I5
sg10
(lp342
g117
ag93
asg24
I00
sg25
I00
sg26
I9208581
sg17
S'83904.5734975'
p343
sba(igraph
Edge
p344
(dp345
g7
I1
sg8
I00
sg9
I5
sg10
(lp346
g124
ag100
asg24
I00
sg25
I00
sg26
I9208582
sg17
S'83908.2719728'
p347
sba(igraph
Edge
p348
(dp349
g7
I1
sg8
I00
sg9
I5
sg10
(lp350
g131
ag107
asg24
I00
sg25
I00
sg26
I9208583
sg17
S'83911.2178137'
p351
sba(igraph
Edge
p352
(dp353
g7
I1
sg8
I00
sg9
I5
sg10
(lp354
g145
ag117
asg24
I00
sg25
I00
sg26
I9208584
sg17
S'83915.7955251'
p355
sba(igraph
Edge
p356
(dp357
g7
I1
sg8
I00
sg9
I5
sg10
(lp358
g148
ag124
asg24
I00
sg25
I00
sg26
I9208585
sg17
S'83918.4934381'
p359
sba(igraph
Edge
p360
(dp361
g7
I1
sg8
I00
sg9
I5
sg10
(lp362
g155
ag131
asg24
I00
sg25
I00
sg26
I9208586
sg17
S'83921.1208369'
p363
sba(igraph
Edge
p364
(dp365
g7
I1
sg8
I00
sg9
I5
sg10
(lp366
g162
ag138
asg24
I00
sg25
I00
sg26
I9208587
sg17
S'83923.5989345'
p367
sba(igraph
Edge
p368
(dp369
g7
I1
sg8
I00
sg9
I5
sg10
(lp370
g176
ag148
asg24
I00
sg25
I00
sg26
I9208588
sg17
S'83927.2290512'
p371
sba(igraph
Edge
p372
(dp373
g7
I1
sg8
I00
sg9
I5
sg10
(lp374
g179
ag155
asg24
I00
sg25
I00
sg26
I9208589
sg17
S'83933.5161715'
p375
sba(igraph
Edge
p376
(dp377
g7
I1
sg8
I00
sg9
I5
sg10
(lp378
g186
ag162
asg24
I00
sg25
I00
sg26
I9208590
sg17
S'83936.0673069'
p379
sba(igraph
Edge
p380
(dp381
g7
I1
sg8
I00
sg9
I5
sg10
(lp382
g193
ag169
asg24
I00
sg25
I00
sg26
I9208591
sg17
S'83939.4500633'
p383
sba(igraph
Edge
p384
(dp385
g7
I1
sg8
I00
sg9
I5
sg10
(lp386
g12
ag45
asg24
I00
sg25
I00
sg26
I9208592
sg17
S'84336.4814095'
p387
sba(igraph
Edge
p388
(dp389
g7
I1
sg8
I00
sg9
I5
sg10
(lp390
g12
ag76
asg24
I00
sg25
I00
sg26
I9208593
sg17
S'84336.482206'
p391
sba(igraph
Edge
p392
(dp393
g7
I1
sg8
I00
sg9
I5
sg10
(lp394
g52
ag76
asg24
I00
sg25
I00
sg26
I9208594
sg17
S'84343.4593807'
p395
sba(igraph
Edge
p396
(dp397
g7
I1
sg8
I00
sg9
I5
sg10
(lp398
g52
ag107
asg24
I00
sg25
I00
sg26
I9208595
sg17
S'84343.4601657'
p399
sba(igraph
Edge
p400
(dp401
g7
I1
sg8
I00
sg9
I5
sg10
(lp402
g83
ag107
asg24
I00
sg25
I00
sg26
I9208596
sg17
S'84348.8852921'
p403
sba(igraph
Edge
p404
(dp405
g7
I1
sg8
I00
sg9
I5
sg10
(lp406
g83
ag138
asg24
I00
sg25
I00
sg26
I9208597
sg17
S'84348.8860947'
p407
sba(igraph
Edge
p408
(dp409
g7
I1
sg8
I00
sg9
I5
sg10
(lp410
g114
ag138
asg24
I00
sg25
I00
sg26
I9208598
sg17
S'84355.6541901'
p411
sba(igraph
Edge
p412
(dp413
g7
I1
sg8
I00
sg9
I5
sg10
(lp414
g114
ag169
asg24
I00
sg25
I00
sg26
I9208599
sg17
S'84355.6550196'
p415
sba(igraph
Edge
p416
(dp417
g7
I1
sg8
I00
sg9
I5
sg10
(lp418
g145
ag169
asg24
I00
sg25
I00
sg26
I9208600
sg17
S'84361.016808'
p419
sba(igraph
Edge
p420
(dp421
g7
I1
sg8
I00
sg9
I5
sg10
(lp422
g145
ag200
asg24
I00
sg25
I00
sg26
I9208601
sg17
S'84361.0187217'
p423
sba(igraph
Edge
p424
(dp425
g7
I1
sg8
I00
sg9
I5
sg10
(lp426
g176
ag200
asg24
I00
sg25
I00
sg26
I9208602
sg17
S'84366.3874898'
p427
sbasS'vertices'
p428
(lp429
g12
ag21
ag31
ag38
ag45
ag52
ag55
ag62
ag69
ag76
ag83
ag86
ag93
ag100
ag107
ag114
ag117
ag124
ag131
ag138
ag145
ag148
ag155
ag162
ag169
ag176
ag179
ag186
ag193
ag200
asS'tags'
p430
(lp431
sb.