(igraph
Graph
p0
(dp1
S'labelingConstraints'
p2
I-1
sS'edges'
p3
(lp4
(igraph
Edge
p5
(dp6
S'direction'
p7
I1
sS'selected'
p8
I00
sS'height'
p9
I5
sS'vs'
p10
(lp11
(igraph
Vertex
p12
(dp13
g8
I00
sS'label'
p14
S'NULL'
p15
sS'y'
p16
F-150.0
sS'x'
p17
F-149.99999999999997
sS'circle'
p18
I209233
sS'id'
p19
S'19590.2859146'
p20
sba(igraph
Vertex
p21
(dp22
g8
I00
sg14
g15
sg16
F-150.0
sg17
F-107.14285714285711
sg18
I209234
sg19
S'19590.2859528'
p23
sbasS'wrap'
p24
I00
sS'curved'
p25
I00
sS'line'
p26
I209222
sg19
S'19590.2948903'
p27
sba(igraph
Edge
p28
(dp29
g7
I1
sg8
I00
sg9
I5
sg10
(lp30
g21
a(igraph
Vertex
p31
(dp32
g8
I00
sg14
I0
sg16
F-150.0
sg17
F-64.285714285714263
sg18
I209235
sg19
S'19590.2859967'
p33
sbasg24
I00
sg25
I00
sg26
I209223
sg19
S'19590.2949892'
p34
sba(igraph
Edge
p35
(dp36
g7
I1
sg8
I00
sg9
I5
sg10
(lp37
g31
a(igraph
Vertex
p38
(dp39
g8
I00
sg14
g15
sg16
F-150.0
sg17
F-21.428571428571416
sg18
I209237
sg19
S'19590.2860506'
p40
sbasg24
I00
sg25
I00
sg26
I209224
sg19
S'19590.2951152'
p41
sba(igraph
Edge
p42
(dp43
g7
I1
sg8
I00
sg9
I5
sg10
(lp44
g38
a(igraph
Vertex
p45
(dp46
g8
I00
sg14
g15
sg16
F-150.0
sg17
F21.428571428571445
sg18
I209238
sg19
S'19590.2861294'
p47
sbasg24
I00
sg25
I00
sg26
I209225
sg19
S'19590.2953177'
p48
sba(igraph
Edge
p49
(dp50
g7
I1
sg8
I00
sg9
I5
sg10
(lp51
g45
a(igraph
Vertex
p52
(dp53
g8
I00
sg14
g15
sg16
F-150.0
sg17
F64.285714285714278
sg18
I209239
sg19
S'19590.2862107'
p54
sbasg24
I00
sg25
I00
sg26
I209226
sg19
S'19590.2955465'
p55
sba(igraph
Edge
p56
(dp57
g7
I1
sg8
I00
sg9
I5
sg10
(lp58
g52
a(igraph
Vertex
p59
(dp60
g8
I00
sg14
I0
sg16
F-150.0
sg17
F107.14285714285714
sg18
I209240
sg19
S'19590.2863087'
p61
sbasg24
I00
sg25
I00
sg26
I209227
sg19
S'19590.2958074'
p62
sba(igraph
Edge
p63
(dp64
g7
I1
sg8
I00
sg9
I5
sg10
(lp65
g59
a(igraph
Vertex
p66
(dp67
g8
I00
sg14
g15
sg16
F-150.0
sg17
F149.99999999999997
sg18
I209242
sg19
S'19590.2864216'
p68
sbasg24
I00
sg25
I00
sg26
I209228
sg19
S'19590.2960927'
p69
sba(igraph
Edge
p70
(dp71
g7
I1
sg8
I00
sg9
I5
sg10
(lp72
g12
a(igraph
Vertex
p73
(dp74
g8
I00
sg14
g15
sg16
F-50.0
sg17
F-107.14285714285711
sg18
I209243
sg19
S'19590.2867518'
p75
sbasg24
I00
sg25
I00
sg26
I209229
sg19
S'19590.3131689'
p76
sba(igraph
Edge
p77
(dp78
g7
I1
sg8
I00
sg9
I5
sg10
(lp79
g31
a(igraph
Vertex
p80
(dp81
g8
I00
sg14
g15
sg16
F-50.0
sg17
F-21.428571428571416
sg18
I209244
sg19
S'19590.2870837'
p82
sbasg24
I00
sg25
I00
sg26
I209230
sg19
S'19590.3141581'
p83
sba(igraph
Edge
p84
(dp85
g7
I1
sg8
I00
sg9
I5
sg10
(lp86
g45
a(igraph
Vertex
p87
(dp88
g8
I00
sg14
g15
sg16
F-50.0
sg17
F64.285714285714278
sg18
I209245
sg19
S'19590.2874891'
p89
sbasg24
I00
sg25
I00
sg26
I209231
sg19
S'19590.3151713'
p90
sba(igraph
Edge
p91
(dp92
g7
I1
sg8
I00
sg9
I5
sg10
(lp93
g59
a(igraph
Vertex
p94
(dp95
g8
I00
sg14
g15
sg16
F-50.0
sg17
F149.99999999999997
sg18
I209246
sg19
S'19590.2880875'
p96
sbasg24
I00
sg25
I00
sg26
I209232
sg19
S'19590.3162075'
p97
sbasS'vertices'
p98
(lp99
g12
ag21
ag31
ag38
ag45
ag52
ag59
ag66
ag73
ag80
ag87
ag94
asS'tags'
p100
(lp101
sb.