(igraph
Graph
p0
(dp1
S'labelingConstraints'
p2
I-1
sS'edges'
p3
(lp4
(igraph
Edge
p5
(dp6
S'direction'
p7
I1
sS'selected'
p8
I00
sS'height'
p9
I5
sS'vs'
p10
(lp11
(igraph
Vertex
p12
(dp13
S'y'
p14
F-75.0
sS'x'
p15
F-150.00000000000003
sS'circle'
p16
I205419
sg8
I00
sS'id'
p17
S'18551.4824708'
p18
sS'label'
p19
S'NULL'
p20
sba(igraph
Vertex
p21
(dp22
g14
F-75.0
sg15
F-116.6666666666667
sg16
I205420
sg8
I00
sg17
S'18551.482508'
p23
sg19
g20
sbasS'wrap'
p24
I00
sS'curved'
p25
I00
sS'line'
p26
I205405
sg17
S'18551.4901682'
p27
sba(igraph
Edge
p28
(dp29
g7
I1
sg8
I00
sg9
I5
sg10
(lp30
g21
a(igraph
Vertex
p31
(dp32
g14
F-75.0
sg15
F-83.333333333333371
sg16
I205421
sg8
I00
sg17
S'18551.4825538'
p33
sg19
I0
sbasg24
I00
sg25
I00
sg26
I205406
sg17
S'18551.4902668'
p34
sba(igraph
Edge
p35
(dp36
g7
I1
sg8
I00
sg9
I5
sg10
(lp37
g31
a(igraph
Vertex
p38
(dp39
g14
F-75.0
sg15
F-50.000000000000028
sg16
I205423
sg8
I00
sg17
S'18551.482608'
p40
sg19
g20
sbasg24
I00
sg25
I00
sg26
I205407
sg17
S'18551.4903922'
p41
sba(igraph
Edge
p42
(dp43
g7
I1
sg8
I00
sg9
I5
sg10
(lp44
g38
a(igraph
Vertex
p45
(dp46
g14
F-75.0
sg15
F-16.666666666666714
sg16
I205424
sg8
I00
sg17
S'18551.4826756'
p47
sg19
g20
sbasg24
I00
sg25
I00
sg26
I205408
sg17
S'18551.4905475'
p48
sba(igraph
Edge
p49
(dp50
g7
I1
sg8
I00
sg9
I5
sg10
(lp51
g45
a(igraph
Vertex
p52
(dp53
g14
F-75.0
sg15
F16.666666666666657
sg16
I205425
sg8
I00
sg17
S'18551.4827577'
p54
sg19
g20
sbasg24
I00
sg25
I00
sg26
I205409
sg17
S'18551.490733'
p55
sba(igraph
Edge
p56
(dp57
g7
I1
sg8
I00
sg9
I5
sg10
(lp58
g52
a(igraph
Vertex
p59
(dp60
g14
F-75.0
sg15
F50.0
sg16
I205426
sg8
I00
sg17
S'18551.4828569'
p61
sg19
I0
sbasg24
I00
sg25
I00
sg26
I205410
sg17
S'18551.4909537'
p62
sba(igraph
Edge
p63
(dp64
g7
I1
sg8
I00
sg9
I5
sg10
(lp65
g59
a(igraph
Vertex
p66
(dp67
g14
F-75.0
sg15
F83.333333333333343
sg16
I205428
sg8
I00
sg17
S'18551.4829698'
p68
sg19
g20
sbasg24
I00
sg25
I00
sg26
I205411
sg17
S'18551.4912013'
p69
sba(igraph
Edge
p70
(dp71
g7
I1
sg8
I00
sg9
I5
sg10
(lp72
g66
a(igraph
Vertex
p73
(dp74
g14
F-75.0
sg15
F116.66666666666671
sg16
I205429
sg8
I00
sg17
S'18551.4831268'
p75
sg19
g20
sbasg24
I00
sg25
I00
sg26
I205412
sg17
S'18551.4914803'
p76
sba(igraph
Edge
p77
(dp78
g7
I1
sg8
I00
sg9
I5
sg10
(lp79
g73
a(igraph
Vertex
p80
(dp81
g14
F-75.0
sg15
F150.00000000000003
sg16
I205430
sg8
I00
sg17
S'18551.4832718'
p82
sg19
g20
sbasg24
I00
sg25
I00
sg26
I205413
sg17
S'18551.4917943'
p83
sba(igraph
Edge
p84
(dp85
g7
I1
sg8
I00
sg9
I5
sg10
(lp86
g12
a(igraph
Vertex
p87
(dp88
g14
F0.0
sg15
F-116.6666666666667
sg16
I205431
sg8
I00
sg17
S'18551.4836073'
p89
sg19
g20
sbasg24
I00
sg25
I00
sg26
I205414
sg17
S'18551.5039501'
p90
sba(igraph
Edge
p91
(dp92
g7
I1
sg8
I00
sg9
I5
sg10
(lp93
g31
a(igraph
Vertex
p94
(dp95
g14
F0.0
sg15
F-50.000000000000028
sg16
I205432
sg8
I00
sg17
S'18551.4840031'
p96
sg19
g20
sbasg24
I00
sg25
I00
sg26
I205415
sg17
S'18551.504922'
p97
sba(igraph
Edge
p98
(dp99
g7
I1
sg8
I00
sg9
I5
sg10
(lp100
g45
a(igraph
Vertex
p101
(dp102
g14
F0.0
sg15
F16.666666666666657
sg16
I205433
sg8
I00
sg17
S'18551.4844753'
p103
sg19
g20
sbasg24
I00
sg25
I00
sg26
I205416
sg17
S'18551.5059126'
p104
sba(igraph
Edge
p105
(dp106
g7
I1
sg8
I00
sg9
I5
sg10
(lp107
g59
a(igraph
Vertex
p108
(dp109
g14
F0.0
sg15
F83.333333333333343
sg16
I205434
sg8
I00
sg17
S'18551.4849994'
p110
sg19
g20
sbasg24
I00
sg25
I00
sg26
I205417
sg17
S'18551.5069262'
p111
sba(igraph
Edge
p112
(dp113
g7
I1
sg8
I00
sg9
I5
sg10
(lp114
g73
a(igraph
Vertex
p115
(dp116
g14
F0.0
sg15
F150.00000000000003
sg16
I205435
sg8
I00
sg17
S'18551.4856061'
p117
sg19
I0
sbasg24
I00
sg25
I00
sg26
I205418
sg17
S'18551.5080442'
p118
sbasS'vertices'
p119
(lp120
g12
ag21
ag31
ag38
ag45
ag52
ag59
ag66
ag73
ag80
ag87
ag94
ag101
ag108
ag115
asS'tags'
p121
(lp122
sb.