(igraph
Graph
p0
(dp1
S'labelingConstraints'
p2
I-1
sS'edges'
p3
(lp4
(igraph
Edge
p5
(dp6
S'direction'
p7
I1
sS'selected'
p8
I00
sS'height'
p9
I5
sS'vs'
p10
(lp11
(igraph
Vertex
p12
(dp13
g8
I00
sS'label'
p14
S'NULL'
p15
sS'y'
p16
F-150.0
sS'x'
p17
F-149.99999999999997
sS'circle'
p18
I208783
sS'id'
p19
S'19590.2859146'
p20
sba(igraph
Vertex
p21
(dp22
g8
I00
sg14
g15
sg16
F-150.0
sg17
F-107.14285714285711
sg18
I208784
sg19
S'19590.2859528'
p23
sbasS'wrap'
p24
I00
sS'curved'
p25
I00
sS'line'
p26
I208765
sg19
S'19590.2948903'
p27
sba(igraph
Edge
p28
(dp29
g7
I1
sg8
I00
sg9
I5
sg10
(lp30
g21
a(igraph
Vertex
p31
(dp32
g8
I00
sg14
g15
sg16
F-150.0
sg17
F-64.285714285714263
sg18
I208785
sg19
S'19590.2859967'
p33
sbasg24
I00
sg25
I00
sg26
I208766
sg19
S'19590.2949892'
p34
sba(igraph
Edge
p35
(dp36
g7
I1
sg8
I00
sg9
I5
sg10
(lp37
g31
a(igraph
Vertex
p38
(dp39
g8
I00
sg14
g15
sg16
F-150.0
sg17
F-21.428571428571416
sg18
I208786
sg19
S'19590.2860506'
p40
sbasg24
I00
sg25
I00
sg26
I208767
sg19
S'19590.2951152'
p41
sba(igraph
Edge
p42
(dp43
g7
I1
sg8
I00
sg9
I5
sg10
(lp44
g38
a(igraph
Vertex
p45
(dp46
g8
I00
sg14
g15
sg16
F-150.0
sg17
F21.428571428571445
sg18
I208787
sg19
S'19590.2861294'
p47
sbasg24
I00
sg25
I00
sg26
I208768
sg19
S'19590.2953177'
p48
sba(igraph
Edge
p49
(dp50
g7
I1
sg8
I00
sg9
I5
sg10
(lp51
g45
a(igraph
Vertex
p52
(dp53
g8
I00
sg14
g15
sg16
F-150.0
sg17
F64.285714285714278
sg18
I208788
sg19
S'19590.2862107'
p54
sbasg24
I00
sg25
I00
sg26
I208769
sg19
S'19590.2955465'
p55
sba(igraph
Edge
p56
(dp57
g7
I1
sg8
I00
sg9
I5
sg10
(lp58
g52
a(igraph
Vertex
p59
(dp60
g8
I00
sg14
g15
sg16
F-150.0
sg17
F107.14285714285714
sg18
I208789
sg19
S'19590.2863087'
p61
sbasg24
I00
sg25
I00
sg26
I208770
sg19
S'19590.2958074'
p62
sba(igraph
Edge
p63
(dp64
g7
I1
sg8
I00
sg9
I5
sg10
(lp65
g59
a(igraph
Vertex
p66
(dp67
g8
I00
sg14
g15
sg16
F-150.0
sg17
F149.99999999999997
sg18
I208790
sg19
S'19590.2864216'
p68
sbasg24
I00
sg25
I00
sg26
I208771
sg19
S'19590.2960927'
p69
sba(igraph
Edge
p70
(dp71
g7
I1
sg8
I00
sg9
I5
sg10
(lp72
(igraph
Vertex
p73
(dp74
g8
I00
sg14
g15
sg16
F-50.0
sg17
F-149.99999999999997
sg18
I208791
sg19
S'19590.2865487'
p75
sba(igraph
Vertex
p76
(dp77
g8
I00
sg14
I0
sg16
F-50.0
sg17
F-107.14285714285711
sg18
I208792
sg19
S'19590.2867518'
p78
sbasg24
I00
sg25
I00
sg26
I208772
sg19
S'19590.2965964'
p79
sba(igraph
Edge
p80
(dp81
g7
I1
sg8
I00
sg9
I5
sg10
(lp82
g76
a(igraph
Vertex
p83
(dp84
g8
I00
sg14
g15
sg16
F-50.0
sg17
F-64.285714285714263
sg18
I208794
sg19
S'19590.2869105'
p85
sbasg24
I00
sg25
I00
sg26
I208773
sg19
S'19590.2969769'
p86
sba(igraph
Edge
p87
(dp88
g7
I1
sg8
I00
sg9
I5
sg10
(lp89
g83
a(igraph
Vertex
p90
(dp91
g8
I00
sg14
g15
sg16
F-50.0
sg17
F-21.428571428571416
sg18
I208795
sg19
S'19590.2870837'
p92
sbasg24
I00
sg25
I00
sg26
I208774
sg19
S'19590.297404'
p93
sba(igraph
Edge
p94
(dp95
g7
I1
sg8
I00
sg9
I5
sg10
(lp96
g90
a(igraph
Vertex
p97
(dp98
g8
I00
sg14
g15
sg16
F-50.0
sg17
F21.428571428571445
sg18
I208796
sg19
S'19590.2872832'
p99
sbasg24
I00
sg25
I00
sg26
I208775
sg19
S'19590.2977965'
p100
sba(igraph
Edge
p101
(dp102
g7
I1
sg8
I00
sg9
I5
sg10
(lp103
g97
a(igraph
Vertex
p104
(dp105
g8
I00
sg14
I0
sg16
F-50.0
sg17
F64.285714285714278
sg18
I208797
sg19
S'19590.2874891'
p106
sbasg24
I00
sg25
I00
sg26
I208776
sg19
S'19590.2984656'
p107
sba(igraph
Edge
p108
(dp109
g7
I1
sg8
I00
sg9
I5
sg10
(lp110
g104
a(igraph
Vertex
p111
(dp112
g8
I00
sg14
g15
sg16
F-50.0
sg17
F107.14285714285714
sg18
I208799
sg19
S'19590.2878422'
p113
sbasg24
I00
sg25
I00
sg26
I208777
sg19
S'19590.2989372'
p114
sba(igraph
Edge
p115
(dp116
g7
I1
sg8
I00
sg9
I5
sg10
(lp117
g111
a(igraph
Vertex
p118
(dp119
g8
I00
sg14
g15
sg16
F-50.0
sg17
F149.99999999999997
sg18
I208800
sg19
S'19590.2880875'
p120
sbasg24
I00
sg25
I00
sg26
I208778
sg19
S'19590.2994272'
p121
sba(igraph
Edge
p122
(dp123
g7
I1
sg8
I00
sg9
I5
sg10
(lp124
g12
ag76
asg24
I00
sg25
I00
sg26
I208779
sg19
S'19590.3131689'
p125
sba(igraph
Edge
p126
(dp127
g7
I1
sg8
I00
sg9
I5
sg10
(lp128
g31
ag90
asg24
I00
sg25
I00
sg26
I208780
sg19
S'19590.3141581'
p129
sba(igraph
Edge
p130
(dp131
g7
I1
sg8
I00
sg9
I5
sg10
(lp132
g45
ag104
asg24
I00
sg25
I00
sg26
I208781
sg19
S'19590.3151713'
p133
sba(igraph
Edge
p134
(dp135
g7
I1
sg8
I00
sg9
I5
sg10
(lp136
g59
ag118
asg24
I00
sg25
I00
sg26
I208782
sg19
S'19590.3162075'
p137
sbasS'vertices'
p138
(lp139
g12
ag21
ag31
ag38
ag45
ag52
ag59
ag66
ag73
ag76
ag83
ag90
ag97
ag104
ag111
ag118
asS'tags'
p140
(lp141
sb.