(igraph
Graph
p0
(dp1
S'labelingConstraints'
p2
I-1
sS'edges'
p3
(lp4
(igraph
Edge
p5
(dp6
S'direction'
p7
I1
sS'selected'
p8
I00
sS'height'
p9
I5
sS'vs'
p10
(lp11
(igraph
Vertex
p12
(dp13
S'y'
p14
F-75.0
sS'x'
p15
F-150.00000000000003
sS'circle'
p16
I205878
sg8
I00
sS'id'
p17
S'18551.4824708'
p18
sS'label'
p19
S'NULL'
p20
sba(igraph
Vertex
p21
(dp22
g14
F-75.0
sg15
F-116.6666666666667
sg16
I205879
sg8
I00
sg17
S'18551.482508'
p23
sg19
g20
sbasS'wrap'
p24
I00
sS'curved'
p25
I00
sS'line'
p26
I205855
sg17
S'18551.4901682'
p27
sba(igraph
Edge
p28
(dp29
g7
I1
sg8
I00
sg9
I5
sg10
(lp30
g21
a(igraph
Vertex
p31
(dp32
g14
F-75.0
sg15
F-83.333333333333371
sg16
I205880
sg8
I00
sg17
S'18551.4825538'
p33
sg19
g20
sbasg24
I00
sg25
I00
sg26
I205856
sg17
S'18551.4902668'
p34
sba(igraph
Edge
p35
(dp36
g7
I1
sg8
I00
sg9
I5
sg10
(lp37
g31
a(igraph
Vertex
p38
(dp39
g14
F-75.0
sg15
F-50.000000000000028
sg16
I205881
sg8
I00
sg17
S'18551.482608'
p40
sg19
g20
sbasg24
I00
sg25
I00
sg26
I205857
sg17
S'18551.4903922'
p41
sba(igraph
Edge
p42
(dp43
g7
I1
sg8
I00
sg9
I5
sg10
(lp44
g38
a(igraph
Vertex
p45
(dp46
g14
F-75.0
sg15
F-16.666666666666714
sg16
I205882
sg8
I00
sg17
S'18551.4826756'
p47
sg19
g20
sbasg24
I00
sg25
I00
sg26
I205858
sg17
S'18551.4905475'
p48
sba(igraph
Edge
p49
(dp50
g7
I1
sg8
I00
sg9
I5
sg10
(lp51
g45
a(igraph
Vertex
p52
(dp53
g14
F-75.0
sg15
F16.666666666666657
sg16
I205883
sg8
I00
sg17
S'18551.4827577'
p54
sg19
g20
sbasg24
I00
sg25
I00
sg26
I205859
sg17
S'18551.490733'
p55
sba(igraph
Edge
p56
(dp57
g7
I1
sg8
I00
sg9
I5
sg10
(lp58
g52
a(igraph
Vertex
p59
(dp60
g14
F-75.0
sg15
F50.0
sg16
I205884
sg8
I00
sg17
S'18551.4828569'
p61
sg19
g20
sbasg24
I00
sg25
I00
sg26
I205860
sg17
S'18551.4909537'
p62
sba(igraph
Edge
p63
(dp64
g7
I1
sg8
I00
sg9
I5
sg10
(lp65
g59
a(igraph
Vertex
p66
(dp67
g14
F-75.0
sg15
F83.333333333333343
sg16
I205885
sg8
I00
sg17
S'18551.4829698'
p68
sg19
g20
sbasg24
I00
sg25
I00
sg26
I205861
sg17
S'18551.4912013'
p69
sba(igraph
Edge
p70
(dp71
g7
I1
sg8
I00
sg9
I5
sg10
(lp72
g66
a(igraph
Vertex
p73
(dp74
g14
F-75.0
sg15
F116.66666666666671
sg16
I205886
sg8
I00
sg17
S'18551.4831268'
p75
sg19
g20
sbasg24
I00
sg25
I00
sg26
I205862
sg17
S'18551.4914803'
p76
sba(igraph
Edge
p77
(dp78
g7
I1
sg8
I00
sg9
I5
sg10
(lp79
g73
a(igraph
Vertex
p80
(dp81
g14
F-75.0
sg15
F150.00000000000003
sg16
I205887
sg8
I00
sg17
S'18551.4832718'
p82
sg19
g20
sbasg24
I00
sg25
I00
sg26
I205863
sg17
S'18551.4917943'
p83
sba(igraph
Edge
p84
(dp85
g7
F-1.0
sS'h'
p86
F-133.33333333333337
sS'k'
p87
F138.3333333333334
sg8
I00
sg9
F1.0003987235124328
sS'start'
p88
F96.86999230821425
sg10
(lp89
(igraph
Vertex
p90
(dp91
g14
F0.0
sg15
F-150.00000000000003
sg16
I205888
sg8
I00
sg17
S'18551.4834324'
p92
sg19
g20
sba(igraph
Vertex
p93
(dp94
g14
F0.0
sg15
F-116.6666666666667
sg16
I205889
sg8
I00
sg17
S'18551.4836073'
p95
sg19
I0
sbasS'extent'
p96
F-13.739984616428501
sg24
I00
sg25
I0
sg26
I205864
sS'r'
p97
F139.33373205684583
sg17
S'18551.492162'
p98
sba(igraph
Edge
p99
(dp100
g7
I1
sg8
I00
sg9
I5
sg10
(lp101
g93
a(igraph
Vertex
p102
(dp103
g14
F0.0
sg15
F-83.333333333333371
sg16
I205891
sg8
I00
sg17
S'18551.4837975'
p104
sg19
g20
sbasg24
I00
sg25
I00
sg26
I205865
sg17
S'18551.4925366'
p105
sba(igraph
Edge
p106
(dp107
g7
I1
sg8
I00
sg9
I5
sg10
(lp108
g102
a(igraph
Vertex
p109
(dp110
g14
F0.0
sg15
F-50.000000000000028
sg16
I205892
sg8
I00
sg17
S'18551.4840031'
p111
sg19
g20
sbasg24
I00
sg25
I00
sg26
I205866
sg17
S'18551.4929437'
p112
sba(igraph
Edge
p113
(dp114
g7
I1
sg8
I00
sg9
I5
sg10
(lp115
g109
a(igraph
Vertex
p116
(dp117
g14
F0.0
sg15
F-16.666666666666714
sg16
I205893
sg8
I00
sg17
S'18551.4842372'
p118
sg19
g20
sbasg24
I00
sg25
I00
sg26
I205867
sg17
S'18551.4933783'
p119
sba(igraph
Edge
p120
(dp121
g7
I1
sg8
I00
sg9
I5
sg10
(lp122
g116
a(igraph
Vertex
p123
(dp124
g14
F0.0
sg15
F16.666666666666657
sg16
I205894
sg8
I00
sg17
S'18551.4844753'
p125
sg19
I0
sbasg24
I00
sg25
I00
sg26
I205868
sg17
S'18551.4938468'
p126
sba(igraph
Edge
p127
(dp128
g7
I1
sg8
I00
sg9
I5
sg10
(lp129
g123
a(igraph
Vertex
p130
(dp131
g14
F0.0
sg15
F50.0
sg16
I205896
sg8
I00
sg17
S'18551.4847275'
p132
sg19
g20
sbasg24
I00
sg25
I00
sg26
I205869
sg17
S'18551.4943436'
p133
sba(igraph
Edge
p134
(dp135
g7
I1
sg8
I00
sg9
I5
sg10
(lp136
g130
a(igraph
Vertex
p137
(dp138
g14
F0.0
sg15
F83.333333333333343
sg16
I205897
sg8
I00
sg17
S'18551.4849994'
p139
sg19
g20
sbasg24
I00
sg25
I00
sg26
I205870
sg17
S'18551.4948704'
p140
sba(igraph
Edge
p141
(dp142
g7
I1
sg8
I00
sg9
I5
sg10
(lp143
g137
a(igraph
Vertex
p144
(dp145
g14
F0.0
sg15
F116.66666666666671
sg16
I205898
sg8
I00
sg17
S'18551.4853022'
p146
sg19
g20
sbasg24
I00
sg25
I00
sg26
I205871
sg17
S'18551.4954255'
p147
sba(igraph
Edge
p148
(dp149
g7
I1
sg8
I00
sg9
I5
sg10
(lp150
g144
a(igraph
Vertex
p151
(dp152
g14
F0.0
sg15
F150.00000000000003
sg16
I205899
sg8
I00
sg17
S'18551.4856061'
p153
sg19
I0
sbasg24
I00
sg25
I00
sg26
I205872
sg17
S'18551.4960172'
p154
sba(igraph
Edge
p155
(dp156
g7
I1
sg8
I00
sg9
I5
sg10
(lp157
g12
ag93
asg24
I00
sg25
I00
sg26
I205873
sg17
S'18551.5039501'
p158
sba(igraph
Edge
p159
(dp160
g7
I1
sg8
I00
sg9
I5
sg10
(lp161
g31
ag109
asg24
I00
sg25
I00
sg26
I205874
sg17
S'18551.504922'
p162
sba(igraph
Edge
p163
(dp164
g7
I1
sg8
I00
sg9
I5
sg10
(lp165
g45
ag123
asg24
I00
sg25
I00
sg26
I205875
sg17
S'18551.5059126'
p166
sba(igraph
Edge
p167
(dp168
g7
I1
sg8
I00
sg9
I5
sg10
(lp169
g59
ag137
asg24
I00
sg25
I00
sg26
I205876
sg17
S'18551.5069262'
p170
sba(igraph
Edge
p171
(dp172
g7
I1
sg8
I00
sg9
I5
sg10
(lp173
g73
ag151
asg24
I00
sg25
I00
sg26
I205877
sg17
S'18551.5080442'
p174
sbasS'vertices'
p175
(lp176
g12
ag21
ag31
ag38
ag45
ag52
ag59
ag66
ag73
ag80
ag90
ag93
ag102
ag109
ag116
ag123
ag130
ag137
ag144
ag151
asS'tags'
p177
(lp178
sb.