(igraph
Graph
p0
(dp1
S'labelingConstraints'
p2
I-1
sS'edges'
p3
(lp4
(igraph
Edge
p5
(dp6
S'direction'
p7
I1
sS'color'
p8
S'black'
p9
sS'selected'
p10
I00
sS'height'
p11
I5
sS'vs'
p12
(lp13
(igraph
Vertex
p14
(dp15
g8
S'#ffffff'
p16
sS'text'
p17
I760465
sS'shape'
p18
I0
sS'id'
p19
S'540.080602979'
p20
sS'label'
p21
S'NULL'
p22
sS'lsize'
p23
I16
sS'ynorm'
p24
F0.40000000000000002
sS'size'
p25
I5
sS'xnorm'
p26
F0.0
sg10
I00
sS'lcolor'
p27
g9
sS'y'
p28
F42.0
sS'x'
p29
F-24.0
sS'circle'
p30
I764057
sS'lx'
p31
I-12
sS'ly'
p32
I-12
sba(igraph
Vertex
p33
(dp34
g8
g16
sg17
I736787
sg18
I0
sg19
S'540.082797559'
p35
sg21
g22
sg23
I16
sg24
F0.59999999999999998
sg25
I5
sg26
F0.0
sg10
I00
sg27
g9
sg28
F102.0
sg29
F-24.0
sg30
I764065
sg31
I-12
sg32
I-12
sbasS'wrap'
p36
I00
sS'curved'
p37
I00
sS'line'
p38
I764015
sg19
S'540.128793256'
p39
sg25
I3
sba(igraph
Edge
p40
(dp41
g7
I1
sg8
g9
sg10
I00
sg11
I5
sg12
(lp42
(igraph
Vertex
p43
(dp44
g8
g16
sg17
I760468
sg18
I0
sg19
S'540.081060183'
p45
sg21
g22
sg23
I16
sg24
F0.40000000000000002
sg25
I5
sg26
F0.25
sg10
I00
sg27
g9
sg28
F42.0
sg29
F-84.0
sg30
I764059
sg31
I-12
sg32
I-12
sba(igraph
Vertex
p46
(dp47
g8
g16
sg17
I736790
sg18
I0
sg19
S'540.083248131'
p48
sg21
g22
sg23
I16
sg24
F0.59999999999999998
sg25
I5
sg26
F0.25
sg10
I00
sg27
g9
sg28
F102.0
sg29
F-84.0
sg30
I764067
sg31
I-12
sg32
I-12
sbasg36
I00
sg37
I00
sg38
I764016
sg19
S'540.130000464'
p49
sg25
I3
sba(igraph
Edge
p50
(dp51
g7
I1
sg8
g9
sg10
I00
sg11
I5
sg12
(lp52
(igraph
Vertex
p53
(dp54
g8
g16
sg17
I760471
sg18
I0
sg19
S'540.081470956'
p55
sg21
g22
sg23
I16
sg24
F0.40000000000000002
sg25
I5
sg26
F0.5
sg10
I00
sg27
g9
sg28
F42.0
sg29
F-144.0
sg30
I764061
sg31
I-12
sg32
I-12
sba(igraph
Vertex
p56
(dp57
g8
g16
sg17
I736793
sg18
I0
sg19
S'540.083699649'
p58
sg21
g22
sg23
I16
sg24
F0.59999999999999998
sg25
I5
sg26
F0.5
sg10
I00
sg27
g9
sg28
F102.0
sg29
F-144.0
sg30
I764069
sg31
I-12
sg32
I-12
sbasg36
I00
sg37
I00
sg38
I764017
sg19
S'540.131266896'
p59
sg25
I3
sba(igraph
Edge
p60
(dp61
g7
I1
sg8
g9
sg10
I00
sg11
I5
sg12
(lp62
(igraph
Vertex
p63
(dp64
g8
g16
sg17
I760474
sg18
I0
sg19
S'540.08190684'
p65
sg21
g22
sg23
I16
sg24
F0.40000000000000002
sg25
I5
sg26
F0.75
sg10
I00
sg27
g9
sg28
F42.0
sg29
F-204.0
sg30
I764063
sg31
I-12
sg32
I-12
sba(igraph
Vertex
p66
(dp67
g8
g16
sg17
I736796
sg18
I0
sg19
S'540.084193809'
p68
sg21
g22
sg23
I16
sg24
F0.59999999999999998
sg25
I5
sg26
F0.75
sg10
I00
sg27
g9
sg28
F102.0
sg29
F-204.0
sg30
I764071
sg31
I-12
sg32
I-12
sbasg36
I00
sg37
I00
sg38
I764018
sg19
S'540.132514377'
p69
sg25
I3
sba(igraph
Edge
p70
(dp71
g7
I1
sg8
g9
sg10
I00
sg11
I5
sg12
(lp72
g14
ag46
asg36
I00
sg37
I00
sg38
I764019
sg19
S'540.135057191'
p73
sg25
I3
sba(igraph
Edge
p74
(dp75
g7
I1
sg8
g9
sg10
I00
sg11
I5
sg12
(lp76
g43
ag56
asg36
I00
sg37
I00
sg38
I764020
sg19
S'540.13633452'
p77
sg25
I3
sba(igraph
Edge
p78
(dp79
g7
I1
sg8
g9
sg10
I00
sg11
I5
sg12
(lp80
g53
ag66
asg36
I00
sg37
I00
sg38
I764021
sg19
S'540.137608059'
p81
sg25
I3
sba(igraph
Edge
p82
(dp83
g7
I1
sg8
g9
sg10
I00
sg11
I5
sg12
(lp84
g63
a(igraph
Vertex
p85
(dp86
g8
g16
sg17
I285260
sg18
I0
sg19
S'540.084667596'
p87
sg21
g22
sg23
I16
sg24
F0.59999999999999998
sg25
I5
sg26
F1.0
sg10
I00
sg27
g9
sg28
F102.0
sg29
F-264.0
sg30
I764073
sg31
I-12
sg32
I-12
sbasg36
I00
sg37
I00
sg38
I764022
sg19
S'540.138904813'
p88
sg25
I3
sba(igraph
Edge
p89
(dp90
g7
I1
sg8
g9
sg10
I00
sg11
I5
sg12
(lp91
g33
a(igraph
Vertex
p92
(dp93
g8
g16
sg17
I582713
sg18
I0
sg19
S'540.08516981'
p94
sg21
g22
sg23
I16
sg24
F0.80000000000000004
sg25
I5
sg26
F0.0
sg10
I00
sg27
g9
sg28
F162.0
sg29
F-24.0
sg30
I764075
sg31
I-12
sg32
I-12
sbasg36
I00
sg37
I00
sg38
I764023
sg19
S'540.140227152'
p95
sg25
I3
sba(igraph
Edge
p96
(dp97
g7
I1
sg8
g9
sg10
I00
sg11
I5
sg12
(lp98
g46
a(igraph
Vertex
p99
(dp100
g8
g16
sg17
I764078
sg18
I0
sg19
S'540.085673919'
p101
sg21
I0
sg23
I16
sg24
F0.80000000000000004
sg25
I5
sg26
F0.25
sg10
I00
sg27
g9
sg28
F162.0
sg29
F-84.0
sg30
I764077
sg31
I-12
sg32
I-12
sbasg36
I00
sg37
I00
sg38
I764024
sg19
S'540.141569864'
p102
sg25
I3
sba(igraph
Edge
p103
(dp104
g7
I1
sg8
g9
sg10
I00
sg11
I5
sg12
(lp105
g56
a(igraph
Vertex
p106
(dp107
g8
g16
sg17
I437990
sg18
I0
sg19
S'540.08618324'
p108
sg21
g22
sg23
I16
sg24
F0.80000000000000004
sg25
I5
sg26
F0.5
sg10
I00
sg27
g9
sg28
F162.0
sg29
F-144.0
sg30
I764080
sg31
I-12
sg32
I-12
sbasg36
I00
sg37
I00
sg38
I764025
sg19
S'540.14297938'
p109
sg25
I3
sba(igraph
Edge
p110
(dp111
g7
I1
sg8
g9
sg10
I00
sg11
I5
sg12
(lp112
g66
a(igraph
Vertex
p113
(dp114
g8
g16
sg17
I764083
sg18
I0
sg19
S'540.08669872'
p115
sg21
I0
sg23
I16
sg24
F0.80000000000000004
sg25
I5
sg26
F0.75
sg10
I00
sg27
g9
sg28
F162.0
sg29
F-204.0
sg30
I764082
sg31
I-12
sg32
I-12
sbasg36
I00
sg37
I00
sg38
I764026
sg19
S'540.144329672'
p116
sg25
I3
sba(igraph
Edge
p117
(dp118
g7
I1
sg8
g9
sg10
I00
sg11
I5
sg12
(lp119
g85
a(igraph
Vertex
p120
(dp121
g8
g16
sg17
I437995
sg18
I0
sg19
S'540.087250682'
p122
sg21
g22
sg23
I16
sg24
F0.80000000000000004
sg25
I5
sg26
F1.0
sg10
I00
sg27
g9
sg28
F162.0
sg29
F-264.0
sg30
I764085
sg31
I-12
sg32
I-12
sbasg36
I00
sg37
I00
sg38
I764027
sg19
S'540.145697021'
p123
sg25
I3
sba(igraph
Edge
p124
(dp125
g7
I1
sg8
g9
sg10
I00
sg11
I5
sg12
(lp126
g99
a(igraph
Vertex
p127
(dp128
g8
g16
sg17
I285281
sg18
I0
sg19
S'540.088332811'
p129
sg21
g22
sg23
I16
sg24
F1.0
sg25
I5
sg26
F0.25
sg10
I00
sg27
g9
sg28
F222.0
sg29
F-84.0
sg30
I764087
sg31
I-12
sg32
I-12
sbasg36
I00
sg37
I00
sg38
I764028
sg19
S'540.154694232'
p130
sg25
I3
sba(igraph
Edge
p131
(dp132
g7
I1
sg8
g9
sg10
I00
sg11
I5
sg12
(lp133
g106
a(igraph
Vertex
p134
(dp135
g8
g16
sg17
I285284
sg18
I0
sg19
S'540.088898038'
p136
sg21
g22
sg23
I16
sg24
F1.0
sg25
I5
sg26
F0.5
sg10
I00
sg27
g9
sg28
F222.0
sg29
F-144.0
sg30
I764089
sg31
I-12
sg32
I-12
sbasg36
I00
sg37
I00
sg38
I764029
sg19
S'540.156256781'
p137
sg25
I3
sba(igraph
Edge
p138
(dp139
g7
I1
sg8
g9
sg10
I00
sg11
I5
sg12
(lp140
g113
a(igraph
Vertex
p141
(dp142
g8
g16
sg17
I285287
sg18
I0
sg19
S'540.089466582'
p143
sg21
g22
sg23
I16
sg24
F1.0
sg25
I5
sg26
F0.75
sg10
I00
sg27
g9
sg28
F222.0
sg29
F-204.0
sg30
I764091
sg31
I-12
sg32
I-12
sbasg36
I00
sg37
I00
sg38
I764030
sg19
S'540.157803695'
p144
sg25
I3
sba(igraph
Edge
p145
(dp146
g7
I1
sg8
g9
sg10
I00
sg11
I5
sg12
(lp147
g120
a(igraph
Vertex
p148
(dp149
g8
g16
sg17
I285290
sg18
I0
sg19
S'540.09014315'
p150
sg21
g22
sg23
I16
sg24
F1.0
sg25
I5
sg26
F1.0
sg10
I00
sg27
g9
sg28
F222.0
sg29
F-264.0
sg30
I764093
sg31
I-12
sg32
I-12
sbasg36
I00
sg37
I00
sg38
I764031
sg19
S'540.159323129'
p151
sg25
I3
sba(igraph
Edge
p152
(dp153
g7
I1
sg8
g9
sg10
I00
sg11
I5
sg12
(lp154
g92
ag127
asg36
I00
sg37
I00
sg38
I764032
sg19
S'540.160840668'
p155
sg25
I3
sba(igraph
Edge
p156
(dp157
g7
I1
sg8
g9
sg10
I00
sg11
I5
sg12
(lp158
g99
ag134
asg36
I00
sg37
I00
sg38
I764033
sg19
S'540.162395163'
p159
sg25
I3
sba(igraph
Edge
p160
(dp161
g7
I1
sg8
g9
sg10
I00
sg11
I5
sg12
(lp162
g106
ag141
asg36
I00
sg37
I00
sg38
I764034
sg19
S'540.163979506'
p163
sg25
I3
sba(igraph
Edge
p164
(dp165
g7
I1
sg8
g9
sg10
I00
sg11
I5
sg12
(lp166
g113
ag148
asg36
I00
sg37
I00
sg38
I764035
sg19
S'540.165667608'
p167
sg25
I3
sba(igraph
Edge
p168
(dp169
g7
I1
sg8
g9
sg10
I00
sg11
I5
sg12
(lp170
(igraph
Vertex
p171
(dp172
g8
g16
sg17
I760505
sg10
I00
sg21
g22
sg18
I0
sg30
I764095
sg32
I-12
sg28
F42.0
sg29
F100.0
sg23
I16
sg27
g9
sg19
S'954.528852668'
p173
sg31
I-12
sg25
I5
sba(igraph
Vertex
p174
(dp175
g8
g16
sg17
I736823
sg10
I00
sg21
g22
sg18
I0
sg30
I764099
sg32
I-12
sg28
F102.0
sg29
F100.0
sg23
I16
sg27
g9
sg19
S'954.531050092'
p176
sg31
I-12
sg25
I5
sbasg36
I00
sg37
I00
sg38
I764036
sg19
S'954.547878525'
p177
sg25
I3
sba(igraph
Edge
p178
(dp179
g7
I1
sg8
g9
sg10
I00
sg11
I5
sg12
(lp180
(igraph
Vertex
p181
(dp182
g8
g16
sg17
I760508
sg10
I00
sg21
g22
sg18
I0
sg30
I764097
sg32
I-12
sg28
F42.0
sg29
F40.0
sg23
I16
sg27
g9
sg19
S'954.529258704'
p183
sg31
I-12
sg25
I5
sba(igraph
Vertex
p184
(dp185
g8
g16
sg17
I736826
sg10
I00
sg21
g22
sg18
I0
sg30
I764101
sg32
I-12
sg28
F102.0
sg29
F40.0
sg23
I16
sg27
g9
sg19
S'954.531514876'
p186
sg31
I-12
sg25
I5
sbasg36
I00
sg37
I00
sg38
I764037
sg19
S'954.548685384'
p187
sg25
I3
sba(igraph
Edge
p188
(dp189
g7
I1
sg8
g9
sg10
I00
sg11
I5
sg12
(lp190
g171
ag184
asg36
I00
sg37
I00
sg38
I764038
sg19
S'954.552000944'
p191
sg25
I3
sba(igraph
Edge
p192
(dp193
g7
I1
sg8
g9
sg10
I00
sg11
I5
sg12
(lp194
g174
a(igraph
Vertex
p195
(dp196
g8
g16
sg17
I438027
sg10
I00
sg21
g22
sg18
I0
sg30
I764103
sg32
I-12
sg28
F162.0
sg29
F100.0
sg23
I16
sg27
g9
sg19
S'954.533436082'
p197
sg31
I-12
sg25
I5
sbasg36
I00
sg37
I00
sg38
I764039
sg19
S'954.555566189'
p198
sg25
I3
sba(igraph
Edge
p199
(dp200
g7
I1
sg8
g9
sg10
I00
sg11
I5
sg12
(lp201
g184
a(igraph
Vertex
p202
(dp203
g8
g16
sg17
I764106
sg10
I00
sg21
I0
sg18
I0
sg30
I764105
sg32
I-12
sg28
F162.0
sg29
F40.0
sg23
I16
sg27
g9
sg19
S'954.533927873'
p204
sg31
I-12
sg25
I5
sbasg36
I00
sg37
I00
sg38
I764040
sg19
S'954.556494338'
p205
sg25
I3
sba(igraph
Edge
p206
(dp207
g7
I1
sg8
g9
sg10
I00
sg11
I5
sg12
(lp208
g195
a(igraph
Vertex
p209
(dp210
g8
g16
sg17
Nsg10
I00
sg21
g22
sg18
I0
sg30
I764108
sg32
I-12
sg28
F222.0
sg29
F100.0
sg23
I16
sg27
g9
sg19
S'954.535527851'
p211
sg31
I-12
sg25
I5
sbasg36
I00
sg37
I00
sg38
I764041
sg19
S'954.559554053'
p212
sg25
I3
sba(igraph
Edge
p213
(dp214
g7
I1
sg8
g9
sg10
I00
sg11
I5
sg12
(lp215
g202
a(igraph
Vertex
p216
(dp217
g8
g16
sg17
Nsg10
I00
sg21
g22
sg18
I0
sg30
I764110
sg32
I-12
sg28
F222.0
sg29
F40.0
sg23
I16
sg27
g9
sg19
S'954.536058018'
p218
sg31
I-12
sg25
I5
sbasg36
I00
sg37
I00
sg38
I764042
sg19
S'954.560554691'
p219
sg25
I3
sba(igraph
Edge
p220
(dp221
g7
I1
sg8
g9
sg10
I00
sg11
I5
sg12
(lp222
g195
ag216
asg36
I00
sg37
I00
sg38
I764043
sg19
S'954.564869941'
p223
sg25
I3
sba(igraph
Edge
p224
(dp225
g7
I1
sg8
g9
sg10
I00
sg11
I5
sg12
(lp226
g202
a(igraph
Vertex
p227
(dp228
g8
g16
sg17
Nsg10
I00
sg21
g22
sg23
I16
sg18
I0
sg32
I-12
sg28
F220.0
sg29
F-24.0
sg30
I764112
sg27
g9
sg19
S'1020.85557652'
p229
sg31
I-12
sg25
I5
sbasg36
I00
sg37
I00
sg38
I764044
sg19
S'1020.85669371'
p230
sg25
I3
sba(igraph
Edge
p231
(dp232
g7
I1
sg8
g9
sg10
I00
sg11
I5
sg12
(lp233
g227
ag92
asg36
I00
sg37
I00
sg38
I764045
sg19
S'1024.29463806'
p234
sg25
I3
sba(igraph
Edge
p235
(dp236
g7
I1
sg8
g9
sg10
I00
sg11
I5
sg12
(lp237
g33
ag181
asg36
I00
sg37
I00
sg38
I764046
sg19
S'1053.57326165'
p238
sg25
I3
sba(igraph
Edge
p239
(dp240
g7
I1
sg8
g9
sg10
I00
sg11
I5
sg12
(lp241
(igraph
Vertex
p242
(dp243
g8
g16
sg17
I760525
sg10
I00
sg21
g22
sg18
I0
sg30
I764114
sg32
I-12
sg28
F41.75
sg29
F166.25
sg23
I16
sg27
g9
sg19
S'4860.51671425'
p244
sg31
I-12
sg25
I5
sba(igraph
Vertex
p245
(dp246
g8
g16
sg17
I736869
sg10
I00
sg21
g22
sg18
I0
sg30
I764116
sg32
I-12
sg28
F101.75
sg29
F166.25
sg23
I16
sg27
g9
sg19
S'4860.51735528'
p247
sg31
I-12
sg25
I5
sbasg36
I00
sg37
I00
sg38
I764047
sg19
S'4860.53386391'
p248
sg25
I3
sba(igraph
Edge
p249
(dp250
g7
I1
sg8
g9
sg10
I00
sg11
I5
sg12
(lp251
g245
a(igraph
Vertex
p252
(dp253
g8
g16
sg17
I764119
sg10
I00
sg21
I0
sg18
I0
sg30
I764118
sg32
I-12
sg28
F161.75
sg29
F166.25
sg23
I16
sg27
g9
sg19
S'4860.51791341'
p254
sg31
I-12
sg25
I5
sbasg36
I00
sg37
I00
sg38
I764048
sg19
S'4860.53515309'
p255
sg25
I3
sba(igraph
Edge
p256
(dp257
g7
I1
sg8
g9
sg10
I00
sg11
I5
sg12
(lp258
(igraph
Vertex
p259
(dp260
g8
g16
sg17
I760534
sg10
I00
sg21
g22
sg18
I0
sg30
I764121
sg32
I-12
sg28
F41.75
sg29
F230.25
sg23
I16
sg27
g9
sg19
S'4860.51918694'
p261
sg31
I-12
sg25
I5
sba(igraph
Vertex
p262
(dp263
g8
g16
sg17
I736881
sg10
I00
sg21
g22
sg18
I0
sg30
I764123
sg32
I-12
sg28
F101.75
sg29
F230.25
sg23
I16
sg27
g9
sg19
S'4860.52036478'
p264
sg31
I-12
sg25
I5
sbasg36
I00
sg37
I00
sg38
I764049
sg19
S'4860.53748649'
p265
sg25
I3
sba(igraph
Edge
p266
(dp267
g7
I1
sg8
g9
sg10
I00
sg11
I5
sg12
(lp268
g262
a(igraph
Vertex
p269
(dp270
g8
g16
sg17
Nsg10
I00
sg21
g22
sg18
I0
sg30
I764125
sg32
I-12
sg28
F161.75
sg29
F230.25
sg23
I16
sg27
g9
sg19
S'4860.52157199'
p271
sg31
I-12
sg25
I5
sbasg36
I00
sg37
I00
sg38
I764050
sg19
S'4860.54140091'
p272
sg25
I3
sba(igraph
Edge
p273
(dp274
g7
I1
sg8
g9
sg10
I00
sg11
I5
sg12
(lp275
g269
a(igraph
Vertex
p276
(dp277
g8
g16
sg17
Nsg10
I00
sg21
g22
sg18
I0
sg30
I764127
sg32
I-12
sg28
F219.75
sg29
F166.25
sg23
I16
sg27
g9
sg19
S'4860.52360595'
p278
sg31
I-12
sg25
I5
sbasg36
I00
sg37
I00
sg38
I764051
sg19
S'4860.54640363'
p279
sg25
I3
sba(igraph
Edge
p280
(dp281
g7
I1
sg8
g9
sg10
I00
sg11
I5
sg12
(lp282
g276
ag252
asg36
I00
sg37
I00
sg38
I764052
sg19
S'4860.54765964'
p283
sg25
I3
sba(igraph
Edge
p284
(dp285
g7
I1
sg8
g9
sg10
I00
sg11
I5
sg12
(lp286
g245
ag259
asg36
I00
sg37
I00
sg38
I764053
sg19
S'4860.54896018'
p287
sg25
I3
sba(igraph
Edge
p288
(dp289
g7
I1
sg8
g9
sg10
I00
sg11
I5
sg12
(lp290
g209
ag252
asg36
I00
sg37
I00
sg38
I764054
sg19
S'4874.11191081'
p291
sg25
I3
sba(igraph
Edge
p292
(dp293
g7
I1
sg8
g9
sg10
I00
sg11
I5
sg12
(lp294
g174
ag242
asg36
I00
sg37
I00
sg38
I764055
sg19
S'4881.4580566'
p295
sg25
I3
sbasS'vertices'
p296
(lp297
g14
ag43
ag53
ag63
ag33
ag46
ag56
ag66
ag85
ag92
ag99
ag106
ag113
ag120
ag127
ag134
ag141
ag148
ag171
ag181
ag174
ag184
ag195
ag202
ag209
ag216
ag227
ag242
ag245
ag252
ag259
ag262
ag269
ag276
asS'tags'
p298
(lp299
sb.