(igraph
Graph
p0
(dp1
S'labelingConstraints'
p2
I-1
sS'edges'
p3
(lp4
(igraph
Edge
p5
(dp6
S'direction'
p7
I1
sS'selected'
p8
I00
sS'height'
p9
I5
sS'vs'
p10
(lp11
(igraph
Vertex
p12
(dp13
g8
I00
sS'label'
p14
S'NULL'
p15
sS'y'
p16
F-150.0
sS'x'
p17
F-149.99999999999997
sS'circle'
p18
I208046
sS'id'
p19
S'19590.2859146'
p20
sba(igraph
Vertex
p21
(dp22
g8
I00
sg14
g15
sg16
F-150.0
sg17
F-107.14285714285711
sg18
I208047
sg19
S'19590.2859528'
p23
sbasS'wrap'
p24
I00
sS'curved'
p25
I00
sS'line'
p26
I208024
sg19
S'19590.2948903'
p27
sba(igraph
Edge
p28
(dp29
g7
I1
sg8
I00
sg9
I5
sg10
(lp30
g21
a(igraph
Vertex
p31
(dp32
g8
I00
sg14
g15
sg16
F-150.0
sg17
F-64.285714285714263
sg18
I208048
sg19
S'19590.2859967'
p33
sbasg24
I00
sg25
I00
sg26
I208025
sg19
S'19590.2949892'
p34
sba(igraph
Edge
p35
(dp36
g7
I1
sg8
I00
sg9
I5
sg10
(lp37
g31
a(igraph
Vertex
p38
(dp39
g8
I00
sg14
g15
sg16
F-150.0
sg17
F-21.428571428571416
sg18
I208049
sg19
S'19590.2860506'
p40
sbasg24
I00
sg25
I00
sg26
I208026
sg19
S'19590.2951152'
p41
sba(igraph
Edge
p42
(dp43
g7
I1
sg8
I00
sg9
I5
sg10
(lp44
g38
a(igraph
Vertex
p45
(dp46
g8
I00
sg14
g15
sg16
F-150.0
sg17
F21.428571428571445
sg18
I208050
sg19
S'19590.2861294'
p47
sbasg24
I00
sg25
I00
sg26
I208027
sg19
S'19590.2953177'
p48
sba(igraph
Edge
p49
(dp50
g7
I1
sg8
I00
sg9
I5
sg10
(lp51
g45
a(igraph
Vertex
p52
(dp53
g8
I00
sg14
g15
sg16
F-150.0
sg17
F64.285714285714278
sg18
I208051
sg19
S'19590.2862107'
p54
sbasg24
I00
sg25
I00
sg26
I208028
sg19
S'19590.2955465'
p55
sba(igraph
Edge
p56
(dp57
g7
I1
sg8
I00
sg9
I5
sg10
(lp58
g52
a(igraph
Vertex
p59
(dp60
g8
I00
sg14
g15
sg16
F-150.0
sg17
F107.14285714285714
sg18
I208052
sg19
S'19590.2863087'
p61
sbasg24
I00
sg25
I00
sg26
I208029
sg19
S'19590.2958074'
p62
sba(igraph
Edge
p63
(dp64
g7
I1
sg8
I00
sg9
I5
sg10
(lp65
g59
a(igraph
Vertex
p66
(dp67
g8
I00
sg14
g15
sg16
F-150.0
sg17
F149.99999999999997
sg18
I208053
sg19
S'19590.2864216'
p68
sbasg24
I00
sg25
I00
sg26
I208030
sg19
S'19590.2960927'
p69
sba(igraph
Edge
p70
(dp71
g7
I1
sg8
I00
sg9
I5
sg10
(lp72
(igraph
Vertex
p73
(dp74
g8
I00
sg14
g15
sg16
F-50.0
sg17
F-149.99999999999997
sg18
I208054
sg19
S'19590.2865487'
p75
sba(igraph
Vertex
p76
(dp77
g8
I00
sg14
I0
sg16
F-50.0
sg17
F-107.14285714285711
sg18
I208055
sg19
S'19590.2867518'
p78
sbasg24
I00
sg25
I00
sg26
I208031
sg19
S'19590.2965964'
p79
sba(igraph
Edge
p80
(dp81
g7
I1
sg8
I00
sg9
I5
sg10
(lp82
g76
a(igraph
Vertex
p83
(dp84
g8
I00
sg14
g15
sg16
F-50.0
sg17
F-64.285714285714263
sg18
I208057
sg19
S'19590.2869105'
p85
sbasg24
I00
sg25
I00
sg26
I208032
sg19
S'19590.2969769'
p86
sba(igraph
Edge
p87
(dp88
g7
I1
sg8
I00
sg9
I5
sg10
(lp89
g83
a(igraph
Vertex
p90
(dp91
g8
I00
sg14
I0
sg16
F-50.0
sg17
F-21.428571428571416
sg18
I208058
sg19
S'19590.2870837'
p92
sbasg24
I00
sg25
I00
sg26
I208033
sg19
S'19590.297404'
p93
sba(igraph
Edge
p94
(dp95
g7
I1
sg8
I00
sg9
I5
sg10
(lp96
g90
a(igraph
Vertex
p97
(dp98
g8
I00
sg14
g15
sg16
F-50.0
sg17
F21.428571428571445
sg18
I208060
sg19
S'19590.2872832'
p99
sbasg24
I00
sg25
I00
sg26
I208034
sg19
S'19590.2977965'
p100
sba(igraph
Edge
p101
(dp102
g7
I1
sg8
I00
sg9
I5
sg10
(lp103
g97
a(igraph
Vertex
p104
(dp105
g8
I00
sg14
I0
sg16
F-50.0
sg17
F64.285714285714278
sg18
I208061
sg19
S'19590.2874891'
p106
sbasg24
I00
sg25
I00
sg26
I208035
sg19
S'19590.2984656'
p107
sba(igraph
Edge
p108
(dp109
g7
I1
sg8
I00
sg9
I5
sg10
(lp110
g104
a(igraph
Vertex
p111
(dp112
g8
I00
sg14
g15
sg16
F-50.0
sg17
F107.14285714285714
sg18
I208063
sg19
S'19590.2878422'
p113
sbasg24
I00
sg25
I00
sg26
I208036
sg19
S'19590.2989372'
p114
sba(igraph
Edge
p115
(dp116
g7
I1
sg8
I00
sg9
I5
sg10
(lp117
g111
a(igraph
Vertex
p118
(dp119
g8
I00
sg14
g15
sg16
F-50.0
sg17
F149.99999999999997
sg18
I208064
sg19
S'19590.2880875'
p120
sbasg24
I00
sg25
I00
sg26
I208037
sg19
S'19590.2994272'
p121
sba(igraph
Edge
p122
(dp123
g7
I1
sg8
I00
sg9
I5
sg10
(lp124
g12
ag76
asg24
I00
sg25
I00
sg26
I208038
sg19
S'19590.3131689'
p125
sba(igraph
Edge
p126
(dp127
g7
I1
sg8
I00
sg9
I5
sg10
(lp128
g31
ag90
asg24
I00
sg25
I00
sg26
I208039
sg19
S'19590.3141581'
p129
sba(igraph
Edge
p130
(dp131
g7
I1
sg8
I00
sg9
I5
sg10
(lp132
g45
ag104
asg24
I00
sg25
I00
sg26
I208040
sg19
S'19590.3151713'
p133
sba(igraph
Edge
p134
(dp135
g7
I1
sg8
I00
sg9
I5
sg10
(lp136
g59
ag118
asg24
I00
sg25
I00
sg26
I208041
sg19
S'19590.3162075'
p137
sba(igraph
Edge
p138
(dp139
g7
I1
sg8
I00
sg9
I5
sg10
(lp140
g73
a(igraph
Vertex
p141
(dp142
g8
I00
sg14
g15
sg16
F50.0
sg17
F-107.14285714285711
sg18
I208065
sg19
S'19590.2886188'
p143
sbasg24
I00
sg25
I00
sg26
I208042
sg19
S'19590.3172828'
p144
sba(igraph
Edge
p145
(dp146
g7
I1
sg8
I00
sg9
I5
sg10
(lp147
g83
a(igraph
Vertex
p148
(dp149
g8
I00
sg14
g15
sg16
F50.0
sg17
F-21.428571428571416
sg18
I208066
sg19
S'19590.2892116'
p150
sbasg24
I00
sg25
I00
sg26
I208043
sg19
S'19590.3183868'
p151
sba(igraph
Edge
p152
(dp153
g7
I1
sg8
I00
sg9
I5
sg10
(lp154
g97
a(igraph
Vertex
p155
(dp156
g8
I00
sg14
g15
sg16
F50.0
sg17
F64.285714285714278
sg18
I208067
sg19
S'19590.2899595'
p157
sbasg24
I00
sg25
I00
sg26
I208044
sg19
S'19590.3195124'
p158
sba(igraph
Edge
p159
(dp160
g7
I1
sg8
I00
sg9
I5
sg10
(lp161
g111
a(igraph
Vertex
p162
(dp163
g8
I00
sg14
I0
sg16
F50.0
sg17
F149.99999999999997
sg18
I208068
sg19
S'19590.2907252'
p164
sbasg24
I00
sg25
I00
sg26
I208045
sg19
S'19590.3206799'
p165
sbasS'vertices'
p166
(lp167
g12
ag21
ag31
ag38
ag45
ag52
ag59
ag66
ag73
ag76
ag83
ag90
ag97
ag104
ag111
ag118
ag141
ag148
ag155
ag162
asS'tags'
p168
(lp169
sb.