(igraph
Graph
p0
(dp1
S'labelingConstraints'
p2
I-1
sS'edges'
p3
(lp4
(igraph
Edge
p5
(dp6
S'direction'
p7
I1
sS'selected'
p8
I00
sS'height'
p9
I5
sS'vs'
p10
(lp11
(igraph
Vertex
p12
(dp13
S'y'
p14
F-75.0
sS'x'
p15
F-150.00000000000003
sS'circle'
p16
I202826
sg8
I00
sS'id'
p17
S'18551.4824708'
p18
sS'label'
p19
S'NULL'
p20
sba(igraph
Vertex
p21
(dp22
g14
F-75.0
sg15
F-116.6666666666667
sg16
I202827
sg8
I00
sg17
S'18551.482508'
p23
sg19
g20
sbasS'wrap'
p24
I00
sS'curved'
p25
I00
sS'line'
p26
I202798
sg17
S'18551.4901682'
p27
sba(igraph
Edge
p28
(dp29
g7
I1
sg8
I00
sg9
I5
sg10
(lp30
g21
a(igraph
Vertex
p31
(dp32
g14
F-75.0
sg15
F-83.333333333333371
sg16
I202828
sg8
I00
sg17
S'18551.4825538'
p33
sg19
g20
sbasg24
I00
sg25
I00
sg26
I202799
sg17
S'18551.4902668'
p34
sba(igraph
Edge
p35
(dp36
g7
I1
sg8
I00
sg9
I5
sg10
(lp37
g31
a(igraph
Vertex
p38
(dp39
g14
F-75.0
sg15
F-50.000000000000028
sg16
I202829
sg8
I00
sg17
S'18551.482608'
p40
sg19
g20
sbasg24
I00
sg25
I00
sg26
I202800
sg17
S'18551.4903922'
p41
sba(igraph
Edge
p42
(dp43
g7
I1
sg8
I00
sg9
I5
sg10
(lp44
g38
a(igraph
Vertex
p45
(dp46
g14
F-75.0
sg15
F-16.666666666666714
sg16
I202830
sg8
I00
sg17
S'18551.4826756'
p47
sg19
g20
sbasg24
I00
sg25
I00
sg26
I202801
sg17
S'18551.4905475'
p48
sba(igraph
Edge
p49
(dp50
g7
I1
sg8
I00
sg9
I5
sg10
(lp51
g45
a(igraph
Vertex
p52
(dp53
g14
F-75.0
sg15
F16.666666666666657
sg16
I202831
sg8
I00
sg17
S'18551.4827577'
p54
sg19
g20
sbasg24
I00
sg25
I00
sg26
I202802
sg17
S'18551.490733'
p55
sba(igraph
Edge
p56
(dp57
g7
I1
sg8
I00
sg9
I5
sg10
(lp58
g52
a(igraph
Vertex
p59
(dp60
g14
F-75.0
sg15
F50.0
sg16
I202832
sg8
I00
sg17
S'18551.4828569'
p61
sg19
g20
sbasg24
I00
sg25
I00
sg26
I202803
sg17
S'18551.4909537'
p62
sba(igraph
Edge
p63
(dp64
g7
I1
sg8
I00
sg9
I5
sg10
(lp65
g59
a(igraph
Vertex
p66
(dp67
g14
F-75.0
sg15
F83.333333333333343
sg16
I202833
sg8
I00
sg17
S'18551.4829698'
p68
sg19
g20
sbasg24
I00
sg25
I00
sg26
I202804
sg17
S'18551.4912013'
p69
sba(igraph
Edge
p70
(dp71
g7
I1
sg8
I00
sg9
I5
sg10
(lp72
g66
a(igraph
Vertex
p73
(dp74
g14
F-75.0
sg15
F116.66666666666671
sg16
I202834
sg8
I00
sg17
S'18551.4831268'
p75
sg19
g20
sbasg24
I00
sg25
I00
sg26
I202805
sg17
S'18551.4914803'
p76
sba(igraph
Edge
p77
(dp78
g7
I1
sg8
I00
sg9
I5
sg10
(lp79
g73
a(igraph
Vertex
p80
(dp81
g14
F-75.0
sg15
F150.00000000000003
sg16
I202835
sg8
I00
sg17
S'18551.4832718'
p82
sg19
g20
sbasg24
I00
sg25
I00
sg26
I202806
sg17
S'18551.4917943'
p83
sba(igraph
Edge
p84
(dp85
g7
I1
sg8
I00
sg9
I5
sg10
(lp86
(igraph
Vertex
p87
(dp88
g14
F0.0
sg15
F-150.00000000000003
sg16
I202836
sg8
I00
sg17
S'18551.4834324'
p89
sg19
g20
sba(igraph
Vertex
p90
(dp91
g14
F0.0
sg15
F-116.6666666666667
sg16
I202837
sg8
I00
sg17
S'18551.4836073'
p92
sg19
I0
sbasg24
I00
sg25
I00
sg26
I202807
sg17
S'18551.492162'
p93
sba(igraph
Edge
p94
(dp95
g7
I1
sg8
I00
sg9
I5
sg10
(lp96
g90
a(igraph
Vertex
p97
(dp98
g14
F0.0
sg15
F-83.333333333333371
sg16
I202839
sg8
I00
sg17
S'18551.4837975'
p99
sg19
g20
sbasg24
I00
sg25
I00
sg26
I202808
sg17
S'18551.4925366'
p100
sba(igraph
Edge
p101
(dp102
g7
I1
sg8
I00
sg9
I5
sg10
(lp103
g97
a(igraph
Vertex
p104
(dp105
g14
F0.0
sg15
F-50.000000000000028
sg16
I202840
sg8
I00
sg17
S'18551.4840031'
p106
sg19
I0
sbasg24
I00
sg25
I00
sg26
I202809
sg17
S'18551.4929437'
p107
sba(igraph
Edge
p108
(dp109
g7
I1
sg8
I00
sg9
I5
sg10
(lp110
g104
a(igraph
Vertex
p111
(dp112
g14
F0.0
sg15
F-16.666666666666714
sg16
I202842
sg8
I00
sg17
S'18551.4842372'
p113
sg19
g20
sbasg24
I00
sg25
I00
sg26
I202810
sg17
S'18551.4933783'
p114
sba(igraph
Edge
p115
(dp116
g7
I1
sg8
I00
sg9
I5
sg10
(lp117
g111
a(igraph
Vertex
p118
(dp119
g14
F0.0
sg15
F16.666666666666657
sg16
I202843
sg8
I00
sg17
S'18551.4844753'
p120
sg19
I0
sbasg24
I00
sg25
I00
sg26
I202811
sg17
S'18551.4938468'
p121
sba(igraph
Edge
p122
(dp123
g7
I1
sg8
I00
sg9
I5
sg10
(lp124
g118
a(igraph
Vertex
p125
(dp126
g14
F0.0
sg15
F50.0
sg16
I202845
sg8
I00
sg17
S'18551.4847275'
p127
sg19
g20
sbasg24
I00
sg25
I00
sg26
I202812
sg17
S'18551.4943436'
p128
sba(igraph
Edge
p129
(dp130
g7
I1
sg8
I00
sg9
I5
sg10
(lp131
g125
a(igraph
Vertex
p132
(dp133
g14
F0.0
sg15
F83.333333333333343
sg16
I202846
sg8
I00
sg17
S'18551.4849994'
p134
sg19
I0
sbasg24
I00
sg25
I00
sg26
I202813
sg17
S'18551.4948704'
p135
sba(igraph
Edge
p136
(dp137
g7
I1
sg8
I00
sg9
I5
sg10
(lp138
g132
a(igraph
Vertex
p139
(dp140
g14
F0.0
sg15
F116.66666666666671
sg16
I202848
sg8
I00
sg17
S'18551.4853022'
p141
sg19
g20
sbasg24
I00
sg25
I00
sg26
I202814
sg17
S'18551.4954255'
p142
sba(igraph
Edge
p143
(dp144
g7
I1
sg8
I00
sg9
I5
sg10
(lp145
g139
a(igraph
Vertex
p146
(dp147
g14
F0.0
sg15
F150.00000000000003
sg16
I202849
sg8
I00
sg17
S'18551.4856061'
p148
sg19
g20
sbasg24
I00
sg25
I00
sg26
I202815
sg17
S'18551.4960172'
p149
sba(igraph
Edge
p150
(dp151
g7
I1
sg8
I00
sg9
I5
sg10
(lp152
g12
ag90
asg24
I00
sg25
I00
sg26
I202816
sg17
S'18551.5039501'
p153
sba(igraph
Edge
p154
(dp155
g7
I1
sg8
I00
sg9
I5
sg10
(lp156
g31
ag104
asg24
I00
sg25
I00
sg26
I202817
sg17
S'18551.504922'
p157
sba(igraph
Edge
p158
(dp159
g7
I1
sg8
I00
sg9
I5
sg10
(lp160
g45
ag118
asg24
I00
sg25
I00
sg26
I202818
sg17
S'18551.5059126'
p161
sba(igraph
Edge
p162
(dp163
g7
I1
sg8
I00
sg9
I5
sg10
(lp164
g59
ag132
asg24
I00
sg25
I00
sg26
I202819
sg17
S'18551.5069262'
p165
sba(igraph
Edge
p166
(dp167
g7
I1
sg8
I00
sg9
I5
sg10
(lp168
g73
ag146
asg24
I00
sg25
I00
sg26
I202820
sg17
S'18551.5080442'
p169
sba(igraph
Edge
p170
(dp171
g7
I1
sg8
I00
sg9
I5
sg10
(lp172
g87
a(igraph
Vertex
p173
(dp174
g14
F75.0
sg15
F-116.6666666666667
sg16
I202850
sg8
I00
sg17
S'18551.4863624'
p175
sg19
g20
sbasg24
I00
sg25
I00
sg26
I202821
sg17
S'18551.5091365'
p176
sba(igraph
Edge
p177
(dp178
g7
I1
sg8
I00
sg9
I5
sg10
(lp179
g97
a(igraph
Vertex
p180
(dp181
g14
F75.0
sg15
F-50.000000000000028
sg16
I202851
sg8
I00
sg17
S'18551.4870971'
p182
sg19
g20
sbasg24
I00
sg25
I00
sg26
I202822
sg17
S'18551.5102512'
p183
sba(igraph
Edge
p184
(dp185
g7
I1
sg8
I00
sg9
I5
sg10
(lp186
g111
a(igraph
Vertex
p187
(dp188
g14
F75.0
sg15
F16.666666666666657
sg16
I202852
sg8
I00
sg17
S'18551.4878776'
p189
sg19
g20
sbasg24
I00
sg25
I00
sg26
I202823
sg17
S'18551.511379'
p190
sba(igraph
Edge
p191
(dp192
g7
I1
sg8
I00
sg9
I5
sg10
(lp193
g125
a(igraph
Vertex
p194
(dp195
g14
F75.0
sg15
F83.333333333333343
sg16
I202853
sg8
I00
sg17
S'18551.48873'
p196
sg19
g20
sbasg24
I00
sg25
I00
sg26
I202824
sg17
S'18551.5125442'
p197
sba(igraph
Edge
p198
(dp199
g7
I1
sg8
I00
sg9
I5
sg10
(lp200
g139
a(igraph
Vertex
p201
(dp202
g14
F75.0
sg15
F150.00000000000003
sg16
I202854
sg8
I00
sg17
S'18551.4896444'
p203
sg19
I0
sbasg24
I00
sg25
I00
sg26
I202825
sg17
S'18551.5137656'
p204
sbasS'vertices'
p205
(lp206
g12
ag21
ag31
ag38
ag45
ag52
ag59
ag66
ag73
ag80
ag87
ag90
ag97
ag104
ag111
ag118
ag125
ag132
ag139
ag146
ag173
ag180
ag187
ag194
ag201
asS'tags'
p207
(lp208
sb.