(igraph
Graph
p0
(dp1
S'labelingConstraints'
p2
I-1
sS'edges'
p3
(lp4
(igraph
Edge
p5
(dp6
S'direction'
p7
I1
sS'color'
p8
S'black'
p9
sS'selected'
p10
I00
sS'height'
p11
I5
sS'vs'
p12
(lp13
(igraph
Vertex
p14
(dp15
g8
S'#ffffff'
p16
sS'text'
p17
I755551
sS'shape'
p18
I0
sS'id'
p19
S'540.080602979'
p20
sS'lcolor'
p21
g9
sS'lsize'
p22
I16
sS'ynorm'
p23
F0.40000000000000002
sS'size'
p24
I5
sS'xnorm'
p25
F0.0
sg10
I00
sS'label'
p26
I0
sS'y'
p27
F42.0
sS'x'
p28
F-24.0
sS'circle'
p29
I755550
sS'lx'
p30
I-12
sS'ly'
p31
I-12
sba(igraph
Vertex
p32
(dp33
g8
g16
sg17
I736787
sg18
I0
sg19
S'540.082797559'
p34
sg21
g9
sg22
I16
sg23
F0.59999999999999998
sg24
I5
sg25
F0.0
sg10
I00
sg26
S'NULL'
p35
sg27
F102.0
sg28
F-24.0
sg29
I755562
sg30
I-12
sg31
I-12
sbasS'wrap'
p36
I00
sS'curved'
p37
I00
sS'line'
p38
I755474
sg19
S'540.128793256'
p39
sg24
I3
sba(igraph
Edge
p40
(dp41
g7
I1
sg8
g9
sg10
I00
sg11
I5
sg12
(lp42
(igraph
Vertex
p43
(dp44
g8
g16
sg17
I755554
sg18
I0
sg19
S'540.081060183'
p45
sg21
g9
sg22
I16
sg23
F0.40000000000000002
sg24
I5
sg25
F0.25
sg10
I00
sg26
I0
sg27
F42.0
sg28
F-84.0
sg29
I755553
sg30
I-12
sg31
I-12
sba(igraph
Vertex
p46
(dp47
g8
g16
sg17
I736790
sg18
I0
sg19
S'540.083248131'
p48
sg21
g9
sg22
I16
sg23
F0.59999999999999998
sg24
I5
sg25
F0.25
sg10
I00
sg26
g35
sg27
F102.0
sg28
F-84.0
sg29
I755564
sg30
I-12
sg31
I-12
sbasg36
I00
sg37
I00
sg38
I755475
sg19
S'540.130000464'
p49
sg24
I3
sba(igraph
Edge
p50
(dp51
g7
I1
sg8
g9
sg10
I00
sg11
I5
sg12
(lp52
(igraph
Vertex
p53
(dp54
g8
g16
sg17
I755557
sg18
I0
sg19
S'540.081470956'
p55
sg21
g9
sg22
I16
sg23
F0.40000000000000002
sg24
I5
sg25
F0.5
sg10
I00
sg26
I0
sg27
F42.0
sg28
F-144.0
sg29
I755556
sg30
I-12
sg31
I-12
sba(igraph
Vertex
p56
(dp57
g8
g16
sg17
I736793
sg18
I0
sg19
S'540.083699649'
p58
sg21
g9
sg22
I16
sg23
F0.59999999999999998
sg24
I5
sg25
F0.5
sg10
I00
sg26
g35
sg27
F102.0
sg28
F-144.0
sg29
I755566
sg30
I-12
sg31
I-12
sbasg36
I00
sg37
I00
sg38
I755476
sg19
S'540.131266896'
p59
sg24
I3
sba(igraph
Edge
p60
(dp61
g7
I1
sg8
g9
sg10
I00
sg11
I5
sg12
(lp62
(igraph
Vertex
p63
(dp64
g8
g16
sg17
I755560
sg18
I0
sg19
S'540.08190684'
p65
sg21
g9
sg22
I16
sg23
F0.40000000000000002
sg24
I5
sg25
F0.75
sg10
I00
sg26
I0
sg27
F42.0
sg28
F-204.0
sg29
I755559
sg30
I-12
sg31
I-12
sba(igraph
Vertex
p66
(dp67
g8
g16
sg17
I736796
sg18
I0
sg19
S'540.084193809'
p68
sg21
g9
sg22
I16
sg23
F0.59999999999999998
sg24
I5
sg25
F0.75
sg10
I00
sg26
g35
sg27
F102.0
sg28
F-204.0
sg29
I755568
sg30
I-12
sg31
I-12
sbasg36
I00
sg37
I00
sg38
I755477
sg19
S'540.132514377'
p69
sg24
I3
sba(igraph
Edge
p70
(dp71
g7
I1
sg8
g9
sg10
I00
sg11
I5
sg12
(lp72
g14
ag46
asg36
I00
sg37
I00
sg38
I755478
sg19
S'540.135057191'
p73
sg24
I3
sba(igraph
Edge
p74
(dp75
g7
I1
sg8
g9
sg10
I00
sg11
I5
sg12
(lp76
g43
ag56
asg36
I00
sg37
I00
sg38
I755479
sg19
S'540.13633452'
p77
sg24
I3
sba(igraph
Edge
p78
(dp79
g7
I1
sg8
g9
sg10
I00
sg11
I5
sg12
(lp80
g53
ag66
asg36
I00
sg37
I00
sg38
I755480
sg19
S'540.137608059'
p81
sg24
I3
sba(igraph
Edge
p82
(dp83
g7
I1
sg8
g9
sg10
I00
sg11
I5
sg12
(lp84
g63
a(igraph
Vertex
p85
(dp86
g8
g16
sg17
I285260
sg18
I0
sg19
S'540.084667596'
p87
sg21
g9
sg22
I16
sg23
F0.59999999999999998
sg24
I5
sg25
F1.0
sg10
I00
sg26
g35
sg27
F102.0
sg28
F-264.0
sg29
I755570
sg30
I-12
sg31
I-12
sbasg36
I00
sg37
I00
sg38
I755481
sg19
S'540.138904813'
p88
sg24
I3
sba(igraph
Edge
p89
(dp90
g7
I1
sg8
g9
sg10
I00
sg11
I5
sg12
(lp91
g32
a(igraph
Vertex
p92
(dp93
g8
g16
sg17
I582713
sg18
I0
sg19
S'540.08516981'
p94
sg21
g9
sg22
I16
sg23
F0.80000000000000004
sg24
I5
sg25
F0.0
sg10
I00
sg26
g35
sg27
F162.0
sg28
F-24.0
sg29
I755572
sg30
I-12
sg31
I-12
sbasg36
I00
sg37
I00
sg38
I755482
sg19
S'540.140227152'
p95
sg24
I3
sba(igraph
Edge
p96
(dp97
g7
I1
sg8
g9
sg10
I00
sg11
I5
sg12
(lp98
g46
a(igraph
Vertex
p99
(dp100
g8
g16
sg17
I480736
sg18
I0
sg19
S'540.085673919'
p101
sg21
g9
sg22
I16
sg23
F0.80000000000000004
sg24
I5
sg25
F0.25
sg10
I00
sg26
g35
sg27
F162.0
sg28
F-84.0
sg29
I755574
sg30
I-12
sg31
I-12
sbasg36
I00
sg37
I00
sg38
I755483
sg19
S'540.141569864'
p102
sg24
I3
sba(igraph
Edge
p103
(dp104
g7
I1
sg8
g9
sg10
I00
sg11
I5
sg12
(lp105
g56
a(igraph
Vertex
p106
(dp107
g8
g16
sg17
I437990
sg18
I0
sg19
S'540.08618324'
p108
sg21
g9
sg22
I16
sg23
F0.80000000000000004
sg24
I5
sg25
F0.5
sg10
I00
sg26
g35
sg27
F162.0
sg28
F-144.0
sg29
I755576
sg30
I-12
sg31
I-12
sbasg36
I00
sg37
I00
sg38
I755484
sg19
S'540.14297938'
p109
sg24
I3
sba(igraph
Edge
p110
(dp111
g7
I1
sg8
g9
sg10
I00
sg11
I5
sg12
(lp112
g66
a(igraph
Vertex
p113
(dp114
g8
g16
sg17
I582720
sg18
I0
sg19
S'540.08669872'
p115
sg21
g9
sg22
I16
sg23
F0.80000000000000004
sg24
I5
sg25
F0.75
sg10
I00
sg26
g35
sg27
F162.0
sg28
F-204.0
sg29
I755578
sg30
I-12
sg31
I-12
sbasg36
I00
sg37
I00
sg38
I755485
sg19
S'540.144329672'
p116
sg24
I3
sba(igraph
Edge
p117
(dp118
g7
I1
sg8
g9
sg10
I00
sg11
I5
sg12
(lp119
g85
a(igraph
Vertex
p120
(dp121
g8
g16
sg17
I437995
sg18
I0
sg19
S'540.087250682'
p122
sg21
g9
sg22
I16
sg23
F0.80000000000000004
sg24
I5
sg25
F1.0
sg10
I00
sg26
g35
sg27
F162.0
sg28
F-264.0
sg29
I755580
sg30
I-12
sg31
I-12
sbasg36
I00
sg37
I00
sg38
I755486
sg19
S'540.145697021'
p123
sg24
I3
sba(igraph
Edge
p124
(dp125
g7
I1
sg8
g9
sg10
I00
sg11
I5
sg12
(lp126
g99
a(igraph
Vertex
p127
(dp128
g8
g16
sg17
I285281
sg18
I0
sg19
S'540.088332811'
p129
sg21
g9
sg22
I16
sg23
F1.0
sg24
I5
sg25
F0.25
sg10
I00
sg26
g35
sg27
F222.0
sg28
F-84.0
sg29
I755582
sg30
I-12
sg31
I-12
sbasg36
I00
sg37
I00
sg38
I755487
sg19
S'540.154694232'
p130
sg24
I3
sba(igraph
Edge
p131
(dp132
g7
I1
sg8
g9
sg10
I00
sg11
I5
sg12
(lp133
g106
a(igraph
Vertex
p134
(dp135
g8
g16
sg17
I285284
sg18
I0
sg19
S'540.088898038'
p136
sg21
g9
sg22
I16
sg23
F1.0
sg24
I5
sg25
F0.5
sg10
I00
sg26
g35
sg27
F222.0
sg28
F-144.0
sg29
I755584
sg30
I-12
sg31
I-12
sbasg36
I00
sg37
I00
sg38
I755488
sg19
S'540.156256781'
p137
sg24
I3
sba(igraph
Edge
p138
(dp139
g7
I1
sg8
g9
sg10
I00
sg11
I5
sg12
(lp140
g113
a(igraph
Vertex
p141
(dp142
g8
g16
sg17
I285287
sg18
I0
sg19
S'540.089466582'
p143
sg21
g9
sg22
I16
sg23
F1.0
sg24
I5
sg25
F0.75
sg10
I00
sg26
g35
sg27
F222.0
sg28
F-204.0
sg29
I755586
sg30
I-12
sg31
I-12
sbasg36
I00
sg37
I00
sg38
I755489
sg19
S'540.157803695'
p144
sg24
I3
sba(igraph
Edge
p145
(dp146
g7
I1
sg8
g9
sg10
I00
sg11
I5
sg12
(lp147
g120
a(igraph
Vertex
p148
(dp149
g8
g16
sg17
I285290
sg18
I0
sg19
S'540.09014315'
p150
sg21
g9
sg22
I16
sg23
F1.0
sg24
I5
sg25
F1.0
sg10
I00
sg26
g35
sg27
F222.0
sg28
F-264.0
sg29
I755588
sg30
I-12
sg31
I-12
sbasg36
I00
sg37
I00
sg38
I755490
sg19
S'540.159323129'
p151
sg24
I3
sba(igraph
Edge
p152
(dp153
g7
I1
sg8
g9
sg10
I00
sg11
I5
sg12
(lp154
g92
ag127
asg36
I00
sg37
I00
sg38
I755491
sg19
S'540.160840668'
p155
sg24
I3
sba(igraph
Edge
p156
(dp157
g7
I1
sg8
g9
sg10
I00
sg11
I5
sg12
(lp158
g99
ag134
asg36
I00
sg37
I00
sg38
I755492
sg19
S'540.162395163'
p159
sg24
I3
sba(igraph
Edge
p160
(dp161
g7
I1
sg8
g9
sg10
I00
sg11
I5
sg12
(lp162
g106
ag141
asg36
I00
sg37
I00
sg38
I755493
sg19
S'540.163979506'
p163
sg24
I3
sba(igraph
Edge
p164
(dp165
g7
I1
sg8
g9
sg10
I00
sg11
I5
sg12
(lp166
g113
ag148
asg36
I00
sg37
I00
sg38
I755494
sg19
S'540.165667608'
p167
sg24
I3
sba(igraph
Edge
p168
(dp169
g7
I1
sg8
g9
sg10
I00
sg11
I5
sg12
(lp170
(igraph
Vertex
p171
(dp172
g8
g16
sg17
I755591
sg10
I00
sg26
I0
sg22
I16
sg18
I0
sg31
I-12
sg27
F42.0
sg28
F100.0
sg29
I755590
sg21
g9
sg19
S'954.528852668'
p173
sg30
I-12
sg24
I5
sba(igraph
Vertex
p174
(dp175
g8
g16
sg17
I736823
sg10
I00
sg26
g35
sg22
I16
sg18
I0
sg31
I-12
sg27
F102.0
sg28
F100.0
sg29
I755596
sg21
g9
sg19
S'954.531050092'
p176
sg30
I-12
sg24
I5
sbasg36
I00
sg37
I00
sg38
I755495
sg19
S'954.547878525'
p177
sg24
I3
sba(igraph
Edge
p178
(dp179
g7
I1
sg8
g9
sg10
I00
sg11
I5
sg12
(lp180
(igraph
Vertex
p181
(dp182
g8
g16
sg17
I755594
sg10
I00
sg26
I0
sg22
I16
sg18
I0
sg31
I-12
sg27
F42.0
sg28
F40.0
sg29
I755593
sg21
g9
sg19
S'954.529258704'
p183
sg30
I-12
sg24
I5
sba(igraph
Vertex
p184
(dp185
g8
g16
sg17
I736826
sg10
I00
sg26
g35
sg22
I16
sg18
I0
sg31
I-12
sg27
F102.0
sg28
F40.0
sg29
I755598
sg21
g9
sg19
S'954.531514876'
p186
sg30
I-12
sg24
I5
sbasg36
I00
sg37
I00
sg38
I755496
sg19
S'954.548685384'
p187
sg24
I3
sba(igraph
Edge
p188
(dp189
g7
I1
sg8
g9
sg10
I00
sg11
I5
sg12
(lp190
g171
ag184
asg36
I00
sg37
I00
sg38
I755497
sg19
S'954.552000944'
p191
sg24
I3
sba(igraph
Edge
p192
(dp193
g7
I1
sg8
g9
sg10
I00
sg11
I5
sg12
(lp194
g174
a(igraph
Vertex
p195
(dp196
g8
g16
sg17
I438027
sg10
I00
sg26
g35
sg22
I16
sg18
I0
sg31
I-12
sg27
F162.0
sg28
F100.0
sg29
I755600
sg21
g9
sg19
S'954.533436082'
p197
sg30
I-12
sg24
I5
sbasg36
I00
sg37
I00
sg38
I755498
sg19
S'954.555566189'
p198
sg24
I3
sba(igraph
Edge
p199
(dp200
g7
I1
sg8
g9
sg10
I00
sg11
I5
sg12
(lp201
g184
a(igraph
Vertex
p202
(dp203
g8
g16
sg17
I480771
sg10
I00
sg26
g35
sg22
I16
sg18
I0
sg31
I-12
sg27
F162.0
sg28
F40.0
sg29
I755602
sg21
g9
sg19
S'954.533927873'
p204
sg30
I-12
sg24
I5
sbasg36
I00
sg37
I00
sg38
I755499
sg19
S'954.556494338'
p205
sg24
I3
sba(igraph
Edge
p206
(dp207
g7
I1
sg8
g9
sg10
I00
sg11
I5
sg12
(lp208
g195
a(igraph
Vertex
p209
(dp210
g8
g16
sg17
Nsg10
I00
sg26
g35
sg22
I16
sg18
I0
sg31
I-12
sg27
F222.0
sg28
F100.0
sg29
I755604
sg21
g9
sg19
S'954.535527851'
p211
sg30
I-12
sg24
I5
sbasg36
I00
sg37
I00
sg38
I755500
sg19
S'954.559554053'
p212
sg24
I3
sba(igraph
Edge
p213
(dp214
g7
I1
sg8
g9
sg10
I00
sg11
I5
sg12
(lp215
g202
a(igraph
Vertex
p216
(dp217
g8
g16
sg17
Nsg10
I00
sg26
g35
sg22
I16
sg18
I0
sg31
I-12
sg27
F222.0
sg28
F40.0
sg29
I755606
sg21
g9
sg19
S'954.536058018'
p218
sg30
I-12
sg24
I5
sbasg36
I00
sg37
I00
sg38
I755501
sg19
S'954.560554691'
p219
sg24
I3
sba(igraph
Edge
p220
(dp221
g7
I1
sg8
g9
sg10
I00
sg11
I5
sg12
(lp222
g195
ag216
asg36
I00
sg37
I00
sg38
I755502
sg19
S'954.564869941'
p223
sg24
I3
sba(igraph
Edge
p224
(dp225
g7
I1
sg8
g9
sg10
I00
sg11
I5
sg12
(lp226
g202
a(igraph
Vertex
p227
(dp228
g8
g16
sg17
Nsg10
I00
sg26
g35
sg18
I0
sg29
I755608
sg31
I-12
sg27
F220.0
sg28
F-24.0
sg22
I16
sg21
g9
sg19
S'1020.85557652'
p229
sg30
I-12
sg24
I5
sbasg36
I00
sg37
I00
sg38
I755503
sg19
S'1020.85669371'
p230
sg24
I3
sba(igraph
Edge
p231
(dp232
g7
I1
sg8
g9
sg10
I00
sg11
I5
sg12
(lp233
g227
ag92
asg36
I00
sg37
I00
sg38
I755504
sg19
S'1024.29463806'
p234
sg24
I3
sba(igraph
Edge
p235
(dp236
g7
I1
sg8
g9
sg10
I00
sg11
I5
sg12
(lp237
g32
ag181
asg36
I00
sg37
I00
sg38
I755505
sg19
S'1053.57326165'
p238
sg24
I3
sba(igraph
Edge
p239
(dp240
g7
I1
sg8
g9
sg10
I00
sg11
I5
sg12
(lp241
(igraph
Vertex
p242
(dp243
g8
g16
sg17
I692431
sg10
I00
sg26
g35
sg18
I0
sg29
I755610
sg31
I-12
sg27
F-70.0
sg28
F-24.0
sg22
I16
sg21
g9
sg19
S'2255.84363283'
p244
sg30
I-12
sg24
I5
sba(igraph
Vertex
p245
(dp246
g8
g16
sg17
I515998
sg10
I00
sg26
g35
sg18
I0
sg29
I755618
sg31
I-12
sg27
F-10.0
sg28
F-24.0
sg22
I16
sg21
g9
sg19
S'2255.84491395'
p247
sg30
I-12
sg24
I5
sbasg36
I00
sg37
I00
sg38
I755506
sg19
S'2255.84960254'
p248
sg24
I3
sba(igraph
Edge
p249
(dp250
g7
I1
sg8
g9
sg10
I00
sg11
I5
sg12
(lp251
(igraph
Vertex
p252
(dp253
g8
g16
sg17
I692434
sg10
I00
sg26
g35
sg18
I0
sg29
I755612
sg31
I-12
sg27
F-70.0
sg28
F-84.0
sg22
I16
sg21
g9
sg19
S'2255.84395216'
p254
sg30
I-12
sg24
I5
sba(igraph
Vertex
p255
(dp256
g8
g16
sg17
Nsg10
I00
sg26
g35
sg18
I0
sg29
I755620
sg31
I-12
sg27
F-10.0
sg28
F-84.0
sg22
I16
sg21
g9
sg19
S'2255.84525413'
p257
sg30
I-12
sg24
I5
sbasg36
I00
sg37
I00
sg38
I755507
sg19
S'2255.85017867'
p258
sg24
I3
sba(igraph
Edge
p259
(dp260
g7
I1
sg8
g9
sg10
I00
sg11
I5
sg12
(lp261
(igraph
Vertex
p262
(dp263
g8
g16
sg17
I692437
sg10
I00
sg26
g35
sg18
I0
sg29
I755614
sg31
I-12
sg27
F-70.0
sg28
F-144.0
sg22
I16
sg21
g9
sg19
S'2255.84426628'
p264
sg30
I-12
sg24
I5
sba(igraph
Vertex
p265
(dp266
g8
g16
sg17
I516004
sg10
I00
sg26
g35
sg18
I0
sg29
I755622
sg31
I-12
sg27
F-10.0
sg28
F-144.0
sg22
I16
sg21
g9
sg19
S'2255.84559999'
p267
sg30
I-12
sg24
I5
sbasg36
I00
sg37
I00
sg38
I755508
sg19
S'2255.850769'
p268
sg24
I3
sba(igraph
Edge
p269
(dp270
g7
I1
sg8
g9
sg10
I00
sg11
I5
sg12
(lp271
(igraph
Vertex
p272
(dp273
g8
g16
sg17
I692440
sg10
I00
sg26
g35
sg18
I0
sg29
I755616
sg31
I-12
sg27
F-70.0
sg28
F-204.0
sg22
I16
sg21
g9
sg19
S'2255.84458845'
p274
sg30
I-12
sg24
I5
sba(igraph
Vertex
p275
(dp276
g8
g16
sg17
Nsg10
I00
sg26
g35
sg18
I0
sg29
I755624
sg31
I-12
sg27
F-10.0
sg28
F-204.0
sg22
I16
sg21
g9
sg19
S'2255.84596007'
p277
sg30
I-12
sg24
I5
sbasg36
I00
sg37
I00
sg38
I755509
sg19
S'2255.85137308'
p278
sg24
I3
sba(igraph
Edge
p279
(dp280
g7
I1
sg8
g9
sg10
I00
sg11
I5
sg12
(lp281
g242
ag255
asg36
I00
sg37
I00
sg38
I755510
sg19
S'2255.85199801'
p282
sg24
I3
sba(igraph
Edge
p283
(dp284
g7
I1
sg8
g9
sg10
I00
sg11
I5
sg12
(lp285
g252
ag265
asg36
I00
sg37
I00
sg38
I755511
sg19
S'2255.85264804'
p286
sg24
I3
sba(igraph
Edge
p287
(dp288
g7
I1
sg8
g9
sg10
I00
sg11
I5
sg12
(lp289
g262
ag275
asg36
I00
sg37
I00
sg38
I755512
sg19
S'2255.85331513'
p290
sg24
I3
sba(igraph
Edge
p291
(dp292
g7
I1
sg8
g9
sg10
I00
sg11
I5
sg12
(lp293
g272
a(igraph
Vertex
p294
(dp295
g8
g16
sg17
I516010
sg10
I00
sg26
g35
sg18
I0
sg29
I755626
sg31
I-12
sg27
F-10.0
sg28
F-264.0
sg22
I16
sg21
g9
sg19
S'2255.84639785'
p296
sg30
I-12
sg24
I5
sbasg36
I00
sg37
I00
sg38
I755513
sg19
S'2255.85397654'
p297
sg24
I3
sba(igraph
Edge
p298
(dp299
g7
I1
sg8
g9
sg10
I00
sg11
I5
sg12
(lp300
(igraph
Vertex
p301
(dp302
g8
g16
sg17
I692453
sg10
I00
sg26
g35
sg18
I0
sg29
I755628
sg31
I-12
sg27
F-70.0
sg28
F100.0
sg22
I16
sg21
g9
sg19
S'2255.84716443'
p303
sg30
I-12
sg24
I5
sba(igraph
Vertex
p304
(dp305
g8
g16
sg17
I516022
sg10
I00
sg26
g35
sg18
I0
sg29
I755632
sg31
I-12
sg27
F-10.0
sg28
F100.0
sg22
I16
sg21
g9
sg19
S'2255.84837733'
p306
sg30
I-12
sg24
I5
sbasg36
I00
sg37
I00
sg38
I755514
sg19
S'2255.85537753'
p307
sg24
I3
sba(igraph
Edge
p308
(dp309
g7
I1
sg8
g9
sg10
I00
sg11
I5
sg12
(lp310
(igraph
Vertex
p311
(dp312
g8
g16
sg17
I692456
sg10
I00
sg26
g35
sg18
I0
sg29
I755630
sg31
I-12
sg27
F-70.0
sg28
F40.0
sg22
I16
sg21
g9
sg19
S'2255.84755626'
p313
sg30
I-12
sg24
I5
sba(igraph
Vertex
p314
(dp315
g8
g16
sg17
Nsg10
I00
sg26
g35
sg18
I0
sg29
I755634
sg31
I-12
sg27
F-10.0
sg28
F40.0
sg22
I16
sg21
g9
sg19
S'2255.84880374'
p316
sg30
I-12
sg24
I5
sbasg36
I00
sg37
I00
sg38
I755515
sg19
S'2255.85607826'
p317
sg24
I3
sba(igraph
Edge
p318
(dp319
g7
I1
sg8
g9
sg10
I00
sg11
I5
sg12
(lp320
g301
ag314
asg36
I00
sg37
I00
sg38
I755516
sg19
S'2255.85752757'
p321
sg24
I3
sba(igraph
Edge
p322
(dp323
g7
I1
sg8
g9
sg10
I00
sg11
I5
sg12
(lp324
g245
ag311
asg36
I00
sg37
I00
sg38
I755517
sg19
S'2255.8582989'
p325
sg24
I3
sba(igraph
Edge
p326
(dp327
g7
I1
sg8
g9
sg10
I00
sg11
I5
sg12
(lp328
g275
ag63
asg36
I00
sg37
I00
sg38
I755518
sg19
S'2265.87005686'
p329
sg24
I3
sba(igraph
Edge
p330
(dp331
g7
I1
sg8
g9
sg10
I00
sg11
I5
sg12
(lp332
g265
ag53
asg36
I00
sg37
I00
sg38
I755519
sg19
S'2268.82388776'
p333
sg24
I3
sba(igraph
Edge
p334
(dp335
g7
I1
sg8
g9
sg10
I00
sg11
I5
sg12
(lp336
g255
ag43
asg36
I00
sg37
I00
sg38
I755520
sg19
S'2271.56554509'
p337
sg24
I3
sba(igraph
Edge
p338
(dp339
g7
I1
sg8
g9
sg10
I00
sg11
I5
sg12
(lp340
g245
ag14
asg36
I00
sg37
I00
sg38
I755521
sg19
S'2274.59299677'
p341
sg24
I3
sba(igraph
Edge
p342
(dp343
g7
I1
sg8
g9
sg10
I00
sg11
I5
sg12
(lp344
g314
ag181
asg36
I00
sg37
I00
sg38
I755522
sg19
S'2276.69457429'
p345
sg24
I3
sba(igraph
Edge
p346
(dp347
g7
I1
sg8
g9
sg10
I00
sg11
I5
sg12
(lp348
g304
ag171
asg36
I00
sg37
I00
sg38
I755523
sg19
S'2279.63360124'
p349
sg24
I3
sba(igraph
Edge
p350
(dp351
g7
I1
sg8
g9
sg10
I00
sg11
I5
sg12
(lp352
g294
a(igraph
Vertex
p353
(dp354
g8
g16
sg17
I755637
sg10
I00
sg26
I0
sg22
I16
sg18
I0
sg31
I-12
sg27
F47.0
sg28
F-264.0
sg29
I755636
sg21
g9
sg19
S'2288.88994691'
p355
sg30
I-12
sg24
I5
sbasg36
I00
sg37
I00
sg38
I755524
sg19
S'2288.8908689'
p356
sg24
I3
sba(igraph
Edge
p357
(dp358
g7
I1
sg8
g9
sg10
I00
sg11
I5
sg12
(lp359
g353
ag85
asg36
I00
sg37
I00
sg38
I755525
sg19
S'2291.16187447'
p360
sg24
I3
sba(igraph
Edge
p361
(dp362
g7
I1
sg8
g9
sg10
I00
sg11
I5
sg12
(lp363
(igraph
Vertex
p364
(dp365
g8
g16
sg17
I755640
sg10
I00
sg26
I0
sg22
I16
sg18
I0
sg31
I-12
sg27
F41.75
sg28
F166.25
sg29
I755639
sg21
g9
sg19
S'4860.51671425'
p366
sg30
I-12
sg24
I5
sba(igraph
Vertex
p367
(dp368
g8
g16
sg17
I736869
sg10
I00
sg26
g35
sg22
I16
sg18
I0
sg31
I-12
sg27
F101.75
sg28
F166.25
sg29
I755642
sg21
g9
sg19
S'4860.51735528'
p369
sg30
I-12
sg24
I5
sbasg36
I00
sg37
I00
sg38
I755526
sg19
S'4860.53386391'
p370
sg24
I3
sba(igraph
Edge
p371
(dp372
g7
I1
sg8
g9
sg10
I00
sg11
I5
sg12
(lp373
g367
a(igraph
Vertex
p374
(dp375
g8
g16
sg17
Nsg10
I00
sg26
g35
sg22
I16
sg18
I0
sg31
I-12
sg27
F161.75
sg28
F166.25
sg29
I755644
sg21
g9
sg19
S'4860.51791341'
p376
sg30
I-12
sg24
I5
sbasg36
I00
sg37
I00
sg38
I755527
sg19
S'4860.53515309'
p377
sg24
I3
sba(igraph
Edge
p378
(dp379
g7
I1
sg8
g9
sg10
I00
sg11
I5
sg12
(lp380
(igraph
Vertex
p381
(dp382
g8
g16
sg17
Nsg10
I00
sg26
g35
sg22
I16
sg18
I0
sg31
I-12
sg27
F41.75
sg28
F290.25
sg29
I755646
sg21
g9
sg19
S'4860.51856865'
p383
sg30
I-12
sg24
I5
sba(igraph
Vertex
p384
(dp385
g8
g16
sg17
I736878
sg10
I00
sg26
g35
sg22
I16
sg18
I0
sg31
I-12
sg27
F101.75
sg28
F290.25
sg29
I755651
sg21
g9
sg19
S'4860.51976639'
p386
sg30
I-12
sg24
I5
sbasg36
I00
sg37
I00
sg38
I755528
sg19
S'4860.53629681'
p387
sg24
I3
sba(igraph
Edge
p388
(dp389
g7
I1
sg8
g9
sg10
I00
sg11
I5
sg12
(lp390
(igraph
Vertex
p391
(dp392
g8
g16
sg17
I755649
sg10
I00
sg26
I0
sg22
I16
sg18
I0
sg31
I-12
sg27
F41.75
sg28
F230.25
sg29
I755648
sg21
g9
sg19
S'4860.51918694'
p393
sg30
I-12
sg24
I5
sba(igraph
Vertex
p394
(dp395
g8
g16
sg17
I736881
sg10
I00
sg26
g35
sg22
I16
sg18
I0
sg31
I-12
sg27
F101.75
sg28
F230.25
sg29
I755653
sg21
g9
sg19
S'4860.52036478'
p396
sg30
I-12
sg24
I5
sbasg36
I00
sg37
I00
sg38
I755529
sg19
S'4860.53748649'
p397
sg24
I3
sba(igraph
Edge
p398
(dp399
g7
I1
sg8
g9
sg10
I00
sg11
I5
sg12
(lp400
g381
ag394
asg36
I00
sg37
I00
sg38
I755530
sg19
S'4860.53867995'
p401
sg24
I3
sba(igraph
Edge
p402
(dp403
g7
I1
sg8
g9
sg10
I00
sg11
I5
sg12
(lp404
g384
a(igraph
Vertex
p405
(dp406
g8
g16
sg17
I755657
sg10
I01
sg26
I0
sg22
I16
sg18
I0
sg31
I-12
sg27
F161.75
sg28
F290.25
sg29
I755656
sg21
g9
sg19
S'4860.52096838'
p407
sg30
I-12
sg24
I5
sbasg36
I00
sg37
I00
sg38
I755531
sg19
S'4860.53992507'
p408
sg24
I3
sba(igraph
Edge
p409
(dp410
g7
I1
sg8
g9
sg10
I00
sg11
I5
sg12
(lp411
g394
a(igraph
Vertex
p412
(dp413
g8
g16
sg17
Nsg10
I00
sg26
g35
sg22
I16
sg18
I0
sg31
I-12
sg27
F161.75
sg28
F230.25
sg29
I755659
sg21
g9
sg19
S'4860.52157199'
p414
sg30
I-12
sg24
I5
sbasg36
I00
sg37
I00
sg38
I755532
sg19
S'4860.54140091'
p415
sg24
I3
sba(igraph
Edge
p416
(dp417
g7
I1
sg8
g9
sg10
I00
sg11
I5
sg12
(lp418
g412
a(igraph
Vertex
p419
(dp420
g8
g16
sg17
Nsg10
I00
sg26
g35
sg22
I16
sg18
I0
sg31
I-12
sg27
F221.75
sg28
F230.25
sg29
I755661
sg21
g9
sg19
S'4860.5229256'
p421
sg30
I-12
sg24
I5
sbasg36
I00
sg37
I00
sg38
I755533
sg19
S'4860.54390582'
p422
sg24
I3
sba(igraph
Edge
p423
(dp424
g7
I1
sg8
g9
sg10
I00
sg11
I5
sg12
(lp425
g405
ag419
asg36
I00
sg37
I00
sg38
I755534
sg19
S'4860.54512867'
p426
sg24
I3
sba(igraph
Edge
p427
(dp428
g7
I1
sg8
g9
sg10
I00
sg11
I5
sg12
(lp429
g412
a(igraph
Vertex
p430
(dp431
g8
g16
sg17
Nsg10
I00
sg26
g35
sg22
I16
sg18
I0
sg31
I-12
sg27
F219.75
sg28
F166.25
sg29
I755663
sg21
g9
sg19
S'4860.52360595'
p432
sg30
I-12
sg24
I5
sbasg36
I00
sg37
I00
sg38
I755535
sg19
S'4860.54640363'
p433
sg24
I3
sba(igraph
Edge
p434
(dp435
g7
I1
sg8
g9
sg10
I00
sg11
I5
sg12
(lp436
g430
ag374
asg36
I00
sg37
I00
sg38
I755536
sg19
S'4860.54765964'
p437
sg24
I3
sba(igraph
Edge
p438
(dp439
g7
I1
sg8
g9
sg10
I00
sg11
I5
sg12
(lp440
g367
ag391
asg36
I00
sg37
I00
sg38
I755537
sg19
S'4860.54896018'
p441
sg24
I3
sba(igraph
Edge
p442
(dp443
g7
I1
sg8
g9
sg10
I00
sg11
I5
sg12
(lp444
(igraph
Vertex
p445
(dp446
g8
g16
sg17
I692490
sg10
I00
sg26
g35
sg22
I16
sg18
I0
sg31
I-12
sg27
F-70.25
sg28
F166.25
sg29
I755665
sg21
g9
sg19
S'4860.52433227'
p447
sg30
I-12
sg24
I5
sba(igraph
Vertex
p448
(dp449
g8
g16
sg17
Nsg10
I00
sg26
g35
sg22
I16
sg18
I0
sg31
I-12
sg27
F-10.25
sg28
F166.25
sg29
I755667
sg21
g9
sg19
S'4860.5250041'
p450
sg30
I-12
sg24
I5
sbasg36
I00
sg37
I00
sg38
I755538
sg19
S'4860.55029531'
p451
sg24
I3
sba(igraph
Edge
p452
(dp453
g7
I1
sg8
g9
sg10
I00
sg11
I5
sg12
(lp454
(igraph
Vertex
p455
(dp456
g8
g16
sg17
I692495
sg10
I00
sg26
g35
sg22
I16
sg18
I0
sg31
I-12
sg27
F-70.25
sg28
F290.25
sg29
I755669
sg21
g9
sg19
S'4860.52567356'
p457
sg30
I-12
sg24
I5
sba(igraph
Vertex
p458
(dp459
g8
g16
sg17
Nsg10
I00
sg26
g35
sg22
I16
sg18
I0
sg31
I-12
sg27
F-10.25
sg28
F290.25
sg29
I755673
sg21
g9
sg19
S'4860.5272091'
p460
sg30
I-12
sg24
I5
sbasg36
I00
sg37
I00
sg38
I755539
sg19
S'4860.55158306'
p461
sg24
I3
sba(igraph
Edge
p462
(dp463
g7
I1
sg8
g9
sg10
I00
sg11
I5
sg12
(lp464
(igraph
Vertex
p465
(dp466
g8
g16
sg17
I692498
sg10
I00
sg26
g35
sg22
I16
sg18
I0
sg31
I-12
sg27
F-70.25
sg28
F230.25
sg29
I755671
sg21
g9
sg19
S'4860.52641646'
p467
sg30
I-12
sg24
I5
sba(igraph
Vertex
p468
(dp469
g8
g16
sg17
Nsg10
I00
sg26
g35
sg22
I16
sg18
I0
sg31
I-12
sg27
F-10.25
sg28
F230.25
sg29
I755675
sg21
g9
sg19
S'4860.52797569'
p470
sg30
I-12
sg24
I5
sbasg36
I00
sg37
I00
sg38
I755540
sg19
S'4860.55289924'
p471
sg24
I3
sba(igraph
Edge
p472
(dp473
g7
I1
sg8
g9
sg10
I00
sg11
I5
sg12
(lp474
g455
ag468
asg36
I00
sg37
I00
sg38
I755541
sg19
S'4860.55423485'
p475
sg24
I3
sba(igraph
Edge
p476
(dp477
g7
I1
sg8
g9
sg10
I00
sg11
I5
sg12
(lp478
g448
ag465
asg36
I00
sg37
I00
sg38
I755542
sg19
S'4860.55556666'
p479
sg24
I3
sba(igraph
Edge
p480
(dp481
g7
I1
sg8
g9
sg10
I00
sg11
I5
sg12
(lp482
g448
ag364
asg36
I00
sg37
I00
sg38
I755543
sg19
S'4860.55693259'
p483
sg24
I3
sba(igraph
Edge
p484
(dp485
g7
I1
sg8
g9
sg10
I00
sg11
I5
sg12
(lp486
g468
ag391
asg36
I00
sg37
I00
sg38
I755544
sg19
S'4860.558561'
p487
sg24
I3
sba(igraph
Edge
p488
(dp489
g7
I1
sg8
g9
sg10
I00
sg11
I5
sg12
(lp490
g458
ag381
asg36
I00
sg37
I00
sg38
I755545
sg19
S'4860.55994919'
p491
sg24
I3
sba(igraph
Edge
p492
(dp493
g7
I1
sg8
g9
sg10
I00
sg11
I5
sg12
(lp494
g209
ag374
asg36
I00
sg37
I00
sg38
I755546
sg19
S'4874.11191081'
p495
sg24
I3
sba(igraph
Edge
p496
(dp497
g7
I1
sg8
g9
sg10
I00
sg11
I5
sg12
(lp498
g174
ag364
asg36
I00
sg37
I00
sg38
I755547
sg19
S'4881.4580566'
p499
sg24
I3
sba(igraph
Edge
p500
(dp501
g7
I1
sg8
g9
sg10
I00
sg11
I5
sg12
(lp502
g445
ag304
asg36
I00
sg37
I00
sg38
I755548
sg19
S'4888.94124238'
p503
sg24
I3
sbasS'vertices'
p504
(lp505
g14
ag43
ag53
ag63
ag32
ag46
ag56
ag66
ag85
ag92
ag99
ag106
ag113
ag120
ag127
ag134
ag141
ag148
ag171
ag181
ag174
ag184
ag195
ag202
ag209
ag216
ag227
ag242
ag252
ag262
ag272
ag245
ag255
ag265
ag275
ag294
ag301
ag311
ag304
ag314
ag353
ag364
ag367
ag374
ag381
ag391
ag384
ag394
ag405
ag412
ag419
ag430
ag445
ag448
ag455
ag465
ag458
ag468
asS'tags'
p506
(lp507
sb.