(igraph
Graph
p0
(dp1
S'labelingConstraints'
p2
I-1
sS'edges'
p3
(lp4
(igraph
Edge
p5
(dp6
S'direction'
p7
I1
sS'color'
p8
S'black'
p9
sS'selected'
p10
I00
sS'height'
p11
I5
sS'vs'
p12
(lp13
(igraph
Vertex
p14
(dp15
g8
S'#ffffff'
p16
sS'text'
p17
I34475
sg10
I01
sS'label'
p18
I0
sS'shape'
p19
I0
sS'circle'
p20
I34474
sS'ly'
p21
I-12
sS'y'
p22
F-33.875
sS'x'
p23
F-37.125
sS'lsize'
p24
I16
sS'lcolor'
p25
g9
sS'id'
p26
S'94.3152013547'
p27
sS'lx'
p28
I-12
sS'size'
p29
I5
sba(igraph
Vertex
p30
(dp31
g8
g16
sg17
I33374
sg10
I00
sg18
S'NULL'
p32
sg19
I0
sg20
I34489
sg21
I-12
sg22
F26.125
sg23
F-37.125
sg24
I16
sg25
g9
sg26
S'94.3153311722'
p33
sg28
I-12
sg29
I5
sbasS'wrap'
p34
I00
sS'curved'
p35
I00
sS'line'
p36
I34397
sg26
S'94.3328982391'
p37
sg29
I3
sba(igraph
Edge
p38
(dp39
g7
I1
sg8
g9
sg10
I00
sg11
I5
sg12
(lp40
(igraph
Vertex
p41
(dp42
g8
g16
sg17
I34479
sg10
I01
sg18
I0
sg19
I0
sg20
I34478
sg21
I-12
sg22
F-33.875
sg23
F-97.125
sg24
I16
sg25
g9
sg26
S'94.3152269391'
p43
sg28
I-12
sg29
I5
sba(igraph
Vertex
p44
(dp45
g8
g16
sg17
I33377
sg10
I00
sg18
g32
sg19
I0
sg20
I34491
sg21
I-12
sg22
F26.125
sg23
F-97.125
sg24
I16
sg25
g9
sg26
S'94.3153832888'
p46
sg28
I-12
sg29
I5
sbasg34
I00
sg35
I00
sg36
I34398
sg26
S'94.3329460916'
p47
sg29
I3
sba(igraph
Edge
p48
(dp49
g7
I1
sg8
g9
sg10
I00
sg11
I5
sg12
(lp50
(igraph
Vertex
p51
(dp52
g8
g16
sg17
I34483
sg10
I01
sg18
I0
sg19
I0
sg20
I34482
sg21
I-12
sg22
F-33.875
sg23
F-157.125
sg24
I16
sg25
g9
sg26
S'94.315253945'
p53
sg28
I-12
sg29
I5
sba(igraph
Vertex
p54
(dp55
g8
g16
sg17
I33380
sg10
I00
sg18
g32
sg19
I0
sg20
I34493
sg21
I-12
sg22
F26.125
sg23
F-157.125
sg24
I16
sg25
g9
sg26
S'94.3154491451'
p56
sg28
I-12
sg29
I5
sbasg34
I00
sg35
I00
sg36
I34399
sg26
S'94.3330105266'
p57
sg29
I3
sba(igraph
Edge
p58
(dp59
g7
I1
sg8
g9
sg10
I00
sg11
I5
sg12
(lp60
(igraph
Vertex
p61
(dp62
g8
g16
sg17
I34487
sg10
I01
sg18
I0
sg19
I0
sg20
I34486
sg21
I-12
sg22
F-33.875
sg23
F-217.125
sg24
I16
sg25
g9
sg26
S'94.3152880576'
p63
sg28
I-12
sg29
I5
sba(igraph
Vertex
p64
(dp65
g8
g16
sg17
I33383
sg10
I00
sg18
g32
sg19
I0
sg20
I34495
sg21
I-12
sg22
F26.125
sg23
F-217.125
sg24
I16
sg25
g9
sg26
S'94.3155202132'
p66
sg28
I-12
sg29
I5
sbasg34
I00
sg35
I00
sg36
I34400
sg26
S'94.3330891752'
p67
sg29
I3
sba(igraph
Edge
p68
(dp69
g7
I1
sg8
g9
sg10
I00
sg11
I5
sg12
(lp70
g14
ag44
asg34
I00
sg35
I00
sg36
I34401
sg26
S'94.3331782471'
p71
sg29
I3
sba(igraph
Edge
p72
(dp73
g7
I1
sg8
g9
sg10
I00
sg11
I5
sg12
(lp74
g41
ag54
asg34
I00
sg35
I00
sg36
I34402
sg26
S'94.3332815326'
p75
sg29
I3
sba(igraph
Edge
p76
(dp77
g7
I1
sg8
g9
sg10
I00
sg11
I5
sg12
(lp78
g51
ag64
asg34
I00
sg35
I00
sg36
I34403
sg26
S'94.3334468842'
p79
sg29
I3
sba(igraph
Edge
p80
(dp81
g7
I1
sg8
g9
sg10
I00
sg11
I5
sg12
(lp82
g61
a(igraph
Vertex
p83
(dp84
g8
g16
sg17
I26582
sg10
I00
sg18
g32
sg19
I0
sg20
I34497
sg21
I-12
sg22
F26.125
sg23
F-277.125
sg24
I16
sg25
g9
sg26
S'94.3156002831'
p85
sg28
I-12
sg29
I5
sbasg34
I00
sg35
I00
sg36
I34404
sg26
S'94.3335857038'
p86
sg29
I3
sba(igraph
Edge
p87
(dp88
g7
I1
sg8
g9
sg10
I00
sg11
I5
sg12
(lp89
g30
a(igraph
Vertex
p90
(dp91
g8
g16
sg17
I33388
sg10
I00
sg18
g32
sg19
I0
sg20
I34499
sg21
I-12
sg22
F86.125
sg23
F-37.125
sg24
I16
sg25
g9
sg26
S'94.3156898288'
p92
sg28
I-12
sg29
I5
sbasg34
I00
sg35
I00
sg36
I34405
sg26
S'94.3337515291'
p93
sg29
I3
sba(igraph
Edge
p94
(dp95
g7
I1
sg8
g9
sg10
I00
sg11
I5
sg12
(lp96
g44
a(igraph
Vertex
p97
(dp98
g8
g16
sg17
I33391
sg10
I00
sg18
g32
sg19
I0
sg20
I34501
sg21
I-12
sg22
F86.125
sg23
F-97.125
sg24
I16
sg25
g9
sg26
S'94.3157893241'
p99
sg28
I-12
sg29
I5
sbasg34
I00
sg35
I00
sg36
I34406
sg26
S'94.3339192497'
p100
sg29
I3
sba(igraph
Edge
p101
(dp102
g7
I1
sg8
g9
sg10
I00
sg11
I5
sg12
(lp103
g54
a(igraph
Vertex
p104
(dp105
g8
g16
sg17
I33394
sg10
I00
sg18
g32
sg19
I0
sg20
I34503
sg21
I-12
sg22
F86.125
sg23
F-157.125
sg24
I16
sg25
g9
sg26
S'94.315898295'
p106
sg28
I-12
sg29
I5
sbasg34
I00
sg35
I00
sg36
I34407
sg26
S'94.3341153974'
p107
sg29
I3
sba(igraph
Edge
p108
(dp109
g7
I1
sg8
g9
sg10
I00
sg11
I5
sg12
(lp110
g64
a(igraph
Vertex
p111
(dp112
g8
g16
sg17
I33397
sg10
I00
sg18
g32
sg19
I0
sg20
I34505
sg21
I-12
sg22
F86.125
sg23
F-217.125
sg24
I16
sg25
g9
sg26
S'94.3160157942'
p113
sg28
I-12
sg29
I5
sbasg34
I00
sg35
I00
sg36
I34408
sg26
S'94.3343267063'
p114
sg29
I3
sba(igraph
Edge
p115
(dp116
g7
I1
sg8
g9
sg10
I00
sg11
I5
sg12
(lp117
g83
a(igraph
Vertex
p118
(dp119
g8
g16
sg17
Nsg10
I00
sg18
g32
sg19
I0
sg20
I34507
sg21
I-12
sg22
F86.125
sg23
F-277.125
sg24
I16
sg25
g9
sg26
S'94.3161422952'
p120
sg28
I-12
sg29
I5
sbasg34
I00
sg35
I00
sg36
I34409
sg26
S'94.3345560191'
p121
sg29
I3
sba(igraph
Edge
p122
(dp123
g7
I1
sg8
g9
sg10
I00
sg11
I5
sg12
(lp124
g97
a(igraph
Vertex
p125
(dp126
g8
g16
sg17
I33402
sg10
I00
sg18
g32
sg19
I0
sg20
I34509
sg21
I-12
sg22
F146.125
sg23
F-97.125
sg24
I16
sg25
g9
sg26
S'94.3162811148'
p127
sg28
I-12
sg29
I5
sbasg34
I00
sg35
I00
sg36
I34410
sg26
S'94.3347848582'
p128
sg29
I3
sba(igraph
Edge
p129
(dp130
g7
I1
sg8
g9
sg10
I00
sg11
I5
sg12
(lp131
g104
a(igraph
Vertex
p132
(dp133
g8
g16
sg17
I33405
sg10
I00
sg18
g32
sg19
I0
sg20
I34511
sg21
I-12
sg22
F146.125
sg23
F-157.125
sg24
I16
sg25
g9
sg26
S'94.316445045'
p134
sg28
I-12
sg29
I5
sbasg34
I00
sg35
I00
sg36
I34411
sg26
S'94.3350383341'
p135
sg29
I3
sba(igraph
Edge
p136
(dp137
g7
I1
sg8
g9
sg10
I00
sg11
I5
sg12
(lp138
g111
a(igraph
Vertex
p139
(dp140
g8
g16
sg17
I33408
sg10
I00
sg18
g32
sg19
I0
sg20
I34513
sg21
I-12
sg22
F146.125
sg23
F-217.125
sg24
I16
sg25
g9
sg26
S'94.3166061325'
p141
sg28
I-12
sg29
I5
sbasg34
I00
sg35
I00
sg36
I34412
sg26
S'94.3353178683'
p142
sg29
I3
sba(igraph
Edge
p143
(dp144
g7
I1
sg8
g9
sg10
I00
sg11
I5
sg12
(lp145
g118
a(igraph
Vertex
p146
(dp147
g8
g16
sg17
Nsg10
I00
sg18
g32
sg19
I0
sg20
I34515
sg21
I-12
sg22
F146.125
sg23
F-277.125
sg24
I16
sg25
g9
sg26
S'94.3167748006'
p148
sg28
I-12
sg29
I5
sbasg34
I00
sg35
I00
sg36
I34413
sg26
S'94.3356002452'
p149
sg29
I3
sba(igraph
Edge
p150
(dp151
g7
I1
sg8
g9
sg10
I00
sg11
I5
sg12
(lp152
g90
ag125
asg34
I00
sg35
I00
sg36
I34414
sg26
S'94.3358944668'
p153
sg29
I3
sba(igraph
Edge
p154
(dp155
g7
I1
sg8
g9
sg10
I00
sg11
I5
sg12
(lp156
g97
ag132
asg34
I00
sg35
I00
sg36
I34415
sg26
S'94.3361943739'
p157
sg29
I3
sba(igraph
Edge
p158
(dp159
g7
I1
sg8
g9
sg10
I00
sg11
I5
sg12
(lp160
g104
ag139
asg34
I00
sg35
I00
sg36
I34416
sg26
S'94.3365648752'
p161
sg29
I3
sba(igraph
Edge
p162
(dp163
g7
I1
sg8
g9
sg10
I00
sg11
I5
sg12
(lp164
g111
ag146
asg34
I00
sg35
I00
sg36
I34417
sg26
S'94.3369107395'
p165
sg29
I3
sba(igraph
Edge
p166
(dp167
g7
I1
sg8
g9
sg10
I00
sg11
I5
sg12
(lp168
(igraph
Vertex
p169
(dp170
g8
g16
sg17
I34519
sg10
I01
sg18
I0
sg19
I0
sg20
I34518
sg21
I-12
sg22
F-33.875
sg23
F86.875
sg24
I16
sg25
g9
sg26
S'94.3169491541'
p171
sg28
I-12
sg29
I5
sba(igraph
Vertex
p172
(dp173
g8
g16
sg17
I33421
sg10
I00
sg18
g32
sg19
I0
sg20
I34525
sg21
I-12
sg22
F26.125
sg23
F86.875
sg24
I16
sg25
g9
sg26
S'94.3173291312'
p174
sg28
I-12
sg29
I5
sbasg34
I00
sg35
I00
sg36
I34418
sg26
S'94.3372670272'
p175
sg29
I3
sba(igraph
Edge
p176
(dp177
g7
I1
sg8
g9
sg10
I00
sg11
I5
sg12
(lp178
(igraph
Vertex
p179
(dp180
g8
g16
sg17
I34523
sg10
I01
sg18
I0
sg19
I0
sg20
I34522
sg21
I-12
sg22
F-33.875
sg23
F26.875
sg24
I16
sg25
g9
sg26
S'94.3171353524'
p181
sg28
I-12
sg29
I5
sba(igraph
Vertex
p182
(dp183
g8
g16
sg17
I33424
sg10
I00
sg18
g32
sg19
I0
sg20
I34527
sg21
I-12
sg22
F26.125
sg23
F26.875
sg24
I16
sg25
g9
sg26
S'94.3175342808'
p184
sg28
I-12
sg29
I5
sbasg34
I00
sg35
I00
sg36
I34419
sg26
S'94.3376299479'
p185
sg29
I3
sba(igraph
Edge
p186
(dp187
g7
I1
sg8
g9
sg10
I00
sg11
I5
sg12
(lp188
g169
ag182
asg34
I00
sg35
I00
sg36
I34420
sg26
S'94.3379966589'
p189
sg29
I3
sba(igraph
Edge
p190
(dp191
g7
I1
sg8
g9
sg10
I00
sg11
I5
sg12
(lp192
g172
a(igraph
Vertex
p193
(dp194
g8
g16
sg17
I33427
sg10
I00
sg18
g32
sg19
I0
sg20
I34529
sg21
I-12
sg22
F86.125
sg23
F86.875
sg24
I16
sg25
g9
sg26
S'94.3177503276'
p195
sg28
I-12
sg29
I5
sbasg34
I00
sg35
I00
sg36
I34421
sg26
S'94.338378531'
p196
sg29
I3
sba(igraph
Edge
p197
(dp198
g7
I1
sg8
g9
sg10
I00
sg11
I5
sg12
(lp199
g182
a(igraph
Vertex
p200
(dp201
g8
g16
sg17
I33430
sg10
I00
sg18
g32
sg19
I0
sg20
I34531
sg21
I-12
sg22
F86.125
sg23
F26.875
sg24
I16
sg25
g9
sg26
S'94.3179734812'
p202
sg28
I-12
sg29
I5
sbasg34
I00
sg35
I00
sg36
I34422
sg26
S'94.3388916421'
p203
sg29
I3
sba(igraph
Edge
p204
(dp205
g7
I1
sg8
g9
sg10
I00
sg11
I5
sg12
(lp206
g193
a(igraph
Vertex
p207
(dp208
g8
g16
sg17
I33433
sg10
I00
sg18
g32
sg19
I0
sg20
I34533
sg21
I-12
sg22
F146.125
sg23
F86.875
sg24
I16
sg25
g9
sg26
S'94.318202794'
p209
sg28
I-12
sg29
I5
sbasg34
I00
sg35
I00
sg36
I34423
sg26
S'94.3393232619'
p210
sg29
I3
sba(igraph
Edge
p211
(dp212
g7
I1
sg8
g9
sg10
I00
sg11
I5
sg12
(lp213
g200
a(igraph
Vertex
p214
(dp215
g8
g16
sg17
I33436
sg10
I00
sg18
g32
sg19
I0
sg20
I34535
sg21
I-12
sg22
F146.125
sg23
F26.875
sg24
I16
sg25
g9
sg26
S'94.3185505535'
p216
sg28
I-12
sg29
I5
sbasg34
I00
sg35
I00
sg36
I34424
sg26
S'94.339787573'
p217
sg29
I3
sba(igraph
Edge
p218
(dp219
g7
I1
sg8
g9
sg10
I00
sg11
I5
sg12
(lp220
g193
ag214
asg34
I00
sg35
I00
sg36
I34425
sg26
S'94.3402632549'
p221
sg29
I3
sba(igraph
Edge
p222
(dp223
g7
I1
sg8
g9
sg10
I00
sg11
I5
sg12
(lp224
g200
a(igraph
Vertex
p225
(dp226
g8
g16
sg17
I33439
sg10
I00
sg18
g32
sg19
I0
sg20
I34537
sg21
I-12
sg22
F144.125
sg23
F-37.125
sg24
I16
sg25
g9
sg26
S'94.318820612'
p227
sg28
I-12
sg29
I5
sbasg34
I00
sg35
I00
sg36
I34426
sg26
S'94.3407394106'
p228
sg29
I3
sba(igraph
Edge
p229
(dp230
g7
I1
sg8
g9
sg10
I00
sg11
I5
sg12
(lp231
g225
ag90
asg34
I00
sg35
I00
sg36
I34427
sg26
S'94.3412402033'
p232
sg29
I3
sba(igraph
Edge
p233
(dp234
g7
I1
sg8
g9
sg10
I00
sg11
I5
sg12
(lp235
g30
ag179
asg34
I00
sg35
I00
sg36
I34428
sg26
S'94.3417362581'
p236
sg29
I3
sba(igraph
Edge
p237
(dp238
g7
I1
sg8
g9
sg10
I00
sg11
I5
sg12
(lp239
(igraph
Vertex
p240
(dp241
g8
g16
sg17
I33442
sg10
I00
sg18
g32
sg19
I0
sg20
I34539
sg21
I-12
sg22
F-145.875
sg23
F-37.125
sg24
I16
sg25
g9
sg26
S'94.3191020414'
p242
sg28
I-12
sg29
I5
sba(igraph
Vertex
p243
(dp244
g8
g16
sg17
I33454
sg10
I00
sg18
g32
sg19
I0
sg20
I34547
sg21
I-12
sg22
F-85.875
sg23
F-37.125
sg24
I16
sg25
g9
sg26
S'94.3202651879'
p245
sg28
I-12
sg29
I5
sbasg34
I00
sg35
I00
sg36
I34429
sg26
S'94.3422488954'
p246
sg29
I3
sba(igraph
Edge
p247
(dp248
g7
I1
sg8
g9
sg10
I00
sg11
I5
sg12
(lp249
(igraph
Vertex
p250
(dp251
g8
g16
sg17
I33445
sg10
I00
sg18
g32
sg19
I0
sg20
I34541
sg21
I-12
sg22
F-145.875
sg23
F-97.125
sg24
I16
sg25
g9
sg26
S'94.3193754163'
p252
sg28
I-12
sg29
I5
sba(igraph
Vertex
p253
(dp254
g8
g16
sg17
I33457
sg10
I00
sg18
g32
sg19
I0
sg20
I34549
sg21
I-12
sg22
F-85.875
sg23
F-97.125
sg24
I16
sg25
g9
sg26
S'94.320600629'
p255
sg28
I-12
sg29
I5
sbasg34
I00
sg35
I00
sg36
I34430
sg26
S'94.3427648492'
p256
sg29
I3
sba(igraph
Edge
p257
(dp258
g7
I1
sg8
g9
sg10
I00
sg11
I5
sg12
(lp259
(igraph
Vertex
p260
(dp261
g8
g16
sg17
I33448
sg10
I00
sg18
g32
sg19
I0
sg20
I34543
sg21
I-12
sg22
F-145.875
sg23
F-157.125
sg24
I16
sg25
g9
sg26
S'94.3196634787'
p262
sg28
I-12
sg29
I5
sba(igraph
Vertex
p263
(dp264
g8
g16
sg17
I33460
sg10
I00
sg18
g32
sg19
I0
sg20
I34551
sg21
I-12
sg22
F-85.875
sg23
F-157.125
sg24
I16
sg25
g9
sg26
S'94.3209242254'
p265
sg28
I-12
sg29
I5
sbasg34
I00
sg35
I00
sg36
I34431
sg26
S'94.3432978593'
p266
sg29
I3
sba(igraph
Edge
p267
(dp268
g7
I1
sg8
g9
sg10
I00
sg11
I5
sg12
(lp269
(igraph
Vertex
p270
(dp271
g8
g16
sg17
I33451
sg10
I00
sg18
g32
sg19
I0
sg20
I34545
sg21
I-12
sg22
F-145.875
sg23
F-217.125
sg24
I16
sg25
g9
sg26
S'94.3199567527'
p272
sg28
I-12
sg29
I5
sba(igraph
Vertex
p273
(dp274
g8
g16
sg17
I33463
sg10
I00
sg18
g32
sg19
I0
sg20
I34553
sg21
I-12
sg22
F-85.875
sg23
F-217.125
sg24
I16
sg25
g9
sg26
S'94.3212644043'
p275
sg28
I-12
sg29
I5
sbasg34
I00
sg35
I00
sg36
I34432
sg26
S'94.3438450831'
p276
sg29
I3
sba(igraph
Edge
p277
(dp278
g7
I1
sg8
g9
sg10
I00
sg11
I5
sg12
(lp279
g240
ag253
asg34
I00
sg35
I00
sg36
I34433
sg26
S'94.3445069632'
p280
sg29
I3
sba(igraph
Edge
p281
(dp282
g7
I1
sg8
g9
sg10
I00
sg11
I5
sg12
(lp283
g250
ag263
asg34
I00
sg35
I00
sg36
I34434
sg26
S'94.3454218456'
p284
sg29
I3
sba(igraph
Edge
p285
(dp286
g7
I1
sg8
g9
sg10
I00
sg11
I5
sg12
(lp287
g260
ag273
asg34
I00
sg35
I00
sg36
I34435
sg26
S'94.3460197645'
p288
sg29
I3
sba(igraph
Edge
p289
(dp290
g7
I1
sg8
g9
sg10
I00
sg11
I5
sg12
(lp291
g270
a(igraph
Vertex
p292
(dp293
g8
g16
sg17
Nsg10
I00
sg18
g32
sg19
I0
sg20
I34555
sg21
I-12
sg22
F-85.875
sg23
F-277.125
sg24
I16
sg25
g9
sg26
S'94.3216041094'
p294
sg28
I-12
sg29
I5
sbasg34
I00
sg35
I00
sg36
I34436
sg26
S'94.3467328136'
p295
sg29
I3
sba(igraph
Edge
p296
(dp297
g7
I1
sg8
g9
sg10
I00
sg11
I5
sg12
(lp298
(igraph
Vertex
p299
(dp300
g8
g16
sg17
I33468
sg10
I00
sg18
g32
sg19
I0
sg20
I34557
sg21
I-12
sg22
F-145.875
sg23
F86.875
sg24
I16
sg25
g9
sg26
S'94.321956133'
p301
sg28
I-12
sg29
I5
sba(igraph
Vertex
p302
(dp303
g8
g16
sg17
I33474
sg10
I00
sg18
g32
sg19
I0
sg20
I34561
sg21
I-12
sg22
F-85.875
sg23
F86.875
sg24
I16
sg25
g9
sg26
S'94.3226905026'
p304
sg28
I-12
sg29
I5
sbasg34
I00
sg35
I00
sg36
I34437
sg26
S'94.3473539481'
p305
sg29
I3
sba(igraph
Edge
p306
(dp307
g7
I1
sg8
g9
sg10
I00
sg11
I5
sg12
(lp308
(igraph
Vertex
p309
(dp310
g8
g16
sg17
I33471
sg10
I00
sg18
g32
sg19
I0
sg20
I34559
sg21
I-12
sg22
F-145.875
sg23
F26.875
sg24
I16
sg25
g9
sg26
S'94.3223195275'
p311
sg28
I-12
sg29
I5
sba(igraph
Vertex
p312
(dp313
g8
g16
sg17
I33477
sg10
I00
sg18
g32
sg19
I0
sg20
I34563
sg21
I-12
sg22
F-85.875
sg23
F26.875
sg24
I16
sg25
g9
sg26
S'94.3230676369'
p314
sg28
I-12
sg29
I5
sbasg34
I00
sg35
I00
sg36
I34438
sg26
S'94.3479812418'
p315
sg29
I3
sba(igraph
Edge
p316
(dp317
g7
I1
sg8
g9
sg10
I00
sg11
I5
sg12
(lp318
g299
ag312
asg34
I00
sg35
I00
sg36
I34439
sg26
S'94.3486289084'
p319
sg29
I3
sba(igraph
Edge
p320
(dp321
g7
I1
sg8
g9
sg10
I00
sg11
I5
sg12
(lp322
g243
ag309
asg34
I00
sg35
I00
sg36
I34440
sg26
S'94.3492988429'
p323
sg29
I3
sba(igraph
Edge
p324
(dp325
g7
I1
sg8
g9
sg10
I00
sg11
I5
sg12
(lp326
g273
ag61
asg34
I00
sg35
I00
sg36
I34441
sg26
S'94.3499858338'
p327
sg29
I3
sba(igraph
Edge
p328
(dp329
g7
I1
sg8
g9
sg10
I00
sg11
I5
sg12
(lp330
g263
ag51
asg34
I00
sg35
I00
sg36
I34442
sg26
S'94.3506908285'
p331
sg29
I3
sba(igraph
Edge
p332
(dp333
g7
I1
sg8
g9
sg10
I00
sg11
I5
sg12
(lp334
g253
ag41
asg34
I00
sg35
I00
sg36
I34443
sg26
S'94.3514043514'
p335
sg29
I3
sba(igraph
Edge
p336
(dp337
g7
I1
sg8
g9
sg10
I00
sg11
I5
sg12
(lp338
g243
ag14
asg34
I00
sg35
I00
sg36
I34444
sg26
S'94.3521467754'
p339
sg29
I3
sba(igraph
Edge
p340
(dp341
g7
I1
sg8
g9
sg10
I00
sg11
I5
sg12
(lp342
g312
ag179
asg34
I00
sg35
I00
sg36
I34445
sg26
S'94.3528915682'
p343
sg29
I3
sba(igraph
Edge
p344
(dp345
g7
I1
sg8
g9
sg10
I00
sg11
I5
sg12
(lp346
g302
ag169
asg34
I00
sg35
I00
sg36
I34446
sg26
S'94.3536377824'
p347
sg29
I3
sba(igraph
Edge
p348
(dp349
g7
I1
sg8
g9
sg10
I00
sg11
I5
sg12
(lp350
g292
a(igraph
Vertex
p351
(dp352
g8
g16
sg17
Nsg10
I00
sg18
g32
sg19
I0
sg20
I34565
sg21
I-12
sg22
F-28.875
sg23
F-277.125
sg24
I16
sg25
g9
sg26
S'94.3234902547'
p353
sg28
I-12
sg29
I5
sbasg34
I00
sg35
I00
sg36
I34447
sg26
S'94.3544072122'
p354
sg29
I3
sba(igraph
Edge
p355
(dp356
g7
I1
sg8
g9
sg10
I00
sg11
I5
sg12
(lp357
g351
ag83
asg34
I00
sg35
I00
sg36
I34448
sg26
S'94.3551913293'
p358
sg29
I3
sba(igraph
Edge
p359
(dp360
g7
I1
sg8
g9
sg10
I00
sg11
I5
sg12
(lp361
(igraph
Vertex
p362
(dp363
g8
g16
sg17
I34569
sg10
I01
sg18
I0
sg19
I0
sg20
I34568
sg21
I-12
sg22
F-34.125
sg23
F153.125
sg24
I16
sg25
g9
sg26
S'94.3238858667'
p364
sg28
I-12
sg29
I5
sba(igraph
Vertex
p365
(dp366
g8
g16
sg17
I33486
sg10
I00
sg18
g32
sg19
I0
sg20
I34571
sg21
I-12
sg22
F25.875
sg23
F153.125
sg24
I16
sg25
g9
sg26
S'94.3242919019'
p367
sg28
I-12
sg29
I5
sbasg34
I00
sg35
I00
sg36
I34449
sg26
S'94.3560313533'
p368
sg29
I3
sba(igraph
Edge
p369
(dp370
g7
I1
sg8
g9
sg10
I00
sg11
I5
sg12
(lp371
g365
a(igraph
Vertex
p372
(dp373
g8
g16
sg17
I33489
sg10
I00
sg18
g32
sg19
I0
sg20
I34573
sg21
I-12
sg22
F85.875
sg23
F153.125
sg24
I16
sg25
g9
sg26
S'94.3249135102'
p374
sg28
I-12
sg29
I5
sbasg34
I00
sg35
I00
sg36
I34450
sg26
S'94.3568709035'
p375
sg29
I3
sba(igraph
Edge
p376
(dp377
g7
I1
sg8
g9
sg10
I00
sg11
I5
sg12
(lp378
(igraph
Vertex
p379
(dp380
g8
g16
sg17
I34577
sg10
I01
sg18
I0
sg19
I0
sg20
I34576
sg21
I-12
sg22
F-34.125
sg23
F277.125
sg24
I16
sg25
g9
sg26
S'94.3253413397'
p381
sg28
I-12
sg29
I5
sba(igraph
Vertex
p382
(dp383
g8
g16
sg17
I33500
sg10
I00
sg18
g32
sg19
I0
sg20
I34583
sg21
I-12
sg22
F25.875
sg23
F277.125
sg24
I16
sg25
g9
sg26
S'94.3264395775'
p384
sg28
I-12
sg29
I5
sbasg34
I00
sg35
I00
sg36
I34451
sg26
S'94.3577114013'
p385
sg29
I3
sba(igraph
Edge
p386
(dp387
g7
I1
sg8
g9
sg10
I00
sg11
I5
sg12
(lp388
(igraph
Vertex
p389
(dp390
g8
g16
sg17
I34581
sg10
I01
sg18
I0
sg19
I0
sg20
I34580
sg21
I-12
sg22
F-34.125
sg23
F217.125
sg24
I16
sg25
g9
sg26
S'94.3259582101'
p391
sg28
I-12
sg29
I5
sba(igraph
Vertex
p392
(dp393
g8
g16
sg17
I33503
sg10
I00
sg18
g32
sg19
I0
sg20
I34585
sg21
I-12
sg22
F25.875
sg23
F217.125
sg24
I16
sg25
g9
sg26
S'94.3268977293'
p394
sg28
I-12
sg29
I5
sbasg34
I00
sg35
I00
sg36
I34452
sg26
S'94.3585594797'
p395
sg29
I3
sba(igraph
Edge
p396
(dp397
g7
I1
sg8
g9
sg10
I00
sg11
I5
sg12
(lp398
g379
ag392
asg34
I00
sg35
I00
sg36
I34453
sg26
S'94.3594288784'
p399
sg29
I3
sba(igraph
Edge
p400
(dp401
g7
I1
sg8
g9
sg10
I00
sg11
I5
sg12
(lp402
g382
a(igraph
Vertex
p403
(dp404
g8
g16
sg17
I33506
sg10
I00
sg18
g32
sg19
I0
sg20
I34587
sg21
I-12
sg22
F85.875
sg23
F277.125
sg24
I16
sg25
g9
sg26
S'94.3273620404'
p405
sg28
I-12
sg29
I5
sbasg34
I00
sg35
I00
sg36
I34454
sg26
S'94.3603105957'
p406
sg29
I3
sba(igraph
Edge
p407
(dp408
g7
I1
sg8
g9
sg10
I00
sg11
I5
sg12
(lp409
g392
a(igraph
Vertex
p410
(dp411
g8
g16
sg17
I33509
sg10
I00
sg18
g32
sg19
I0
sg20
I34589
sg21
I-12
sg22
F85.875
sg23
F217.125
sg24
I16
sg25
g9
sg26
S'94.3278391437'
p412
sg28
I-12
sg29
I5
sbasg34
I00
sg35
I00
sg36
I34455
sg26
S'94.3612259518'
p413
sg29
I3
sba(igraph
Edge
p414
(dp415
g7
I1
sg8
g9
sg10
I00
sg11
I5
sg12
(lp416
g410
a(igraph
Vertex
p417
(dp418
g8
g16
sg17
I33512
sg10
I00
sg18
g32
sg19
I0
sg20
I34591
sg21
I-12
sg22
F145.875
sg23
F217.125
sg24
I16
sg25
g9
sg26
S'94.3283214587'
p419
sg28
I-12
sg29
I5
sbasg34
I00
sg35
I00
sg36
I34456
sg26
S'94.3621266205'
p420
sg29
I3
sba(igraph
Edge
p421
(dp422
g7
I1
sg8
g9
sg10
I00
sg11
I5
sg12
(lp423
g403
ag417
asg34
I00
sg35
I00
sg36
I34457
sg26
S'94.3630348698'
p424
sg29
I3
sba(igraph
Edge
p425
(dp426
g7
I1
sg8
g9
sg10
I00
sg11
I5
sg12
(lp427
g410
a(igraph
Vertex
p428
(dp429
g8
g16
sg17
I33515
sg10
I00
sg18
g32
sg19
I0
sg20
I34593
sg21
I-12
sg22
F143.875
sg23
F153.125
sg24
I16
sg25
g9
sg26
S'94.3288279367'
p430
sg28
I-12
sg29
I5
sbasg34
I00
sg35
I00
sg36
I34458
sg26
S'94.3640042375'
p431
sg29
I3
sba(igraph
Edge
p432
(dp433
g7
I1
sg8
g9
sg10
I00
sg11
I5
sg12
(lp434
g428
ag372
asg34
I00
sg35
I00
sg36
I34459
sg26
S'94.3649773956'
p435
sg29
I3
sba(igraph
Edge
p436
(dp437
g7
I1
sg8
g9
sg10
I00
sg11
I5
sg12
(lp438
g365
ag389
asg34
I00
sg35
I00
sg36
I34460
sg26
S'94.3661064296'
p439
sg29
I3
sba(igraph
Edge
p440
(dp441
g7
I1
sg8
g9
sg10
I00
sg11
I5
sg12
(lp442
(igraph
Vertex
p443
(dp444
g8
g16
sg17
I33518
sg10
I00
sg18
g32
sg19
I0
sg20
I34595
sg21
I-12
sg22
F-146.125
sg23
F153.125
sg24
I16
sg25
g9
sg26
S'94.3293377313'
p445
sg28
I-12
sg29
I5
sba(igraph
Vertex
p446
(dp447
g8
g16
sg17
I33521
sg10
I00
sg18
g32
sg19
I0
sg20
I34597
sg21
I-12
sg22
F-86.125
sg23
F153.125
sg24
I16
sg25
g9
sg26
S'94.3299759222'
p448
sg28
I-12
sg29
I5
sbasg34
I00
sg35
I00
sg36
I34461
sg26
S'94.3671056459'
p449
sg29
I3
sba(igraph
Edge
p450
(dp451
g7
I1
sg8
g9
sg10
I00
sg11
I5
sg12
(lp452
(igraph
Vertex
p453
(dp454
g8
g16
sg17
I33524
sg10
I00
sg18
g32
sg19
I0
sg20
I34599
sg21
I-12
sg22
F-146.125
sg23
F277.125
sg24
I16
sg25
g9
sg26
S'94.3305591537'
p455
sg28
I-12
sg29
I5
sba(igraph
Vertex
p456
(dp457
g8
g16
sg17
I33530
sg10
I00
sg18
g32
sg19
I0
sg20
I34603
sg21
I-12
sg22
F-86.125
sg23
F277.125
sg24
I16
sg25
g9
sg26
S'94.3316820284'
p458
sg28
I-12
sg29
I5
sbasg34
I00
sg35
I00
sg36
I34462
sg26
S'94.3681247613'
p459
sg29
I3
sba(igraph
Edge
p460
(dp461
g7
I1
sg8
g9
sg10
I00
sg11
I5
sg12
(lp462
(igraph
Vertex
p463
(dp464
g8
g16
sg17
I33527
sg10
I00
sg18
g32
sg19
I0
sg20
I34601
sg21
I-12
sg22
F-146.125
sg23
F217.125
sg24
I16
sg25
g9
sg26
S'94.3311215386'
p465
sg28
I-12
sg29
I5
sba(igraph
Vertex
p466
(dp467
g8
g16
sg17
I33533
sg10
I00
sg18
g32
sg19
I0
sg20
I34605
sg21
I-12
sg22
F-86.125
sg23
F217.125
sg24
I16
sg25
g9
sg26
S'94.3322733143'
p468
sg28
I-12
sg29
I5
sbasg34
I00
sg35
I00
sg36
I34463
sg26
S'94.3691528787'
p469
sg29
I3
sba(igraph
Edge
p470
(dp471
g7
I1
sg8
g9
sg10
I00
sg11
I5
sg12
(lp472
g453
ag466
asg34
I00
sg35
I00
sg36
I34464
sg26
S'94.3703217107'
p473
sg29
I3
sba(igraph
Edge
p474
(dp475
g7
I1
sg8
g9
sg10
I00
sg11
I5
sg12
(lp476
g446
ag463
asg34
I00
sg35
I00
sg36
I34465
sg26
S'94.3714791719'
p477
sg29
I3
sba(igraph
Edge
p478
(dp479
g7
I1
sg8
g9
sg10
I00
sg11
I5
sg12
(lp480
g446
ag362
asg34
I00
sg35
I00
sg36
I34466
sg26
S'94.3726247883'
p481
sg29
I3
sba(igraph
Edge
p482
(dp483
g7
I1
sg8
g9
sg10
I00
sg11
I5
sg12
(lp484
g466
ag389
asg34
I00
sg35
I00
sg36
I34467
sg26
S'94.3742674072'
p485
sg29
I3
sba(igraph
Edge
p486
(dp487
g7
I1
sg8
g9
sg10
I00
sg11
I5
sg12
(lp488
g456
ag379
asg34
I00
sg35
I00
sg36
I34468
sg26
S'94.3753860178'
p489
sg29
I3
sba(igraph
Edge
p490
(dp491
g7
I1
sg8
g9
sg10
I00
sg11
I5
sg12
(lp492
g207
ag372
asg34
I00
sg35
I00
sg36
I34469
sg26
S'94.3769732036'
p493
sg29
I3
sba(igraph
Edge
p494
(dp495
g7
I1
sg8
g9
sg10
I00
sg11
I5
sg12
(lp496
g172
ag362
asg34
I00
sg35
I00
sg36
I34470
sg26
S'94.3789053061'
p497
sg29
I3
sba(igraph
Edge
p498
(dp499
g7
I1
sg8
g9
sg10
I00
sg11
I5
sg12
(lp500
g443
ag302
asg34
I00
sg35
I00
sg36
I34471
sg26
S'94.3801461538'
p501
sg29
I3
sbasS'vertices'
p502
(lp503
g14
ag41
ag51
ag61
ag30
ag44
ag54
ag64
ag83
ag90
ag97
ag104
ag111
ag118
ag125
ag132
ag139
ag146
ag169
ag179
ag172
ag182
ag193
ag200
ag207
ag214
ag225
ag240
ag250
ag260
ag270
ag243
ag253
ag263
ag273
ag292
ag299
ag309
ag302
ag312
ag351
ag362
ag365
ag372
ag379
ag389
ag382
ag392
ag403
ag410
ag417
ag428
ag443
ag446
ag453
ag463
ag456
ag466
asS'tags'
p504
(lp505
sb.