(igraph
Graph
p0
(dp1
S'labelingConstraints'
p2
I-1
sS'edges'
p3
(lp4
(igraph
Edge
p5
(dp6
S'direction'
p7
I1
sS'selected'
p8
I00
sS'height'
p9
I5
sS'vs'
p10
(lp11
(igraph
Vertex
p12
(dp13
g8
I00
sS'label'
p14
S'NULL'
p15
sS'y'
p16
F-150.0
sS'x'
p17
F-149.99999999999997
sS'circle'
p18
I207283
sS'id'
p19
S'19590.2859146'
p20
sba(igraph
Vertex
p21
(dp22
g8
I00
sg14
g15
sg16
F-150.0
sg17
F-107.14285714285711
sg18
I207284
sg19
S'19590.2859528'
p23
sbasS'wrap'
p24
I00
sS'curved'
p25
I00
sS'line'
p26
I207254
sg19
S'19590.2948903'
p27
sba(igraph
Edge
p28
(dp29
g7
I1
sg8
I00
sg9
I5
sg10
(lp30
g21
a(igraph
Vertex
p31
(dp32
g8
I00
sg14
g15
sg16
F-150.0
sg17
F-64.285714285714263
sg18
I207285
sg19
S'19590.2859967'
p33
sbasg24
I00
sg25
I00
sg26
I207255
sg19
S'19590.2949892'
p34
sba(igraph
Edge
p35
(dp36
g7
I1
sg8
I00
sg9
I5
sg10
(lp37
g31
a(igraph
Vertex
p38
(dp39
g8
I00
sg14
g15
sg16
F-150.0
sg17
F-21.428571428571416
sg18
I207286
sg19
S'19590.2860506'
p40
sbasg24
I00
sg25
I00
sg26
I207256
sg19
S'19590.2951152'
p41
sba(igraph
Edge
p42
(dp43
g7
I1
sg8
I00
sg9
I5
sg10
(lp44
g38
a(igraph
Vertex
p45
(dp46
g8
I00
sg14
g15
sg16
F-150.0
sg17
F21.428571428571445
sg18
I207287
sg19
S'19590.2861294'
p47
sbasg24
I00
sg25
I00
sg26
I207257
sg19
S'19590.2953177'
p48
sba(igraph
Edge
p49
(dp50
g7
I1
sg8
I00
sg9
I5
sg10
(lp51
g45
a(igraph
Vertex
p52
(dp53
g8
I00
sg14
g15
sg16
F-150.0
sg17
F64.285714285714278
sg18
I207288
sg19
S'19590.2862107'
p54
sbasg24
I00
sg25
I00
sg26
I207258
sg19
S'19590.2955465'
p55
sba(igraph
Edge
p56
(dp57
g7
I1
sg8
I00
sg9
I5
sg10
(lp58
g52
a(igraph
Vertex
p59
(dp60
g8
I00
sg14
g15
sg16
F-150.0
sg17
F107.14285714285714
sg18
I207289
sg19
S'19590.2863087'
p61
sbasg24
I00
sg25
I00
sg26
I207259
sg19
S'19590.2958074'
p62
sba(igraph
Edge
p63
(dp64
g7
I1
sg8
I00
sg9
I5
sg10
(lp65
g59
a(igraph
Vertex
p66
(dp67
g8
I00
sg14
g15
sg16
F-150.0
sg17
F149.99999999999997
sg18
I207290
sg19
S'19590.2864216'
p68
sbasg24
I00
sg25
I00
sg26
I207260
sg19
S'19590.2960927'
p69
sba(igraph
Edge
p70
(dp71
g7
I1
sg8
I00
sg9
I5
sg10
(lp72
(igraph
Vertex
p73
(dp74
g8
I00
sg14
g15
sg16
F-50.0
sg17
F-149.99999999999997
sg18
I207291
sg19
S'19590.2865487'
p75
sba(igraph
Vertex
p76
(dp77
g8
I00
sg14
I0
sg16
F-50.0
sg17
F-107.14285714285711
sg18
I207292
sg19
S'19590.2867518'
p78
sbasg24
I00
sg25
I00
sg26
I207261
sg19
S'19590.2965964'
p79
sba(igraph
Edge
p80
(dp81
g7
I1
sg8
I00
sg9
I5
sg10
(lp82
g76
a(igraph
Vertex
p83
(dp84
g8
I00
sg14
g15
sg16
F-50.0
sg17
F-64.285714285714263
sg18
I207294
sg19
S'19590.2869105'
p85
sbasg24
I00
sg25
I00
sg26
I207262
sg19
S'19590.2969769'
p86
sba(igraph
Edge
p87
(dp88
g7
I1
sg8
I00
sg9
I5
sg10
(lp89
g83
a(igraph
Vertex
p90
(dp91
g8
I00
sg14
g15
sg16
F-50.0
sg17
F-21.428571428571416
sg18
I207295
sg19
S'19590.2870837'
p92
sbasg24
I00
sg25
I00
sg26
I207263
sg19
S'19590.297404'
p93
sba(igraph
Edge
p94
(dp95
g7
I1
sg8
I00
sg9
I5
sg10
(lp96
g90
a(igraph
Vertex
p97
(dp98
g8
I00
sg14
g15
sg16
F-50.0
sg17
F21.428571428571445
sg18
I207296
sg19
S'19590.2872832'
p99
sbasg24
I00
sg25
I00
sg26
I207264
sg19
S'19590.2977965'
p100
sba(igraph
Edge
p101
(dp102
g7
I1
sg8
I00
sg9
I5
sg10
(lp103
g97
a(igraph
Vertex
p104
(dp105
g8
I00
sg14
I0
sg16
F-50.0
sg17
F64.285714285714278
sg18
I207297
sg19
S'19590.2874891'
p106
sbasg24
I00
sg25
I00
sg26
I207265
sg19
S'19590.2984656'
p107
sba(igraph
Edge
p108
(dp109
g7
I1
sg8
I00
sg9
I5
sg10
(lp110
g104
a(igraph
Vertex
p111
(dp112
g8
I00
sg14
g15
sg16
F-50.0
sg17
F107.14285714285714
sg18
I207299
sg19
S'19590.2878422'
p113
sbasg24
I00
sg25
I00
sg26
I207266
sg19
S'19590.2989372'
p114
sba(igraph
Edge
p115
(dp116
g7
I1
sg8
I00
sg9
I5
sg10
(lp117
g111
a(igraph
Vertex
p118
(dp119
g8
I00
sg14
g15
sg16
F-50.0
sg17
F149.99999999999997
sg18
I207300
sg19
S'19590.2880875'
p120
sbasg24
I00
sg25
I00
sg26
I207267
sg19
S'19590.2994272'
p121
sba(igraph
Edge
p122
(dp123
g7
I1
sg8
I00
sg9
I5
sg10
(lp124
(igraph
Vertex
p125
(dp126
g8
I00
sg14
g15
sg16
F50.0
sg17
F-149.99999999999997
sg18
I207301
sg19
S'19590.2883459'
p127
sba(igraph
Vertex
p128
(dp129
g8
I00
sg14
g15
sg16
F50.0
sg17
F-107.14285714285711
sg18
I207302
sg19
S'19590.2886188'
p130
sbasg24
I00
sg25
I00
sg26
I207268
sg19
S'19590.3000292'
p131
sba(igraph
Edge
p132
(dp133
g7
I1
sg8
I00
sg9
I5
sg10
(lp134
g128
a(igraph
Vertex
p135
(dp136
g8
I00
sg14
g15
sg16
F50.0
sg17
F-64.285714285714263
sg18
I207303
sg19
S'19590.2889093'
p137
sbasg24
I00
sg25
I00
sg26
I207269
sg19
S'19590.3007092'
p138
sba(igraph
Edge
p139
(dp140
g7
I1
sg8
I00
sg9
I5
sg10
(lp141
g135
a(igraph
Vertex
p142
(dp143
g8
I00
sg14
I0
sg16
F50.0
sg17
F-21.428571428571416
sg18
I207304
sg19
S'19590.2892116'
p144
sbasg24
I00
sg25
I00
sg26
I207270
sg19
S'19590.3013816'
p145
sba(igraph
Edge
p146
(dp147
g7
I1
sg8
I00
sg9
I5
sg10
(lp148
g142
a(igraph
Vertex
p149
(dp150
g8
I00
sg14
g15
sg16
F50.0
sg17
F21.428571428571445
sg18
I207306
sg19
S'19590.2896251'
p151
sbasg24
I00
sg25
I00
sg26
I207271
sg19
S'19590.3020649'
p152
sba(igraph
Edge
p153
(dp154
g7
I1
sg8
I00
sg9
I5
sg10
(lp155
g149
a(igraph
Vertex
p156
(dp157
g8
I00
sg14
g15
sg16
F50.0
sg17
F64.285714285714278
sg18
I207307
sg19
S'19590.2899595'
p158
sbasg24
I00
sg25
I00
sg26
I207272
sg19
S'19590.3028251'
p159
sba(igraph
Edge
p160
(dp161
g7
I1
sg8
I00
sg9
I5
sg10
(lp162
g156
a(igraph
Vertex
p163
(dp164
g8
I00
sg14
g15
sg16
F50.0
sg17
F107.14285714285714
sg18
I207308
sg19
S'19590.2903123'
p165
sbasg24
I00
sg25
I00
sg26
I207273
sg19
S'19590.303578'
p166
sba(igraph
Edge
p167
(dp168
g7
I1
sg8
I00
sg9
I5
sg10
(lp169
g163
a(igraph
Vertex
p170
(dp171
g8
I00
sg14
I0
sg16
F50.0
sg17
F149.99999999999997
sg18
I207309
sg19
S'19590.2907252'
p172
sbasg24
I00
sg25
I00
sg26
I207274
sg19
S'19590.3045007'
p173
sba(igraph
Edge
p174
(dp175
g7
I1
sg8
I00
sg9
I5
sg10
(lp176
g12
ag76
asg24
I00
sg25
I00
sg26
I207275
sg19
S'19590.3131689'
p177
sba(igraph
Edge
p178
(dp179
g7
I1
sg8
I00
sg9
I5
sg10
(lp180
g31
ag90
asg24
I00
sg25
I00
sg26
I207276
sg19
S'19590.3141581'
p181
sba(igraph
Edge
p182
(dp183
g7
I1
sg8
I00
sg9
I5
sg10
(lp184
g45
ag104
asg24
I00
sg25
I00
sg26
I207277
sg19
S'19590.3151713'
p185
sba(igraph
Edge
p186
(dp187
g7
I1
sg8
I00
sg9
I5
sg10
(lp188
g59
ag118
asg24
I00
sg25
I00
sg26
I207278
sg19
S'19590.3162075'
p189
sba(igraph
Edge
p190
(dp191
g7
I1
sg8
I00
sg9
I5
sg10
(lp192
g73
ag128
asg24
I00
sg25
I00
sg26
I207279
sg19
S'19590.3172828'
p193
sba(igraph
Edge
p194
(dp195
g7
I1
sg8
I00
sg9
I5
sg10
(lp196
g83
ag142
asg24
I00
sg25
I00
sg26
I207280
sg19
S'19590.3183868'
p197
sba(igraph
Edge
p198
(dp199
g7
I1
sg8
I00
sg9
I5
sg10
(lp200
g97
ag156
asg24
I00
sg25
I00
sg26
I207281
sg19
S'19590.3195124'
p201
sba(igraph
Edge
p202
(dp203
g7
I1
sg8
I00
sg9
I5
sg10
(lp204
g111
ag170
asg24
I00
sg25
I00
sg26
I207282
sg19
S'19590.3206799'
p205
sbasS'vertices'
p206
(lp207
g12
ag21
ag31
ag38
ag45
ag52
ag59
ag66
ag73
ag76
ag83
ag90
ag97
ag104
ag111
ag118
ag125
ag128
ag135
ag142
ag149
ag156
ag163
ag170
asS'tags'
p208
(lp209
sb.