(igraph
Graph
p0
(dp1
S'labelingConstraints'
p2
I-1
sS'edges'
p3
(lp4
(igraph
Edge
p5
(dp6
S'direction'
p7
I1
sS'selected'
p8
I00
sS'height'
p9
I5
sS'vs'
p10
(lp11
(igraph
Vertex
p12
(dp13
S'y'
p14
F-75.0
sS'x'
p15
F-150.00000000000003
sS'circle'
p16
I200670
sg8
I00
sS'id'
p17
S'18551.4824708'
p18
sS'label'
p19
S'NULL'
p20
sba(igraph
Vertex
p21
(dp22
g14
F-75.0
sg15
F-116.6666666666667
sg16
I200671
sg8
I00
sg17
S'18551.482508'
p23
sg19
g20
sbasS'wrap'
p24
I00
sS'curved'
p25
I00
sS'line'
p26
I200633
sg17
S'18551.4901682'
p27
sba(igraph
Edge
p28
(dp29
g7
I1
sg8
I00
sg9
I5
sg10
(lp30
g21
a(igraph
Vertex
p31
(dp32
g14
F-75.0
sg15
F-83.333333333333371
sg16
I200672
sg8
I00
sg17
S'18551.4825538'
p33
sg19
g20
sbasg24
I00
sg25
I00
sg26
I200634
sg17
S'18551.4902668'
p34
sba(igraph
Edge
p35
(dp36
g7
I1
sg8
I00
sg9
I5
sg10
(lp37
g31
a(igraph
Vertex
p38
(dp39
g14
F-75.0
sg15
F-50.000000000000028
sg16
I200673
sg8
I00
sg17
S'18551.482608'
p40
sg19
g20
sbasg24
I00
sg25
I00
sg26
I200635
sg17
S'18551.4903922'
p41
sba(igraph
Edge
p42
(dp43
g7
I1
sg8
I00
sg9
I5
sg10
(lp44
g38
a(igraph
Vertex
p45
(dp46
g14
F-75.0
sg15
F-16.666666666666714
sg16
I200674
sg8
I00
sg17
S'18551.4826756'
p47
sg19
g20
sbasg24
I00
sg25
I00
sg26
I200636
sg17
S'18551.4905475'
p48
sba(igraph
Edge
p49
(dp50
g7
I1
sg8
I00
sg9
I5
sg10
(lp51
g45
a(igraph
Vertex
p52
(dp53
g14
F-75.0
sg15
F16.666666666666657
sg16
I200675
sg8
I00
sg17
S'18551.4827577'
p54
sg19
g20
sbasg24
I00
sg25
I00
sg26
I200637
sg17
S'18551.490733'
p55
sba(igraph
Edge
p56
(dp57
g7
I1
sg8
I00
sg9
I5
sg10
(lp58
g52
a(igraph
Vertex
p59
(dp60
g14
F-75.0
sg15
F50.0
sg16
I200676
sg8
I00
sg17
S'18551.4828569'
p61
sg19
g20
sbasg24
I00
sg25
I00
sg26
I200638
sg17
S'18551.4909537'
p62
sba(igraph
Edge
p63
(dp64
g7
I1
sg8
I00
sg9
I5
sg10
(lp65
g59
a(igraph
Vertex
p66
(dp67
g14
F-75.0
sg15
F83.333333333333343
sg16
I200677
sg8
I00
sg17
S'18551.4829698'
p68
sg19
g20
sbasg24
I00
sg25
I00
sg26
I200639
sg17
S'18551.4912013'
p69
sba(igraph
Edge
p70
(dp71
g7
I1
sg8
I00
sg9
I5
sg10
(lp72
g66
a(igraph
Vertex
p73
(dp74
g14
F-75.0
sg15
F116.66666666666671
sg16
I200678
sg8
I00
sg17
S'18551.4831268'
p75
sg19
g20
sbasg24
I00
sg25
I00
sg26
I200640
sg17
S'18551.4914803'
p76
sba(igraph
Edge
p77
(dp78
g7
I1
sg8
I00
sg9
I5
sg10
(lp79
g73
a(igraph
Vertex
p80
(dp81
g14
F-75.0
sg15
F150.00000000000003
sg16
I200679
sg8
I00
sg17
S'18551.4832718'
p82
sg19
g20
sbasg24
I00
sg25
I00
sg26
I200641
sg17
S'18551.4917943'
p83
sba(igraph
Edge
p84
(dp85
g7
I1
sg8
I00
sg9
I5
sg10
(lp86
(igraph
Vertex
p87
(dp88
g14
F0.0
sg15
F-150.00000000000003
sg16
I200680
sg8
I00
sg17
S'18551.4834324'
p89
sg19
g20
sba(igraph
Vertex
p90
(dp91
g14
F0.0
sg15
F-116.6666666666667
sg16
I200681
sg8
I00
sg17
S'18551.4836073'
p92
sg19
g20
sbasg24
I00
sg25
I00
sg26
I200642
sg17
S'18551.492162'
p93
sba(igraph
Edge
p94
(dp95
g7
I1
sg8
I00
sg9
I5
sg10
(lp96
g90
a(igraph
Vertex
p97
(dp98
g14
F0.0
sg15
F-83.333333333333371
sg16
I200682
sg8
I00
sg17
S'18551.4837975'
p99
sg19
g20
sbasg24
I00
sg25
I00
sg26
I200643
sg17
S'18551.4925366'
p100
sba(igraph
Edge
p101
(dp102
g7
I1
sg8
I00
sg9
I5
sg10
(lp103
g97
a(igraph
Vertex
p104
(dp105
g14
F0.0
sg15
F-50.000000000000028
sg16
I200683
sg8
I00
sg17
S'18551.4840031'
p106
sg19
I0
sbasg24
I00
sg25
I00
sg26
I200644
sg17
S'18551.4929437'
p107
sba(igraph
Edge
p108
(dp109
g7
I1
sg8
I00
sg9
I5
sg10
(lp110
g104
a(igraph
Vertex
p111
(dp112
g14
F0.0
sg15
F-16.666666666666714
sg16
I200685
sg8
I00
sg17
S'18551.4842372'
p113
sg19
g20
sbasg24
I00
sg25
I00
sg26
I200645
sg17
S'18551.4933783'
p114
sba(igraph
Edge
p115
(dp116
g7
I1
sg8
I00
sg9
I5
sg10
(lp117
g111
a(igraph
Vertex
p118
(dp119
g14
F0.0
sg15
F16.666666666666657
sg16
I200686
sg8
I00
sg17
S'18551.4844753'
p120
sg19
g20
sbasg24
I00
sg25
I00
sg26
I200646
sg17
S'18551.4938468'
p121
sba(igraph
Edge
p122
(dp123
g7
I1
sg8
I00
sg9
I5
sg10
(lp124
g118
a(igraph
Vertex
p125
(dp126
g14
F0.0
sg15
F50.0
sg16
I200687
sg8
I00
sg17
S'18551.4847275'
p127
sg19
g20
sbasg24
I00
sg25
I00
sg26
I200647
sg17
S'18551.4943436'
p128
sba(igraph
Edge
p129
(dp130
g7
I1
sg8
I00
sg9
I5
sg10
(lp131
g125
a(igraph
Vertex
p132
(dp133
g14
F0.0
sg15
F83.333333333333343
sg16
I200688
sg8
I00
sg17
S'18551.4849994'
p134
sg19
I0
sbasg24
I00
sg25
I00
sg26
I200648
sg17
S'18551.4948704'
p135
sba(igraph
Edge
p136
(dp137
g7
I1
sg8
I00
sg9
I5
sg10
(lp138
g132
a(igraph
Vertex
p139
(dp140
g14
F0.0
sg15
F116.66666666666671
sg16
I200690
sg8
I00
sg17
S'18551.4853022'
p141
sg19
g20
sbasg24
I00
sg25
I00
sg26
I200649
sg17
S'18551.4954255'
p142
sba(igraph
Edge
p143
(dp144
g7
I1
sg8
I00
sg9
I5
sg10
(lp145
g139
a(igraph
Vertex
p146
(dp147
g14
F0.0
sg15
F150.00000000000003
sg16
I200691
sg8
I00
sg17
S'18551.4856061'
p148
sg19
g20
sbasg24
I00
sg25
I00
sg26
I200650
sg17
S'18551.4960172'
p149
sba(igraph
Edge
p150
(dp151
g7
I1
sg8
I00
sg9
I5
sg10
(lp152
(igraph
Vertex
p153
(dp154
g14
F75.0
sg15
F-150.00000000000003
sg16
I200692
sg8
I00
sg17
S'18551.485924'
p155
sg19
g20
sba(igraph
Vertex
p156
(dp157
g14
F75.0
sg15
F-116.6666666666667
sg16
I200693
sg8
I00
sg17
S'18551.4863624'
p158
sg19
I0
sbasg24
I00
sg25
I00
sg26
I200651
sg17
S'18551.4966371'
p159
sba(igraph
Edge
p160
(dp161
g7
I1
sg8
I00
sg9
I5
sg10
(lp162
g156
a(igraph
Vertex
p163
(dp164
g14
F75.0
sg15
F-83.333333333333371
sg16
I200695
sg8
I00
sg17
S'18551.4867275'
p165
sg19
g20
sbasg24
I00
sg25
I00
sg26
I200652
sg17
S'18551.4972978'
p166
sba(igraph
Edge
p167
(dp168
g7
I1
sg8
I00
sg9
I5
sg10
(lp169
g163
a(igraph
Vertex
p170
(dp171
g14
F75.0
sg15
F-50.000000000000028
sg16
I200696
sg8
I00
sg17
S'18551.4870971'
p172
sg19
g20
sbasg24
I00
sg25
I00
sg26
I200653
sg17
S'18551.497982'
p173
sba(igraph
Edge
p174
(dp175
g7
I1
sg8
I00
sg9
I5
sg10
(lp176
g170
a(igraph
Vertex
p177
(dp178
g14
F75.0
sg15
F-16.666666666666714
sg16
I200697
sg8
I00
sg17
S'18551.487481'
p179
sg19
g20
sbasg24
I00
sg25
I00
sg26
I200654
sg17
S'18551.4987578'
p180
sba(igraph
Edge
p181
(dp182
g7
I1
sg8
I00
sg9
I5
sg10
(lp183
g177
a(igraph
Vertex
p184
(dp185
g14
F75.0
sg15
F16.666666666666657
sg16
I200698
sg8
I00
sg17
S'18551.4878776'
p186
sg19
I0
sbasg24
I00
sg25
I00
sg26
I200655
sg17
S'18551.4995143'
p187
sba(igraph
Edge
p188
(dp189
g7
I1
sg8
I00
sg9
I5
sg10
(lp190
g184
a(igraph
Vertex
p191
(dp192
g14
F75.0
sg15
F50.0
sg16
I200700
sg8
I00
sg17
S'18551.4882975'
p193
sg19
g20
sbasg24
I00
sg25
I00
sg26
I200656
sg17
S'18551.5002988'
p194
sba(igraph
Edge
p195
(dp196
g7
I1
sg8
I00
sg9
I5
sg10
(lp197
g191
a(igraph
Vertex
p198
(dp199
g14
F75.0
sg15
F83.333333333333343
sg16
I200701
sg8
I00
sg17
S'18551.48873'
p200
sg19
g20
sbasg24
I00
sg25
I00
sg26
I200657
sg17
S'18551.5011182'
p201
sba(igraph
Edge
p202
(dp203
g7
I1
sg8
I00
sg9
I5
sg10
(lp204
g198
a(igraph
Vertex
p205
(dp206
g14
F75.0
sg15
F116.66666666666671
sg16
I200702
sg8
I00
sg17
S'18551.4891798'
p207
sg19
g20
sbasg24
I00
sg25
I00
sg26
I200658
sg17
S'18551.5020923'
p208
sba(igraph
Edge
p209
(dp210
g7
I1
sg8
I00
sg9
I5
sg10
(lp211
g205
a(igraph
Vertex
p212
(dp213
g14
F75.0
sg15
F150.00000000000003
sg16
I200703
sg8
I00
sg17
S'18551.4896444'
p214
sg19
I0
sbasg24
I00
sg25
I00
sg26
I200659
sg17
S'18551.5030148'
p215
sba(igraph
Edge
p216
(dp217
g7
I1
sg8
I00
sg9
I5
sg10
(lp218
g12
ag90
asg24
I00
sg25
I00
sg26
I200660
sg17
S'18551.5039501'
p219
sba(igraph
Edge
p220
(dp221
g7
I1
sg8
I00
sg9
I5
sg10
(lp222
g31
ag104
asg24
I00
sg25
I00
sg26
I200661
sg17
S'18551.504922'
p223
sba(igraph
Edge
p224
(dp225
g7
I1
sg8
I00
sg9
I5
sg10
(lp226
g45
ag118
asg24
I00
sg25
I00
sg26
I200662
sg17
S'18551.5059126'
p227
sba(igraph
Edge
p228
(dp229
g7
I1
sg8
I00
sg9
I5
sg10
(lp230
g59
ag132
asg24
I00
sg25
I00
sg26
I200663
sg17
S'18551.5069262'
p231
sba(igraph
Edge
p232
(dp233
g7
I1
sg8
I00
sg9
I5
sg10
(lp234
g73
ag146
asg24
I00
sg25
I00
sg26
I200664
sg17
S'18551.5080442'
p235
sba(igraph
Edge
p236
(dp237
g7
I1
sg8
I00
sg9
I5
sg10
(lp238
g87
ag156
asg24
I00
sg25
I00
sg26
I200665
sg17
S'18551.5091365'
p239
sba(igraph
Edge
p240
(dp241
g7
I1
sg8
I00
sg9
I5
sg10
(lp242
g97
ag170
asg24
I00
sg25
I00
sg26
I200666
sg17
S'18551.5102512'
p243
sba(igraph
Edge
p244
(dp245
g7
I1
sg8
I00
sg9
I5
sg10
(lp246
g111
ag184
asg24
I00
sg25
I00
sg26
I200667
sg17
S'18551.511379'
p247
sba(igraph
Edge
p248
(dp249
g7
I1
sg8
I00
sg9
I5
sg10
(lp250
g125
ag198
asg24
I00
sg25
I00
sg26
I200668
sg17
S'18551.5125442'
p251
sba(igraph
Edge
p252
(dp253
g7
I1
sg8
I00
sg9
I5
sg10
(lp254
g139
ag212
asg24
I00
sg25
I00
sg26
I200669
sg17
S'18551.5137656'
p255
sbasS'vertices'
p256
(lp257
g12
ag21
ag31
ag38
ag45
ag52
ag59
ag66
ag73
ag80
ag87
ag90
ag97
ag104
ag111
ag118
ag125
ag132
ag139
ag146
ag153
ag156
ag163
ag170
ag177
ag184
ag191
ag198
ag205
ag212
asS'tags'
p258
(lp259
sb.