(igraph
Graph
p0
(dp1
S'labelingConstraints'
p2
I-1
sS'edges'
p3
(lp4
(igraph
Edge
p5
(dp6
S'direction'
p7
I1
sS'color'
p8
S'black'
p9
sS'selected'
p10
I00
sS'height'
p11
I5
sS'vs'
p12
(lp13
(igraph
Vertex
p14
(dp15
g8
S'#ffffff'
p16
sS'text'
p17
I758162
sS'shape'
p18
I0
sS'id'
p19
S'540.080602979'
p20
sS'label'
p21
I0
sS'lsize'
p22
I16
sS'ynorm'
p23
F0.40000000000000002
sS'size'
p24
I5
sS'xnorm'
p25
F0.0
sg10
I00
sS'lcolor'
p26
g9
sS'y'
p27
F42.0
sS'x'
p28
F-24.0
sS'circle'
p29
I758161
sS'lx'
p30
I-12
sS'ly'
p31
I-12
sba(igraph
Vertex
p32
(dp33
g8
g16
sg17
I736787
sg18
I0
sg19
S'540.082797559'
p34
sg21
S'NULL'
p35
sg22
I16
sg23
F0.59999999999999998
sg24
I5
sg25
F0.0
sg10
I00
sg26
g9
sg27
F102.0
sg28
F-24.0
sg29
I758173
sg30
I-12
sg31
I-12
sbasS'wrap'
p36
I00
sS'curved'
p37
I00
sS'line'
p38
I758093
sg19
S'540.128793256'
p39
sg24
I3
sba(igraph
Edge
p40
(dp41
g7
I1
sg8
g9
sg10
I00
sg11
I5
sg12
(lp42
(igraph
Vertex
p43
(dp44
g8
g16
sg17
I758165
sg18
I0
sg19
S'540.081060183'
p45
sg21
I0
sg22
I16
sg23
F0.40000000000000002
sg24
I5
sg25
F0.25
sg10
I00
sg26
g9
sg27
F42.0
sg28
F-84.0
sg29
I758164
sg30
I-12
sg31
I-12
sba(igraph
Vertex
p46
(dp47
g8
g16
sg17
I736790
sg18
I0
sg19
S'540.083248131'
p48
sg21
g35
sg22
I16
sg23
F0.59999999999999998
sg24
I5
sg25
F0.25
sg10
I00
sg26
g9
sg27
F102.0
sg28
F-84.0
sg29
I758175
sg30
I-12
sg31
I-12
sbasg36
I00
sg37
I00
sg38
I758094
sg19
S'540.130000464'
p49
sg24
I3
sba(igraph
Edge
p50
(dp51
g7
I1
sg8
g9
sg10
I00
sg11
I5
sg12
(lp52
(igraph
Vertex
p53
(dp54
g8
g16
sg17
I758168
sg18
I0
sg19
S'540.081470956'
p55
sg21
I0
sg22
I16
sg23
F0.40000000000000002
sg24
I5
sg25
F0.5
sg10
I00
sg26
g9
sg27
F42.0
sg28
F-144.0
sg29
I758167
sg30
I-12
sg31
I-12
sba(igraph
Vertex
p56
(dp57
g8
g16
sg17
I736793
sg18
I0
sg19
S'540.083699649'
p58
sg21
g35
sg22
I16
sg23
F0.59999999999999998
sg24
I5
sg25
F0.5
sg10
I00
sg26
g9
sg27
F102.0
sg28
F-144.0
sg29
I758177
sg30
I-12
sg31
I-12
sbasg36
I00
sg37
I00
sg38
I758095
sg19
S'540.131266896'
p59
sg24
I3
sba(igraph
Edge
p60
(dp61
g7
I1
sg8
g9
sg10
I00
sg11
I5
sg12
(lp62
(igraph
Vertex
p63
(dp64
g8
g16
sg17
I758171
sg18
I0
sg19
S'540.08190684'
p65
sg21
I0
sg22
I16
sg23
F0.40000000000000002
sg24
I5
sg25
F0.75
sg10
I00
sg26
g9
sg27
F42.0
sg28
F-204.0
sg29
I758170
sg30
I-12
sg31
I-12
sba(igraph
Vertex
p66
(dp67
g8
g16
sg17
I736796
sg18
I0
sg19
S'540.084193809'
p68
sg21
g35
sg22
I16
sg23
F0.59999999999999998
sg24
I5
sg25
F0.75
sg10
I00
sg26
g9
sg27
F102.0
sg28
F-204.0
sg29
I758179
sg30
I-12
sg31
I-12
sbasg36
I00
sg37
I00
sg38
I758096
sg19
S'540.132514377'
p69
sg24
I3
sba(igraph
Edge
p70
(dp71
g7
I1
sg8
g9
sg10
I00
sg11
I5
sg12
(lp72
g14
ag46
asg36
I00
sg37
I00
sg38
I758097
sg19
S'540.135057191'
p73
sg24
I3
sba(igraph
Edge
p74
(dp75
g7
I1
sg8
g9
sg10
I00
sg11
I5
sg12
(lp76
g43
ag56
asg36
I00
sg37
I00
sg38
I758098
sg19
S'540.13633452'
p77
sg24
I3
sba(igraph
Edge
p78
(dp79
g7
I1
sg8
g9
sg10
I00
sg11
I5
sg12
(lp80
g53
ag66
asg36
I00
sg37
I00
sg38
I758099
sg19
S'540.137608059'
p81
sg24
I3
sba(igraph
Edge
p82
(dp83
g7
I1
sg8
g9
sg10
I00
sg11
I5
sg12
(lp84
g32
a(igraph
Vertex
p85
(dp86
g8
g16
sg17
I582713
sg18
I0
sg19
S'540.08516981'
p87
sg21
g35
sg22
I16
sg23
F0.80000000000000004
sg24
I5
sg25
F0.0
sg10
I00
sg26
g9
sg27
F162.0
sg28
F-24.0
sg29
I758181
sg30
I-12
sg31
I-12
sbasg36
I00
sg37
I00
sg38
I758100
sg19
S'540.140227152'
p88
sg24
I3
sba(igraph
Edge
p89
(dp90
g7
I1
sg8
g9
sg10
I00
sg11
I5
sg12
(lp91
g46
a(igraph
Vertex
p92
(dp93
g8
g16
sg17
I480736
sg18
I0
sg19
S'540.085673919'
p94
sg21
g35
sg22
I16
sg23
F0.80000000000000004
sg24
I5
sg25
F0.25
sg10
I00
sg26
g9
sg27
F162.0
sg28
F-84.0
sg29
I758183
sg30
I-12
sg31
I-12
sbasg36
I00
sg37
I00
sg38
I758101
sg19
S'540.141569864'
p95
sg24
I3
sba(igraph
Edge
p96
(dp97
g7
I1
sg8
g9
sg10
I00
sg11
I5
sg12
(lp98
g56
a(igraph
Vertex
p99
(dp100
g8
g16
sg17
I437990
sg18
I0
sg19
S'540.08618324'
p101
sg21
g35
sg22
I16
sg23
F0.80000000000000004
sg24
I5
sg25
F0.5
sg10
I00
sg26
g9
sg27
F162.0
sg28
F-144.0
sg29
I758185
sg30
I-12
sg31
I-12
sbasg36
I00
sg37
I00
sg38
I758102
sg19
S'540.14297938'
p102
sg24
I3
sba(igraph
Edge
p103
(dp104
g7
I1
sg8
g9
sg10
I00
sg11
I5
sg12
(lp105
g66
a(igraph
Vertex
p106
(dp107
g8
g16
sg17
I582720
sg18
I0
sg19
S'540.08669872'
p108
sg21
g35
sg22
I16
sg23
F0.80000000000000004
sg24
I5
sg25
F0.75
sg10
I00
sg26
g9
sg27
F162.0
sg28
F-204.0
sg29
I758187
sg30
I-12
sg31
I-12
sbasg36
I00
sg37
I00
sg38
I758103
sg19
S'540.144329672'
p109
sg24
I3
sba(igraph
Edge
p110
(dp111
g7
I1
sg8
g9
sg10
I00
sg11
I5
sg12
(lp112
g92
a(igraph
Vertex
p113
(dp114
g8
g16
sg17
I285281
sg18
I0
sg19
S'540.088332811'
p115
sg21
g35
sg22
I16
sg23
F1.0
sg24
I5
sg25
F0.25
sg10
I00
sg26
g9
sg27
F222.0
sg28
F-84.0
sg29
I758189
sg30
I-12
sg31
I-12
sbasg36
I00
sg37
I00
sg38
I758104
sg19
S'540.154694232'
p116
sg24
I3
sba(igraph
Edge
p117
(dp118
g7
I1
sg8
g9
sg10
I00
sg11
I5
sg12
(lp119
g99
a(igraph
Vertex
p120
(dp121
g8
g16
sg17
I285284
sg18
I0
sg19
S'540.088898038'
p122
sg21
g35
sg22
I16
sg23
F1.0
sg24
I5
sg25
F0.5
sg10
I00
sg26
g9
sg27
F222.0
sg28
F-144.0
sg29
I758191
sg30
I-12
sg31
I-12
sbasg36
I00
sg37
I00
sg38
I758105
sg19
S'540.156256781'
p123
sg24
I3
sba(igraph
Edge
p124
(dp125
g7
I1
sg8
g9
sg10
I00
sg11
I5
sg12
(lp126
g106
a(igraph
Vertex
p127
(dp128
g8
g16
sg17
I285287
sg18
I0
sg19
S'540.089466582'
p129
sg21
g35
sg22
I16
sg23
F1.0
sg24
I5
sg25
F0.75
sg10
I00
sg26
g9
sg27
F222.0
sg28
F-204.0
sg29
I758193
sg30
I-12
sg31
I-12
sbasg36
I00
sg37
I00
sg38
I758106
sg19
S'540.157803695'
p130
sg24
I3
sba(igraph
Edge
p131
(dp132
g7
I1
sg8
g9
sg10
I00
sg11
I5
sg12
(lp133
g85
ag113
asg36
I00
sg37
I00
sg38
I758107
sg19
S'540.160840668'
p134
sg24
I3
sba(igraph
Edge
p135
(dp136
g7
I1
sg8
g9
sg10
I00
sg11
I5
sg12
(lp137
g92
ag120
asg36
I00
sg37
I00
sg38
I758108
sg19
S'540.162395163'
p138
sg24
I3
sba(igraph
Edge
p139
(dp140
g7
I1
sg8
g9
sg10
I00
sg11
I5
sg12
(lp141
g99
ag127
asg36
I00
sg37
I00
sg38
I758109
sg19
S'540.163979506'
p142
sg24
I3
sba(igraph
Edge
p143
(dp144
g7
I1
sg8
g9
sg10
I00
sg11
I5
sg12
(lp145
(igraph
Vertex
p146
(dp147
g8
g16
sg17
I758196
sg10
I00
sg21
I0
sg18
I0
sg29
I758195
sg31
I-12
sg27
F42.0
sg28
F100.0
sg22
I16
sg26
g9
sg19
S'954.528852668'
p148
sg30
I-12
sg24
I5
sba(igraph
Vertex
p149
(dp150
g8
g16
sg17
I736823
sg10
I00
sg21
g35
sg18
I0
sg29
I758201
sg31
I-12
sg27
F102.0
sg28
F100.0
sg22
I16
sg26
g9
sg19
S'954.531050092'
p151
sg30
I-12
sg24
I5
sbasg36
I00
sg37
I00
sg38
I758110
sg19
S'954.547878525'
p152
sg24
I3
sba(igraph
Edge
p153
(dp154
g7
I1
sg8
g9
sg10
I00
sg11
I5
sg12
(lp155
(igraph
Vertex
p156
(dp157
g8
g16
sg17
I758199
sg10
I00
sg21
I0
sg18
I0
sg29
I758198
sg31
I-12
sg27
F42.0
sg28
F40.0
sg22
I16
sg26
g9
sg19
S'954.529258704'
p158
sg30
I-12
sg24
I5
sba(igraph
Vertex
p159
(dp160
g8
g16
sg17
I736826
sg10
I00
sg21
g35
sg18
I0
sg29
I758203
sg31
I-12
sg27
F102.0
sg28
F40.0
sg22
I16
sg26
g9
sg19
S'954.531514876'
p161
sg30
I-12
sg24
I5
sbasg36
I00
sg37
I00
sg38
I758111
sg19
S'954.548685384'
p162
sg24
I3
sba(igraph
Edge
p163
(dp164
g7
I1
sg8
g9
sg10
I00
sg11
I5
sg12
(lp165
g146
ag159
asg36
I00
sg37
I00
sg38
I758112
sg19
S'954.552000944'
p166
sg24
I3
sba(igraph
Edge
p167
(dp168
g7
I1
sg8
g9
sg10
I00
sg11
I5
sg12
(lp169
g149
a(igraph
Vertex
p170
(dp171
g8
g16
sg17
I438027
sg10
I00
sg21
g35
sg18
I0
sg29
I758205
sg31
I-12
sg27
F162.0
sg28
F100.0
sg22
I16
sg26
g9
sg19
S'954.533436082'
p172
sg30
I-12
sg24
I5
sbasg36
I00
sg37
I00
sg38
I758113
sg19
S'954.555566189'
p173
sg24
I3
sba(igraph
Edge
p174
(dp175
g7
I1
sg8
g9
sg10
I00
sg11
I5
sg12
(lp176
g159
a(igraph
Vertex
p177
(dp178
g8
g16
sg17
I480771
sg10
I00
sg21
g35
sg18
I0
sg29
I758207
sg31
I-12
sg27
F162.0
sg28
F40.0
sg22
I16
sg26
g9
sg19
S'954.533927873'
p179
sg30
I-12
sg24
I5
sbasg36
I00
sg37
I00
sg38
I758114
sg19
S'954.556494338'
p180
sg24
I3
sba(igraph
Edge
p181
(dp182
g7
I1
sg8
g9
sg10
I00
sg11
I5
sg12
(lp183
g170
a(igraph
Vertex
p184
(dp185
g8
g16
sg17
Nsg10
I00
sg21
g35
sg18
I0
sg29
I758209
sg31
I-12
sg27
F222.0
sg28
F100.0
sg22
I16
sg26
g9
sg19
S'954.535527851'
p186
sg30
I-12
sg24
I5
sbasg36
I00
sg37
I00
sg38
I758115
sg19
S'954.559554053'
p187
sg24
I3
sba(igraph
Edge
p188
(dp189
g7
I1
sg8
g9
sg10
I00
sg11
I5
sg12
(lp190
g177
a(igraph
Vertex
p191
(dp192
g8
g16
sg17
Nsg10
I00
sg21
g35
sg18
I0
sg29
I758211
sg31
I-12
sg27
F222.0
sg28
F40.0
sg22
I16
sg26
g9
sg19
S'954.536058018'
p193
sg30
I-12
sg24
I5
sbasg36
I00
sg37
I00
sg38
I758116
sg19
S'954.560554691'
p194
sg24
I3
sba(igraph
Edge
p195
(dp196
g7
I1
sg8
g9
sg10
I00
sg11
I5
sg12
(lp197
g170
ag191
asg36
I00
sg37
I00
sg38
I758117
sg19
S'954.564869941'
p198
sg24
I3
sba(igraph
Edge
p199
(dp200
g7
I1
sg8
g9
sg10
I00
sg11
I5
sg12
(lp201
g177
a(igraph
Vertex
p202
(dp203
g8
g16
sg17
Nsg10
I00
sg21
g35
sg22
I16
sg18
I0
sg31
I-12
sg27
F220.0
sg28
F-24.0
sg29
I758213
sg26
g9
sg19
S'1020.85557652'
p204
sg30
I-12
sg24
I5
sbasg36
I00
sg37
I00
sg38
I758118
sg19
S'1020.85669371'
p205
sg24
I3
sba(igraph
Edge
p206
(dp207
g7
I1
sg8
g9
sg10
I00
sg11
I5
sg12
(lp208
g202
ag85
asg36
I00
sg37
I00
sg38
I758119
sg19
S'1024.29463806'
p209
sg24
I3
sba(igraph
Edge
p210
(dp211
g7
I1
sg8
g9
sg10
I00
sg11
I5
sg12
(lp212
g32
ag156
asg36
I00
sg37
I00
sg38
I758120
sg19
S'1053.57326165'
p213
sg24
I3
sba(igraph
Edge
p214
(dp215
g7
I1
sg8
g9
sg10
I00
sg11
I5
sg12
(lp216
(igraph
Vertex
p217
(dp218
g8
g16
sg17
I692431
sg10
I00
sg21
g35
sg22
I16
sg18
I0
sg31
I-12
sg27
F-70.0
sg28
F-24.0
sg29
I758215
sg26
g9
sg19
S'2255.84363283'
p219
sg30
I-12
sg24
I5
sba(igraph
Vertex
p220
(dp221
g8
g16
sg17
I515998
sg10
I00
sg21
g35
sg22
I16
sg18
I0
sg31
I-12
sg27
F-10.0
sg28
F-24.0
sg29
I758221
sg26
g9
sg19
S'2255.84491395'
p222
sg30
I-12
sg24
I5
sbasg36
I00
sg37
I00
sg38
I758121
sg19
S'2255.84960254'
p223
sg24
I3
sba(igraph
Edge
p224
(dp225
g7
I1
sg8
g9
sg10
I00
sg11
I5
sg12
(lp226
(igraph
Vertex
p227
(dp228
g8
g16
sg17
I692434
sg10
I00
sg21
g35
sg22
I16
sg18
I0
sg31
I-12
sg27
F-70.0
sg28
F-84.0
sg29
I758217
sg26
g9
sg19
S'2255.84395216'
p229
sg30
I-12
sg24
I5
sba(igraph
Vertex
p230
(dp231
g8
g16
sg17
Nsg10
I00
sg21
g35
sg22
I16
sg18
I0
sg31
I-12
sg27
F-10.0
sg28
F-84.0
sg29
I758223
sg26
g9
sg19
S'2255.84525413'
p232
sg30
I-12
sg24
I5
sbasg36
I00
sg37
I00
sg38
I758122
sg19
S'2255.85017867'
p233
sg24
I3
sba(igraph
Edge
p234
(dp235
g7
I1
sg8
g9
sg10
I00
sg11
I5
sg12
(lp236
(igraph
Vertex
p237
(dp238
g8
g16
sg17
I692437
sg10
I00
sg21
g35
sg22
I16
sg18
I0
sg31
I-12
sg27
F-70.0
sg28
F-144.0
sg29
I758219
sg26
g9
sg19
S'2255.84426628'
p239
sg30
I-12
sg24
I5
sba(igraph
Vertex
p240
(dp241
g8
g16
sg17
I516004
sg10
I00
sg21
g35
sg22
I16
sg18
I0
sg31
I-12
sg27
F-10.0
sg28
F-144.0
sg29
I758225
sg26
g9
sg19
S'2255.84559999'
p242
sg30
I-12
sg24
I5
sbasg36
I00
sg37
I00
sg38
I758123
sg19
S'2255.850769'
p243
sg24
I3
sba(igraph
Edge
p244
(dp245
g7
I1
sg8
g9
sg10
I00
sg11
I5
sg12
(lp246
g217
ag230
asg36
I00
sg37
I00
sg38
I758124
sg19
S'2255.85199801'
p247
sg24
I3
sba(igraph
Edge
p248
(dp249
g7
I1
sg8
g9
sg10
I00
sg11
I5
sg12
(lp250
g227
ag240
asg36
I00
sg37
I00
sg38
I758125
sg19
S'2255.85264804'
p251
sg24
I3
sba(igraph
Edge
p252
(dp253
g7
I1
sg8
g9
sg10
I00
sg11
I5
sg12
(lp254
g237
a(igraph
Vertex
p255
(dp256
g8
g16
sg17
Nsg10
I00
sg21
g35
sg22
I16
sg18
I0
sg31
I-12
sg27
F-10.0
sg28
F-204.0
sg29
I758227
sg26
g9
sg19
S'2255.84596007'
p257
sg30
I-12
sg24
I5
sbasg36
I00
sg37
I00
sg38
I758126
sg19
S'2255.85331513'
p258
sg24
I3
sba(igraph
Edge
p259
(dp260
g7
I1
sg8
g9
sg10
I00
sg11
I5
sg12
(lp261
(igraph
Vertex
p262
(dp263
g8
g16
sg17
I692453
sg10
I00
sg21
g35
sg22
I16
sg18
I0
sg31
I-12
sg27
F-70.0
sg28
F100.0
sg29
I758229
sg26
g9
sg19
S'2255.84716443'
p264
sg30
I-12
sg24
I5
sba(igraph
Vertex
p265
(dp266
g8
g16
sg17
I516022
sg10
I00
sg21
g35
sg22
I16
sg18
I0
sg31
I-12
sg27
F-10.0
sg28
F100.0
sg29
I758233
sg26
g9
sg19
S'2255.84837733'
p267
sg30
I-12
sg24
I5
sbasg36
I00
sg37
I00
sg38
I758127
sg19
S'2255.85537753'
p268
sg24
I3
sba(igraph
Edge
p269
(dp270
g7
I1
sg8
g9
sg10
I00
sg11
I5
sg12
(lp271
(igraph
Vertex
p272
(dp273
g8
g16
sg17
I692456
sg10
I00
sg21
g35
sg22
I16
sg18
I0
sg31
I-12
sg27
F-70.0
sg28
F40.0
sg29
I758231
sg26
g9
sg19
S'2255.84755626'
p274
sg30
I-12
sg24
I5
sba(igraph
Vertex
p275
(dp276
g8
g16
sg17
Nsg10
I00
sg21
g35
sg22
I16
sg18
I0
sg31
I-12
sg27
F-10.0
sg28
F40.0
sg29
I758235
sg26
g9
sg19
S'2255.84880374'
p277
sg30
I-12
sg24
I5
sbasg36
I00
sg37
I00
sg38
I758128
sg19
S'2255.85607826'
p278
sg24
I3
sba(igraph
Edge
p279
(dp280
g7
I1
sg8
g9
sg10
I00
sg11
I5
sg12
(lp281
g262
ag275
asg36
I00
sg37
I00
sg38
I758129
sg19
S'2255.85752757'
p282
sg24
I3
sba(igraph
Edge
p283
(dp284
g7
I1
sg8
g9
sg10
I00
sg11
I5
sg12
(lp285
g220
ag272
asg36
I00
sg37
I00
sg38
I758130
sg19
S'2255.8582989'
p286
sg24
I3
sba(igraph
Edge
p287
(dp288
g7
I1
sg8
g9
sg10
I00
sg11
I5
sg12
(lp289
g255
ag63
asg36
I00
sg37
I00
sg38
I758131
sg19
S'2265.87005686'
p290
sg24
I3
sba(igraph
Edge
p291
(dp292
g7
I1
sg8
g9
sg10
I00
sg11
I5
sg12
(lp293
g240
ag53
asg36
I00
sg37
I00
sg38
I758132
sg19
S'2268.82388776'
p294
sg24
I3
sba(igraph
Edge
p295
(dp296
g7
I1
sg8
g9
sg10
I00
sg11
I5
sg12
(lp297
g230
ag43
asg36
I00
sg37
I00
sg38
I758133
sg19
S'2271.56554509'
p298
sg24
I3
sba(igraph
Edge
p299
(dp300
g7
I1
sg8
g9
sg10
I00
sg11
I5
sg12
(lp301
g220
ag14
asg36
I00
sg37
I00
sg38
I758134
sg19
S'2274.59299677'
p302
sg24
I3
sba(igraph
Edge
p303
(dp304
g7
I1
sg8
g9
sg10
I00
sg11
I5
sg12
(lp305
g275
ag156
asg36
I00
sg37
I00
sg38
I758135
sg19
S'2276.69457429'
p306
sg24
I3
sba(igraph
Edge
p307
(dp308
g7
I1
sg8
g9
sg10
I00
sg11
I5
sg12
(lp309
g265
ag146
asg36
I00
sg37
I00
sg38
I758136
sg19
S'2279.63360124'
p310
sg24
I3
sba(igraph
Edge
p311
(dp312
g7
I1
sg8
g9
sg10
I00
sg11
I5
sg12
(lp313
(igraph
Vertex
p314
(dp315
g8
g16
sg17
I758238
sg10
I00
sg21
I0
sg18
I0
sg29
I758237
sg31
I-12
sg27
F41.75
sg28
F166.25
sg22
I16
sg26
g9
sg19
S'4860.51671425'
p316
sg30
I-12
sg24
I5
sba(igraph
Vertex
p317
(dp318
g8
g16
sg17
I736869
sg10
I00
sg21
g35
sg18
I0
sg29
I758240
sg31
I-12
sg27
F101.75
sg28
F166.25
sg22
I16
sg26
g9
sg19
S'4860.51735528'
p319
sg30
I-12
sg24
I5
sbasg36
I00
sg37
I00
sg38
I758137
sg19
S'4860.53386391'
p320
sg24
I3
sba(igraph
Edge
p321
(dp322
g7
I1
sg8
g9
sg10
I00
sg11
I5
sg12
(lp323
g317
a(igraph
Vertex
p324
(dp325
g8
g16
sg17
Nsg10
I00
sg21
g35
sg18
I0
sg29
I758242
sg31
I-12
sg27
F161.75
sg28
F166.25
sg22
I16
sg26
g9
sg19
S'4860.51791341'
p326
sg30
I-12
sg24
I5
sbasg36
I00
sg37
I00
sg38
I758138
sg19
S'4860.53515309'
p327
sg24
I3
sba(igraph
Edge
p328
(dp329
g7
I1
sg8
g9
sg10
I00
sg11
I5
sg12
(lp330
(igraph
Vertex
p331
(dp332
g8
g16
sg17
Nsg10
I00
sg21
g35
sg18
I0
sg29
I758244
sg31
I-12
sg27
F41.75
sg28
F290.25
sg22
I16
sg26
g9
sg19
S'4860.51856865'
p333
sg30
I-12
sg24
I5
sba(igraph
Vertex
p334
(dp335
g8
g16
sg17
I736878
sg10
I00
sg21
g35
sg18
I0
sg29
I758249
sg31
I-12
sg27
F101.75
sg28
F290.25
sg22
I16
sg26
g9
sg19
S'4860.51976639'
p336
sg30
I-12
sg24
I5
sbasg36
I00
sg37
I00
sg38
I758139
sg19
S'4860.53629681'
p337
sg24
I3
sba(igraph
Edge
p338
(dp339
g7
I1
sg8
g9
sg10
I00
sg11
I5
sg12
(lp340
(igraph
Vertex
p341
(dp342
g8
g16
sg17
I758247
sg10
I00
sg21
I0
sg18
I0
sg29
I758246
sg31
I-12
sg27
F41.75
sg28
F230.25
sg22
I16
sg26
g9
sg19
S'4860.51918694'
p343
sg30
I-12
sg24
I5
sba(igraph
Vertex
p344
(dp345
g8
g16
sg17
I736881
sg10
I00
sg21
g35
sg18
I0
sg29
I758251
sg31
I-12
sg27
F101.75
sg28
F230.25
sg22
I16
sg26
g9
sg19
S'4860.52036478'
p346
sg30
I-12
sg24
I5
sbasg36
I00
sg37
I00
sg38
I758140
sg19
S'4860.53748649'
p347
sg24
I3
sba(igraph
Edge
p348
(dp349
g7
I1
sg8
g9
sg10
I00
sg11
I5
sg12
(lp350
g331
ag344
asg36
I00
sg37
I00
sg38
I758141
sg19
S'4860.53867995'
p351
sg24
I3
sba(igraph
Edge
p352
(dp353
g7
I1
sg8
g9
sg10
I00
sg11
I5
sg12
(lp354
g334
a(igraph
Vertex
p355
(dp356
g8
g16
sg17
I758254
sg10
I00
sg21
I0
sg18
I0
sg29
I758253
sg31
I-12
sg27
F161.75
sg28
F290.25
sg22
I16
sg26
g9
sg19
S'4860.52096838'
p357
sg30
I-12
sg24
I5
sbasg36
I00
sg37
I00
sg38
I758142
sg19
S'4860.53992507'
p358
sg24
I3
sba(igraph
Edge
p359
(dp360
g7
I1
sg8
g9
sg10
I00
sg11
I5
sg12
(lp361
g344
a(igraph
Vertex
p362
(dp363
g8
g16
sg17
Nsg10
I00
sg21
g35
sg18
I0
sg29
I758256
sg31
I-12
sg27
F161.75
sg28
F230.25
sg22
I16
sg26
g9
sg19
S'4860.52157199'
p364
sg30
I-12
sg24
I5
sbasg36
I00
sg37
I00
sg38
I758143
sg19
S'4860.54140091'
p365
sg24
I3
sba(igraph
Edge
p366
(dp367
g7
I1
sg8
g9
sg10
I00
sg11
I5
sg12
(lp368
g362
a(igraph
Vertex
p369
(dp370
g8
g16
sg17
Nsg10
I00
sg21
g35
sg18
I0
sg29
I758258
sg31
I-12
sg27
F221.75
sg28
F230.25
sg22
I16
sg26
g9
sg19
S'4860.5229256'
p371
sg30
I-12
sg24
I5
sbasg36
I00
sg37
I00
sg38
I758144
sg19
S'4860.54390582'
p372
sg24
I3
sba(igraph
Edge
p373
(dp374
g7
I1
sg8
g9
sg10
I00
sg11
I5
sg12
(lp375
g355
ag369
asg36
I00
sg37
I00
sg38
I758145
sg19
S'4860.54512867'
p376
sg24
I3
sba(igraph
Edge
p377
(dp378
g7
I1
sg8
g9
sg10
I00
sg11
I5
sg12
(lp379
g362
a(igraph
Vertex
p380
(dp381
g8
g16
sg17
Nsg10
I00
sg21
g35
sg18
I0
sg29
I758260
sg31
I-12
sg27
F219.75
sg28
F166.25
sg22
I16
sg26
g9
sg19
S'4860.52360595'
p382
sg30
I-12
sg24
I5
sbasg36
I00
sg37
I00
sg38
I758146
sg19
S'4860.54640363'
p383
sg24
I3
sba(igraph
Edge
p384
(dp385
g7
I1
sg8
g9
sg10
I00
sg11
I5
sg12
(lp386
g380
ag324
asg36
I00
sg37
I00
sg38
I758147
sg19
S'4860.54765964'
p387
sg24
I3
sba(igraph
Edge
p388
(dp389
g7
I1
sg8
g9
sg10
I00
sg11
I5
sg12
(lp390
g317
ag341
asg36
I00
sg37
I00
sg38
I758148
sg19
S'4860.54896018'
p391
sg24
I3
sba(igraph
Edge
p392
(dp393
g7
I1
sg8
g9
sg10
I00
sg11
I5
sg12
(lp394
(igraph
Vertex
p395
(dp396
g8
g16
sg17
I692490
sg10
I00
sg21
g35
sg18
I0
sg29
I758262
sg31
I-12
sg27
F-70.25
sg28
F166.25
sg22
I16
sg26
g9
sg19
S'4860.52433227'
p397
sg30
I-12
sg24
I5
sba(igraph
Vertex
p398
(dp399
g8
g16
sg17
Nsg10
I00
sg21
g35
sg18
I0
sg29
I758264
sg31
I-12
sg27
F-10.25
sg28
F166.25
sg22
I16
sg26
g9
sg19
S'4860.5250041'
p400
sg30
I-12
sg24
I5
sbasg36
I00
sg37
I00
sg38
I758149
sg19
S'4860.55029531'
p401
sg24
I3
sba(igraph
Edge
p402
(dp403
g7
I1
sg8
g9
sg10
I00
sg11
I5
sg12
(lp404
(igraph
Vertex
p405
(dp406
g8
g16
sg17
I692495
sg10
I00
sg21
g35
sg18
I0
sg29
I758266
sg31
I-12
sg27
F-70.25
sg28
F290.25
sg22
I16
sg26
g9
sg19
S'4860.52567356'
p407
sg30
I-12
sg24
I5
sba(igraph
Vertex
p408
(dp409
g8
g16
sg17
Nsg10
I00
sg21
g35
sg18
I0
sg29
I758270
sg31
I-12
sg27
F-10.25
sg28
F290.25
sg22
I16
sg26
g9
sg19
S'4860.5272091'
p410
sg30
I-12
sg24
I5
sbasg36
I00
sg37
I00
sg38
I758150
sg19
S'4860.55158306'
p411
sg24
I3
sba(igraph
Edge
p412
(dp413
g7
I1
sg8
g9
sg10
I00
sg11
I5
sg12
(lp414
(igraph
Vertex
p415
(dp416
g8
g16
sg17
I692498
sg10
I00
sg21
g35
sg18
I0
sg29
I758268
sg31
I-12
sg27
F-70.25
sg28
F230.25
sg22
I16
sg26
g9
sg19
S'4860.52641646'
p417
sg30
I-12
sg24
I5
sba(igraph
Vertex
p418
(dp419
g8
g16
sg17
Nsg10
I00
sg21
g35
sg18
I0
sg29
I758272
sg31
I-12
sg27
F-10.25
sg28
F230.25
sg22
I16
sg26
g9
sg19
S'4860.52797569'
p420
sg30
I-12
sg24
I5
sbasg36
I00
sg37
I00
sg38
I758151
sg19
S'4860.55289924'
p421
sg24
I3
sba(igraph
Edge
p422
(dp423
g7
I1
sg8
g9
sg10
I00
sg11
I5
sg12
(lp424
g405
ag418
asg36
I00
sg37
I00
sg38
I758152
sg19
S'4860.55423485'
p425
sg24
I3
sba(igraph
Edge
p426
(dp427
g7
I1
sg8
g9
sg10
I00
sg11
I5
sg12
(lp428
g398
ag415
asg36
I00
sg37
I00
sg38
I758153
sg19
S'4860.55556666'
p429
sg24
I3
sba(igraph
Edge
p430
(dp431
g7
I1
sg8
g9
sg10
I00
sg11
I5
sg12
(lp432
g398
ag314
asg36
I00
sg37
I00
sg38
I758154
sg19
S'4860.55693259'
p433
sg24
I3
sba(igraph
Edge
p434
(dp435
g7
I1
sg8
g9
sg10
I00
sg11
I5
sg12
(lp436
g418
ag341
asg36
I00
sg37
I00
sg38
I758155
sg19
S'4860.558561'
p437
sg24
I3
sba(igraph
Edge
p438
(dp439
g7
I1
sg8
g9
sg10
I00
sg11
I5
sg12
(lp440
g408
ag331
asg36
I00
sg37
I00
sg38
I758156
sg19
S'4860.55994919'
p441
sg24
I3
sba(igraph
Edge
p442
(dp443
g7
I1
sg8
g9
sg10
I00
sg11
I5
sg12
(lp444
g184
ag324
asg36
I00
sg37
I00
sg38
I758157
sg19
S'4874.11191081'
p445
sg24
I3
sba(igraph
Edge
p446
(dp447
g7
I1
sg8
g9
sg10
I00
sg11
I5
sg12
(lp448
g149
ag314
asg36
I00
sg37
I00
sg38
I758158
sg19
S'4881.4580566'
p449
sg24
I3
sba(igraph
Edge
p450
(dp451
g7
I1
sg8
g9
sg10
I00
sg11
I5
sg12
(lp452
g395
ag265
asg36
I00
sg37
I00
sg38
I758159
sg19
S'4888.94124238'
p453
sg24
I3
sbasS'vertices'
p454
(lp455
g14
ag43
ag53
ag63
ag32
ag46
ag56
ag66
ag85
ag92
ag99
ag106
ag113
ag120
ag127
ag146
ag156
ag149
ag159
ag170
ag177
ag184
ag191
ag202
ag217
ag227
ag237
ag220
ag230
ag240
ag255
ag262
ag272
ag265
ag275
ag314
ag317
ag324
ag331
ag341
ag334
ag344
ag355
ag362
ag369
ag380
ag395
ag398
ag405
ag415
ag408
ag418
asS'tags'
p456
(lp457
sb.