(igraph
Graph
p0
(dp1
S'labelingConstraints'
p2
I-1
sS'edges'
p3
(lp4
(igraph
Edge
p5
(dp6
S'direction'
p7
I1
sS'color'
p8
S'black'
p9
sS'selected'
p10
I00
sS'height'
p11
I5
sS'vs'
p12
(lp13
(igraph
Vertex
p14
(dp15
g8
S'#ffffff'
p16
sS'text'
p17
I582692
sS'shape'
p18
I0
sS'id'
p19
S'540.080602979'
p20
sS'label'
p21
S'NULL'
p22
sS'lsize'
p23
I16
sS'ynorm'
p24
F0.40000000000000002
sS'size'
p25
I5
sS'xnorm'
p26
F0.0
sg10
I00
sS'lcolor'
p27
g9
sS'y'
p28
F40.0
sS'x'
p29
F-4.0
sS'circle'
p30
I665958
sS'lx'
p31
I-12
sS'ly'
p32
I-12
sba(igraph
Vertex
p33
(dp34
g8
g16
sg17
I285248
sg18
I0
sg19
S'540.082797559'
p35
sg21
g22
sg23
I16
sg24
F0.59999999999999998
sg25
I5
sg26
F0.0
sg10
I00
sg27
g9
sg28
F100.0
sg29
F-4.0
sg30
I665966
sg31
I-12
sg32
I-12
sbasS'wrap'
p36
I00
sS'curved'
p37
I00
sS'line'
p38
I665875
sg19
S'540.128793256'
p39
sg25
I3
sba(igraph
Edge
p40
(dp41
g7
I1
sg8
g9
sg10
I00
sg11
I5
sg12
(lp42
(igraph
Vertex
p43
(dp44
g8
g16
sg17
I419364
sg18
I0
sg19
S'540.081060183'
p45
sg21
g22
sg23
I16
sg24
F0.40000000000000002
sg25
I5
sg26
F0.25
sg10
I00
sg27
g9
sg28
F40.0
sg29
F-64.0
sg30
I665960
sg31
I-12
sg32
I-12
sba(igraph
Vertex
p46
(dp47
g8
g16
sg17
I665969
sg18
I0
sg19
S'540.083248131'
p48
sg21
I0
sg23
I16
sg24
F0.59999999999999998
sg25
I5
sg26
F0.25
sg10
I00
sg27
g9
sg28
F100.0
sg29
F-64.0
sg30
I665968
sg31
I-12
sg32
I-12
sbasg36
I00
sg37
I00
sg38
I665876
sg19
S'540.130000464'
p49
sg25
I3
sba(igraph
Edge
p50
(dp51
g7
I1
sg8
g9
sg10
I00
sg11
I5
sg12
(lp52
(igraph
Vertex
p53
(dp54
g8
g16
sg17
I285238
sg18
I0
sg19
S'540.081470956'
p55
sg21
g22
sg23
I16
sg24
F0.40000000000000002
sg25
I5
sg26
F0.5
sg10
I00
sg27
g9
sg28
F40.0
sg29
F-124.0
sg30
I665962
sg31
I-12
sg32
I-12
sba(igraph
Vertex
p56
(dp57
g8
g16
sg17
I582706
sg18
I0
sg19
S'540.083699649'
p58
sg21
g22
sg23
I16
sg24
F0.59999999999999998
sg25
I5
sg26
F0.5
sg10
I00
sg27
g9
sg28
F100.0
sg29
F-124.0
sg30
I665971
sg31
I-12
sg32
I-12
sbasg36
I00
sg37
I00
sg38
I665877
sg19
S'540.131266896'
p59
sg25
I3
sba(igraph
Edge
p60
(dp61
g7
I1
sg8
g9
sg10
I00
sg11
I5
sg12
(lp62
(igraph
Vertex
p63
(dp64
g8
g16
sg17
I582699
sg18
I0
sg19
S'540.08190684'
p65
sg21
g22
sg23
I16
sg24
F0.40000000000000002
sg25
I5
sg26
F0.75
sg10
I00
sg27
g9
sg28
F40.0
sg29
F-184.0
sg30
I665964
sg31
I-12
sg32
I-12
sba(igraph
Vertex
p66
(dp67
g8
g16
sg17
I665974
sg18
I0
sg19
S'540.084193809'
p68
sg21
I0
sg23
I16
sg24
F0.59999999999999998
sg25
I5
sg26
F0.75
sg10
I00
sg27
g9
sg28
F100.0
sg29
F-184.0
sg30
I665973
sg31
I-12
sg32
I-12
sbasg36
I00
sg37
I00
sg38
I665878
sg19
S'540.132514377'
p69
sg25
I3
sba(igraph
Edge
p70
(dp71
g7
I1
sg8
g9
sg10
I00
sg11
I5
sg12
(lp72
g14
ag46
asg36
I00
sg37
I00
sg38
I665879
sg19
S'540.135057191'
p73
sg25
I3
sba(igraph
Edge
p74
(dp75
g7
I1
sg8
g9
sg10
I00
sg11
I5
sg12
(lp76
g43
ag56
asg36
I00
sg37
I00
sg38
I665880
sg19
S'540.13633452'
p77
sg25
I3
sba(igraph
Edge
p78
(dp79
g7
I1
sg8
g9
sg10
I00
sg11
I5
sg12
(lp80
g53
ag66
asg36
I00
sg37
I00
sg38
I665881
sg19
S'540.137608059'
p81
sg25
I3
sba(igraph
Edge
p82
(dp83
g7
I1
sg8
g9
sg10
I00
sg11
I5
sg12
(lp84
g63
a(igraph
Vertex
p85
(dp86
g8
g16
sg17
I285260
sg18
I0
sg19
S'540.084667596'
p87
sg21
g22
sg23
I16
sg24
F0.59999999999999998
sg25
I5
sg26
F1.0
sg10
I00
sg27
g9
sg28
F100.0
sg29
F-244.0
sg30
I665976
sg31
I-12
sg32
I-12
sbasg36
I00
sg37
I00
sg38
I665882
sg19
S'540.138904813'
p88
sg25
I3
sba(igraph
Edge
p89
(dp90
g7
I1
sg8
g9
sg10
I00
sg11
I5
sg12
(lp91
g33
a(igraph
Vertex
p92
(dp93
g8
g16
sg17
I582713
sg18
I0
sg19
S'540.08516981'
p94
sg21
g22
sg23
I16
sg24
F0.80000000000000004
sg25
I5
sg26
F0.0
sg10
I00
sg27
g9
sg28
F160.0
sg29
F-4.0
sg30
I665978
sg31
I-12
sg32
I-12
sbasg36
I00
sg37
I00
sg38
I665883
sg19
S'540.140227152'
p95
sg25
I3
sba(igraph
Edge
p96
(dp97
g7
I1
sg8
g9
sg10
I00
sg11
I5
sg12
(lp98
g46
a(igraph
Vertex
p99
(dp100
g8
g16
sg17
I480736
sg18
I0
sg19
S'540.085673919'
p101
sg21
g22
sg23
I16
sg24
F0.80000000000000004
sg25
I5
sg26
F0.25
sg10
I00
sg27
g9
sg28
F160.0
sg29
F-64.0
sg30
I665980
sg31
I-12
sg32
I-12
sbasg36
I00
sg37
I00
sg38
I665884
sg19
S'540.141569864'
p102
sg25
I3
sba(igraph
Edge
p103
(dp104
g7
I1
sg8
g9
sg10
I00
sg11
I5
sg12
(lp105
g56
a(igraph
Vertex
p106
(dp107
g8
g16
sg17
I437990
sg18
I0
sg19
S'540.08618324'
p108
sg21
g22
sg23
I16
sg24
F0.80000000000000004
sg25
I5
sg26
F0.5
sg10
I00
sg27
g9
sg28
F160.0
sg29
F-124.0
sg30
I665982
sg31
I-12
sg32
I-12
sbasg36
I00
sg37
I00
sg38
I665885
sg19
S'540.14297938'
p109
sg25
I3
sba(igraph
Edge
p110
(dp111
g7
I1
sg8
g9
sg10
I00
sg11
I5
sg12
(lp112
g66
a(igraph
Vertex
p113
(dp114
g8
g16
sg17
I582720
sg18
I0
sg19
S'540.08669872'
p115
sg21
g22
sg23
I16
sg24
F0.80000000000000004
sg25
I5
sg26
F0.75
sg10
I00
sg27
g9
sg28
F160.0
sg29
F-184.0
sg30
I665984
sg31
I-12
sg32
I-12
sbasg36
I00
sg37
I00
sg38
I665886
sg19
S'540.144329672'
p116
sg25
I3
sba(igraph
Edge
p117
(dp118
g7
I1
sg8
g9
sg10
I00
sg11
I5
sg12
(lp119
g85
a(igraph
Vertex
p120
(dp121
g8
g16
sg17
I437995
sg18
I0
sg19
S'540.087250682'
p122
sg21
g22
sg23
I16
sg24
F0.80000000000000004
sg25
I5
sg26
F1.0
sg10
I00
sg27
g9
sg28
F160.0
sg29
F-244.0
sg30
I665986
sg31
I-12
sg32
I-12
sbasg36
I00
sg37
I00
sg38
I665887
sg19
S'540.145697021'
p123
sg25
I3
sba(igraph
Edge
p124
(dp125
g7
I1
sg8
g9
sg10
I00
sg11
I5
sg12
(lp126
g99
a(igraph
Vertex
p127
(dp128
g8
g16
sg17
I285281
sg18
I0
sg19
S'540.088332811'
p129
sg21
g22
sg23
I16
sg24
F1.0
sg25
I5
sg26
F0.25
sg10
I00
sg27
g9
sg28
F220.0
sg29
F-64.0
sg30
I665988
sg31
I-12
sg32
I-12
sbasg36
I00
sg37
I00
sg38
I665888
sg19
S'540.154694232'
p130
sg25
I3
sba(igraph
Edge
p131
(dp132
g7
I1
sg8
g9
sg10
I00
sg11
I5
sg12
(lp133
g106
a(igraph
Vertex
p134
(dp135
g8
g16
sg17
I285284
sg18
I0
sg19
S'540.088898038'
p136
sg21
g22
sg23
I16
sg24
F1.0
sg25
I5
sg26
F0.5
sg10
I00
sg27
g9
sg28
F220.0
sg29
F-124.0
sg30
I665990
sg31
I-12
sg32
I-12
sbasg36
I00
sg37
I00
sg38
I665889
sg19
S'540.156256781'
p137
sg25
I3
sba(igraph
Edge
p138
(dp139
g7
I1
sg8
g9
sg10
I00
sg11
I5
sg12
(lp140
g113
a(igraph
Vertex
p141
(dp142
g8
g16
sg17
I285287
sg18
I0
sg19
S'540.089466582'
p143
sg21
g22
sg23
I16
sg24
F1.0
sg25
I5
sg26
F0.75
sg10
I00
sg27
g9
sg28
F220.0
sg29
F-184.0
sg30
I665992
sg31
I-12
sg32
I-12
sbasg36
I00
sg37
I00
sg38
I665890
sg19
S'540.157803695'
p144
sg25
I3
sba(igraph
Edge
p145
(dp146
g7
I1
sg8
g9
sg10
I00
sg11
I5
sg12
(lp147
g120
a(igraph
Vertex
p148
(dp149
g8
g16
sg17
I285290
sg18
I0
sg19
S'540.09014315'
p150
sg21
g22
sg23
I16
sg24
F1.0
sg25
I5
sg26
F1.0
sg10
I00
sg27
g9
sg28
F220.0
sg29
F-244.0
sg30
I665994
sg31
I-12
sg32
I-12
sbasg36
I00
sg37
I00
sg38
I665891
sg19
S'540.159323129'
p151
sg25
I3
sba(igraph
Edge
p152
(dp153
g7
I1
sg8
g9
sg10
I00
sg11
I5
sg12
(lp154
g92
ag127
asg36
I00
sg37
I00
sg38
I665892
sg19
S'540.160840668'
p155
sg25
I3
sba(igraph
Edge
p156
(dp157
g7
I1
sg8
g9
sg10
I00
sg11
I5
sg12
(lp158
g99
ag134
asg36
I00
sg37
I00
sg38
I665893
sg19
S'540.162395163'
p159
sg25
I3
sba(igraph
Edge
p160
(dp161
g7
I1
sg8
g9
sg10
I00
sg11
I5
sg12
(lp162
g106
ag141
asg36
I00
sg37
I00
sg38
I665894
sg19
S'540.163979506'
p163
sg25
I3
sba(igraph
Edge
p164
(dp165
g7
I1
sg8
g9
sg10
I00
sg11
I5
sg12
(lp166
g113
ag148
asg36
I00
sg37
I00
sg38
I665895
sg19
S'540.165667608'
p167
sg25
I3
sba(igraph
Edge
p168
(dp169
g7
I1
sg8
g9
sg10
I00
sg11
I5
sg12
(lp170
(igraph
Vertex
p171
(dp172
g8
g16
sg17
I582733
sg10
I00
sg21
g22
sg18
I0
sg30
I665996
sg32
I-12
sg28
F40.0
sg29
F180.0
sg23
I16
sg27
g9
sg19
S'954.528425787'
p173
sg31
I-12
sg25
I5
sba(igraph
Vertex
p174
(dp175
g8
g16
sg17
I666003
sg10
I00
sg21
I0
sg18
I0
sg30
I666002
sg32
I-12
sg28
F100.0
sg29
F180.0
sg23
I16
sg27
g9
sg19
S'954.530590992'
p176
sg31
I-12
sg25
I5
sbasg36
I00
sg37
I00
sg38
I665896
sg19
S'954.547093934'
p177
sg25
I3
sba(igraph
Edge
p178
(dp179
g7
I1
sg8
g9
sg10
I00
sg11
I5
sg12
(lp180
(igraph
Vertex
p181
(dp182
g8
g16
sg17
I362769
sg10
I00
sg21
g22
sg18
I0
sg30
I665998
sg32
I-12
sg28
F40.0
sg29
F120.0
sg23
I16
sg27
g9
sg19
S'954.528852668'
p183
sg31
I-12
sg25
I5
sba(igraph
Vertex
p184
(dp185
g8
g16
sg17
Nsg10
I00
sg21
g22
sg18
I0
sg30
I666005
sg32
I-12
sg28
F100.0
sg29
F120.0
sg23
I16
sg27
g9
sg19
S'954.531050092'
p186
sg31
I-12
sg25
I5
sbasg36
I00
sg37
I00
sg38
I665897
sg19
S'954.547878525'
p187
sg25
I3
sba(igraph
Edge
p188
(dp189
g7
I1
sg8
g9
sg10
I00
sg11
I5
sg12
(lp190
(igraph
Vertex
p191
(dp192
g8
g16
sg17
I419416
sg10
I00
sg21
g22
sg18
I0
sg30
I666000
sg32
I-12
sg28
F40.0
sg29
F60.0
sg23
I16
sg27
g9
sg19
S'954.529258704'
p193
sg31
I-12
sg25
I5
sba(igraph
Vertex
p194
(dp195
g8
g16
sg17
I666008
sg10
I00
sg21
I0
sg18
I0
sg30
I666007
sg32
I-12
sg28
F100.0
sg29
F60.0
sg23
I16
sg27
g9
sg19
S'954.531514876'
p196
sg31
I-12
sg25
I5
sbasg36
I00
sg37
I00
sg38
I665898
sg19
S'954.548685384'
p197
sg25
I3
sba(igraph
Edge
p198
(dp199
g7
I1
sg8
g9
sg10
I00
sg11
I5
sg12
(lp200
g171
ag184
asg36
I00
sg37
I00
sg38
I665899
sg19
S'954.551159025'
p201
sg25
I3
sba(igraph
Edge
p202
(dp203
g7
I1
sg8
g9
sg10
I00
sg11
I5
sg12
(lp204
g181
ag194
asg36
I00
sg37
I00
sg38
I665900
sg19
S'954.552000944'
p205
sg25
I3
sba(igraph
Edge
p206
(dp207
g7
I1
sg8
g9
sg10
I00
sg11
I5
sg12
(lp208
g174
a(igraph
Vertex
p209
(dp210
g8
g16
sg17
I582747
sg10
I00
sg21
g22
sg18
I0
sg30
I666010
sg32
I-12
sg28
F160.0
sg29
F180.0
sg23
I16
sg27
g9
sg19
S'954.532951872'
p211
sg31
I-12
sg25
I5
sbasg36
I00
sg37
I00
sg38
I665901
sg19
S'954.554652728'
p212
sg25
I3
sba(igraph
Edge
p213
(dp214
g7
I1
sg8
g9
sg10
I00
sg11
I5
sg12
(lp215
g184
a(igraph
Vertex
p216
(dp217
g8
g16
sg17
I438027
sg10
I00
sg21
g22
sg18
I0
sg30
I666012
sg32
I-12
sg28
F160.0
sg29
F120.0
sg23
I16
sg27
g9
sg19
S'954.533436082'
p218
sg31
I-12
sg25
I5
sbasg36
I00
sg37
I00
sg38
I665902
sg19
S'954.555566189'
p219
sg25
I3
sba(igraph
Edge
p220
(dp221
g7
I1
sg8
g9
sg10
I00
sg11
I5
sg12
(lp222
g194
a(igraph
Vertex
p223
(dp224
g8
g16
sg17
I480771
sg10
I00
sg21
g22
sg18
I0
sg30
I666014
sg32
I-12
sg28
F160.0
sg29
F60.0
sg23
I16
sg27
g9
sg19
S'954.533927873'
p225
sg31
I-12
sg25
I5
sbasg36
I00
sg37
I00
sg38
I665903
sg19
S'954.556494338'
p226
sg25
I3
sba(igraph
Edge
p227
(dp228
g7
I1
sg8
g9
sg10
I00
sg11
I5
sg12
(lp229
g216
a(igraph
Vertex
p230
(dp231
g8
g16
sg17
Nsg10
I00
sg21
g22
sg18
I0
sg30
I666016
sg32
I-12
sg28
F220.0
sg29
F120.0
sg23
I16
sg27
g9
sg19
S'954.535527851'
p232
sg31
I-12
sg25
I5
sbasg36
I00
sg37
I00
sg38
I665904
sg19
S'954.559554053'
p233
sg25
I3
sba(igraph
Edge
p234
(dp235
g7
I1
sg8
g9
sg10
I00
sg11
I5
sg12
(lp236
g223
a(igraph
Vertex
p237
(dp238
g8
g16
sg17
Nsg10
I00
sg21
g22
sg18
I0
sg30
I666018
sg32
I-12
sg28
F220.0
sg29
F60.0
sg23
I16
sg27
g9
sg19
S'954.536058018'
p239
sg31
I-12
sg25
I5
sbasg36
I00
sg37
I00
sg38
I665905
sg19
S'954.560554691'
p240
sg25
I3
sba(igraph
Edge
p241
(dp242
g7
I1
sg8
g9
sg10
I00
sg11
I5
sg12
(lp243
g209
ag230
asg36
I00
sg37
I00
sg38
I665906
sg19
S'954.563782126'
p244
sg25
I3
sba(igraph
Edge
p245
(dp246
g7
I1
sg8
g9
sg10
I00
sg11
I5
sg12
(lp247
g216
ag237
asg36
I00
sg37
I00
sg38
I665907
sg19
S'954.564869941'
p248
sg25
I3
sba(igraph
Edge
p249
(dp250
g7
I1
sg8
g9
sg10
I00
sg11
I5
sg12
(lp251
g223
a(igraph
Vertex
p252
(dp253
g8
g16
sg17
Nsg10
I00
sg21
g22
sg23
I16
sg18
I0
sg32
I-12
sg28
F218.0
sg29
F-4.0
sg30
I666020
sg27
g9
sg19
S'1020.85557652'
p254
sg31
I-12
sg25
I5
sbasg36
I00
sg37
I00
sg38
I665908
sg19
S'1020.85669371'
p255
sg25
I3
sba(igraph
Edge
p256
(dp257
g7
I1
sg8
g9
sg10
I00
sg11
I5
sg12
(lp258
g252
ag92
asg36
I00
sg37
I00
sg38
I665909
sg19
S'1024.29463806'
p259
sg25
I3
sba(igraph
Edge
p260
(dp261
g7
I1
sg8
g9
sg10
I00
sg11
I5
sg12
(lp262
g33
ag191
asg36
I00
sg37
I00
sg38
I665910
sg19
S'1053.57326165'
p263
sg25
I3
sba(igraph
Edge
p264
(dp265
g7
I1
sg8
g9
sg10
I00
sg11
I5
sg12
(lp266
(igraph
Vertex
p267
(dp268
g8
g16
sg17
I666023
sg10
I00
sg21
I0
sg23
I16
sg18
I0
sg32
I-12
sg28
F-72.0
sg29
F-4.0
sg30
I666022
sg27
g9
sg19
S'2255.84363283'
p269
sg31
I-12
sg25
I5
sba(igraph
Vertex
p270
(dp271
g8
g16
sg17
I515998
sg10
I00
sg21
g22
sg23
I16
sg18
I0
sg32
I-12
sg28
F-12.0
sg29
F-4.0
sg30
I666034
sg27
g9
sg19
S'2255.84491395'
p272
sg31
I-12
sg25
I5
sbasg36
I00
sg37
I00
sg38
I665911
sg19
S'2255.84960254'
p273
sg25
I3
sba(igraph
Edge
p274
(dp275
g7
I1
sg8
g9
sg10
I00
sg11
I5
sg12
(lp276
(igraph
Vertex
p277
(dp278
g8
g16
sg17
I666026
sg10
I00
sg21
I0
sg23
I16
sg18
I0
sg32
I-12
sg28
F-72.0
sg29
F-64.0
sg30
I666025
sg27
g9
sg19
S'2255.84395216'
p279
sg31
I-12
sg25
I5
sba(igraph
Vertex
p280
(dp281
g8
g16
sg17
Nsg10
I00
sg21
g22
sg23
I16
sg18
I0
sg32
I-12
sg28
F-12.0
sg29
F-64.0
sg30
I666036
sg27
g9
sg19
S'2255.84525413'
p282
sg31
I-12
sg25
I5
sbasg36
I00
sg37
I00
sg38
I665912
sg19
S'2255.85017867'
p283
sg25
I3
sba(igraph
Edge
p284
(dp285
g7
I1
sg8
g9
sg10
I00
sg11
I5
sg12
(lp286
(igraph
Vertex
p287
(dp288
g8
g16
sg17
I666029
sg10
I00
sg21
I0
sg23
I16
sg18
I0
sg32
I-12
sg28
F-72.0
sg29
F-124.0
sg30
I666028
sg27
g9
sg19
S'2255.84426628'
p289
sg31
I-12
sg25
I5
sba(igraph
Vertex
p290
(dp291
g8
g16
sg17
I516004
sg10
I00
sg21
g22
sg23
I16
sg18
I0
sg32
I-12
sg28
F-12.0
sg29
F-124.0
sg30
I666038
sg27
g9
sg19
S'2255.84559999'
p292
sg31
I-12
sg25
I5
sbasg36
I00
sg37
I00
sg38
I665913
sg19
S'2255.850769'
p293
sg25
I3
sba(igraph
Edge
p294
(dp295
g7
I1
sg8
g9
sg10
I00
sg11
I5
sg12
(lp296
(igraph
Vertex
p297
(dp298
g8
g16
sg17
I666032
sg10
I00
sg21
I0
sg23
I16
sg18
I0
sg32
I-12
sg28
F-72.0
sg29
F-184.0
sg30
I666031
sg27
g9
sg19
S'2255.84458845'
p299
sg31
I-12
sg25
I5
sba(igraph
Vertex
p300
(dp301
g8
g16
sg17
Nsg10
I00
sg21
g22
sg23
I16
sg18
I0
sg32
I-12
sg28
F-12.0
sg29
F-184.0
sg30
I666040
sg27
g9
sg19
S'2255.84596007'
p302
sg31
I-12
sg25
I5
sbasg36
I00
sg37
I00
sg38
I665914
sg19
S'2255.85137308'
p303
sg25
I3
sba(igraph
Edge
p304
(dp305
g7
I1
sg8
g9
sg10
I00
sg11
I5
sg12
(lp306
g267
ag280
asg36
I00
sg37
I00
sg38
I665915
sg19
S'2255.85199801'
p307
sg25
I3
sba(igraph
Edge
p308
(dp309
g7
I1
sg8
g9
sg10
I00
sg11
I5
sg12
(lp310
g277
ag290
asg36
I00
sg37
I00
sg38
I665916
sg19
S'2255.85264804'
p311
sg25
I3
sba(igraph
Edge
p312
(dp313
g7
I1
sg8
g9
sg10
I00
sg11
I5
sg12
(lp314
g287
ag300
asg36
I00
sg37
I00
sg38
I665917
sg19
S'2255.85331513'
p315
sg25
I3
sba(igraph
Edge
p316
(dp317
g7
I1
sg8
g9
sg10
I00
sg11
I5
sg12
(lp318
g297
a(igraph
Vertex
p319
(dp320
g8
g16
sg17
I516010
sg10
I00
sg21
g22
sg23
I16
sg18
I0
sg32
I-12
sg28
F-12.0
sg29
F-244.0
sg30
I666042
sg27
g9
sg19
S'2255.84639785'
p321
sg31
I-12
sg25
I5
sbasg36
I00
sg37
I00
sg38
I665918
sg19
S'2255.85397654'
p322
sg25
I3
sba(igraph
Edge
p323
(dp324
g7
I1
sg8
g9
sg10
I00
sg11
I5
sg12
(lp325
(igraph
Vertex
p326
(dp327
g8
g16
sg17
I666045
sg10
I00
sg21
I0
sg23
I16
sg18
I0
sg32
I-12
sg28
F-72.0
sg29
F180.0
sg30
I666044
sg27
g9
sg19
S'2255.84677735'
p328
sg31
I-12
sg25
I5
sba(igraph
Vertex
p329
(dp330
g8
g16
sg17
Nsg10
I00
sg21
g22
sg23
I16
sg18
I0
sg32
I-12
sg28
F-12.0
sg29
F180.0
sg30
I666053
sg27
g9
sg19
S'2255.84796134'
p331
sg31
I-12
sg25
I5
sbasg36
I00
sg37
I00
sg38
I665919
sg19
S'2255.85468675'
p332
sg25
I3
sba(igraph
Edge
p333
(dp334
g7
I1
sg8
g9
sg10
I00
sg11
I5
sg12
(lp335
(igraph
Vertex
p336
(dp337
g8
g16
sg17
I666048
sg10
I00
sg21
I0
sg23
I16
sg18
I0
sg32
I-12
sg28
F-72.0
sg29
F120.0
sg30
I666047
sg27
g9
sg19
S'2255.84716443'
p338
sg31
I-12
sg25
I5
sba(igraph
Vertex
p339
(dp340
g8
g16
sg17
I516022
sg10
I00
sg21
g22
sg23
I16
sg18
I0
sg32
I-12
sg28
F-12.0
sg29
F120.0
sg30
I666055
sg27
g9
sg19
S'2255.84837733'
p341
sg31
I-12
sg25
I5
sbasg36
I00
sg37
I00
sg38
I665920
sg19
S'2255.85537753'
p342
sg25
I3
sba(igraph
Edge
p343
(dp344
g7
I1
sg8
g9
sg10
I00
sg11
I5
sg12
(lp345
(igraph
Vertex
p346
(dp347
g8
g16
sg17
I666051
sg10
I00
sg21
I0
sg23
I16
sg18
I0
sg32
I-12
sg28
F-72.0
sg29
F60.0
sg30
I666050
sg27
g9
sg19
S'2255.84755626'
p348
sg31
I-12
sg25
I5
sba(igraph
Vertex
p349
(dp350
g8
g16
sg17
Nsg10
I00
sg21
g22
sg23
I16
sg18
I0
sg32
I-12
sg28
F-12.0
sg29
F60.0
sg30
I666057
sg27
g9
sg19
S'2255.84880374'
p351
sg31
I-12
sg25
I5
sbasg36
I00
sg37
I00
sg38
I665921
sg19
S'2255.85607826'
p352
sg25
I3
sba(igraph
Edge
p353
(dp354
g7
I1
sg8
g9
sg10
I00
sg11
I5
sg12
(lp355
g326
ag339
asg36
I00
sg37
I00
sg38
I665922
sg19
S'2255.85679273'
p356
sg25
I3
sba(igraph
Edge
p357
(dp358
g7
I1
sg8
g9
sg10
I00
sg11
I5
sg12
(lp359
g336
ag349
asg36
I00
sg37
I00
sg38
I665923
sg19
S'2255.85752757'
p360
sg25
I3
sba(igraph
Edge
p361
(dp362
g7
I1
sg8
g9
sg10
I00
sg11
I5
sg12
(lp363
g270
ag346
asg36
I00
sg37
I00
sg38
I665924
sg19
S'2255.8582989'
p364
sg25
I3
sba(igraph
Edge
p365
(dp366
g7
I1
sg8
g9
sg10
I00
sg11
I5
sg12
(lp367
g300
ag63
asg36
I00
sg37
I00
sg38
I665925
sg19
S'2265.87005686'
p368
sg25
I3
sba(igraph
Edge
p369
(dp370
g7
I1
sg8
g9
sg10
I00
sg11
I5
sg12
(lp371
g290
ag53
asg36
I00
sg37
I00
sg38
I665926
sg19
S'2268.82388776'
p372
sg25
I3
sba(igraph
Edge
p373
(dp374
g7
I1
sg8
g9
sg10
I00
sg11
I5
sg12
(lp375
g280
ag43
asg36
I00
sg37
I00
sg38
I665927
sg19
S'2271.56554509'
p376
sg25
I3
sba(igraph
Edge
p377
(dp378
g7
I1
sg8
g9
sg10
I00
sg11
I5
sg12
(lp379
g270
ag14
asg36
I00
sg37
I00
sg38
I665928
sg19
S'2274.59299677'
p380
sg25
I3
sba(igraph
Edge
p381
(dp382
g7
I1
sg8
g9
sg10
I00
sg11
I5
sg12
(lp383
g349
ag191
asg36
I00
sg37
I00
sg38
I665929
sg19
S'2276.69457429'
p384
sg25
I3
sba(igraph
Edge
p385
(dp386
g7
I1
sg8
g9
sg10
I00
sg11
I5
sg12
(lp387
g339
ag181
asg36
I00
sg37
I00
sg38
I665930
sg19
S'2279.63360124'
p388
sg25
I3
sba(igraph
Edge
p389
(dp390
g7
I1
sg8
g9
sg10
I00
sg11
I5
sg12
(lp391
g329
ag171
asg36
I00
sg37
I00
sg38
I665931
sg19
S'2282.01313384'
p392
sg25
I3
sba(igraph
Edge
p393
(dp394
g7
I1
sg8
g9
sg10
I00
sg11
I5
sg12
(lp395
g319
a(igraph
Vertex
p396
(dp397
g8
g16
sg17
Nsg10
I00
sg21
g22
sg18
I0
sg30
I666059
sg32
I-12
sg28
F45.0
sg29
F-244.0
sg23
I16
sg27
g9
sg19
S'2288.88994691'
p398
sg31
I-12
sg25
I5
sbasg36
I00
sg37
I00
sg38
I665932
sg19
S'2288.8908689'
p399
sg25
I3
sba(igraph
Edge
p400
(dp401
g7
I1
sg8
g9
sg10
I00
sg11
I5
sg12
(lp402
g396
ag85
asg36
I00
sg37
I00
sg38
I665933
sg19
S'2291.16187447'
p403
sg25
I3
sba(igraph
Edge
p404
(dp405
g7
I1
sg8
g9
sg10
I00
sg11
I5
sg12
(lp406
(igraph
Vertex
p407
(dp408
g8
g16
sg17
Nsg10
I00
sg21
g22
sg18
I0
sg30
I666061
sg32
I-12
sg28
F-173.5
sg29
F-2.5
sg23
I16
sg27
g9
sg19
S'3125.72390832'
p409
sg31
I-12
sg25
I5
sba(igraph
Vertex
p410
(dp411
g8
g16
sg17
Nsg10
I00
sg21
g22
sg18
I0
sg30
I666069
sg32
I-12
sg28
F-113.5
sg29
F-2.5
sg23
I16
sg27
g9
sg19
S'3125.72634406'
p412
sg31
I-12
sg25
I5
sbasg36
I00
sg37
I00
sg38
I665934
sg19
S'3125.73754817'
p413
sg25
I3
sba(igraph
Edge
p414
(dp415
g7
I1
sg8
g9
sg10
I00
sg11
I5
sg12
(lp416
(igraph
Vertex
p417
(dp418
g8
g16
sg17
Nsg10
I00
sg21
g22
sg18
I0
sg30
I666063
sg32
I-12
sg28
F-173.5
sg29
F-62.5
sg23
I16
sg27
g9
sg19
S'3125.72456168'
p419
sg31
I-12
sg25
I5
sba(igraph
Vertex
p420
(dp421
g8
g16
sg17
Nsg10
I00
sg21
g22
sg18
I0
sg30
I666071
sg32
I-12
sg28
F-113.5
sg29
F-62.5
sg23
I16
sg27
g9
sg19
S'3125.72700547'
p422
sg31
I-12
sg25
I5
sbasg36
I00
sg37
I00
sg38
I665935
sg19
S'3125.73869947'
p423
sg25
I3
sba(igraph
Edge
p424
(dp425
g7
I1
sg8
g9
sg10
I00
sg11
I5
sg12
(lp426
(igraph
Vertex
p427
(dp428
g8
g16
sg17
Nsg10
I00
sg21
g22
sg18
I0
sg30
I666065
sg32
I-12
sg28
F-173.5
sg29
F-122.5
sg23
I16
sg27
g9
sg19
S'3125.72515438'
p429
sg31
I-12
sg25
I5
sba(igraph
Vertex
p430
(dp431
g8
g16
sg17
Nsg10
I00
sg21
g22
sg18
I0
sg30
I666073
sg32
I-12
sg28
F-113.5
sg29
F-122.5
sg23
I16
sg27
g9
sg19
S'3125.72763039'
p432
sg31
I-12
sg25
I5
sbasg36
I00
sg37
I00
sg38
I665936
sg19
S'3125.7398811'
p433
sg25
I3
sba(igraph
Edge
p434
(dp435
g7
I1
sg8
g9
sg10
I00
sg11
I5
sg12
(lp436
(igraph
Vertex
p437
(dp438
g8
g16
sg17
Nsg10
I00
sg21
g22
sg18
I0
sg30
I666067
sg32
I-12
sg28
F-173.5
sg29
F-182.5
sg23
I16
sg27
g9
sg19
S'3125.72574141'
p439
sg31
I-12
sg25
I5
sba(igraph
Vertex
p440
(dp441
g8
g16
sg17
Nsg10
I00
sg21
g22
sg18
I0
sg30
I666075
sg32
I-12
sg28
F-113.5
sg29
F-182.5
sg23
I16
sg27
g9
sg19
S'3125.72827522'
p442
sg31
I-12
sg25
I5
sbasg36
I00
sg37
I00
sg38
I665937
sg19
S'3125.74110536'
p443
sg25
I3
sba(igraph
Edge
p444
(dp445
g7
I1
sg8
g9
sg10
I00
sg11
I5
sg12
(lp446
g407
ag420
asg36
I00
sg37
I00
sg38
I665938
sg19
S'3125.74229362'
p447
sg25
I3
sba(igraph
Edge
p448
(dp449
g7
I1
sg8
g9
sg10
I00
sg11
I5
sg12
(lp450
g417
ag430
asg36
I00
sg37
I00
sg38
I665939
sg19
S'3125.74352499'
p451
sg25
I3
sba(igraph
Edge
p452
(dp453
g7
I1
sg8
g9
sg10
I00
sg11
I5
sg12
(lp454
g427
ag440
asg36
I00
sg37
I00
sg38
I665940
sg19
S'3125.74474689'
p455
sg25
I3
sba(igraph
Edge
p456
(dp457
g7
I1
sg8
g9
sg10
I00
sg11
I5
sg12
(lp458
g437
a(igraph
Vertex
p459
(dp460
g8
g16
sg17
Nsg10
I00
sg21
g22
sg18
I0
sg30
I666077
sg32
I-12
sg28
F-113.5
sg29
F-242.5
sg23
I16
sg27
g9
sg19
S'3125.72898116'
p461
sg31
I-12
sg25
I5
sbasg36
I00
sg37
I00
sg38
I665941
sg19
S'3125.74602138'
p462
sg25
I3
sba(igraph
Edge
p463
(dp464
g7
I1
sg8
g9
sg10
I00
sg11
I5
sg12
(lp465
(igraph
Vertex
p466
(dp467
g8
g16
sg17
Nsg10
I00
sg21
g22
sg18
I0
sg30
I666079
sg32
I-12
sg28
F-173.5
sg29
F181.5
sg23
I16
sg27
g9
sg19
S'3125.72963925'
p468
sg31
I-12
sg25
I5
sba(igraph
Vertex
p469
(dp470
g8
g16
sg17
Nsg10
I00
sg21
g22
sg18
I0
sg30
I666085
sg32
I-12
sg28
F-113.5
sg29
F181.5
sg23
I16
sg27
g9
sg19
S'3125.73167795'
p471
sg31
I-12
sg25
I5
sbasg36
I00
sg37
I00
sg38
I665942
sg19
S'3125.74729776'
p472
sg25
I3
sba(igraph
Edge
p473
(dp474
g7
I1
sg8
g9
sg10
I00
sg11
I5
sg12
(lp475
(igraph
Vertex
p476
(dp477
g8
g16
sg17
Nsg10
I00
sg21
g22
sg18
I0
sg30
I666081
sg32
I-12
sg28
F-173.5
sg29
F121.5
sg23
I16
sg27
g9
sg19
S'3125.73031061'
p478
sg31
I-12
sg25
I5
sba(igraph
Vertex
p479
(dp480
g8
g16
sg17
Nsg10
I00
sg21
g22
sg18
I0
sg30
I666087
sg32
I-12
sg28
F-113.5
sg29
F121.5
sg23
I16
sg27
g9
sg19
S'3125.73238958'
p481
sg31
I-12
sg25
I5
sbasg36
I00
sg37
I00
sg38
I665943
sg19
S'3125.74857461'
p482
sg25
I3
sba(igraph
Edge
p483
(dp484
g7
I1
sg8
g9
sg10
I00
sg11
I5
sg12
(lp485
(igraph
Vertex
p486
(dp487
g8
g16
sg17
Nsg10
I00
sg21
g22
sg18
I0
sg30
I666083
sg32
I-12
sg28
F-173.5
sg29
F61.5
sg23
I16
sg27
g9
sg19
S'3125.73098907'
p488
sg31
I-12
sg25
I5
sba(igraph
Vertex
p489
(dp490
g8
g16
sg17
Nsg10
I00
sg21
g22
sg18
I0
sg30
I666089
sg32
I-12
sg28
F-113.5
sg29
F61.5
sg23
I16
sg27
g9
sg19
S'3125.73309552'
p491
sg31
I-12
sg25
I5
sbasg36
I00
sg37
I00
sg38
I665944
sg19
S'3125.7499448'
p492
sg25
I3
sba(igraph
Edge
p493
(dp494
g7
I1
sg8
g9
sg10
I00
sg11
I5
sg12
(lp495
g466
ag479
asg36
I00
sg37
I00
sg38
I665945
sg19
S'3125.75130173'
p496
sg25
I3
sba(igraph
Edge
p497
(dp498
g7
I1
sg8
g9
sg10
I00
sg11
I5
sg12
(lp499
g476
ag489
asg36
I00
sg37
I00
sg38
I665946
sg19
S'3125.75259422'
p500
sg25
I3
sba(igraph
Edge
p501
(dp502
g7
I1
sg8
g9
sg10
I00
sg11
I5
sg12
(lp503
g410
ag486
asg36
I00
sg37
I00
sg38
I665947
sg19
S'3125.75393409'
p504
sg25
I3
sba(igraph
Edge
p505
(dp506
g7
I1
sg8
g9
sg10
I00
sg11
I5
sg12
(lp507
g297
ag440
asg36
I00
sg37
I00
sg38
I665948
sg19
S'3140.00576077'
p508
sg25
I3
sba(igraph
Edge
p509
(dp510
g7
I1
sg8
g9
sg10
I00
sg11
I5
sg12
(lp511
g319
a(igraph
Vertex
p512
(dp513
g8
g16
sg17
Nsg10
I00
sg21
g22
sg18
I0
sg30
I666091
sg32
I-12
sg28
F-65.0
sg29
F-243.0
sg23
I16
sg27
g9
sg19
S'3143.8226616'
p514
sg31
I-12
sg25
I5
sbasg36
I00
sg37
I00
sg38
I665949
sg19
S'3143.82425116'
p515
sg25
I3
sba(igraph
Edge
p516
(dp517
g7
I1
sg8
g9
sg10
I00
sg11
I5
sg12
(lp518
g512
ag459
asg36
I00
sg37
I00
sg38
I665950
sg19
S'3145.77963134'
p519
sg25
I3
sba(igraph
Edge
p520
(dp521
g7
I1
sg8
g9
sg10
I00
sg11
I5
sg12
(lp522
g430
ag287
asg36
I00
sg37
I00
sg38
I665951
sg19
S'3148.70122957'
p523
sg25
I3
sba(igraph
Edge
p524
(dp525
g7
I1
sg8
g9
sg10
I00
sg11
I5
sg12
(lp526
g277
ag420
asg36
I00
sg37
I00
sg38
I665952
sg19
S'3150.85317537'
p527
sg25
I3
sba(igraph
Edge
p528
(dp529
g7
I1
sg8
g9
sg10
I00
sg11
I5
sg12
(lp530
g410
ag267
asg36
I00
sg37
I00
sg38
I665953
sg19
S'3152.99108949'
p531
sg25
I3
sba(igraph
Edge
p532
(dp533
g7
I1
sg8
g9
sg10
I00
sg11
I5
sg12
(lp534
g346
ag489
asg36
I00
sg37
I00
sg38
I665954
sg19
S'3155.36961624'
p535
sg25
I3
sba(igraph
Edge
p536
(dp537
g7
I1
sg8
g9
sg10
I00
sg11
I5
sg12
(lp538
g479
ag336
asg36
I00
sg37
I00
sg38
I665955
sg19
S'3157.5902995'
p539
sg25
I3
sba(igraph
Edge
p540
(dp541
g7
I1
sg8
g9
sg10
I00
sg11
I5
sg12
(lp542
g326
ag469
asg36
I00
sg37
I00
sg38
I665956
sg19
S'3159.93368122'
p543
sg25
I3
sbasS'vertices'
p544
(lp545
g14
ag43
ag53
ag63
ag33
ag46
ag56
ag66
ag85
ag92
ag99
ag106
ag113
ag120
ag127
ag134
ag141
ag148
ag171
ag181
ag191
ag174
ag184
ag194
ag209
ag216
ag223
ag230
ag237
ag252
ag267
ag277
ag287
ag297
ag270
ag280
ag290
ag300
ag319
ag326
ag336
ag346
ag329
ag339
ag349
ag396
ag407
ag417
ag427
ag437
ag410
ag420
ag430
ag440
ag459
ag466
ag476
ag486
ag469
ag479
ag489
ag512
asS'tags'
p546
(lp547
sb.