(igraph
Graph
p0
(dp1
S'labelingConstraints'
p2
I-1
sS'edges'
p3
(lp4
(igraph
Edge
p5
(dp6
S'direction'
p7
I1
sS'color'
p8
S'black'
p9
sS'selected'
p10
I00
sS'height'
p11
I5
sS'vs'
p12
(lp13
(igraph
Vertex
p14
(dp15
g8
S'#ffffff'
p16
sS'text'
p17
I582692
sS'shape'
p18
I0
sS'id'
p19
S'540.080602979'
p20
sS'lcolor'
p21
g9
sS'lsize'
p22
I16
sS'ynorm'
p23
F0.40000000000000002
sS'size'
p24
I5
sS'xnorm'
p25
F0.0
sg10
I00
sS'label'
p26
S'NULL'
p27
sS'y'
p28
F40.0
sS'x'
p29
F-4.0
sS'circle'
p30
I663035
sS'lx'
p31
I-12
sS'ly'
p32
I-12
sba(igraph
Vertex
p33
(dp34
g8
g16
sg17
I285248
sg18
I0
sg19
S'540.082797559'
p35
sg21
g9
sg22
I16
sg23
F0.59999999999999998
sg24
I5
sg25
F0.0
sg10
I00
sg26
g27
sg28
F100.0
sg29
F-4.0
sg30
I663043
sg31
I-12
sg32
I-12
sbasS'wrap'
p36
I00
sS'curved'
p37
I00
sS'line'
p38
I662941
sg19
S'540.128793256'
p39
sg24
I3
sba(igraph
Edge
p40
(dp41
g7
I1
sg8
g9
sg10
I00
sg11
I5
sg12
(lp42
(igraph
Vertex
p43
(dp44
g8
g16
sg17
I419364
sg18
I0
sg19
S'540.081060183'
p45
sg21
g9
sg22
I16
sg23
F0.40000000000000002
sg24
I5
sg25
F0.25
sg10
I00
sg26
g27
sg28
F40.0
sg29
F-64.0
sg30
I663037
sg31
I-12
sg32
I-12
sba(igraph
Vertex
p46
(dp47
g8
g16
sg17
I663046
sg18
I0
sg19
S'540.083248131'
p48
sg21
g9
sg22
I16
sg23
F0.59999999999999998
sg24
I5
sg25
F0.25
sg10
I00
sg26
I0
sg28
F100.0
sg29
F-64.0
sg30
I663045
sg31
I-12
sg32
I-12
sbasg36
I00
sg37
I00
sg38
I662942
sg19
S'540.130000464'
p49
sg24
I3
sba(igraph
Edge
p50
(dp51
g7
I1
sg8
g9
sg10
I00
sg11
I5
sg12
(lp52
(igraph
Vertex
p53
(dp54
g8
g16
sg17
I285238
sg18
I0
sg19
S'540.081470956'
p55
sg21
g9
sg22
I16
sg23
F0.40000000000000002
sg24
I5
sg25
F0.5
sg10
I00
sg26
g27
sg28
F40.0
sg29
F-124.0
sg30
I663039
sg31
I-12
sg32
I-12
sba(igraph
Vertex
p56
(dp57
g8
g16
sg17
I582706
sg18
I0
sg19
S'540.083699649'
p58
sg21
g9
sg22
I16
sg23
F0.59999999999999998
sg24
I5
sg25
F0.5
sg10
I00
sg26
g27
sg28
F100.0
sg29
F-124.0
sg30
I663048
sg31
I-12
sg32
I-12
sbasg36
I00
sg37
I00
sg38
I662943
sg19
S'540.131266896'
p59
sg24
I3
sba(igraph
Edge
p60
(dp61
g7
I1
sg8
g9
sg10
I00
sg11
I5
sg12
(lp62
(igraph
Vertex
p63
(dp64
g8
g16
sg17
I582699
sg18
I0
sg19
S'540.08190684'
p65
sg21
g9
sg22
I16
sg23
F0.40000000000000002
sg24
I5
sg25
F0.75
sg10
I00
sg26
g27
sg28
F40.0
sg29
F-184.0
sg30
I663041
sg31
I-12
sg32
I-12
sba(igraph
Vertex
p66
(dp67
g8
g16
sg17
I663051
sg18
I0
sg19
S'540.084193809'
p68
sg21
g9
sg22
I16
sg23
F0.59999999999999998
sg24
I5
sg25
F0.75
sg10
I00
sg26
I0
sg28
F100.0
sg29
F-184.0
sg30
I663050
sg31
I-12
sg32
I-12
sbasg36
I00
sg37
I00
sg38
I662944
sg19
S'540.132514377'
p69
sg24
I3
sba(igraph
Edge
p70
(dp71
g7
I1
sg8
g9
sg10
I00
sg11
I5
sg12
(lp72
g14
ag46
asg36
I00
sg37
I00
sg38
I662945
sg19
S'540.135057191'
p73
sg24
I3
sba(igraph
Edge
p74
(dp75
g7
I1
sg8
g9
sg10
I00
sg11
I5
sg12
(lp76
g43
ag56
asg36
I00
sg37
I00
sg38
I662946
sg19
S'540.13633452'
p77
sg24
I3
sba(igraph
Edge
p78
(dp79
g7
I1
sg8
g9
sg10
I00
sg11
I5
sg12
(lp80
g53
ag66
asg36
I00
sg37
I00
sg38
I662947
sg19
S'540.137608059'
p81
sg24
I3
sba(igraph
Edge
p82
(dp83
g7
I1
sg8
g9
sg10
I00
sg11
I5
sg12
(lp84
g63
a(igraph
Vertex
p85
(dp86
g8
g16
sg17
I285260
sg18
I0
sg19
S'540.084667596'
p87
sg21
g9
sg22
I16
sg23
F0.59999999999999998
sg24
I5
sg25
F1.0
sg10
I00
sg26
g27
sg28
F100.0
sg29
F-244.0
sg30
I663053
sg31
I-12
sg32
I-12
sbasg36
I00
sg37
I00
sg38
I662948
sg19
S'540.138904813'
p88
sg24
I3
sba(igraph
Edge
p89
(dp90
g7
I1
sg8
g9
sg10
I00
sg11
I5
sg12
(lp91
g33
a(igraph
Vertex
p92
(dp93
g8
g16
sg17
I582713
sg18
I0
sg19
S'540.08516981'
p94
sg21
g9
sg22
I16
sg23
F0.80000000000000004
sg24
I5
sg25
F0.0
sg10
I00
sg26
g27
sg28
F160.0
sg29
F-4.0
sg30
I663055
sg31
I-12
sg32
I-12
sbasg36
I00
sg37
I00
sg38
I662949
sg19
S'540.140227152'
p95
sg24
I3
sba(igraph
Edge
p96
(dp97
g7
I1
sg8
g9
sg10
I00
sg11
I5
sg12
(lp98
g46
a(igraph
Vertex
p99
(dp100
g8
g16
sg17
I480736
sg18
I0
sg19
S'540.085673919'
p101
sg21
g9
sg22
I16
sg23
F0.80000000000000004
sg24
I5
sg25
F0.25
sg10
I00
sg26
g27
sg28
F160.0
sg29
F-64.0
sg30
I663057
sg31
I-12
sg32
I-12
sbasg36
I00
sg37
I00
sg38
I662950
sg19
S'540.141569864'
p102
sg24
I3
sba(igraph
Edge
p103
(dp104
g7
I1
sg8
g9
sg10
I00
sg11
I5
sg12
(lp105
g56
a(igraph
Vertex
p106
(dp107
g8
g16
sg17
I437990
sg18
I0
sg19
S'540.08618324'
p108
sg21
g9
sg22
I16
sg23
F0.80000000000000004
sg24
I5
sg25
F0.5
sg10
I00
sg26
g27
sg28
F160.0
sg29
F-124.0
sg30
I663059
sg31
I-12
sg32
I-12
sbasg36
I00
sg37
I00
sg38
I662951
sg19
S'540.14297938'
p109
sg24
I3
sba(igraph
Edge
p110
(dp111
g7
I1
sg8
g9
sg10
I00
sg11
I5
sg12
(lp112
g66
a(igraph
Vertex
p113
(dp114
g8
g16
sg17
I582720
sg18
I0
sg19
S'540.08669872'
p115
sg21
g9
sg22
I16
sg23
F0.80000000000000004
sg24
I5
sg25
F0.75
sg10
I00
sg26
g27
sg28
F160.0
sg29
F-184.0
sg30
I663061
sg31
I-12
sg32
I-12
sbasg36
I00
sg37
I00
sg38
I662952
sg19
S'540.144329672'
p116
sg24
I3
sba(igraph
Edge
p117
(dp118
g7
I1
sg8
g9
sg10
I00
sg11
I5
sg12
(lp119
g85
a(igraph
Vertex
p120
(dp121
g8
g16
sg17
I437995
sg18
I0
sg19
S'540.087250682'
p122
sg21
g9
sg22
I16
sg23
F0.80000000000000004
sg24
I5
sg25
F1.0
sg10
I00
sg26
g27
sg28
F160.0
sg29
F-244.0
sg30
I663063
sg31
I-12
sg32
I-12
sbasg36
I00
sg37
I00
sg38
I662953
sg19
S'540.145697021'
p123
sg24
I3
sba(igraph
Edge
p124
(dp125
g7
I1
sg8
g9
sg10
I00
sg11
I5
sg12
(lp126
g99
a(igraph
Vertex
p127
(dp128
g8
g16
sg17
I285281
sg18
I0
sg19
S'540.088332811'
p129
sg21
g9
sg22
I16
sg23
F1.0
sg24
I5
sg25
F0.25
sg10
I00
sg26
g27
sg28
F220.0
sg29
F-64.0
sg30
I663065
sg31
I-12
sg32
I-12
sbasg36
I00
sg37
I00
sg38
I662954
sg19
S'540.154694232'
p130
sg24
I3
sba(igraph
Edge
p131
(dp132
g7
I1
sg8
g9
sg10
I00
sg11
I5
sg12
(lp133
g106
a(igraph
Vertex
p134
(dp135
g8
g16
sg17
I285284
sg18
I0
sg19
S'540.088898038'
p136
sg21
g9
sg22
I16
sg23
F1.0
sg24
I5
sg25
F0.5
sg10
I00
sg26
g27
sg28
F220.0
sg29
F-124.0
sg30
I663067
sg31
I-12
sg32
I-12
sbasg36
I00
sg37
I00
sg38
I662955
sg19
S'540.156256781'
p137
sg24
I3
sba(igraph
Edge
p138
(dp139
g7
I1
sg8
g9
sg10
I00
sg11
I5
sg12
(lp140
g113
a(igraph
Vertex
p141
(dp142
g8
g16
sg17
I285287
sg18
I0
sg19
S'540.089466582'
p143
sg21
g9
sg22
I16
sg23
F1.0
sg24
I5
sg25
F0.75
sg10
I00
sg26
g27
sg28
F220.0
sg29
F-184.0
sg30
I663069
sg31
I-12
sg32
I-12
sbasg36
I00
sg37
I00
sg38
I662956
sg19
S'540.157803695'
p144
sg24
I3
sba(igraph
Edge
p145
(dp146
g7
I1
sg8
g9
sg10
I00
sg11
I5
sg12
(lp147
g120
a(igraph
Vertex
p148
(dp149
g8
g16
sg17
I285290
sg18
I0
sg19
S'540.09014315'
p150
sg21
g9
sg22
I16
sg23
F1.0
sg24
I5
sg25
F1.0
sg10
I00
sg26
g27
sg28
F220.0
sg29
F-244.0
sg30
I663071
sg31
I-12
sg32
I-12
sbasg36
I00
sg37
I00
sg38
I662957
sg19
S'540.159323129'
p151
sg24
I3
sba(igraph
Edge
p152
(dp153
g7
I1
sg8
g9
sg10
I00
sg11
I5
sg12
(lp154
g92
ag127
asg36
I00
sg37
I00
sg38
I662958
sg19
S'540.160840668'
p155
sg24
I3
sba(igraph
Edge
p156
(dp157
g7
I1
sg8
g9
sg10
I00
sg11
I5
sg12
(lp158
g99
ag134
asg36
I00
sg37
I00
sg38
I662959
sg19
S'540.162395163'
p159
sg24
I3
sba(igraph
Edge
p160
(dp161
g7
I1
sg8
g9
sg10
I00
sg11
I5
sg12
(lp162
g106
ag141
asg36
I00
sg37
I00
sg38
I662960
sg19
S'540.163979506'
p163
sg24
I3
sba(igraph
Edge
p164
(dp165
g7
I1
sg8
g9
sg10
I00
sg11
I5
sg12
(lp166
g113
ag148
asg36
I00
sg37
I00
sg38
I662961
sg19
S'540.165667608'
p167
sg24
I3
sba(igraph
Edge
p168
(dp169
g7
I1
sg8
g9
sg10
I00
sg11
I5
sg12
(lp170
(igraph
Vertex
p171
(dp172
g8
g16
sg17
I582733
sg10
I00
sg26
g27
sg22
I16
sg18
I0
sg32
I-12
sg28
F40.0
sg29
F180.0
sg30
I663073
sg21
g9
sg19
S'954.528425787'
p173
sg31
I-12
sg24
I5
sba(igraph
Vertex
p174
(dp175
g8
g16
sg17
I663080
sg10
I00
sg26
I0
sg22
I16
sg18
I0
sg32
I-12
sg28
F100.0
sg29
F180.0
sg30
I663079
sg21
g9
sg19
S'954.530590992'
p176
sg31
I-12
sg24
I5
sbasg36
I00
sg37
I00
sg38
I662962
sg19
S'954.547093934'
p177
sg24
I3
sba(igraph
Edge
p178
(dp179
g7
I1
sg8
g9
sg10
I00
sg11
I5
sg12
(lp180
(igraph
Vertex
p181
(dp182
g8
g16
sg17
I362769
sg10
I00
sg26
g27
sg22
I16
sg18
I0
sg32
I-12
sg28
F40.0
sg29
F120.0
sg30
I663075
sg21
g9
sg19
S'954.528852668'
p183
sg31
I-12
sg24
I5
sba(igraph
Vertex
p184
(dp185
g8
g16
sg17
Nsg10
I00
sg26
g27
sg22
I16
sg18
I0
sg32
I-12
sg28
F100.0
sg29
F120.0
sg30
I663082
sg21
g9
sg19
S'954.531050092'
p186
sg31
I-12
sg24
I5
sbasg36
I00
sg37
I00
sg38
I662963
sg19
S'954.547878525'
p187
sg24
I3
sba(igraph
Edge
p188
(dp189
g7
I1
sg8
g9
sg10
I00
sg11
I5
sg12
(lp190
(igraph
Vertex
p191
(dp192
g8
g16
sg17
I419416
sg10
I00
sg26
g27
sg22
I16
sg18
I0
sg32
I-12
sg28
F40.0
sg29
F60.0
sg30
I663077
sg21
g9
sg19
S'954.529258704'
p193
sg31
I-12
sg24
I5
sba(igraph
Vertex
p194
(dp195
g8
g16
sg17
I663085
sg10
I00
sg26
I0
sg22
I16
sg18
I0
sg32
I-12
sg28
F100.0
sg29
F60.0
sg30
I663084
sg21
g9
sg19
S'954.531514876'
p196
sg31
I-12
sg24
I5
sbasg36
I00
sg37
I00
sg38
I662964
sg19
S'954.548685384'
p197
sg24
I3
sba(igraph
Edge
p198
(dp199
g7
I1
sg8
g9
sg10
I00
sg11
I5
sg12
(lp200
g171
ag184
asg36
I00
sg37
I00
sg38
I662965
sg19
S'954.551159025'
p201
sg24
I3
sba(igraph
Edge
p202
(dp203
g7
I1
sg8
g9
sg10
I00
sg11
I5
sg12
(lp204
g181
ag194
asg36
I00
sg37
I00
sg38
I662966
sg19
S'954.552000944'
p205
sg24
I3
sba(igraph
Edge
p206
(dp207
g7
I1
sg8
g9
sg10
I00
sg11
I5
sg12
(lp208
g174
a(igraph
Vertex
p209
(dp210
g8
g16
sg17
I582747
sg10
I00
sg26
g27
sg22
I16
sg18
I0
sg32
I-12
sg28
F160.0
sg29
F180.0
sg30
I663087
sg21
g9
sg19
S'954.532951872'
p211
sg31
I-12
sg24
I5
sbasg36
I00
sg37
I00
sg38
I662967
sg19
S'954.554652728'
p212
sg24
I3
sba(igraph
Edge
p213
(dp214
g7
I1
sg8
g9
sg10
I00
sg11
I5
sg12
(lp215
g184
a(igraph
Vertex
p216
(dp217
g8
g16
sg17
I438027
sg10
I00
sg26
g27
sg22
I16
sg18
I0
sg32
I-12
sg28
F160.0
sg29
F120.0
sg30
I663089
sg21
g9
sg19
S'954.533436082'
p218
sg31
I-12
sg24
I5
sbasg36
I00
sg37
I00
sg38
I662968
sg19
S'954.555566189'
p219
sg24
I3
sba(igraph
Edge
p220
(dp221
g7
I1
sg8
g9
sg10
I00
sg11
I5
sg12
(lp222
g194
a(igraph
Vertex
p223
(dp224
g8
g16
sg17
I480771
sg10
I00
sg26
g27
sg22
I16
sg18
I0
sg32
I-12
sg28
F160.0
sg29
F60.0
sg30
I663091
sg21
g9
sg19
S'954.533927873'
p225
sg31
I-12
sg24
I5
sbasg36
I00
sg37
I00
sg38
I662969
sg19
S'954.556494338'
p226
sg24
I3
sba(igraph
Edge
p227
(dp228
g7
I1
sg8
g9
sg10
I00
sg11
I5
sg12
(lp229
g216
a(igraph
Vertex
p230
(dp231
g8
g16
sg17
Nsg10
I00
sg26
g27
sg22
I16
sg18
I0
sg32
I-12
sg28
F220.0
sg29
F120.0
sg30
I663093
sg21
g9
sg19
S'954.535527851'
p232
sg31
I-12
sg24
I5
sbasg36
I00
sg37
I00
sg38
I662970
sg19
S'954.559554053'
p233
sg24
I3
sba(igraph
Edge
p234
(dp235
g7
I1
sg8
g9
sg10
I00
sg11
I5
sg12
(lp236
g223
a(igraph
Vertex
p237
(dp238
g8
g16
sg17
Nsg10
I00
sg26
g27
sg22
I16
sg18
I0
sg32
I-12
sg28
F220.0
sg29
F60.0
sg30
I663095
sg21
g9
sg19
S'954.536058018'
p239
sg31
I-12
sg24
I5
sbasg36
I00
sg37
I00
sg38
I662971
sg19
S'954.560554691'
p240
sg24
I3
sba(igraph
Edge
p241
(dp242
g7
I1
sg8
g9
sg10
I00
sg11
I5
sg12
(lp243
g209
ag230
asg36
I00
sg37
I00
sg38
I662972
sg19
S'954.563782126'
p244
sg24
I3
sba(igraph
Edge
p245
(dp246
g7
I1
sg8
g9
sg10
I00
sg11
I5
sg12
(lp247
g216
ag237
asg36
I00
sg37
I00
sg38
I662973
sg19
S'954.564869941'
p248
sg24
I3
sba(igraph
Edge
p249
(dp250
g7
I1
sg8
g9
sg10
I00
sg11
I5
sg12
(lp251
g223
a(igraph
Vertex
p252
(dp253
g8
g16
sg17
Nsg10
I00
sg26
g27
sg18
I0
sg30
I663097
sg32
I-12
sg28
F218.0
sg29
F-4.0
sg22
I16
sg21
g9
sg19
S'1020.85557652'
p254
sg31
I-12
sg24
I5
sbasg36
I00
sg37
I00
sg38
I662974
sg19
S'1020.85669371'
p255
sg24
I3
sba(igraph
Edge
p256
(dp257
g7
I1
sg8
g9
sg10
I00
sg11
I5
sg12
(lp258
g252
ag92
asg36
I00
sg37
I00
sg38
I662975
sg19
S'1024.29463806'
p259
sg24
I3
sba(igraph
Edge
p260
(dp261
g7
I1
sg8
g9
sg10
I00
sg11
I5
sg12
(lp262
g33
ag191
asg36
I00
sg37
I00
sg38
I662976
sg19
S'1053.57326165'
p263
sg24
I3
sba(igraph
Edge
p264
(dp265
g7
I1
sg8
g9
sg10
I00
sg11
I5
sg12
(lp266
(igraph
Vertex
p267
(dp268
g8
g16
sg17
I663100
sg10
I00
sg26
I0
sg18
I0
sg30
I663099
sg32
I-12
sg28
F-72.0
sg29
F-4.0
sg22
I16
sg21
g9
sg19
S'2255.84363283'
p269
sg31
I-12
sg24
I5
sba(igraph
Vertex
p270
(dp271
g8
g16
sg17
I515998
sg10
I00
sg26
g27
sg18
I0
sg30
I663111
sg32
I-12
sg28
F-12.0
sg29
F-4.0
sg22
I16
sg21
g9
sg19
S'2255.84491395'
p272
sg31
I-12
sg24
I5
sbasg36
I00
sg37
I00
sg38
I662977
sg19
S'2255.84960254'
p273
sg24
I3
sba(igraph
Edge
p274
(dp275
g7
I1
sg8
g9
sg10
I00
sg11
I5
sg12
(lp276
(igraph
Vertex
p277
(dp278
g8
g16
sg17
I663103
sg10
I00
sg26
I0
sg18
I0
sg30
I663102
sg32
I-12
sg28
F-72.0
sg29
F-64.0
sg22
I16
sg21
g9
sg19
S'2255.84395216'
p279
sg31
I-12
sg24
I5
sba(igraph
Vertex
p280
(dp281
g8
g16
sg17
Nsg10
I00
sg26
g27
sg18
I0
sg30
I663113
sg32
I-12
sg28
F-12.0
sg29
F-64.0
sg22
I16
sg21
g9
sg19
S'2255.84525413'
p282
sg31
I-12
sg24
I5
sbasg36
I00
sg37
I00
sg38
I662978
sg19
S'2255.85017867'
p283
sg24
I3
sba(igraph
Edge
p284
(dp285
g7
I1
sg8
g9
sg10
I00
sg11
I5
sg12
(lp286
(igraph
Vertex
p287
(dp288
g8
g16
sg17
I663106
sg10
I00
sg26
I0
sg18
I0
sg30
I663105
sg32
I-12
sg28
F-72.0
sg29
F-124.0
sg22
I16
sg21
g9
sg19
S'2255.84426628'
p289
sg31
I-12
sg24
I5
sba(igraph
Vertex
p290
(dp291
g8
g16
sg17
I516004
sg10
I00
sg26
g27
sg18
I0
sg30
I663115
sg32
I-12
sg28
F-12.0
sg29
F-124.0
sg22
I16
sg21
g9
sg19
S'2255.84559999'
p292
sg31
I-12
sg24
I5
sbasg36
I00
sg37
I00
sg38
I662979
sg19
S'2255.850769'
p293
sg24
I3
sba(igraph
Edge
p294
(dp295
g7
I1
sg8
g9
sg10
I00
sg11
I5
sg12
(lp296
(igraph
Vertex
p297
(dp298
g8
g16
sg17
I663109
sg10
I00
sg26
I0
sg18
I0
sg30
I663108
sg32
I-12
sg28
F-72.0
sg29
F-184.0
sg22
I16
sg21
g9
sg19
S'2255.84458845'
p299
sg31
I-12
sg24
I5
sba(igraph
Vertex
p300
(dp301
g8
g16
sg17
Nsg10
I00
sg26
g27
sg18
I0
sg30
I663117
sg32
I-12
sg28
F-12.0
sg29
F-184.0
sg22
I16
sg21
g9
sg19
S'2255.84596007'
p302
sg31
I-12
sg24
I5
sbasg36
I00
sg37
I00
sg38
I662980
sg19
S'2255.85137308'
p303
sg24
I3
sba(igraph
Edge
p304
(dp305
g7
I1
sg8
g9
sg10
I00
sg11
I5
sg12
(lp306
g267
ag280
asg36
I00
sg37
I00
sg38
I662981
sg19
S'2255.85199801'
p307
sg24
I3
sba(igraph
Edge
p308
(dp309
g7
I1
sg8
g9
sg10
I00
sg11
I5
sg12
(lp310
g277
ag290
asg36
I00
sg37
I00
sg38
I662982
sg19
S'2255.85264804'
p311
sg24
I3
sba(igraph
Edge
p312
(dp313
g7
I1
sg8
g9
sg10
I00
sg11
I5
sg12
(lp314
g287
ag300
asg36
I00
sg37
I00
sg38
I662983
sg19
S'2255.85331513'
p315
sg24
I3
sba(igraph
Edge
p316
(dp317
g7
I1
sg8
g9
sg10
I00
sg11
I5
sg12
(lp318
g297
a(igraph
Vertex
p319
(dp320
g8
g16
sg17
I516010
sg10
I00
sg26
g27
sg18
I0
sg30
I663119
sg32
I-12
sg28
F-12.0
sg29
F-244.0
sg22
I16
sg21
g9
sg19
S'2255.84639785'
p321
sg31
I-12
sg24
I5
sbasg36
I00
sg37
I00
sg38
I662984
sg19
S'2255.85397654'
p322
sg24
I3
sba(igraph
Edge
p323
(dp324
g7
I1
sg8
g9
sg10
I00
sg11
I5
sg12
(lp325
(igraph
Vertex
p326
(dp327
g8
g16
sg17
I663122
sg10
I00
sg26
I0
sg18
I0
sg30
I663121
sg32
I-12
sg28
F-72.0
sg29
F180.0
sg22
I16
sg21
g9
sg19
S'2255.84677735'
p328
sg31
I-12
sg24
I5
sba(igraph
Vertex
p329
(dp330
g8
g16
sg17
Nsg10
I00
sg26
g27
sg18
I0
sg30
I663130
sg32
I-12
sg28
F-12.0
sg29
F180.0
sg22
I16
sg21
g9
sg19
S'2255.84796134'
p331
sg31
I-12
sg24
I5
sbasg36
I00
sg37
I00
sg38
I662985
sg19
S'2255.85468675'
p332
sg24
I3
sba(igraph
Edge
p333
(dp334
g7
I1
sg8
g9
sg10
I00
sg11
I5
sg12
(lp335
(igraph
Vertex
p336
(dp337
g8
g16
sg17
I663125
sg10
I00
sg26
I0
sg18
I0
sg30
I663124
sg32
I-12
sg28
F-72.0
sg29
F120.0
sg22
I16
sg21
g9
sg19
S'2255.84716443'
p338
sg31
I-12
sg24
I5
sba(igraph
Vertex
p339
(dp340
g8
g16
sg17
I516022
sg10
I00
sg26
g27
sg18
I0
sg30
I663132
sg32
I-12
sg28
F-12.0
sg29
F120.0
sg22
I16
sg21
g9
sg19
S'2255.84837733'
p341
sg31
I-12
sg24
I5
sbasg36
I00
sg37
I00
sg38
I662986
sg19
S'2255.85537753'
p342
sg24
I3
sba(igraph
Edge
p343
(dp344
g7
I1
sg8
g9
sg10
I00
sg11
I5
sg12
(lp345
(igraph
Vertex
p346
(dp347
g8
g16
sg17
I663128
sg10
I00
sg26
I0
sg18
I0
sg30
I663127
sg32
I-12
sg28
F-72.0
sg29
F60.0
sg22
I16
sg21
g9
sg19
S'2255.84755626'
p348
sg31
I-12
sg24
I5
sba(igraph
Vertex
p349
(dp350
g8
g16
sg17
Nsg10
I00
sg26
g27
sg18
I0
sg30
I663134
sg32
I-12
sg28
F-12.0
sg29
F60.0
sg22
I16
sg21
g9
sg19
S'2255.84880374'
p351
sg31
I-12
sg24
I5
sbasg36
I00
sg37
I00
sg38
I662987
sg19
S'2255.85607826'
p352
sg24
I3
sba(igraph
Edge
p353
(dp354
g7
I1
sg8
g9
sg10
I00
sg11
I5
sg12
(lp355
g326
ag339
asg36
I00
sg37
I00
sg38
I662988
sg19
S'2255.85679273'
p356
sg24
I3
sba(igraph
Edge
p357
(dp358
g7
I1
sg8
g9
sg10
I00
sg11
I5
sg12
(lp359
g336
ag349
asg36
I00
sg37
I00
sg38
I662989
sg19
S'2255.85752757'
p360
sg24
I3
sba(igraph
Edge
p361
(dp362
g7
I1
sg8
g9
sg10
I00
sg11
I5
sg12
(lp363
g270
ag346
asg36
I00
sg37
I00
sg38
I662990
sg19
S'2255.8582989'
p364
sg24
I3
sba(igraph
Edge
p365
(dp366
g7
I1
sg8
g9
sg10
I00
sg11
I5
sg12
(lp367
g300
ag63
asg36
I00
sg37
I00
sg38
I662991
sg19
S'2265.87005686'
p368
sg24
I3
sba(igraph
Edge
p369
(dp370
g7
I1
sg8
g9
sg10
I00
sg11
I5
sg12
(lp371
g290
ag53
asg36
I00
sg37
I00
sg38
I662992
sg19
S'2268.82388776'
p372
sg24
I3
sba(igraph
Edge
p373
(dp374
g7
I1
sg8
g9
sg10
I00
sg11
I5
sg12
(lp375
g280
ag43
asg36
I00
sg37
I00
sg38
I662993
sg19
S'2271.56554509'
p376
sg24
I3
sba(igraph
Edge
p377
(dp378
g7
I1
sg8
g9
sg10
I00
sg11
I5
sg12
(lp379
g270
ag14
asg36
I00
sg37
I00
sg38
I662994
sg19
S'2274.59299677'
p380
sg24
I3
sba(igraph
Edge
p381
(dp382
g7
I1
sg8
g9
sg10
I00
sg11
I5
sg12
(lp383
g349
ag191
asg36
I00
sg37
I00
sg38
I662995
sg19
S'2276.69457429'
p384
sg24
I3
sba(igraph
Edge
p385
(dp386
g7
I1
sg8
g9
sg10
I00
sg11
I5
sg12
(lp387
g339
ag181
asg36
I00
sg37
I00
sg38
I662996
sg19
S'2279.63360124'
p388
sg24
I3
sba(igraph
Edge
p389
(dp390
g7
I1
sg8
g9
sg10
I00
sg11
I5
sg12
(lp391
g329
ag171
asg36
I00
sg37
I00
sg38
I662997
sg19
S'2282.01313384'
p392
sg24
I3
sba(igraph
Edge
p393
(dp394
g7
I1
sg8
g9
sg10
I00
sg11
I5
sg12
(lp395
g319
a(igraph
Vertex
p396
(dp397
g8
g16
sg17
Nsg10
I00
sg26
g27
sg22
I16
sg18
I0
sg32
I-12
sg28
F45.0
sg29
F-244.0
sg30
I663136
sg21
g9
sg19
S'2288.88994691'
p398
sg31
I-12
sg24
I5
sbasg36
I00
sg37
I00
sg38
I662998
sg19
S'2288.8908689'
p399
sg24
I3
sba(igraph
Edge
p400
(dp401
g7
I1
sg8
g9
sg10
I00
sg11
I5
sg12
(lp402
g396
ag85
asg36
I00
sg37
I00
sg38
I662999
sg19
S'2291.16187447'
p403
sg24
I3
sba(igraph
Edge
p404
(dp405
g7
I1
sg8
g9
sg10
I00
sg11
I5
sg12
(lp406
(igraph
Vertex
p407
(dp408
g8
g16
sg17
Nsg10
I00
sg26
g27
sg22
I16
sg18
I0
sg32
I-12
sg28
F39.0
sg29
F227.0
sg30
I663138
sg21
g9
sg19
S'2310.97276958'
p409
sg31
I-12
sg24
I5
sba(igraph
Vertex
p410
(dp411
g8
g16
sg17
I582798
sg10
I00
sg26
g27
sg22
I16
sg18
I0
sg32
I-12
sg28
F99.0
sg29
F227.0
sg30
I663140
sg21
g9
sg19
S'2310.97376311'
p412
sg31
I-12
sg24
I5
sbasg36
I00
sg37
I00
sg38
I663000
sg19
S'2310.97947603'
p413
sg24
I3
sba(igraph
Edge
p414
(dp415
g7
I1
sg8
g9
sg10
I00
sg11
I5
sg12
(lp416
g410
a(igraph
Vertex
p417
(dp418
g8
g16
sg17
Nsg10
I00
sg26
g27
sg22
I16
sg18
I0
sg32
I-12
sg28
F159.0
sg29
F227.0
sg30
I663142
sg21
g9
sg19
S'2310.97477606'
p419
sg31
I-12
sg24
I5
sbasg36
I00
sg37
I00
sg38
I663001
sg19
S'2310.98234765'
p420
sg24
I3
sba(igraph
Edge
p421
(dp422
g7
I1
sg8
g9
sg10
I00
sg11
I5
sg12
(lp423
(igraph
Vertex
p424
(dp425
g8
g16
sg17
I663145
sg10
I00
sg26
I0
sg22
I16
sg18
I0
sg32
I-12
sg28
F-73.0
sg29
F227.0
sg30
I663144
sg21
g9
sg19
S'2310.97638362'
p426
sg31
I-12
sg24
I5
sba(igraph
Vertex
p427
(dp428
g8
g16
sg17
I516052
sg10
I00
sg26
g27
sg22
I16
sg18
I0
sg32
I-12
sg28
F-13.0
sg29
F227.0
sg30
I663147
sg21
g9
sg19
S'2310.97746528'
p429
sg31
I-12
sg24
I5
sbasg36
I00
sg37
I00
sg38
I663002
sg19
S'2310.98637768'
p430
sg24
I3
sba(igraph
Edge
p431
(dp432
g7
I1
sg8
g9
sg10
I00
sg11
I5
sg12
(lp433
g427
ag407
asg36
I00
sg37
I00
sg38
I663003
sg19
S'2310.9885192'
p434
sg24
I3
sba(igraph
Edge
p435
(dp436
g7
I1
sg8
g9
sg10
I00
sg11
I5
sg12
(lp437
g424
ag329
asg36
I00
sg37
I00
sg38
I663004
sg19
S'2328.36258146'
p438
sg24
I3
sba(igraph
Edge
p439
(dp440
g7
I1
sg8
g9
sg10
I00
sg11
I5
sg12
(lp441
g174
ag407
asg36
I00
sg37
I00
sg38
I663005
sg19
S'2333.37291617'
p442
sg24
I3
sba(igraph
Edge
p443
(dp444
g7
I1
sg8
g9
sg10
I00
sg11
I5
sg12
(lp445
g209
a(igraph
Vertex
p446
(dp447
g8
g16
sg17
Nsg10
I00
sg26
g27
sg22
I16
sg18
I0
sg32
I-12
sg28
F218.0
sg29
F182.0
sg30
I663149
sg21
g9
sg19
S'2337.89900903'
p448
sg31
I-12
sg24
I5
sbasg36
I00
sg37
I00
sg38
I663006
sg19
S'2337.90024466'
p449
sg24
I3
sba(igraph
Edge
p450
(dp451
g7
I1
sg8
g9
sg10
I00
sg11
I5
sg12
(lp452
g446
ag417
asg36
I00
sg37
I00
sg38
I663007
sg19
S'2340.5190974'
p453
sg24
I3
sba(igraph
Edge
p454
(dp455
g7
I1
sg8
g9
sg10
I00
sg11
I5
sg12
(lp456
(igraph
Vertex
p457
(dp458
g8
g16
sg17
Nsg10
I00
sg26
g27
sg22
I16
sg18
I0
sg32
I-12
sg28
F-173.5
sg29
F-2.5
sg30
I663151
sg21
g9
sg19
S'3125.72390832'
p459
sg31
I-12
sg24
I5
sba(igraph
Vertex
p460
(dp461
g8
g16
sg17
Nsg10
I00
sg26
g27
sg22
I16
sg18
I0
sg32
I-12
sg28
F-113.5
sg29
F-2.5
sg30
I663159
sg21
g9
sg19
S'3125.72634406'
p462
sg31
I-12
sg24
I5
sbasg36
I00
sg37
I00
sg38
I663008
sg19
S'3125.73754817'
p463
sg24
I3
sba(igraph
Edge
p464
(dp465
g7
I1
sg8
g9
sg10
I00
sg11
I5
sg12
(lp466
(igraph
Vertex
p467
(dp468
g8
g16
sg17
Nsg10
I00
sg26
g27
sg22
I16
sg18
I0
sg32
I-12
sg28
F-173.5
sg29
F-62.5
sg30
I663153
sg21
g9
sg19
S'3125.72456168'
p469
sg31
I-12
sg24
I5
sba(igraph
Vertex
p470
(dp471
g8
g16
sg17
Nsg10
I00
sg26
g27
sg22
I16
sg18
I0
sg32
I-12
sg28
F-113.5
sg29
F-62.5
sg30
I663161
sg21
g9
sg19
S'3125.72700547'
p472
sg31
I-12
sg24
I5
sbasg36
I00
sg37
I00
sg38
I663009
sg19
S'3125.73869947'
p473
sg24
I3
sba(igraph
Edge
p474
(dp475
g7
I1
sg8
g9
sg10
I00
sg11
I5
sg12
(lp476
(igraph
Vertex
p477
(dp478
g8
g16
sg17
Nsg10
I00
sg26
g27
sg22
I16
sg18
I0
sg32
I-12
sg28
F-173.5
sg29
F-122.5
sg30
I663155
sg21
g9
sg19
S'3125.72515438'
p479
sg31
I-12
sg24
I5
sba(igraph
Vertex
p480
(dp481
g8
g16
sg17
Nsg10
I00
sg26
g27
sg22
I16
sg18
I0
sg32
I-12
sg28
F-113.5
sg29
F-122.5
sg30
I663163
sg21
g9
sg19
S'3125.72763039'
p482
sg31
I-12
sg24
I5
sbasg36
I00
sg37
I00
sg38
I663010
sg19
S'3125.7398811'
p483
sg24
I3
sba(igraph
Edge
p484
(dp485
g7
I1
sg8
g9
sg10
I00
sg11
I5
sg12
(lp486
(igraph
Vertex
p487
(dp488
g8
g16
sg17
Nsg10
I00
sg26
g27
sg22
I16
sg18
I0
sg32
I-12
sg28
F-173.5
sg29
F-182.5
sg30
I663157
sg21
g9
sg19
S'3125.72574141'
p489
sg31
I-12
sg24
I5
sba(igraph
Vertex
p490
(dp491
g8
g16
sg17
Nsg10
I00
sg26
g27
sg22
I16
sg18
I0
sg32
I-12
sg28
F-113.5
sg29
F-182.5
sg30
I663165
sg21
g9
sg19
S'3125.72827522'
p492
sg31
I-12
sg24
I5
sbasg36
I00
sg37
I00
sg38
I663011
sg19
S'3125.74110536'
p493
sg24
I3
sba(igraph
Edge
p494
(dp495
g7
I1
sg8
g9
sg10
I00
sg11
I5
sg12
(lp496
g457
ag470
asg36
I00
sg37
I00
sg38
I663012
sg19
S'3125.74229362'
p497
sg24
I3
sba(igraph
Edge
p498
(dp499
g7
I1
sg8
g9
sg10
I00
sg11
I5
sg12
(lp500
g467
ag480
asg36
I00
sg37
I00
sg38
I663013
sg19
S'3125.74352499'
p501
sg24
I3
sba(igraph
Edge
p502
(dp503
g7
I1
sg8
g9
sg10
I00
sg11
I5
sg12
(lp504
g477
ag490
asg36
I00
sg37
I00
sg38
I663014
sg19
S'3125.74474689'
p505
sg24
I3
sba(igraph
Edge
p506
(dp507
g7
I1
sg8
g9
sg10
I00
sg11
I5
sg12
(lp508
g487
a(igraph
Vertex
p509
(dp510
g8
g16
sg17
Nsg10
I00
sg26
g27
sg22
I16
sg18
I0
sg32
I-12
sg28
F-113.5
sg29
F-242.5
sg30
I663167
sg21
g9
sg19
S'3125.72898116'
p511
sg31
I-12
sg24
I5
sbasg36
I00
sg37
I00
sg38
I663015
sg19
S'3125.74602138'
p512
sg24
I3
sba(igraph
Edge
p513
(dp514
g7
I1
sg8
g9
sg10
I00
sg11
I5
sg12
(lp515
(igraph
Vertex
p516
(dp517
g8
g16
sg17
Nsg10
I00
sg26
g27
sg22
I16
sg18
I0
sg32
I-12
sg28
F-173.5
sg29
F181.5
sg30
I663169
sg21
g9
sg19
S'3125.72963925'
p518
sg31
I-12
sg24
I5
sba(igraph
Vertex
p519
(dp520
g8
g16
sg17
Nsg10
I00
sg26
g27
sg22
I16
sg18
I0
sg32
I-12
sg28
F-113.5
sg29
F181.5
sg30
I663175
sg21
g9
sg19
S'3125.73167795'
p521
sg31
I-12
sg24
I5
sbasg36
I00
sg37
I00
sg38
I663016
sg19
S'3125.74729776'
p522
sg24
I3
sba(igraph
Edge
p523
(dp524
g7
I1
sg8
g9
sg10
I00
sg11
I5
sg12
(lp525
(igraph
Vertex
p526
(dp527
g8
g16
sg17
Nsg10
I00
sg26
g27
sg22
I16
sg18
I0
sg32
I-12
sg28
F-173.5
sg29
F121.5
sg30
I663171
sg21
g9
sg19
S'3125.73031061'
p528
sg31
I-12
sg24
I5
sba(igraph
Vertex
p529
(dp530
g8
g16
sg17
Nsg10
I00
sg26
g27
sg22
I16
sg18
I0
sg32
I-12
sg28
F-113.5
sg29
F121.5
sg30
I663177
sg21
g9
sg19
S'3125.73238958'
p531
sg31
I-12
sg24
I5
sbasg36
I00
sg37
I00
sg38
I663017
sg19
S'3125.74857461'
p532
sg24
I3
sba(igraph
Edge
p533
(dp534
g7
I1
sg8
g9
sg10
I00
sg11
I5
sg12
(lp535
(igraph
Vertex
p536
(dp537
g8
g16
sg17
Nsg10
I00
sg26
g27
sg22
I16
sg18
I0
sg32
I-12
sg28
F-173.5
sg29
F61.5
sg30
I663173
sg21
g9
sg19
S'3125.73098907'
p538
sg31
I-12
sg24
I5
sba(igraph
Vertex
p539
(dp540
g8
g16
sg17
Nsg10
I00
sg26
g27
sg22
I16
sg18
I0
sg32
I-12
sg28
F-113.5
sg29
F61.5
sg30
I663179
sg21
g9
sg19
S'3125.73309552'
p541
sg31
I-12
sg24
I5
sbasg36
I00
sg37
I00
sg38
I663018
sg19
S'3125.7499448'
p542
sg24
I3
sba(igraph
Edge
p543
(dp544
g7
I1
sg8
g9
sg10
I00
sg11
I5
sg12
(lp545
g516
ag529
asg36
I00
sg37
I00
sg38
I663019
sg19
S'3125.75130173'
p546
sg24
I3
sba(igraph
Edge
p547
(dp548
g7
I1
sg8
g9
sg10
I00
sg11
I5
sg12
(lp549
g526
ag539
asg36
I00
sg37
I00
sg38
I663020
sg19
S'3125.75259422'
p550
sg24
I3
sba(igraph
Edge
p551
(dp552
g7
I1
sg8
g9
sg10
I00
sg11
I5
sg12
(lp553
g460
ag536
asg36
I00
sg37
I00
sg38
I663021
sg19
S'3125.75393409'
p554
sg24
I3
sba(igraph
Edge
p555
(dp556
g7
I1
sg8
g9
sg10
I00
sg11
I5
sg12
(lp557
(igraph
Vertex
p558
(dp559
g8
g16
sg17
Nsg10
I00
sg26
g27
sg22
I16
sg18
I0
sg32
I-12
sg28
F-174.5
sg29
F228.5
sg30
I663181
sg21
g9
sg19
S'3125.7346377'
p560
sg31
I-12
sg24
I5
sba(igraph
Vertex
p561
(dp562
g8
g16
sg17
Nsg10
I00
sg26
g27
sg22
I16
sg18
I0
sg32
I-12
sg28
F-114.5
sg29
F228.5
sg30
I663183
sg21
g9
sg19
S'3125.7361415'
p563
sg31
I-12
sg24
I5
sbasg36
I00
sg37
I00
sg38
I663022
sg19
S'3125.75667779'
p564
sg24
I3
sba(igraph
Edge
p565
(dp566
g7
I1
sg8
g9
sg10
I00
sg11
I5
sg12
(lp567
g558
ag519
asg36
I00
sg37
I00
sg38
I663023
sg19
S'3125.75946176'
p568
sg24
I3
sba(igraph
Edge
p569
(dp570
g7
I1
sg8
g9
sg10
I00
sg11
I5
sg12
(lp571
g297
ag490
asg36
I00
sg37
I00
sg38
I663024
sg19
S'3140.00576077'
p572
sg24
I3
sba(igraph
Edge
p573
(dp574
g7
I1
sg8
g9
sg10
I00
sg11
I5
sg12
(lp575
g319
a(igraph
Vertex
p576
(dp577
g8
g16
sg17
Nsg10
I00
sg26
g27
sg22
I16
sg18
I0
sg32
I-12
sg28
F-65.0
sg29
F-243.0
sg30
I663185
sg21
g9
sg19
S'3143.8226616'
p578
sg31
I-12
sg24
I5
sbasg36
I00
sg37
I00
sg38
I663025
sg19
S'3143.82425116'
p579
sg24
I3
sba(igraph
Edge
p580
(dp581
g7
I1
sg8
g9
sg10
I00
sg11
I5
sg12
(lp582
g576
ag509
asg36
I00
sg37
I00
sg38
I663026
sg19
S'3145.77963134'
p583
sg24
I3
sba(igraph
Edge
p584
(dp585
g7
I1
sg8
g9
sg10
I00
sg11
I5
sg12
(lp586
g480
ag287
asg36
I00
sg37
I00
sg38
I663027
sg19
S'3148.70122957'
p587
sg24
I3
sba(igraph
Edge
p588
(dp589
g7
I1
sg8
g9
sg10
I00
sg11
I5
sg12
(lp590
g277
ag470
asg36
I00
sg37
I00
sg38
I663028
sg19
S'3150.85317537'
p591
sg24
I3
sba(igraph
Edge
p592
(dp593
g7
I1
sg8
g9
sg10
I00
sg11
I5
sg12
(lp594
g460
ag267
asg36
I00
sg37
I00
sg38
I663029
sg19
S'3152.99108949'
p595
sg24
I3
sba(igraph
Edge
p596
(dp597
g7
I1
sg8
g9
sg10
I00
sg11
I5
sg12
(lp598
g346
ag539
asg36
I00
sg37
I00
sg38
I663030
sg19
S'3155.36961624'
p599
sg24
I3
sba(igraph
Edge
p600
(dp601
g7
I1
sg8
g9
sg10
I00
sg11
I5
sg12
(lp602
g529
ag336
asg36
I00
sg37
I00
sg38
I663031
sg19
S'3157.5902995'
p603
sg24
I3
sba(igraph
Edge
p604
(dp605
g7
I1
sg8
g9
sg10
I00
sg11
I5
sg12
(lp606
g326
ag519
asg36
I00
sg37
I00
sg38
I663032
sg19
S'3159.93368122'
p607
sg24
I3
sba(igraph
Edge
p608
(dp609
g7
I1
sg8
g9
sg10
I00
sg11
I5
sg12
(lp610
g424
ag561
asg36
I00
sg37
I00
sg38
I663033
sg19
S'3162.35235998'
p611
sg24
I3
sbasS'vertices'
p612
(lp613
g14
ag43
ag53
ag63
ag33
ag46
ag56
ag66
ag85
ag92
ag99
ag106
ag113
ag120
ag127
ag134
ag141
ag148
ag171
ag181
ag191
ag174
ag184
ag194
ag209
ag216
ag223
ag230
ag237
ag252
ag267
ag277
ag287
ag297
ag270
ag280
ag290
ag300
ag319
ag326
ag336
ag346
ag329
ag339
ag349
ag396
ag407
ag410
ag417
ag424
ag427
ag446
ag457
ag467
ag477
ag487
ag460
ag470
ag480
ag490
ag509
ag516
ag526
ag536
ag519
ag529
ag539
ag558
ag561
ag576
asS'tags'
p614
(lp615
sb.