(igraph
Graph
p0
(dp1
S'labelingConstraints'
p2
(lp3
I2
aI1
asS'edges'
p4
(lp5
(igraph
Edge
p6
(dp7
S'direction'
p8
I1
sS'selected'
p9
I01
sS'height'
p10
I5
sS'vs'
p11
(lp12
(igraph
Vertex
p13
(dp14
S'xnorm'
p15
F0.039469563101432424
sg9
I01
sS'label'
p16
S'NULL'
p17
sS'y'
p18
F-8.3150376325708066
sS'x'
p19
F-202.83042684658574
sS'circle'
p20
I65158
sS'id'
p21
S'0.00334847026647'
p22
sS'ynorm'
p23
F0.84163660254452555
sba(igraph
Vertex
p24
(dp25
g15
F0.12098401594487759
sg9
I01
sg16
g17
sg18
F9.1287914380285713
sg19
F-173.56673827578894
sg20
I65160
sg21
S'1.082144239'
p26
sg23
F0.91986005129160797
sbasS'wrap'
p27
I00
sS'curved'
p28
I00
sS'line'
p29
I65032
sg21
S'1.08253199778'
p30
sba(igraph
Edge
p31
(dp32
g8
I1
sg9
I01
sg10
I5
sg11
(lp33
(igraph
Vertex
p34
(dp35
g15
F0.12152800720867112
sg9
I01
sg16
g17
sg18
F-170.95224236608021
sg19
F-173.37144541208707
sg20
I65162
sg21
S'2.44139716081'
p36
sg23
F0.1123217831117479
sba(igraph
Vertex
p37
(dp38
g15
F0.039655695345875645
sg9
I01
sg16
g17
sg18
F-153.66348141181641
sg19
F-202.76360537083065
sg20
I65164
sg21
S'3.34591882488'
p39
sg23
F0.18984985913983676
sbasg27
I00
sg28
I00
sg29
I65034
sg21
S'3.34599537092'
p40
sba(igraph
Edge
p41
(dp42
g8
I1
sg9
I01
sg10
I5
sg11
(lp43
g13
a(igraph
Vertex
p44
(dp45
g15
F0.041651774024376441
sg9
I01
sg16
g17
sg18
F-43.931967729236874
sg19
F-202.04701312524884
sg20
I65168
sg21
S'7.55801365816'
p46
sg23
F0.68191942722315302
sbasg27
I00
sg28
I00
sg29
I65036
sg21
S'7.55811674389'
p47
sba(igraph
Edge
p48
(dp49
g8
I1
sg9
I01
sg10
I5
sg11
(lp50
g44
a(igraph
Vertex
p51
(dp52
g15
F0.12446150418604188
sg9
I01
sg16
g17
sg18
F-62.787327997596549
sg19
F-172.31831999721095
sg20
I65170
sg21
S'8.21727705616'
p53
sg23
F0.59736624216324419
sbasg27
I00
sg28
I00
sg29
I65038
sg21
S'8.21739159586'
p54
sba(igraph
Edge
p55
(dp56
g8
I1
sg9
I01
sg10
I5
sg11
(lp57
g51
a(igraph
Vertex
p58
(dp59
g15
F0.2095080784276819
sg9
I01
sg16
g17
sg18
F-44.568041566017882
sg19
F-141.78659984446222
sg20
I65172
sg21
S'9.4550095054'
p60
sg23
F0.67906707817929202
sbasg27
I00
sg28
I00
sg29
I65040
sg21
S'9.45513633716'
p61
sba(igraph
Edge
p62
(dp63
g8
I1
sg9
I01
sg10
I5
sg11
(lp64
g58
a(igraph
Vertex
p65
(dp66
g15
F0.20787216273289705
sg9
I01
sg16
g17
sg18
F-7.8661972925128509
sg19
F-142.37389357888998
sg20
I65174
sg21
S'10.3445141771'
p67
sg23
F0.84364933949545806
sbasg27
I00
sg28
I00
sg29
I65042
sg21
S'10.3446555358'
p68
sba(igraph
Edge
p69
(dp70
g8
I1
sg9
I01
sg10
I5
sg11
(lp71
g65
ag24
asg27
I00
sg28
I00
sg29
I65044
sg21
S'11.6017985526'
p72
sba(igraph
Edge
p73
(dp74
g8
I1
sg9
I01
sg10
I5
sg11
(lp75
(igraph
Vertex
p76
(dp77
g15
F0.20800512861073089
sg9
I01
sg16
g17
sg18
F-154.25584521795062
sg19
F-142.32615882874762
sg20
I65176
sg21
S'31.9893469701'
p78
sg23
F0.18719351920201519
sba(igraph
Vertex
p79
(dp80
g15
F0.29035904801060897
sg9
I01
sg16
g17
sg18
F-172.54633653122232
sg19
F-112.76110176419138
sg20
I65178
sg21
S'31.9897218781'
p81
sg23
F0.10517337878375639
sbasg27
I00
sg28
I00
sg29
I65046
sg21
S'31.9913570021'
p82
sba(igraph
Edge
p83
(dp84
g8
I1
sg9
I01
sg10
I5
sg11
(lp85
g79
a(igraph
Vertex
p86
(dp87
g15
F0.37383018151695041
sg9
I01
sg16
g17
sg18
F-155.25961936572065
sg19
F-82.794964835414817
sg20
I65180
sg21
S'31.9898054082'
p88
sg23
F0.18269228983981775
sbasg27
I00
sg28
I00
sg29
I65048
sg21
S'31.9917553767'
p89
sba(igraph
Edge
p90
(dp91
g8
I1
sg9
I01
sg10
I5
sg11
(lp92
(igraph
Vertex
p93
(dp94
g15
F0.28987249039016888
sg9
I01
sg16
g17
sg18
F10.841543771809398
sg19
F-112.93577594992939
sg20
I65182
sg21
S'31.9901976369'
p95
sg23
F0.92754055503053545
sba(igraph
Vertex
p96
(dp97
g15
F0.37251844516396043
sg9
I01
sg16
g17
sg18
F-6.5006376053383121
sg19
F-83.265878186138195
sg20
I65184
sg21
S'31.9903124559'
p98
sg23
F0.84977292553659955
sbasg27
I00
sg28
I00
sg29
I65050
sg21
S'31.9930357071'
p99
sba(igraph
Edge
p100
(dp101
g8
I1
sg9
I01
sg10
I5
sg11
(lp102
g96
a(igraph
Vertex
p103
(dp104
g15
F0.45131912373898991
sg9
I01
sg16
g17
sg18
F12.078384129498971
sg19
F-54.976434577702634
sg20
I65186
sg21
S'31.9904459924'
p105
sg23
F0.93308692434752905
sbasg27
I00
sg28
I00
sg29
I65052
sg21
S'31.993287415'
p106
sba(igraph
Edge
p107
(dp108
g8
I1
sg9
I01
sg10
I5
sg11
(lp109
(igraph
Vertex
p110
(dp111
g15
F0.45349337194345274
sg9
I01
sg16
g17
sg18
F-173.45680202012574
sg19
F-54.195879472300476
sg20
I65188
sg21
S'31.9905879099'
p112
sg23
F0.10109057390078151
sbag86
asg27
I00
sg28
I00
sg29
I65054
sg21
S'31.9938517326'
p113
sba(igraph
Edge
p114
(dp115
g8
I1
sg9
I01
sg10
I5
sg11
(lp116
g34
ag76
asg27
I00
sg28
I00
sg29
I65056
sg21
S'36.1774440606'
p117
sba(igraph
Edge
p118
(dp119
g8
I1
sg9
I01
sg10
I5
sg11
(lp120
g65
ag93
asg27
I00
sg28
I00
sg29
I65058
sg21
S'41.8953959232'
p121
sba(igraph
Edge
p122
(dp123
g8
I1
sg9
I01
sg10
I5
sg11
(lp124
(igraph
Vertex
p125
(dp126
g15
F0.29355091283192802
sg9
I01
sg16
g17
sg18
F-99.567738741316148
sg19
F-111.61522229333784
sg20
I65190
sg21
S'47.6344292361'
p127
sg23
F0.43243166483714734
sba(igraph
Vertex
p128
(dp129
g15
F0.37436372337737506
sg9
I01
sg16
g17
sg18
F-117.89314414947084
sg19
F-82.603423307522348
sg20
I65192
sg21
S'47.6345772996'
p130
sg23
F0.3502549589709828
sbasg27
I00
sg28
I00
sg29
I65060
sg21
S'47.6388675097'
p131
sba(igraph
Edge
p132
(dp133
g8
I1
sg9
I01
sg10
I5
sg11
(lp134
g128
a(igraph
Vertex
p135
(dp136
g15
F0.45364117133093113
sg9
I01
sg16
g17
sg18
F-99.560512354651834
sg19
F-54.142819492195713
sg20
I65194
sg21
S'47.63472676'
p137
sg23
F0.43246407015851196
sbasg27
I00
sg28
I00
sg29
I65062
sg21
S'47.6392061002'
p138
sba(igraph
Edge
p139
(dp140
g8
I1
sg9
I01
sg10
I5
sg11
(lp141
g135
a(igraph
Vertex
p142
(dp143
g15
F0.4536884557628077
sg9
I01
sg16
g17
sg18
F-62.078169253366241
sg19
F-54.125844381152035
sg20
I65196
sg21
S'47.6348840425'
p144
sg23
F0.60054632621808857
sbasg27
I00
sg28
I00
sg29
I65064
sg21
S'47.6395335161'
p145
sba(igraph
Edge
p146
(dp147
g8
I1
sg9
I01
sg10
I5
sg11
(lp148
g142
a(igraph
Vertex
p149
(dp150
g15
F0.37373180192252481
sg9
I01
sg16
g17
sg18
F-43.818414221502138
sg19
F-82.830283109813593
sg20
I65198
sg21
S'47.6350645124'
p151
sg23
F0.68242863577801727
sbasg27
I00
sg28
I00
sg29
I65066
sg21
S'47.6398846781'
p152
sba(igraph
Edge
p153
(dp154
g8
I1
sg9
I01
sg10
I5
sg11
(lp155
g149
a(igraph
Vertex
p156
(dp157
g15
F0.29334193019720828
sg9
I01
sg16
g17
sg18
F-62.311721687424665
sg19
F-111.69024705920222
sg20
I65200
sg21
S'47.6352438648'
p158
sg23
F0.59949900588598803
sbasg27
I00
sg28
I00
sg29
I65068
sg21
S'47.6402498083'
p159
sba(igraph
Edge
p160
(dp161
g8
I1
sg9
I01
sg10
I5
sg11
(lp162
g156
ag125
asg27
I00
sg28
I00
sg29
I65070
sg21
S'47.6406110274'
p163
sba(igraph
Edge
p164
(dp165
g8
I1
sg9
I01
sg10
I5
sg11
(lp166
(igraph
Vertex
p167
(dp168
g15
F0.53310916702162137
sg9
I01
sg16
g17
sg18
F-117.73990165931504
sg19
F-25.613809039237935
sg20
I65202
sg21
S'47.6360087665'
p169
sg23
F0.35094214502549309
sbag135
asg27
I00
sg28
I00
sg29
I65072
sg21
S'47.6426470403'
p170
sba(igraph
Edge
p171
(dp172
g8
I1
sg9
I01
sg10
I5
sg11
(lp173
(igraph
Vertex
p174
(dp175
g15
F0.53161520600156698
sg9
I01
sg16
g17
sg18
F-43.438866647812176
sg19
F-26.150141045437465
sg20
I65204
sg21
S'47.6362244363'
p176
sg23
F0.68413064283492298
sba(igraph
Vertex
p177
(dp178
g15
F0.6110599319788661
sg9
I01
sg16
g17
sg18
F-61.685684587113286
sg19
F2.3705155804129276
sg20
I65206
sg21
S'47.6364373126'
p179
sg23
F0.6023063471429897
sbasg27
I00
sg28
I00
sg29
I65074
sg21
S'47.6431024055'
p180
sba(igraph
Edge
p181
(dp182
g8
I1
sg9
I01
sg10
I5
sg11
(lp183
g177
a(igraph
Vertex
p184
(dp185
g15
F0.69381638860868522
sg9
I01
sg16
g17
sg18
F-43.839164651162292
sg19
F32.080083510517994
sg20
I65208
sg21
S'47.6366557761'
p186
sg23
F0.68233558452393595
sbasg27
I00
sg28
I00
sg29
I65076
sg21
S'47.6435454785'
p187
sba(igraph
Edge
p188
(dp189
g8
I1
sg9
I01
sg10
I5
sg11
(lp190
g184
a(igraph
Vertex
p191
(dp192
g15
F0.69454162918459983
sg9
I01
sg16
g17
sg18
F-6.7108678357539873
sg19
F32.340444877271352
sg20
I65210
sg21
S'47.6368803856'
p193
sg23
F0.84883018907733643
sbasg27
I00
sg28
I00
sg29
I65078
sg21
S'47.6440259865'
p194
sba(igraph
Edge
p195
(dp196
g8
I1
sg9
I01
sg10
I5
sg11
(lp197
g191
a(igraph
Vertex
p198
(dp199
g15
F0.6142461026288758
sg9
I01
sg16
g17
sg18
F11.700136804697649
sg19
F3.5143508437664082
sg20
I65212
sg21
S'47.6371362841'
p200
sg23
F0.93139074800312849
sbasg27
I00
sg28
I00
sg29
I65080
sg21
S'47.6444914088'
p201
sba(igraph
Edge
p202
(dp203
g8
I1
sg9
I01
sg10
I5
sg11
(lp204
g198
a(igraph
Vertex
p205
(dp206
g15
F0.53168645702636019
sg9
I01
sg16
g17
sg18
F-5.9977479387626431
sg19
F-26.124561927536689
sg20
I65214
sg21
S'47.6373748619'
p207
sg23
F0.85202803614904643
sbasg27
I00
sg28
I00
sg29
I65082
sg21
S'47.6449923105'
p208
sba(igraph
Edge
p209
(dp210
g8
I1
sg9
I01
sg10
I5
sg11
(lp211
g205
ag174
asg27
I00
sg28
I00
sg29
I65084
sg21
S'47.6454817582'
p212
sba(igraph
Edge
p213
(dp214
g8
I1
sg9
I01
sg10
I5
sg11
(lp215
g177
a(igraph
Vertex
p216
(dp217
g15
F0.61186952273705164
sg9
I01
sg16
g17
sg18
F-99.09315722987624
sg19
F2.6611586626015367
sg20
I65216
sg21
S'47.6376201445'
p218
sg23
F0.43455983304988233
sbasg27
I00
sg28
I00
sg29
I65086
sg21
S'47.6460078027'
p219
sba(igraph
Edge
p220
(dp221
g8
I1
sg9
I01
sg10
I5
sg11
(lp222
g216
a(igraph
Vertex
p223
(dp224
g15
F0.69484681254008829
sg9
I01
sg16
g17
sg18
F-116.5056802444617
sg19
F32.450005701891683
sg20
I65218
sg21
S'47.6378718524'
p225
sg23
F0.35647677020420759
sbasg27
I00
sg28
I00
sg29
I65088
sg21
S'47.6465212757'
p226
sba(igraph
Edge
p227
(dp228
g8
I1
sg9
I01
sg10
I5
sg11
(lp229
g223
a(igraph
Vertex
p230
(dp231
g15
F0.77835615004812186
sg9
I01
sg16
g17
sg18
F-98.725114028055827
sg19
F62.429857867275757
sg20
I65220
sg21
S'47.6381548493'
p232
sg23
F0.43621025099526534
sbasg27
I00
sg28
I00
sg29
I65090
sg21
S'47.6470724631'
p233
sba(igraph
Edge
p234
(dp235
g8
I1
sg9
I01
sg10
I5
sg11
(lp236
g230
a(igraph
Vertex
p237
(dp238
g15
F0.7777518767480831
sg9
I01
sg16
g17
sg18
F-61.608412244212303
sg19
F62.212923752561835
sg20
I65222
sg21
S'47.638421643'
p239
sg23
F0.6026528598914247
sbasg27
I00
sg28
I00
sg29
I65092
sg21
S'47.6476077267'
p240
sba(igraph
Edge
p241
(dp242
g8
I1
sg9
I01
sg10
I5
sg11
(lp243
g237
ag184
asg27
I00
sg28
I00
sg29
I65094
sg21
S'47.6481795871'
p244
sba(igraph
Edge
p245
(dp246
g8
I1
sg9
I01
sg10
I5
sg11
(lp247
g142
ag174
asg27
I00
sg28
I00
sg29
I65096
sg21
S'47.6487559173'
p248
sba(igraph
Edge
p249
(dp250
g8
I1
sg9
I01
sg10
I5
sg11
(lp251
g167
ag216
asg27
I00
sg28
I00
sg29
I65098
sg21
S'47.6493367174'
p252
sba(igraph
Edge
p253
(dp254
g8
I1
sg9
I01
sg10
I5
sg11
(lp255
g205
ag103
asg27
I00
sg28
I0
sg29
I65100
sg21
S'57.0056831245'
p256
sba(igraph
Edge
p257
(dp258
g8
I1
sg9
I01
sg10
I5
sg11
(lp259
g149
ag96
asg27
I00
sg28
I00
sg29
I65102
sg21
S'59.5749415079'
p260
sba(igraph
Edge
p261
(dp262
g8
I1
sg9
I01
sg10
I5
sg11
(lp263
g156
ag58
asg27
I00
sg28
I00
sg29
I65104
sg21
S'62.3296765371'
p264
sba(igraph
Edge
p265
(dp266
g8
I1
sg9
I01
sg10
I5
sg11
(lp267
g110
a(igraph
Vertex
p268
(dp269
S'xnorm'
p270
F0.53358841602363449
sg9
I01
sg16
g17
sg18
F-155.19644954696969
sg19
F-25.441758647515229
sg20
I65224
sg21
S'208.662874471'
p271
sS'ynorm'
p272
F0.18297556256964259
sbasg27
I00
sg28
I00
sg29
I65106
sg21
S'208.663384313'
p273
sba(igraph
Edge
p274
(dp275
g8
I1
sg9
I01
sg10
I5
sg11
(lp276
g268
a(igraph
Vertex
p277
(dp278
g270
F0.61644369078312644
sg9
I01
sg16
g17
sg18
F-172.62368881087153
sg19
F4.3032849911423909
sg20
I65226
sg21
S'210.367236339'
p279
sg272
F0.10482650757456716
sbasg27
I00
sg28
I00
sg29
I65108
sg21
S'210.367765456'
p280
sba(igraph
Edge
p281
(dp282
g8
I1
sg9
I01
sg10
I5
sg11
(lp283
g277
a(igraph
Vertex
p284
(dp285
g270
F0.69653043425822614
sg9
I01
sg16
g17
sg18
F-153.84465337924883
sg19
F33.054425898703187
sg20
I65228
sg21
S'214.045870355'
p286
sg272
F0.18903742879260615
sbasg27
I00
sg28
I00
sg29
I65110
sg21
S'214.046426292'
p287
sba(igraph
Edge
p288
(dp289
g8
I1
sg9
I01
sg10
I5
sg11
(lp290
g284
a(igraph
Vertex
p291
(dp292
g270
F0.78102894733400496
sg9
I01
sg16
g17
sg18
F-170.76478401898515
sg19
F63.389392092907769
sg20
I65230
sg21
S'214.951515067'
p293
sg272
F0.11316240350230881
sbasg27
I00
sg28
I00
sg29
I65112
sg21
S'214.952100337'
p294
sba(igraph
Edge
p295
(dp296
g8
I1
sg9
I01
sg10
I5
sg11
(lp297
(igraph
Vertex
p298
(dp299
g270
F0.77850690280696055
sg9
I01
sg16
g17
sg18
F10.539630633960883
sg19
F62.483978107698817
sg20
I65232
sg21
S'216.698812279'
p300
sg272
F0.92618668445722363
sbag191
asg27
I00
sg28
I00
sg29
I65114
sg21
S'218.180096912'
p301
sba(igraph
Edge
p302
(dp303
g8
I1
sg9
I01
sg10
I5
sg11
(lp304
g51
a(igraph
Vertex
p305
(dp306
g270
F0.12438936465156697
sg9
I01
sg16
g17
sg18
F-99.050383950457388
sg19
F-172.34421809008745
sg20
I65234
sg21
S'221.999522844'
p307
sg272
F0.43475164147776957
sbasg27
I00
sg28
I00
sg29
I65116
sg21
S'222.000120965'
p308
sba(igraph
Edge
p309
(dp310
g8
I1
sg9
I01
sg10
I5
sg11
(lp311
g305
a(igraph
Vertex
p312
(dp313
g270
F0.20987617396288477
sg9
I01
sg16
g17
sg18
F-117.33038017173317
sg19
F-141.65445354732435
sg20
I65236
sg21
S'223.870878561'
p314
sg272
F0.35277856425231763
sbasg27
I00
sg28
I00
sg29
I65118
sg21
S'223.871479476'
p315
sba(igraph
Edge
p316
(dp317
g8
I1
sg9
I01
sg10
I5
sg11
(lp318
g312
ag125
asg27
I00
sg28
I00
sg29
I65120
sg21
S'225.207776128'
p319
sba(igraph
Edge
p320
(dp321
g8
I1
sg9
I01
sg10
I5
sg11
(lp322
g305
a(igraph
Vertex
p323
(dp324
g270
F0.041704603996646064
sg9
I01
sg16
g17
sg18
F-118.02157484156638
sg19
F-202.02804716520404
sg20
I65238
sg21
S'227.0586555'
p325
sg272
F0.34967903658490412
sbasg27
I00
sg28
I00
sg29
I65122
sg21
S'227.059281557'
p326
sba(igraph
Edge
p327
(dp328
g8
I1
sg9
I01
sg10
I5
sg11
(lp329
(igraph
Vertex
p330
(dp331
g270
F0.94715310677652342
sg9
I01
sg16
g17
sg18
F-97.472611750228879
sg19
F123.02796533277188
sg20
I65240
sg21
S'228.375246854'
p332
sg272
F0.44182685313798709
sba(igraph
Vertex
p333
(dp334
g270
F0.9467834628006695
sg9
I01
sg16
g17
sg18
F-62.126980589317725
sg19
F122.89526314544037
sg20
I65242
sg21
S'229.386220874'
p335
sg272
F0.60032744130350801
sbasg27
I00
sg28
I00
sg29
I65124
sg21
S'229.386876265'
p336
sba(igraph
Edge
p337
(dp338
g8
I1
sg9
I01
sg10
I5
sg11
(lp339
(igraph
Vertex
p340
(dp341
g15
F0.94439729623376623
sg9
I01
sg16
g17
sg18
F11.156211651962082
sg19
F122.0386293479221
sg20
I65156
sg21
S'3.63174649292e-06'
p342
sg23
F0.92895162175767754
sba(igraph
Vertex
p343
(dp344
g270
F0.86384841628847975
sg9
I01
sg16
g17
sg18
F-6.8741750141836064
sg19
F93.121581447564211
sg20
I65244
sg21
S'238.086519376'
p345
sg272
F0.84809786989155334
sbasg27
I00
sg28
I00
sg29
I65126
sg21
S'238.087185941'
p346
sba(igraph
Edge
p347
(dp348
g8
I1
sg9
I01
sg10
I5
sg11
(lp349
g343
a(igraph
Vertex
p350
(dp351
g270
F0.86291733024350326
sg9
I01
sg16
g17
sg18
F-43.94532513010796
sg19
F92.78732155741767
sg20
I65246
sg21
S'239.078142334'
p352
sg272
F0.68185952856453824
sbasg27
I00
sg28
I00
sg29
I65128
sg21
S'239.078839908'
p353
sba(igraph
Edge
p354
(dp355
g8
I1
sg9
I01
sg10
I5
sg11
(lp356
g350
ag333
asg27
I00
sg28
I00
sg29
I65130
sg21
S'240.502700762'
p357
sba(igraph
Edge
p358
(dp359
g8
I1
sg9
I01
sg10
I5
sg11
(lp360
(igraph
Vertex
p361
(dp362
g15
F0.94608464849260088
sg9
I01
sg16
g17
sg18
F-170.901169170994
sg19
F122.6443888088437
sg20
I65166
sg21
S'4.12824451152'
p363
sg23
F0.11255081089240358
sba(igraph
Vertex
p364
(dp365
g270
F0.86568558767401893
sg9
I01
sg16
g17
sg18
F-153.04323342450016
sg19
F93.781125974972781
sg20
I65248
sg21
S'247.633492246'
p366
sg272
F0.19263124024887823
sbasg27
I00
sg28
I00
sg29
I65132
sg21
S'247.634193452'
p367
sba(igraph
Edge
p368
(dp369
g8
I1
sg9
I01
sg10
I5
sg11
(lp370
g330
a(igraph
Vertex
p371
(dp372
g270
F0.86381801731714025
sg9
I01
sg16
g17
sg18
F-115.91418460094361
sg19
F93.110668216853355
sg20
I65250
sg21
S'252.604905651'
p373
sg272
F0.35912921703612732
sbasg27
I00
sg28
I00
sg29
I65134
sg21
S'252.605636471'
p374
sba(igraph
Edge
p375
(dp376
g8
I1
sg9
I01
sS'altline'
p377
I1484879
sg10
I5
sg11
(lp378
g364
ag291
asg27
I00
sg28
I00
sg29
I65136
sg21
S'267.175950295'
p379
sba(igraph
Edge
p380
(dp381
g8
I1
sg9
I01
sg377
I1484883
sg10
I5
sg11
(lp382
g343
ag298
asg27
I00
sg28
I00
sg29
I65138
sg21
S'274.863613113'
p383
sba(igraph
Edge
p384
(dp385
g8
I1
sg9
I01
sg377
I1484887
sg10
I5
sg11
(lp386
g237
ag350
asg27
I00
sg28
I00
sg29
I65140
sg21
S'278.329680169'
p387
sba(igraph
Edge
p388
(dp389
g8
I1
sg9
I01
sg377
I1484891
sg10
I5
sg11
(lp390
g371
ag230
asg27
I00
sg28
I00
sg29
I65142
sg21
S'283.534864068'
p391
sba(igraph
Edge
p392
(dp393
g8
I1
sg9
I01
sg377
I1484895
sg10
I5
sg11
(lp394
g364
ag371
asg27
I00
sg28
I00
sg29
I65144
sg21
S'312.399312762'
p395
sba(igraph
Edge
p396
(dp397
g8
I1
sg9
I01
sg377
I1484899
sg10
I5
sg11
(lp398
g37
ag323
asg27
I00
sg28
I00
sg29
I65146
sg21
S'315.339213783'
p399
sba(igraph
Edge
p400
(dp401
g8
I1
sg9
I01
sg377
I1484903
sg10
I5
sg11
(lp402
g76
ag312
asg27
I00
sg28
I00
sg29
I65148
sg21
S'318.720244053'
p403
sba(igraph
Edge
p404
(dp405
g8
I1
sg9
I01
sg377
I1484907
sg10
I5
sg11
(lp406
g128
ag86
asg27
I00
sg28
I00
sg29
I65150
sg21
S'322.161798776'
p407
sba(igraph
Edge
p408
(dp409
g8
I1
sg9
I01
sg377
I1484911
sg10
I5
sg11
(lp410
g268
ag167
asg27
I00
sg28
I00
sg29
I65152
sg21
S'325.952051169'
p411
sba(igraph
Edge
p412
(dp413
g8
I1
sg9
I01
sg377
I1484915
sg10
I5
sg11
(lp414
g284
ag223
asg27
I00
sg28
I00
sg29
I65154
sg21
S'419.169241342'
p415
sbasS'vertices'
p416
(lp417
g340
ag13
ag24
ag34
ag37
ag361
ag44
ag51
ag58
ag65
ag76
ag79
ag86
ag93
ag96
ag103
ag110
ag125
ag128
ag135
ag142
ag149
ag156
ag167
ag174
ag177
ag184
ag191
ag198
ag205
ag216
ag223
ag230
ag237
ag268
ag277
ag284
ag291
ag298
ag305
ag312
ag323
ag330
ag333
ag343
ag350
ag364
ag371
asS'tags'
p418
(lp419
sb.