(igraph
Graph
p0
(dp1
S'labelingConstraints'
p2
(lp3
I2
aI1
asS'edges'
p4
(lp5
(igraph
Edge
p6
(dp7
S'direction'
p8
I1
sS'selected'
p9
I00
sS'height'
p10
I5
sS'vs'
p11
(lp12
(igraph
Vertex
p13
(dp14
S'xnorm'
p15
F0.017276279151808183
sg9
I00
sS'label'
p16
S'NULL'
p17
sS'y'
p18
F58.097720698217515
sS'x'
p19
F-230.634018643952
sS'circle'
p20
I842334
sS'id'
p21
S'0.00334847026647'
p22
sS'ynorm'
p23
F0.7099572541489011
sba(igraph
Vertex
p24
(dp25
g15
F0.10221558388069611
sg9
I00
sg16
g17
sg18
F85.710598105937592
sg19
F-182.37746256063244
sg20
I842335
sg21
S'1.082144239'
p26
sg23
F0.77657399256231963
sbasS'wrap'
p27
I00
sS'curved'
p28
I00
sS'line'
p29
I842271
sg21
S'1.08253199778'
p30
sba(igraph
Edge
p31
(dp32
g8
I1
sg9
I00
sg10
I5
sg11
(lp33
(igraph
Vertex
p34
(dp35
g15
F0.10245286864072739
sg9
I00
sg16
g17
sg18
F-199.35041056155299
sg19
F-182.05541973246673
sg20
I842336
sg21
S'2.44139716081'
p36
sg23
F0.088826405630148278
sba(igraph
Vertex
p37
(dp38
g15
F0.017090202371660368
sg9
I00
sg16
g17
sg18
F-171.98299972363762
sg19
F-230.52382835524162
sg20
I842337
sg21
S'3.34591882488'
p39
sg23
F0.15599380998685716
sbasg27
I00
sg28
I00
sg29
I842272
sg21
S'3.34599537092'
p40
sba(igraph
Edge
p41
(dp42
g8
I1
sg9
I00
sg10
I5
sg11
(lp43
g13
a(igraph
Vertex
p44
(dp45
g15
F0.018767531088789074
sg9
I00
sg16
g17
sg18
F1.7175578097730038
sg19
F-229.34214977756918
sg20
I842339
sg21
S'7.55801365816'
p46
sg23
F0.57341966062602701
sbasg27
I00
sg28
I00
sg29
I842273
sg21
S'7.55811674389'
p47
sba(igraph
Edge
p48
(dp49
g8
I1
sg9
I00
sg10
I5
sg11
(lp50
g44
a(igraph
Vertex
p51
(dp52
g15
F0.10394981752916019
sg9
I00
sg16
g17
sg18
F-28.12971651637481
sg19
F-180.31878952186321
sg20
I842340
sg21
S'8.21727705616'
p53
sg23
F0.50224800024087901
sbasg27
I00
sg28
I00
sg29
I842274
sg21
S'8.21739159586'
p54
sba(igraph
Edge
p55
(dp56
g8
I1
sg9
I00
sg10
I5
sg11
(lp57
g51
a(igraph
Vertex
p58
(dp59
g15
F0.19167980846556093
sg9
I00
sg16
g17
sg18
F0.71067859729007876
sg19
F-129.97121757081231
sg20
I842341
sg21
S'9.4550095054'
p60
sg23
F0.57057837905450637
sbasg27
I00
sg28
I00
sg29
I842275
sg21
S'9.45513633716'
p61
sba(igraph
Edge
p62
(dp63
g8
I1
sg9
I00
sg10
I5
sg11
(lp64
g58
a(igraph
Vertex
p65
(dp66
g15
F0.19034582013895993
sg9
I00
sg16
g17
sg18
F58.808216841896687
sg19
F-130.93967966212495
sg20
I842342
sg21
S'10.3445141771'
p67
sg23
F0.71085846291038679
sbasg27
I00
sg28
I00
sg29
I842276
sg21
S'10.3446555358'
p68
sba(igraph
Edge
p69
(dp70
g8
I1
sg9
I00
sg10
I5
sg11
(lp71
g65
ag24
asg27
I00
sg28
I00
sg29
I842277
sg21
S'11.6017985526'
p72
sba(igraph
Edge
p73
(dp74
g8
I1
sg9
I00
sg10
I5
sg11
(lp75
(igraph
Vertex
p76
(dp77
g15
F0.19000283376305349
sg9
I00
sg16
g17
sg18
F-172.92068772168864
sg19
F-130.86096386244731
sg20
I842343
sg21
S'31.9893469701'
p78
sg23
F0.15333410301987557
sba(igraph
Vertex
p79
(dp80
g15
F0.27614683843575838
sg9
I00
sg16
g17
sg18
F-201.87379728933399
sg19
F-82.107443577719494
sg20
I842344
sg21
S'31.9897218781'
p81
sg23
F0.087098979979943952
sbasg27
I00
sg28
I00
sg29
I842278
sg21
S'31.9913570021'
p82
sba(igraph
Edge
p83
(dp84
g8
I1
sg9
I00
sg10
I5
sg11
(lp85
g79
a(igraph
Vertex
p86
(dp87
g15
F0.36347159621798181
sg9
I00
sg16
g17
sg18
F-174.50962168654434
sg19
F-32.692532541965377
sg20
I842345
sg21
S'31.9898054082'
p88
sg23
F0.15157517789773495
sbasg27
I00
sg28
I00
sg29
I842279
sg21
S'31.9917553767'
p89
sba(igraph
Edge
p90
(dp91
g8
I1
sg9
I00
sg10
I5
sg11
(lp92
(igraph
Vertex
p93
(dp94
g15
F0.27592012836352436
sg9
I00
sg16
g17
sg18
F88.421815925779015
sg19
F-82.395485689020035
sg20
I842346
sg21
S'31.9901976369'
p95
sg23
F0.777337658894941
sba(igraph
Vertex
p96
(dp97
g15
F0.36291229362442468
sg9
I00
sg16
g17
sg18
F60.969842714419677
sg19
F-33.469080462935409
sg20
I842347
sg21
S'31.9903124559'
p98
sg23
F0.71283516990630713
sbasg27
I00
sg28
I00
sg29
I842280
sg21
S'31.9930357071'
p99
sba(igraph
Edge
p100
(dp101
g8
I1
sg9
I00
sg10
I5
sg11
(lp102
g96
a(igraph
Vertex
p103
(dp104
g15
F0.44791212230613425
sg9
I00
sg16
g17
sg18
F90.37968429467773
sg19
F13.180921253482049
sg20
I842348
sg21
S'31.9904459924'
p105
sg23
F0.77993383709566799
sbasg27
I00
sg28
I00
sg29
I842281
sg21
S'31.993287415'
p106
sba(igraph
Edge
p107
(dp108
g8
I1
sg9
I00
sg10
I5
sg11
(lp109
(igraph
Vertex
p110
(dp111
g15
F0.44978262223349813
sg9
I00
sg16
g17
sg18
F-203.31502741302413
sg19
F14.468076190524
sg20
I842349
sg21
S'31.9905879099'
p112
sg23
F0.086648098045088703
sbag86
asg27
I00
sg28
I00
sg29
I842282
sg21
S'31.9938517326'
p113
sba(igraph
Edge
p114
(dp115
g8
I1
sg9
I00
sg10
I5
sg11
(lp116
g34
ag76
asg27
I00
sg28
I00
sg29
I842283
sg21
S'36.1774440606'
p117
sba(igraph
Edge
p118
(dp119
g8
I1
sg9
I00
sg10
I5
sg11
(lp120
g65
ag93
asg27
I00
sg28
I00
sg29
I842284
sg21
S'41.8953959232'
p121
sba(igraph
Edge
p122
(dp123
g8
I1
sg9
I00
sg10
I5
sg11
(lp124
(igraph
Vertex
p125
(dp126
g15
F0.27781703536816166
sg9
I00
sg16
g17
sg18
F-86.351622312487009
sg19
F-80.21785960349861
sg20
I842350
sg21
S'47.6344292361'
p127
sg23
F0.36127194919253242
sba(igraph
Vertex
p128
(dp129
g15
F0.36371098385825718
sg9
I00
sg16
g17
sg18
F-115.35999948324307
sg19
F-32.376675760593969
sg20
I842351
sg21
S'47.6345772996'
p130
sg23
F0.29400674821085138
sbasg27
I00
sg28
I00
sg29
I842285
sg21
S'47.6388675097'
p131
sba(igraph
Edge
p132
(dp133
g8
I1
sg9
I00
sg10
I5
sg11
(lp134
g128
a(igraph
Vertex
p135
(dp136
g15
F0.44907443077605319
sg9
I00
sg16
g17
sg18
F-86.34018323404527
sg19
F14.555573427911224
sg20
I842352
sg21
S'47.63472676'
p137
sg23
F0.36101901693219179
sbasg27
I00
sg28
I00
sg29
I842286
sg21
S'47.6392061002'
p138
sba(igraph
Edge
p139
(dp140
g8
I1
sg9
I00
sg10
I5
sg11
(lp141
g135
a(igraph
Vertex
p142
(dp143
g15
F0.4491145471460547
sg9
I00
sg16
g17
sg18
F-27.007146845014724
sg19
F14.583565811582179
sg20
I842353
sg21
S'47.6348840425'
p144
sg23
F0.50360660477504282
sbasg27
I00
sg28
I00
sg29
I842287
sg21
S'47.6395335161'
p145
sba(igraph
Edge
p146
(dp147
g8
I1
sg9
I00
sg10
I5
sg11
(lp148
g142
a(igraph
Vertex
p149
(dp150
g15
F0.36366084305152507
sg9
I00
sg16
g17
sg18
F1.8973084296400757
sg19
F-32.750773261865312
sg20
I842354
sg21
S'47.6350645124'
p151
sg23
F0.57073182472243833
sbasg27
I00
sg28
I00
sg29
I842288
sg21
S'47.6398846781'
p152
sba(igraph
Edge
p153
(dp154
g8
I1
sg9
I00
sg10
I5
sg11
(lp155
g149
a(igraph
Vertex
p156
(dp157
g15
F0.27774864929492299
sg9
I00
sg16
g17
sg18
F-27.376850922246224
sg19
F-80.341577323252707
sg20
I842355
sg21
S'47.6352438648'
p158
sg23
F0.50343405333335456
sbasg27
I00
sg28
I00
sg29
I842289
sg21
S'47.6402498083'
p159
sba(igraph
Edge
p160
(dp161
g8
I1
sg9
I00
sg10
I5
sg11
(lp162
g156
ag125
asg27
I00
sg28
I00
sg29
I842290
sg21
S'47.6406110274'
p163
sba(igraph
Edge
p164
(dp165
g8
I1
sg9
I00
sg10
I5
sg11
(lp166
(igraph
Vertex
p167
(dp168
g15
F0.5354877110074342
sg9
I00
sg16
g17
sg18
F-115.11742280600095
sg19
F61.600626876799822
sg20
I842356
sg21
S'47.6360087665'
p169
sg23
F0.29544033759609029
sbag135
asg27
I00
sg28
I00
sg29
I842291
sg21
S'47.6426470403'
p170
sba(igraph
Edge
p171
(dp172
g8
I1
sg9
I00
sg10
I5
sg11
(lp173
(igraph
Vertex
p174
(dp175
g15
F0.53364445792298321
sg9
I00
sg16
g17
sg18
F2.498116920727834
sg19
F60.716201952927619
sg20
I842357
sg21
S'47.6362244363'
p176
sg23
F0.57118545129461529
sba(igraph
Vertex
p177
(dp178
g15
F0.62008345252123653
sg9
I00
sg16
g17
sg18
F-26.385859458524639
sg19
F107.74747973148871
sg20
I842358
sg21
S'47.6364373126'
p179
sg23
F0.50567635610037809
sbasg27
I00
sg28
I00
sg29
I842292
sg21
S'47.6431024055'
p180
sba(igraph
Edge
p181
(dp182
g8
I1
sg9
I00
sg10
I5
sg11
(lp183
g177
a(igraph
Vertex
p184
(dp185
g15
F0.70647421326884752
sg9
I00
sg16
g17
sg18
F1.8644613369493741
sg19
F156.7393020563417
sg20
I842359
sg21
S'47.6366557761'
p186
sg23
F0.57215318906176638
sbasg27
I00
sg28
I00
sg29
I842293
sg21
S'47.6435454785'
p187
sba(igraph
Edge
p188
(dp189
g8
I1
sg9
I00
sg10
I5
sg11
(lp190
g184
a(igraph
Vertex
p191
(dp192
g15
F0.70695514974776508
sg9
I00
sg16
g17
sg18
F60.637056744299763
sg19
F157.16864447728307
sg20
I842360
sg21
S'47.6368803856'
p193
sg23
F0.71403531175765655
sbasg27
I00
sg28
I00
sg29
I842294
sg21
S'47.6440259865'
p194
sba(igraph
Edge
p195
(dp196
g8
I1
sg9
I00
sg10
I5
sg11
(lp197
g191
a(igraph
Vertex
p198
(dp199
g15
F0.61984825868334981
sg9
I00
sg16
g17
sg18
F89.780934045104331
sg19
F109.63369275629445
sg20
I842361
sg21
S'47.6371362841'
p200
sg23
F0.7801195803045593
sbasg27
I00
sg28
I00
sg29
I842295
sg21
S'47.6444914088'
p201
sba(igraph
Edge
p202
(dp203
g8
I1
sg9
I00
sg10
I5
sg11
(lp204
g198
a(igraph
Vertex
p205
(dp206
g15
F0.53341254277412964
sg9
I00
sg16
g17
sg18
F61.765896760613387
sg19
F60.758382559605252
sg20
I842362
sg21
S'47.6373748619'
p207
sg23
F0.71384822966283568
sbasg27
I00
sg28
I00
sg29
I842296
sg21
S'47.6449923105'
p208
sba(igraph
Edge
p209
(dp210
g8
I1
sg9
I00
sg10
I5
sg11
(lp211
g205
ag174
asg27
I00
sg28
I00
sg29
I842297
sg21
S'47.6454817582'
p212
sba(igraph
Edge
p213
(dp214
g8
I1
sg9
I00
sg10
I5
sg11
(lp215
g177
a(igraph
Vertex
p216
(dp217
g15
F0.62065397180670501
sg9
I00
sg16
g17
sg18
F-85.600378933391525
sg19
F108.22675746033455
sg20
I842363
sg21
S'47.6376201445'
p218
sg23
F0.36308132494020529
sbasg27
I00
sg28
I00
sg29
I842298
sg21
S'47.6460078027'
p219
sba(igraph
Edge
p220
(dp221
g8
I1
sg9
I00
sg10
I5
sg11
(lp222
g216
a(igraph
Vertex
p223
(dp224
g15
F0.70757215313224386
sg9
I00
sg16
g17
sg18
F-113.16370011791471
sg19
F157.34931302373232
sg20
I842364
sg21
S'47.6378718524'
p225
sg23
F0.29790196034322258
sbasg27
I00
sg28
I00
sg29
I842299
sg21
S'47.6465212757'
p226
sba(igraph
Edge
p227
(dp228
g8
I1
sg9
I00
sg10
I5
sg11
(lp229
g223
a(igraph
Vertex
p230
(dp231
g15
F0.7944209149827739
sg9
I00
sg16
g17
sg18
F-85.017781398671318
sg19
F206.78684082848812
sg20
I842365
sg21
S'47.6381548493'
p232
sg23
F0.36439264985878683
sbasg27
I00
sg28
I00
sg29
I842300
sg21
S'47.6470724631'
p233
sba(igraph
Edge
p234
(dp235
g8
I1
sg9
I00
sg10
I5
sg11
(lp236
g230
a(igraph
Vertex
p237
(dp238
g15
F0.79378292488435143
sg9
I00
sg16
g17
sg18
F-26.2635404583271
sg19
F206.42911103486514
sg20
I842366
sg21
S'47.638421643'
p239
sg23
F0.50597760540035652
sbasg27
I00
sg28
I00
sg29
I842301
sg21
S'47.6476077267'
p240
sba(igraph
Edge
p241
(dp242
g8
I1
sg9
I00
sg10
I5
sg11
(lp243
g237
ag184
asg27
I00
sg28
I00
sg29
I842302
sg21
S'47.6481795871'
p244
sba(igraph
Edge
p245
(dp246
g8
I1
sg9
I00
sg10
I5
sg11
(lp247
g142
ag174
asg27
I00
sg28
I00
sg29
I842303
sg21
S'47.6487559173'
p248
sba(igraph
Edge
p249
(dp250
g8
I1
sg9
I00
sg10
I5
sg11
(lp251
g167
ag216
asg27
I00
sg28
I00
sg29
I842304
sg21
S'47.6493367174'
p252
sba(igraph
Edge
p253
(dp254
g8
I1
sg9
I00
sg10
I5
sg11
(lp255
g205
ag103
asg27
I00
sg28
I0
sg29
I842305
sg21
S'57.0056831245'
p256
sba(igraph
Edge
p257
(dp258
g8
I1
sg9
I00
sg10
I5
sg11
(lp259
g149
ag96
asg27
I00
sg28
I00
sg29
I842306
sg21
S'59.5749415079'
p260
sba(igraph
Edge
p261
(dp262
g8
I1
sg9
I00
sg10
I5
sg11
(lp263
g156
ag58
asg27
I00
sg28
I00
sg29
I842307
sg21
S'62.3296765371'
p264
sba(igraph
Edge
p265
(dp266
g8
I1
sg9
I00
sg10
I5
sg11
(lp267
g110
a(igraph
Vertex
p268
(dp269
S'xnorm'
p270
F0.5360052941494351
sg18
F-174.40962641291617
sg19
F61.884342285991636
sg20
I842367
sg9
I00
sg21
S'208.662874471'
p271
sS'ynorm'
p272
F0.15273044633784311
sg16
g17
sbasg27
I00
sg28
I00
sg29
I842308
sg21
S'208.663384313'
p273
sba(igraph
Edge
p274
(dp275
g8
I1
sg9
I00
sg10
I5
sg11
(lp276
g268
a(igraph
Vertex
p277
(dp278
g270
F0.62273998998551727
sg18
F-201.99624282617779
sg19
F110.9346649436109
sg20
I842368
sg9
I00
sg21
S'210.367236339'
p279
sg272
F0.08757761743502411
sg16
g17
sbasg27
I00
sg28
I00
sg29
I842309
sg21
S'210.367765456'
p280
sba(igraph
Edge
p281
(dp282
g8
I1
sg9
I00
sg10
I5
sg11
(lp283
g277
a(igraph
Vertex
p284
(dp285
g270
F0.70884449725585874
sg18
F-172.26978763621003
sg19
F158.34601708086984
sg20
I842369
sg9
I00
sg21
S'214.045870355'
p286
sg272
F0.15562647116828882
sg16
g17
sbasg27
I00
sg28
I00
sg29
I842310
sg21
S'214.046426292'
p287
sba(igraph
Edge
p288
(dp289
g8
I1
sg9
I00
sg10
I5
sg11
(lp290
g284
a(igraph
Vertex
p291
(dp292
g270
F0.79513897967343994
sg18
F-199.05367156368499
sg19
F208.36913682173093
sg20
I842370
sg9
I00
sg21
S'214.951515067'
p293
sg272
F0.090472116792991997
sg16
g17
sbasg27
I00
sg28
I00
sg29
I842311
sg21
S'214.952100337'
p294
sba(igraph
Edge
p295
(dp296
g8
I1
sg9
I00
sg10
I5
sg11
(lp297
(igraph
Vertex
p298
(dp299
g270
F0.79289295656244674
sg18
F87.94389961339995
sg19
F206.87608646172066
sg20
I842371
sg9
I00
sg21
S'216.698812279'
p300
sg272
F0.78066102964447248
sg16
g17
sbag191
asg27
I00
sg28
I00
sg29
I842312
sg21
S'218.180096912'
p301
sba(igraph
Edge
p302
(dp303
g8
I1
sg9
I00
sg10
I5
sg11
(lp304
g51
a(igraph
Vertex
p305
(dp306
g270
F0.10393669673098725
sg18
F-85.532670558347348
sg19
F-180.36149612627236
sg20
I842372
sg9
I00
sg21
S'221.999522844'
p307
sg272
F0.36350147833740232
sg16
g17
sbasg27
I00
sg28
I00
sg29
I842313
sg21
S'222.000120965'
p308
sba(igraph
Edge
p309
(dp310
g8
I1
sg9
I00
sg10
I5
sg11
(lp311
g305
a(igraph
Vertex
p312
(dp313
g270
F0.19158305078317397
sg18
F-114.46916681893187
sg19
F-129.75330501397221
sg20
I842373
sg9
I00
sg21
S'223.870878561'
p314
sg272
F0.2944640351266814
sg16
g17
sbasg27
I00
sg28
I00
sg29
I842314
sg21
S'223.871479476'
p315
sba(igraph
Edge
p316
(dp317
g8
I1
sg9
I00
sg10
I5
sg11
(lp318
g312
ag125
asg27
I00
sg28
I00
sg29
I842315
sg21
S'225.207776128'
p319
sba(igraph
Edge
p320
(dp321
g8
I1
sg9
I00
sg10
I5
sg11
(lp322
g305
a(igraph
Vertex
p323
(dp324
g270
F0.018421927723887163
sg18
F-115.56330008552885
sg19
F-229.31087443398553
sg20
I842374
sg9
I00
sg21
S'227.0586555'
p325
sg272
F0.29238663073273907
sg16
g17
sbasg27
I00
sg28
I00
sg29
I842316
sg21
S'227.059281557'
p326
sba(igraph
Edge
p327
(dp328
g8
I1
sg9
I00
sg10
I5
sg11
(lp329
(igraph
Vertex
p330
(dp331
g270
F0.96673187289239437
sg18
F-83.035120842290539
sg19
F306.71463921170186
sg20
I842375
sg9
I00
sg21
S'228.375246854'
p332
sg272
F0.36812968280195241
sg16
g17
sba(igraph
Vertex
p333
(dp334
g270
F0.96655460575227692
sg18
F-27.084413219861673
sg19
F306.49580997799637
sg20
I842376
sg9
I00
sg21
S'229.386220874'
p335
sg272
F0.50476789983527692
sg16
g17
sbasg27
I00
sg28
I00
sg29
I842317
sg21
S'229.386876265'
p336
sba(igraph
Edge
p337
(dp338
g8
I1
sg9
I00
sg10
I5
sg11
(lp339
(igraph
Vertex
p340
(dp341
g15
F0.96499292373152834
sg9
I00
sg16
g17
sg18
F88.919922480460144
sg19
F305.08319937038965
sg20
I842333
sg21
S'3.63174649292e-06'
p342
sg23
F0.78264933791209879
sba(igraph
Vertex
p343
(dp344
g270
F0.88104537011644801
sg18
F60.378548071718313
sg19
F257.39826244277998
sg20
I842377
sg9
I00
sg21
S'238.086519376'
p345
sg272
F0.71506175330292521
sg16
g17
sbasg27
I00
sg28
I00
sg29
I842318
sg21
S'238.087185941'
p346
sba(igraph
Edge
p347
(dp348
g8
I1
sg9
I00
sg10
I5
sg11
(lp349
g343
a(igraph
Vertex
p350
(dp351
g270
F0.88017028931108121
sg18
F1.6964135832819747
sg19
F256.84705950415395
sg20
I842378
sg9
I00
sg21
S'239.078142334'
p352
sg272
F0.57356316426390674
sg16
g17
sbasg27
I00
sg28
I00
sg29
I842319
sg21
S'239.078839908'
p353
sba(igraph
Edge
p354
(dp355
g8
I1
sg9
I00
sg10
I5
sg11
(lp356
g350
ag333
asg27
I00
sg28
I00
sg29
I842320
sg21
S'240.502700762'
p357
sba(igraph
Edge
p358
(dp359
g8
I1
sg9
I00
sg10
I5
sg11
(lp360
(igraph
Vertex
p361
(dp362
g15
F0.96449458574675284
sg9
I00
sg16
g17
sg18
F-199.26956375498153
sg19
F306.08211190761966
sg20
I842338
sg21
S'4.12824451152'
p363
sg23
F0.088369029161728008
sba(igraph
Vertex
p364
(dp365
g270
F0.88291508183698508
sg18
F-171.00117219214599
sg19
F258.4858679030192
sg20
I842379
sg9
I00
sg21
S'247.633492246'
p366
sg272
F0.15666288489214936
sg16
g17
sbasg27
I00
sg28
I00
sg29
I842321
sg21
S'247.634193452'
p367
sba(igraph
Edge
p368
(dp369
g8
I1
sg9
I00
sg10
I5
sg11
(lp370
g330
a(igraph
Vertex
p371
(dp372
g270
F0.88119433994393548
sg18
F-112.22738638624706
sg19
F257.380266251747
sg20
I842380
sg9
I00
sg21
S'252.604905651'
p373
sg272
F0.29854792673209196
sg16
g17
sbasg27
I00
sg28
I00
sg29
I842322
sg21
S'252.605636471'
p374
sba(igraph
Edge
p375
(dp376
g8
I1
sg9
I00
sS'altline'
p377
I1484879
sg10
I5
sg11
(lp378
g364
ag291
asg27
I00
sg28
I00
sg29
I842323
sg21
S'267.175950295'
p379
sba(igraph
Edge
p380
(dp381
g8
I1
sg9
I00
sg377
I1484883
sg10
I5
sg11
(lp382
g343
ag298
asg27
I00
sg28
I00
sg29
I842324
sg21
S'274.863613113'
p383
sba(igraph
Edge
p384
(dp385
g8
I1
sg9
I00
sg377
I1484887
sg10
I5
sg11
(lp386
g237
ag350
asg27
I00
sg28
I00
sg29
I842325
sg21
S'278.329680169'
p387
sba(igraph
Edge
p388
(dp389
g8
I1
sg9
I00
sg377
I1484891
sg10
I5
sg11
(lp390
g371
ag230
asg27
I00
sg28
I00
sg29
I842326
sg21
S'283.534864068'
p391
sba(igraph
Edge
p392
(dp393
g8
I1
sg9
I00
sg377
I1484895
sg10
I5
sg11
(lp394
g364
ag371
asg27
I00
sg28
I00
sg29
I842327
sg21
S'312.399312762'
p395
sba(igraph
Edge
p396
(dp397
g8
I1
sg9
I00
sg377
I1484899
sg10
I5
sg11
(lp398
g37
ag323
asg27
I00
sg28
I00
sg29
I842328
sg21
S'315.339213783'
p399
sba(igraph
Edge
p400
(dp401
g8
I1
sg9
I00
sg377
I1484903
sg10
I5
sg11
(lp402
g76
ag312
asg27
I00
sg28
I00
sg29
I842329
sg21
S'318.720244053'
p403
sba(igraph
Edge
p404
(dp405
g8
I1
sg9
I00
sg377
I1484907
sg10
I5
sg11
(lp406
g128
ag86
asg27
I00
sg28
I00
sg29
I842330
sg21
S'322.161798776'
p407
sba(igraph
Edge
p408
(dp409
g8
I1
sg9
I00
sg377
I1484911
sg10
I5
sg11
(lp410
g268
ag167
asg27
I00
sg28
I00
sg29
I842331
sg21
S'325.952051169'
p411
sba(igraph
Edge
p412
(dp413
g8
I1
sg9
I00
sg377
I1484915
sg10
I5
sg11
(lp414
g284
ag223
asg27
I00
sg28
I00
sg29
I842332
sg21
S'419.169241342'
p415
sbasS'vertices'
p416
(lp417
g340
ag13
ag24
ag34
ag37
ag361
ag44
ag51
ag58
ag65
ag76
ag79
ag86
ag93
ag96
ag103
ag110
ag125
ag128
ag135
ag142
ag149
ag156
ag167
ag174
ag177
ag184
ag191
ag198
ag205
ag216
ag223
ag230
ag237
ag268
ag277
ag284
ag291
ag298
ag305
ag312
ag323
ag330
ag333
ag343
ag350
ag364
ag371
asS'tags'
p418
(lp419
sb.