(igraph
Graph
p0
(dp1
S'labelingConstraints'
p2
(lp3
I2
aI1
asS'edges'
p4
(lp5
(igraph
Edge
p6
(dp7
S'direction'
p8
F1.0
sS'color'
p9
S'black'
p10
sS'h'
p11
F-70.199999999999989
sS'k'
p12
F733.19500000000698
sS'selected'
p13
I00
sS'height'
p14
F8.7745517468791832
sS'start'
p15
F80.473201061030878
sS'vs'
p16
(lp17
(igraph
Vertex
p18
(dp19
g9
S'#ffffff'
p20
sS'text'
p21
I37582
sg13
I00
sS'label'
p22
I8
sS'lsize'
p23
I16
sS'shape'
p24
I0
sS'ly'
p25
I-12
sS'y'
p26
F105.75
sS'x'
p27
F35.100000000000023
sS'circle'
p28
I37581
sS'lcolor'
p29
g10
sS'id'
p30
S'61.9762059144'
p31
sS'lx'
p32
I-12
sS'size'
p33
I5
sba(igraph
Vertex
p34
(dp35
g9
g20
sg21
I37573
sg13
I00
sg22
I0
sg23
I16
sg24
I0
sg25
I-12
sg26
F105.75
sg27
F-175.5
sg28
I37572
sg29
g10
sg30
S'61.9757639588'
p36
sg32
I-12
sg33
I5
sbasS'extent'
p37
F19.053597877938259
sS'wrap'
p38
I00
sS'curved'
p39
I1
sS'line'
p40
I37556
sS'r'
p41
F636.21955174688617
sg30
S'61.9810649119'
p42
sg33
I1
sba(igraph
Edge
p43
(dp44
g8
F1.0
sg9
g10
sg11
F-35.099999999999994
sg12
F768.50937499999839
sg13
I00
sg14
F14.708077465718588
sg15
F78.03919973612868
sg16
(lp45
(igraph
Vertex
p46
(dp47
g9
g20
sg21
I37585
sg13
I00
sg22
I10
sg23
I16
sg24
I0
sg25
I-12
sg26
F105.75
sg27
F105.30000000000001
sg28
I37584
sg29
g10
sg30
S'61.9764020287'
p48
sg32
I-12
sg33
I5
sbag34
asg37
F23.921600527742669
sg38
I00
sg39
I1
sg40
I37557
sg41
F677.46745246571697
sg30
S'61.9813738897'
p49
sg33
I1
sba(igraph
Edge
p50
(dp51
g8
F1.0
sg9
g10
sg11
F0.0
sg12
F795.76249999999948
sg13
I00
sg14
F21.968890315961858
sg15
F75.729786972980889
sg16
(lp52
(igraph
Vertex
p53
(dp54
g9
g20
sg21
I37588
sg13
I00
sg22
I6
sg23
I16
sg24
I0
sg25
I-12
sg26
F105.75
sg27
F175.5
sg28
I37587
sg29
g10
sg30
S'61.9765850129'
p55
sg32
I-12
sg33
I5
sbag34
asg37
F28.540426054038221
sg38
I00
sg39
I1
sg40
I37558
sg41
F711.98139031596133
sg30
S'61.9816744866'
p56
sg33
I1
sba(igraph
Edge
p57
(dp58
g8
F1.0
sg9
g10
sg11
F-35.100000000000001
sg12
F-208.08833333333379
sg13
I00
sg14
F7.755415781049237
sg15
F-102.60848859538078
sg16
(lp59
(igraph
Vertex
p60
(dp61
g9
g20
sg21
I37576
sg13
I00
sg22
I2
sg23
I16
sg24
I0
sg25
I-12
sg26
F105.75
sg27
F-105.30000000000001
sg28
I37575
sg29
g10
sg30
S'61.9759028033'
p62
sg32
I-12
sg33
I5
sbag18
asg37
F25.21697719076154
sg38
I00
sg39
I1
sg40
I37559
sg41
F321.59374911438306
sg30
S'61.9854065251'
p63
sg33
I1
sba(igraph
Edge
p64
(dp65
g8
F1.0
sg9
g10
sg11
F0.0
sg12
F-360.55900000000116
sg13
I00
sg14
F11.741388014694508
sg15
F-102.72487235017864
sg16
(lp66
g60
ag46
asg37
F25.449744700357286
sg38
I00
sg39
I1
sg40
I37560
sg41
F478.05038801469567
sg30
S'61.9858191474'
p67
sg33
I1
sba(igraph
Edge
p68
(dp69
g8
F1.0
sg9
g10
sg11
F35.099999999999994
sg12
F-401.28500000000008
sg13
I00
sg14
F19.079674975902947
sg15
F-105.47762092221301
sg16
(lp70
g60
ag53
asg37
F30.955241844426013
sg38
I00
sg39
I1
sg40
I37561
sg41
F526.11467497590309
sg30
S'61.9862728364'
p71
sg33
I1
sba(igraph
Edge
p72
(dp73
g8
I1
sg9
g10
sg13
I00
sg14
I5
sg16
(lp74
(igraph
Vertex
p75
(dp76
g9
g20
sg21
I37579
sg13
I00
sg22
I4
sg23
I16
sg24
I0
sg25
I-12
sg26
F105.75
sg27
F-35.099999999999994
sg28
I37578
sg29
g10
sg30
S'61.9760522636'
p77
sg32
I-12
sg33
I5
sbag18
asg38
I00
sg39
I00
sg40
I37562
sg30
S'61.9913670592'
p78
sg33
I1
sba(igraph
Edge
p79
(dp80
g8
I1
sg9
g10
sg13
I00
sg14
I5
sg16
(lp81
g75
ag46
asg38
I00
sg39
I00
sg40
I37563
sg30
S'61.9919182466'
p82
sg33
I1
sba(igraph
Edge
p83
(dp84
g8
I1
sg9
g10
sg13
I00
sg14
I5
sg16
(lp85
g75
ag53
asg38
I00
sg39
I00
sg40
I37564
sg30
S'61.9925068689'
p86
sg33
I1
sba(igraph
Edge
p87
(dp88
g8
I1
sg9
g10
sg13
I00
sg14
I5
sg16
(lp89
g34
ag75
asg38
I00
sg39
I00
sg40
I37565
sg30
S'74.7032871496'
p90
sg33
I1
sba(igraph
Edge
p91
(dp92
g8
I1
sg9
g10
sg13
I00
sg14
I5
sg16
(lp93
g75
ag60
asg38
I00
sg39
I00
sg40
I37566
sg30
S'76.6069810549'
p94
sg33
I1
sba(igraph
Edge
p95
(dp96
g8
I1
sg9
g10
sg13
I00
sg14
I5
sg16
(lp97
g60
ag34
asg38
I00
sg39
I00
sg40
I37567
sg30
S'79.165808783'
p98
sg33
I1
sba(igraph
Edge
p99
(dp100
g8
I1
sg9
g10
sg13
I00
sg14
I5
sg16
(lp101
g18
ag53
asg38
I00
sg39
I00
sg40
I37568
sg30
S'564.715501551'
p102
sg33
I1
sba(igraph
Edge
p103
(dp104
g8
I1
sg9
g10
sg13
I00
sg14
I5
sg16
(lp105
g53
ag46
asg38
I00
sg39
I00
sg40
I37569
sg30
S'566.064279957'
p106
sg33
I1
sba(igraph
Edge
p107
(dp108
g8
I1
sg9
g10
sg13
I00
sg14
I5
sg16
(lp109
g46
ag18
asg38
I00
sg39
I00
sg40
I37570
sg30
S'567.974726956'
p110
sg33
I1
sbasS'vertices'
p111
(lp112
g34
ag60
ag75
ag18
ag46
ag53
asS'tags'
p113
(lp114
sb.