(igraph
Graph
p0
(dp1
S'labelingConstraints'
p2
(lp3
I2
aI1
asS'edges'
p4
(lp5
(igraph
Edge
p6
(dp7
S'direction'
p8
F-1.0
sS'color'
p9
S'black'
p10
sS'h'
p11
F-270.2550847457639
sS'k'
p12
F35.25
sS'selected'
p13
I00
sS'height'
p14
F8.0328183074532831
sS'start'
p15
F13.000574315378843
sS'vs'
p16
(lp17
(igraph
Vertex
p18
(dp19
g9
S'#ffffff'
p20
sS'text'
p21
I5617
sg13
I00
sS'label'
p22
I6
sS'shape'
p23
I0
sS'circle'
p24
I5616
sS'ly'
p25
I-12
sS'y'
p26
F-35.25
sS'x'
p27
F35.100000000000023
sS'lsize'
p28
I16
sS'lcolor'
p29
g10
sS'id'
p30
S'61.974737292'
p31
sS'lx'
p32
I-12
sS'size'
p33
I5
sba(igraph
Vertex
p34
(dp35
g9
g20
sg21
I5653
sg13
I00
sg22
I10
sg23
I0
sg24
I5652
sg25
I-12
sg26
F105.75
sg27
F35.100000000000023
sg28
I16
sg29
g10
sg30
S'61.9762059144'
p36
sg32
I-12
sg33
I5
sbasS'extent'
p37
F-26.001148630757687
sS'wrap'
p38
I00
sS'curved'
p39
I1
sS'line'
p40
I5561
sS'r'
p41
F313.3879030532172
sg30
S'61.9772691781'
p42
sg33
I1
sba(igraph
Edge
p43
(dp44
g8
F1.0
sg9
g10
sg11
F-197.81491228070161
sg12
F35.250000000000007
sg13
I00
sg14
F8.0906468710227841
sg15
F-13.093356334474237
sg16
(lp45
(igraph
Vertex
p46
(dp47
g9
g20
sg21
I5656
sg13
I00
sg22
I6
sg23
I0
sg24
I5655
sg25
I-12
sg26
F105.75
sg27
F105.30000000000001
sg28
I16
sg29
g10
sg30
S'61.9764020287'
p48
sg32
I-12
sg33
I5
sba(igraph
Vertex
p49
(dp50
g9
g20
sg21
I5620
sg13
I00
sg22
I8
sg23
I0
sg24
I5619
sg25
I-12
sg26
F-35.25
sg27
F105.30000000000001
sg28
I16
sg29
g10
sg30
S'61.9748107651'
p51
sg32
I-12
sg33
I5
sbasg37
F26.186712668948473
sg38
I00
sg39
I1
sg40
I5562
sg41
F311.2055591517244
sg30
S'61.9775968733'
p52
sg33
I1
sba(igraph
Edge
p53
(dp54
g8
F1.0
sg9
g10
sg11
F-129.28333333333302
sg12
F35.25
sg13
I00
sg14
F8.0474999900105786
sg15
F-13.024131708410788
sg16
(lp55
(igraph
Vertex
p56
(dp57
g9
g20
sg21
I5659
sg13
I00
sg22
I8
sg23
I0
sg24
I5658
sg25
I-12
sg26
F105.75
sg27
F175.5
sg28
I16
sg29
g10
sg30
S'61.9765850129'
p58
sg32
I-12
sg33
I5
sba(igraph
Vertex
p59
(dp60
g9
g20
sg21
I5623
sg13
I00
sg22
I10
sg23
I0
sg24
I5622
sg25
I-12
sg26
F-35.25
sg27
F175.5
sg28
I16
sg29
g10
sg30
S'61.9748928984'
p61
sg32
I-12
sg33
I5
sbasg37
F26.048263416821577
sg38
I00
sg39
I1
sg40
I5563
sg41
F312.8308333233436
sg30
S'61.9777583464'
p62
sg33
I1
sba(igraph
Edge
p63
(dp64
g8
I1
sg9
g10
sg13
I00
sg14
I5
sg16
(lp65
g59
a(igraph
Vertex
p66
(dp67
g9
g20
sg21
I5641
sg13
I00
sg22
I6
sg23
I0
sg24
I5640
sg25
I-12
sg26
F35.25
sg27
F175.5
sg28
I16
sg29
g10
sg30
S'61.9756320985'
p68
sg32
I-12
sg33
I5
sbasg38
I00
sg39
I00
sg40
I5564
sg30
S'61.977819248'
p69
sg33
I1
sba(igraph
Edge
p70
(dp71
g8
I1
sg9
g10
sg13
I00
sg14
I5
sg16
(lp72
g66
ag56
asg38
I00
sg39
I00
sg40
I5565
sg30
S'61.9778890893'
p73
sg33
I1
sba(igraph
Edge
p74
(dp75
g8
I1
sg9
g10
sg13
I00
sg14
I5
sg16
(lp76
g46
a(igraph
Vertex
p77
(dp78
g9
g20
sg21
I5638
sg13
I00
sg22
I10
sg23
I0
sg24
I5637
sg25
I-12
sg26
F35.25
sg27
F105.30000000000001
sg28
I16
sg29
g10
sg30
S'61.975498562'
p79
sg32
I-12
sg33
I5
sbasg38
I00
sg39
I00
sg40
I5566
sg30
S'61.9779720607'
p80
sg33
I1
sba(igraph
Edge
p81
(dp82
g8
I1
sg9
g10
sg13
I00
sg14
I5
sg16
(lp83
g77
ag49
asg38
I00
sg39
I00
sg40
I5567
sg30
S'61.978065648'
p84
sg33
I1
sba(igraph
Edge
p85
(dp86
g8
I1
sg9
g10
sg13
I00
sg14
I5
sg16
(lp87
g18
a(igraph
Vertex
p88
(dp89
g9
g20
sg21
I5635
sg13
I00
sg22
I8
sg23
I0
sg24
I5634
sg25
I-12
sg26
F35.25
sg27
F35.100000000000023
sg28
I16
sg29
g10
sg30
S'61.9752909937'
p90
sg32
I-12
sg33
I5
sbasg38
I00
sg39
I00
sg40
I5568
sg30
S'61.978171248'
p91
sg33
I1
sba(igraph
Edge
p92
(dp93
g8
I1
sg9
g10
sg13
I00
sg14
I5
sg16
(lp94
g88
ag34
asg38
I00
sg39
I00
sg40
I5569
sg30
S'61.9783081369'
p95
sg33
I1
sba(igraph
Edge
p96
(dp97
g8
F1.0
sg9
g10
sg11
F-70.199999999999989
sg12
F485.15833333333217
sg13
I00
sg14
F10.546394871226312
sg15
F78.561149109258196
sg16
(lp98
g18
a(igraph
Vertex
p99
(dp100
g9
g20
sg21
I5608
sg13
I00
sg22
I4
sg23
I0
sg24
I5607
sg25
I-12
sg26
F-35.25
sg27
F-175.5
sg28
I16
sg29
g10
sg30
S'61.974558219'
p101
sg32
I-12
sg33
I5
sbasg37
F22.877701781483623
sg38
I00
sg39
I1
sg40
I5570
sg41
F530.95472820455848
sg30
S'61.9795826006'
p102
sg33
I1
sba(igraph
Edge
p103
(dp104
g8
F1.0
sg9
g10
sg11
F-35.09999999999998
sg12
F515.45937499999854
sg13
I00
sg14
F17.615334750412558
sg15
F75.69746583131716
sg16
(lp105
g49
ag99
asg37
F28.605068337365694
sg38
I00
sg39
I1
sg40
I5571
sg41
F568.3247097504111
sg30
S'61.9798016228'
p106
sg33
I1
sba(igraph
Edge
p107
(dp108
g8
F1.0
sg9
g10
sg11
F1.4210854715202004e-14
sg12
F548.71874999999955
sg13
I00
sg14
F25.801494417159574
sg15
F73.272911973483033
sg16
(lp109
g59
ag99
asg37
F33.454176053033933
sg38
I00
sg39
I1
sg40
I5572
sg41
F609.77024441715912
sg30
S'61.9800239975'
p110
sg33
I1
sba(igraph
Edge
p111
(dp112
g8
F-1.0
sg9
g10
sg11
F-70.199999999999989
sg12
F701.73888888889167
sg13
I00
sg14
F8.2670143919535803
sg15
F98.978071084125148
sg16
(lp113
(igraph
Vertex
p114
(dp115
g9
g20
sg21
I5626
sg13
I00
sg22
I4
sg23
I0
sg24
I5625
sg25
I-12
sg26
F35.25
sg27
F-175.5
sg28
I16
sg29
g10
sg30
S'61.9749825746'
p116
sg32
I-12
sg33
I5
sbag88
asg37
F-17.956142168250281
sg38
I00
sg39
I1
sg40
I5573
sg41
F674.75590328084525
sg30
S'61.9802771023'
p117
sg33
I1
sba(igraph
Edge
p118
(dp119
g8
F1.0
sg9
g10
sg11
F-35.09999999999998
sg12
F746.44230769230546
sg13
I00
sg14
F13.726072900093982
sg15
F78.832553412043083
sg16
(lp120
g77
ag114
asg37
F22.334893175913848
sg38
I00
sg39
I1
sg40
I5574
sg41
F724.91838059239944
sg30
S'61.9805436166'
p121
sg33
I1
sba(igraph
Edge
p122
(dp123
g8
F1.0
sg9
g10
sg11
F-1.4210854715202004e-14
sg12
F740.58333333333428
sg13
I00
sg14
F21.505961910884366
sg15
F76.027485752789559
sg16
(lp124
g66
ag114
asg37
F27.945028494420882
sg38
I00
sg39
I1
sg40
I5575
sg41
F726.83929524421865
sg30
S'61.980799515'
p125
sg33
I1
sba(igraph
Edge
p126
(dp127
g8
F1.0
sg9
g10
sg11
F-70.199999999999989
sg12
F733.19500000000698
sg13
I00
sg14
F8.7745517468791832
sg15
F80.473201061030878
sg16
(lp128
g34
a(igraph
Vertex
p129
(dp130
g9
g20
sg21
I5644
sg13
I00
sg22
I4
sg23
I0
sg24
I5643
sg25
I-12
sg26
F105.75
sg27
F-175.5
sg28
I16
sg29
g10
sg30
S'61.9757639588'
p131
sg32
I-12
sg33
I5
sbasg37
F19.053597877938259
sg38
I00
sg39
I1
sg40
I5576
sg41
F636.21955174688617
sg30
S'61.9810649119'
p132
sg33
I1
sba(igraph
Edge
p133
(dp134
g8
F1.0
sg9
g10
sg11
F-35.099999999999994
sg12
F768.50937499999839
sg13
I00
sg14
F14.708077465718588
sg15
F78.03919973612868
sg16
(lp135
g46
ag129
asg37
F23.921600527742669
sg38
I00
sg39
I1
sg40
I5577
sg41
F677.46745246571697
sg30
S'61.9813738897'
p136
sg33
I1
sba(igraph
Edge
p137
(dp138
g8
F1.0
sg9
g10
sg11
F0.0
sg12
F795.76249999999948
sg13
I00
sg14
F21.968890315961858
sg15
F75.729786972980889
sg16
(lp139
g56
ag129
asg37
F28.540426054038221
sg38
I00
sg39
I1
sg40
I5578
sg41
F711.98139031596133
sg30
S'61.9816744866'
p140
sg33
I1
sba(igraph
Edge
p141
(dp142
g8
F1.0
sg9
g10
sg11
F-35.099999999999994
sg12
F-305.49499999999938
sg13
I00
sg14
F8.9688965470737685
sg15
F-104.56156531745536
sg16
(lp143
(igraph
Vertex
p144
(dp145
g9
g20
sg21
I5611
sg13
I00
sg22
I0
sg23
I0
sg24
I5610
sg25
I-12
sg26
F-35.25
sg27
F-105.30000000000001
sg28
I16
sg29
g10
sg30
S'61.9746115777'
p146
sg32
I-12
sg33
I5
sbag18
asg37
F29.123130634910723
sg38
I00
sg39
I1
sg40
I5579
sg41
F279.21389654707315
sg30
S'61.9830422582'
p147
sg33
I1
sba(igraph
Edge
p148
(dp149
g8
F1.0
sg9
g10
sg11
F0.0
sg12
F-409.50750000000124
sg13
I00
sg14
F14.531345398437281
sg15
F-105.71432354381972
sg16
(lp150
g144
ag49
asg37
F31.428647087639433
sg38
I00
sg39
I1
sg40
I5580
sg41
F388.78884539843853
sg30
S'61.9834224741'
p151
sg33
I1
sba(igraph
Edge
p152
(dp153
g8
F1.0
sg9
g10
sg11
F35.099999999999994
sg12
F-436.62916666666717
sg13
I00
sg14
F23.847120660478424
sg15
F-109.27952760260601
sg16
(lp154
g144
ag59
asg37
F38.559055205212019
sg38
I00
sg39
I1
sg40
I5581
sg41
F425.2262873271456
sg30
S'61.9837862075'
p155
sg33
I1
sba(igraph
Edge
p156
(dp157
g8
F1.0
sg9
g10
sg11
F-35.099999999999987
sg12
F-248.87545454545491
sg13
I00
sg14
F8.5438364993374307
sg15
F-103.87834693938301
sg16
(lp158
(igraph
Vertex
p159
(dp160
g9
g20
sg21
I5629
sg13
I00
sg22
I0
sg23
I0
sg24
I5628
sg25
I-12
sg26
F35.25
sg27
F-105.30000000000001
sg28
I16
sg29
g10
sg30
S'61.9750778381'
p161
sg32
I-12
sg33
I5
sbag88
asg37
F27.756693878766001
sg38
I00
sg39
I1
sg40
I5582
sg41
F292.66929104479232
sg30
S'61.9841706139'
p162
sg33
I1
sba(igraph
Edge
p163
(dp164
g8
F1.0
sg9
g10
sg11
F-7.1054273576010019e-15
sg12
F-353.51000000000101
sg13
I00
sg14
F14.008454077525755
sg15
F-105.15555555543455
sg16
(lp165
g159
ag77
asg37
F30.311111110869092
sg38
I00
sg39
I1
sg40
I5583
sg41
F402.76845407752677
sg30
S'61.9845709441'
p166
sg33
I1
sba(igraph
Edge
p167
(dp168
g8
F1.0
sg9
g10
sg11
F35.099999999999994
sg12
F-425.38333333333333
sg13
I00
sg14
F20.921676793004963
sg15
F-106.95110304577041
sg16
(lp169
g159
ag66
asg37
F33.902206091540805
sg38
I00
sg39
I1
sg40
I5584
sg41
F481.55501012633829
sg30
S'61.9849737886'
p170
sg33
I1
sba(igraph
Edge
p171
(dp172
g8
F1.0
sg9
g10
sg11
F-35.100000000000001
sg12
F-208.08833333333379
sg13
I00
sg14
F7.755415781049237
sg15
F-102.60848859538078
sg16
(lp173
(igraph
Vertex
p174
(dp175
g9
g20
sg21
I5647
sg13
I00
sg22
I0
sg23
I0
sg24
I5646
sg25
I-12
sg26
F105.75
sg27
F-105.30000000000001
sg28
I16
sg29
g10
sg30
S'61.9759028033'
p176
sg32
I-12
sg33
I5
sbag34
asg37
F25.21697719076154
sg38
I00
sg39
I1
sg40
I5585
sg41
F321.59374911438306
sg30
S'61.9854065251'
p177
sg33
I1
sba(igraph
Edge
p178
(dp179
g8
F1.0
sg9
g10
sg11
F0.0
sg12
F-360.55900000000116
sg13
I00
sg14
F11.741388014694508
sg15
F-102.72487235017864
sg16
(lp180
g174
ag46
asg37
F25.449744700357286
sg38
I00
sg39
I1
sg40
I5586
sg41
F478.05038801469567
sg30
S'61.9858191474'
p181
sg33
I1
sba(igraph
Edge
p182
(dp183
g8
F1.0
sg9
g10
sg11
F35.099999999999994
sg12
F-401.28500000000008
sg13
I00
sg14
F19.079674975902947
sg15
F-105.47762092221301
sg16
(lp184
g174
ag56
asg37
F30.955241844426013
sg38
I00
sg39
I1
sg40
I5587
sg41
F526.11467497590309
sg30
S'61.9862728364'
p185
sg33
I1
sba(igraph
Edge
p186
(dp187
g8
I1
sg9
g10
sg13
I00
sg14
I5
sg16
(lp188
(igraph
Vertex
p189
(dp190
g9
g20
sg21
I5614
sg13
I00
sg22
I2
sg23
I0
sg24
I5613
sg25
I-12
sg26
F-35.25
sg27
F-35.099999999999994
sg28
I16
sg29
g10
sg30
S'61.9746710825'
p191
sg32
I-12
sg33
I5
sbag18
asg38
I00
sg39
I00
sg40
I5588
sg30
S'61.9881535223'
p192
sg33
I1
sba(igraph
Edge
p193
(dp194
g8
I1
sg9
g10
sg13
I00
sg14
I5
sg16
(lp195
g189
ag49
asg38
I00
sg39
I00
sg40
I5589
sg30
S'61.9886513509'
p196
sg33
I1
sba(igraph
Edge
p197
(dp198
g8
I1
sg9
g10
sg13
I00
sg14
I5
sg16
(lp199
g189
ag59
asg38
I00
sg39
I00
sg40
I5590
sg30
S'61.9891737637'
p200
sg33
I1
sba(igraph
Edge
p201
(dp202
g8
I1
sg9
g10
sg13
I00
sg14
I5
sg16
(lp203
(igraph
Vertex
p204
(dp205
g9
g20
sg21
I5632
sg13
I00
sg22
I2
sg23
I0
sg24
I5631
sg25
I-12
sg26
F35.25
sg27
F-35.099999999999994
sg28
I16
sg29
g10
sg30
S'61.9751812032'
p206
sg32
I-12
sg33
I5
sbag88
asg38
I00
sg39
I00
sg40
I5591
sg30
S'61.9896925447'
p207
sg33
I1
sba(igraph
Edge
p208
(dp209
g8
I1
sg9
g10
sg13
I00
sg14
I5
sg16
(lp210
g204
ag77
asg38
I00
sg39
I00
sg40
I5592
sg30
S'61.9902420559'
p211
sg33
I1
sba(igraph
Edge
p212
(dp213
g8
I1
sg9
g10
sg13
I00
sg14
I5
sg16
(lp214
g204
ag66
asg38
I00
sg39
I00
sg40
I5593
sg30
S'61.9908007861'
p215
sg33
I1
sba(igraph
Edge
p216
(dp217
g8
I1
sg9
g10
sg13
I00
sg14
I5
sg16
(lp218
(igraph
Vertex
p219
(dp220
g9
g20
sg21
I5650
sg13
I00
sg22
I2
sg23
I0
sg24
I5649
sg25
I-12
sg26
F105.75
sg27
F-35.099999999999994
sg28
I16
sg29
g10
sg30
S'61.9760522636'
p221
sg32
I-12
sg33
I5
sbag34
asg38
I00
sg39
I00
sg40
I5594
sg30
S'61.9913670592'
p222
sg33
I1
sba(igraph
Edge
p223
(dp224
g8
I1
sg9
g10
sg13
I00
sg14
I5
sg16
(lp225
g219
ag46
asg38
I00
sg39
I00
sg40
I5595
sg30
S'61.9919182466'
p226
sg33
I1
sba(igraph
Edge
p227
(dp228
g8
I1
sg9
g10
sg13
I00
sg14
I5
sg16
(lp229
g219
ag56
asg38
I00
sg39
I00
sg40
I5596
sg30
S'61.9925068689'
p230
sg33
I1
sba(igraph
Edge
p231
(dp232
g8
I1
sg9
g10
sg13
I00
sg14
I5
sg16
(lp233
g99
ag189
asg38
I00
sg39
I00
sg40
I5597
sg30
S'61.9949462851'
p234
sg33
I1
sba(igraph
Edge
p235
(dp236
g8
I1
sg9
g10
sg13
I00
sg14
I5
sg16
(lp237
g189
ag144
asg38
I00
sg39
I00
sg40
I5598
sg30
S'61.995581282'
p238
sg33
I1
sba(igraph
Edge
p239
(dp240
g8
I1
sg9
g10
sg13
I00
sg14
I5
sg16
(lp241
g144
ag99
asg38
I00
sg39
I00
sg40
I5599
sg30
S'61.9962433773'
p242
sg33
I1
sba(igraph
Edge
p243
(dp244
g8
I1
sg9
g10
sg13
I00
sg14
I5
sg16
(lp245
g114
ag204
asg38
I00
sg39
I00
sg40
I5600
sg30
S'61.9968982091'
p246
sg33
I1
sba(igraph
Edge
p247
(dp248
g8
I1
sg9
g10
sg13
I00
sg14
I5
sg16
(lp249
g204
ag159
asg38
I00
sg39
I00
sg40
I5601
sg30
S'61.9976055616'
p250
sg33
I1
sba(igraph
Edge
p251
(dp252
g8
I1
sg9
g10
sg13
I00
sg14
I5
sg16
(lp253
g159
ag114
asg38
I00
sg39
I00
sg40
I5602
sg30
S'61.998479695'
p254
sg33
I1
sba(igraph
Edge
p255
(dp256
g8
I1
sg9
g10
sg13
I00
sg14
I5
sg16
(lp257
g129
ag219
asg38
I00
sg39
I00
sg40
I5603
sg30
S'74.7032871496'
p258
sg33
I1
sba(igraph
Edge
p259
(dp260
g8
I1
sg9
g10
sg13
I00
sg14
I5
sg16
(lp261
g219
ag174
asg38
I00
sg39
I00
sg40
I5604
sg30
S'76.6069810549'
p262
sg33
I1
sba(igraph
Edge
p263
(dp264
g8
I1
sg9
g10
sg13
I00
sg14
I5
sg16
(lp265
g174
ag129
asg38
I00
sg39
I00
sg40
I5605
sg30
S'79.165808783'
p266
sg33
I1
sbasS'vertices'
p267
(lp268
g99
ag144
ag189
ag18
ag49
ag59
ag114
ag159
ag204
ag88
ag77
ag66
ag129
ag174
ag219
ag34
ag46
ag56
asS'tags'
p269
(lp270
sb.