(igraph
Graph
p0
(dp1
S'labelingConstraints'
p2
(lp3
I2
aI1
asS'edges'
p4
(lp5
(igraph
Edge
p6
(dp7
S'direction'
p8
I1
sS'color'
p9
S'black'
p10
sS'selected'
p11
I00
sS'height'
p12
I5
sS'vs'
p13
(lp14
(igraph
Vertex
p15
(dp16
g9
S'#ffffff'
p17
sS'text'
p18
I16617
sg11
I00
sS'label'
p19
I6
sS'shape'
p20
I0
sS'circle'
p21
I16616
sS'ly'
p22
I-12
sS'y'
p23
F35.25
sS'x'
p24
F175.5
sS'lsize'
p25
I16
sS'lcolor'
p26
g10
sS'id'
p27
S'61.9756320985'
p28
sS'lx'
p29
I-12
sS'size'
p30
I5
sba(igraph
Vertex
p31
(dp32
g9
g17
sg18
I16635
sg11
I00
sg19
I8
sg20
I0
sg21
I16634
sg22
I-12
sg23
F105.75
sg24
F175.5
sg25
I16
sg26
g10
sg27
S'61.9765850129'
p33
sg29
I-12
sg30
I5
sbasS'wrap'
p34
I00
sS'curved'
p35
I00
sS'line'
p36
I16570
sg27
S'61.9778890893'
p37
sg30
I1
sba(igraph
Edge
p38
(dp39
g8
I1
sg9
g10
sg11
I00
sg12
I5
sg13
(lp40
(igraph
Vertex
p41
(dp42
g9
g17
sg18
I16632
sg11
I00
sg19
I6
sg20
I0
sg21
I16631
sg22
I-12
sg23
F105.75
sg24
F105.30000000000001
sg25
I16
sg26
g10
sg27
S'61.9764020287'
p43
sg29
I-12
sg30
I5
sba(igraph
Vertex
p44
(dp45
g9
g17
sg18
I16614
sg11
I00
sg19
I10
sg20
I0
sg21
I16613
sg22
I-12
sg23
F35.25
sg24
F105.30000000000001
sg25
I16
sg26
g10
sg27
S'61.975498562'
p46
sg29
I-12
sg30
I5
sbasg34
I00
sg35
I00
sg36
I16571
sg27
S'61.9779720607'
p47
sg30
I1
sba(igraph
Edge
p48
(dp49
g8
I1
sg9
g10
sg11
I00
sg12
I5
sg13
(lp50
(igraph
Vertex
p51
(dp52
g9
g17
sg18
I16611
sg11
I00
sg19
I8
sg20
I0
sg21
I16610
sg22
I-12
sg23
F35.25
sg24
F35.100000000000023
sg25
I16
sg26
g10
sg27
S'61.9752909937'
p53
sg29
I-12
sg30
I5
sba(igraph
Vertex
p54
(dp55
g9
g17
sg18
I16629
sg11
I00
sg19
I10
sg20
I0
sg21
I16628
sg22
I-12
sg23
F105.75
sg24
F35.100000000000023
sg25
I16
sg26
g10
sg27
S'61.9762059144'
p56
sg29
I-12
sg30
I5
sbasg34
I00
sg35
I00
sg36
I16572
sg27
S'61.9783081369'
p57
sg30
I1
sba(igraph
Edge
p58
(dp59
g8
F-1.0
sg9
g10
sS'h'
p60
F-70.199999999999989
sS'k'
p61
F701.73888888889167
sg11
I00
sg12
F8.2670143919535803
sS'start'
p62
F98.978071084125148
sg13
(lp63
(igraph
Vertex
p64
(dp65
g9
g17
sg18
I16602
sg11
I00
sg19
I4
sg20
I0
sg21
I16601
sg22
I-12
sg23
F35.25
sg24
F-175.5
sg25
I16
sg26
g10
sg27
S'61.9749825746'
p66
sg29
I-12
sg30
I5
sbag51
asS'extent'
p67
F-17.956142168250281
sg34
I00
sg35
I1
sg36
I16573
sS'r'
p68
F674.75590328084525
sg27
S'61.9802771023'
p69
sg30
I1
sba(igraph
Edge
p70
(dp71
g8
F1.0
sg9
g10
sg60
F-35.09999999999998
sg61
F746.44230769230546
sg11
I00
sg12
F13.726072900093982
sg62
F78.832553412043083
sg13
(lp72
g44
ag64
asg67
F22.334893175913848
sg34
I00
sg35
I1
sg36
I16574
sg68
F724.91838059239944
sg27
S'61.9805436166'
p73
sg30
I1
sba(igraph
Edge
p74
(dp75
g8
F1.0
sg9
g10
sg60
F-1.4210854715202004e-14
sg61
F740.58333333333428
sg11
I00
sg12
F21.505961910884366
sg62
F76.027485752789559
sg13
(lp76
g15
ag64
asg67
F27.945028494420882
sg34
I00
sg35
I1
sg36
I16575
sg68
F726.83929524421865
sg27
S'61.980799515'
p77
sg30
I1
sba(igraph
Edge
p78
(dp79
g8
F1.0
sg9
g10
sg60
F-70.199999999999989
sg61
F733.19500000000698
sg11
I00
sg12
F8.7745517468791832
sg62
F80.473201061030878
sg13
(lp80
g54
a(igraph
Vertex
p81
(dp82
g9
g17
sg18
I16620
sg11
I00
sg19
I4
sg20
I0
sg21
I16619
sg22
I-12
sg23
F105.75
sg24
F-175.5
sg25
I16
sg26
g10
sg27
S'61.9757639588'
p83
sg29
I-12
sg30
I5
sbasg67
F19.053597877938259
sg34
I00
sg35
I1
sg36
I16576
sg68
F636.21955174688617
sg27
S'61.9810649119'
p84
sg30
I1
sba(igraph
Edge
p85
(dp86
g8
F1.0
sg9
g10
sg60
F-35.099999999999994
sg61
F768.50937499999839
sg11
I00
sg12
F14.708077465718588
sg62
F78.03919973612868
sg13
(lp87
g41
ag81
asg67
F23.921600527742669
sg34
I00
sg35
I1
sg36
I16577
sg68
F677.46745246571697
sg27
S'61.9813738897'
p88
sg30
I1
sba(igraph
Edge
p89
(dp90
g8
F1.0
sg9
g10
sg60
F0.0
sg61
F795.76249999999948
sg11
I00
sg12
F21.968890315961858
sg62
F75.729786972980889
sg13
(lp91
g31
ag81
asg67
F28.540426054038221
sg34
I00
sg35
I1
sg36
I16578
sg68
F711.98139031596133
sg27
S'61.9816744866'
p92
sg30
I1
sba(igraph
Edge
p93
(dp94
g8
F1.0
sg9
g10
sg60
F-35.099999999999987
sg61
F-248.87545454545491
sg11
I00
sg12
F8.5438364993374307
sg62
F-103.87834693938301
sg13
(lp95
(igraph
Vertex
p96
(dp97
g9
g17
sg18
I16605
sg11
I00
sg19
I0
sg20
I0
sg21
I16604
sg22
I-12
sg23
F35.25
sg24
F-105.30000000000001
sg25
I16
sg26
g10
sg27
S'61.9750778381'
p98
sg29
I-12
sg30
I5
sbag51
asg67
F27.756693878766001
sg34
I00
sg35
I1
sg36
I16579
sg68
F292.66929104479232
sg27
S'61.9841706139'
p99
sg30
I1
sba(igraph
Edge
p100
(dp101
g8
F1.0
sg9
g10
sg60
F-7.1054273576010019e-15
sg61
F-353.51000000000101
sg11
I00
sg12
F14.008454077525755
sg62
F-105.15555555543455
sg13
(lp102
g96
ag44
asg67
F30.311111110869092
sg34
I00
sg35
I1
sg36
I16580
sg68
F402.76845407752677
sg27
S'61.9845709441'
p103
sg30
I1
sba(igraph
Edge
p104
(dp105
g8
F1.0
sg9
g10
sg60
F35.099999999999994
sg61
F-425.38333333333333
sg11
I00
sg12
F20.921676793004963
sg62
F-106.95110304577041
sg13
(lp106
g96
ag15
asg67
F33.902206091540805
sg34
I00
sg35
I1
sg36
I16581
sg68
F481.55501012633829
sg27
S'61.9849737886'
p107
sg30
I1
sba(igraph
Edge
p108
(dp109
g8
F1.0
sg9
g10
sg60
F-35.100000000000001
sg61
F-208.08833333333379
sg11
I00
sg12
F7.755415781049237
sg62
F-102.60848859538078
sg13
(lp110
(igraph
Vertex
p111
(dp112
g9
g17
sg18
I16623
sg11
I00
sg19
I0
sg20
I0
sg21
I16622
sg22
I-12
sg23
F105.75
sg24
F-105.30000000000001
sg25
I16
sg26
g10
sg27
S'61.9759028033'
p113
sg29
I-12
sg30
I5
sbag54
asg67
F25.21697719076154
sg34
I00
sg35
I1
sg36
I16582
sg68
F321.59374911438306
sg27
S'61.9854065251'
p114
sg30
I1
sba(igraph
Edge
p115
(dp116
g8
F1.0
sg9
g10
sg60
F0.0
sg61
F-360.55900000000116
sg11
I00
sg12
F11.741388014694508
sg62
F-102.72487235017864
sg13
(lp117
g111
ag41
asg67
F25.449744700357286
sg34
I00
sg35
I1
sg36
I16583
sg68
F478.05038801469567
sg27
S'61.9858191474'
p118
sg30
I1
sba(igraph
Edge
p119
(dp120
g8
F1.0
sg9
g10
sg60
F35.099999999999994
sg61
F-401.28500000000008
sg11
I00
sg12
F19.079674975902947
sg62
F-105.47762092221301
sg13
(lp121
g111
ag31
asg67
F30.955241844426013
sg34
I00
sg35
I1
sg36
I16584
sg68
F526.11467497590309
sg27
S'61.9862728364'
p122
sg30
I1
sba(igraph
Edge
p123
(dp124
g8
I1
sg9
g10
sg11
I00
sg12
I5
sg13
(lp125
(igraph
Vertex
p126
(dp127
g9
g17
sg18
I16608
sg11
I00
sg19
I2
sg20
I0
sg21
I16607
sg22
I-12
sg23
F35.25
sg24
F-35.099999999999994
sg25
I16
sg26
g10
sg27
S'61.9751812032'
p128
sg29
I-12
sg30
I5
sbag51
asg34
I00
sg35
I00
sg36
I16585
sg27
S'61.9896925447'
p129
sg30
I1
sba(igraph
Edge
p130
(dp131
g8
I1
sg9
g10
sg11
I00
sg12
I5
sg13
(lp132
g126
ag44
asg34
I00
sg35
I00
sg36
I16586
sg27
S'61.9902420559'
p133
sg30
I1
sba(igraph
Edge
p134
(dp135
g8
I1
sg9
g10
sg11
I00
sg12
I5
sg13
(lp136
g126
ag15
asg34
I00
sg35
I00
sg36
I16587
sg27
S'61.9908007861'
p137
sg30
I1
sba(igraph
Edge
p138
(dp139
g8
I1
sg9
g10
sg11
I00
sg12
I5
sg13
(lp140
(igraph
Vertex
p141
(dp142
g9
g17
sg18
I16626
sg11
I00
sg19
I2
sg20
I0
sg21
I16625
sg22
I-12
sg23
F105.75
sg24
F-35.099999999999994
sg25
I16
sg26
g10
sg27
S'61.9760522636'
p143
sg29
I-12
sg30
I5
sbag54
asg34
I00
sg35
I00
sg36
I16588
sg27
S'61.9913670592'
p144
sg30
I1
sba(igraph
Edge
p145
(dp146
g8
I1
sg9
g10
sg11
I00
sg12
I5
sg13
(lp147
g141
ag41
asg34
I00
sg35
I00
sg36
I16589
sg27
S'61.9919182466'
p148
sg30
I1
sba(igraph
Edge
p149
(dp150
g8
I1
sg9
g10
sg11
I00
sg12
I5
sg13
(lp151
g141
ag31
asg34
I00
sg35
I00
sg36
I16590
sg27
S'61.9925068689'
p152
sg30
I1
sba(igraph
Edge
p153
(dp154
g8
I1
sg9
g10
sg11
I00
sg12
I5
sg13
(lp155
g64
ag126
asg34
I00
sg35
I00
sg36
I16591
sg27
S'61.9968982091'
p156
sg30
I1
sba(igraph
Edge
p157
(dp158
g8
I1
sg9
g10
sg11
I00
sg12
I5
sg13
(lp159
g126
ag96
asg34
I00
sg35
I00
sg36
I16592
sg27
S'61.9976055616'
p160
sg30
I1
sba(igraph
Edge
p161
(dp162
g8
I1
sg9
g10
sg11
I00
sg12
I5
sg13
(lp163
g96
ag64
asg34
I00
sg35
I00
sg36
I16593
sg27
S'61.998479695'
p164
sg30
I1
sba(igraph
Edge
p165
(dp166
g8
I1
sg9
g10
sg11
I00
sg12
I5
sg13
(lp167
g81
ag141
asg34
I00
sg35
I00
sg36
I16594
sg27
S'74.7032871496'
p168
sg30
I1
sba(igraph
Edge
p169
(dp170
g8
I1
sg9
g10
sg11
I00
sg12
I5
sg13
(lp171
g141
ag111
asg34
I00
sg35
I00
sg36
I16595
sg27
S'76.6069810549'
p172
sg30
I1
sba(igraph
Edge
p173
(dp174
g8
I1
sg9
g10
sg11
I00
sg12
I5
sg13
(lp175
g111
ag81
asg34
I00
sg35
I00
sg36
I16596
sg27
S'79.165808783'
p176
sg30
I1
sba(igraph
Edge
p177
(dp178
g8
I1
sg9
g10
sg11
I00
sg12
I5
sg13
(lp179
g51
ag41
asg34
I00
sg35
I00
sg36
I16597
sg27
S'200.820935901'
p180
sg30
I1
sba(igraph
Edge
p181
(dp182
g8
I1
sg9
g10
sg11
I00
sg12
I5
sg13
(lp183
g44
ag31
asg34
I00
sg35
I00
sg36
I16598
sg27
S'211.31245703'
p184
sg30
I1
sba(igraph
Edge
p185
(dp186
g8
I1
sg9
g10
sg11
I00
sg12
I5
sg13
(lp187
g15
ag54
asg34
I00
sg35
I00
sg36
I16599
sg27
S'219.29888212'
p188
sg30
I1
sbasS'vertices'
p189
(lp190
g64
ag96
ag126
ag51
ag44
ag15
ag81
ag111
ag141
ag54
ag41
ag31
asS'tags'
p191
(lp192
sb.