(igraph
Graph
p0
(dp1
S'labelingConstraints'
p2
(lp3
I2
aI1
asS'edges'
p4
(lp5
(igraph
Edge
p6
(dp7
S'direction'
p8
F-1.0
sS'color'
p9
S'black'
p10
sS'h'
p11
F-270.25508474576395
sS'k'
p12
F141.0
sS'selected'
p13
I00
sS'height'
p14
F8.0328183074532831
sS'start'
p15
F13.000574315378843
sS'vs'
p16
(lp17
(igraph
Vertex
p18
(dp19
g9
S'#ffffff'
p20
sS'text'
p21
I58316
sg13
I00
sS'label'
p22
I6
sS'shape'
p23
I0
sS'circle'
p24
I58315
sS'ly'
p25
I-12
sS'y'
p26
F70.5
sS'x'
p27
F35.100000000000023
sS'lsize'
p28
I16
sS'lcolor'
p29
g10
sS'id'
p30
S'18.8375078397'
p31
sS'lx'
p32
I-12
sS'size'
p33
I5
sba(igraph
Vertex
p34
(dp35
g9
g20
sg21
I58352
sg13
I00
sg22
I10
sg23
I0
sg24
I58351
sg25
I-12
sg26
F211.5
sg27
F35.100000000000023
sg28
I16
sg29
g10
sg30
S'18.8405923099'
p36
sg32
I-12
sg33
I5
sbasS'extent'
p37
F-26.001148630757687
sS'wrap'
p38
I00
sS'curved'
p39
I1
sS'line'
p40
I58194
sS'r'
p41
F313.38790305321726
sg30
S'18.8425414403'
p42
sg33
I1
sba(igraph
Edge
p43
(dp44
g8
F1.0
sg9
g10
sg11
F-197.81491228070149
sg12
F141.0
sg13
I00
sg14
F8.0906468710227841
sg15
F-13.09335633447424
sg16
(lp45
(igraph
Vertex
p46
(dp47
g9
g20
sg21
I58355
sg13
I00
sg22
I6
sg23
I0
sg24
I58354
sg25
I-12
sg26
F211.5
sg27
F105.30000000000001
sg28
I16
sg29
g10
sg30
S'18.8409314592'
p48
sg32
I-12
sg33
I5
sba(igraph
Vertex
p49
(dp50
g9
g20
sg21
I58319
sg13
I00
sg22
I8
sg23
I0
sg24
I58318
sg25
I-12
sg26
F70.5
sg27
F105.30000000000001
sg28
I16
sg29
g10
sg30
S'18.8377182016'
p51
sg32
I-12
sg33
I5
sbasg37
F26.186712668948481
sg38
I00
sg39
I1
sg40
I58195
sg41
F311.20555915172429
sg30
S'18.842705707'
p52
sg33
I1
sba(igraph
Edge
p53
(dp54
g8
F1.0
sg9
g10
sg11
F-129.28333333333285
sg12
F141.0
sg13
I00
sg14
F8.0474999900105786
sg15
F-13.024131708410794
sg16
(lp55
(igraph
Vertex
p56
(dp57
g9
g20
sg21
I58358
sg13
I00
sg22
I8
sg23
I0
sg24
I58357
sg25
I-12
sg26
F211.5
sg27
F175.5
sg28
I16
sg29
g10
sg30
S'18.841246583'
p58
sg32
I-12
sg33
I5
sba(igraph
Vertex
p59
(dp60
g9
g20
sg21
I58322
sg13
I00
sg22
I10
sg23
I0
sg24
I58321
sg25
I-12
sg26
F70.5
sg27
F175.5
sg28
I16
sg29
g10
sg30
S'18.8379565001'
p61
sg32
I-12
sg33
I5
sbasg37
F26.048263416821587
sg38
I00
sg39
I1
sg40
I58196
sg41
F312.83083332334343
sg30
S'18.8429294785'
p62
sg33
I1
sba(igraph
Edge
p63
(dp64
g8
I1
sg9
g10
sg13
I00
sg14
I5
sg16
(lp65
(igraph
Vertex
p66
(dp67
g9
g20
sg21
I58286
sg13
I00
sg22
I6
sg23
I0
sg24
I58285
sg25
I-12
sg26
F-70.5
sg27
F175.5
sg28
I16
sg29
g10
sg30
S'18.8356707347'
p68
sg32
I-12
sg33
I5
sba(igraph
Vertex
p69
(dp70
g9
g20
sg21
I58304
sg13
I00
sg22
I8
sg23
I0
sg24
I58303
sg25
I-12
sg26
F0.0
sg27
F175.5
sg28
I16
sg29
g10
sg30
S'18.8366219729'
p71
sg32
I-12
sg33
I5
sbasg38
I00
sg39
I00
sg40
I58197
sg30
S'18.8431683356'
p72
sg33
I1
sba(igraph
Edge
p73
(dp74
g8
I1
sg9
g10
sg13
I00
sg14
I5
sg16
(lp75
g59
a(igraph
Vertex
p76
(dp77
g9
g20
sg21
I58340
sg13
I00
sg22
I6
sg23
I0
sg24
I58339
sg25
I-12
sg26
F141.0
sg27
F175.5
sg28
I16
sg29
g10
sg30
S'18.8394505447'
p78
sg32
I-12
sg33
I5
sbasg38
I00
sg39
I00
sg40
I58198
sg30
S'18.8432932118'
p79
sg33
I1
sba(igraph
Edge
p80
(dp81
g8
I1
sg9
g10
sg13
I00
sg14
I5
sg16
(lp82
g76
ag56
asg38
I00
sg39
I00
sg40
I58199
sg30
S'18.8434217198'
p83
sg33
I1
sba(igraph
Edge
p84
(dp85
g8
I1
sg9
g10
sg13
I00
sg14
I5
sg16
(lp86
g46
a(igraph
Vertex
p87
(dp88
g9
g20
sg21
I58337
sg13
I00
sg22
I10
sg23
I0
sg24
I58336
sg25
I-12
sg26
F141.0
sg27
F105.30000000000001
sg28
I16
sg29
g10
sg30
S'18.8391873828'
p89
sg32
I-12
sg33
I5
sbasg38
I00
sg39
I00
sg40
I58200
sg30
S'18.8435625198'
p90
sg33
I1
sba(igraph
Edge
p91
(dp92
g8
I1
sg9
g10
sg13
I00
sg14
I5
sg16
(lp93
g87
ag49
asg38
I00
sg39
I00
sg40
I58201
sg30
S'18.8437312563'
p94
sg33
I1
sba(igraph
Edge
p95
(dp96
g8
I1
sg9
g10
sg13
I00
sg14
I5
sg16
(lp97
g18
a(igraph
Vertex
p98
(dp99
g9
g20
sg21
I58334
sg13
I00
sg22
I8
sg23
I0
sg24
I58333
sg25
I-12
sg26
F141.0
sg27
F35.100000000000023
sg28
I16
sg29
g10
sg30
S'18.8389284113'
p100
sg32
I-12
sg33
I5
sbasg38
I00
sg39
I00
sg40
I58202
sg30
S'18.8439106088'
p101
sg33
I1
sba(igraph
Edge
p102
(dp103
g8
I1
sg9
g10
sg13
I00
sg14
I5
sg16
(lp104
g98
ag34
asg38
I00
sg39
I00
sg40
I58203
sg30
S'18.8440874469'
p105
sg33
I1
sba(igraph
Edge
p106
(dp107
g8
I1
sg9
g10
sg13
I00
sg14
I5
sg16
(lp108
(igraph
Vertex
p109
(dp110
g9
g20
sg21
I58298
sg13
I00
sg22
I10
sg23
I0
sg24
I58297
sg25
I-12
sg26
F0.0
sg27
F35.100000000000023
sg28
I16
sg29
g10
sg30
S'18.8362786332'
p111
sg32
I-12
sg33
I5
sba(igraph
Vertex
p112
(dp113
g9
g20
sg21
I58280
sg13
I00
sg22
I8
sg23
I0
sg24
I58279
sg25
I-12
sg26
F-70.5
sg27
F35.100000000000023
sg28
I16
sg29
g10
sg30
S'18.8354260108'
p114
sg32
I-12
sg33
I5
sbasg38
I00
sg39
I00
sg40
I58204
sg30
S'18.8442723866'
p115
sg33
I1
sba(igraph
Edge
p116
(dp117
g8
I1
sg9
g10
sg13
I00
sg14
I5
sg16
(lp118
(igraph
Vertex
p119
(dp120
g9
g20
sg21
I58283
sg13
I00
sg22
I10
sg23
I0
sg24
I58282
sg25
I-12
sg26
F-70.5
sg27
F105.30000000000001
sg28
I16
sg29
g10
sg30
S'18.8355455791'
p121
sg32
I-12
sg33
I5
sba(igraph
Vertex
p122
(dp123
g9
g20
sg21
I58301
sg13
I00
sg22
I6
sg23
I0
sg24
I58300
sg25
I-12
sg26
F0.0
sg27
F105.30000000000001
sg28
I16
sg29
g10
sg30
S'18.8364510015'
p124
sg32
I-12
sg33
I5
sbasg38
I00
sg39
I00
sg40
I58205
sg30
S'18.8449610216'
p125
sg33
I1
sba(igraph
Edge
p126
(dp127
g8
F1.0
sg9
g10
sg11
F492.80555555555259
sg12
F35.25
sg13
I00
sg14
F8.3150013937731728
sg15
F171.00829688550743
sg16
(lp128
(igraph
Vertex
p129
(dp130
g9
g20
sg21
I58271
sg13
I00
sg22
I2
sg23
I0
sg24
I58270
sg25
I-12
sg26
F-70.5
sg27
F-175.5
sg28
I16
sg29
g10
sg30
S'18.8351156362'
p131
sg32
I-12
sg33
I5
sba(igraph
Vertex
p132
(dp133
g9
g20
sg21
I58325
sg13
I00
sg22
I4
sg23
I0
sg24
I58324
sg25
I-12
sg26
F141.0
sg27
F-175.5
sg28
I16
sg29
g10
sg30
S'18.8381819477'
p134
sg32
I-12
sg33
I5
sbasg37
F17.983406228985132
sg38
I00
sg39
I1
sg40
I58206
sg41
F676.62055694932576
sg30
S'18.8469129456'
p135
sg33
I1
sba(igraph
Edge
p136
(dp137
g8
F1.0
sg9
g10
sg11
F532.90263157894583
sg12
F35.25
sg13
I00
sg14
F8.7020456759737499
sg15
F170.59159061137473
sg16
(lp138
(igraph
Vertex
p139
(dp140
g9
g20
sg21
I58274
sg13
I00
sg22
I4
sg23
I0
sg24
I58273
sg25
I-12
sg26
F-70.5
sg27
F-105.30000000000001
sg28
I16
sg29
g10
sg30
S'18.8352111791'
p141
sg32
I-12
sg33
I5
sba(igraph
Vertex
p142
(dp143
g9
g20
sg21
I58328
sg13
I00
sg22
I0
sg23
I0
sg24
I58327
sg25
I-12
sg26
F141.0
sg27
F-105.30000000000001
sg28
I16
sg29
g10
sg30
S'18.8384152176'
p144
sg32
I-12
sg33
I5
sbasg37
F18.816818777250546
sg38
I00
sg39
I1
sg40
I58207
sg41
F646.90467725491953
sg30
S'18.8472272314'
p145
sg33
I1
sba(igraph
Edge
p146
(dp147
g8
F1.0
sg9
g10
sg11
F570.91938775509993
sg12
F35.25
sg13
I00
sg14
F9.1574655440681454
sg15
F170.10158862509618
sg16
(lp148
(igraph
Vertex
p149
(dp150
g9
g20
sg21
I58277
sg13
I00
sg22
I0
sg23
I0
sg24
I58276
sg25
I-12
sg26
F-70.5
sg27
F-35.099999999999994
sg28
I16
sg29
g10
sg30
S'18.8353151029'
p151
sg32
I-12
sg33
I5
sba(igraph
Vertex
p152
(dp153
g9
g20
sg21
I58331
sg13
I00
sg22
I2
sg23
I0
sg24
I58330
sg25
I-12
sg26
F141.0
sg27
F-35.099999999999994
sg28
I16
sg29
g10
sg30
S'18.8386571478'
p154
sg32
I-12
sg33
I5
sbasg37
F19.796822749807632
sg38
I00
sg39
I1
sg40
I58208
sg41
F615.1768532991681
sg30
S'18.8475649838'
p155
sg33
I1
sba(igraph
Edge
p156
(dp157
g8
F1.0
sg9
g10
sg11
F433.75000000000068
sg12
F105.75
sg13
I00
sg14
F9.1096243287557854
sg15
F170.15304590092202
sg16
(lp158
(igraph
Vertex
p159
(dp160
g9
g20
sg21
I58289
sg13
I00
sg22
I2
sg23
I0
sg24
I58288
sg25
I-12
sg26
F0.0
sg27
F-175.5
sg28
I16
sg29
g10
sg30
S'18.8358120934'
p161
sg32
I-12
sg33
I5
sba(igraph
Vertex
p162
(dp163
g9
g20
sg21
I58343
sg13
I00
sg22
I4
sg23
I0
sg24
I58342
sg25
I-12
sg26
F211.5
sg27
F-175.5
sg28
I16
sg29
g10
sg30
S'18.8397265574'
p164
sg32
I-12
sg33
I5
sbasg37
F19.693908198155953
sg38
I00
sg39
I1
sg40
I58209
sg41
F618.35962432875647
sg30
S'18.8482776442'
p165
sg33
I1
sba(igraph
Edge
p166
(dp167
g8
F1.0
sg9
g10
sg11
F458.2096491228067
sg12
F105.75
sg13
I00
sg14
F9.8368317720434106
sg15
F169.3713142454634
sg16
(lp168
(igraph
Vertex
p169
(dp170
g9
g20
sg21
I58292
sg13
I00
sg22
I4
sg23
I0
sg24
I58291
sg25
I-12
sg26
F0.0
sg27
F-105.30000000000001
sg28
I16
sg29
g10
sg30
S'18.8359690966'
p171
sg32
I-12
sg33
I5
sba(igraph
Vertex
p172
(dp173
g9
g20
sg21
I58346
sg13
I00
sg22
I0
sg23
I0
sg24
I58345
sg25
I-12
sg26
F211.5
sg27
F-105.30000000000001
sg28
I16
sg29
g10
sg30
S'18.8400224051'
p174
sg32
I-12
sg33
I5
sbasg37
F21.257371509073209
sg38
I00
sg39
I1
sg40
I58210
sg41
F573.34648089485006
sg30
S'18.8490514856'
p175
sg33
I1
sba(igraph
Edge
p176
(dp177
g8
F1.0
sg9
g10
sg11
F495.50797101448916
sg12
F105.75
sg13
I00
sg14
F10.43535572017538
sg15
F168.72865469176099
sg16
(lp178
(igraph
Vertex
p179
(dp180
g9
g20
sg21
I58295
sg13
I00
sg22
I0
sg23
I0
sg24
I58294
sg25
I-12
sg26
F0.0
sg27
F-35.099999999999994
sg28
I16
sg29
g10
sg30
S'18.8361219093'
p181
sg32
I-12
sg33
I5
sba(igraph
Vertex
p182
(dp183
g9
g20
sg21
I58349
sg13
I00
sg22
I2
sg23
I0
sg24
I58348
sg25
I-12
sg26
F211.5
sg27
F-35.099999999999994
sg28
I16
sg29
g10
sg30
S'18.8403037258'
p184
sg32
I-12
sg33
I5
sbasg37
F22.542690616478012
sg38
I00
sg39
I1
sg40
I58211
sg41
F541.04332673466456
sg30
S'18.8498675111'
p185
sg33
I1
sba(igraph
Edge
p186
(dp187
g8
F-1.0
sg9
g10
sg11
F-70.199999999999974
sg12
F566.17499999999666
sg13
I00
sg14
F8.6490624872127455
sg15
F99.391165042034928
sg16
(lp188
g129
ag112
asg37
F-18.782330084069841
sg38
I00
sg39
I1
sg40
I58212
sg41
F645.3240624872094
sg30
S'18.8530855179'
p189
sg33
I1
sba(igraph
Edge
p190
(dp191
g8
F1.0
sg9
g10
sg11
F-35.099999999999994
sg12
F588.91944444444619
sg13
I00
sg14
F14.780943950148298
sg15
F77.980376377214199
sg16
(lp192
g119
ag129
asg37
F24.039247245571588
sg38
I00
sg39
I1
sg40
I58213
sg41
F674.20038839459448
sg30
S'18.8535920068'
p193
sg33
I1
sba(igraph
Edge
p194
(dp195
g8
F1.0
sg9
g10
sg11
F-1.4210854715202004e-14
sg12
F642.95312499999852
sg13
I00
sg14
F21.268326689186551
sg15
F76.18037749741454
sg16
(lp196
g66
ag129
asg37
F27.63924500517092
sg38
I00
sg39
I1
sg40
I58214
sg41
F734.72145168918507
sg30
S'18.8540839688'
p197
sg33
I1
sba(igraph
Edge
p198
(dp199
g8
F-1.0
sg9
g10
sg11
F-70.199999999999989
sg12
F504.74545454545648
sg13
I00
sg14
F10.866864822786965
sg15
F101.78402994925275
sg16
(lp200
g159
ag109
asg37
F-23.56805989850551
sg38
I00
sg39
I1
sg40
I58215
sg41
F515.61231936824345
sg30
S'18.8546144831'
p201
sg33
I1
sba(igraph
Edge
p202
(dp203
g8
F1.0
sg9
g10
sg11
F-35.09999999999998
sg12
F587.9400000000021
sg13
I00
sg14
F16.531342248745432
sg15
F76.569301377207054
sg16
(lp204
g122
ag159
asg37
F26.861397245585891
sg38
I00
sg39
I1
sg40
I58216
sg41
F604.47134224874753
sg30
S'18.8551276768'
p205
sg33
I1
sba(igraph
Edge
p206
(dp207
g8
F1.0
sg9
g10
sg11
F0.0
sg12
F657.10526315789389
sg13
I00
sg14
F23.032647026360564
sg15
F75.046448549949005
sg16
(lp208
g69
ag159
asg37
F29.907102900101989
sg38
I00
sg39
I1
sg40
I58217
sg41
F680.13791018425445
sg30
S'18.8556760706'
p209
sg33
I1
sba(igraph
Edge
p210
(dp211
g8
F1.0
sg9
g10
sg11
F-70.199999999999974
sg12
F590.90833333333228
sg13
I00
sg14
F10.546394871226312
sg15
F78.561149109258196
sg16
(lp212
g18
a(igraph
Vertex
p213
(dp214
g9
g20
sg21
I58307
sg13
I00
sg22
I4
sg23
I0
sg24
I58306
sg25
I-12
sg26
F70.5
sg27
F-175.5
sg28
I16
sg29
g10
sg30
S'18.836915865'
p215
sg32
I-12
sg33
I5
sbasg37
F22.877701781483623
sg38
I00
sg39
I1
sg40
I58218
sg41
F530.95472820455859
sg30
S'18.8562121722'
p216
sg33
I1
sba(igraph
Edge
p217
(dp218
g8
F1.0
sg9
g10
sg11
F-35.09999999999998
sg12
F621.20937499999854
sg13
I00
sg14
F17.615334750412558
sg15
F75.69746583131716
sg16
(lp219
g49
ag213
asg37
F28.605068337365694
sg38
I00
sg39
I1
sg40
I58219
sg41
F568.3247097504111
sg30
S'18.8567857088'
p220
sg33
I1
sba(igraph
Edge
p221
(dp222
g8
F1.0
sg9
g10
sg11
F1.4210854715202004e-14
sg12
F654.46874999999955
sg13
I00
sg14
F25.801494417159574
sg15
F73.272911973483033
sg16
(lp223
g59
ag213
asg37
F33.454176053033933
sg38
I00
sg39
I1
sg40
I58220
sg41
F609.77024441715912
sg30
S'18.8573584073'
p224
sg33
I1
sba(igraph
Edge
p225
(dp226
g8
F-1.0
sg9
g10
sg11
F-70.199999999999989
sg12
F807.48888888889167
sg13
I00
sg14
F8.2670143919535803
sg15
F98.978071084125148
sg16
(lp227
g132
ag98
asg37
F-17.956142168250281
sg38
I00
sg39
I1
sg40
I58221
sg41
F674.75590328084525
sg30
S'18.8579582042'
p228
sg33
I1
sba(igraph
Edge
p229
(dp230
g8
F1.0
sg9
g10
sg11
F-35.099999999999994
sg12
F852.19230769230546
sg13
I00
sg14
F13.726072900093982
sg15
F78.832553412043083
sg16
(lp231
g87
ag132
asg37
F22.334893175913834
sg38
I00
sg39
I1
sg40
I58222
sg41
F724.91838059239944
sg30
S'18.8585786741'
p232
sg33
I1
sba(igraph
Edge
p233
(dp234
g8
F1.0
sg9
g10
sg11
F0.0
sg12
F846.33333333333428
sg13
I00
sg14
F21.505961910884366
sg15
F76.027485752789559
sg16
(lp235
g76
ag132
asg37
F27.945028494420882
sg38
I00
sg39
I1
sg40
I58223
sg41
F726.83929524421865
sg30
S'18.8591717662'
p236
sg33
I1
sba(igraph
Edge
p237
(dp238
g8
F1.0
sg9
g10
sg11
F-70.199999999999989
sg12
F838.9450000000071
sg13
I00
sg14
F8.7745517468791832
sg15
F80.473201061030878
sg16
(lp239
g34
ag162
asg37
F19.053597877938259
sg38
I00
sg39
I1
sg40
I58224
sg41
F636.21955174688628
sg30
S'18.8598070425'
p240
sg33
I1
sba(igraph
Edge
p241
(dp242
g8
F1.0
sg9
g10
sg11
F-35.099999999999994
sg12
F874.25937499999816
sg13
I00
sg14
F14.708077465718588
sg15
F78.039199736128666
sg16
(lp243
g46
ag162
asg37
F23.921600527742683
sg38
I00
sg39
I1
sg40
I58225
sg41
F677.46745246571675
sg30
S'18.8604465093'
p244
sg33
I1
sba(igraph
Edge
p245
(dp246
g8
F1.0
sg9
g10
sg11
F0.0
sg12
F901.51249999999936
sg13
I00
sg14
F21.968890315961858
sg15
F75.729786972980889
sg16
(lp247
g56
ag162
asg37
F28.540426054038221
sg38
I00
sg39
I1
sg40
I58226
sg41
F711.98139031596122
sg30
S'18.8610725665'
p248
sg33
I1
sba(igraph
Edge
p249
(dp250
g8
F1.0
sg9
g10
sg11
F-35.099999999999994
sg12
F-293.30250000000029
sg13
I00
sg14
F10.797572787338822
sg15
F-107.48845403285419
sg16
(lp251
g139
ag112
asg37
F34.976908065708386
sg38
I00
sg39
I1
sg40
I58227
sg41
F233.60007278733912
sg30
S'18.8659167576'
p252
sg33
I1
sba(igraph
Edge
p253
(dp254
g8
F1.0
sg9
g10
sg11
F7.1054273576010019e-15
sg12
F-424.43500000000091
sg13
I00
sg14
F15.331941689883706
sg15
F-106.56838671205746
sg16
(lp255
g139
ag119
asg37
F33.136773424114921
sg38
I00
sg39
I1
sg40
I58228
sg41
F369.26694168988462
sg30
S'18.8666987005'
p256
sg33
I1
sba(igraph
Edge
p257
(dp258
g8
F1.0
sg9
g10
sg11
F35.099999999999994
sg12
F-548.35357142857049
sg13
I00
sg14
F20.198831162803344
sg15
F-106.37351884818328
sg16
(lp259
g139
ag66
asg37
F32.747037696366547
sg38
I00
sg39
I1
sg40
I58229
sg41
F498.05240259137383
sg30
S'18.8674887451'
p260
sg33
I1
sba(igraph
Edge
p261
(dp262
g8
F1.0
sg9
g10
sg11
F-35.099999999999994
sg12
F-260.34363636363679
sg13
I00
sg14
F9.2984393497828819
sg15
F-105.09054164081503
sg16
(lp263
g169
ag109
asg37
F30.181083281630052
sg38
I00
sg39
I1
sg40
I58230
sg41
F269.64207571341967
sg30
S'18.8683491896'
p264
sg33
I1
sba(igraph
Edge
p265
(dp266
g8
F1.0
sg9
g10
sg11
F7.1054273576010019e-15
sg12
F-413.03999999999905
sg13
I00
sg14
F13.211254074401552
sg15
F-104.30226955168756
sg16
(lp267
g169
ag122
asg37
F28.604539103375117
sg38
I00
sg39
I1
sg40
I58231
sg41
F426.25125407440061
sg30
S'18.8691439834'
p268
sg33
I1
sba(igraph
Edge
p269
(dp270
g8
F1.0
sg9
g10
sg11
F35.099999999999994
sg12
F-483.07647058823443
sg13
I00
sg14
F19.989167709577885
sg15
F-106.20583072362496
sg16
(lp271
g169
ag69
asg37
F32.411661447249898
sg38
I00
sg39
I1
sg40
I58232
sg41
F503.06563829781231
sg30
S'18.8699572152'
p272
sg33
I1
sba(igraph
Edge
p273
(dp274
g8
F1.0
sg9
g10
sg11
F-35.099999999999994
sg12
F-199.74499999999944
sg13
I00
sg14
F8.9688965470737685
sg15
F-104.56156531745536
sg16
(lp275
(igraph
Vertex
p276
(dp277
g9
g20
sg21
I58310
sg13
I00
sg22
I0
sg23
I0
sg24
I58309
sg25
I-12
sg26
F70.5
sg27
F-105.30000000000001
sg28
I16
sg29
g10
sg30
S'18.8371119793'
p278
sg32
I-12
sg33
I5
sbag18
asg37
F29.123130634910723
sg38
I00
sg39
I1
sg40
I58233
sg41
F279.2138965470732
sg30
S'18.8707981042'
p279
sg33
I1
sba(igraph
Edge
p280
(dp281
g8
F1.0
sg9
g10
sg11
F-7.1054273576010019e-15
sg12
F-303.75750000000124
sg13
I00
sg14
F14.531345398437281
sg15
F-105.71432354381972
sg16
(lp282
g276
ag49
asg37
F31.428647087639433
sg38
I00
sg39
I1
sg40
I58234
sg41
F388.78884539843853
sg30
S'18.8716328472'
p283
sg33
I1
sba(igraph
Edge
p284
(dp285
g8
F1.0
sg9
g10
sg11
F35.100000000000001
sg12
F-330.87916666666717
sg13
I00
sg14
F23.847120660478424
sg15
F-109.27952760260601
sg16
(lp286
g276
ag59
asg37
F38.559055205212019
sg38
I00
sg39
I1
sg40
I58235
sg41
F425.2262873271456
sg30
S'18.8725444156'
p287
sg33
I1
sba(igraph
Edge
p288
(dp289
g8
F1.0
sg9
g10
sg11
F-35.099999999999994
sg12
F-143.12545454545494
sg13
I00
sg14
F8.5438364993374307
sg15
F-103.87834693938301
sg16
(lp290
g142
ag98
asg37
F27.756693878766001
sg38
I00
sg39
I1
sg40
I58236
sg41
F292.66929104479237
sg30
S'18.8734023458'
p291
sg33
I1
sba(igraph
Edge
p292
(dp293
g8
F1.0
sg9
g10
sg11
F-7.1054273576010019e-15
sg12
F-247.76000000000107
sg13
I00
sg14
F14.008454077525755
sg15
F-105.15555555543455
sg16
(lp294
g142
ag87
asg37
F30.311111110869092
sg38
I00
sg39
I1
sg40
I58237
sg41
F402.76845407752683
sg30
S'18.8742792729'
p295
sg33
I1
sba(igraph
Edge
p296
(dp297
g8
F1.0
sg9
g10
sg11
F35.099999999999987
sg12
F-319.63333333333338
sg13
I00
sg14
F20.921676793004963
sg15
F-106.95110304577041
sg16
(lp298
g142
ag76
asg37
F33.902206091540805
sg38
I00
sg39
I1
sg40
I58238
sg41
F481.55501012633835
sg30
S'18.8752539778'
p299
sg33
I1
sba(igraph
Edge
p300
(dp301
g8
F1.0
sg9
g10
sg11
F-35.099999999999994
sg12
F-102.33833333333367
sg13
I00
sg14
F7.755415781049237
sg15
F-102.60848859538078
sg16
(lp302
g172
ag34
asg37
F25.21697719076154
sg38
I00
sg39
I1
sg40
I58239
sg41
F321.59374911438289
sg30
S'18.8762108033'
p303
sg33
I1
sba(igraph
Edge
p304
(dp305
g8
F1.0
sg9
g10
sg11
F3.5527136788005009e-15
sg12
F-254.80900000000125
sg13
I00
sg14
F11.741388014694508
sg15
F-102.72487235017864
sg16
(lp306
g172
ag46
asg37
F25.449744700357286
sg38
I00
sg39
I1
sg40
I58240
sg41
F478.05038801469573
sg30
S'18.8772156796'
p307
sg33
I1
sba(igraph
Edge
p308
(dp309
g8
F1.0
sg9
g10
sg11
F35.099999999999987
sg12
F-295.53500000000014
sg13
I00
sg14
F19.079674975902947
sg15
F-105.47762092221301
sg16
(lp310
g172
ag56
asg37
F30.955241844426013
sg38
I00
sg39
I1
sg40
I58241
sg41
F526.11467497590309
sg30
S'18.8782177623'
p311
sg33
I1
sba(igraph
Edge
p312
(dp313
g8
I1
sg9
g10
sg13
I00
sg14
I5
sg16
(lp314
g149
ag112
asg38
I00
sg39
I00
sg40
I58242
sg30
S'18.8850965695'
p315
sg33
I1
sba(igraph
Edge
p316
(dp317
g8
I1
sg9
g10
sg13
I00
sg14
I5
sg16
(lp318
g149
ag119
asg38
I00
sg39
I00
sg40
I58243
sg30
S'18.8860952998'
p319
sg33
I1
sba(igraph
Edge
p320
(dp321
g8
I1
sg9
g10
sg13
I00
sg14
I5
sg16
(lp322
g149
ag66
asg38
I00
sg39
I00
sg40
I58244
sg30
S'18.887113865'
p323
sg33
I1
sba(igraph
Edge
p324
(dp325
g8
I1
sg9
g10
sg13
I00
sg14
I5
sg16
(lp326
g179
ag109
asg38
I00
sg39
I00
sg40
I58245
sg30
S'18.8882117699'
p327
sg33
I1
sba(igraph
Edge
p328
(dp329
g8
I1
sg9
g10
sg13
I00
sg14
I5
sg16
(lp330
g179
ag122
asg38
I00
sg39
I00
sg40
I58246
sg30
S'18.8892445828'
p331
sg33
I1
sba(igraph
Edge
p332
(dp333
g8
I1
sg9
g10
sg13
I00
sg14
I5
sg16
(lp334
g179
ag69
asg38
I00
sg39
I00
sg40
I58247
sg30
S'18.8902829829'
p335
sg33
I1
sba(igraph
Edge
p336
(dp337
g8
I1
sg9
g10
sg13
I00
sg14
I5
sg16
(lp338
(igraph
Vertex
p339
(dp340
g9
g20
sg21
I58313
sg13
I00
sg22
I2
sg23
I0
sg24
I58312
sg25
I-12
sg26
F70.5
sg27
F-35.099999999999994
sg28
I16
sg29
g10
sg30
S'18.8373050206'
p341
sg32
I-12
sg33
I5
sbag18
asg38
I00
sg39
I00
sg40
I58248
sg30
S'18.8913319989'
p342
sg33
I1
sba(igraph
Edge
p343
(dp344
g8
I1
sg9
g10
sg13
I00
sg14
I5
sg16
(lp345
g339
ag49
asg38
I00
sg39
I00
sg40
I58249
sg30
S'18.8924751609'
p346
sg33
I1
sba(igraph
Edge
p347
(dp348
g8
I1
sg9
g10
sg13
I00
sg14
I5
sg16
(lp349
g339
ag59
asg38
I00
sg39
I00
sg40
I58250
sg30
S'18.8935565833'
p350
sg33
I1
sba(igraph
Edge
p351
(dp352
g8
I1
sg9
g10
sg13
I00
sg14
I5
sg16
(lp353
g152
ag98
asg38
I00
sg39
I00
sg40
I58251
sg30
S'18.8946653834'
p354
sg33
I1
sba(igraph
Edge
p355
(dp356
g8
I1
sg9
g10
sg13
I00
sg14
I5
sg16
(lp357
g152
ag87
asg38
I00
sg39
I00
sg40
I58252
sg30
S'18.8958588312'
p358
sg33
I1
sba(igraph
Edge
p359
(dp360
g8
I1
sg9
g10
sg13
I00
sg14
I5
sg16
(lp361
g152
ag76
asg38
I00
sg39
I00
sg40
I58253
sg30
S'18.8969721012'
p362
sg33
I1
sba(igraph
Edge
p363
(dp364
g8
I1
sg9
g10
sg13
I00
sg14
I5
sg16
(lp365
g182
ag34
asg38
I00
sg39
I00
sg40
I58254
sg30
S'18.8980719617'
p366
sg33
I1
sba(igraph
Edge
p367
(dp368
g8
I1
sg9
g10
sg13
I00
sg14
I5
sg16
(lp369
g182
ag46
asg38
I00
sg39
I00
sg40
I58255
sg30
S'18.8991846729'
p370
sg33
I1
sba(igraph
Edge
p371
(dp372
g8
I1
sg9
g10
sg13
I00
sg14
I5
sg16
(lp373
g182
ag56
asg38
I00
sg39
I00
sg40
I58256
sg30
S'18.9003529778'
p374
sg33
I1
sba(igraph
Edge
p375
(dp376
g8
I1
sg9
g10
sg13
I00
sg14
I5
sg16
(lp377
g129
ag142
asg38
I00
sg39
I00
sg40
I58257
sg30
S'18.9087652202'
p378
sg33
I1
sba(igraph
Edge
p379
(dp380
g8
I1
sg9
g10
sg13
I00
sg14
I5
sg16
(lp381
g132
ag149
asg38
I00
sg39
I00
sg40
I58258
sg30
S'18.9099818552'
p382
sg33
I1
sba(igraph
Edge
p383
(dp384
g8
I1
sg9
g10
sg13
I00
sg14
I5
sg16
(lp385
g139
ag152
asg38
I00
sg39
I00
sg40
I58259
sg30
S'18.9112322935'
p386
sg33
I1
sba(igraph
Edge
p387
(dp388
g8
I1
sg9
g10
sg13
I00
sg14
I5
sg16
(lp389
g159
ag172
asg38
I00
sg39
I00
sg40
I58260
sg30
S'59.3760436033'
p390
sg33
I1
sba(igraph
Edge
p391
(dp392
g8
I1
sg9
g10
sg13
I00
sg14
I5
sg16
(lp393
g169
ag182
asg38
I00
sg39
I00
sg40
I58261
sg30
S'65.1462557392'
p394
sg33
I1
sba(igraph
Edge
p395
(dp396
g8
I1
sg9
g10
sg13
I00
sg14
I5
sg16
(lp397
g162
ag179
asg38
I00
sg39
I00
sg40
I58262
sg30
S'73.2428744435'
p398
sg33
I1
sba(igraph
Edge
p399
(dp400
S'direction'
p401
I1
sS'color'
p402
S'black'
p403
sS'selected'
p404
I00
sS'height'
p405
I5
sS'vs'
p406
(lp407
g213
ag339
asS'wrap'
p408
I00
sS'curved'
p409
I00
sS'line'
p410
I58263
sS'id'
p411
S'218.93474422'
p412
sS'size'
p413
I1
sba(igraph
Edge
p414
(dp415
g401
I1
sg402
g403
sg404
I00
sg405
I5
sg406
(lp416
g339
ag276
asg408
I00
sg409
I00
sg410
I58264
sg411
S'220.739752399'
p417
sg413
I1
sba(igraph
Edge
p418
(dp419
g401
I1
sg402
g403
sg404
I00
sg405
I5
sg406
(lp420
g276
ag213
asg408
I00
sg409
I00
sg410
I58265
sg411
S'222.384405001'
p421
sg413
I1
sba(igraph
Edge
p422
(dp423
g401
I1
sg402
g403
sg404
I00
sg405
I5
sg406
(lp424
g112
ag122
asg408
I00
sg409
I00
sg410
I58266
sg411
S'244.531880448'
p425
sg413
I1
sba(igraph
Edge
p426
(dp427
g401
I1
sg402
g403
sg404
I00
sg405
I5
sg406
(lp428
g119
ag69
asg408
I00
sg409
I00
sg410
I58267
sg411
S'247.694790818'
p429
sg413
I1
sba(igraph
Edge
p430
(dp431
g401
I1
sg402
g403
sg404
I00
sg405
I5
sg406
(lp432
g66
ag109
asg408
I00
sg409
I00
sg410
I58268
sg411
S'250.808392966'
p433
sg413
I1
sbasS'vertices'
p434
(lp435
g129
ag139
ag149
ag112
ag119
ag66
ag159
ag169
ag179
ag109
ag122
ag69
ag213
ag276
ag339
ag18
ag49
ag59
ag132
ag142
ag152
ag98
ag87
ag76
ag162
ag172
ag182
ag34
ag46
ag56
asS'tags'
p436
(lp437
sb.