(igraph
Graph
p0
(dp1
S'labelingConstraints'
p2
(lp3
I2
aI1
asS'edges'
p4
(lp5
(igraph
Edge
p6
(dp7
S'direction'
p8
F-1.0
sS'color'
p9
S'black'
p10
sS'h'
p11
F-270.25508474576395
sS'k'
p12
F141.0
sS'selected'
p13
I00
sS'height'
p14
F8.0328183074532831
sS'start'
p15
F13.000574315378843
sS'vs'
p16
(lp17
(igraph
Vertex
p18
(dp19
g9
S'#ffffff'
p20
sS'text'
p21
I70436
sg13
I00
sS'label'
p22
I6
sS'lsize'
p23
I16
sS'shape'
p24
I0
sS'ly'
p25
I-12
sS'y'
p26
F70.5
sS'x'
p27
F35.100000000000023
sS'circle'
p28
I70435
sS'lcolor'
p29
g10
sS'id'
p30
S'18.8375078397'
p31
sS'lx'
p32
I-12
sS'size'
p33
I5
sba(igraph
Vertex
p34
(dp35
g9
g20
sg21
I70472
sg13
I00
sg22
I10
sg23
I16
sg24
I0
sg25
I-12
sg26
F211.5
sg27
F35.100000000000023
sg28
I70471
sg29
g10
sg30
S'18.8405923099'
p36
sg32
I-12
sg33
I5
sbasS'extent'
p37
F-26.001148630757687
sS'wrap'
p38
I00
sS'curved'
p39
I1
sS'line'
p40
I70347
sS'r'
p41
F313.38790305321726
sg30
S'18.8425414403'
p42
sg33
I1
sba(igraph
Edge
p43
(dp44
g8
F1.0
sg9
g10
sg11
F-197.81491228070149
sg12
F141.0
sg13
I00
sg14
F8.0906468710227841
sg15
F-13.09335633447424
sg16
(lp45
(igraph
Vertex
p46
(dp47
g9
g20
sg21
I70475
sg13
I00
sg22
I6
sg23
I16
sg24
I0
sg25
I-12
sg26
F211.5
sg27
F105.30000000000001
sg28
I70474
sg29
g10
sg30
S'18.8409314592'
p48
sg32
I-12
sg33
I5
sba(igraph
Vertex
p49
(dp50
g9
g20
sg21
I70439
sg13
I00
sg22
I8
sg23
I16
sg24
I0
sg25
I-12
sg26
F70.5
sg27
F105.30000000000001
sg28
I70438
sg29
g10
sg30
S'18.8377182016'
p51
sg32
I-12
sg33
I5
sbasg37
F26.186712668948481
sg38
I00
sg39
I1
sg40
I70348
sg41
F311.20555915172429
sg30
S'18.842705707'
p52
sg33
I1
sba(igraph
Edge
p53
(dp54
g8
F1.0
sg9
g10
sg11
F-129.28333333333285
sg12
F141.0
sg13
I00
sg14
F8.0474999900105786
sg15
F-13.024131708410794
sg16
(lp55
(igraph
Vertex
p56
(dp57
g9
g20
sg21
I70478
sg13
I00
sg22
I8
sg23
I16
sg24
I0
sg25
I-12
sg26
F211.5
sg27
F175.5
sg28
I70477
sg29
g10
sg30
S'18.841246583'
p58
sg32
I-12
sg33
I5
sba(igraph
Vertex
p59
(dp60
g9
g20
sg21
I70442
sg13
I00
sg22
I10
sg23
I16
sg24
I0
sg25
I-12
sg26
F70.5
sg27
F175.5
sg28
I70441
sg29
g10
sg30
S'18.8379565001'
p61
sg32
I-12
sg33
I5
sbasg37
F26.048263416821587
sg38
I00
sg39
I1
sg40
I70349
sg41
F312.83083332334343
sg30
S'18.8429294785'
p62
sg33
I1
sba(igraph
Edge
p63
(dp64
g8
I1
sg9
g10
sg13
I00
sg14
I5
sg16
(lp65
g59
a(igraph
Vertex
p66
(dp67
g9
g20
sg21
I70460
sg13
I00
sg22
I6
sg23
I16
sg24
I0
sg25
I-12
sg26
F141.0
sg27
F175.5
sg28
I70459
sg29
g10
sg30
S'18.8394505447'
p68
sg32
I-12
sg33
I5
sbasg38
I00
sg39
I00
sg40
I70350
sg30
S'18.8432932118'
p69
sg33
I1
sba(igraph
Edge
p70
(dp71
g8
I1
sg9
g10
sg13
I00
sg14
I5
sg16
(lp72
g66
ag56
asg38
I00
sg39
I00
sg40
I70351
sg30
S'18.8434217198'
p73
sg33
I1
sba(igraph
Edge
p74
(dp75
g8
I1
sg9
g10
sg13
I00
sg14
I5
sg16
(lp76
g46
a(igraph
Vertex
p77
(dp78
g9
g20
sg21
I70457
sg13
I00
sg22
I10
sg23
I16
sg24
I0
sg25
I-12
sg26
F141.0
sg27
F105.30000000000001
sg28
I70456
sg29
g10
sg30
S'18.8391873828'
p79
sg32
I-12
sg33
I5
sbasg38
I00
sg39
I00
sg40
I70352
sg30
S'18.8435625198'
p80
sg33
I1
sba(igraph
Edge
p81
(dp82
g8
I1
sg9
g10
sg13
I00
sg14
I5
sg16
(lp83
g77
ag49
asg38
I00
sg39
I00
sg40
I70353
sg30
S'18.8437312563'
p84
sg33
I1
sba(igraph
Edge
p85
(dp86
g8
I1
sg9
g10
sg13
I00
sg14
I5
sg16
(lp87
g18
a(igraph
Vertex
p88
(dp89
g9
g20
sg21
I70454
sg13
I00
sg22
I8
sg23
I16
sg24
I0
sg25
I-12
sg26
F141.0
sg27
F35.100000000000023
sg28
I70453
sg29
g10
sg30
S'18.8389284113'
p90
sg32
I-12
sg33
I5
sbasg38
I00
sg39
I00
sg40
I70354
sg30
S'18.8439106088'
p91
sg33
I1
sba(igraph
Edge
p92
(dp93
g8
I1
sg9
g10
sg13
I00
sg14
I5
sg16
(lp94
g88
ag34
asg38
I00
sg39
I00
sg40
I70355
sg30
S'18.8440874469'
p95
sg33
I1
sba(igraph
Edge
p96
(dp97
g8
F1.0
sg9
g10
sg11
F433.75000000000068
sg12
F105.75
sg13
I00
sg14
F9.1096243287557854
sg15
F170.15304590092202
sg16
(lp98
(igraph
Vertex
p99
(dp100
g9
g20
sg21
I70409
sg13
I00
sg22
I2
sg23
I16
sg24
I0
sg25
I-12
sg26
F0.0
sg27
F-175.5
sg28
I70408
sg29
g10
sg30
S'18.8358120934'
p101
sg32
I-12
sg33
I5
sba(igraph
Vertex
p102
(dp103
g9
g20
sg21
I70463
sg13
I00
sg22
I4
sg23
I16
sg24
I0
sg25
I-12
sg26
F211.5
sg27
F-175.5
sg28
I70462
sg29
g10
sg30
S'18.8397265574'
p104
sg32
I-12
sg33
I5
sbasg37
F19.693908198155953
sg38
I00
sg39
I1
sg40
I70356
sg41
F618.35962432875647
sg30
S'18.8482776442'
p105
sg33
I1
sba(igraph
Edge
p106
(dp107
g8
F1.0
sg9
g10
sg11
F458.2096491228067
sg12
F105.75
sg13
I00
sg14
F9.8368317720434106
sg15
F169.3713142454634
sg16
(lp108
(igraph
Vertex
p109
(dp110
g9
g20
sg21
I70412
sg13
I00
sg22
I4
sg23
I16
sg24
I0
sg25
I-12
sg26
F0.0
sg27
F-105.30000000000001
sg28
I70411
sg29
g10
sg30
S'18.8359690966'
p111
sg32
I-12
sg33
I5
sba(igraph
Vertex
p112
(dp113
g9
g20
sg21
I70466
sg13
I00
sg22
I0
sg23
I16
sg24
I0
sg25
I-12
sg26
F211.5
sg27
F-105.30000000000001
sg28
I70465
sg29
g10
sg30
S'18.8400224051'
p114
sg32
I-12
sg33
I5
sbasg37
F21.257371509073209
sg38
I00
sg39
I1
sg40
I70357
sg41
F573.34648089485006
sg30
S'18.8490514856'
p115
sg33
I1
sba(igraph
Edge
p116
(dp117
g8
F1.0
sg9
g10
sg11
F495.50797101448916
sg12
F105.75
sg13
I00
sg14
F10.43535572017538
sg15
F168.72865469176099
sg16
(lp118
(igraph
Vertex
p119
(dp120
g9
g20
sg21
I70415
sg13
I00
sg22
I0
sg23
I16
sg24
I0
sg25
I-12
sg26
F0.0
sg27
F-35.099999999999994
sg28
I70414
sg29
g10
sg30
S'18.8361219093'
p121
sg32
I-12
sg33
I5
sba(igraph
Vertex
p122
(dp123
g9
g20
sg21
I70469
sg13
I00
sg22
I2
sg23
I16
sg24
I0
sg25
I-12
sg26
F211.5
sg27
F-35.099999999999994
sg28
I70468
sg29
g10
sg30
S'18.8403037258'
p124
sg32
I-12
sg33
I5
sbasg37
F22.542690616478012
sg38
I00
sg39
I1
sg40
I70358
sg41
F541.04332673466456
sg30
S'18.8498675111'
p125
sg33
I1
sba(igraph
Edge
p126
(dp127
g8
F-1.0
sg9
g10
sg11
F-70.199999999999989
sg12
F504.74545454545648
sg13
I00
sg14
F10.866864822786965
sg15
F101.78402994925275
sg16
(lp128
g99
a(igraph
Vertex
p129
(dp130
g9
g20
sg21
I70418
sg13
I00
sg22
I10
sg23
I16
sg24
I0
sg25
I-12
sg26
F0.0
sg27
F35.100000000000023
sg28
I70417
sg29
g10
sg30
S'18.8362786332'
p131
sg32
I-12
sg33
I5
sbasg37
F-23.56805989850551
sg38
I00
sg39
I1
sg40
I70359
sg41
F515.61231936824345
sg30
S'18.8546144831'
p132
sg33
I1
sba(igraph
Edge
p133
(dp134
g8
F1.0
sg9
g10
sg11
F-35.09999999999998
sg12
F587.9400000000021
sg13
I00
sg14
F16.531342248745432
sg15
F76.569301377207054
sg16
(lp135
(igraph
Vertex
p136
(dp137
g9
g20
sg21
I70421
sg13
I00
sg22
I6
sg23
I16
sg24
I0
sg25
I-12
sg26
F0.0
sg27
F105.30000000000001
sg28
I70420
sg29
g10
sg30
S'18.8364510015'
p138
sg32
I-12
sg33
I5
sbag99
asg37
F26.861397245585891
sg38
I00
sg39
I1
sg40
I70360
sg41
F604.47134224874753
sg30
S'18.8551276768'
p139
sg33
I1
sba(igraph
Edge
p140
(dp141
g8
F1.0
sg9
g10
sg11
F0.0
sg12
F657.10526315789389
sg13
I00
sg14
F23.032647026360564
sg15
F75.046448549949005
sg16
(lp142
(igraph
Vertex
p143
(dp144
g9
g20
sg21
I70424
sg13
I00
sg22
I8
sg23
I16
sg24
I0
sg25
I-12
sg26
F0.0
sg27
F175.5
sg28
I70423
sg29
g10
sg30
S'18.8366219729'
p145
sg32
I-12
sg33
I5
sbag99
asg37
F29.907102900101989
sg38
I00
sg39
I1
sg40
I70361
sg41
F680.13791018425445
sg30
S'18.8556760706'
p146
sg33
I1
sba(igraph
Edge
p147
(dp148
g8
F1.0
sg9
g10
sg11
F-70.199999999999974
sg12
F590.90833333333228
sg13
I00
sg14
F10.546394871226312
sg15
F78.561149109258196
sg16
(lp149
g18
a(igraph
Vertex
p150
(dp151
g9
g20
sg21
I70427
sg13
I00
sg22
I4
sg23
I16
sg24
I0
sg25
I-12
sg26
F70.5
sg27
F-175.5
sg28
I70426
sg29
g10
sg30
S'18.836915865'
p152
sg32
I-12
sg33
I5
sbasg37
F22.877701781483623
sg38
I00
sg39
I1
sg40
I70362
sg41
F530.95472820455859
sg30
S'18.8562121722'
p153
sg33
I1
sba(igraph
Edge
p154
(dp155
g8
F1.0
sg9
g10
sg11
F-35.09999999999998
sg12
F621.20937499999854
sg13
I00
sg14
F17.615334750412558
sg15
F75.69746583131716
sg16
(lp156
g49
ag150
asg37
F28.605068337365694
sg38
I00
sg39
I1
sg40
I70363
sg41
F568.3247097504111
sg30
S'18.8567857088'
p157
sg33
I1
sba(igraph
Edge
p158
(dp159
g8
F1.0
sg9
g10
sg11
F1.4210854715202004e-14
sg12
F654.46874999999955
sg13
I00
sg14
F25.801494417159574
sg15
F73.272911973483033
sg16
(lp160
g59
ag150
asg37
F33.454176053033933
sg38
I00
sg39
I1
sg40
I70364
sg41
F609.77024441715912
sg30
S'18.8573584073'
p161
sg33
I1
sba(igraph
Edge
p162
(dp163
g8
F-1.0
sg9
g10
sg11
F-70.199999999999989
sg12
F807.48888888889167
sg13
I00
sg14
F8.2670143919535803
sg15
F98.978071084125148
sg16
(lp164
(igraph
Vertex
p165
(dp166
g9
g20
sg21
I70445
sg13
I00
sg22
I4
sg23
I16
sg24
I0
sg25
I-12
sg26
F141.0
sg27
F-175.5
sg28
I70444
sg29
g10
sg30
S'18.8381819477'
p167
sg32
I-12
sg33
I5
sbag88
asg37
F-17.956142168250281
sg38
I00
sg39
I1
sg40
I70365
sg41
F674.75590328084525
sg30
S'18.8579582042'
p168
sg33
I1
sba(igraph
Edge
p169
(dp170
g8
F1.0
sg9
g10
sg11
F-35.099999999999994
sg12
F852.19230769230546
sg13
I00
sg14
F13.726072900093982
sg15
F78.832553412043083
sg16
(lp171
g77
ag165
asg37
F22.334893175913834
sg38
I00
sg39
I1
sg40
I70366
sg41
F724.91838059239944
sg30
S'18.8585786741'
p172
sg33
I1
sba(igraph
Edge
p173
(dp174
g8
F1.0
sg9
g10
sg11
F0.0
sg12
F846.33333333333428
sg13
I00
sg14
F21.505961910884366
sg15
F76.027485752789559
sg16
(lp175
g66
ag165
asg37
F27.945028494420882
sg38
I00
sg39
I1
sg40
I70367
sg41
F726.83929524421865
sg30
S'18.8591717662'
p176
sg33
I1
sba(igraph
Edge
p177
(dp178
g8
F1.0
sg9
g10
sg11
F-70.199999999999989
sg12
F838.9450000000071
sg13
I00
sg14
F8.7745517468791832
sg15
F80.473201061030878
sg16
(lp179
g34
ag102
asg37
F19.053597877938259
sg38
I00
sg39
I1
sg40
I70368
sg41
F636.21955174688628
sg30
S'18.8598070425'
p180
sg33
I1
sba(igraph
Edge
p181
(dp182
g8
F1.0
sg9
g10
sg11
F-35.099999999999994
sg12
F874.25937499999816
sg13
I00
sg14
F14.708077465718588
sg15
F78.039199736128666
sg16
(lp183
g46
ag102
asg37
F23.921600527742683
sg38
I00
sg39
I1
sg40
I70369
sg41
F677.46745246571675
sg30
S'18.8604465093'
p184
sg33
I1
sba(igraph
Edge
p185
(dp186
g8
F1.0
sg9
g10
sg11
F0.0
sg12
F901.51249999999936
sg13
I00
sg14
F21.968890315961858
sg15
F75.729786972980889
sg16
(lp187
g56
ag102
asg37
F28.540426054038221
sg38
I00
sg39
I1
sg40
I70370
sg41
F711.98139031596122
sg30
S'18.8610725665'
p188
sg33
I1
sba(igraph
Edge
p189
(dp190
g8
F1.0
sg9
g10
sg11
F-35.099999999999994
sg12
F-260.34363636363679
sg13
I00
sg14
F9.2984393497828819
sg15
F-105.09054164081503
sg16
(lp191
g109
ag129
asg37
F30.181083281630052
sg38
I00
sg39
I1
sg40
I70371
sg41
F269.64207571341967
sg30
S'18.8683491896'
p192
sg33
I1
sba(igraph
Edge
p193
(dp194
g8
F1.0
sg9
g10
sg11
F7.1054273576010019e-15
sg12
F-413.03999999999905
sg13
I00
sg14
F13.211254074401552
sg15
F-104.30226955168756
sg16
(lp195
g109
ag136
asg37
F28.604539103375117
sg38
I00
sg39
I1
sg40
I70372
sg41
F426.25125407440061
sg30
S'18.8691439834'
p196
sg33
I1
sba(igraph
Edge
p197
(dp198
g8
F1.0
sg9
g10
sg11
F35.099999999999994
sg12
F-483.07647058823443
sg13
I00
sg14
F19.989167709577885
sg15
F-106.20583072362496
sg16
(lp199
g109
ag143
asg37
F32.411661447249898
sg38
I00
sg39
I1
sg40
I70373
sg41
F503.06563829781231
sg30
S'18.8699572152'
p200
sg33
I1
sba(igraph
Edge
p201
(dp202
g8
F1.0
sg9
g10
sg11
F-35.099999999999994
sg12
F-199.74499999999944
sg13
I00
sg14
F8.9688965470737685
sg15
F-104.56156531745536
sg16
(lp203
(igraph
Vertex
p204
(dp205
g9
g20
sg21
I70430
sg13
I00
sg22
I0
sg23
I16
sg24
I0
sg25
I-12
sg26
F70.5
sg27
F-105.30000000000001
sg28
I70429
sg29
g10
sg30
S'18.8371119793'
p206
sg32
I-12
sg33
I5
sbag18
asg37
F29.123130634910723
sg38
I00
sg39
I1
sg40
I70374
sg41
F279.2138965470732
sg30
S'18.8707981042'
p207
sg33
I1
sba(igraph
Edge
p208
(dp209
g8
F1.0
sg9
g10
sg11
F-7.1054273576010019e-15
sg12
F-303.75750000000124
sg13
I00
sg14
F14.531345398437281
sg15
F-105.71432354381972
sg16
(lp210
g204
ag49
asg37
F31.428647087639433
sg38
I00
sg39
I1
sg40
I70375
sg41
F388.78884539843853
sg30
S'18.8716328472'
p211
sg33
I1
sba(igraph
Edge
p212
(dp213
g8
F1.0
sg9
g10
sg11
F35.100000000000001
sg12
F-330.87916666666717
sg13
I00
sg14
F23.847120660478424
sg15
F-109.27952760260601
sg16
(lp214
g204
ag59
asg37
F38.559055205212019
sg38
I00
sg39
I1
sg40
I70376
sg41
F425.2262873271456
sg30
S'18.8725444156'
p215
sg33
I1
sba(igraph
Edge
p216
(dp217
g8
F1.0
sg9
g10
sg11
F-35.099999999999994
sg12
F-143.12545454545494
sg13
I00
sg14
F8.5438364993374307
sg15
F-103.87834693938301
sg16
(lp218
(igraph
Vertex
p219
(dp220
g9
g20
sg21
I70448
sg13
I00
sg22
I0
sg23
I16
sg24
I0
sg25
I-12
sg26
F141.0
sg27
F-105.30000000000001
sg28
I70447
sg29
g10
sg30
S'18.8384152176'
p221
sg32
I-12
sg33
I5
sbag88
asg37
F27.756693878766001
sg38
I00
sg39
I1
sg40
I70377
sg41
F292.66929104479237
sg30
S'18.8734023458'
p222
sg33
I1
sba(igraph
Edge
p223
(dp224
g8
F1.0
sg9
g10
sg11
F-7.1054273576010019e-15
sg12
F-247.76000000000107
sg13
I00
sg14
F14.008454077525755
sg15
F-105.15555555543455
sg16
(lp225
g219
ag77
asg37
F30.311111110869092
sg38
I00
sg39
I1
sg40
I70378
sg41
F402.76845407752683
sg30
S'18.8742792729'
p226
sg33
I1
sba(igraph
Edge
p227
(dp228
g8
F1.0
sg9
g10
sg11
F35.099999999999987
sg12
F-319.63333333333338
sg13
I00
sg14
F20.921676793004963
sg15
F-106.95110304577041
sg16
(lp229
g219
ag66
asg37
F33.902206091540805
sg38
I00
sg39
I1
sg40
I70379
sg41
F481.55501012633835
sg30
S'18.8752539778'
p230
sg33
I1
sba(igraph
Edge
p231
(dp232
g8
F1.0
sg9
g10
sg11
F-35.099999999999994
sg12
F-102.33833333333367
sg13
I00
sg14
F7.755415781049237
sg15
F-102.60848859538078
sg16
(lp233
g112
ag34
asg37
F25.21697719076154
sg38
I00
sg39
I1
sg40
I70380
sg41
F321.59374911438289
sg30
S'18.8762108033'
p234
sg33
I1
sba(igraph
Edge
p235
(dp236
g8
F1.0
sg9
g10
sg11
F3.5527136788005009e-15
sg12
F-254.80900000000125
sg13
I00
sg14
F11.741388014694508
sg15
F-102.72487235017864
sg16
(lp237
g112
ag46
asg37
F25.449744700357286
sg38
I00
sg39
I1
sg40
I70381
sg41
F478.05038801469573
sg30
S'18.8772156796'
p238
sg33
I1
sba(igraph
Edge
p239
(dp240
g8
F1.0
sg9
g10
sg11
F35.099999999999987
sg12
F-295.53500000000014
sg13
I00
sg14
F19.079674975902947
sg15
F-105.47762092221301
sg16
(lp241
g112
ag56
asg37
F30.955241844426013
sg38
I00
sg39
I1
sg40
I70382
sg41
F526.11467497590309
sg30
S'18.8782177623'
p242
sg33
I1
sba(igraph
Edge
p243
(dp244
g8
I1
sg9
g10
sg13
I00
sg14
I5
sg16
(lp245
g119
ag129
asg38
I00
sg39
I00
sg40
I70383
sg30
S'18.8882117699'
p246
sg33
I1
sba(igraph
Edge
p247
(dp248
g8
I1
sg9
g10
sg13
I00
sg14
I5
sg16
(lp249
g119
ag136
asg38
I00
sg39
I00
sg40
I70384
sg30
S'18.8892445828'
p250
sg33
I1
sba(igraph
Edge
p251
(dp252
g8
I1
sg9
g10
sg13
I00
sg14
I5
sg16
(lp253
g119
ag143
asg38
I00
sg39
I00
sg40
I70385
sg30
S'18.8902829829'
p254
sg33
I1
sba(igraph
Edge
p255
(dp256
g8
I1
sg9
g10
sg13
I00
sg14
I5
sg16
(lp257
(igraph
Vertex
p258
(dp259
g9
g20
sg21
I70433
sg13
I00
sg22
I2
sg23
I16
sg24
I0
sg25
I-12
sg26
F70.5
sg27
F-35.099999999999994
sg28
I70432
sg29
g10
sg30
S'18.8373050206'
p260
sg32
I-12
sg33
I5
sbag18
asg38
I00
sg39
I00
sg40
I70386
sg30
S'18.8913319989'
p261
sg33
I1
sba(igraph
Edge
p262
(dp263
g8
I1
sg9
g10
sg13
I00
sg14
I5
sg16
(lp264
g258
ag49
asg38
I00
sg39
I00
sg40
I70387
sg30
S'18.8924751609'
p265
sg33
I1
sba(igraph
Edge
p266
(dp267
g8
I1
sg9
g10
sg13
I00
sg14
I5
sg16
(lp268
g258
ag59
asg38
I00
sg39
I00
sg40
I70388
sg30
S'18.8935565833'
p269
sg33
I1
sba(igraph
Edge
p270
(dp271
g8
I1
sg9
g10
sg13
I00
sg14
I5
sg16
(lp272
(igraph
Vertex
p273
(dp274
g9
g20
sg21
I70451
sg13
I00
sg22
I2
sg23
I16
sg24
I0
sg25
I-12
sg26
F141.0
sg27
F-35.099999999999994
sg28
I70450
sg29
g10
sg30
S'18.8386571478'
p275
sg32
I-12
sg33
I5
sbag88
asg38
I00
sg39
I00
sg40
I70389
sg30
S'18.8946653834'
p276
sg33
I1
sba(igraph
Edge
p277
(dp278
g8
I1
sg9
g10
sg13
I00
sg14
I5
sg16
(lp279
g273
ag77
asg38
I00
sg39
I00
sg40
I70390
sg30
S'18.8958588312'
p280
sg33
I1
sba(igraph
Edge
p281
(dp282
g8
I1
sg9
g10
sg13
I00
sg14
I5
sg16
(lp283
g273
ag66
asg38
I00
sg39
I00
sg40
I70391
sg30
S'18.8969721012'
p284
sg33
I1
sba(igraph
Edge
p285
(dp286
g8
I1
sg9
g10
sg13
I00
sg14
I5
sg16
(lp287
g122
ag34
asg38
I00
sg39
I00
sg40
I70392
sg30
S'18.8980719617'
p288
sg33
I1
sba(igraph
Edge
p289
(dp290
g8
I1
sg9
g10
sg13
I00
sg14
I5
sg16
(lp291
g122
ag46
asg38
I00
sg39
I00
sg40
I70393
sg30
S'18.8991846729'
p292
sg33
I1
sba(igraph
Edge
p293
(dp294
g8
I1
sg9
g10
sg13
I00
sg14
I5
sg16
(lp295
g122
ag56
asg38
I00
sg39
I00
sg40
I70394
sg30
S'18.9003529778'
p296
sg33
I1
sba(igraph
Edge
p297
(dp298
g8
I1
sg9
g10
sg13
I00
sg14
I5
sg16
(lp299
g99
ag112
asg38
I00
sg39
I00
sg40
I70395
sg30
S'59.3760436033'
p300
sg33
I1
sba(igraph
Edge
p301
(dp302
g8
I1
sg9
g10
sg13
I00
sg14
I5
sg16
(lp303
g109
ag122
asg38
I00
sg39
I00
sg40
I70396
sg30
S'65.1462557392'
p304
sg33
I1
sba(igraph
Edge
p305
(dp306
g8
I1
sg9
g10
sg13
I00
sg14
I5
sg16
(lp307
g102
ag119
asg38
I00
sg39
I00
sg40
I70397
sg30
S'73.2428744435'
p308
sg33
I1
sba(igraph
Edge
p309
(dp310
S'direction'
p311
I1
sS'color'
p312
S'black'
p313
sS'selected'
p314
I00
sS'height'
p315
I5
sS'vs'
p316
(lp317
g150
ag258
asS'wrap'
p318
I00
sS'curved'
p319
I00
sS'line'
p320
I70398
sS'id'
p321
S'218.93474422'
p322
sS'size'
p323
I1
sba(igraph
Edge
p324
(dp325
g311
I1
sg312
g313
sg314
I00
sg315
I5
sg316
(lp326
g258
ag204
asg318
I00
sg319
I00
sg320
I70399
sg321
S'220.739752399'
p327
sg323
I1
sba(igraph
Edge
p328
(dp329
g311
I1
sg312
g313
sg314
I00
sg315
I5
sg316
(lp330
g204
ag150
asg318
I00
sg319
I00
sg320
I70400
sg321
S'222.384405001'
p331
sg323
I1
sba(igraph
Edge
p332
(dp333
g311
I1
sg312
g313
sg314
I00
sg315
I5
sg316
(lp334
g165
ag273
asg318
I00
sg319
I00
sg320
I70401
sg321
S'300.600725232'
p335
sg323
I1
sba(igraph
Edge
p336
(dp337
g311
I1
sg312
g313
sg314
I00
sg315
I5
sg316
(lp338
g273
ag219
asg318
I00
sg319
I00
sg320
I70402
sg321
S'301.850139892'
p339
sg323
I1
sba(igraph
Edge
p340
(dp341
g311
I1
sg312
g313
sg314
I00
sg315
I5
sg316
(lp342
g219
ag165
asg318
I00
sg319
I00
sg320
I70403
sg321
S'304.462344516'
p343
sg323
I1
sba(igraph
Edge
p344
(dp345
g311
I1
sg312
g313
sg314
I00
sg315
I5
sg316
(lp346
g129
ag143
asg318
I00
sg319
I00
sg320
I70404
sg321
S'310.045325872'
p347
sg323
I1
sba(igraph
Edge
p348
(dp349
g311
I1
sg312
g313
sg314
I00
sg315
I5
sg316
(lp350
g143
ag136
asg318
I00
sg319
I00
sg320
I70405
sg321
S'311.802309511'
p351
sg323
I1
sba(igraph
Edge
p352
(dp353
g311
I1
sg312
g313
sg314
I00
sg315
I5
sg316
(lp354
g136
ag129
asg318
I00
sg319
I00
sg320
I70406
sg321
S'318.636606887'
p355
sg323
I1
sbasS'vertices'
p356
(lp357
g99
ag109
ag119
ag129
ag136
ag143
ag150
ag204
ag258
ag18
ag49
ag59
ag165
ag219
ag273
ag88
ag77
ag66
ag102
ag112
ag122
ag34
ag46
ag56
asS'tags'
p358
(lp359
sb.