(igraph
Graph
p0
(dp1
S'labelingConstraints'
p2
I-1
sS'edges'
p3
(lp4
(igraph
Edge
p5
(dp6
S'direction'
p7
I1
sS'selected'
p8
I00
sS'height'
p9
I5
sS'vs'
p10
(lp11
(igraph
Vertex
p12
(dp13
S'xnorm'
p14
F0.73684210526315796
sg8
I00
sS'label'
p15
I0
sS'y'
p16
F-98.0
sS'x'
p17
F140.31578947368428
sS'circle'
p18
I737127
sS'id'
p19
S'5594.89471315'
p20
sS'ynorm'
p21
F0.0
sba(igraph
Vertex
p22
(dp23
g14
F0.78947368421052644
sg8
I00
sg15
S'NULL'
p24
sg16
F-98.0
sg17
F161.05263157894746
sg18
I737129
sg19
S'5594.89483803'
p25
sg21
F0.0
sbasS'wrap'
p26
I00
sS'curved'
p27
I00
sS'line'
p28
I737073
sg19
S'5594.95790024'
p29
sba(igraph
Edge
p30
(dp31
g7
I1
sg8
I00
sg9
I5
sg10
(lp32
g22
a(igraph
Vertex
p33
(dp34
g14
F0.8421052631578948
sg8
I00
sg15
I0
sg16
F-98.0
sg17
F181.78947368421058
sg18
I737130
sg19
S'5594.89500174'
p35
sg21
F0.0
sbasg26
I00
sg27
I00
sg28
I737074
sg19
S'5594.95814747'
p36
sba(igraph
Edge
p37
(dp38
g7
I1
sg8
I00
sg9
I5
sg10
(lp39
g33
a(igraph
Vertex
p40
(dp41
g14
F0.89473684210526316
sg8
I00
sg15
g24
sg16
F-98.0
sg17
F202.5263157894737
sg18
I737132
sg19
S'5594.89514505'
p42
sg21
F0.0
sbasg26
I00
sg27
I00
sg28
I737075
sg19
S'5594.95840868'
p43
sba(igraph
Edge
p44
(dp45
g7
I1
sg8
I00
sg9
I5
sg10
(lp46
g40
a(igraph
Vertex
p47
(dp48
g14
F0.94736842105263153
sg8
I00
sg15
I0
sg16
F-98.0
sg17
F223.26315789473682
sg18
I737133
sg19
S'5594.89529284'
p49
sg21
F0.0
sbasg26
I00
sg27
I00
sg28
I737076
sg19
S'5594.95898836'
p50
sba(igraph
Edge
p51
(dp52
g7
I1
sg8
I00
sg9
I5
sg10
(lp53
g47
a(igraph
Vertex
p54
(dp55
g14
F1.0
sg8
I00
sg15
g24
sg16
F-98.0
sg17
F244.0
sg18
I737135
sg19
S'5594.89545012'
p56
sg21
F0.0
sbasg26
I00
sg27
I00
sg28
I737077
sg19
S'5594.95968873'
p57
sba(igraph
Edge
p58
(dp59
g7
I1
sg8
I00
sg9
I5
sg10
(lp60
(igraph
Vertex
p61
(dp62
g14
F0.73684210526315796
sg8
I00
sg15
g24
sg16
F-61.780487804878049
sg17
F140.31578947368428
sg18
I737136
sg19
S'5594.89878211'
p63
sg21
F0.20121951219512196
sba(igraph
Vertex
p64
(dp65
g14
F0.78947368421052644
sg8
I00
sg15
g24
sg16
F-61.780487804878049
sg17
F161.05263157894746
sg18
I737137
sg19
S'5594.89907153'
p66
sg21
F0.20121951219512196
sbasg26
I00
sg27
I00
sg28
I737078
sg19
S'5594.97410062'
p67
sba(igraph
Edge
p68
(dp69
g7
I1
sg8
I00
sg9
I5
sg10
(lp70
g64
a(igraph
Vertex
p71
(dp72
g14
F0.8421052631578948
sg8
I00
sg15
g24
sg16
F-61.780487804878049
sg17
F181.78947368421058
sg18
I737138
sg19
S'5594.8993685'
p73
sg21
F0.20121951219512196
sbasg26
I00
sg27
I00
sg28
I737079
sg19
S'5594.97524937'
p74
sba(igraph
Edge
p75
(dp76
g7
I1
sg8
I00
sg9
I5
sg10
(lp77
g71
a(igraph
Vertex
p78
(dp79
g14
F0.89473684210526316
sg8
I00
sg15
g24
sg16
F-61.780487804878049
sg17
F202.5263157894737
sg18
I737139
sg19
S'5594.89967189'
p80
sg21
F0.20121951219512196
sbasg26
I00
sg27
I00
sg28
I737080
sg19
S'5594.97645902'
p81
sba(igraph
Edge
p82
(dp83
g7
I1
sg8
I00
sg9
I5
sg10
(lp84
g78
a(igraph
Vertex
p85
(dp86
g14
F0.94736842105263153
sg8
I00
sg15
I0
sg16
F-61.780487804878049
sg17
F223.26315789473682
sg18
I737140
sg19
S'5594.89998673'
p87
sg21
F0.20121951219512196
sbasg26
I00
sg27
I00
sg28
I737081
sg19
S'5594.97767677'
p88
sba(igraph
Edge
p89
(dp90
g7
I1
sg8
I00
sg9
I5
sg10
(lp91
g85
a(igraph
Vertex
p92
(dp93
g14
F1.0
sg8
I00
sg15
g24
sg16
F-61.780487804878049
sg17
F244.0
sg18
I737142
sg19
S'5594.90034963'
p94
sg21
F0.20121951219512196
sbasg26
I00
sg27
I00
sg28
I737082
sg19
S'5594.97891799'
p95
sba(igraph
Edge
p96
(dp97
g7
I1
sg8
I00
sg9
I5
sg10
(lp98
(igraph
Vertex
p99
(dp100
g14
F0.73684210526315796
sg8
I00
sg15
I0
sg16
F-25.560975609756099
sg17
F140.31578947368428
sg18
I737143
sg19
S'5594.90632916'
p101
sg21
F0.40243902439024393
sba(igraph
Vertex
p102
(dp103
g14
F0.78947368421052644
sg8
I00
sg15
g24
sg16
F-25.560975609756099
sg17
F161.05263157894746
sg18
I737145
sg19
S'5594.90678843'
p104
sg21
F0.40243902439024393
sbasg26
I00
sg27
I00
sg28
I737083
sg19
S'5595.00469305'
p105
sba(igraph
Edge
p106
(dp107
g7
I1
sg8
I00
sg9
I5
sg10
(lp108
g102
a(igraph
Vertex
p109
(dp110
g14
F0.8421052631578948
sg8
I00
sg15
I0
sg16
F-25.560975609756099
sg17
F181.78947368421058
sg18
I737146
sg19
S'5594.90724939'
p111
sg21
F0.40243902439024393
sbasg26
I00
sg27
I00
sg28
I737084
sg19
S'5595.00656089'
p112
sba(igraph
Edge
p113
(dp114
g7
I1
sg8
I00
sg9
I5
sg10
(lp115
g109
a(igraph
Vertex
p116
(dp117
g14
F0.89473684210526316
sg8
I00
sg15
g24
sg16
F-25.560975609756099
sg17
F202.5263157894737
sg18
I737148
sg19
S'5594.90772012'
p118
sg21
F0.40243902439024393
sbasg26
I00
sg27
I00
sg28
I737085
sg19
S'5595.00840051'
p119
sba(igraph
Edge
p120
(dp121
g7
I1
sg8
I00
sg9
I5
sg10
(lp122
g116
a(igraph
Vertex
p123
(dp124
g14
F0.94736842105263153
sg8
I00
sg15
g24
sg16
F-25.560975609756099
sg17
F223.26315789473682
sg18
I737149
sg19
S'5594.90820202'
p125
sg21
F0.40243902439024393
sbasg26
I00
sg27
I00
sg28
I737086
sg19
S'5595.01036808'
p126
sba(igraph
Edge
p127
(dp128
g7
I1
sg8
I00
sg9
I5
sg10
(lp129
g123
a(igraph
Vertex
p130
(dp131
g14
F1.0
sg8
I00
sg15
g24
sg16
F-25.560975609756099
sg17
F244.0
sg18
I737150
sg19
S'5594.90869007'
p132
sg21
F0.40243902439024393
sbasg26
I00
sg27
I00
sg28
I737087
sg19
S'5595.01238202'
p133
sba(igraph
Edge
p134
(dp135
g7
I1
sg8
I00
sg9
I5
sg10
(lp136
(igraph
Vertex
p137
(dp138
g14
F0.73684210526315796
sg8
I00
sg15
g24
sg16
F10.658536585365852
sg17
F140.31578947368428
sg18
I737151
sg19
S'5594.91718445'
p139
sg21
F0.60365853658536583
sba(igraph
Vertex
p140
(dp141
g14
F0.78947368421052644
sg8
I00
sg15
g24
sg16
F10.658536585365852
sg17
F161.05263157894746
sg18
I737152
sg19
S'5594.91782056'
p142
sg21
F0.60365853658536583
sbasg26
I00
sg27
I00
sg28
I737088
sg19
S'5595.04763818'
p143
sba(igraph
Edge
p144
(dp145
g7
I1
sg8
I00
sg9
I5
sg10
(lp146
g140
a(igraph
Vertex
p147
(dp148
g14
F0.8421052631578948
sg8
I00
sg15
g24
sg16
F10.658536585365852
sg17
F181.78947368421058
sg18
I737153
sg19
S'5594.91846617'
p149
sg21
F0.60365853658536583
sbasg26
I00
sg27
I00
sg28
I737089
sg19
S'5595.05007955'
p150
sba(igraph
Edge
p151
(dp152
g7
I1
sg8
I00
sg9
I5
sg10
(lp153
g147
a(igraph
Vertex
p154
(dp155
g14
F0.89473684210526316
sg8
I00
sg15
g24
sg16
F10.658536585365852
sg17
F202.5263157894737
sg18
I737154
sg19
S'5594.91911123'
p156
sg21
F0.60365853658536583
sbasg26
I00
sg27
I00
sg28
I737090
sg19
S'5595.05252455'
p157
sba(igraph
Edge
p158
(dp159
g7
I1
sg8
I00
sg9
I5
sg10
(lp160
g154
a(igraph
Vertex
p161
(dp162
g14
F0.94736842105263153
sg8
I00
sg15
I0
sg16
F10.658536585365852
sg17
F223.26315789473682
sg18
I737155
sg19
S'5594.91978254'
p163
sg21
F0.60365853658536583
sbasg26
I00
sg27
I00
sg28
I737091
sg19
S'5595.05501649'
p164
sba(igraph
Edge
p165
(dp166
g7
I1
sg8
I00
sg9
I5
sg10
(lp167
g161
a(igraph
Vertex
p168
(dp169
g14
F1.0
sg8
I00
sg15
g24
sg16
F10.658536585365852
sg17
F244.0
sg18
I737157
sg19
S'5594.92045721'
p170
sg21
F0.60365853658536583
sbasg26
I00
sg27
I00
sg28
I737092
sg19
S'5595.05753078'
p171
sba(igraph
Edge
p172
(dp173
g7
I1
sg8
I00
sg9
I5
sg10
(lp174
(igraph
Vertex
p175
(dp176
g14
F0.73684210526315796
sg8
I00
sg15
I0
sg16
F46.878048780487802
sg17
F140.31578947368428
sg18
I737158
sg19
S'5594.9316821'
p177
sg21
F0.80487804878048785
sba(igraph
Vertex
p178
(dp179
g14
F0.78947368421052644
sg8
I00
sg15
g24
sg16
F46.878048780487802
sg17
F161.05263157894746
sg18
I737160
sg19
S'5594.93249757'
p180
sg21
F0.80487804878048785
sbasg26
I00
sg27
I00
sg28
I737093
sg19
S'5595.10135059'
p181
sba(igraph
Edge
p182
(dp183
g7
I1
sg8
I00
sg9
I5
sg10
(lp184
g178
a(igraph
Vertex
p185
(dp186
g14
F0.8421052631578948
sg8
I00
sg15
I0
sg16
F46.878048780487802
sg17
F181.78947368421058
sg18
I737161
sg19
S'5594.93334097'
p187
sg21
F0.80487804878048785
sbasg26
I00
sg27
I00
sg28
I737094
sg19
S'5595.10276585'
p188
sba(igraph
Edge
p189
(dp190
g7
I1
sg8
I00
sg9
I5
sg10
(lp191
g185
a(igraph
Vertex
p192
(dp193
g14
F0.89473684210526316
sg8
I00
sg15
g24
sg16
F46.878048780487802
sg17
F202.5263157894737
sg18
I737163
sg19
S'5594.93416901'
p194
sg21
F0.80487804878048785
sbasg26
I00
sg27
I00
sg28
I737095
sg19
S'5595.10418335'
p195
sba(igraph
Edge
p196
(dp197
g7
I1
sg8
I00
sg9
I5
sg10
(lp198
g192
a(igraph
Vertex
p199
(dp200
g14
F0.94736842105263153
sg8
I00
sg15
g24
sg16
F46.878048780487802
sg17
F223.26315789473682
sg18
I737164
sg19
S'5594.93500459'
p201
sg21
F0.80487804878048785
sbasg26
I00
sg27
I00
sg28
I737096
sg19
S'5595.10562851'
p202
sba(igraph
Edge
p203
(dp204
g7
I1
sg8
I00
sg9
I5
sg10
(lp205
g199
a(igraph
Vertex
p206
(dp207
g14
F1.0
sg8
I00
sg15
g24
sg16
F46.878048780487802
sg17
F244.0
sg18
I737165
sg19
S'5594.93585106'
p208
sg21
F0.80487804878048785
sbasg26
I00
sg27
I00
sg28
I737097
sg19
S'5595.10707059'
p209
sba(igraph
Edge
p210
(dp211
g7
I1
sg8
I00
sg9
I5
sg10
(lp212
(igraph
Vertex
p213
(dp214
g14
F0.73684210526315796
sg8
I00
sg15
g24
sg16
F83.097560975609753
sg17
F140.31578947368428
sg18
I737166
sg19
S'5594.94980675'
p215
sg21
F1.0060975609756098
sba(igraph
Vertex
p216
(dp217
g14
F0.78947368421052644
sg8
I00
sg15
g24
sg16
F83.097560975609753
sg17
F161.05263157894746
sg18
I737167
sg19
S'5594.9508066'
p218
sg21
F1.0060975609756098
sbasg26
I00
sg27
I00
sg28
I737098
sg19
S'5595.13242521'
p219
sba(igraph
Edge
p220
(dp221
g7
I1
sg8
I00
sg9
I5
sg10
(lp222
g216
a(igraph
Vertex
p223
(dp224
g14
F0.8421052631578948
sg8
I00
sg15
g24
sg16
F83.097560975609753
sg17
F181.78947368421058
sg18
I737168
sg19
S'5594.95181091'
p225
sg21
F1.0060975609756098
sbasg26
I00
sg27
I00
sg28
I737099
sg19
S'5595.13411649'
p226
sba(igraph
Edge
p227
(dp228
g7
I1
sg8
I00
sg9
I5
sg10
(lp229
g223
a(igraph
Vertex
p230
(dp231
g14
F0.89473684210526316
sg8
I00
sg15
g24
sg16
F83.097560975609753
sg17
F202.5263157894737
sg18
I737169
sg19
S'5594.9528387'
p232
sg21
F1.0060975609756098
sbasg26
I00
sg27
I00
sg28
I737100
sg19
S'5595.13581894'
p233
sba(igraph
Edge
p234
(dp235
g7
I1
sg8
I00
sg9
I5
sg10
(lp236
g230
a(igraph
Vertex
p237
(dp238
g14
F0.94736842105263153
sg8
I00
sg15
I0
sg16
F83.097560975609753
sg17
F223.26315789473682
sg18
I737170
sg19
S'5594.95386509'
p239
sg21
F1.0060975609756098
sbasg26
I00
sg27
I00
sg28
I737101
sg19
S'5595.13753564'
p240
sba(igraph
Edge
p241
(dp242
g7
I1
sg8
I00
sg9
I5
sg10
(lp243
g237
a(igraph
Vertex
p244
(dp245
g14
F1.0
sg8
I00
sg15
g24
sg16
F83.097560975609753
sg17
F244.0
sg18
I737172
sg19
S'5594.95490488'
p246
sg21
F1.0060975609756098
sbasg26
I00
sg27
I00
sg28
I737102
sg19
S'5595.13927552'
p247
sba(igraph
Edge
p248
(dp249
g7
I1
sg8
I00
sg9
I5
sg10
(lp250
g12
ag64
asg26
I00
sg27
I00
sg28
I737103
sg19
S'5595.15593574'
p251
sba(igraph
Edge
p252
(dp253
g7
I1
sg8
I00
sg9
I5
sg10
(lp254
g33
ag78
asg26
I00
sg27
I00
sg28
I737104
sg19
S'5595.15789465'
p255
sba(igraph
Edge
p256
(dp257
g7
I1
sg8
I00
sg9
I5
sg10
(lp258
g47
ag92
asg26
I00
sg27
I00
sg28
I737105
sg19
S'5595.15980774'
p259
sba(igraph
Edge
p260
(dp261
g7
I1
sg8
I00
sg9
I5
sg10
(lp262
g22
ag213
asg26
I00
sg27
I00
sg28
I737106
sg19
S'5595.17587962'
p263
sba(igraph
Edge
p264
(dp265
g7
I1
sg8
I00
sg9
I5
sg10
(lp266
g40
ag223
asg26
I00
sg27
I00
sg28
I737107
sg19
S'5595.17833998'
p267
sba(igraph
Edge
p268
(dp269
g7
I1
sg8
I00
sg9
I5
sg10
(lp270
g54
ag237
asg26
I00
sg27
I00
sg28
I737108
sg19
S'5595.18045031'
p271
sba(igraph
Edge
p272
(dp273
g7
I1
sg8
I00
sg9
I5
sg10
(lp274
g61
ag102
asg26
I00
sg27
I00
sg28
I737109
sg19
S'5595.1975807'
p275
sba(igraph
Edge
p276
(dp277
g7
I1
sg8
I00
sg9
I5
sg10
(lp278
g71
ag116
asg26
I00
sg27
I00
sg28
I737110
sg19
S'5595.19974634'
p279
sba(igraph
Edge
p280
(dp281
g7
I1
sg8
I00
sg9
I5
sg10
(lp282
g85
ag130
asg26
I00
sg27
I00
sg28
I737111
sg19
S'5595.20192231'
p283
sba(igraph
Edge
p284
(dp285
g7
I1
sg8
I00
sg9
I5
sg10
(lp286
g99
ag140
asg26
I00
sg27
I00
sg28
I737112
sg19
S'5595.22023497'
p287
sba(igraph
Edge
p288
(dp289
g7
I1
sg8
I00
sg9
I5
sg10
(lp290
g109
ag154
asg26
I00
sg27
I00
sg28
I737113
sg19
S'5595.22266573'
p291
sba(igraph
Edge
p292
(dp293
g7
I1
sg8
I00
sg9
I5
sg10
(lp294
g123
ag168
asg26
I00
sg27
I00
sg28
I737114
sg19
S'5595.22503111'
p295
sba(igraph
Edge
p296
(dp297
g7
I1
sg8
I00
sg9
I5
sg10
(lp298
g137
ag178
asg26
I00
sg27
I00
sg28
I737115
sg19
S'5595.2443087'
p299
sba(igraph
Edge
p300
(dp301
g7
I1
sg8
I00
sg9
I5
sg10
(lp302
g147
ag192
asg26
I00
sg27
I00
sg28
I737116
sg19
S'5595.24683836'
p303
sba(igraph
Edge
p304
(dp305
g7
I1
sg8
I00
sg9
I5
sg10
(lp306
g161
ag206
asg26
I00
sg27
I00
sg28
I737117
sg19
S'5595.24949009'
p307
sba(igraph
Edge
p308
(dp309
g7
I1
sg8
I00
sg9
I5
sg10
(lp310
g175
ag216
asg26
I00
sg27
I00
sg28
I737118
sg19
S'5595.27021004'
p311
sba(igraph
Edge
p312
(dp313
g7
I1
sg8
I00
sg9
I5
sg10
(lp314
g185
ag230
asg26
I00
sg27
I00
sg28
I737119
sg19
S'5595.27289837'
p315
sba(igraph
Edge
p316
(dp317
g7
I1
sg8
I00
sg9
I5
sg10
(lp318
g199
ag244
asg26
I00
sg27
I00
sg28
I737120
sg19
S'5595.27566632'
p319
sba(igraph
Edge
p320
(dp321
g7
I1
sg8
I00
sg9
I5
sg10
(lp322
g244
ag213
asg26
I00
sg27
I00
sg28
I737121
sg19
S'6267.76794341'
p323
sba(igraph
Edge
p324
(dp325
g7
I1
sg8
I00
sg9
I5
sg10
(lp326
g175
ag206
asg26
I00
sg27
I00
sg28
I737122
sg19
S'6271.6024573'
p327
sba(igraph
Edge
p328
(dp329
g7
I1
sg8
I00
sg9
I5
sg10
(lp330
g168
ag137
asg26
I00
sg27
I00
sg28
I737123
sg19
S'6275.50827605'
p331
sba(igraph
Edge
p332
(dp333
g7
I1
sg8
I00
sg9
I5
sg10
(lp334
g99
ag130
asg26
I00
sg27
I00
sg28
I737124
sg19
S'6278.95059316'
p335
sba(igraph
Edge
p336
(dp337
g7
I1
sg8
I00
sg9
I5
sg10
(lp338
g92
ag61
asg26
I00
sg27
I00
sg28
I737125
sg19
S'6282.42954817'
p339
sba(igraph
Edge
p340
(dp341
g7
I1
sg8
I00
sg9
I5
sg10
(lp342
g12
ag54
asg26
I00
sg27
I00
sg28
I737126
sg19
S'6285.62123482'
p343
sbasS'vertices'
p344
(lp345
g12
ag22
ag33
ag40
ag47
ag54
ag61
ag64
ag71
ag78
ag85
ag92
ag99
ag102
ag109
ag116
ag123
ag130
ag137
ag140
ag147
ag154
ag161
ag168
ag175
ag178
ag185
ag192
ag199
ag206
ag213
ag216
ag223
ag230
ag237
ag244
asS'tags'
p346
(lp347
sb.