(igraph
Graph
p0
(dp1
S'labelingConstraints'
p2
I-1
sS'edges'
p3
(lp4
(igraph
Edge
p5
(dp6
S'direction'
p7
I1
sS'selected'
p8
I00
sS'height'
p9
I5
sS'vs'
p10
(lp11
(igraph
Vertex
p12
(dp13
S'xnorm'
p14
F0.5263157894736844
sg8
I00
sS'label'
p15
I0
sS'y'
p16
F-98.0
sS'x'
p17
F57.368421052631675
sS'circle'
p18
I730698
sS'id'
p19
S'5594.89430249'
p20
sS'ynorm'
p21
F0.0
sba(igraph
Vertex
p22
(dp23
g14
F0.57894736842105288
sg8
I00
sg15
S'NULL'
p24
sg16
F-98.0
sg17
F78.105263157894854
sg18
I730700
sg19
S'5594.894393'
p25
sg21
F0.0
sbasS'wrap'
p26
I00
sS'curved'
p27
I00
sS'line'
p28
I730608
sg19
S'5594.95706074'
p29
sba(igraph
Edge
p30
(dp31
g7
I1
sg8
I00
sg9
I5
sg10
(lp32
g22
a(igraph
Vertex
p33
(dp34
g14
F0.63157894736842124
sg8
I00
sg15
I0
sg16
F-98.0
sg17
F98.842105263157976
sg18
I730701
sg19
S'5594.89449274'
p35
sg21
F0.0
sbasg26
I00
sg27
I00
sg28
I730609
sg19
S'5594.95724848'
p36
sba(igraph
Edge
p37
(dp38
g7
I1
sg8
I00
sg9
I5
sg10
(lp39
g33
a(igraph
Vertex
p40
(dp41
g14
F0.68421052631578971
sg8
I00
sg15
g24
sg16
F-98.0
sg17
F119.57894736842115
sg18
I730703
sg19
S'5594.89459917'
p42
sg21
F0.0
sbasg26
I00
sg27
I00
sg28
I730610
sg19
S'5594.95745185'
p43
sba(igraph
Edge
p44
(dp45
g7
I1
sg8
I00
sg9
I5
sg10
(lp46
g40
a(igraph
Vertex
p47
(dp48
g14
F0.73684210526315796
sg8
I00
sg15
I0
sg16
F-98.0
sg17
F140.31578947368428
sg18
I730704
sg19
S'5594.89471315'
p49
sg21
F0.0
sbasg26
I00
sg27
I00
sg28
I730611
sg19
S'5594.9576692'
p50
sba(igraph
Edge
p51
(dp52
g7
I1
sg8
I00
sg9
I5
sg10
(lp53
g47
a(igraph
Vertex
p54
(dp55
g14
F0.78947368421052644
sg8
I00
sg15
g24
sg16
F-98.0
sg17
F161.05263157894746
sg18
I730706
sg19
S'5594.89483803'
p56
sg21
F0.0
sbasg26
I00
sg27
I00
sg28
I730612
sg19
S'5594.95790024'
p57
sba(igraph
Edge
p58
(dp59
g7
I1
sg8
I00
sg9
I5
sg10
(lp60
g54
a(igraph
Vertex
p61
(dp62
g14
F0.8421052631578948
sg8
I00
sg15
I0
sg16
F-98.0
sg17
F181.78947368421058
sg18
I730707
sg19
S'5594.89500174'
p63
sg21
F0.0
sbasg26
I00
sg27
I00
sg28
I730613
sg19
S'5594.95814747'
p64
sba(igraph
Edge
p65
(dp66
g7
I1
sg8
I00
sg9
I5
sg10
(lp67
g61
a(igraph
Vertex
p68
(dp69
g14
F0.89473684210526316
sg8
I00
sg15
g24
sg16
F-98.0
sg17
F202.5263157894737
sg18
I730709
sg19
S'5594.89514505'
p70
sg21
F0.0
sbasg26
I00
sg27
I00
sg28
I730614
sg19
S'5594.95840868'
p71
sba(igraph
Edge
p72
(dp73
g7
I1
sg8
I00
sg9
I5
sg10
(lp74
g68
a(igraph
Vertex
p75
(dp76
g14
F0.94736842105263153
sg8
I00
sg15
I0
sg16
F-98.0
sg17
F223.26315789473682
sg18
I730710
sg19
S'5594.89529284'
p77
sg21
F0.0
sbasg26
I00
sg27
I00
sg28
I730615
sg19
S'5594.95898836'
p78
sba(igraph
Edge
p79
(dp80
g7
I1
sg8
I00
sg9
I5
sg10
(lp81
g75
a(igraph
Vertex
p82
(dp83
g14
F1.0
sg8
I00
sg15
g24
sg16
F-98.0
sg17
F244.0
sg18
I730712
sg19
S'5594.89545012'
p84
sg21
F0.0
sbasg26
I00
sg27
I00
sg28
I730616
sg19
S'5594.95968873'
p85
sba(igraph
Edge
p86
(dp87
g7
I1
sg8
I00
sg9
I5
sg10
(lp88
(igraph
Vertex
p89
(dp90
g14
F0.5263157894736844
sg8
I00
sg15
g24
sg16
F-61.780487804878049
sg17
F57.368421052631675
sg18
I730713
sg19
S'5594.89771074'
p91
sg21
F0.20121951219512196
sba(igraph
Vertex
p92
(dp93
g14
F0.57894736842105288
sg8
I00
sg15
g24
sg16
F-61.780487804878049
sg17
F78.105263157894854
sg18
I730714
sg19
S'5594.8979672'
p94
sg21
F0.20121951219512196
sbasg26
I00
sg27
I00
sg28
I730617
sg19
S'5594.96969866'
p95
sba(igraph
Edge
p96
(dp97
g7
I1
sg8
I00
sg9
I5
sg10
(lp98
g92
a(igraph
Vertex
p99
(dp100
g14
F0.63157894736842124
sg8
I00
sg15
g24
sg16
F-61.780487804878049
sg17
F98.842105263157976
sg18
I730715
sg19
S'5594.89823148'
p101
sg21
F0.20121951219512196
sbasg26
I00
sg27
I00
sg28
I730618
sg19
S'5594.97080942'
p102
sba(igraph
Edge
p103
(dp104
g7
I1
sg8
I00
sg9
I5
sg10
(lp105
g99
a(igraph
Vertex
p106
(dp107
g14
F0.68421052631578971
sg8
I00
sg15
g24
sg16
F-61.780487804878049
sg17
F119.57894736842115
sg18
I730716
sg19
S'5594.89850218'
p108
sg21
F0.20121951219512196
sbasg26
I00
sg27
I00
sg28
I730619
sg19
S'5594.97188721'
p109
sba(igraph
Edge
p110
(dp111
g7
I1
sg8
I00
sg9
I5
sg10
(lp112
g106
a(igraph
Vertex
p113
(dp114
g14
F0.73684210526315796
sg8
I00
sg15
g24
sg16
F-61.780487804878049
sg17
F140.31578947368428
sg18
I730717
sg19
S'5594.89878211'
p115
sg21
F0.20121951219512196
sbasg26
I00
sg27
I00
sg28
I730620
sg19
S'5594.97297617'
p116
sba(igraph
Edge
p117
(dp118
g7
I1
sg8
I00
sg9
I5
sg10
(lp119
g113
a(igraph
Vertex
p120
(dp121
g14
F0.78947368421052644
sg8
I00
sg15
g24
sg16
F-61.780487804878049
sg17
F161.05263157894746
sg18
I730718
sg19
S'5594.89907153'
p122
sg21
F0.20121951219512196
sbasg26
I00
sg27
I00
sg28
I730621
sg19
S'5594.97410062'
p123
sba(igraph
Edge
p124
(dp125
g7
I1
sg8
I00
sg9
I5
sg10
(lp126
g120
a(igraph
Vertex
p127
(dp128
g14
F0.8421052631578948
sg8
I00
sg15
g24
sg16
F-61.780487804878049
sg17
F181.78947368421058
sg18
I730719
sg19
S'5594.8993685'
p129
sg21
F0.20121951219512196
sbasg26
I00
sg27
I00
sg28
I730622
sg19
S'5594.97524937'
p130
sba(igraph
Edge
p131
(dp132
g7
I1
sg8
I00
sg9
I5
sg10
(lp133
g127
a(igraph
Vertex
p134
(dp135
g14
F0.89473684210526316
sg8
I00
sg15
g24
sg16
F-61.780487804878049
sg17
F202.5263157894737
sg18
I730720
sg19
S'5594.89967189'
p136
sg21
F0.20121951219512196
sbasg26
I00
sg27
I00
sg28
I730623
sg19
S'5594.97645902'
p137
sba(igraph
Edge
p138
(dp139
g7
I1
sg8
I00
sg9
I5
sg10
(lp140
g134
a(igraph
Vertex
p141
(dp142
g14
F0.94736842105263153
sg8
I00
sg15
I0
sg16
F-61.780487804878049
sg17
F223.26315789473682
sg18
I730721
sg19
S'5594.89998673'
p143
sg21
F0.20121951219512196
sbasg26
I00
sg27
I00
sg28
I730624
sg19
S'5594.97767677'
p144
sba(igraph
Edge
p145
(dp146
g7
I1
sg8
I00
sg9
I5
sg10
(lp147
g141
a(igraph
Vertex
p148
(dp149
g14
F1.0
sg8
I00
sg15
g24
sg16
F-61.780487804878049
sg17
F244.0
sg18
I730723
sg19
S'5594.90034963'
p150
sg21
F0.20121951219512196
sbasg26
I00
sg27
I00
sg28
I730625
sg19
S'5594.97891799'
p151
sba(igraph
Edge
p152
(dp153
g7
I1
sg8
I00
sg9
I5
sg10
(lp154
(igraph
Vertex
p155
(dp156
g14
F0.5263157894736844
sg8
I00
sg15
I0
sg16
F-25.560975609756099
sg17
F57.368421052631675
sg18
I730724
sg19
S'5594.90453116'
p157
sg21
F0.40243902439024393
sba(igraph
Vertex
p158
(dp159
g14
F0.57894736842105288
sg8
I00
sg15
g24
sg16
F-25.560975609756099
sg17
F78.105263157894854
sg18
I730726
sg19
S'5594.9050072'
p160
sg21
F0.40243902439024393
sbasg26
I00
sg27
I00
sg28
I730626
sg19
S'5594.9977025'
p161
sba(igraph
Edge
p162
(dp163
g7
I1
sg8
I00
sg9
I5
sg10
(lp164
g158
a(igraph
Vertex
p165
(dp166
g14
F0.63157894736842124
sg8
I00
sg15
I0
sg16
F-25.560975609756099
sg17
F98.842105263157976
sg18
I730727
sg19
S'5594.90544105'
p167
sg21
F0.40243902439024393
sbasg26
I00
sg27
I00
sg28
I730627
sg19
S'5594.9994125'
p168
sba(igraph
Edge
p169
(dp170
g7
I1
sg8
I00
sg9
I5
sg10
(lp171
g165
a(igraph
Vertex
p172
(dp173
g14
F0.68421052631578971
sg8
I00
sg15
g24
sg16
F-25.560975609756099
sg17
F119.57894736842115
sg18
I730729
sg19
S'5594.90588245'
p174
sg21
F0.40243902439024393
sbasg26
I00
sg27
I00
sg28
I730628
sg19
S'5595.00116495'
p175
sba(igraph
Edge
p176
(dp177
g7
I1
sg8
I00
sg9
I5
sg10
(lp178
g172
a(igraph
Vertex
p179
(dp180
g14
F0.73684210526315796
sg8
I00
sg15
I0
sg16
F-25.560975609756099
sg17
F140.31578947368428
sg18
I730730
sg19
S'5594.90632916'
p181
sg21
F0.40243902439024393
sbasg26
I00
sg27
I00
sg28
I730629
sg19
S'5595.00290735'
p182
sba(igraph
Edge
p183
(dp184
g7
I1
sg8
I00
sg9
I5
sg10
(lp185
g179
a(igraph
Vertex
p186
(dp187
g14
F0.78947368421052644
sg8
I00
sg15
g24
sg16
F-25.560975609756099
sg17
F161.05263157894746
sg18
I730732
sg19
S'5594.90678843'
p188
sg21
F0.40243902439024393
sbasg26
I00
sg27
I00
sg28
I730630
sg19
S'5595.00469305'
p189
sba(igraph
Edge
p190
(dp191
g7
I1
sg8
I00
sg9
I5
sg10
(lp192
g186
a(igraph
Vertex
p193
(dp194
g14
F0.8421052631578948
sg8
I00
sg15
I0
sg16
F-25.560975609756099
sg17
F181.78947368421058
sg18
I730733
sg19
S'5594.90724939'
p195
sg21
F0.40243902439024393
sbasg26
I00
sg27
I00
sg28
I730631
sg19
S'5595.00656089'
p196
sba(igraph
Edge
p197
(dp198
g7
I1
sg8
I00
sg9
I5
sg10
(lp199
g193
a(igraph
Vertex
p200
(dp201
g14
F0.89473684210526316
sg8
I00
sg15
g24
sg16
F-25.560975609756099
sg17
F202.5263157894737
sg18
I730735
sg19
S'5594.90772012'
p202
sg21
F0.40243902439024393
sbasg26
I00
sg27
I00
sg28
I730632
sg19
S'5595.00840051'
p203
sba(igraph
Edge
p204
(dp205
g7
I1
sg8
I00
sg9
I5
sg10
(lp206
g200
a(igraph
Vertex
p207
(dp208
g14
F0.94736842105263153
sg8
I00
sg15
g24
sg16
F-25.560975609756099
sg17
F223.26315789473682
sg18
I730736
sg19
S'5594.90820202'
p209
sg21
F0.40243902439024393
sbasg26
I00
sg27
I00
sg28
I730633
sg19
S'5595.01036808'
p210
sba(igraph
Edge
p211
(dp212
g7
I1
sg8
I00
sg9
I5
sg10
(lp213
g207
a(igraph
Vertex
p214
(dp215
g14
F1.0
sg8
I00
sg15
g24
sg16
F-25.560975609756099
sg17
F244.0
sg18
I730737
sg19
S'5594.90869007'
p216
sg21
F0.40243902439024393
sbasg26
I00
sg27
I00
sg28
I730634
sg19
S'5595.01238202'
p217
sba(igraph
Edge
p218
(dp219
g7
I1
sg8
I00
sg9
I5
sg10
(lp220
(igraph
Vertex
p221
(dp222
g14
F0.5263157894736844
sg8
I00
sg15
g24
sg16
F10.658536585365852
sg17
F57.368421052631675
sg18
I730738
sg19
S'5594.91469894'
p223
sg21
F0.60365853658536583
sba(igraph
Vertex
p224
(dp225
g14
F0.57894736842105288
sg8
I00
sg15
g24
sg16
F10.658536585365852
sg17
F78.105263157894854
sg18
I730739
sg19
S'5594.9152951'
p226
sg21
F0.60365853658536583
sbasg26
I00
sg27
I00
sg28
I730635
sg19
S'5595.03776877'
p227
sba(igraph
Edge
p228
(dp229
g7
I1
sg8
I00
sg9
I5
sg10
(lp230
g224
a(igraph
Vertex
p231
(dp232
g14
F0.63157894736842124
sg8
I00
sg15
g24
sg16
F10.658536585365852
sg17
F98.842105263157976
sg18
I730740
sg19
S'5594.91590551'
p233
sg21
F0.60365853658536583
sbasg26
I00
sg27
I00
sg28
I730636
sg19
S'5595.0400604'
p234
sba(igraph
Edge
p235
(dp236
g7
I1
sg8
I00
sg9
I5
sg10
(lp237
g231
a(igraph
Vertex
p238
(dp239
g14
F0.68421052631578971
sg8
I00
sg15
g24
sg16
F10.658536585365852
sg17
F119.57894736842115
sg18
I730741
sg19
S'5594.91653408'
p240
sg21
F0.60365853658536583
sbasg26
I00
sg27
I00
sg28
I730637
sg19
S'5595.04239673'
p241
sba(igraph
Edge
p242
(dp243
g7
I1
sg8
I00
sg9
I5
sg10
(lp244
g238
a(igraph
Vertex
p245
(dp246
g14
F0.73684210526315796
sg8
I00
sg15
g24
sg16
F10.658536585365852
sg17
F140.31578947368428
sg18
I730742
sg19
S'5594.91718445'
p247
sg21
F0.60365853658536583
sbasg26
I00
sg27
I00
sg28
I730638
sg19
S'5595.04497583'
p248
sba(igraph
Edge
p249
(dp250
g7
I1
sg8
I00
sg9
I5
sg10
(lp251
g245
a(igraph
Vertex
p252
(dp253
g14
F0.78947368421052644
sg8
I00
sg15
g24
sg16
F10.658536585365852
sg17
F161.05263157894746
sg18
I730743
sg19
S'5594.91782056'
p254
sg21
F0.60365853658536583
sbasg26
I00
sg27
I00
sg28
I730639
sg19
S'5595.04763818'
p255
sba(igraph
Edge
p256
(dp257
g7
I1
sg8
I00
sg9
I5
sg10
(lp258
g252
a(igraph
Vertex
p259
(dp260
g14
F0.8421052631578948
sg8
I00
sg15
g24
sg16
F10.658536585365852
sg17
F181.78947368421058
sg18
I730744
sg19
S'5594.91846617'
p261
sg21
F0.60365853658536583
sbasg26
I00
sg27
I00
sg28
I730640
sg19
S'5595.05007955'
p262
sba(igraph
Edge
p263
(dp264
g7
I1
sg8
I00
sg9
I5
sg10
(lp265
g259
a(igraph
Vertex
p266
(dp267
g14
F0.89473684210526316
sg8
I00
sg15
g24
sg16
F10.658536585365852
sg17
F202.5263157894737
sg18
I730745
sg19
S'5594.91911123'
p268
sg21
F0.60365853658536583
sbasg26
I00
sg27
I00
sg28
I730641
sg19
S'5595.05252455'
p269
sba(igraph
Edge
p270
(dp271
g7
I1
sg8
I00
sg9
I5
sg10
(lp272
g266
a(igraph
Vertex
p273
(dp274
g14
F0.94736842105263153
sg8
I00
sg15
I0
sg16
F10.658536585365852
sg17
F223.26315789473682
sg18
I730746
sg19
S'5594.91978254'
p275
sg21
F0.60365853658536583
sbasg26
I00
sg27
I00
sg28
I730642
sg19
S'5595.05501649'
p276
sba(igraph
Edge
p277
(dp278
g7
I1
sg8
I00
sg9
I5
sg10
(lp279
g273
a(igraph
Vertex
p280
(dp281
g14
F1.0
sg8
I00
sg15
g24
sg16
F10.658536585365852
sg17
F244.0
sg18
I730748
sg19
S'5594.92045721'
p282
sg21
F0.60365853658536583
sbasg26
I00
sg27
I00
sg28
I730643
sg19
S'5595.05753078'
p283
sba(igraph
Edge
p284
(dp285
g7
I1
sg8
I00
sg9
I5
sg10
(lp286
(igraph
Vertex
p287
(dp288
g14
F0.5263157894736844
sg8
I00
sg15
I0
sg16
F46.878048780487802
sg17
F57.368421052631675
sg18
I730749
sg19
S'5594.92847108'
p289
sg21
F0.80487804878048785
sba(igraph
Vertex
p290
(dp291
g14
F0.57894736842105288
sg8
I00
sg15
g24
sg16
F46.878048780487802
sg17
F78.105263157894854
sg18
I730751
sg19
S'5594.92924883'
p292
sg21
F0.80487804878048785
sbasg26
I00
sg27
I00
sg28
I730644
sg19
S'5595.09135686'
p293
sba(igraph
Edge
p294
(dp295
g7
I1
sg8
I00
sg9
I5
sg10
(lp296
g290
a(igraph
Vertex
p297
(dp298
g14
F0.63157894736842124
sg8
I00
sg15
I0
sg16
F46.878048780487802
sg17
F98.842105263157976
sg18
I730752
sg19
S'5594.93002742'
p299
sg21
F0.80487804878048785
sbasg26
I00
sg27
I00
sg28
I730645
sg19
S'5595.09429327'
p300
sba(igraph
Edge
p301
(dp302
g7
I1
sg8
I00
sg9
I5
sg10
(lp303
g297
a(igraph
Vertex
p304
(dp305
g14
F0.68421052631578971
sg8
I00
sg15
g24
sg16
F46.878048780487802
sg17
F119.57894736842115
sg18
I730754
sg19
S'5594.93082696'
p306
sg21
F0.80487804878048785
sbasg26
I00
sg27
I00
sg28
I730646
sg19
S'5595.09731768'
p307
sba(igraph
Edge
p308
(dp309
g7
I1
sg8
I00
sg9
I5
sg10
(lp310
g304
a(igraph
Vertex
p311
(dp312
g14
F0.73684210526315796
sg8
I00
sg15
I0
sg16
F46.878048780487802
sg17
F140.31578947368428
sg18
I730755
sg19
S'5594.9316821'
p313
sg21
F0.80487804878048785
sbasg26
I00
sg27
I00
sg28
I730647
sg19
S'5595.09996243'
p314
sba(igraph
Edge
p315
(dp316
g7
I1
sg8
I00
sg9
I5
sg10
(lp317
g311
a(igraph
Vertex
p318
(dp319
g14
F0.78947368421052644
sg8
I00
sg15
g24
sg16
F46.878048780487802
sg17
F161.05263157894746
sg18
I730757
sg19
S'5594.93249757'
p320
sg21
F0.80487804878048785
sbasg26
I00
sg27
I00
sg28
I730648
sg19
S'5595.10135059'
p321
sba(igraph
Edge
p322
(dp323
g7
I1
sg8
I00
sg9
I5
sg10
(lp324
g318
a(igraph
Vertex
p325
(dp326
g14
F0.8421052631578948
sg8
I00
sg15
I0
sg16
F46.878048780487802
sg17
F181.78947368421058
sg18
I730758
sg19
S'5594.93334097'
p327
sg21
F0.80487804878048785
sbasg26
I00
sg27
I00
sg28
I730649
sg19
S'5595.10276585'
p328
sba(igraph
Edge
p329
(dp330
g7
I1
sg8
I00
sg9
I5
sg10
(lp331
g325
a(igraph
Vertex
p332
(dp333
g14
F0.89473684210526316
sg8
I00
sg15
g24
sg16
F46.878048780487802
sg17
F202.5263157894737
sg18
I730760
sg19
S'5594.93416901'
p334
sg21
F0.80487804878048785
sbasg26
I00
sg27
I00
sg28
I730650
sg19
S'5595.10418335'
p335
sba(igraph
Edge
p336
(dp337
g7
I1
sg8
I00
sg9
I5
sg10
(lp338
g332
a(igraph
Vertex
p339
(dp340
g14
F0.94736842105263153
sg8
I00
sg15
g24
sg16
F46.878048780487802
sg17
F223.26315789473682
sg18
I730761
sg19
S'5594.93500459'
p341
sg21
F0.80487804878048785
sbasg26
I00
sg27
I00
sg28
I730651
sg19
S'5595.10562851'
p342
sba(igraph
Edge
p343
(dp344
g7
I1
sg8
I00
sg9
I5
sg10
(lp345
g339
a(igraph
Vertex
p346
(dp347
g14
F1.0
sg8
I00
sg15
g24
sg16
F46.878048780487802
sg17
F244.0
sg18
I730762
sg19
S'5594.93585106'
p348
sg21
F0.80487804878048785
sbasg26
I00
sg27
I00
sg28
I730652
sg19
S'5595.10707059'
p349
sba(igraph
Edge
p350
(dp351
g7
I1
sg8
I00
sg9
I5
sg10
(lp352
(igraph
Vertex
p353
(dp354
g14
F0.5263157894736844
sg8
I00
sg15
g24
sg16
F83.097560975609753
sg17
F57.368421052631675
sg18
I730763
sg19
S'5594.94587832'
p355
sg21
F1.0060975609756098
sba(igraph
Vertex
p356
(dp357
g14
F0.57894736842105288
sg8
I00
sg15
g24
sg16
F83.097560975609753
sg17
F78.105263157894854
sg18
I730764
sg19
S'5594.94684269'
p358
sg21
F1.0060975609756098
sbasg26
I00
sg27
I00
sg28
I730653
sg19
S'5595.12561988'
p359
sba(igraph
Edge
p360
(dp361
g7
I1
sg8
I00
sg9
I5
sg10
(lp362
g356
a(igraph
Vertex
p363
(dp364
g14
F0.63157894736842124
sg8
I00
sg15
g24
sg16
F83.097560975609753
sg17
F98.842105263157976
sg18
I730765
sg19
S'5594.94781627'
p365
sg21
F1.0060975609756098
sbasg26
I00
sg27
I00
sg28
I730654
sg19
S'5595.12725304'
p366
sba(igraph
Edge
p367
(dp368
g7
I1
sg8
I00
sg9
I5
sg10
(lp369
g363
a(igraph
Vertex
p370
(dp371
g14
F0.68421052631578971
sg8
I00
sg15
g24
sg16
F83.097560975609753
sg17
F119.57894736842115
sg18
I730766
sg19
S'5594.94879433'
p372
sg21
F1.0060975609756098
sbasg26
I00
sg27
I00
sg28
I730655
sg19
S'5595.12897589'
p373
sba(igraph
Edge
p374
(dp375
g7
I1
sg8
I00
sg9
I5
sg10
(lp376
g370
a(igraph
Vertex
p377
(dp378
g14
F0.73684210526315796
sg8
I00
sg15
g24
sg16
F83.097560975609753
sg17
F140.31578947368428
sg18
I730767
sg19
S'5594.94980675'
p379
sg21
F1.0060975609756098
sbasg26
I00
sg27
I00
sg28
I730656
sg19
S'5595.13064957'
p380
sba(igraph
Edge
p381
(dp382
g7
I1
sg8
I00
sg9
I5
sg10
(lp383
g377
a(igraph
Vertex
p384
(dp385
g14
F0.78947368421052644
sg8
I00
sg15
g24
sg16
F83.097560975609753
sg17
F161.05263157894746
sg18
I730768
sg19
S'5594.9508066'
p386
sg21
F1.0060975609756098
sbasg26
I00
sg27
I00
sg28
I730657
sg19
S'5595.13242521'
p387
sba(igraph
Edge
p388
(dp389
g7
I1
sg8
I00
sg9
I5
sg10
(lp390
g384
a(igraph
Vertex
p391
(dp392
g14
F0.8421052631578948
sg8
I00
sg15
g24
sg16
F83.097560975609753
sg17
F181.78947368421058
sg18
I730769
sg19
S'5594.95181091'
p393
sg21
F1.0060975609756098
sbasg26
I00
sg27
I00
sg28
I730658
sg19
S'5595.13411649'
p394
sba(igraph
Edge
p395
(dp396
g7
I1
sg8
I00
sg9
I5
sg10
(lp397
g391
a(igraph
Vertex
p398
(dp399
g14
F0.89473684210526316
sg8
I00
sg15
g24
sg16
F83.097560975609753
sg17
F202.5263157894737
sg18
I730770
sg19
S'5594.9528387'
p400
sg21
F1.0060975609756098
sbasg26
I00
sg27
I00
sg28
I730659
sg19
S'5595.13581894'
p401
sba(igraph
Edge
p402
(dp403
g7
I1
sg8
I00
sg9
I5
sg10
(lp404
g398
a(igraph
Vertex
p405
(dp406
g14
F0.94736842105263153
sg8
I00
sg15
I0
sg16
F83.097560975609753
sg17
F223.26315789473682
sg18
I730771
sg19
S'5594.95386509'
p407
sg21
F1.0060975609756098
sbasg26
I00
sg27
I00
sg28
I730660
sg19
S'5595.13753564'
p408
sba(igraph
Edge
p409
(dp410
g7
I1
sg8
I00
sg9
I5
sg10
(lp411
g405
a(igraph
Vertex
p412
(dp413
g14
F1.0
sg8
I00
sg15
g24
sg16
F83.097560975609753
sg17
F244.0
sg18
I730773
sg19
S'5594.95490488'
p414
sg21
F1.0060975609756098
sbasg26
I00
sg27
I00
sg28
I730661
sg19
S'5595.13927552'
p415
sba(igraph
Edge
p416
(dp417
g7
I1
sg8
I00
sg9
I5
sg10
(lp418
g12
ag92
asg26
I00
sg27
I00
sg28
I730662
sg19
S'5595.15212771'
p419
sba(igraph
Edge
p420
(dp421
g7
I1
sg8
I00
sg9
I5
sg10
(lp422
g33
ag106
asg26
I00
sg27
I00
sg28
I730663
sg19
S'5595.15402321'
p423
sba(igraph
Edge
p424
(dp425
g7
I1
sg8
I00
sg9
I5
sg10
(lp426
g47
ag120
asg26
I00
sg27
I00
sg28
I730664
sg19
S'5595.15593574'
p427
sba(igraph
Edge
p428
(dp429
g7
I1
sg8
I00
sg9
I5
sg10
(lp430
g61
ag134
asg26
I00
sg27
I00
sg28
I730665
sg19
S'5595.15789465'
p431
sba(igraph
Edge
p432
(dp433
g7
I1
sg8
I00
sg9
I5
sg10
(lp434
g75
ag148
asg26
I00
sg27
I00
sg28
I730666
sg19
S'5595.15980774'
p435
sba(igraph
Edge
p436
(dp437
g7
I1
sg8
I00
sg9
I5
sg10
(lp438
g22
ag353
asg26
I00
sg27
I00
sg28
I730667
sg19
S'5595.17171009'
p439
sba(igraph
Edge
p440
(dp441
g7
I1
sg8
I00
sg9
I5
sg10
(lp442
g40
ag363
asg26
I00
sg27
I00
sg28
I730668
sg19
S'5595.17371621'
p443
sba(igraph
Edge
p444
(dp445
g7
I1
sg8
I00
sg9
I5
sg10
(lp446
g54
ag377
asg26
I00
sg27
I00
sg28
I730669
sg19
S'5595.17587962'
p447
sba(igraph
Edge
p448
(dp449
g7
I1
sg8
I00
sg9
I5
sg10
(lp450
g68
ag391
asg26
I00
sg27
I00
sg28
I730670
sg19
S'5595.17833998'
p451
sba(igraph
Edge
p452
(dp453
g7
I1
sg8
I00
sg9
I5
sg10
(lp454
g82
ag405
asg26
I00
sg27
I00
sg28
I730671
sg19
S'5595.18045031'
p455
sba(igraph
Edge
p456
(dp457
g7
I1
sg8
I00
sg9
I5
sg10
(lp458
g89
ag158
asg26
I00
sg27
I00
sg28
I730672
sg19
S'5595.19316226'
p459
sba(igraph
Edge
p460
(dp461
g7
I1
sg8
I00
sg9
I5
sg10
(lp462
g99
ag172
asg26
I00
sg27
I00
sg28
I730673
sg19
S'5595.19535891'
p463
sba(igraph
Edge
p464
(dp465
g7
I1
sg8
I00
sg9
I5
sg10
(lp466
g113
ag186
asg26
I00
sg27
I00
sg28
I730674
sg19
S'5595.1975807'
p467
sba(igraph
Edge
p468
(dp469
g7
I1
sg8
I00
sg9
I5
sg10
(lp470
g127
ag200
asg26
I00
sg27
I00
sg28
I730675
sg19
S'5595.19974634'
p471
sba(igraph
Edge
p472
(dp473
g7
I1
sg8
I00
sg9
I5
sg10
(lp474
g141
ag214
asg26
I00
sg27
I00
sg28
I730676
sg19
S'5595.20192231'
p475
sba(igraph
Edge
p476
(dp477
g7
I1
sg8
I00
sg9
I5
sg10
(lp478
g155
ag224
asg26
I00
sg27
I00
sg28
I730677
sg19
S'5595.2155869'
p479
sba(igraph
Edge
p480
(dp481
g7
I1
sg8
I00
sg9
I5
sg10
(lp482
g165
ag238
asg26
I00
sg27
I00
sg28
I730678
sg19
S'5595.21790954'
p483
sba(igraph
Edge
p484
(dp485
g7
I1
sg8
I00
sg9
I5
sg10
(lp486
g179
ag252
asg26
I00
sg27
I00
sg28
I730679
sg19
S'5595.22023497'
p487
sba(igraph
Edge
p488
(dp489
g7
I1
sg8
I00
sg9
I5
sg10
(lp490
g193
ag266
asg26
I00
sg27
I00
sg28
I730680
sg19
S'5595.22266573'
p491
sba(igraph
Edge
p492
(dp493
g7
I1
sg8
I00
sg9
I5
sg10
(lp494
g207
ag280
asg26
I00
sg27
I00
sg28
I730681
sg19
S'5595.22503111'
p495
sba(igraph
Edge
p496
(dp497
g7
I1
sg8
I00
sg9
I5
sg10
(lp498
g221
ag290
asg26
I00
sg27
I00
sg28
I730682
sg19
S'5595.23941255'
p499
sba(igraph
Edge
p500
(dp501
g7
I1
sg8
I00
sg9
I5
sg10
(lp502
g231
ag304
asg26
I00
sg27
I00
sg28
I730683
sg19
S'5595.24185448'
p503
sba(igraph
Edge
p504
(dp505
g7
I1
sg8
I00
sg9
I5
sg10
(lp506
g245
ag318
asg26
I00
sg27
I00
sg28
I730684
sg19
S'5595.2443087'
p507
sba(igraph
Edge
p508
(dp509
g7
I1
sg8
I00
sg9
I5
sg10
(lp510
g259
ag332
asg26
I00
sg27
I00
sg28
I730685
sg19
S'5595.24683836'
p511
sba(igraph
Edge
p512
(dp513
g7
I1
sg8
I00
sg9
I5
sg10
(lp514
g273
ag346
asg26
I00
sg27
I00
sg28
I730686
sg19
S'5595.24949009'
p515
sba(igraph
Edge
p516
(dp517
g7
I1
sg8
I00
sg9
I5
sg10
(lp518
g287
ag356
asg26
I00
sg27
I00
sg28
I730687
sg19
S'5595.26493339'
p519
sba(igraph
Edge
p520
(dp521
g7
I1
sg8
I00
sg9
I5
sg10
(lp522
g297
ag370
asg26
I00
sg27
I00
sg28
I730688
sg19
S'5595.26756864'
p523
sba(igraph
Edge
p524
(dp525
g7
I1
sg8
I00
sg9
I5
sg10
(lp526
g311
ag384
asg26
I00
sg27
I00
sg28
I730689
sg19
S'5595.27021004'
p527
sba(igraph
Edge
p528
(dp529
g7
I1
sg8
I00
sg9
I5
sg10
(lp530
g325
ag398
asg26
I00
sg27
I00
sg28
I730690
sg19
S'5595.27289837'
p531
sba(igraph
Edge
p532
(dp533
g7
I1
sg8
I00
sg9
I5
sg10
(lp534
g339
ag412
asg26
I00
sg27
I00
sg28
I730691
sg19
S'5595.27566632'
p535
sba(igraph
Edge
p536
(dp537
g7
I1
sg8
I00
sg9
I5
sg10
(lp538
g353
ag412
asg26
I00
sg27
I00
sg28
I730692
sg19
S'6074.58052909'
p539
sba(igraph
Edge
p540
(dp541
g7
I1
sg8
I00
sg9
I5
sg10
(lp542
g346
ag287
asg26
I00
sg27
I00
sg28
I730693
sg19
S'6078.9430855'
p543
sba(igraph
Edge
p544
(dp545
g7
I1
sg8
I00
sg9
I5
sg10
(lp546
g221
ag280
asg26
I00
sg27
I00
sg28
I730694
sg19
S'6083.02264562'
p547
sba(igraph
Edge
p548
(dp549
g7
I1
sg8
I00
sg9
I5
sg10
(lp550
g214
ag155
asg26
I00
sg27
I00
sg28
I730695
sg19
S'6086.98019497'
p551
sba(igraph
Edge
p552
(dp553
g7
I1
sg8
I00
sg9
I5
sg10
(lp554
g89
ag148
asg26
I00
sg27
I00
sg28
I730696
sg19
S'6091.73851509'
p555
sba(igraph
Edge
p556
(dp557
g7
I1
sg8
I00
sg9
I5
sg10
(lp558
g82
ag12
asg26
I00
sg27
I00
sg28
I730697
sg19
S'6095.46148798'
p559
sbasS'vertices'
p560
(lp561
g12
ag22
ag33
ag40
ag47
ag54
ag61
ag68
ag75
ag82
ag89
ag92
ag99
ag106
ag113
ag120
ag127
ag134
ag141
ag148
ag155
ag158
ag165
ag172
ag179
ag186
ag193
ag200
ag207
ag214
ag221
ag224
ag231
ag238
ag245
ag252
ag259
ag266
ag273
ag280
ag287
ag290
ag297
ag304
ag311
ag318
ag325
ag332
ag339
ag346
ag353
ag356
ag363
ag370
ag377
ag384
ag391
ag398
ag405
ag412
asS'tags'
p562
(lp563
sb.