(igraph
Graph
p0
(dp1
S'labelingConstraints'
p2
I-1
sS'edges'
p3
(lp4
(igraph
Edge
p5
(dp6
S'direction'
p7
I1
sS'selected'
p8
I00
sS'height'
p9
I5
sS'vs'
p10
(lp11
(igraph
Vertex
p12
(dp13
S'xnorm'
p14
F0.63157894736842124
sg8
I00
sS'label'
p15
I0
sS'y'
p16
F-98.0
sS'x'
p17
F98.842105263157976
sS'circle'
p18
I734756
sS'id'
p19
S'5594.89449274'
p20
sS'ynorm'
p21
F0.0
sba(igraph
Vertex
p22
(dp23
g14
F0.68421052631578971
sg8
I00
sg15
S'NULL'
p24
sg16
F-98.0
sg17
F119.57894736842115
sg18
I734758
sg19
S'5594.89459917'
p25
sg21
F0.0
sbasS'wrap'
p26
I00
sS'curved'
p27
I00
sS'line'
p28
I734684
sg19
S'5594.95745185'
p29
sba(igraph
Edge
p30
(dp31
g7
I1
sg8
I00
sg9
I5
sg10
(lp32
g22
a(igraph
Vertex
p33
(dp34
g14
F0.73684210526315796
sg8
I00
sg15
I0
sg16
F-98.0
sg17
F140.31578947368428
sg18
I734759
sg19
S'5594.89471315'
p35
sg21
F0.0
sbasg26
I00
sg27
I00
sg28
I734685
sg19
S'5594.9576692'
p36
sba(igraph
Edge
p37
(dp38
g7
I1
sg8
I00
sg9
I5
sg10
(lp39
g33
a(igraph
Vertex
p40
(dp41
g14
F0.78947368421052644
sg8
I00
sg15
g24
sg16
F-98.0
sg17
F161.05263157894746
sg18
I734761
sg19
S'5594.89483803'
p42
sg21
F0.0
sbasg26
I00
sg27
I00
sg28
I734686
sg19
S'5594.95790024'
p43
sba(igraph
Edge
p44
(dp45
g7
I1
sg8
I00
sg9
I5
sg10
(lp46
g40
a(igraph
Vertex
p47
(dp48
g14
F0.8421052631578948
sg8
I00
sg15
I0
sg16
F-98.0
sg17
F181.78947368421058
sg18
I734762
sg19
S'5594.89500174'
p49
sg21
F0.0
sbasg26
I00
sg27
I00
sg28
I734687
sg19
S'5594.95814747'
p50
sba(igraph
Edge
p51
(dp52
g7
I1
sg8
I00
sg9
I5
sg10
(lp53
g47
a(igraph
Vertex
p54
(dp55
g14
F0.89473684210526316
sg8
I00
sg15
g24
sg16
F-98.0
sg17
F202.5263157894737
sg18
I734764
sg19
S'5594.89514505'
p56
sg21
F0.0
sbasg26
I00
sg27
I00
sg28
I734688
sg19
S'5594.95840868'
p57
sba(igraph
Edge
p58
(dp59
g7
I1
sg8
I00
sg9
I5
sg10
(lp60
g54
a(igraph
Vertex
p61
(dp62
g14
F0.94736842105263153
sg8
I00
sg15
I0
sg16
F-98.0
sg17
F223.26315789473682
sg18
I734765
sg19
S'5594.89529284'
p63
sg21
F0.0
sbasg26
I00
sg27
I00
sg28
I734689
sg19
S'5594.95898836'
p64
sba(igraph
Edge
p65
(dp66
g7
I1
sg8
I00
sg9
I5
sg10
(lp67
g61
a(igraph
Vertex
p68
(dp69
g14
F1.0
sg8
I00
sg15
g24
sg16
F-98.0
sg17
F244.0
sg18
I734767
sg19
S'5594.89545012'
p70
sg21
F0.0
sbasg26
I00
sg27
I00
sg28
I734690
sg19
S'5594.95968873'
p71
sba(igraph
Edge
p72
(dp73
g7
I1
sg8
I00
sg9
I5
sg10
(lp74
(igraph
Vertex
p75
(dp76
g14
F0.63157894736842124
sg8
I00
sg15
g24
sg16
F-61.780487804878049
sg17
F98.842105263157976
sg18
I734768
sg19
S'5594.89823148'
p77
sg21
F0.20121951219512196
sba(igraph
Vertex
p78
(dp79
g14
F0.68421052631578971
sg8
I00
sg15
g24
sg16
F-61.780487804878049
sg17
F119.57894736842115
sg18
I734769
sg19
S'5594.89850218'
p80
sg21
F0.20121951219512196
sbasg26
I00
sg27
I00
sg28
I734691
sg19
S'5594.97188721'
p81
sba(igraph
Edge
p82
(dp83
g7
I1
sg8
I00
sg9
I5
sg10
(lp84
g78
a(igraph
Vertex
p85
(dp86
g14
F0.73684210526315796
sg8
I00
sg15
g24
sg16
F-61.780487804878049
sg17
F140.31578947368428
sg18
I734770
sg19
S'5594.89878211'
p87
sg21
F0.20121951219512196
sbasg26
I00
sg27
I00
sg28
I734692
sg19
S'5594.97297617'
p88
sba(igraph
Edge
p89
(dp90
g7
I1
sg8
I00
sg9
I5
sg10
(lp91
g85
a(igraph
Vertex
p92
(dp93
g14
F0.78947368421052644
sg8
I00
sg15
g24
sg16
F-61.780487804878049
sg17
F161.05263157894746
sg18
I734771
sg19
S'5594.89907153'
p94
sg21
F0.20121951219512196
sbasg26
I00
sg27
I00
sg28
I734693
sg19
S'5594.97410062'
p95
sba(igraph
Edge
p96
(dp97
g7
I1
sg8
I00
sg9
I5
sg10
(lp98
g92
a(igraph
Vertex
p99
(dp100
g14
F0.8421052631578948
sg8
I00
sg15
g24
sg16
F-61.780487804878049
sg17
F181.78947368421058
sg18
I734772
sg19
S'5594.8993685'
p101
sg21
F0.20121951219512196
sbasg26
I00
sg27
I00
sg28
I734694
sg19
S'5594.97524937'
p102
sba(igraph
Edge
p103
(dp104
g7
I1
sg8
I00
sg9
I5
sg10
(lp105
g99
a(igraph
Vertex
p106
(dp107
g14
F0.89473684210526316
sg8
I00
sg15
g24
sg16
F-61.780487804878049
sg17
F202.5263157894737
sg18
I734773
sg19
S'5594.89967189'
p108
sg21
F0.20121951219512196
sbasg26
I00
sg27
I00
sg28
I734695
sg19
S'5594.97645902'
p109
sba(igraph
Edge
p110
(dp111
g7
I1
sg8
I00
sg9
I5
sg10
(lp112
g106
a(igraph
Vertex
p113
(dp114
g14
F0.94736842105263153
sg8
I00
sg15
I0
sg16
F-61.780487804878049
sg17
F223.26315789473682
sg18
I734774
sg19
S'5594.89998673'
p115
sg21
F0.20121951219512196
sbasg26
I00
sg27
I00
sg28
I734696
sg19
S'5594.97767677'
p116
sba(igraph
Edge
p117
(dp118
g7
I1
sg8
I00
sg9
I5
sg10
(lp119
g113
a(igraph
Vertex
p120
(dp121
g14
F1.0
sg8
I00
sg15
g24
sg16
F-61.780487804878049
sg17
F244.0
sg18
I734776
sg19
S'5594.90034963'
p122
sg21
F0.20121951219512196
sbasg26
I00
sg27
I00
sg28
I734697
sg19
S'5594.97891799'
p123
sba(igraph
Edge
p124
(dp125
g7
I1
sg8
I00
sg9
I5
sg10
(lp126
(igraph
Vertex
p127
(dp128
g14
F0.63157894736842124
sg8
I00
sg15
I0
sg16
F-25.560975609756099
sg17
F98.842105263157976
sg18
I734777
sg19
S'5594.90544105'
p129
sg21
F0.40243902439024393
sba(igraph
Vertex
p130
(dp131
g14
F0.68421052631578971
sg8
I00
sg15
g24
sg16
F-25.560975609756099
sg17
F119.57894736842115
sg18
I734779
sg19
S'5594.90588245'
p132
sg21
F0.40243902439024393
sbasg26
I00
sg27
I00
sg28
I734698
sg19
S'5595.00116495'
p133
sba(igraph
Edge
p134
(dp135
g7
I1
sg8
I00
sg9
I5
sg10
(lp136
g130
a(igraph
Vertex
p137
(dp138
g14
F0.73684210526315796
sg8
I00
sg15
I0
sg16
F-25.560975609756099
sg17
F140.31578947368428
sg18
I734780
sg19
S'5594.90632916'
p139
sg21
F0.40243902439024393
sbasg26
I00
sg27
I00
sg28
I734699
sg19
S'5595.00290735'
p140
sba(igraph
Edge
p141
(dp142
g7
I1
sg8
I00
sg9
I5
sg10
(lp143
g137
a(igraph
Vertex
p144
(dp145
g14
F0.78947368421052644
sg8
I00
sg15
g24
sg16
F-25.560975609756099
sg17
F161.05263157894746
sg18
I734782
sg19
S'5594.90678843'
p146
sg21
F0.40243902439024393
sbasg26
I00
sg27
I00
sg28
I734700
sg19
S'5595.00469305'
p147
sba(igraph
Edge
p148
(dp149
g7
I1
sg8
I00
sg9
I5
sg10
(lp150
g144
a(igraph
Vertex
p151
(dp152
g14
F0.8421052631578948
sg8
I00
sg15
I0
sg16
F-25.560975609756099
sg17
F181.78947368421058
sg18
I734783
sg19
S'5594.90724939'
p153
sg21
F0.40243902439024393
sbasg26
I00
sg27
I00
sg28
I734701
sg19
S'5595.00656089'
p154
sba(igraph
Edge
p155
(dp156
g7
I1
sg8
I00
sg9
I5
sg10
(lp157
g151
a(igraph
Vertex
p158
(dp159
g14
F0.89473684210526316
sg8
I00
sg15
g24
sg16
F-25.560975609756099
sg17
F202.5263157894737
sg18
I734785
sg19
S'5594.90772012'
p160
sg21
F0.40243902439024393
sbasg26
I00
sg27
I00
sg28
I734702
sg19
S'5595.00840051'
p161
sba(igraph
Edge
p162
(dp163
g7
I1
sg8
I00
sg9
I5
sg10
(lp164
g158
a(igraph
Vertex
p165
(dp166
g14
F0.94736842105263153
sg8
I00
sg15
g24
sg16
F-25.560975609756099
sg17
F223.26315789473682
sg18
I734786
sg19
S'5594.90820202'
p167
sg21
F0.40243902439024393
sbasg26
I00
sg27
I00
sg28
I734703
sg19
S'5595.01036808'
p168
sba(igraph
Edge
p169
(dp170
g7
I1
sg8
I00
sg9
I5
sg10
(lp171
g165
a(igraph
Vertex
p172
(dp173
g14
F1.0
sg8
I00
sg15
g24
sg16
F-25.560975609756099
sg17
F244.0
sg18
I734787
sg19
S'5594.90869007'
p174
sg21
F0.40243902439024393
sbasg26
I00
sg27
I00
sg28
I734704
sg19
S'5595.01238202'
p175
sba(igraph
Edge
p176
(dp177
g7
I1
sg8
I00
sg9
I5
sg10
(lp178
(igraph
Vertex
p179
(dp180
g14
F0.63157894736842124
sg8
I00
sg15
g24
sg16
F10.658536585365852
sg17
F98.842105263157976
sg18
I734788
sg19
S'5594.91590551'
p181
sg21
F0.60365853658536583
sba(igraph
Vertex
p182
(dp183
g14
F0.68421052631578971
sg8
I00
sg15
g24
sg16
F10.658536585365852
sg17
F119.57894736842115
sg18
I734789
sg19
S'5594.91653408'
p184
sg21
F0.60365853658536583
sbasg26
I00
sg27
I00
sg28
I734705
sg19
S'5595.04239673'
p185
sba(igraph
Edge
p186
(dp187
g7
I1
sg8
I00
sg9
I5
sg10
(lp188
g182
a(igraph
Vertex
p189
(dp190
g14
F0.73684210526315796
sg8
I00
sg15
g24
sg16
F10.658536585365852
sg17
F140.31578947368428
sg18
I734790
sg19
S'5594.91718445'
p191
sg21
F0.60365853658536583
sbasg26
I00
sg27
I00
sg28
I734706
sg19
S'5595.04497583'
p192
sba(igraph
Edge
p193
(dp194
g7
I1
sg8
I00
sg9
I5
sg10
(lp195
g189
a(igraph
Vertex
p196
(dp197
g14
F0.78947368421052644
sg8
I00
sg15
g24
sg16
F10.658536585365852
sg17
F161.05263157894746
sg18
I734791
sg19
S'5594.91782056'
p198
sg21
F0.60365853658536583
sbasg26
I00
sg27
I00
sg28
I734707
sg19
S'5595.04763818'
p199
sba(igraph
Edge
p200
(dp201
g7
I1
sg8
I00
sg9
I5
sg10
(lp202
g196
a(igraph
Vertex
p203
(dp204
g14
F0.8421052631578948
sg8
I00
sg15
g24
sg16
F10.658536585365852
sg17
F181.78947368421058
sg18
I734792
sg19
S'5594.91846617'
p205
sg21
F0.60365853658536583
sbasg26
I00
sg27
I00
sg28
I734708
sg19
S'5595.05007955'
p206
sba(igraph
Edge
p207
(dp208
g7
I1
sg8
I00
sg9
I5
sg10
(lp209
g203
a(igraph
Vertex
p210
(dp211
g14
F0.89473684210526316
sg8
I00
sg15
g24
sg16
F10.658536585365852
sg17
F202.5263157894737
sg18
I734793
sg19
S'5594.91911123'
p212
sg21
F0.60365853658536583
sbasg26
I00
sg27
I00
sg28
I734709
sg19
S'5595.05252455'
p213
sba(igraph
Edge
p214
(dp215
g7
I1
sg8
I00
sg9
I5
sg10
(lp216
g210
a(igraph
Vertex
p217
(dp218
g14
F0.94736842105263153
sg8
I00
sg15
I0
sg16
F10.658536585365852
sg17
F223.26315789473682
sg18
I734794
sg19
S'5594.91978254'
p219
sg21
F0.60365853658536583
sbasg26
I00
sg27
I00
sg28
I734710
sg19
S'5595.05501649'
p220
sba(igraph
Edge
p221
(dp222
g7
I1
sg8
I00
sg9
I5
sg10
(lp223
g217
a(igraph
Vertex
p224
(dp225
g14
F1.0
sg8
I00
sg15
g24
sg16
F10.658536585365852
sg17
F244.0
sg18
I734796
sg19
S'5594.92045721'
p226
sg21
F0.60365853658536583
sbasg26
I00
sg27
I00
sg28
I734711
sg19
S'5595.05753078'
p227
sba(igraph
Edge
p228
(dp229
g7
I1
sg8
I00
sg9
I5
sg10
(lp230
(igraph
Vertex
p231
(dp232
g14
F0.63157894736842124
sg8
I00
sg15
I0
sg16
F46.878048780487802
sg17
F98.842105263157976
sg18
I734797
sg19
S'5594.93002742'
p233
sg21
F0.80487804878048785
sba(igraph
Vertex
p234
(dp235
g14
F0.68421052631578971
sg8
I00
sg15
g24
sg16
F46.878048780487802
sg17
F119.57894736842115
sg18
I734799
sg19
S'5594.93082696'
p236
sg21
F0.80487804878048785
sbasg26
I00
sg27
I00
sg28
I734712
sg19
S'5595.09731768'
p237
sba(igraph
Edge
p238
(dp239
g7
I1
sg8
I00
sg9
I5
sg10
(lp240
g234
a(igraph
Vertex
p241
(dp242
g14
F0.73684210526315796
sg8
I00
sg15
I0
sg16
F46.878048780487802
sg17
F140.31578947368428
sg18
I734800
sg19
S'5594.9316821'
p243
sg21
F0.80487804878048785
sbasg26
I00
sg27
I00
sg28
I734713
sg19
S'5595.09996243'
p244
sba(igraph
Edge
p245
(dp246
g7
I1
sg8
I00
sg9
I5
sg10
(lp247
g241
a(igraph
Vertex
p248
(dp249
g14
F0.78947368421052644
sg8
I00
sg15
g24
sg16
F46.878048780487802
sg17
F161.05263157894746
sg18
I734802
sg19
S'5594.93249757'
p250
sg21
F0.80487804878048785
sbasg26
I00
sg27
I00
sg28
I734714
sg19
S'5595.10135059'
p251
sba(igraph
Edge
p252
(dp253
g7
I1
sg8
I00
sg9
I5
sg10
(lp254
g248
a(igraph
Vertex
p255
(dp256
g14
F0.8421052631578948
sg8
I00
sg15
I0
sg16
F46.878048780487802
sg17
F181.78947368421058
sg18
I734803
sg19
S'5594.93334097'
p257
sg21
F0.80487804878048785
sbasg26
I00
sg27
I00
sg28
I734715
sg19
S'5595.10276585'
p258
sba(igraph
Edge
p259
(dp260
g7
I1
sg8
I00
sg9
I5
sg10
(lp261
g255
a(igraph
Vertex
p262
(dp263
g14
F0.89473684210526316
sg8
I00
sg15
g24
sg16
F46.878048780487802
sg17
F202.5263157894737
sg18
I734805
sg19
S'5594.93416901'
p264
sg21
F0.80487804878048785
sbasg26
I00
sg27
I00
sg28
I734716
sg19
S'5595.10418335'
p265
sba(igraph
Edge
p266
(dp267
g7
I1
sg8
I00
sg9
I5
sg10
(lp268
g262
a(igraph
Vertex
p269
(dp270
g14
F0.94736842105263153
sg8
I00
sg15
g24
sg16
F46.878048780487802
sg17
F223.26315789473682
sg18
I734806
sg19
S'5594.93500459'
p271
sg21
F0.80487804878048785
sbasg26
I00
sg27
I00
sg28
I734717
sg19
S'5595.10562851'
p272
sba(igraph
Edge
p273
(dp274
g7
I1
sg8
I00
sg9
I5
sg10
(lp275
g269
a(igraph
Vertex
p276
(dp277
g14
F1.0
sg8
I00
sg15
g24
sg16
F46.878048780487802
sg17
F244.0
sg18
I734807
sg19
S'5594.93585106'
p278
sg21
F0.80487804878048785
sbasg26
I00
sg27
I00
sg28
I734718
sg19
S'5595.10707059'
p279
sba(igraph
Edge
p280
(dp281
g7
I1
sg8
I00
sg9
I5
sg10
(lp282
(igraph
Vertex
p283
(dp284
g14
F0.63157894736842124
sg8
I00
sg15
g24
sg16
F83.097560975609753
sg17
F98.842105263157976
sg18
I734808
sg19
S'5594.94781627'
p285
sg21
F1.0060975609756098
sba(igraph
Vertex
p286
(dp287
g14
F0.68421052631578971
sg8
I00
sg15
g24
sg16
F83.097560975609753
sg17
F119.57894736842115
sg18
I734809
sg19
S'5594.94879433'
p288
sg21
F1.0060975609756098
sbasg26
I00
sg27
I00
sg28
I734719
sg19
S'5595.12897589'
p289
sba(igraph
Edge
p290
(dp291
g7
I1
sg8
I00
sg9
I5
sg10
(lp292
g286
a(igraph
Vertex
p293
(dp294
g14
F0.73684210526315796
sg8
I00
sg15
g24
sg16
F83.097560975609753
sg17
F140.31578947368428
sg18
I734810
sg19
S'5594.94980675'
p295
sg21
F1.0060975609756098
sbasg26
I00
sg27
I00
sg28
I734720
sg19
S'5595.13064957'
p296
sba(igraph
Edge
p297
(dp298
g7
I1
sg8
I00
sg9
I5
sg10
(lp299
g293
a(igraph
Vertex
p300
(dp301
g14
F0.78947368421052644
sg8
I00
sg15
g24
sg16
F83.097560975609753
sg17
F161.05263157894746
sg18
I734811
sg19
S'5594.9508066'
p302
sg21
F1.0060975609756098
sbasg26
I00
sg27
I00
sg28
I734721
sg19
S'5595.13242521'
p303
sba(igraph
Edge
p304
(dp305
g7
I1
sg8
I00
sg9
I5
sg10
(lp306
g300
a(igraph
Vertex
p307
(dp308
g14
F0.8421052631578948
sg8
I00
sg15
g24
sg16
F83.097560975609753
sg17
F181.78947368421058
sg18
I734812
sg19
S'5594.95181091'
p309
sg21
F1.0060975609756098
sbasg26
I00
sg27
I00
sg28
I734722
sg19
S'5595.13411649'
p310
sba(igraph
Edge
p311
(dp312
g7
I1
sg8
I00
sg9
I5
sg10
(lp313
g307
a(igraph
Vertex
p314
(dp315
g14
F0.89473684210526316
sg8
I00
sg15
g24
sg16
F83.097560975609753
sg17
F202.5263157894737
sg18
I734813
sg19
S'5594.9528387'
p316
sg21
F1.0060975609756098
sbasg26
I00
sg27
I00
sg28
I734723
sg19
S'5595.13581894'
p317
sba(igraph
Edge
p318
(dp319
g7
I1
sg8
I00
sg9
I5
sg10
(lp320
g314
a(igraph
Vertex
p321
(dp322
g14
F0.94736842105263153
sg8
I00
sg15
I0
sg16
F83.097560975609753
sg17
F223.26315789473682
sg18
I734814
sg19
S'5594.95386509'
p323
sg21
F1.0060975609756098
sbasg26
I00
sg27
I00
sg28
I734724
sg19
S'5595.13753564'
p324
sba(igraph
Edge
p325
(dp326
g7
I1
sg8
I00
sg9
I5
sg10
(lp327
g321
a(igraph
Vertex
p328
(dp329
g14
F1.0
sg8
I00
sg15
g24
sg16
F83.097560975609753
sg17
F244.0
sg18
I734816
sg19
S'5594.95490488'
p330
sg21
F1.0060975609756098
sbasg26
I00
sg27
I00
sg28
I734725
sg19
S'5595.13927552'
p331
sba(igraph
Edge
p332
(dp333
g7
I1
sg8
I00
sg9
I5
sg10
(lp334
g12
ag78
asg26
I00
sg27
I00
sg28
I734726
sg19
S'5595.15402321'
p335
sba(igraph
Edge
p336
(dp337
g7
I1
sg8
I00
sg9
I5
sg10
(lp338
g33
ag92
asg26
I00
sg27
I00
sg28
I734727
sg19
S'5595.15593574'
p339
sba(igraph
Edge
p340
(dp341
g7
I1
sg8
I00
sg9
I5
sg10
(lp342
g47
ag106
asg26
I00
sg27
I00
sg28
I734728
sg19
S'5595.15789465'
p343
sba(igraph
Edge
p344
(dp345
g7
I1
sg8
I00
sg9
I5
sg10
(lp346
g61
ag120
asg26
I00
sg27
I00
sg28
I734729
sg19
S'5595.15980774'
p347
sba(igraph
Edge
p348
(dp349
g7
I1
sg8
I00
sg9
I5
sg10
(lp350
g22
ag283
asg26
I00
sg27
I00
sg28
I734730
sg19
S'5595.17371621'
p351
sba(igraph
Edge
p352
(dp353
g7
I1
sg8
I00
sg9
I5
sg10
(lp354
g40
ag293
asg26
I00
sg27
I00
sg28
I734731
sg19
S'5595.17587962'
p355
sba(igraph
Edge
p356
(dp357
g7
I1
sg8
I00
sg9
I5
sg10
(lp358
g54
ag307
asg26
I00
sg27
I00
sg28
I734732
sg19
S'5595.17833998'
p359
sba(igraph
Edge
p360
(dp361
g7
I1
sg8
I00
sg9
I5
sg10
(lp362
g68
ag321
asg26
I00
sg27
I00
sg28
I734733
sg19
S'5595.18045031'
p363
sba(igraph
Edge
p364
(dp365
g7
I1
sg8
I00
sg9
I5
sg10
(lp366
g75
ag130
asg26
I00
sg27
I00
sg28
I734734
sg19
S'5595.19535891'
p367
sba(igraph
Edge
p368
(dp369
g7
I1
sg8
I00
sg9
I5
sg10
(lp370
g85
ag144
asg26
I00
sg27
I00
sg28
I734735
sg19
S'5595.1975807'
p371
sba(igraph
Edge
p372
(dp373
g7
I1
sg8
I00
sg9
I5
sg10
(lp374
g99
ag158
asg26
I00
sg27
I00
sg28
I734736
sg19
S'5595.19974634'
p375
sba(igraph
Edge
p376
(dp377
g7
I1
sg8
I00
sg9
I5
sg10
(lp378
g113
ag172
asg26
I00
sg27
I00
sg28
I734737
sg19
S'5595.20192231'
p379
sba(igraph
Edge
p380
(dp381
g7
I1
sg8
I00
sg9
I5
sg10
(lp382
g127
ag182
asg26
I00
sg27
I00
sg28
I734738
sg19
S'5595.21790954'
p383
sba(igraph
Edge
p384
(dp385
g7
I1
sg8
I00
sg9
I5
sg10
(lp386
g137
ag196
asg26
I00
sg27
I00
sg28
I734739
sg19
S'5595.22023497'
p387
sba(igraph
Edge
p388
(dp389
g7
I1
sg8
I00
sg9
I5
sg10
(lp390
g151
ag210
asg26
I00
sg27
I00
sg28
I734740
sg19
S'5595.22266573'
p391
sba(igraph
Edge
p392
(dp393
g7
I1
sg8
I00
sg9
I5
sg10
(lp394
g165
ag224
asg26
I00
sg27
I00
sg28
I734741
sg19
S'5595.22503111'
p395
sba(igraph
Edge
p396
(dp397
g7
I1
sg8
I00
sg9
I5
sg10
(lp398
g179
ag234
asg26
I00
sg27
I00
sg28
I734742
sg19
S'5595.24185448'
p399
sba(igraph
Edge
p400
(dp401
g7
I1
sg8
I00
sg9
I5
sg10
(lp402
g189
ag248
asg26
I00
sg27
I00
sg28
I734743
sg19
S'5595.2443087'
p403
sba(igraph
Edge
p404
(dp405
g7
I1
sg8
I00
sg9
I5
sg10
(lp406
g203
ag262
asg26
I00
sg27
I00
sg28
I734744
sg19
S'5595.24683836'
p407
sba(igraph
Edge
p408
(dp409
g7
I1
sg8
I00
sg9
I5
sg10
(lp410
g217
ag276
asg26
I00
sg27
I00
sg28
I734745
sg19
S'5595.24949009'
p411
sba(igraph
Edge
p412
(dp413
g7
I1
sg8
I00
sg9
I5
sg10
(lp414
g231
ag286
asg26
I00
sg27
I00
sg28
I734746
sg19
S'5595.26756864'
p415
sba(igraph
Edge
p416
(dp417
g7
I1
sg8
I00
sg9
I5
sg10
(lp418
g241
ag300
asg26
I00
sg27
I00
sg28
I734747
sg19
S'5595.27021004'
p419
sba(igraph
Edge
p420
(dp421
g7
I1
sg8
I00
sg9
I5
sg10
(lp422
g255
ag314
asg26
I00
sg27
I00
sg28
I734748
sg19
S'5595.27289837'
p423
sba(igraph
Edge
p424
(dp425
g7
I1
sg8
I00
sg9
I5
sg10
(lp426
g269
ag328
asg26
I00
sg27
I00
sg28
I734749
sg19
S'5595.27566632'
p427
sba(igraph
Edge
p428
(dp429
g7
I1
sg8
I00
sg9
I5
sg10
(lp430
g328
ag283
asg26
I00
sg27
I00
sg28
I734750
sg19
S'6141.41604869'
p431
sba(igraph
Edge
p432
(dp433
g7
I1
sg8
I00
sg9
I5
sg10
(lp434
g231
ag276
asg26
I00
sg27
I00
sg28
I734751
sg19
S'6144.65125149'
p435
sba(igraph
Edge
p436
(dp437
g7
I1
sg8
I00
sg9
I5
sg10
(lp438
g224
ag179
asg26
I00
sg27
I00
sg28
I734752
sg19
S'6149.15530214'
p439
sba(igraph
Edge
p440
(dp441
g7
I1
sg8
I00
sg9
I5
sg10
(lp442
g127
ag172
asg26
I00
sg27
I00
sg28
I734753
sg19
S'6153.92383222'
p443
sba(igraph
Edge
p444
(dp445
g7
I1
sg8
I00
sg9
I5
sg10
(lp446
g120
ag75
asg26
I00
sg27
I00
sg28
I734754
sg19
S'6156.88567569'
p447
sba(igraph
Edge
p448
(dp449
g7
I1
sg8
I00
sg9
I5
sg10
(lp450
g12
ag68
asg26
I00
sg27
I00
sg28
I734755
sg19
S'6160.18982413'
p451
sbasS'vertices'
p452
(lp453
g12
ag22
ag33
ag40
ag47
ag54
ag61
ag68
ag75
ag78
ag85
ag92
ag99
ag106
ag113
ag120
ag127
ag130
ag137
ag144
ag151
ag158
ag165
ag172
ag179
ag182
ag189
ag196
ag203
ag210
ag217
ag224
ag231
ag234
ag241
ag248
ag255
ag262
ag269
ag276
ag283
ag286
ag293
ag300
ag307
ag314
ag321
ag328
asS'tags'
p454
(lp455
sb.