(igraph
Graph
p0
(dp1
S'labelingConstraints'
p2
I-1
sS'edges'
p3
(lp4
(igraph
Edge
p5
(dp6
S'direction'
p7
I1
sS'selected'
p8
I00
sS'height'
p9
I5
sS'vs'
p10
(lp11
(igraph
Vertex
p12
(dp13
S'xnorm'
p14
F0.31578947368421062
sg8
I00
sS'label'
p15
I0
sS'y'
p16
F-98.0
sS'x'
p17
F-25.578947368420984
sS'circle'
p18
I719501
sS'id'
p19
S'5594.89402005'
p20
sS'ynorm'
p21
F0.0
sba(igraph
Vertex
p22
(dp23
g14
F0.36842105263157909
sg8
I00
sg15
S'NULL'
p24
sg16
F-98.0
sg17
F-4.842105263157805
sg18
I719503
sg19
S'5594.89407816'
p25
sg21
F0.0
sbasS'wrap'
p26
I00
sS'curved'
p27
I00
sS'line'
p28
I719375
sg19
S'5594.95645257'
p29
sba(igraph
Edge
p30
(dp31
g7
I1
sg8
I00
sg9
I5
sg10
(lp32
g22
a(igraph
Vertex
p33
(dp34
g14
F0.42105263157894751
sg8
I00
sg15
I0
sg16
F-98.0
sg17
F15.894736842105345
sg18
I719504
sg19
S'5594.89414465'
p35
sg21
F0.0
sbasg26
I00
sg27
I00
sg28
I719376
sg19
S'5594.95658219'
p36
sba(igraph
Edge
p37
(dp38
g7
I1
sg8
I00
sg9
I5
sg10
(lp39
g33
a(igraph
Vertex
p40
(dp41
g14
F0.47368421052631599
sg8
I00
sg15
g24
sg16
F-98.0
sg17
F36.631578947368524
sg18
I719506
sg19
S'5594.89421924'
p42
sg21
F0.0
sbasg26
I00
sg27
I00
sg28
I719377
sg19
S'5594.95672662'
p43
sba(igraph
Edge
p44
(dp45
g7
I1
sg8
I00
sg9
I5
sg10
(lp46
g40
a(igraph
Vertex
p47
(dp48
g14
F0.5263157894736844
sg8
I00
sg15
I0
sg16
F-98.0
sg17
F57.368421052631675
sg18
I719507
sg19
S'5594.89430249'
p49
sg21
F0.0
sbasg26
I00
sg27
I00
sg28
I719378
sg19
S'5594.9568867'
p50
sba(igraph
Edge
p51
(dp52
g7
I1
sg8
I00
sg9
I5
sg10
(lp53
g47
a(igraph
Vertex
p54
(dp55
g14
F0.57894736842105288
sg8
I00
sg15
g24
sg16
F-98.0
sg17
F78.105263157894854
sg18
I719509
sg19
S'5594.894393'
p56
sg21
F0.0
sbasg26
I00
sg27
I00
sg28
I719379
sg19
S'5594.95706074'
p57
sba(igraph
Edge
p58
(dp59
g7
I1
sg8
I00
sg9
I5
sg10
(lp60
g54
a(igraph
Vertex
p61
(dp62
g14
F0.63157894736842124
sg8
I00
sg15
I0
sg16
F-98.0
sg17
F98.842105263157976
sg18
I719510
sg19
S'5594.89449274'
p63
sg21
F0.0
sbasg26
I00
sg27
I00
sg28
I719380
sg19
S'5594.95724848'
p64
sba(igraph
Edge
p65
(dp66
g7
I1
sg8
I00
sg9
I5
sg10
(lp67
g61
a(igraph
Vertex
p68
(dp69
g14
F0.68421052631578971
sg8
I00
sg15
g24
sg16
F-98.0
sg17
F119.57894736842115
sg18
I719512
sg19
S'5594.89459917'
p70
sg21
F0.0
sbasg26
I00
sg27
I00
sg28
I719381
sg19
S'5594.95745185'
p71
sba(igraph
Edge
p72
(dp73
g7
I1
sg8
I00
sg9
I5
sg10
(lp74
g68
a(igraph
Vertex
p75
(dp76
g14
F0.73684210526315796
sg8
I00
sg15
I0
sg16
F-98.0
sg17
F140.31578947368428
sg18
I719513
sg19
S'5594.89471315'
p77
sg21
F0.0
sbasg26
I00
sg27
I00
sg28
I719382
sg19
S'5594.9576692'
p78
sba(igraph
Edge
p79
(dp80
g7
I1
sg8
I00
sg9
I5
sg10
(lp81
g75
a(igraph
Vertex
p82
(dp83
g14
F0.78947368421052644
sg8
I00
sg15
g24
sg16
F-98.0
sg17
F161.05263157894746
sg18
I719515
sg19
S'5594.89483803'
p84
sg21
F0.0
sbasg26
I00
sg27
I00
sg28
I719383
sg19
S'5594.95790024'
p85
sba(igraph
Edge
p86
(dp87
g7
I1
sg8
I00
sg9
I5
sg10
(lp88
g82
a(igraph
Vertex
p89
(dp90
g14
F0.8421052631578948
sg8
I00
sg15
I0
sg16
F-98.0
sg17
F181.78947368421058
sg18
I719516
sg19
S'5594.89500174'
p91
sg21
F0.0
sbasg26
I00
sg27
I00
sg28
I719384
sg19
S'5594.95814747'
p92
sba(igraph
Edge
p93
(dp94
g7
I1
sg8
I00
sg9
I5
sg10
(lp95
g89
a(igraph
Vertex
p96
(dp97
g14
F0.89473684210526316
sg8
I00
sg15
g24
sg16
F-98.0
sg17
F202.5263157894737
sg18
I719518
sg19
S'5594.89514505'
p98
sg21
F0.0
sbasg26
I00
sg27
I00
sg28
I719385
sg19
S'5594.95840868'
p99
sba(igraph
Edge
p100
(dp101
g7
I1
sg8
I00
sg9
I5
sg10
(lp102
g96
a(igraph
Vertex
p103
(dp104
g14
F0.94736842105263153
sg8
I00
sg15
I0
sg16
F-98.0
sg17
F223.26315789473682
sg18
I719519
sg19
S'5594.89529284'
p105
sg21
F0.0
sbasg26
I00
sg27
I00
sg28
I719386
sg19
S'5594.95898836'
p106
sba(igraph
Edge
p107
(dp108
g7
I1
sg8
I00
sg9
I5
sg10
(lp109
g103
a(igraph
Vertex
p110
(dp111
g14
F1.0
sg8
I00
sg15
g24
sg16
F-98.0
sg17
F244.0
sg18
I719521
sg19
S'5594.89545012'
p112
sg21
F0.0
sbasg26
I00
sg27
I00
sg28
I719387
sg19
S'5594.95968873'
p113
sba(igraph
Edge
p114
(dp115
g7
I1
sg8
I00
sg9
I5
sg10
(lp116
(igraph
Vertex
p117
(dp118
g14
F0.31578947368421062
sg8
I00
sg15
g24
sg16
F-61.780487804878049
sg17
F-25.578947368420984
sg18
I719522
sg19
S'5594.89677152'
p119
sg21
F0.20121951219512196
sba(igraph
Vertex
p120
(dp121
g14
F0.36842105263157909
sg8
I00
sg15
g24
sg16
F-61.780487804878049
sg17
F-4.842105263157805
sg18
I719523
sg19
S'5594.89699473'
p122
sg21
F0.20121951219512196
sbasg26
I00
sg27
I00
sg28
I719388
sg19
S'5594.96589203'
p123
sba(igraph
Edge
p124
(dp125
g7
I1
sg8
I00
sg9
I5
sg10
(lp126
g120
a(igraph
Vertex
p127
(dp128
g14
F0.42105263157894751
sg8
I00
sg15
g24
sg16
F-61.780487804878049
sg17
F15.894736842105345
sg18
I719524
sg19
S'5594.89722688'
p129
sg21
F0.20121951219512196
sbasg26
I00
sg27
I00
sg28
I719389
sg19
S'5594.96680109'
p130
sba(igraph
Edge
p131
(dp132
g7
I1
sg8
I00
sg9
I5
sg10
(lp133
g127
a(igraph
Vertex
p134
(dp135
g14
F0.47368421052631599
sg8
I00
sg15
g24
sg16
F-61.780487804878049
sg17
F36.631578947368524
sg18
I719525
sg19
S'5594.89746518'
p136
sg21
F0.20121951219512196
sbasg26
I00
sg27
I00
sg28
I719390
sg19
S'5594.96773584'
p137
sba(igraph
Edge
p138
(dp139
g7
I1
sg8
I00
sg9
I5
sg10
(lp140
g134
a(igraph
Vertex
p141
(dp142
g14
F0.5263157894736844
sg8
I00
sg15
g24
sg16
F-61.780487804878049
sg17
F57.368421052631675
sg18
I719526
sg19
S'5594.89771074'
p143
sg21
F0.20121951219512196
sbasg26
I00
sg27
I00
sg28
I719391
sg19
S'5594.96870161'
p144
sba(igraph
Edge
p145
(dp146
g7
I1
sg8
I00
sg9
I5
sg10
(lp147
g141
a(igraph
Vertex
p148
(dp149
g14
F0.57894736842105288
sg8
I00
sg15
g24
sg16
F-61.780487804878049
sg17
F78.105263157894854
sg18
I719527
sg19
S'5594.8979672'
p150
sg21
F0.20121951219512196
sbasg26
I00
sg27
I00
sg28
I719392
sg19
S'5594.96969866'
p151
sba(igraph
Edge
p152
(dp153
g7
I1
sg8
I00
sg9
I5
sg10
(lp154
g148
a(igraph
Vertex
p155
(dp156
g14
F0.63157894736842124
sg8
I00
sg15
g24
sg16
F-61.780487804878049
sg17
F98.842105263157976
sg18
I719528
sg19
S'5594.89823148'
p157
sg21
F0.20121951219512196
sbasg26
I00
sg27
I00
sg28
I719393
sg19
S'5594.97080942'
p158
sba(igraph
Edge
p159
(dp160
g7
I1
sg8
I00
sg9
I5
sg10
(lp161
g155
a(igraph
Vertex
p162
(dp163
g14
F0.68421052631578971
sg8
I00
sg15
g24
sg16
F-61.780487804878049
sg17
F119.57894736842115
sg18
I719529
sg19
S'5594.89850218'
p164
sg21
F0.20121951219512196
sbasg26
I00
sg27
I00
sg28
I719394
sg19
S'5594.97188721'
p165
sba(igraph
Edge
p166
(dp167
g7
I1
sg8
I00
sg9
I5
sg10
(lp168
g162
a(igraph
Vertex
p169
(dp170
g14
F0.73684210526315796
sg8
I00
sg15
g24
sg16
F-61.780487804878049
sg17
F140.31578947368428
sg18
I719530
sg19
S'5594.89878211'
p171
sg21
F0.20121951219512196
sbasg26
I00
sg27
I00
sg28
I719395
sg19
S'5594.97297617'
p172
sba(igraph
Edge
p173
(dp174
g7
I1
sg8
I00
sg9
I5
sg10
(lp175
g169
a(igraph
Vertex
p176
(dp177
g14
F0.78947368421052644
sg8
I00
sg15
g24
sg16
F-61.780487804878049
sg17
F161.05263157894746
sg18
I719531
sg19
S'5594.89907153'
p178
sg21
F0.20121951219512196
sbasg26
I00
sg27
I00
sg28
I719396
sg19
S'5594.97410062'
p179
sba(igraph
Edge
p180
(dp181
g7
I1
sg8
I00
sg9
I5
sg10
(lp182
g176
a(igraph
Vertex
p183
(dp184
g14
F0.8421052631578948
sg8
I00
sg15
g24
sg16
F-61.780487804878049
sg17
F181.78947368421058
sg18
I719532
sg19
S'5594.8993685'
p185
sg21
F0.20121951219512196
sbasg26
I00
sg27
I00
sg28
I719397
sg19
S'5594.97524937'
p186
sba(igraph
Edge
p187
(dp188
g7
I1
sg8
I00
sg9
I5
sg10
(lp189
g183
a(igraph
Vertex
p190
(dp191
g14
F0.89473684210526316
sg8
I00
sg15
g24
sg16
F-61.780487804878049
sg17
F202.5263157894737
sg18
I719533
sg19
S'5594.89967189'
p192
sg21
F0.20121951219512196
sbasg26
I00
sg27
I00
sg28
I719398
sg19
S'5594.97645902'
p193
sba(igraph
Edge
p194
(dp195
g7
I1
sg8
I00
sg9
I5
sg10
(lp196
g190
a(igraph
Vertex
p197
(dp198
g14
F0.94736842105263153
sg8
I00
sg15
I0
sg16
F-61.780487804878049
sg17
F223.26315789473682
sg18
I719534
sg19
S'5594.89998673'
p199
sg21
F0.20121951219512196
sbasg26
I00
sg27
I00
sg28
I719399
sg19
S'5594.97767677'
p200
sba(igraph
Edge
p201
(dp202
g7
I1
sg8
I00
sg9
I5
sg10
(lp203
g197
a(igraph
Vertex
p204
(dp205
g14
F1.0
sg8
I00
sg15
g24
sg16
F-61.780487804878049
sg17
F244.0
sg18
I719536
sg19
S'5594.90034963'
p206
sg21
F0.20121951219512196
sbasg26
I00
sg27
I00
sg28
I719400
sg19
S'5594.97891799'
p207
sba(igraph
Edge
p208
(dp209
g7
I1
sg8
I00
sg9
I5
sg10
(lp210
(igraph
Vertex
p211
(dp212
g14
F0.31578947368421062
sg8
I00
sg15
I0
sg16
F-25.560975609756099
sg17
F-25.578947368420984
sg18
I719537
sg19
S'5594.90291923'
p213
sg21
F0.40243902439024393
sba(igraph
Vertex
p214
(dp215
g14
F0.36842105263157909
sg8
I00
sg15
g24
sg16
F-25.560975609756099
sg17
F-4.842105263157805
sg18
I719539
sg19
S'5594.90330698'
p216
sg21
F0.40243902439024393
sbasg26
I00
sg27
I00
sg28
I719401
sg19
S'5594.99101227'
p217
sba(igraph
Edge
p218
(dp219
g7
I1
sg8
I00
sg9
I5
sg10
(lp220
g214
a(igraph
Vertex
p221
(dp222
g14
F0.42105263157894751
sg8
I00
sg15
I0
sg16
F-25.560975609756099
sg17
F15.894736842105345
sg18
I719540
sg19
S'5594.90371151'
p223
sg21
F0.40243902439024393
sbasg26
I00
sg27
I00
sg28
I719402
sg19
S'5594.99266471'
p224
sba(igraph
Edge
p225
(dp226
g7
I1
sg8
I00
sg9
I5
sg10
(lp227
g221
a(igraph
Vertex
p228
(dp229
g14
F0.47368421052631599
sg8
I00
sg15
g24
sg16
F-25.560975609756099
sg17
F36.631578947368524
sg18
I719542
sg19
S'5594.90411798'
p230
sg21
F0.40243902439024393
sbasg26
I00
sg27
I00
sg28
I719403
sg19
S'5594.99428559'
p231
sba(igraph
Edge
p232
(dp233
g7
I1
sg8
I00
sg9
I5
sg10
(lp234
g228
a(igraph
Vertex
p235
(dp236
g14
F0.5263157894736844
sg8
I00
sg15
I0
sg16
F-25.560975609756099
sg17
F57.368421052631675
sg18
I719543
sg19
S'5594.90453116'
p237
sg21
F0.40243902439024393
sbasg26
I00
sg27
I00
sg28
I719404
sg19
S'5594.99594446'
p238
sba(igraph
Edge
p239
(dp240
g7
I1
sg8
I00
sg9
I5
sg10
(lp241
g235
a(igraph
Vertex
p242
(dp243
g14
F0.57894736842105288
sg8
I00
sg15
g24
sg16
F-25.560975609756099
sg17
F78.105263157894854
sg18
I719545
sg19
S'5594.9050072'
p244
sg21
F0.40243902439024393
sbasg26
I00
sg27
I00
sg28
I719405
sg19
S'5594.9977025'
p245
sba(igraph
Edge
p246
(dp247
g7
I1
sg8
I00
sg9
I5
sg10
(lp248
g242
a(igraph
Vertex
p249
(dp250
g14
F0.63157894736842124
sg8
I00
sg15
I0
sg16
F-25.560975609756099
sg17
F98.842105263157976
sg18
I719546
sg19
S'5594.90544105'
p251
sg21
F0.40243902439024393
sbasg26
I00
sg27
I00
sg28
I719406
sg19
S'5594.9994125'
p252
sba(igraph
Edge
p253
(dp254
g7
I1
sg8
I00
sg9
I5
sg10
(lp255
g249
a(igraph
Vertex
p256
(dp257
g14
F0.68421052631578971
sg8
I00
sg15
g24
sg16
F-25.560975609756099
sg17
F119.57894736842115
sg18
I719548
sg19
S'5594.90588245'
p258
sg21
F0.40243902439024393
sbasg26
I00
sg27
I00
sg28
I719407
sg19
S'5595.00116495'
p259
sba(igraph
Edge
p260
(dp261
g7
I1
sg8
I00
sg9
I5
sg10
(lp262
g256
a(igraph
Vertex
p263
(dp264
g14
F0.73684210526315796
sg8
I00
sg15
I0
sg16
F-25.560975609756099
sg17
F140.31578947368428
sg18
I719549
sg19
S'5594.90632916'
p265
sg21
F0.40243902439024393
sbasg26
I00
sg27
I00
sg28
I719408
sg19
S'5595.00290735'
p266
sba(igraph
Edge
p267
(dp268
g7
I1
sg8
I00
sg9
I5
sg10
(lp269
g263
a(igraph
Vertex
p270
(dp271
g14
F0.78947368421052644
sg8
I00
sg15
g24
sg16
F-25.560975609756099
sg17
F161.05263157894746
sg18
I719551
sg19
S'5594.90678843'
p272
sg21
F0.40243902439024393
sbasg26
I00
sg27
I00
sg28
I719409
sg19
S'5595.00469305'
p273
sba(igraph
Edge
p274
(dp275
g7
I1
sg8
I00
sg9
I5
sg10
(lp276
g270
a(igraph
Vertex
p277
(dp278
g14
F0.8421052631578948
sg8
I00
sg15
I0
sg16
F-25.560975609756099
sg17
F181.78947368421058
sg18
I719552
sg19
S'5594.90724939'
p279
sg21
F0.40243902439024393
sbasg26
I00
sg27
I00
sg28
I719410
sg19
S'5595.00656089'
p280
sba(igraph
Edge
p281
(dp282
g7
I1
sg8
I00
sg9
I5
sg10
(lp283
g277
a(igraph
Vertex
p284
(dp285
g14
F0.89473684210526316
sg8
I00
sg15
g24
sg16
F-25.560975609756099
sg17
F202.5263157894737
sg18
I719554
sg19
S'5594.90772012'
p286
sg21
F0.40243902439024393
sbasg26
I00
sg27
I00
sg28
I719411
sg19
S'5595.00840051'
p287
sba(igraph
Edge
p288
(dp289
g7
I1
sg8
I00
sg9
I5
sg10
(lp290
g284
a(igraph
Vertex
p291
(dp292
g14
F0.94736842105263153
sg8
I00
sg15
g24
sg16
F-25.560975609756099
sg17
F223.26315789473682
sg18
I719555
sg19
S'5594.90820202'
p293
sg21
F0.40243902439024393
sbasg26
I00
sg27
I00
sg28
I719412
sg19
S'5595.01036808'
p294
sba(igraph
Edge
p295
(dp296
g7
I1
sg8
I00
sg9
I5
sg10
(lp297
g291
a(igraph
Vertex
p298
(dp299
g14
F1.0
sg8
I00
sg15
g24
sg16
F-25.560975609756099
sg17
F244.0
sg18
I719556
sg19
S'5594.90869007'
p300
sg21
F0.40243902439024393
sbasg26
I00
sg27
I00
sg28
I719413
sg19
S'5595.01238202'
p301
sba(igraph
Edge
p302
(dp303
g7
I1
sg8
I00
sg9
I5
sg10
(lp304
(igraph
Vertex
p305
(dp306
g14
F0.31578947368421062
sg8
I00
sg15
g24
sg16
F10.658536585365852
sg17
F-25.578947368420984
sg18
I719557
sg19
S'5594.91237378'
p307
sg21
F0.60365853658536583
sba(igraph
Vertex
p308
(dp309
g14
F0.36842105263157909
sg8
I00
sg15
g24
sg16
F10.658536585365852
sg17
F-4.842105263157805
sg18
I719558
sg19
S'5594.91293055'
p310
sg21
F0.60365853658536583
sbasg26
I00
sg27
I00
sg28
I719414
sg19
S'5595.02888775'
p311
sba(igraph
Edge
p312
(dp313
g7
I1
sg8
I00
sg9
I5
sg10
(lp314
g308
a(igraph
Vertex
p315
(dp316
g14
F0.42105263157894751
sg8
I00
sg15
g24
sg16
F10.658536585365852
sg17
F15.894736842105345
sg18
I719559
sg19
S'5594.91352169'
p317
sg21
F0.60365853658536583
sbasg26
I00
sg27
I00
sg28
I719415
sg19
S'5595.03110172'
p318
sba(igraph
Edge
p319
(dp320
g7
I1
sg8
I00
sg9
I5
sg10
(lp321
g315
a(igraph
Vertex
p322
(dp323
g14
F0.47368421052631599
sg8
I00
sg15
g24
sg16
F10.658536585365852
sg17
F36.631578947368524
sg18
I719560
sg19
S'5594.91410445'
p324
sg21
F0.60365853658536583
sbasg26
I00
sg27
I00
sg28
I719416
sg19
S'5595.03329641'
p325
sba(igraph
Edge
p326
(dp327
g7
I1
sg8
I00
sg9
I5
sg10
(lp328
g322
a(igraph
Vertex
p329
(dp330
g14
F0.5263157894736844
sg8
I00
sg15
g24
sg16
F10.658536585365852
sg17
F57.368421052631675
sg18
I719561
sg19
S'5594.91469894'
p331
sg21
F0.60365853658536583
sbasg26
I00
sg27
I00
sg28
I719417
sg19
S'5595.03552491'
p332
sba(igraph
Edge
p333
(dp334
g7
I1
sg8
I00
sg9
I5
sg10
(lp335
g329
a(igraph
Vertex
p336
(dp337
g14
F0.57894736842105288
sg8
I00
sg15
g24
sg16
F10.658536585365852
sg17
F78.105263157894854
sg18
I719562
sg19
S'5594.9152951'
p338
sg21
F0.60365853658536583
sbasg26
I00
sg27
I00
sg28
I719418
sg19
S'5595.03776877'
p339
sba(igraph
Edge
p340
(dp341
g7
I1
sg8
I00
sg9
I5
sg10
(lp342
g336
a(igraph
Vertex
p343
(dp344
g14
F0.63157894736842124
sg8
I00
sg15
g24
sg16
F10.658536585365852
sg17
F98.842105263157976
sg18
I719563
sg19
S'5594.91590551'
p345
sg21
F0.60365853658536583
sbasg26
I00
sg27
I00
sg28
I719419
sg19
S'5595.0400604'
p346
sba(igraph
Edge
p347
(dp348
g7
I1
sg8
I00
sg9
I5
sg10
(lp349
g343
a(igraph
Vertex
p350
(dp351
g14
F0.68421052631578971
sg8
I00
sg15
g24
sg16
F10.658536585365852
sg17
F119.57894736842115
sg18
I719564
sg19
S'5594.91653408'
p352
sg21
F0.60365853658536583
sbasg26
I00
sg27
I00
sg28
I719420
sg19
S'5595.04239673'
p353
sba(igraph
Edge
p354
(dp355
g7
I1
sg8
I00
sg9
I5
sg10
(lp356
g350
a(igraph
Vertex
p357
(dp358
g14
F0.73684210526315796
sg8
I00
sg15
g24
sg16
F10.658536585365852
sg17
F140.31578947368428
sg18
I719565
sg19
S'5594.91718445'
p359
sg21
F0.60365853658536583
sbasg26
I00
sg27
I00
sg28
I719421
sg19
S'5595.04497583'
p360
sba(igraph
Edge
p361
(dp362
g7
I1
sg8
I00
sg9
I5
sg10
(lp363
g357
a(igraph
Vertex
p364
(dp365
g14
F0.78947368421052644
sg8
I00
sg15
g24
sg16
F10.658536585365852
sg17
F161.05263157894746
sg18
I719566
sg19
S'5594.91782056'
p366
sg21
F0.60365853658536583
sbasg26
I00
sg27
I00
sg28
I719422
sg19
S'5595.04763818'
p367
sba(igraph
Edge
p368
(dp369
g7
I1
sg8
I00
sg9
I5
sg10
(lp370
g364
a(igraph
Vertex
p371
(dp372
g14
F0.8421052631578948
sg8
I00
sg15
g24
sg16
F10.658536585365852
sg17
F181.78947368421058
sg18
I719567
sg19
S'5594.91846617'
p373
sg21
F0.60365853658536583
sbasg26
I00
sg27
I00
sg28
I719423
sg19
S'5595.05007955'
p374
sba(igraph
Edge
p375
(dp376
g7
I1
sg8
I00
sg9
I5
sg10
(lp377
g371
a(igraph
Vertex
p378
(dp379
g14
F0.89473684210526316
sg8
I00
sg15
g24
sg16
F10.658536585365852
sg17
F202.5263157894737
sg18
I719568
sg19
S'5594.91911123'
p380
sg21
F0.60365853658536583
sbasg26
I00
sg27
I00
sg28
I719424
sg19
S'5595.05252455'
p381
sba(igraph
Edge
p382
(dp383
g7
I1
sg8
I00
sg9
I5
sg10
(lp384
g378
a(igraph
Vertex
p385
(dp386
g14
F0.94736842105263153
sg8
I00
sg15
I0
sg16
F10.658536585365852
sg17
F223.26315789473682
sg18
I719569
sg19
S'5594.91978254'
p387
sg21
F0.60365853658536583
sbasg26
I00
sg27
I00
sg28
I719425
sg19
S'5595.05501649'
p388
sba(igraph
Edge
p389
(dp390
g7
I1
sg8
I00
sg9
I5
sg10
(lp391
g385
a(igraph
Vertex
p392
(dp393
g14
F1.0
sg8
I00
sg15
g24
sg16
F10.658536585365852
sg17
F244.0
sg18
I719571
sg19
S'5594.92045721'
p394
sg21
F0.60365853658536583
sbasg26
I00
sg27
I00
sg28
I719426
sg19
S'5595.05753078'
p395
sba(igraph
Edge
p396
(dp397
g7
I1
sg8
I00
sg9
I5
sg10
(lp398
(igraph
Vertex
p399
(dp400
g14
F0.31578947368421062
sg8
I00
sg15
I0
sg16
F46.878048780487802
sg17
F-25.578947368420984
sg18
I719572
sg19
S'5594.92544248'
p401
sg21
F0.80487804878048785
sba(igraph
Vertex
p402
(dp403
g14
F0.36842105263157909
sg8
I00
sg15
g24
sg16
F46.878048780487802
sg17
F-4.842105263157805
sg18
I719574
sg19
S'5594.92618922'
p404
sg21
F0.80487804878048785
sbasg26
I00
sg27
I00
sg28
I719427
sg19
S'5595.07990233'
p405
sba(igraph
Edge
p406
(dp407
g7
I1
sg8
I00
sg9
I5
sg10
(lp408
g402
a(igraph
Vertex
p409
(dp410
g14
F0.42105263157894751
sg8
I00
sg15
I0
sg16
F46.878048780487802
sg17
F15.894736842105345
sg18
I719575
sg19
S'5594.92693736'
p411
sg21
F0.80487804878048785
sbasg26
I00
sg27
I00
sg28
I719428
sg19
S'5595.08273733'
p412
sba(igraph
Edge
p413
(dp414
g7
I1
sg8
I00
sg9
I5
sg10
(lp415
g409
a(igraph
Vertex
p416
(dp417
g14
F0.47368421052631599
sg8
I00
sg15
g24
sg16
F46.878048780487802
sg17
F36.631578947368524
sg18
I719577
sg19
S'5594.92769109'
p418
sg21
F0.80487804878048785
sbasg26
I00
sg27
I00
sg28
I719429
sg19
S'5595.08558043'
p419
sba(igraph
Edge
p420
(dp421
g7
I1
sg8
I00
sg9
I5
sg10
(lp422
g416
a(igraph
Vertex
p423
(dp424
g14
F0.5263157894736844
sg8
I00
sg15
I0
sg16
F46.878048780487802
sg17
F57.368421052631675
sg18
I719578
sg19
S'5594.92847108'
p425
sg21
F0.80487804878048785
sbasg26
I00
sg27
I00
sg28
I719430
sg19
S'5595.0884699'
p426
sba(igraph
Edge
p427
(dp428
g7
I1
sg8
I00
sg9
I5
sg10
(lp429
g423
a(igraph
Vertex
p430
(dp431
g14
F0.57894736842105288
sg8
I00
sg15
g24
sg16
F46.878048780487802
sg17
F78.105263157894854
sg18
I719580
sg19
S'5594.92924883'
p432
sg21
F0.80487804878048785
sbasg26
I00
sg27
I00
sg28
I719431
sg19
S'5595.09135686'
p433
sba(igraph
Edge
p434
(dp435
g7
I1
sg8
I00
sg9
I5
sg10
(lp436
g430
a(igraph
Vertex
p437
(dp438
g14
F0.63157894736842124
sg8
I00
sg15
I0
sg16
F46.878048780487802
sg17
F98.842105263157976
sg18
I719581
sg19
S'5594.93002742'
p439
sg21
F0.80487804878048785
sbasg26
I00
sg27
I00
sg28
I719432
sg19
S'5595.09429327'
p440
sba(igraph
Edge
p441
(dp442
g7
I1
sg8
I00
sg9
I5
sg10
(lp443
g437
a(igraph
Vertex
p444
(dp445
g14
F0.68421052631578971
sg8
I00
sg15
g24
sg16
F46.878048780487802
sg17
F119.57894736842115
sg18
I719583
sg19
S'5594.93082696'
p446
sg21
F0.80487804878048785
sbasg26
I00
sg27
I00
sg28
I719433
sg19
S'5595.09731768'
p447
sba(igraph
Edge
p448
(dp449
g7
I1
sg8
I00
sg9
I5
sg10
(lp450
g444
a(igraph
Vertex
p451
(dp452
g14
F0.73684210526315796
sg8
I00
sg15
I0
sg16
F46.878048780487802
sg17
F140.31578947368428
sg18
I719584
sg19
S'5594.9316821'
p453
sg21
F0.80487804878048785
sbasg26
I00
sg27
I00
sg28
I719434
sg19
S'5595.09996243'
p454
sba(igraph
Edge
p455
(dp456
g7
I1
sg8
I00
sg9
I5
sg10
(lp457
g451
a(igraph
Vertex
p458
(dp459
g14
F0.78947368421052644
sg8
I00
sg15
g24
sg16
F46.878048780487802
sg17
F161.05263157894746
sg18
I719586
sg19
S'5594.93249757'
p460
sg21
F0.80487804878048785
sbasg26
I00
sg27
I00
sg28
I719435
sg19
S'5595.10135059'
p461
sba(igraph
Edge
p462
(dp463
g7
I1
sg8
I00
sg9
I5
sg10
(lp464
g458
a(igraph
Vertex
p465
(dp466
g14
F0.8421052631578948
sg8
I00
sg15
I0
sg16
F46.878048780487802
sg17
F181.78947368421058
sg18
I719587
sg19
S'5594.93334097'
p467
sg21
F0.80487804878048785
sbasg26
I00
sg27
I00
sg28
I719436
sg19
S'5595.10276585'
p468
sba(igraph
Edge
p469
(dp470
g7
I1
sg8
I00
sg9
I5
sg10
(lp471
g465
a(igraph
Vertex
p472
(dp473
g14
F0.89473684210526316
sg8
I00
sg15
g24
sg16
F46.878048780487802
sg17
F202.5263157894737
sg18
I719589
sg19
S'5594.93416901'
p474
sg21
F0.80487804878048785
sbasg26
I00
sg27
I00
sg28
I719437
sg19
S'5595.10418335'
p475
sba(igraph
Edge
p476
(dp477
g7
I1
sg8
I00
sg9
I5
sg10
(lp478
g472
a(igraph
Vertex
p479
(dp480
g14
F0.94736842105263153
sg8
I00
sg15
g24
sg16
F46.878048780487802
sg17
F223.26315789473682
sg18
I719590
sg19
S'5594.93500459'
p481
sg21
F0.80487804878048785
sbasg26
I00
sg27
I00
sg28
I719438
sg19
S'5595.10562851'
p482
sba(igraph
Edge
p483
(dp484
g7
I1
sg8
I00
sg9
I5
sg10
(lp485
g479
a(igraph
Vertex
p486
(dp487
g14
F1.0
sg8
I00
sg15
g24
sg16
F46.878048780487802
sg17
F244.0
sg18
I719591
sg19
S'5594.93585106'
p488
sg21
F0.80487804878048785
sbasg26
I00
sg27
I00
sg28
I719439
sg19
S'5595.10707059'
p489
sba(igraph
Edge
p490
(dp491
g7
I1
sg8
I00
sg9
I5
sg10
(lp492
(igraph
Vertex
p493
(dp494
g14
F0.31578947368421062
sg8
I00
sg15
g24
sg16
F83.097560975609753
sg17
F-25.578947368420984
sg18
I719592
sg19
S'5594.94209432'
p495
sg21
F1.0060975609756098
sba(igraph
Vertex
p496
(dp497
g14
F0.36842105263157909
sg8
I00
sg15
g24
sg16
F83.097560975609753
sg17
F-4.842105263157805
sg18
I719593
sg19
S'5594.94301566'
p498
sg21
F1.0060975609756098
sbasg26
I00
sg27
I00
sg28
I719440
sg19
S'5595.11922716'
p499
sba(igraph
Edge
p500
(dp501
g7
I1
sg8
I00
sg9
I5
sg10
(lp502
g496
a(igraph
Vertex
p503
(dp504
g14
F0.42105263157894751
sg8
I00
sg15
g24
sg16
F83.097560975609753
sg17
F15.894736842105345
sg18
I719594
sg19
S'5594.94398813'
p505
sg21
F1.0060975609756098
sbasg26
I00
sg27
I00
sg28
I719441
sg19
S'5595.12081647'
p506
sba(igraph
Edge
p507
(dp508
g7
I1
sg8
I00
sg9
I5
sg10
(lp509
g503
a(igraph
Vertex
p510
(dp511
g14
F0.47368421052631599
sg8
I00
sg15
g24
sg16
F83.097560975609753
sg17
F36.631578947368524
sg18
I719595
sg19
S'5594.94492736'
p512
sg21
F1.0060975609756098
sbasg26
I00
sg27
I00
sg28
I719442
sg19
S'5595.12240494'
p513
sba(igraph
Edge
p514
(dp515
g7
I1
sg8
I00
sg9
I5
sg10
(lp516
g510
a(igraph
Vertex
p517
(dp518
g14
F0.5263157894736844
sg8
I00
sg15
g24
sg16
F83.097560975609753
sg17
F57.368421052631675
sg18
I719596
sg19
S'5594.94587832'
p519
sg21
F1.0060975609756098
sbasg26
I00
sg27
I00
sg28
I719443
sg19
S'5595.12400654'
p520
sba(igraph
Edge
p521
(dp522
g7
I1
sg8
I00
sg9
I5
sg10
(lp523
g517
a(igraph
Vertex
p524
(dp525
g14
F0.57894736842105288
sg8
I00
sg15
g24
sg16
F83.097560975609753
sg17
F78.105263157894854
sg18
I719597
sg19
S'5594.94684269'
p526
sg21
F1.0060975609756098
sbasg26
I00
sg27
I00
sg28
I719444
sg19
S'5595.12561988'
p527
sba(igraph
Edge
p528
(dp529
g7
I1
sg8
I00
sg9
I5
sg10
(lp530
g524
a(igraph
Vertex
p531
(dp532
g14
F0.63157894736842124
sg8
I00
sg15
g24
sg16
F83.097560975609753
sg17
F98.842105263157976
sg18
I719598
sg19
S'5594.94781627'
p533
sg21
F1.0060975609756098
sbasg26
I00
sg27
I00
sg28
I719445
sg19
S'5595.12725304'
p534
sba(igraph
Edge
p535
(dp536
g7
I1
sg8
I00
sg9
I5
sg10
(lp537
g531
a(igraph
Vertex
p538
(dp539
g14
F0.68421052631578971
sg8
I00
sg15
g24
sg16
F83.097560975609753
sg17
F119.57894736842115
sg18
I719599
sg19
S'5594.94879433'
p540
sg21
F1.0060975609756098
sbasg26
I00
sg27
I00
sg28
I719446
sg19
S'5595.12897589'
p541
sba(igraph
Edge
p542
(dp543
g7
I1
sg8
I00
sg9
I5
sg10
(lp544
g538
a(igraph
Vertex
p545
(dp546
g14
F0.73684210526315796
sg8
I00
sg15
g24
sg16
F83.097560975609753
sg17
F140.31578947368428
sg18
I719600
sg19
S'5594.94980675'
p547
sg21
F1.0060975609756098
sbasg26
I00
sg27
I00
sg28
I719447
sg19
S'5595.13064957'
p548
sba(igraph
Edge
p549
(dp550
g7
I1
sg8
I00
sg9
I5
sg10
(lp551
g545
a(igraph
Vertex
p552
(dp553
g14
F0.78947368421052644
sg8
I00
sg15
g24
sg16
F83.097560975609753
sg17
F161.05263157894746
sg18
I719601
sg19
S'5594.9508066'
p554
sg21
F1.0060975609756098
sbasg26
I00
sg27
I00
sg28
I719448
sg19
S'5595.13242521'
p555
sba(igraph
Edge
p556
(dp557
g7
I1
sg8
I00
sg9
I5
sg10
(lp558
g552
a(igraph
Vertex
p559
(dp560
g14
F0.8421052631578948
sg8
I00
sg15
g24
sg16
F83.097560975609753
sg17
F181.78947368421058
sg18
I719602
sg19
S'5594.95181091'
p561
sg21
F1.0060975609756098
sbasg26
I00
sg27
I00
sg28
I719449
sg19
S'5595.13411649'
p562
sba(igraph
Edge
p563
(dp564
g7
I1
sg8
I00
sg9
I5
sg10
(lp565
g559
a(igraph
Vertex
p566
(dp567
g14
F0.89473684210526316
sg8
I00
sg15
g24
sg16
F83.097560975609753
sg17
F202.5263157894737
sg18
I719603
sg19
S'5594.9528387'
p568
sg21
F1.0060975609756098
sbasg26
I00
sg27
I00
sg28
I719450
sg19
S'5595.13581894'
p569
sba(igraph
Edge
p570
(dp571
g7
I1
sg8
I00
sg9
I5
sg10
(lp572
g566
a(igraph
Vertex
p573
(dp574
g14
F0.94736842105263153
sg8
I00
sg15
I0
sg16
F83.097560975609753
sg17
F223.26315789473682
sg18
I719604
sg19
S'5594.95386509'
p575
sg21
F1.0060975609756098
sbasg26
I00
sg27
I00
sg28
I719451
sg19
S'5595.13753564'
p576
sba(igraph
Edge
p577
(dp578
g7
I1
sg8
I00
sg9
I5
sg10
(lp579
g573
a(igraph
Vertex
p580
(dp581
g14
F1.0
sg8
I00
sg15
g24
sg16
F83.097560975609753
sg17
F244.0
sg18
I719606
sg19
S'5594.95490488'
p582
sg21
F1.0060975609756098
sbasg26
I00
sg27
I00
sg28
I719452
sg19
S'5595.13927552'
p583
sba(igraph
Edge
p584
(dp585
g7
I1
sg8
I00
sg9
I5
sg10
(lp586
g12
ag120
asg26
I00
sg27
I00
sg28
I719453
sg19
S'5595.14829483'
p587
sba(igraph
Edge
p588
(dp589
g7
I1
sg8
I00
sg9
I5
sg10
(lp590
g33
ag134
asg26
I00
sg27
I00
sg28
I719454
sg19
S'5595.15022077'
p591
sba(igraph
Edge
p592
(dp593
g7
I1
sg8
I00
sg9
I5
sg10
(lp594
g47
ag148
asg26
I00
sg27
I00
sg28
I719455
sg19
S'5595.15212771'
p595
sba(igraph
Edge
p596
(dp597
g7
I1
sg8
I00
sg9
I5
sg10
(lp598
g61
ag162
asg26
I00
sg27
I00
sg28
I719456
sg19
S'5595.15402321'
p599
sba(igraph
Edge
p600
(dp601
g7
I1
sg8
I00
sg9
I5
sg10
(lp602
g75
ag176
asg26
I00
sg27
I00
sg28
I719457
sg19
S'5595.15593574'
p603
sba(igraph
Edge
p604
(dp605
g7
I1
sg8
I00
sg9
I5
sg10
(lp606
g89
ag190
asg26
I00
sg27
I00
sg28
I719458
sg19
S'5595.15789465'
p607
sba(igraph
Edge
p608
(dp609
g7
I1
sg8
I00
sg9
I5
sg10
(lp610
g103
ag204
asg26
I00
sg27
I00
sg28
I719459
sg19
S'5595.15980774'
p611
sba(igraph
Edge
p612
(dp613
g7
I1
sg8
I00
sg9
I5
sg10
(lp614
g22
ag493
asg26
I00
sg27
I00
sg28
I719460
sg19
S'5595.16772942'
p615
sba(igraph
Edge
p616
(dp617
g7
I1
sg8
I00
sg9
I5
sg10
(lp618
g40
ag503
asg26
I00
sg27
I00
sg28
I719461
sg19
S'5595.16971291'
p619
sba(igraph
Edge
p620
(dp621
g7
I1
sg8
I00
sg9
I5
sg10
(lp622
g54
ag517
asg26
I00
sg27
I00
sg28
I719462
sg19
S'5595.17171009'
p623
sba(igraph
Edge
p624
(dp625
g7
I1
sg8
I00
sg9
I5
sg10
(lp626
g68
ag531
asg26
I00
sg27
I00
sg28
I719463
sg19
S'5595.17371621'
p627
sba(igraph
Edge
p628
(dp629
g7
I1
sg8
I00
sg9
I5
sg10
(lp630
g82
ag545
asg26
I00
sg27
I00
sg28
I719464
sg19
S'5595.17587962'
p631
sba(igraph
Edge
p632
(dp633
g7
I1
sg8
I00
sg9
I5
sg10
(lp634
g96
ag559
asg26
I00
sg27
I00
sg28
I719465
sg19
S'5595.17833998'
p635
sba(igraph
Edge
p636
(dp637
g7
I1
sg8
I00
sg9
I5
sg10
(lp638
g110
ag573
asg26
I00
sg27
I00
sg28
I719466
sg19
S'5595.18045031'
p639
sba(igraph
Edge
p640
(dp641
g7
I1
sg8
I00
sg9
I5
sg10
(lp642
g117
ag214
asg26
I00
sg27
I00
sg28
I719467
sg19
S'5595.1888916'
p643
sba(igraph
Edge
p644
(dp645
g7
I1
sg8
I00
sg9
I5
sg10
(lp646
g127
ag228
asg26
I00
sg27
I00
sg28
I719468
sg19
S'5595.19102176'
p647
sba(igraph
Edge
p648
(dp649
g7
I1
sg8
I00
sg9
I5
sg10
(lp650
g141
ag242
asg26
I00
sg27
I00
sg28
I719469
sg19
S'5595.19316226'
p651
sba(igraph
Edge
p652
(dp653
g7
I1
sg8
I00
sg9
I5
sg10
(lp654
g155
ag256
asg26
I00
sg27
I00
sg28
I719470
sg19
S'5595.19535891'
p655
sba(igraph
Edge
p656
(dp657
g7
I1
sg8
I00
sg9
I5
sg10
(lp658
g169
ag270
asg26
I00
sg27
I00
sg28
I719471
sg19
S'5595.1975807'
p659
sba(igraph
Edge
p660
(dp661
g7
I1
sg8
I00
sg9
I5
sg10
(lp662
g183
ag284
asg26
I00
sg27
I00
sg28
I719472
sg19
S'5595.19974634'
p663
sba(igraph
Edge
p664
(dp665
g7
I1
sg8
I00
sg9
I5
sg10
(lp666
g197
ag298
asg26
I00
sg27
I00
sg28
I719473
sg19
S'5595.20192231'
p667
sba(igraph
Edge
p668
(dp669
g7
I1
sg8
I00
sg9
I5
sg10
(lp670
g211
ag308
asg26
I00
sg27
I00
sg28
I719474
sg19
S'5595.21100615'
p671
sba(igraph
Edge
p672
(dp673
g7
I1
sg8
I00
sg9
I5
sg10
(lp674
g221
ag322
asg26
I00
sg27
I00
sg28
I719475
sg19
S'5595.21325867'
p675
sba(igraph
Edge
p676
(dp677
g7
I1
sg8
I00
sg9
I5
sg10
(lp678
g235
ag336
asg26
I00
sg27
I00
sg28
I719476
sg19
S'5595.2155869'
p679
sba(igraph
Edge
p680
(dp681
g7
I1
sg8
I00
sg9
I5
sg10
(lp682
g249
ag350
asg26
I00
sg27
I00
sg28
I719477
sg19
S'5595.21790954'
p683
sba(igraph
Edge
p684
(dp685
g7
I1
sg8
I00
sg9
I5
sg10
(lp686
g263
ag364
asg26
I00
sg27
I00
sg28
I719478
sg19
S'5595.22023497'
p687
sba(igraph
Edge
p688
(dp689
g7
I1
sg8
I00
sg9
I5
sg10
(lp690
g277
ag378
asg26
I00
sg27
I00
sg28
I719479
sg19
S'5595.22266573'
p691
sba(igraph
Edge
p692
(dp693
g7
I1
sg8
I00
sg9
I5
sg10
(lp694
g291
ag392
asg26
I00
sg27
I00
sg28
I719480
sg19
S'5595.22503111'
p695
sba(igraph
Edge
p696
(dp697
g7
I1
sg8
I00
sg9
I5
sg10
(lp698
g305
ag402
asg26
I00
sg27
I00
sg28
I719481
sg19
S'5595.23457311'
p699
sba(igraph
Edge
p700
(dp701
g7
I1
sg8
I00
sg9
I5
sg10
(lp702
g315
ag416
asg26
I00
sg27
I00
sg28
I719482
sg19
S'5595.23699241'
p703
sba(igraph
Edge
p704
(dp705
g7
I1
sg8
I00
sg9
I5
sg10
(lp706
g329
ag430
asg26
I00
sg27
I00
sg28
I719483
sg19
S'5595.23941255'
p707
sba(igraph
Edge
p708
(dp709
g7
I1
sg8
I00
sg9
I5
sg10
(lp710
g343
ag444
asg26
I00
sg27
I00
sg28
I719484
sg19
S'5595.24185448'
p711
sba(igraph
Edge
p712
(dp713
g7
I1
sg8
I00
sg9
I5
sg10
(lp714
g357
ag458
asg26
I00
sg27
I00
sg28
I719485
sg19
S'5595.2443087'
p715
sba(igraph
Edge
p716
(dp717
g7
I1
sg8
I00
sg9
I5
sg10
(lp718
g371
ag472
asg26
I00
sg27
I00
sg28
I719486
sg19
S'5595.24683836'
p719
sba(igraph
Edge
p720
(dp721
g7
I1
sg8
I00
sg9
I5
sg10
(lp722
g385
ag486
asg26
I00
sg27
I00
sg28
I719487
sg19
S'5595.24949009'
p723
sba(igraph
Edge
p724
(dp725
g7
I1
sg8
I00
sg9
I5
sg10
(lp726
g399
ag496
asg26
I00
sg27
I00
sg28
I719488
sg19
S'5595.2597833'
p727
sba(igraph
Edge
p728
(dp729
g7
I1
sg8
I00
sg9
I5
sg10
(lp730
g409
ag510
asg26
I00
sg27
I00
sg28
I719489
sg19
S'5595.26234759'
p731
sba(igraph
Edge
p732
(dp733
g7
I1
sg8
I00
sg9
I5
sg10
(lp734
g423
ag524
asg26
I00
sg27
I00
sg28
I719490
sg19
S'5595.26493339'
p735
sba(igraph
Edge
p736
(dp737
g7
I1
sg8
I00
sg9
I5
sg10
(lp738
g437
ag538
asg26
I00
sg27
I00
sg28
I719491
sg19
S'5595.26756864'
p739
sba(igraph
Edge
p740
(dp741
g7
I1
sg8
I00
sg9
I5
sg10
(lp742
g451
ag552
asg26
I00
sg27
I00
sg28
I719492
sg19
S'5595.27021004'
p743
sba(igraph
Edge
p744
(dp745
g7
I1
sg8
I00
sg9
I5
sg10
(lp746
g465
ag566
asg26
I00
sg27
I00
sg28
I719493
sg19
S'5595.27289837'
p747
sba(igraph
Edge
p748
(dp749
g7
I1
sg8
I00
sg9
I5
sg10
(lp750
g479
ag580
asg26
I00
sg27
I00
sg28
I719494
sg19
S'5595.27566632'
p751
sba(igraph
Edge
p752
(dp753
g7
I1
sg8
I00
sg9
I5
sg10
(lp754
g493
ag580
asg26
I00
sg27
I00
sg28
I719495
sg19
S'5903.67380938'
p755
sba(igraph
Edge
p756
(dp757
g7
I1
sg8
I00
sg9
I5
sg10
(lp758
g399
ag486
asg26
I00
sg27
I00
sg28
I719496
sg19
S'5911.62216539'
p759
sba(igraph
Edge
p760
(dp761
g7
I1
sg8
I00
sg9
I5
sg10
(lp762
g392
ag305
asg26
I00
sg27
I00
sg28
I719497
sg19
S'5915.44764851'
p763
sba(igraph
Edge
p764
(dp765
g7
I1
sg8
I00
sg9
I5
sg10
(lp766
g211
ag298
asg26
I00
sg27
I00
sg28
I719498
sg19
S'5920.52088771'
p767
sba(igraph
Edge
p768
(dp769
g7
I1
sg8
I00
sg9
I5
sg10
(lp770
g117
ag204
asg26
I00
sg27
I00
sg28
I719499
sg19
S'5930.15256883'
p771
sba(igraph
Edge
p772
(dp773
g7
I1
sg8
I00
sg9
I5
sg10
(lp774
g110
ag12
asg26
I00
sg27
I00
sg28
I719500
sg19
S'5933.78999789'
p775
sbasS'vertices'
p776
(lp777
g12
ag22
ag33
ag40
ag47
ag54
ag61
ag68
ag75
ag82
ag89
ag96
ag103
ag110
ag117
ag120
ag127
ag134
ag141
ag148
ag155
ag162
ag169
ag176
ag183
ag190
ag197
ag204
ag211
ag214
ag221
ag228
ag235
ag242
ag249
ag256
ag263
ag270
ag277
ag284
ag291
ag298
ag305
ag308
ag315
ag322
ag329
ag336
ag343
ag350
ag357
ag364
ag371
ag378
ag385
ag392
ag399
ag402
ag409
ag416
ag423
ag430
ag437
ag444
ag451
ag458
ag465
ag472
ag479
ag486
ag493
ag496
ag503
ag510
ag517
ag524
ag531
ag538
ag545
ag552
ag559
ag566
ag573
ag580
asS'tags'
p778
(lp779
sb.