(igraph
Graph
p0
(dp1
S'labelingConstraints'
p2
I-1
sS'edges'
p3
(lp4
(igraph
Edge
p5
(dp6
S'direction'
p7
I1
sS'selected'
p8
I00
sS'height'
p9
I5
sS'vs'
p10
(lp11
(igraph
Vertex
p12
(dp13
S'y'
p14
F-99.0
sS'x'
p15
F-149.99999999999994
sS'circle'
p16
I4994115
sg8
I01
sS'id'
p17
S'106311.755914'
p18
sS'label'
p19
I0
sba(igraph
Vertex
p20
(dp21
g14
F-99.0
sg15
F-134.21052631578942
sg16
I4994117
sg8
I00
sg17
S'106311.755953'
p22
sg19
S'NULL'
p23
sbasS'wrap'
p24
I00
sS'curved'
p25
I00
sS'line'
p26
I4993904
sg17
S'106311.907855'
p27
sba(igraph
Edge
p28
(dp29
g7
I1
sg8
I00
sg9
I5
sg10
(lp30
g20
a(igraph
Vertex
p31
(dp32
g14
F-99.0
sg15
F-118.42105263157889
sg16
I4994119
sg8
I01
sg17
S'106311.755997'
p33
sg19
I0
sbasg24
I00
sg25
I00
sg26
I4993905
sg17
S'106311.907903'
p34
sba(igraph
Edge
p35
(dp36
g7
I1
sg8
I00
sg9
I5
sg10
(lp37
g31
a(igraph
Vertex
p38
(dp39
g14
F-99.0
sg15
F-102.63157894736837
sg16
I4994121
sg8
I00
sg17
S'106311.756053'
p40
sg19
g23
sbasg24
I00
sg25
I00
sg26
I4993906
sg17
S'106311.907963'
p41
sba(igraph
Edge
p42
(dp43
g7
I1
sg8
I00
sg9
I5
sg10
(lp44
g38
a(igraph
Vertex
p45
(dp46
g14
F-99.0
sg15
F-86.842105263157833
sg16
I4994123
sg8
I01
sg17
S'106311.756121'
p47
sg19
I0
sbasg24
I00
sg25
I00
sg26
I4993907
sg17
S'106311.908036'
p48
sba(igraph
Edge
p49
(dp50
g7
I1
sg8
I00
sg9
I5
sg10
(lp51
g45
a(igraph
Vertex
p52
(dp53
g14
F-99.0
sg15
F-71.052631578947313
sg16
I4994125
sg8
I00
sg17
S'106311.75621'
p54
sg19
g23
sbasg24
I00
sg25
I00
sg26
I4993908
sg17
S'106311.908122'
p55
sba(igraph
Edge
p56
(dp57
g7
I1
sg8
I00
sg9
I5
sg10
(lp58
g52
a(igraph
Vertex
p59
(dp60
g14
F-99.0
sg15
F-55.263157894736793
sg16
I4994127
sg8
I01
sg17
S'106311.756313'
p61
sg19
I0
sbasg24
I00
sg25
I00
sg26
I4993909
sg17
S'106311.908224'
p62
sba(igraph
Edge
p63
(dp64
g7
I1
sg8
I00
sg9
I5
sg10
(lp65
g59
a(igraph
Vertex
p66
(dp67
g14
F-99.0
sg15
F-39.473684210526258
sg16
I4994129
sg8
I00
sg17
S'106311.756427'
p68
sg19
g23
sbasg24
I00
sg25
I00
sg26
I4993910
sg17
S'106311.908341'
p69
sba(igraph
Edge
p70
(dp71
g7
I1
sg8
I00
sg9
I5
sg10
(lp72
g66
a(igraph
Vertex
p73
(dp74
g14
F-99.0
sg15
F-23.684210526315738
sg16
I4994131
sg8
I01
sg17
S'106311.756558'
p75
sg19
I0
sbasg24
I00
sg25
I00
sg26
I4993911
sg17
S'106311.908472'
p76
sba(igraph
Edge
p77
(dp78
g7
I1
sg8
I00
sg9
I5
sg10
(lp79
g73
a(igraph
Vertex
p80
(dp81
g14
F-99.0
sg15
F-7.8947368421052033
sg16
I4994133
sg8
I00
sg17
S'106311.756704'
p82
sg19
g23
sbasg24
I00
sg25
I00
sg26
I4993912
sg17
S'106311.908625'
p83
sba(igraph
Edge
p84
(dp85
g7
I1
sg8
I00
sg9
I5
sg10
(lp86
g80
a(igraph
Vertex
p87
(dp88
g14
F-99.0
sg15
F7.894736842105317
sg16
I4994135
sg8
I01
sg17
S'106311.756865'
p89
sg19
I0
sbasg24
I00
sg25
I00
sg26
I4993913
sg17
S'106311.908786'
p90
sba(igraph
Edge
p91
(dp92
g7
I1
sg8
I00
sg9
I5
sg10
(lp93
g87
a(igraph
Vertex
p94
(dp95
g14
F-99.0
sg15
F23.684210526315866
sg16
I4994137
sg8
I00
sg17
S'106311.757046'
p96
sg19
g23
sbasg24
I00
sg25
I00
sg26
I4993914
sg17
S'106311.908966'
p97
sba(igraph
Edge
p98
(dp99
g7
I1
sg8
I00
sg9
I5
sg10
(lp100
g94
a(igraph
Vertex
p101
(dp102
g14
F-99.0
sg15
F39.473684210526358
sg16
I4994139
sg8
I01
sg17
S'106311.757241'
p103
sg19
I0
sbasg24
I00
sg25
I00
sg26
I4993915
sg17
S'106311.909156'
p104
sba(igraph
Edge
p105
(dp106
g7
I1
sg8
I00
sg9
I5
sg10
(lp107
g101
a(igraph
Vertex
p108
(dp109
g14
F-99.0
sg15
F55.263157894736878
sg16
I4994141
sg8
I00
sg17
S'106311.757449'
p110
sg19
g23
sbasg24
I00
sg25
I00
sg26
I4993916
sg17
S'106311.909359'
p111
sba(igraph
Edge
p112
(dp113
g7
I1
sg8
I00
sg9
I5
sg10
(lp114
g108
a(igraph
Vertex
p115
(dp116
g14
F-99.0
sg15
F71.05263157894737
sg16
I4994143
sg8
I01
sg17
S'106311.757673'
p117
sg19
I0
sbasg24
I00
sg25
I00
sg26
I4993917
sg17
S'106311.909592'
p118
sba(igraph
Edge
p119
(dp120
g7
I1
sg8
I00
sg9
I5
sg10
(lp121
g115
a(igraph
Vertex
p122
(dp123
g14
F-99.0
sg15
F86.84210526315789
sg16
I4994145
sg8
I00
sg17
S'106311.757914'
p124
sg19
g23
sbasg24
I00
sg25
I00
sg26
I4993918
sg17
S'106311.909825'
p125
sba(igraph
Edge
p126
(dp127
g7
I1
sg8
I00
sg9
I5
sg10
(lp128
g122
a(igraph
Vertex
p129
(dp130
g14
F-99.0
sg15
F102.63157894736841
sg16
I4994147
sg8
I01
sg17
S'106311.758171'
p131
sg19
I0
sbasg24
I00
sg25
I00
sg26
I4993919
sg17
S'106311.910081'
p132
sba(igraph
Edge
p133
(dp134
g7
I1
sg8
I00
sg9
I5
sg10
(lp135
g129
a(igraph
Vertex
p136
(dp137
g14
F-99.0
sg15
F118.4210526315789
sg16
I4994149
sg8
I00
sg17
S'106311.758446'
p138
sg19
g23
sbasg24
I00
sg25
I00
sg26
I4993920
sg17
S'106311.910341'
p139
sba(igraph
Edge
p140
(dp141
g7
I1
sg8
I00
sg9
I5
sg10
(lp142
g136
a(igraph
Vertex
p143
(dp144
g14
F-99.0
sg15
F134.21052631578942
sg16
I4994151
sg8
I01
sg17
S'106311.758741'
p145
sg19
I0
sbasg24
I00
sg25
I00
sg26
I4993921
sg17
S'106311.910622'
p146
sba(igraph
Edge
p147
(dp148
g7
I1
sg8
I00
sg9
I5
sg10
(lp149
g143
a(igraph
Vertex
p150
(dp151
g14
F-99.0
sg15
F149.99999999999994
sg16
I4994153
sg8
I00
sg17
S'106311.759047'
p152
sg19
g23
sbasg24
I00
sg25
I00
sg26
I4993922
sg17
S'106311.910913'
p153
sba(igraph
Edge
p154
(dp155
g7
I1
sg8
I00
sg9
I5
sg10
(lp156
g150
ag12
asg24
I00
sg25
I00
sg26
I4993923
sg17
S'106311.911224'
p157
sba(igraph
Edge
p158
(dp159
g7
I1
sg8
I00
sg9
I5
sg10
(lp160
(igraph
Vertex
p161
(dp162
g14
F-66.0
sg15
F-149.99999999999994
sg16
I4994154
sg8
I00
sg17
S'106311.759372'
p163
sg19
g23
sba(igraph
Vertex
p164
(dp165
g14
F-66.0
sg15
F-134.21052631578942
sg16
I4994155
sg8
I00
sg17
S'106311.759711'
p166
sg19
g23
sbasg24
I00
sg25
I00
sg26
I4993924
sg17
S'106311.911577'
p167
sba(igraph
Edge
p168
(dp169
g7
I1
sg8
I00
sg9
I5
sg10
(lp170
g164
a(igraph
Vertex
p171
(dp172
g14
F-66.0
sg15
F-118.42105263157889
sg16
I4994156
sg8
I00
sg17
S'106311.760071'
p173
sg19
g23
sbasg24
I00
sg25
I00
sg26
I4993925
sg17
S'106311.911911'
p174
sba(igraph
Edge
p175
(dp176
g7
I1
sg8
I00
sg9
I5
sg10
(lp177
g171
a(igraph
Vertex
p178
(dp179
g14
F-66.0
sg15
F-102.63157894736837
sg16
I4994157
sg8
I00
sg17
S'106311.760444'
p180
sg19
g23
sbasg24
I00
sg25
I00
sg26
I4993926
sg17
S'106311.912269'
p181
sba(igraph
Edge
p182
(dp183
g7
I1
sg8
I00
sg9
I5
sg10
(lp184
g178
a(igraph
Vertex
p185
(dp186
g14
F-66.0
sg15
F-86.842105263157833
sg16
I4994158
sg8
I00
sg17
S'106311.760827'
p187
sg19
g23
sbasg24
I00
sg25
I00
sg26
I4993927
sg17
S'106311.912639'
p188
sba(igraph
Edge
p189
(dp190
g7
I1
sg8
I00
sg9
I5
sg10
(lp191
g185
a(igraph
Vertex
p192
(dp193
g14
F-66.0
sg15
F-71.052631578947313
sg16
I4994159
sg8
I00
sg17
S'106311.761231'
p194
sg19
g23
sbasg24
I00
sg25
I00
sg26
I4993928
sg17
S'106311.913013'
p195
sba(igraph
Edge
p196
(dp197
g7
I1
sg8
I00
sg9
I5
sg10
(lp198
g192
a(igraph
Vertex
p199
(dp200
g14
F-66.0
sg15
F-55.263157894736793
sg16
I4994160
sg8
I00
sg17
S'106311.761653'
p201
sg19
g23
sbasg24
I00
sg25
I00
sg26
I4993929
sg17
S'106311.913403'
p202
sba(igraph
Edge
p203
(dp204
g7
I1
sg8
I00
sg9
I5
sg10
(lp205
g199
a(igraph
Vertex
p206
(dp207
g14
F-66.0
sg15
F-39.473684210526258
sg16
I4994161
sg8
I00
sg17
S'106311.76209'
p208
sg19
g23
sbasg24
I00
sg25
I00
sg26
I4993930
sg17
S'106311.913823'
p209
sba(igraph
Edge
p210
(dp211
g7
I1
sg8
I00
sg9
I5
sg10
(lp212
g206
a(igraph
Vertex
p213
(dp214
g14
F-66.0
sg15
F-23.684210526315738
sg16
I4994162
sg8
I00
sg17
S'106311.762543'
p215
sg19
g23
sbasg24
I00
sg25
I00
sg26
I4993931
sg17
S'106311.914244'
p216
sba(igraph
Edge
p217
(dp218
g7
I1
sg8
I00
sg9
I5
sg10
(lp219
g213
a(igraph
Vertex
p220
(dp221
g14
F-66.0
sg15
F-7.8947368421052033
sg16
I4994163
sg8
I00
sg17
S'106311.763013'
p222
sg19
g23
sbasg24
I00
sg25
I00
sg26
I4993932
sg17
S'106311.914688'
p223
sba(igraph
Edge
p224
(dp225
g7
I1
sg8
I00
sg9
I5
sg10
(lp226
g220
a(igraph
Vertex
p227
(dp228
g14
F-66.0
sg15
F7.894736842105317
sg16
I4994164
sg8
I00
sg17
S'106311.7635'
p229
sg19
g23
sbasg24
I00
sg25
I00
sg26
I4993933
sg17
S'106311.915139'
p230
sba(igraph
Edge
p231
(dp232
g7
I1
sg8
I00
sg9
I5
sg10
(lp233
g227
a(igraph
Vertex
p234
(dp235
g14
F-66.0
sg15
F23.684210526315866
sg16
I4994165
sg8
I00
sg17
S'106311.764'
p236
sg19
g23
sbasg24
I00
sg25
I00
sg26
I4993934
sg17
S'106311.915686'
p237
sba(igraph
Edge
p238
(dp239
g7
I1
sg8
I00
sg9
I5
sg10
(lp240
g234
a(igraph
Vertex
p241
(dp242
g14
F-66.0
sg15
F39.473684210526358
sg16
I4994166
sg8
I00
sg17
S'106311.764516'
p243
sg19
g23
sbasg24
I00
sg25
I00
sg26
I4993935
sg17
S'106311.916176'
p244
sba(igraph
Edge
p245
(dp246
g7
I1
sg8
I00
sg9
I5
sg10
(lp247
g241
a(igraph
Vertex
p248
(dp249
g14
F-66.0
sg15
F55.263157894736878
sg16
I4994167
sg8
I00
sg17
S'106311.765053'
p250
sg19
g23
sbasg24
I00
sg25
I00
sg26
I4993936
sg17
S'106311.916667'
p251
sba(igraph
Edge
p252
(dp253
g7
I1
sg8
I00
sg9
I5
sg10
(lp254
g248
a(igraph
Vertex
p255
(dp256
g14
F-66.0
sg15
F71.05263157894737
sg16
I4994168
sg8
I00
sg17
S'106311.765604'
p257
sg19
g23
sbasg24
I00
sg25
I00
sg26
I4993937
sg17
S'106311.917176'
p258
sba(igraph
Edge
p259
(dp260
g7
I1
sg8
I00
sg9
I5
sg10
(lp261
g255
a(igraph
Vertex
p262
(dp263
g14
F-66.0
sg15
F86.84210526315789
sg16
I4994169
sg8
I00
sg17
S'106311.766175'
p264
sg19
g23
sbasg24
I00
sg25
I00
sg26
I4993938
sg17
S'106311.917698'
p265
sba(igraph
Edge
p266
(dp267
g7
I1
sg8
I00
sg9
I5
sg10
(lp268
g262
a(igraph
Vertex
p269
(dp270
g14
F-66.0
sg15
F102.63157894736841
sg16
I4994170
sg8
I00
sg17
S'106311.766761'
p271
sg19
g23
sbasg24
I00
sg25
I00
sg26
I4993939
sg17
S'106311.918233'
p272
sba(igraph
Edge
p273
(dp274
g7
I1
sg8
I00
sg9
I5
sg10
(lp275
g269
a(igraph
Vertex
p276
(dp277
g14
F-66.0
sg15
F118.4210526315789
sg16
I4994171
sg8
I00
sg17
S'106311.76736'
p278
sg19
g23
sbasg24
I00
sg25
I00
sg26
I4993940
sg17
S'106311.918845'
p279
sba(igraph
Edge
p280
(dp281
g7
I1
sg8
I00
sg9
I5
sg10
(lp282
g276
a(igraph
Vertex
p283
(dp284
g14
F-66.0
sg15
F134.21052631578942
sg16
I4994173
sg8
I01
sg17
S'106311.767982'
p285
sg19
I0
sbasg24
I00
sg25
I00
sg26
I4993941
sg17
S'106311.919488'
p286
sba(igraph
Edge
p287
(dp288
g7
I1
sg8
I00
sg9
I5
sg10
(lp289
g283
a(igraph
Vertex
p290
(dp291
g14
F-66.0
sg15
F149.99999999999994
sg16
I4994175
sg8
I00
sg17
S'106311.768621'
p292
sg19
g23
sbasg24
I00
sg25
I00
sg26
I4993942
sg17
S'106311.920077'
p293
sba(igraph
Edge
p294
(dp295
g7
I1
sg8
I00
sg9
I5
sg10
(lp296
g290
ag161
asg24
I00
sg25
I00
sg26
I4993943
sg17
S'106311.920679'
p297
sba(igraph
Edge
p298
(dp299
g7
I1
sg8
I00
sg9
I5
sg10
(lp300
(igraph
Vertex
p301
(dp302
g14
F-33.0
sg15
F-149.99999999999994
sg16
I4994177
sg8
I01
sg17
S'106311.769275'
p303
sg19
I0
sba(igraph
Vertex
p304
(dp305
g14
F-33.0
sg15
F-134.21052631578942
sg16
I4994179
sg8
I00
sg17
S'106311.769946'
p306
sg19
g23
sbasg24
I00
sg25
I00
sg26
I4993944
sg17
S'106311.9213'
p307
sba(igraph
Edge
p308
(dp309
g7
I1
sg8
I00
sg9
I5
sg10
(lp310
g304
a(igraph
Vertex
p311
(dp312
g14
F-33.0
sg15
F-118.42105263157889
sg16
I4994181
sg8
I01
sg17
S'106311.770633'
p313
sg19
I0
sbasg24
I00
sg25
I00
sg26
I4993945
sg17
S'106311.921925'
p314
sba(igraph
Edge
p315
(dp316
g7
I1
sg8
I00
sg9
I5
sg10
(lp317
g311
a(igraph
Vertex
p318
(dp319
g14
F-33.0
sg15
F-102.63157894736837
sg16
I4994183
sg8
I00
sg17
S'106311.771335'
p320
sg19
g23
sbasg24
I00
sg25
I00
sg26
I4993946
sg17
S'106311.92257'
p321
sba(igraph
Edge
p322
(dp323
g7
I1
sg8
I00
sg9
I5
sg10
(lp324
g318
a(igraph
Vertex
p325
(dp326
g14
F-33.0
sg15
F-86.842105263157833
sg16
I4994185
sg8
I01
sg17
S'106311.772058'
p327
sg19
I0
sbasg24
I00
sg25
I00
sg26
I4993947
sg17
S'106311.923256'
p328
sba(igraph
Edge
p329
(dp330
g7
I1
sg8
I00
sg9
I5
sg10
(lp331
g325
a(igraph
Vertex
p332
(dp333
g14
F-33.0
sg15
F-71.052631578947313
sg16
I4994187
sg8
I00
sg17
S'106311.772796'
p334
sg19
g23
sbasg24
I00
sg25
I00
sg26
I4993948
sg17
S'106311.923924'
p335
sba(igraph
Edge
p336
(dp337
g7
I1
sg8
I00
sg9
I5
sg10
(lp338
g332
a(igraph
Vertex
p339
(dp340
g14
F-33.0
sg15
F-55.263157894736793
sg16
I4994189
sg8
I01
sg17
S'106311.773551'
p341
sg19
I0
sbasg24
I00
sg25
I00
sg26
I4993949
sg17
S'106311.92462'
p342
sba(igraph
Edge
p343
(dp344
g7
I1
sg8
I00
sg9
I5
sg10
(lp345
g339
a(igraph
Vertex
p346
(dp347
g14
F-33.0
sg15
F-39.473684210526258
sg16
I4994191
sg8
I00
sg17
S'106311.774334'
p348
sg19
g23
sbasg24
I00
sg25
I00
sg26
I4993950
sg17
S'106311.925336'
p349
sba(igraph
Edge
p350
(dp351
g7
I1
sg8
I00
sg9
I5
sg10
(lp352
g346
a(igraph
Vertex
p353
(dp354
g14
F-33.0
sg15
F-23.684210526315738
sg16
I4994193
sg8
I01
sg17
S'106311.775241'
p355
sg19
I0
sbasg24
I00
sg25
I00
sg26
I4993951
sg17
S'106311.926048'
p356
sba(igraph
Edge
p357
(dp358
g7
I1
sg8
I00
sg9
I5
sg10
(lp359
g353
a(igraph
Vertex
p360
(dp361
g14
F-33.0
sg15
F-7.8947368421052033
sg16
I4994195
sg8
I00
sg17
S'106311.776214'
p362
sg19
g23
sbasg24
I00
sg25
I00
sg26
I4993952
sg17
S'106311.9269'
p363
sba(igraph
Edge
p364
(dp365
g7
I1
sg8
I00
sg9
I5
sg10
(lp366
g360
a(igraph
Vertex
p367
(dp368
g14
F-33.0
sg15
F7.894736842105317
sg16
I4994197
sg8
I01
sg17
S'106311.777123'
p369
sg19
I0
sbasg24
I00
sg25
I00
sg26
I4993953
sg17
S'106311.927686'
p370
sba(igraph
Edge
p371
(dp372
g7
I1
sg8
I00
sg9
I5
sg10
(lp373
g367
a(igraph
Vertex
p374
(dp375
g14
F-33.0
sg15
F23.684210526315866
sg16
I4994199
sg8
I00
sg17
S'106311.777972'
p376
sg19
g23
sbasg24
I00
sg25
I00
sg26
I4993954
sg17
S'106311.928462'
p377
sba(igraph
Edge
p378
(dp379
g7
I1
sg8
I00
sg9
I5
sg10
(lp380
g374
a(igraph
Vertex
p381
(dp382
g14
F-33.0
sg15
F39.473684210526358
sg16
I4994201
sg8
I01
sg17
S'106311.778825'
p383
sg19
I0
sbasg24
I00
sg25
I00
sg26
I4993955
sg17
S'106311.929255'
p384
sba(igraph
Edge
p385
(dp386
g7
I1
sg8
I00
sg9
I5
sg10
(lp387
g381
a(igraph
Vertex
p388
(dp389
g14
F-33.0
sg15
F55.263157894736878
sg16
I4994203
sg8
I00
sg17
S'106311.779686'
p390
sg19
g23
sbasg24
I00
sg25
I00
sg26
I4993956
sg17
S'106311.930061'
p391
sba(igraph
Edge
p392
(dp393
g7
I1
sg8
I00
sg9
I5
sg10
(lp394
g388
a(igraph
Vertex
p395
(dp396
g14
F-33.0
sg15
F71.05263157894737
sg16
I4994205
sg8
I01
sg17
S'106311.780566'
p397
sg19
I0
sbasg24
I00
sg25
I00
sg26
I4993957
sg17
S'106311.930867'
p398
sba(igraph
Edge
p399
(dp400
g7
I1
sg8
I00
sg9
I5
sg10
(lp401
g395
a(igraph
Vertex
p402
(dp403
g14
F-33.0
sg15
F86.84210526315789
sg16
I4994207
sg8
I00
sg17
S'106311.781475'
p404
sg19
g23
sbasg24
I00
sg25
I00
sg26
I4993958
sg17
S'106311.931711'
p405
sba(igraph
Edge
p406
(dp407
g7
I1
sg8
I00
sg9
I5
sg10
(lp408
g402
a(igraph
Vertex
p409
(dp410
g14
F-33.0
sg15
F102.63157894736841
sg16
I4994209
sg8
I01
sg17
S'106311.782397'
p411
sg19
I0
sbasg24
I00
sg25
I00
sg26
I4993959
sg17
S'106311.932579'
p412
sba(igraph
Edge
p413
(dp414
g7
I1
sg8
I00
sg9
I5
sg10
(lp415
g409
a(igraph
Vertex
p416
(dp417
g14
F-33.0
sg15
F118.4210526315789
sg16
I4994211
sg8
I00
sg17
S'106311.783329'
p418
sg19
g23
sbasg24
I00
sg25
I00
sg26
I4993960
sg17
S'106311.933441'
p419
sba(igraph
Edge
p420
(dp421
g7
I1
sg8
I00
sg9
I5
sg10
(lp422
g416
a(igraph
Vertex
p423
(dp424
g14
F-33.0
sg15
F134.21052631578942
sg16
I4994212
sg8
I00
sg17
S'106311.784285'
p425
sg19
g23
sbasg24
I00
sg25
I00
sg26
I4993961
sg17
S'106311.934308'
p426
sba(igraph
Edge
p427
(dp428
g7
I1
sg8
I00
sg9
I5
sg10
(lp429
g423
a(igraph
Vertex
p430
(dp431
g14
F-33.0
sg15
F149.99999999999994
sg16
I4994213
sg8
I00
sg17
S'106311.785259'
p432
sg19
g23
sbasg24
I00
sg25
I00
sg26
I4993962
sg17
S'106311.935213'
p433
sba(igraph
Edge
p434
(dp435
g7
I1
sg8
I00
sg9
I5
sg10
(lp436
g430
ag301
asg24
I00
sg25
I00
sg26
I4993963
sg17
S'106311.936145'
p437
sba(igraph
Edge
p438
(dp439
g7
I1
sg8
I00
sg9
I5
sg10
(lp440
(igraph
Vertex
p441
(dp442
g14
F0.0
sg15
F-149.99999999999994
sg16
I4994214
sg8
I00
sg17
S'106311.786239'
p443
sg19
g23
sba(igraph
Vertex
p444
(dp445
g14
F0.0
sg15
F-134.21052631578942
sg16
I4994215
sg8
I00
sg17
S'106311.787405'
p446
sg19
g23
sbasg24
I00
sg25
I00
sg26
I4993964
sg17
S'106311.937118'
p447
sba(igraph
Edge
p448
(dp449
g7
I1
sg8
I00
sg9
I5
sg10
(lp450
g444
a(igraph
Vertex
p451
(dp452
g14
F0.0
sg15
F-118.42105263157889
sg16
I4994216
sg8
I00
sg17
S'106311.7885'
p453
sg19
g23
sbasg24
I00
sg25
I00
sg26
I4993965
sg17
S'106311.938042'
p454
sba(igraph
Edge
p455
(dp456
g7
I1
sg8
I00
sg9
I5
sg10
(lp457
g451
a(igraph
Vertex
p458
(dp459
g14
F0.0
sg15
F-102.63157894736837
sg16
I4994217
sg8
I00
sg17
S'106311.789553'
p460
sg19
g23
sbasg24
I00
sg25
I00
sg26
I4993966
sg17
S'106311.938971'
p461
sba(igraph
Edge
p462
(dp463
g7
I1
sg8
I00
sg9
I5
sg10
(lp464
g458
a(igraph
Vertex
p465
(dp466
g14
F0.0
sg15
F-86.842105263157833
sg16
I4994218
sg8
I00
sg17
S'106311.790635'
p467
sg19
g23
sbasg24
I00
sg25
I00
sg26
I4993967
sg17
S'106311.939942'
p468
sba(igraph
Edge
p469
(dp470
g7
I1
sg8
I00
sg9
I5
sg10
(lp471
g465
a(igraph
Vertex
p472
(dp473
g14
F0.0
sg15
F-71.052631578947313
sg16
I4994219
sg8
I00
sg17
S'106311.791726'
p474
sg19
g23
sbasg24
I00
sg25
I00
sg26
I4993968
sg17
S'106311.940931'
p475
sba(igraph
Edge
p476
(dp477
g7
I1
sg8
I00
sg9
I5
sg10
(lp478
g472
a(igraph
Vertex
p479
(dp480
g14
F0.0
sg15
F-55.263157894736793
sg16
I4994220
sg8
I00
sg17
S'106311.792921'
p481
sg19
g23
sbasg24
I00
sg25
I00
sg26
I4993969
sg17
S'106311.941929'
p482
sba(igraph
Edge
p483
(dp484
g7
I1
sg8
I00
sg9
I5
sg10
(lp485
g479
a(igraph
Vertex
p486
(dp487
g14
F0.0
sg15
F-39.473684210526258
sg16
I4994221
sg8
I00
sg17
S'106311.794039'
p488
sg19
g23
sbasg24
I00
sg25
I00
sg26
I4993970
sg17
S'106311.942944'
p489
sba(igraph
Edge
p490
(dp491
g7
I1
sg8
I00
sg9
I5
sg10
(lp492
g486
a(igraph
Vertex
p493
(dp494
g14
F0.0
sg15
F-23.684210526315738
sg16
I4994222
sg8
I00
sg17
S'106311.795177'
p495
sg19
g23
sbasg24
I00
sg25
I00
sg26
I4993971
sg17
S'106311.943983'
p496
sba(igraph
Edge
p497
(dp498
g7
I1
sg8
I00
sg9
I5
sg10
(lp499
g493
a(igraph
Vertex
p500
(dp501
g14
F0.0
sg15
F-7.8947368421052033
sg16
I4994223
sg8
I00
sg17
S'106311.796324'
p502
sg19
g23
sbasg24
I00
sg25
I00
sg26
I4993972
sg17
S'106311.945058'
p503
sba(igraph
Edge
p504
(dp505
g7
I1
sg8
I00
sg9
I5
sg10
(lp506
g500
a(igraph
Vertex
p507
(dp508
g14
F0.0
sg15
F7.894736842105317
sg16
I4994224
sg8
I00
sg17
S'106311.797484'
p509
sg19
g23
sbasg24
I00
sg25
I00
sg26
I4993973
sg17
S'106311.946119'
p510
sba(igraph
Edge
p511
(dp512
g7
I1
sg8
I00
sg9
I5
sg10
(lp513
g507
a(igraph
Vertex
p514
(dp515
g14
F0.0
sg15
F23.684210526315866
sg16
I4994225
sg8
I00
sg17
S'106311.798658'
p516
sg19
g23
sbasg24
I00
sg25
I00
sg26
I4993974
sg17
S'106311.947181'
p517
sba(igraph
Edge
p518
(dp519
g7
I1
sg8
I00
sg9
I5
sg10
(lp520
g514
a(igraph
Vertex
p521
(dp522
g14
F0.0
sg15
F39.473684210526358
sg16
I4994226
sg8
I00
sg17
S'106311.799844'
p523
sg19
g23
sbasg24
I00
sg25
I00
sg26
I4993975
sg17
S'106311.9483'
p524
sba(igraph
Edge
p525
(dp526
g7
I1
sg8
I00
sg9
I5
sg10
(lp527
g521
a(igraph
Vertex
p528
(dp529
g14
F0.0
sg15
F55.263157894736878
sg16
I4994227
sg8
I00
sg17
S'106311.801051'
p530
sg19
g23
sbasg24
I00
sg25
I00
sg26
I4993976
sg17
S'106311.949411'
p531
sba(igraph
Edge
p532
(dp533
g7
I1
sg8
I00
sg9
I5
sg10
(lp534
g528
a(igraph
Vertex
p535
(dp536
g14
F0.0
sg15
F71.05263157894737
sg16
I4994228
sg8
I00
sg17
S'106311.802282'
p537
sg19
g23
sbasg24
I00
sg25
I00
sg26
I4993977
sg17
S'106311.950517'
p538
sba(igraph
Edge
p539
(dp540
g7
I1
sg8
I00
sg9
I5
sg10
(lp541
g535
a(igraph
Vertex
p542
(dp543
g14
F0.0
sg15
F86.84210526315789
sg16
I4994229
sg8
I00
sg17
S'106311.803529'
p544
sg19
g23
sbasg24
I00
sg25
I00
sg26
I4993978
sg17
S'106311.951736'
p545
sba(igraph
Edge
p546
(dp547
g7
I1
sg8
I00
sg9
I5
sg10
(lp548
g542
a(igraph
Vertex
p549
(dp550
g14
F0.0
sg15
F102.63157894736841
sg16
I4994230
sg8
I00
sg17
S'106311.804785'
p551
sg19
g23
sbasg24
I00
sg25
I00
sg26
I4993979
sg17
S'106311.952928'
p552
sba(igraph
Edge
p553
(dp554
g7
I1
sg8
I00
sg9
I5
sg10
(lp555
g549
a(igraph
Vertex
p556
(dp557
g14
F0.0
sg15
F118.4210526315789
sg16
I4994231
sg8
I00
sg17
S'106311.806066'
p558
sg19
g23
sbasg24
I00
sg25
I00
sg26
I4993980
sg17
S'106311.954078'
p559
sba(igraph
Edge
p560
(dp561
g7
I1
sg8
I00
sg9
I5
sg10
(lp562
g556
a(igraph
Vertex
p563
(dp564
g14
F0.0
sg15
F134.21052631578942
sg16
I4994233
sg8
I01
sg17
S'106311.807489'
p565
sg19
I0
sbasg24
I00
sg25
I00
sg26
I4993981
sg17
S'106311.955268'
p566
sba(igraph
Edge
p567
(dp568
g7
I1
sg8
I00
sg9
I5
sg10
(lp569
g563
a(igraph
Vertex
p570
(dp571
g14
F0.0
sg15
F149.99999999999994
sg16
I4994235
sg8
I00
sg17
S'106311.808901'
p572
sg19
g23
sbasg24
I00
sg25
I00
sg26
I4993982
sg17
S'106311.956482'
p573
sba(igraph
Edge
p574
(dp575
g7
I1
sg8
I00
sg9
I5
sg10
(lp576
g570
ag441
asg24
I00
sg25
I00
sg26
I4993983
sg17
S'106311.957673'
p577
sba(igraph
Edge
p578
(dp579
g7
I1
sg8
I00
sg9
I5
sg10
(lp580
(igraph
Vertex
p581
(dp582
g14
F33.0
sg15
F-149.99999999999994
sg16
I4994237
sg8
I01
sg17
S'106311.810418'
p583
sg19
I0
sba(igraph
Vertex
p584
(dp585
g14
F33.0
sg15
F-134.21052631578942
sg16
I4994239
sg8
I00
sg17
S'106311.811838'
p586
sg19
g23
sbasg24
I00
sg25
I00
sg26
I4993984
sg17
S'106311.958946'
p587
sba(igraph
Edge
p588
(dp589
g7
I1
sg8
I00
sg9
I5
sg10
(lp590
g584
a(igraph
Vertex
p591
(dp592
g14
F33.0
sg15
F-118.42105263157889
sg16
I4994241
sg8
I01
sg17
S'106311.813314'
p593
sg19
I0
sbasg24
I00
sg25
I00
sg26
I4993985
sg17
S'106311.960184'
p594
sba(igraph
Edge
p595
(dp596
g7
I1
sg8
I00
sg9
I5
sg10
(lp597
g591
a(igraph
Vertex
p598
(dp599
g14
F33.0
sg15
F-102.63157894736837
sg16
I4994243
sg8
I00
sg17
S'106311.814747'
p600
sg19
g23
sbasg24
I00
sg25
I00
sg26
I4993986
sg17
S'106311.961432'
p601
sba(igraph
Edge
p602
(dp603
g7
I1
sg8
I00
sg9
I5
sg10
(lp604
g598
a(igraph
Vertex
p605
(dp606
g14
F33.0
sg15
F-86.842105263157833
sg16
I4994245
sg8
I01
sg17
S'106311.816255'
p607
sg19
I0
sbasg24
I00
sg25
I00
sg26
I4993987
sg17
S'106311.96275'
p608
sba(igraph
Edge
p609
(dp610
g7
I1
sg8
I00
sg9
I5
sg10
(lp611
g605
a(igraph
Vertex
p612
(dp613
g14
F33.0
sg15
F-71.052631578947313
sg16
I4994247
sg8
I00
sg17
S'106311.817728'
p614
sg19
g23
sbasg24
I00
sg25
I00
sg26
I4993988
sg17
S'106311.964301'
p615
sba(igraph
Edge
p616
(dp617
g7
I1
sg8
I00
sg9
I5
sg10
(lp618
g612
a(igraph
Vertex
p619
(dp620
g14
F33.0
sg15
F-55.263157894736793
sg16
I4994249
sg8
I01
sg17
S'106311.819268'
p621
sg19
I0
sbasg24
I00
sg25
I00
sg26
I4993989
sg17
S'106311.965584'
p622
sba(igraph
Edge
p623
(dp624
g7
I1
sg8
I00
sg9
I5
sg10
(lp625
g619
a(igraph
Vertex
p626
(dp627
g14
F33.0
sg15
F-39.473684210526258
sg16
I4994251
sg8
I00
sg17
S'106311.82079'
p628
sg19
g23
sbasg24
I00
sg25
I00
sg26
I4993990
sg17
S'106311.966878'
p629
sba(igraph
Edge
p630
(dp631
g7
I1
sg8
I00
sg9
I5
sg10
(lp632
g626
a(igraph
Vertex
p633
(dp634
g14
F33.0
sg15
F-23.684210526315738
sg16
I4994253
sg8
I01
sg17
S'106311.822286'
p635
sg19
I0
sbasg24
I00
sg25
I00
sg26
I4993991
sg17
S'106311.968215'
p636
sba(igraph
Edge
p637
(dp638
g7
I1
sg8
I00
sg9
I5
sg10
(lp639
g633
a(igraph
Vertex
p640
(dp641
g14
F33.0
sg15
F-7.8947368421052033
sg16
I4994255
sg8
I00
sg17
S'106311.823853'
p642
sg19
g23
sbasg24
I00
sg25
I00
sg26
I4993992
sg17
S'106311.969613'
p643
sba(igraph
Edge
p644
(dp645
g7
I1
sg8
I00
sg9
I5
sg10
(lp646
g640
a(igraph
Vertex
p647
(dp648
g14
F33.0
sg15
F7.894736842105317
sg16
I4994257
sg8
I01
sg17
S'106311.825382'
p649
sg19
I0
sbasg24
I00
sg25
I00
sg26
I4993993
sg17
S'106311.970942'
p650
sba(igraph
Edge
p651
(dp652
g7
I1
sg8
I00
sg9
I5
sg10
(lp653
g647
a(igraph
Vertex
p654
(dp655
g14
F33.0
sg15
F23.684210526315866
sg16
I4994259
sg8
I00
sg17
S'106311.826951'
p656
sg19
g23
sbasg24
I00
sg25
I00
sg26
I4993994
sg17
S'106311.972311'
p657
sba(igraph
Edge
p658
(dp659
g7
I1
sg8
I00
sg9
I5
sg10
(lp660
g654
a(igraph
Vertex
p661
(dp662
g14
F33.0
sg15
F39.473684210526358
sg16
I4994261
sg8
I01
sg17
S'106311.828605'
p663
sg19
I0
sbasg24
I00
sg25
I00
sg26
I4993995
sg17
S'106311.973694'
p664
sba(igraph
Edge
p665
(dp666
g7
I1
sg8
I00
sg9
I5
sg10
(lp667
g661
a(igraph
Vertex
p668
(dp669
g14
F33.0
sg15
F55.263157894736878
sg16
I4994263
sg8
I00
sg17
S'106311.830316'
p670
sg19
g23
sbasg24
I00
sg25
I00
sg26
I4993996
sg17
S'106311.9751'
p671
sba(igraph
Edge
p672
(dp673
g7
I1
sg8
I00
sg9
I5
sg10
(lp674
g668
a(igraph
Vertex
p675
(dp676
g14
F33.0
sg15
F71.05263157894737
sg16
I4994265
sg8
I01
sg17
S'106311.832012'
p677
sg19
I0
sbasg24
I00
sg25
I00
sg26
I4993997
sg17
S'106311.976525'
p678
sba(igraph
Edge
p679
(dp680
g7
I1
sg8
I00
sg9
I5
sg10
(lp681
g675
a(igraph
Vertex
p682
(dp683
g14
F33.0
sg15
F86.84210526315789
sg16
I4994267
sg8
I00
sg17
S'106311.833661'
p684
sg19
g23
sbasg24
I00
sg25
I00
sg26
I4993998
sg17
S'106311.977949'
p685
sba(igraph
Edge
p686
(dp687
g7
I1
sg8
I00
sg9
I5
sg10
(lp688
g682
a(igraph
Vertex
p689
(dp690
g14
F33.0
sg15
F102.63157894736841
sg16
I4994269
sg8
I01
sg17
S'106311.83538'
p691
sg19
I0
sbasg24
I00
sg25
I00
sg26
I4993999
sg17
S'106311.979381'
p692
sba(igraph
Edge
p693
(dp694
g7
I1
sg8
I00
sg9
I5
sg10
(lp695
g689
a(igraph
Vertex
p696
(dp697
g14
F33.0
sg15
F118.4210526315789
sg16
I4994271
sg8
I00
sg17
S'106311.837045'
p698
sg19
g23
sbasg24
I00
sg25
I00
sg26
I4994000
sg17
S'106311.980849'
p699
sba(igraph
Edge
p700
(dp701
g7
I1
sg8
I00
sg9
I5
sg10
(lp702
g696
a(igraph
Vertex
p703
(dp704
g14
F33.0
sg15
F134.21052631578942
sg16
I4994272
sg8
I00
sg17
S'106311.838749'
p705
sg19
g23
sbasg24
I00
sg25
I00
sg26
I4994001
sg17
S'106311.982309'
p706
sba(igraph
Edge
p707
(dp708
g7
I1
sg8
I00
sg9
I5
sg10
(lp709
g703
a(igraph
Vertex
p710
(dp711
g14
F33.0
sg15
F149.99999999999994
sg16
I4994273
sg8
I00
sg17
S'106311.840607'
p712
sg19
g23
sbasg24
I00
sg25
I00
sg26
I4994002
sg17
S'106311.98383'
p713
sba(igraph
Edge
p714
(dp715
g7
I1
sg8
I00
sg9
I5
sg10
(lp716
g710
ag581
asg24
I00
sg25
I00
sg26
I4994003
sg17
S'106311.985332'
p717
sba(igraph
Edge
p718
(dp719
g7
I1
sg8
I00
sg9
I5
sg10
(lp720
(igraph
Vertex
p721
(dp722
g14
F66.0
sg15
F-149.99999999999994
sg16
I4994274
sg8
I00
sg17
S'106311.842346'
p723
sg19
g23
sba(igraph
Vertex
p724
(dp725
g14
F66.0
sg15
F-134.21052631578942
sg16
I4994275
sg8
I00
sg17
S'106311.844129'
p726
sg19
g23
sbasg24
I00
sg25
I00
sg26
I4994004
sg17
S'106311.986875'
p727
sba(igraph
Edge
p728
(dp729
g7
I1
sg8
I00
sg9
I5
sg10
(lp730
g724
a(igraph
Vertex
p731
(dp732
g14
F66.0
sg15
F-118.42105263157889
sg16
I4994276
sg8
I00
sg17
S'106311.845901'
p733
sg19
g23
sbasg24
I00
sg25
I00
sg26
I4994005
sg17
S'106311.988456'
p734
sba(igraph
Edge
p735
(dp736
g7
I1
sg8
I00
sg9
I5
sg10
(lp737
g731
a(igraph
Vertex
p738
(dp739
g14
F66.0
sg15
F-102.63157894736837
sg16
I4994277
sg8
I00
sg17
S'106311.847733'
p740
sg19
g23
sbasg24
I00
sg25
I00
sg26
I4994006
sg17
S'106311.990004'
p741
sba(igraph
Edge
p742
(dp743
g7
I1
sg8
I00
sg9
I5
sg10
(lp744
g738
a(igraph
Vertex
p745
(dp746
g14
F66.0
sg15
F-86.842105263157833
sg16
I4994278
sg8
I00
sg17
S'106311.84955'
p747
sg19
g23
sbasg24
I00
sg25
I00
sg26
I4994007
sg17
S'106311.991645'
p748
sba(igraph
Edge
p749
(dp750
g7
I1
sg8
I00
sg9
I5
sg10
(lp751
g745
a(igraph
Vertex
p752
(dp753
g14
F66.0
sg15
F-71.052631578947313
sg16
I4994279
sg8
I00
sg17
S'106311.851451'
p754
sg19
g23
sbasg24
I00
sg25
I00
sg26
I4994008
sg17
S'106311.993222'
p755
sba(igraph
Edge
p756
(dp757
g7
I1
sg8
I00
sg9
I5
sg10
(lp758
g752
a(igraph
Vertex
p759
(dp760
g14
F66.0
sg15
F-55.263157894736793
sg16
I4994280
sg8
I00
sg17
S'106311.853315'
p761
sg19
g23
sbasg24
I00
sg25
I00
sg26
I4994009
sg17
S'106311.994821'
p762
sba(igraph
Edge
p763
(dp764
g7
I1
sg8
I00
sg9
I5
sg10
(lp765
g759
a(igraph
Vertex
p766
(dp767
g14
F66.0
sg15
F-39.473684210526258
sg16
I4994281
sg8
I00
sg17
S'106311.855202'
p768
sg19
g23
sbasg24
I00
sg25
I00
sg26
I4994010
sg17
S'106311.996463'
p769
sba(igraph
Edge
p770
(dp771
g7
I1
sg8
I00
sg9
I5
sg10
(lp772
g766
a(igraph
Vertex
p773
(dp774
g14
F66.0
sg15
F-23.684210526315738
sg16
I4994282
sg8
I00
sg17
S'106311.857271'
p775
sg19
g23
sbasg24
I00
sg25
I00
sg26
I4994011
sg17
S'106311.998082'
p776
sba(igraph
Edge
p777
(dp778
g7
I1
sg8
I00
sg9
I5
sg10
(lp779
g773
a(igraph
Vertex
p780
(dp781
g14
F66.0
sg15
F-7.8947368421052033
sg16
I4994283
sg8
I00
sg17
S'106311.85918'
p782
sg19
g23
sbasg24
I00
sg25
I00
sg26
I4994012
sg17
S'106311.999745'
p783
sba(igraph
Edge
p784
(dp785
g7
I1
sg8
I00
sg9
I5
sg10
(lp786
g780
a(igraph
Vertex
p787
(dp788
g14
F66.0
sg15
F7.894736842105317
sg16
I4994284
sg8
I00
sg17
S'106311.861401'
p789
sg19
g23
sbasg24
I00
sg25
I00
sg26
I4994013
sg17
S'106312.001416'
p790
sba(igraph
Edge
p791
(dp792
g7
I1
sg8
I00
sg9
I5
sg10
(lp793
g787
a(igraph
Vertex
p794
(dp795
g14
F66.0
sg15
F23.684210526315866
sg16
I4994285
sg8
I00
sg17
S'106311.863485'
p796
sg19
g23
sbasg24
I00
sg25
I00
sg26
I4994014
sg17
S'106312.003091'
p797
sba(igraph
Edge
p798
(dp799
g7
I1
sg8
I00
sg9
I5
sg10
(lp800
g794
a(igraph
Vertex
p801
(dp802
g14
F66.0
sg15
F39.473684210526358
sg16
I4994286
sg8
I00
sg17
S'106311.865513'
p803
sg19
g23
sbasg24
I00
sg25
I00
sg26
I4994015
sg17
S'106312.004793'
p804
sba(igraph
Edge
p805
(dp806
g7
I1
sg8
I00
sg9
I5
sg10
(lp807
g801
a(igraph
Vertex
p808
(dp809
g14
F66.0
sg15
F55.263157894736878
sg16
I4994287
sg8
I00
sg17
S'106311.867473'
p810
sg19
g23
sbasg24
I00
sg25
I00
sg26
I4994016
sg17
S'106312.006541'
p811
sba(igraph
Edge
p812
(dp813
g7
I1
sg8
I00
sg9
I5
sg10
(lp814
g808
a(igraph
Vertex
p815
(dp816
g14
F66.0
sg15
F71.05263157894737
sg16
I4994289
sg8
I01
sg17
S'106311.869557'
p817
sg19
I0
sbasg24
I00
sg25
I00
sg26
I4994017
sg17
S'106312.008278'
p818
sba(igraph
Edge
p819
(dp820
g7
I1
sg8
I00
sg9
I5
sg10
(lp821
g815
a(igraph
Vertex
p822
(dp823
g14
F66.0
sg15
F86.84210526315789
sg16
I4994291
sg8
I00
sg17
S'106311.871604'
p824
sg19
g23
sbasg24
I00
sg25
I00
sg26
I4994018
sg17
S'106312.010018'
p825
sba(igraph
Edge
p826
(dp827
g7
I1
sg8
I00
sg9
I5
sg10
(lp828
g822
a(igraph
Vertex
p829
(dp830
g14
F66.0
sg15
F102.63157894736841
sg16
I4994292
sg8
I00
sg17
S'106311.873759'
p831
sg19
g23
sbasg24
I00
sg25
I00
sg26
I4994019
sg17
S'106312.011775'
p832
sba(igraph
Edge
p833
(dp834
g7
I1
sg8
I00
sg9
I5
sg10
(lp835
g829
a(igraph
Vertex
p836
(dp837
g14
F66.0
sg15
F118.4210526315789
sg16
I4994293
sg8
I00
sg17
S'106311.875835'
p838
sg19
g23
sbasg24
I00
sg25
I00
sg26
I4994020
sg17
S'106312.013524'
p839
sba(igraph
Edge
p840
(dp841
g7
I1
sg8
I00
sg9
I5
sg10
(lp842
g836
a(igraph
Vertex
p843
(dp844
g14
F66.0
sg15
F134.21052631578942
sg16
I4994294
sg8
I00
sg17
S'106311.877957'
p845
sg19
g23
sbasg24
I00
sg25
I00
sg26
I4994021
sg17
S'106312.015335'
p846
sba(igraph
Edge
p847
(dp848
g7
I1
sg8
I00
sg9
I5
sg10
(lp849
g843
a(igraph
Vertex
p850
(dp851
g14
F66.0
sg15
F149.99999999999994
sg16
I4994295
sg8
I00
sg17
S'106311.880285'
p852
sg19
g23
sbasg24
I00
sg25
I00
sg26
I4994022
sg17
S'106312.017135'
p853
sba(igraph
Edge
p854
(dp855
g7
I1
sg8
I00
sg9
I5
sg10
(lp856
g850
ag721
asg24
I00
sg25
I00
sg26
I4994023
sg17
S'106312.019008'
p857
sba(igraph
Edge
p858
(dp859
g7
I1
sg8
I00
sg9
I5
sg10
(lp860
(igraph
Vertex
p861
(dp862
g14
F99.0
sg15
F-149.99999999999994
sg16
I4994296
sg8
I00
sg17
S'106311.882395'
p863
sg19
g23
sba(igraph
Vertex
p864
(dp865
g14
F99.0
sg15
F-134.21052631578942
sg16
I4994298
sg8
I01
sg17
S'106311.884565'
p866
sg19
I0
sbasg24
I00
sg25
I00
sg26
I4994024
sg17
S'106312.020861'
p867
sba(igraph
Edge
p868
(dp869
g7
I1
sg8
I00
sg9
I5
sg10
(lp870
g864
a(igraph
Vertex
p871
(dp872
g14
F99.0
sg15
F-118.42105263157889
sg16
I4994300
sg8
I00
sg17
S'106311.886153'
p873
sg19
g23
sbasg24
I00
sg25
I00
sg26
I4994025
sg17
S'106312.022675'
p874
sba(igraph
Edge
p875
(dp876
g7
I1
sg8
I00
sg9
I5
sg10
(lp877
g871
a(igraph
Vertex
p878
(dp879
g14
F99.0
sg15
F-102.63157894736837
sg16
I4994301
sg8
I00
sg17
S'106311.887233'
p880
sg19
g23
sbasg24
I00
sg25
I00
sg26
I4994026
sg17
S'106312.024672'
p881
sba(igraph
Edge
p882
(dp883
g7
I1
sg8
I00
sg9
I5
sg10
(lp884
g878
a(igraph
Vertex
p885
(dp886
g14
F99.0
sg15
F-86.842105263157833
sg16
I4994302
sg8
I00
sg17
S'106311.888372'
p887
sg19
g23
sbasg24
I00
sg25
I00
sg26
I4994027
sg17
S'106312.026538'
p888
sba(igraph
Edge
p889
(dp890
g7
I1
sg8
I00
sg9
I5
sg10
(lp891
g885
a(igraph
Vertex
p892
(dp893
g14
F99.0
sg15
F-71.052631578947313
sg16
I4994304
sg8
I01
sg17
S'106311.889583'
p894
sg19
I0
sbasg24
I00
sg25
I00
sg26
I4994028
sg17
S'106312.028403'
p895
sba(igraph
Edge
p896
(dp897
g7
I1
sg8
I00
sg9
I5
sg10
(lp898
g892
a(igraph
Vertex
p899
(dp900
g14
F99.0
sg15
F-55.263157894736793
sg16
I4994306
sg8
I00
sg17
S'106311.890764'
p901
sg19
g23
sbasg24
I00
sg25
I00
sg26
I4994029
sg17
S'106312.030299'
p902
sba(igraph
Edge
p903
(dp904
g7
I1
sg8
I00
sg9
I5
sg10
(lp905
g899
a(igraph
Vertex
p906
(dp907
g14
F99.0
sg15
F-39.473684210526258
sg16
I4994307
sg8
I00
sg17
S'106311.891937'
p908
sg19
g23
sbasg24
I00
sg25
I00
sg26
I4994030
sg17
S'106312.032195'
p909
sba(igraph
Edge
p910
(dp911
g7
I1
sg8
I00
sg9
I5
sg10
(lp912
g906
a(igraph
Vertex
p913
(dp914
g14
F99.0
sg15
F-23.684210526315738
sg16
I4994308
sg8
I00
sg17
S'106311.893065'
p915
sg19
g23
sbasg24
I00
sg25
I00
sg26
I4994031
sg17
S'106312.034131'
p916
sba(igraph
Edge
p917
(dp918
g7
I1
sg8
I00
sg9
I5
sg10
(lp919
g913
a(igraph
Vertex
p920
(dp921
g14
F99.0
sg15
F-7.8947368421052033
sg16
I4994310
sg8
I01
sg17
S'106311.894209'
p922
sg19
I0
sbasg24
I00
sg25
I00
sg26
I4994032
sg17
S'106312.036086'
p923
sba(igraph
Edge
p924
(dp925
g7
I1
sg8
I00
sg9
I5
sg10
(lp926
g920
a(igraph
Vertex
p927
(dp928
g14
F99.0
sg15
F7.894736842105317
sg16
I4994312
sg8
I00
sg17
S'106311.895377'
p929
sg19
g23
sbasg24
I00
sg25
I00
sg26
I4994033
sg17
S'106312.038075'
p930
sba(igraph
Edge
p931
(dp932
g7
I1
sg8
I00
sg9
I5
sg10
(lp933
g927
a(igraph
Vertex
p934
(dp935
g14
F99.0
sg15
F23.684210526315866
sg16
I4994313
sg8
I00
sg17
S'106311.896598'
p936
sg19
g23
sbasg24
I00
sg25
I00
sg26
I4994034
sg17
S'106312.040048'
p937
sba(igraph
Edge
p938
(dp939
g7
I1
sg8
I00
sg9
I5
sg10
(lp940
g934
a(igraph
Vertex
p941
(dp942
g14
F99.0
sg15
F39.473684210526358
sg16
I4994314
sg8
I00
sg17
S'106311.897862'
p943
sg19
g23
sbasg24
I00
sg25
I00
sg26
I4994035
sg17
S'106312.042125'
p944
sba(igraph
Edge
p945
(dp946
g7
I1
sg8
I00
sg9
I5
sg10
(lp947
g941
a(igraph
Vertex
p948
(dp949
g14
F99.0
sg15
F55.263157894736878
sg16
I4994316
sg8
I01
sg17
S'106311.899047'
p950
sg19
I0
sbasg24
I00
sg25
I00
sg26
I4994036
sg17
S'106312.044127'
p951
sba(igraph
Edge
p952
(dp953
g7
I1
sg8
I00
sg9
I5
sg10
(lp954
g948
a(igraph
Vertex
p955
(dp956
g14
F99.0
sg15
F71.05263157894737
sg16
I4994318
sg8
I00
sg17
S'106311.900267'
p957
sg19
g23
sbasg24
I00
sg25
I00
sg26
I4994037
sg17
S'106312.04621'
p958
sba(igraph
Edge
p959
(dp960
g7
I1
sg8
I00
sg9
I5
sg10
(lp961
g955
a(igraph
Vertex
p962
(dp963
g14
F99.0
sg15
F86.84210526315789
sg16
I4994319
sg8
I00
sg17
S'106311.901475'
p964
sg19
g23
sbasg24
I00
sg25
I00
sg26
I4994038
sg17
S'106312.048237'
p965
sba(igraph
Edge
p966
(dp967
g7
I1
sg8
I00
sg9
I5
sg10
(lp968
g962
a(igraph
Vertex
p969
(dp970
g14
F99.0
sg15
F102.63157894736841
sg16
I4994320
sg8
I00
sg17
S'106311.902758'
p971
sg19
g23
sbasg24
I00
sg25
I00
sg26
I4994039
sg17
S'106312.050276'
p972
sba(igraph
Edge
p973
(dp974
g7
I1
sg8
I00
sg9
I5
sg10
(lp975
g969
a(igraph
Vertex
p976
(dp977
g14
F99.0
sg15
F118.4210526315789
sg16
I4994322
sg8
I01
sg17
S'106311.904031'
p978
sg19
I0
sbasg24
I00
sg25
I00
sg26
I4994040
sg17
S'106312.052328'
p979
sba(igraph
Edge
p980
(dp981
g7
I1
sg8
I00
sg9
I5
sg10
(lp982
g976
a(igraph
Vertex
p983
(dp984
g14
F99.0
sg15
F134.21052631578942
sg16
I4994324
sg8
I00
sg17
S'106311.905296'
p985
sg19
g23
sbasg24
I00
sg25
I00
sg26
I4994041
sg17
S'106312.054425'
p986
sba(igraph
Edge
p987
(dp988
g7
I1
sg8
I00
sg9
I5
sg10
(lp989
g983
a(igraph
Vertex
p990
(dp991
g14
F99.0
sg15
F149.99999999999994
sg16
I4994325
sg8
I00
sg17
S'106311.906534'
p992
sg19
g23
sbasg24
I00
sg25
I00
sg26
I4994042
sg17
S'106312.056541'
p993
sba(igraph
Edge
p994
(dp995
g7
I1
sg8
I00
sg9
I5
sg10
(lp996
g990
ag861
asg24
I00
sg25
I00
sg26
I4994043
sg17
S'106312.058756'
p997
sba(igraph
Edge
p998
(dp999
g7
I1
sg8
I00
sg9
I5
sg10
(lp1000
g12
ag164
asg24
I00
sg25
I00
sg26
I4994044
sg17
S'106312.061069'
p1001
sba(igraph
Edge
p1002
(dp1003
g7
I1
sg8
I00
sg9
I5
sg10
(lp1004
g31
ag178
asg24
I00
sg25
I00
sg26
I4994045
sg17
S'106312.063253'
p1005
sba(igraph
Edge
p1006
(dp1007
g7
I1
sg8
I00
sg9
I5
sg10
(lp1008
g45
ag192
asg24
I00
sg25
I00
sg26
I4994046
sg17
S'106312.065549'
p1009
sba(igraph
Edge
p1010
(dp1011
g7
I1
sg8
I00
sg9
I5
sg10
(lp1012
g59
ag206
asg24
I00
sg25
I00
sg26
I4994047
sg17
S'106312.067786'
p1013
sba(igraph
Edge
p1014
(dp1015
g7
I1
sg8
I00
sg9
I5
sg10
(lp1016
g73
ag220
asg24
I00
sg25
I00
sg26
I4994048
sg17
S'106312.069994'
p1017
sba(igraph
Edge
p1018
(dp1019
g7
I1
sg8
I00
sg9
I5
sg10
(lp1020
g87
ag234
asg24
I00
sg25
I00
sg26
I4994049
sg17
S'106312.072257'
p1021
sba(igraph
Edge
p1022
(dp1023
g7
I1
sg8
I00
sg9
I5
sg10
(lp1024
g101
ag248
asg24
I00
sg25
I00
sg26
I4994050
sg17
S'106312.07445'
p1025
sba(igraph
Edge
p1026
(dp1027
g7
I1
sg8
I00
sg9
I5
sg10
(lp1028
g115
ag262
asg24
I00
sg25
I00
sg26
I4994051
sg17
S'106312.076719'
p1029
sba(igraph
Edge
p1030
(dp1031
g7
I1
sg8
I00
sg9
I5
sg10
(lp1032
g129
ag276
asg24
I00
sg25
I00
sg26
I4994052
sg17
S'106312.078916'
p1033
sba(igraph
Edge
p1034
(dp1035
g7
I1
sg8
I00
sg9
I5
sg10
(lp1036
g143
ag290
asg24
I00
sg25
I00
sg26
I4994053
sg17
S'106312.081146'
p1037
sba(igraph
Edge
p1038
(dp1039
g7
I1
sg8
I00
sg9
I5
sg10
(lp1040
g20
ag861
asg24
I00
sg25
I00
sg26
I4994054
sg17
S'106312.083401'
p1041
sba(igraph
Edge
p1042
(dp1043
g7
I1
sg8
I00
sg9
I5
sg10
(lp1044
g38
ag871
asg24
I00
sg25
I00
sg26
I4994055
sg17
S'106312.085631'
p1045
sba(igraph
Edge
p1046
(dp1047
g7
I1
sg8
I00
sg9
I5
sg10
(lp1048
g52
ag885
asg24
I00
sg25
I00
sg26
I4994056
sg17
S'106312.088006'
p1049
sba(igraph
Edge
p1050
(dp1051
g7
I1
sg8
I00
sg9
I5
sg10
(lp1052
g66
ag899
asg24
I00
sg25
I00
sg26
I4994057
sg17
S'106312.090352'
p1053
sba(igraph
Edge
p1054
(dp1055
g7
I1
sg8
I00
sg9
I5
sg10
(lp1056
g80
ag913
asg24
I00
sg25
I00
sg26
I4994058
sg17
S'106312.092693'
p1057
sba(igraph
Edge
p1058
(dp1059
g7
I1
sg8
I00
sg9
I5
sg10
(lp1060
g94
ag927
asg24
I00
sg25
I00
sg26
I4994059
sg17
S'106312.095103'
p1061
sba(igraph
Edge
p1062
(dp1063
g7
I1
sg8
I00
sg9
I5
sg10
(lp1064
g108
ag941
asg24
I00
sg25
I00
sg26
I4994060
sg17
S'106312.097436'
p1065
sba(igraph
Edge
p1066
(dp1067
g7
I1
sg8
I00
sg9
I5
sg10
(lp1068
g122
ag955
asg24
I00
sg25
I00
sg26
I4994061
sg17
S'106312.09986'
p1069
sba(igraph
Edge
p1070
(dp1071
g7
I1
sg8
I00
sg9
I5
sg10
(lp1072
g136
ag969
asg24
I00
sg25
I00
sg26
I4994062
sg17
S'106312.102241'
p1073
sba(igraph
Edge
p1074
(dp1075
g7
I1
sg8
I00
sg9
I5
sg10
(lp1076
g150
ag983
asg24
I00
sg25
I00
sg26
I4994063
sg17
S'106312.104649'
p1077
sba(igraph
Edge
p1078
(dp1079
g7
I1
sg8
I00
sg9
I5
sg10
(lp1080
g161
ag304
asg24
I00
sg25
I00
sg26
I4994064
sg17
S'106312.107042'
p1081
sba(igraph
Edge
p1082
(dp1083
g7
I1
sg8
I00
sg9
I5
sg10
(lp1084
g171
ag318
asg24
I00
sg25
I00
sg26
I4994065
sg17
S'106312.109437'
p1085
sba(igraph
Edge
p1086
(dp1087
g7
I1
sg8
I00
sg9
I5
sg10
(lp1088
g185
ag332
asg24
I00
sg25
I00
sg26
I4994066
sg17
S'106312.111883'
p1089
sba(igraph
Edge
p1090
(dp1091
g7
I1
sg8
I00
sg9
I5
sg10
(lp1092
g199
ag346
asg24
I00
sg25
I00
sg26
I4994067
sg17
S'106312.114338'
p1093
sba(igraph
Edge
p1094
(dp1095
g7
I1
sg8
I00
sg9
I5
sg10
(lp1096
g213
ag360
asg24
I00
sg25
I00
sg26
I4994068
sg17
S'106312.116806'
p1097
sba(igraph
Edge
p1098
(dp1099
g7
I1
sg8
I00
sg9
I5
sg10
(lp1100
g227
ag374
asg24
I00
sg25
I00
sg26
I4994069
sg17
S'106312.119281'
p1101
sba(igraph
Edge
p1102
(dp1103
g7
I1
sg8
I00
sg9
I5
sg10
(lp1104
g241
ag388
asg24
I00
sg25
I00
sg26
I4994070
sg17
S'106312.121907'
p1105
sba(igraph
Edge
p1106
(dp1107
g7
I1
sg8
I00
sg9
I5
sg10
(lp1108
g255
ag402
asg24
I00
sg25
I00
sg26
I4994071
sg17
S'106312.124484'
p1109
sba(igraph
Edge
p1110
(dp1111
g7
I1
sg8
I00
sg9
I5
sg10
(lp1112
g269
ag416
asg24
I00
sg25
I00
sg26
I4994072
sg17
S'106312.127179'
p1113
sba(igraph
Edge
p1114
(dp1115
g7
I1
sg8
I00
sg9
I5
sg10
(lp1116
g283
ag430
asg24
I00
sg25
I00
sg26
I4994073
sg17
S'106312.129835'
p1117
sba(igraph
Edge
p1118
(dp1119
g7
I1
sg8
I00
sg9
I5
sg10
(lp1120
g301
ag444
asg24
I00
sg25
I00
sg26
I4994074
sg17
S'106312.132488'
p1121
sba(igraph
Edge
p1122
(dp1123
g7
I1
sg8
I00
sg9
I5
sg10
(lp1124
g311
ag458
asg24
I00
sg25
I00
sg26
I4994075
sg17
S'106312.135081'
p1125
sba(igraph
Edge
p1126
(dp1127
g7
I1
sg8
I00
sg9
I5
sg10
(lp1128
g325
ag472
asg24
I00
sg25
I00
sg26
I4994076
sg17
S'106312.137746'
p1129
sba(igraph
Edge
p1130
(dp1131
g7
I1
sg8
I00
sg9
I5
sg10
(lp1132
g339
ag486
asg24
I00
sg25
I00
sg26
I4994077
sg17
S'106312.140429'
p1133
sba(igraph
Edge
p1134
(dp1135
g7
I1
sg8
I00
sg9
I5
sg10
(lp1136
g353
ag500
asg24
I00
sg25
I00
sg26
I4994078
sg17
S'106312.143047'
p1137
sba(igraph
Edge
p1138
(dp1139
g7
I1
sg8
I00
sg9
I5
sg10
(lp1140
g367
ag514
asg24
I00
sg25
I00
sg26
I4994079
sg17
S'106312.1457'
p1141
sba(igraph
Edge
p1142
(dp1143
g7
I1
sg8
I00
sg9
I5
sg10
(lp1144
g381
ag528
asg24
I00
sg25
I00
sg26
I4994080
sg17
S'106312.148386'
p1145
sba(igraph
Edge
p1146
(dp1147
g7
I1
sg8
I00
sg9
I5
sg10
(lp1148
g395
ag542
asg24
I00
sg25
I00
sg26
I4994081
sg17
S'106312.151026'
p1149
sba(igraph
Edge
p1150
(dp1151
g7
I1
sg8
I00
sg9
I5
sg10
(lp1152
g409
ag556
asg24
I00
sg25
I00
sg26
I4994082
sg17
S'106312.153747'
p1153
sba(igraph
Edge
p1154
(dp1155
g7
I1
sg8
I00
sg9
I5
sg10
(lp1156
g423
ag570
asg24
I00
sg25
I00
sg26
I4994083
sg17
S'106312.156415'
p1157
sba(igraph
Edge
p1158
(dp1159
g7
I1
sg8
I00
sg9
I5
sg10
(lp1160
g441
ag584
asg24
I00
sg25
I00
sg26
I4994084
sg17
S'106312.159136'
p1161
sba(igraph
Edge
p1162
(dp1163
g7
I1
sg8
I00
sg9
I5
sg10
(lp1164
g451
ag598
asg24
I00
sg25
I00
sg26
I4994085
sg17
S'106312.161917'
p1165
sba(igraph
Edge
p1166
(dp1167
g7
I1
sg8
I00
sg9
I5
sg10
(lp1168
g465
ag612
asg24
I00
sg25
I00
sg26
I4994086
sg17
S'106312.164664'
p1169
sba(igraph
Edge
p1170
(dp1171
g7
I1
sg8
I00
sg9
I5
sg10
(lp1172
g479
ag626
asg24
I00
sg25
I00
sg26
I4994087
sg17
S'106312.167471'
p1173
sba(igraph
Edge
p1174
(dp1175
g7
I1
sg8
I00
sg9
I5
sg10
(lp1176
g493
ag640
asg24
I00
sg25
I00
sg26
I4994088
sg17
S'106312.170472'
p1177
sba(igraph
Edge
p1178
(dp1179
g7
I1
sg8
I00
sg9
I5
sg10
(lp1180
g507
ag654
asg24
I00
sg25
I00
sg26
I4994089
sg17
S'106312.173354'
p1181
sba(igraph
Edge
p1182
(dp1183
g7
I1
sg8
I00
sg9
I5
sg10
(lp1184
g521
ag668
asg24
I00
sg25
I00
sg26
I4994090
sg17
S'106312.176152'
p1185
sba(igraph
Edge
p1186
(dp1187
g7
I1
sg8
I00
sg9
I5
sg10
(lp1188
g535
ag682
asg24
I00
sg25
I00
sg26
I4994091
sg17
S'106312.178933'
p1189
sba(igraph
Edge
p1190
(dp1191
g7
I1
sg8
I00
sg9
I5
sg10
(lp1192
g549
ag696
asg24
I00
sg25
I00
sg26
I4994092
sg17
S'106312.181765'
p1193
sba(igraph
Edge
p1194
(dp1195
g7
I1
sg8
I00
sg9
I5
sg10
(lp1196
g563
ag710
asg24
I00
sg25
I00
sg26
I4994093
sg17
S'106312.18463'
p1197
sba(igraph
Edge
p1198
(dp1199
g7
I1
sg8
I00
sg9
I5
sg10
(lp1200
g581
ag724
asg24
I00
sg25
I00
sg26
I4994094
sg17
S'106312.187507'
p1201
sba(igraph
Edge
p1202
(dp1203
g7
I1
sg8
I00
sg9
I5
sg10
(lp1204
g591
ag738
asg24
I00
sg25
I00
sg26
I4994095
sg17
S'106312.191778'
p1205
sba(igraph
Edge
p1206
(dp1207
g7
I1
sg8
I00
sg9
I5
sg10
(lp1208
g605
ag752
asg24
I00
sg25
I00
sg26
I4994096
sg17
S'106312.194783'
p1209
sba(igraph
Edge
p1210
(dp1211
g7
I1
sg8
I00
sg9
I5
sg10
(lp1212
g619
ag766
asg24
I00
sg25
I00
sg26
I4994097
sg17
S'106312.197698'
p1213
sba(igraph
Edge
p1214
(dp1215
g7
I1
sg8
I00
sg9
I5
sg10
(lp1216
g633
ag780
asg24
I00
sg25
I00
sg26
I4994098
sg17
S'106312.200607'
p1217
sba(igraph
Edge
p1218
(dp1219
g7
I1
sg8
I00
sg9
I5
sg10
(lp1220
g647
ag794
asg24
I00
sg25
I00
sg26
I4994099
sg17
S'106312.203814'
p1221
sba(igraph
Edge
p1222
(dp1223
g7
I1
sg8
I00
sg9
I5
sg10
(lp1224
g661
ag808
asg24
I00
sg25
I00
sg26
I4994100
sg17
S'106312.206947'
p1225
sba(igraph
Edge
p1226
(dp1227
g7
I1
sg8
I00
sg9
I5
sg10
(lp1228
g675
ag822
asg24
I00
sg25
I00
sg26
I4994101
sg17
S'106312.210004'
p1229
sba(igraph
Edge
p1230
(dp1231
g7
I1
sg8
I00
sg9
I5
sg10
(lp1232
g689
ag836
asg24
I00
sg25
I00
sg26
I4994102
sg17
S'106312.212972'
p1233
sba(igraph
Edge
p1234
(dp1235
g7
I1
sg8
I00
sg9
I5
sg10
(lp1236
g703
ag850
asg24
I00
sg25
I00
sg26
I4994103
sg17
S'106312.216003'
p1237
sba(igraph
Edge
p1238
(dp1239
g7
I1
sg8
I00
sg9
I5
sg10
(lp1240
g721
ag864
asg24
I00
sg25
I00
sg26
I4994104
sg17
S'106312.219093'
p1241
sba(igraph
Edge
p1242
(dp1243
g7
I1
sg8
I00
sg9
I5
sg10
(lp1244
g731
ag878
asg24
I00
sg25
I00
sg26
I4994105
sg17
S'106312.222234'
p1245
sba(igraph
Edge
p1246
(dp1247
g7
I1
sg8
I00
sg9
I5
sg10
(lp1248
g745
ag892
asg24
I00
sg25
I00
sg26
I4994106
sg17
S'106312.225306'
p1249
sba(igraph
Edge
p1250
(dp1251
g7
I1
sg8
I00
sg9
I5
sg10
(lp1252
g759
ag906
asg24
I00
sg25
I00
sg26
I4994107
sg17
S'106312.22854'
p1253
sba(igraph
Edge
p1254
(dp1255
g7
I1
sg8
I00
sg9
I5
sg10
(lp1256
g773
ag920
asg24
I00
sg25
I00
sg26
I4994108
sg17
S'106312.231619'
p1257
sba(igraph
Edge
p1258
(dp1259
g7
I1
sg8
I00
sg9
I5
sg10
(lp1260
g787
ag934
asg24
I00
sg25
I00
sg26
I4994109
sg17
S'106312.234733'
p1261
sba(igraph
Edge
p1262
(dp1263
g7
I1
sg8
I00
sg9
I5
sg10
(lp1264
g801
ag948
asg24
I00
sg25
I00
sg26
I4994110
sg17
S'106312.237867'
p1265
sba(igraph
Edge
p1266
(dp1267
g7
I1
sg8
I00
sg9
I5
sg10
(lp1268
g815
ag962
asg24
I00
sg25
I00
sg26
I4994111
sg17
S'106312.240992'
p1269
sba(igraph
Edge
p1270
(dp1271
g7
I1
sg8
I00
sg9
I5
sg10
(lp1272
g829
ag976
asg24
I00
sg25
I00
sg26
I4994112
sg17
S'106312.244135'
p1273
sba(igraph
Edge
p1274
(dp1275
g7
I1
sg8
I00
sg9
I5
sg10
(lp1276
g843
ag990
asg24
I00
sg25
I00
sg26
I4994113
sg17
S'106312.247298'
p1277
sbasS'vertices'
p1278
(lp1279
g12
ag20
ag31
ag38
ag45
ag52
ag59
ag66
ag73
ag80
ag87
ag94
ag101
ag108
ag115
ag122
ag129
ag136
ag143
ag150
ag161
ag164
ag171
ag178
ag185
ag192
ag199
ag206
ag213
ag220
ag227
ag234
ag241
ag248
ag255
ag262
ag269
ag276
ag283
ag290
ag301
ag304
ag311
ag318
ag325
ag332
ag339
ag346
ag353
ag360
ag367
ag374
ag381
ag388
ag395
ag402
ag409
ag416
ag423
ag430
ag441
ag444
ag451
ag458
ag465
ag472
ag479
ag486
ag493
ag500
ag507
ag514
ag521
ag528
ag535
ag542
ag549
ag556
ag563
ag570
ag581
ag584
ag591
ag598
ag605
ag612
ag619
ag626
ag633
ag640
ag647
ag654
ag661
ag668
ag675
ag682
ag689
ag696
ag703
ag710
ag721
ag724
ag731
ag738
ag745
ag752
ag759
ag766
ag773
ag780
ag787
ag794
ag801
ag808
ag815
ag822
ag829
ag836
ag843
ag850
ag861
ag864
ag871
ag878
ag885
ag892
ag899
ag906
ag913
ag920
ag927
ag934
ag941
ag948
ag955
ag962
ag969
ag976
ag983
ag990
asS'tags'
p1280
(lp1281
sb.