(igraph
Graph
p0
(dp1
S'labelingConstraints'
p2
I-1
sS'edges'
p3
(lp4
(igraph
Edge
p5
(dp6
S'direction'
p7
I1
sS'selected'
p8
I00
sS'height'
p9
I5
sS'vs'
p10
(lp11
(igraph
Vertex
p12
(dp13
S'xnorm'
p14
F0.10000000000000013
sg8
I00
sS'label'
p15
I0
sS'y'
p16
F-33.0
sS'x'
p17
F-149.99999999999994
sS'circle'
p18
I4453428
sS'id'
p19
S'102192.22605'
p20
sS'ynorm'
p21
F0.29411764705882354
sba(igraph
Vertex
p22
(dp23
g14
F0.13671970624235019
sg8
I00
sg15
S'NULL'
p24
sg16
F-33.0
sg17
F-134.21052631578942
sg18
I4453430
sg19
S'102192.226089'
p25
sg21
F0.29411764705882354
sbasS'wrap'
p26
I00
sS'curved'
p27
I00
sS'line'
p28
I4453347
sg19
S'102192.261661'
p29
sba(igraph
Edge
p30
(dp31
g7
I1
sg8
I00
sg9
I5
sg10
(lp32
g22
a(igraph
Vertex
p33
(dp34
g14
F0.17343941248470027
sg8
I00
sg15
g24
sg16
F-33.0
sg17
F-118.42105263157889
sg18
I4453431
sg19
S'102192.226135'
p35
sg21
F0.29411764705882354
sbasg26
I00
sg27
I00
sg28
I4453348
sg19
S'102192.261761'
p36
sba(igraph
Edge
p37
(dp38
g7
I1
sg8
I00
sg9
I5
sg10
(lp39
g33
a(igraph
Vertex
p40
(dp41
g14
F0.21015911872705031
sg8
I00
sg15
g24
sg16
F-33.0
sg17
F-102.63157894736837
sg18
I4453432
sg19
S'102192.226192'
p42
sg21
F0.29411764705882354
sbasg26
I00
sg27
I00
sg28
I4453349
sg19
S'102192.26197'
p43
sba(igraph
Edge
p44
(dp45
g7
I1
sg8
I00
sg9
I5
sg10
(lp46
g40
a(igraph
Vertex
p47
(dp48
g14
F0.24687882496940039
sg8
I00
sg15
I0
sg16
F-33.0
sg17
F-86.842105263157833
sg18
I4453433
sg19
S'102192.226266'
p49
sg21
F0.29411764705882354
sbasg26
I00
sg27
I00
sg28
I4453350
sg19
S'102192.262136'
p50
sba(igraph
Edge
p51
(dp52
g7
I1
sg8
I00
sg9
I5
sg10
(lp53
g47
a(igraph
Vertex
p54
(dp55
g14
F0.28359853121175044
sg8
I00
sg15
g24
sg16
F-33.0
sg17
F-71.052631578947313
sg18
I4453435
sg19
S'102192.226352'
p56
sg21
F0.29411764705882354
sbasg26
I00
sg27
I00
sg28
I4453351
sg19
S'102192.262329'
p57
sba(igraph
Edge
p58
(dp59
g7
I1
sg8
I00
sg9
I5
sg10
(lp60
g54
a(igraph
Vertex
p61
(dp62
g14
F0.32031823745410049
sg8
I00
sg15
g24
sg16
F-33.0
sg17
F-55.263157894736793
sg18
I4453436
sg19
S'102192.226456'
p63
sg21
F0.29411764705882354
sbasg26
I00
sg27
I00
sg28
I4453352
sg19
S'102192.262554'
p64
sba(igraph
Edge
p65
(dp66
g7
I1
sg8
I00
sg9
I5
sg10
(lp67
g61
a(igraph
Vertex
p68
(dp69
g14
F0.35703794369645059
sg8
I00
sg15
g24
sg16
F-33.0
sg17
F-39.473684210526258
sg18
I4453437
sg19
S'102192.226576'
p70
sg21
F0.29411764705882354
sbasg26
I00
sg27
I00
sg28
I4453353
sg19
S'102192.262881'
p71
sba(igraph
Edge
p72
(dp73
g7
I1
sg8
I00
sg9
I5
sg10
(lp74
g68
a(igraph
Vertex
p75
(dp76
g14
F0.39375764993880064
sg8
I00
sg15
I0
sg16
F-33.0
sg17
F-23.684210526315738
sg18
I4453438
sg19
S'102192.226757'
p77
sg21
F0.29411764705882354
sbasg26
I00
sg27
I00
sg28
I4453354
sg19
S'102192.263176'
p78
sba(igraph
Edge
p79
(dp80
g7
I1
sg8
I00
sg9
I5
sg10
(lp81
g75
a(igraph
Vertex
p82
(dp83
g14
F0.43047735618115068
sg8
I00
sg15
g24
sg16
F-33.0
sg17
F-7.8947368421052033
sg18
I4453440
sg19
S'102192.226912'
p84
sg21
F0.29411764705882354
sbasg26
I00
sg27
I00
sg28
I4453355
sg19
S'102192.263485'
p85
sba(igraph
Edge
p86
(dp87
g7
I1
sg8
I00
sg9
I5
sg10
(lp88
g82
a(igraph
Vertex
p89
(dp90
g14
F0.46719706242350073
sg8
I00
sg15
g24
sg16
F-33.0
sg17
F7.894736842105317
sg18
I4453441
sg19
S'102192.227082'
p91
sg21
F0.29411764705882354
sbasg26
I00
sg27
I00
sg28
I4453356
sg19
S'102192.263839'
p92
sba(igraph
Edge
p93
(dp94
g7
I1
sg8
I00
sg9
I5
sg10
(lp95
g89
a(igraph
Vertex
p96
(dp97
g14
F0.50391676866585089
sg8
I00
sg15
g24
sg16
F-33.0
sg17
F23.684210526315866
sg18
I4453442
sg19
S'102192.227271'
p98
sg21
F0.29411764705882354
sbasg26
I00
sg27
I00
sg28
I4453357
sg19
S'102192.26423'
p99
sba(igraph
Edge
p100
(dp101
g7
I1
sg8
I00
sg9
I5
sg10
(lp102
g96
a(igraph
Vertex
p103
(dp104
g14
F0.54063647490820088
sg8
I00
sg15
I0
sg16
F-33.0
sg17
F39.473684210526358
sg18
I4453443
sg19
S'102192.227477'
p105
sg21
F0.29411764705882354
sbasg26
I00
sg27
I00
sg28
I4453358
sg19
S'102192.264639'
p106
sba(igraph
Edge
p107
(dp108
g7
I1
sg8
I00
sg9
I5
sg10
(lp109
g103
a(igraph
Vertex
p110
(dp111
g14
F0.57735618115055087
sg8
I00
sg15
g24
sg16
F-33.0
sg17
F55.263157894736878
sg18
I4453445
sg19
S'102192.227749'
p112
sg21
F0.29411764705882354
sbasg26
I00
sg27
I00
sg28
I4453359
sg19
S'102192.265165'
p113
sba(igraph
Edge
p114
(dp115
g7
I1
sg8
I00
sg9
I5
sg10
(lp116
g110
a(igraph
Vertex
p117
(dp118
g14
F0.61407588739290098
sg8
I00
sg15
g24
sg16
F-33.0
sg17
F71.05263157894737
sg18
I4453446
sg19
S'102192.22799'
p119
sg21
F0.29411764705882354
sbasg26
I00
sg27
I00
sg28
I4453360
sg19
S'102192.265638'
p120
sba(igraph
Edge
p121
(dp122
g7
I1
sg8
I00
sg9
I5
sg10
(lp123
g117
a(igraph
Vertex
p124
(dp125
g14
F0.65079559363525097
sg8
I00
sg15
g24
sg16
F-33.0
sg17
F86.84210526315789
sg18
I4453447
sg19
S'102192.228248'
p126
sg21
F0.29411764705882354
sbasg26
I00
sg27
I00
sg28
I4453361
sg19
S'102192.266259'
p127
sba(igraph
Edge
p128
(dp129
g7
I1
sg8
I00
sg9
I5
sg10
(lp130
g124
a(igraph
Vertex
p131
(dp132
g14
F0.68751529987760107
sg8
I00
sg15
I0
sg16
F-33.0
sg17
F102.63157894736841
sg18
I4453448
sg19
S'102192.228521'
p133
sg21
F0.29411764705882354
sbasg26
I00
sg27
I00
sg28
I4453362
sg19
S'102192.266817'
p134
sba(igraph
Edge
p135
(dp136
g7
I1
sg8
I00
sg9
I5
sg10
(lp137
g131
a(igraph
Vertex
p138
(dp139
g14
F0.72423500611995095
sg8
I00
sg15
g24
sg16
F-33.0
sg17
F118.4210526315789
sg18
I4453450
sg19
S'102192.228819'
p140
sg21
F0.29411764705882354
sbasg26
I00
sg27
I00
sg28
I4453363
sg19
S'102192.267395'
p141
sba(igraph
Edge
p142
(dp143
g7
I1
sg8
I00
sg9
I5
sg10
(lp144
(igraph
Vertex
p145
(dp146
g14
F0.10000000000000013
sg8
I00
sg15
g24
sg16
F0.0
sg17
F-149.99999999999994
sg18
I4453451
sg19
S'102192.23074'
p147
sg21
F0.45588235294117646
sba(igraph
Vertex
p148
(dp149
g14
F0.13671970624235019
sg8
I00
sg15
g24
sg16
F0.0
sg17
F-134.21052631578942
sg18
I4453452
sg19
S'102192.231117'
p150
sg21
F0.45588235294117646
sbasg26
I00
sg27
I00
sg28
I4453364
sg19
S'102192.270216'
p151
sba(igraph
Edge
p152
(dp153
g7
I1
sg8
I00
sg9
I5
sg10
(lp154
g148
a(igraph
Vertex
p155
(dp156
g14
F0.17343941248470027
sg8
I00
sg15
I0
sg16
F0.0
sg17
F-118.42105263157889
sg18
I4453453
sg19
S'102192.231506'
p157
sg21
F0.45588235294117646
sbasg26
I00
sg27
I00
sg28
I4453365
sg19
S'102192.270984'
p158
sba(igraph
Edge
p159
(dp160
g7
I1
sg8
I00
sg9
I5
sg10
(lp161
g155
a(igraph
Vertex
p162
(dp163
g14
F0.21015911872705031
sg8
I00
sg15
g24
sg16
F0.0
sg17
F-102.63157894736837
sg18
I4453455
sg19
S'102192.231904'
p164
sg21
F0.45588235294117646
sbasg26
I00
sg27
I00
sg28
I4453366
sg19
S'102192.271835'
p165
sba(igraph
Edge
p166
(dp167
g7
I1
sg8
I00
sg9
I5
sg10
(lp168
g162
a(igraph
Vertex
p169
(dp170
g14
F0.24687882496940039
sg8
I00
sg15
g24
sg16
F0.0
sg17
F-86.842105263157833
sg18
I4453456
sg19
S'102192.232314'
p171
sg21
F0.45588235294117646
sbasg26
I00
sg27
I00
sg28
I4453367
sg19
S'102192.272641'
p172
sba(igraph
Edge
p173
(dp174
g7
I1
sg8
I00
sg9
I5
sg10
(lp175
g169
a(igraph
Vertex
p176
(dp177
g14
F0.28359853121175044
sg8
I00
sg15
g24
sg16
F0.0
sg17
F-71.052631578947313
sg18
I4453457
sg19
S'102192.232816'
p178
sg21
F0.45588235294117646
sbasg26
I00
sg27
I00
sg28
I4453368
sg19
S'102192.27347'
p179
sba(igraph
Edge
p180
(dp181
g7
I1
sg8
I00
sg9
I5
sg10
(lp182
g176
a(igraph
Vertex
p183
(dp184
g14
F0.32031823745410049
sg8
I00
sg15
I0
sg16
F0.0
sg17
F-55.263157894736793
sg18
I4453458
sg19
S'102192.233263'
p185
sg21
F0.45588235294117646
sbasg26
I00
sg27
I00
sg28
I4453369
sg19
S'102192.27433'
p186
sba(igraph
Edge
p187
(dp188
g7
I1
sg8
I00
sg9
I5
sg10
(lp189
g183
a(igraph
Vertex
p190
(dp191
g14
F0.35703794369645059
sg8
I00
sg15
g24
sg16
F0.0
sg17
F-39.473684210526258
sg18
I4453460
sg19
S'102192.233738'
p192
sg21
F0.45588235294117646
sbasg26
I00
sg27
I00
sg28
I4453370
sg19
S'102192.275306'
p193
sba(igraph
Edge
p194
(dp195
g7
I1
sg8
I00
sg9
I5
sg10
(lp196
g190
a(igraph
Vertex
p197
(dp198
g14
F0.39375764993880064
sg8
I00
sg15
g24
sg16
F0.0
sg17
F-23.684210526315738
sg18
I4453461
sg19
S'102192.234229'
p199
sg21
F0.45588235294117646
sbasg26
I00
sg27
I00
sg28
I4453371
sg19
S'102192.276237'
p200
sba(igraph
Edge
p201
(dp202
g7
I1
sg8
I00
sg9
I5
sg10
(lp203
g197
a(igraph
Vertex
p204
(dp205
g14
F0.43047735618115068
sg8
I00
sg15
g24
sg16
F0.0
sg17
F-7.8947368421052033
sg18
I4453462
sg19
S'102192.234734'
p206
sg21
F0.45588235294117646
sbasg26
I00
sg27
I00
sg28
I4453372
sg19
S'102192.277194'
p207
sba(igraph
Edge
p208
(dp209
g7
I1
sg8
I00
sg9
I5
sg10
(lp210
g204
a(igraph
Vertex
p211
(dp212
g14
F0.46719706242350073
sg8
I00
sg15
I0
sg16
F0.0
sg17
F7.894736842105317
sg18
I4453463
sg19
S'102192.235249'
p213
sg21
F0.45588235294117646
sbasg26
I00
sg27
I00
sg28
I4453373
sg19
S'102192.278346'
p214
sba(igraph
Edge
p215
(dp216
g7
I1
sg8
I00
sg9
I5
sg10
(lp217
g211
a(igraph
Vertex
p218
(dp219
g14
F0.50391676866585089
sg8
I00
sg15
g24
sg16
F0.0
sg17
F23.684210526315866
sg18
I4453465
sg19
S'102192.235866'
p220
sg21
F0.45588235294117646
sbasg26
I00
sg27
I00
sg28
I4453374
sg19
S'102192.27946'
p221
sba(igraph
Edge
p222
(dp223
g7
I1
sg8
I00
sg9
I5
sg10
(lp224
g218
a(igraph
Vertex
p225
(dp226
g14
F0.54063647490820088
sg8
I00
sg15
g24
sg16
F0.0
sg17
F39.473684210526358
sg18
I4453466
sg19
S'102192.236506'
p227
sg21
F0.45588235294117646
sbasg26
I00
sg27
I00
sg28
I4453375
sg19
S'102192.28054'
p228
sba(igraph
Edge
p229
(dp230
g7
I1
sg8
I00
sg9
I5
sg10
(lp231
g225
a(igraph
Vertex
p232
(dp233
g14
F0.57735618115055087
sg8
I00
sg15
g24
sg16
F0.0
sg17
F55.263157894736878
sg18
I4453467
sg19
S'102192.237157'
p234
sg21
F0.45588235294117646
sbasg26
I00
sg27
I00
sg28
I4453376
sg19
S'102192.281651'
p235
sba(igraph
Edge
p236
(dp237
g7
I1
sg8
I00
sg9
I5
sg10
(lp238
g232
a(igraph
Vertex
p239
(dp240
g14
F0.61407588739290098
sg8
I00
sg15
I0
sg16
F0.0
sg17
F71.05263157894737
sg18
I4453468
sg19
S'102192.237742'
p241
sg21
F0.45588235294117646
sbasg26
I00
sg27
I00
sg28
I4453377
sg19
S'102192.282878'
p242
sba(igraph
Edge
p243
(dp244
g7
I1
sg8
I00
sg9
I5
sg10
(lp245
g239
a(igraph
Vertex
p246
(dp247
g14
F0.65079559363525097
sg8
I00
sg15
g24
sg16
F0.0
sg17
F86.84210526315789
sg18
I4453470
sg19
S'102192.238338'
p248
sg21
F0.45588235294117646
sbasg26
I00
sg27
I00
sg28
I4453378
sg19
S'102192.284062'
p249
sba(igraph
Edge
p250
(dp251
g7
I1
sg8
I00
sg9
I5
sg10
(lp252
g246
a(igraph
Vertex
p253
(dp254
g14
F0.68751529987760107
sg8
I00
sg15
g24
sg16
F0.0
sg17
F102.63157894736841
sg18
I4453471
sg19
S'102192.23919'
p255
sg21
F0.45588235294117646
sbasg26
I00
sg27
I00
sg28
I4453379
sg19
S'102192.285305'
p256
sba(igraph
Edge
p257
(dp258
g7
I1
sg8
I00
sg9
I5
sg10
(lp259
g253
a(igraph
Vertex
p260
(dp261
g14
F0.72423500611995095
sg8
I00
sg15
g24
sg16
F0.0
sg17
F118.4210526315789
sg18
I4453472
sg19
S'102192.239834'
p262
sg21
F0.45588235294117646
sbasg26
I00
sg27
I00
sg28
I4453380
sg19
S'102192.286541'
p263
sba(igraph
Edge
p264
(dp265
g7
I1
sg8
I00
sg9
I5
sg10
(lp266
(igraph
Vertex
p267
(dp268
g14
F0.10000000000000013
sg8
I00
sg15
g24
sg16
F33.0
sg17
F-149.99999999999994
sg18
I4453473
sg19
S'102192.241833'
p269
sg21
F0.61764705882352944
sba(igraph
Vertex
p270
(dp271
g14
F0.13671970624235019
sg8
I00
sg15
I0
sg16
F33.0
sg17
F-134.21052631578942
sg18
I4453474
sg19
S'102192.243075'
p272
sg21
F0.61764705882352944
sbasg26
I00
sg27
I00
sg28
I4453381
sg19
S'102192.291958'
p273
sba(igraph
Edge
p274
(dp275
g7
I1
sg8
I00
sg9
I5
sg10
(lp276
g270
a(igraph
Vertex
p277
(dp278
g14
F0.17343941248470027
sg8
I00
sg15
g24
sg16
F33.0
sg17
F-118.42105263157889
sg18
I4453476
sg19
S'102192.243829'
p279
sg21
F0.61764705882352944
sbasg26
I00
sg27
I00
sg28
I4453382
sg19
S'102192.293397'
p280
sba(igraph
Edge
p281
(dp282
g7
I1
sg8
I00
sg9
I5
sg10
(lp283
g277
a(igraph
Vertex
p284
(dp285
g14
F0.21015911872705031
sg8
I00
sg15
g24
sg16
F33.0
sg17
F-102.63157894736837
sg18
I4453477
sg19
S'102192.244571'
p286
sg21
F0.61764705882352944
sbasg26
I00
sg27
I00
sg28
I4453383
sg19
S'102192.29485'
p287
sba(igraph
Edge
p288
(dp289
g7
I1
sg8
I00
sg9
I5
sg10
(lp290
g284
a(igraph
Vertex
p291
(dp292
g14
F0.24687882496940039
sg8
I00
sg15
g24
sg16
F33.0
sg17
F-86.842105263157833
sg18
I4453478
sg19
S'102192.245393'
p293
sg21
F0.61764705882352944
sbasg26
I00
sg27
I00
sg28
I4453384
sg19
S'102192.296372'
p294
sba(igraph
Edge
p295
(dp296
g7
I1
sg8
I00
sg9
I5
sg10
(lp297
g291
a(igraph
Vertex
p298
(dp299
g14
F0.28359853121175044
sg8
I00
sg15
I0
sg16
F33.0
sg17
F-71.052631578947313
sg18
I4453479
sg19
S'102192.246203'
p300
sg21
F0.61764705882352944
sbasg26
I00
sg27
I00
sg28
I4453385
sg19
S'102192.297866'
p301
sba(igraph
Edge
p302
(dp303
g7
I1
sg8
I00
sg9
I5
sg10
(lp304
g298
a(igraph
Vertex
p305
(dp306
g14
F0.32031823745410049
sg8
I00
sg15
g24
sg16
F33.0
sg17
F-55.263157894736793
sg18
I4453481
sg19
S'102192.247026'
p307
sg21
F0.61764705882352944
sbasg26
I00
sg27
I00
sg28
I4453386
sg19
S'102192.299465'
p308
sba(igraph
Edge
p309
(dp310
g7
I1
sg8
I00
sg9
I5
sg10
(lp311
g305
a(igraph
Vertex
p312
(dp313
g14
F0.35703794369645059
sg8
I00
sg15
g24
sg16
F33.0
sg17
F-39.473684210526258
sg18
I4453482
sg19
S'102192.247922'
p314
sg21
F0.61764705882352944
sbasg26
I00
sg27
I00
sg28
I4453387
sg19
S'102192.301109'
p315
sba(igraph
Edge
p316
(dp317
g7
I1
sg8
I00
sg9
I5
sg10
(lp318
g312
a(igraph
Vertex
p319
(dp320
g14
F0.39375764993880064
sg8
I00
sg15
g24
sg16
F33.0
sg17
F-23.684210526315738
sg18
I4453483
sg19
S'102192.248865'
p321
sg21
F0.61764705882352944
sbasg26
I00
sg27
I00
sg28
I4453388
sg19
S'102192.302945'
p322
sba(igraph
Edge
p323
(dp324
g7
I1
sg8
I00
sg9
I5
sg10
(lp325
g319
a(igraph
Vertex
p326
(dp327
g14
F0.43047735618115068
sg8
I00
sg15
I0
sg16
F33.0
sg17
F-7.8947368421052033
sg18
I4453484
sg19
S'102192.249726'
p328
sg21
F0.61764705882352944
sbasg26
I00
sg27
I00
sg28
I4453389
sg19
S'102192.304568'
p329
sba(igraph
Edge
p330
(dp331
g7
I1
sg8
I00
sg9
I5
sg10
(lp332
g326
a(igraph
Vertex
p333
(dp334
g14
F0.46719706242350073
sg8
I00
sg15
g24
sg16
F33.0
sg17
F7.894736842105317
sg18
I4453486
sg19
S'102192.250598'
p335
sg21
F0.61764705882352944
sbasg26
I00
sg27
I00
sg28
I4453390
sg19
S'102192.306271'
p336
sba(igraph
Edge
p337
(dp338
g7
I1
sg8
I00
sg9
I5
sg10
(lp339
g333
a(igraph
Vertex
p340
(dp341
g14
F0.50391676866585089
sg8
I00
sg15
g24
sg16
F33.0
sg17
F23.684210526315866
sg18
I4453487
sg19
S'102192.251634'
p342
sg21
F0.61764705882352944
sbasg26
I00
sg27
I00
sg28
I4453391
sg19
S'102192.308023'
p343
sba(igraph
Edge
p344
(dp345
g7
I1
sg8
I00
sg9
I5
sg10
(lp346
g340
a(igraph
Vertex
p347
(dp348
g14
F0.54063647490820088
sg8
I00
sg15
g24
sg16
F33.0
sg17
F39.473684210526358
sg18
I4453488
sg19
S'102192.252606'
p349
sg21
F0.61764705882352944
sbasg26
I00
sg27
I00
sg28
I4453392
sg19
S'102192.309701'
p350
sba(igraph
Edge
p351
(dp352
g7
I1
sg8
I00
sg9
I5
sg10
(lp353
g347
a(igraph
Vertex
p354
(dp355
g14
F0.57735618115055087
sg8
I00
sg15
I0
sg16
F33.0
sg17
F55.263157894736878
sg18
I4453489
sg19
S'102192.253716'
p356
sg21
F0.61764705882352944
sbasg26
I00
sg27
I00
sg28
I4453393
sg19
S'102192.311487'
p357
sba(igraph
Edge
p358
(dp359
g7
I1
sg8
I00
sg9
I5
sg10
(lp360
g354
a(igraph
Vertex
p361
(dp362
g14
F0.61407588739290098
sg8
I00
sg15
g24
sg16
F33.0
sg17
F71.05263157894737
sg18
I4453491
sg19
S'102192.254888'
p363
sg21
F0.61764705882352944
sbasg26
I00
sg27
I00
sg28
I4453394
sg19
S'102192.313347'
p364
sba(igraph
Edge
p365
(dp366
g7
I1
sg8
I00
sg9
I5
sg10
(lp367
g361
a(igraph
Vertex
p368
(dp369
g14
F0.65079559363525097
sg8
I00
sg15
g24
sg16
F33.0
sg17
F86.84210526315789
sg18
I4453492
sg19
S'102192.255952'
p370
sg21
F0.61764705882352944
sbasg26
I00
sg27
I00
sg28
I4453395
sg19
S'102192.317667'
p371
sba(igraph
Edge
p372
(dp373
g7
I1
sg8
I00
sg9
I5
sg10
(lp374
g368
a(igraph
Vertex
p375
(dp376
g14
F0.68751529987760107
sg8
I00
sg15
g24
sg16
F33.0
sg17
F102.63157894736841
sg18
I4453493
sg19
S'102192.256997'
p377
sg21
F0.61764705882352944
sbasg26
I00
sg27
I00
sg28
I4453396
sg19
S'102192.319824'
p378
sba(igraph
Edge
p379
(dp380
g7
I1
sg8
I00
sg9
I5
sg10
(lp381
g375
a(igraph
Vertex
p382
(dp383
g14
F0.72423500611995095
sg8
I00
sg15
I0
sg16
F33.0
sg17
F118.4210526315789
sg18
I4453494
sg19
S'102192.258373'
p384
sg21
F0.61764705882352944
sbasg26
I00
sg27
I00
sg28
I4453397
sg19
S'102192.32172'
p385
sba(igraph
Edge
p386
(dp387
g7
I1
sg8
I00
sg9
I5
sg10
(lp388
g12
ag148
asg26
I00
sg27
I00
sg28
I4453398
sg19
S'102192.330603'
p389
sba(igraph
Edge
p390
(dp391
g7
I1
sg8
I00
sg9
I5
sg10
(lp392
g33
ag162
asg26
I00
sg27
I00
sg28
I4453399
sg19
S'102192.332654'
p393
sba(igraph
Edge
p394
(dp395
g7
I1
sg8
I00
sg9
I5
sg10
(lp396
g47
ag176
asg26
I00
sg27
I00
sg28
I4453400
sg19
S'102192.334752'
p397
sba(igraph
Edge
p398
(dp399
g7
I1
sg8
I00
sg9
I5
sg10
(lp400
g61
ag190
asg26
I00
sg27
I00
sg28
I4453401
sg19
S'102192.336921'
p401
sba(igraph
Edge
p402
(dp403
g7
I1
sg8
I00
sg9
I5
sg10
(lp404
g75
ag204
asg26
I00
sg27
I00
sg28
I4453402
sg19
S'102192.339133'
p405
sba(igraph
Edge
p406
(dp407
g7
I1
sg8
I00
sg9
I5
sg10
(lp408
g89
ag218
asg26
I00
sg27
I00
sg28
I4453403
sg19
S'102192.341387'
p409
sba(igraph
Edge
p410
(dp411
g7
I1
sg8
I00
sg9
I5
sg10
(lp412
g103
ag232
asg26
I00
sg27
I00
sg28
I4453404
sg19
S'102192.343632'
p413
sba(igraph
Edge
p414
(dp415
g7
I1
sg8
I00
sg9
I5
sg10
(lp416
g117
ag246
asg26
I00
sg27
I00
sg28
I4453405
sg19
S'102192.345981'
p417
sba(igraph
Edge
p418
(dp419
g7
I1
sg8
I00
sg9
I5
sg10
(lp420
g131
ag260
asg26
I00
sg27
I00
sg28
I4453406
sg19
S'102192.348583'
p421
sba(igraph
Edge
p422
(dp423
g7
I1
sg8
I00
sg9
I5
sg10
(lp424
g22
ag267
asg26
I00
sg27
I00
sg28
I4453407
sg19
S'102192.356757'
p425
sba(igraph
Edge
p426
(dp427
g7
I1
sg8
I00
sg9
I5
sg10
(lp428
g40
ag277
asg26
I00
sg27
I00
sg28
I4453408
sg19
S'102192.359261'
p429
sba(igraph
Edge
p430
(dp431
g7
I1
sg8
I00
sg9
I5
sg10
(lp432
g54
ag291
asg26
I00
sg27
I00
sg28
I4453409
sg19
S'102192.361697'
p433
sba(igraph
Edge
p434
(dp435
g7
I1
sg8
I00
sg9
I5
sg10
(lp436
g68
ag305
asg26
I00
sg27
I00
sg28
I4453410
sg19
S'102192.364228'
p437
sba(igraph
Edge
p438
(dp439
g7
I1
sg8
I00
sg9
I5
sg10
(lp440
g82
ag319
asg26
I00
sg27
I00
sg28
I4453411
sg19
S'102192.367063'
p441
sba(igraph
Edge
p442
(dp443
g7
I1
sg8
I00
sg9
I5
sg10
(lp444
g96
ag333
asg26
I00
sg27
I00
sg28
I4453412
sg19
S'102192.369605'
p445
sba(igraph
Edge
p446
(dp447
g7
I1
sg8
I00
sg9
I5
sg10
(lp448
g110
ag347
asg26
I00
sg27
I00
sg28
I4453413
sg19
S'102192.372412'
p449
sba(igraph
Edge
p450
(dp451
g7
I1
sg8
I00
sg9
I5
sg10
(lp452
g124
ag361
asg26
I00
sg27
I00
sg28
I4453414
sg19
S'102192.374972'
p453
sba(igraph
Edge
p454
(dp455
g7
I1
sg8
I00
sg9
I5
sg10
(lp456
g138
ag375
asg26
I00
sg27
I00
sg28
I4453415
sg19
S'102192.378021'
p457
sba(igraph
Edge
p458
(dp459
g7
I1
sg8
I00
sg9
I5
sg10
(lp460
g145
ag270
asg26
I00
sg27
I00
sg28
I4453416
sg19
S'102192.382748'
p461
sba(igraph
Edge
p462
(dp463
g7
I1
sg8
I00
sg9
I5
sg10
(lp464
g155
ag284
asg26
I00
sg27
I00
sg28
I4453417
sg19
S'102192.38405'
p465
sba(igraph
Edge
p466
(dp467
g7
I1
sg8
I00
sg9
I5
sg10
(lp468
g169
ag298
asg26
I00
sg27
I00
sg28
I4453418
sg19
S'102192.385277'
p469
sba(igraph
Edge
p470
(dp471
g7
I1
sg8
I00
sg9
I5
sg10
(lp472
g183
ag312
asg26
I00
sg27
I00
sg28
I4453419
sg19
S'102192.386545'
p473
sba(igraph
Edge
p474
(dp475
g7
I1
sg8
I00
sg9
I5
sg10
(lp476
g197
ag326
asg26
I00
sg27
I00
sg28
I4453420
sg19
S'102192.387958'
p477
sba(igraph
Edge
p478
(dp479
g7
I1
sg8
I00
sg9
I5
sg10
(lp480
g211
ag340
asg26
I00
sg27
I00
sg28
I4453421
sg19
S'102192.389251'
p481
sba(igraph
Edge
p482
(dp483
g7
I1
sg8
I00
sg9
I5
sg10
(lp484
g225
ag354
asg26
I00
sg27
I00
sg28
I4453422
sg19
S'102192.390603'
p485
sba(igraph
Edge
p486
(dp487
g7
I1
sg8
I00
sg9
I5
sg10
(lp488
g239
ag368
asg26
I00
sg27
I00
sg28
I4453423
sg19
S'102192.392303'
p489
sba(igraph
Edge
p490
(dp491
g7
I1
sg8
I00
sg9
I5
sg10
(lp492
g253
ag382
asg26
I00
sg27
I00
sg28
I4453424
sg19
S'102192.393653'
p493
sba(igraph
Edge
p494
(dp495
g7
I1
sg8
I00
sg9
I5
sg10
(lp496
g267
ag382
asg26
I00
sg27
I00
sg28
I4453425
sg19
S'102630.872022'
p497
sba(igraph
Edge
p498
(dp499
g7
I1
sg8
I00
sg9
I5
sg10
(lp500
g145
ag260
asg26
I00
sg27
I00
sg28
I4453426
sg19
S'102634.357149'
p501
sba(igraph
Edge
p502
(dp503
g7
I1
sg8
I00
sg9
I5
sg10
(lp504
g12
ag138
asg26
I00
sg27
I00
sg28
I4453427
sg19
S'102639.659415'
p505
sbasS'vertices'
p506
(lp507
g12
ag22
ag33
ag40
ag47
ag54
ag61
ag68
ag75
ag82
ag89
ag96
ag103
ag110
ag117
ag124
ag131
ag138
ag145
ag148
ag155
ag162
ag169
ag176
ag183
ag190
ag197
ag204
ag211
ag218
ag225
ag232
ag239
ag246
ag253
ag260
ag267
ag270
ag277
ag284
ag291
ag298
ag305
ag312
ag319
ag326
ag333
ag340
ag347
ag354
ag361
ag368
ag375
ag382
asS'tags'
p508
(lp509
sb.