(igraph
Graph
p0
(dp1
S'labelingConstraints'
p2
I-1
sS'edges'
p3
(lp4
(igraph
Edge
p5
(dp6
S'direction'
p7
I1
sS'selected'
p8
I00
sS'height'
p9
I5
sS'vs'
p10
(lp11
(igraph
Vertex
p12
(dp13
S'xnorm'
p14
F0.11764705882352942
sg8
I00
sS'label'
p15
S'NULL'
p16
sS'y'
p17
F-179.0
sS'x'
p18
F-104.23529411764704
sS'circle'
p19
I104013
sS'id'
p20
S'39.4379408556'
p21
sS'ynorm'
p22
F0.0
sba(igraph
Vertex
p23
(dp24
g14
F0.1764705882352941
sg8
I00
sg15
g16
sg17
F-179.0
sg18
F-81.352941176470594
sg19
I104014
sg20
S'39.4379687921'
p25
sg22
F0.0
sbasS'wrap'
p26
I00
sS'curved'
p27
I00
sS'line'
p28
I103965
sg20
S'39.4731665617'
p29
sba(igraph
Edge
p30
(dp31
g7
I1
sg8
I00
sg9
I5
sg10
(lp32
g23
a(igraph
Vertex
p33
(dp34
g14
F0.23529411764705885
sg8
I00
sg15
g16
sg17
F-179.0
sg18
F-58.470588235294102
sg19
I104015
sg20
S'39.4380034334'
p35
sg22
F0.0
sbasg26
I00
sg27
I00
sg28
I103966
sg20
S'39.4732626633'
p36
sba(igraph
Edge
p37
(dp38
g7
I1
sg8
I00
sg9
I5
sg10
(lp39
g33
a(igraph
Vertex
p40
(dp41
g14
F0.29411764705882354
sg8
I00
sg15
g16
sg17
F-179.0
sg18
F-35.588235294117638
sg19
I104016
sg20
S'39.4380595858'
p42
sg22
F0.0
sbasg26
I00
sg27
I00
sg28
I103967
sg20
S'39.4733509426'
p43
sba(igraph
Edge
p44
(dp45
g7
I1
sg8
I00
sg9
I5
sg10
(lp46
g40
a(igraph
Vertex
p47
(dp48
g14
F0.35294117647058826
sg8
I00
sg15
g16
sg17
F-179.0
sg18
F-12.70588235294116
sg19
I104017
sg20
S'39.4381137826'
p49
sg22
F0.0
sbasg26
I00
sg27
I00
sg28
I103968
sg20
S'39.4734543077'
p50
sba(igraph
Edge
p51
(dp52
g7
I1
sg8
I00
sg9
I5
sg10
(lp53
g47
a(igraph
Vertex
p54
(dp55
g14
F0.41176470588235298
sg8
I00
sg15
g16
sg17
F-179.0
sg18
F10.176470588235304
sg19
I104018
sg20
S'39.4381732874'
p56
sg22
F0.0
sbasg26
I00
sg27
I00
sg28
I103969
sg20
S'39.4735713617'
p57
sba(igraph
Edge
p58
(dp59
g7
I1
sg8
I00
sg9
I5
sg10
(lp60
g54
a(igraph
Vertex
p61
(dp62
g14
F0.4705882352941177
sg8
I00
sg15
g16
sg17
F-179.0
sg18
F33.058823529411796
sg19
I104019
sg20
S'39.4382383795'
p63
sg22
F0.0
sbasg26
I00
sg27
I00
sg28
I103970
sg20
S'39.4737032221'
p64
sba(igraph
Edge
p65
(dp66
g7
I1
sg8
I00
sg9
I5
sg10
(lp67
g61
a(igraph
Vertex
p68
(dp69
g14
F0.52941176470588236
sg8
I00
sg15
g16
sg17
F-179.0
sg18
F55.941176470588232
sg19
I104020
sg20
S'39.4383121318'
p70
sg22
F0.0
sbasg26
I00
sg27
I00
sg28
I103971
sg20
S'39.4738501681'
p71
sba(igraph
Edge
p72
(dp73
g7
I1
sg8
I00
sg9
I5
sg10
(lp74
g68
a(igraph
Vertex
p75
(dp76
g14
F0.58823529411764708
sg8
I00
sg15
I0
sg17
F-179.0
sg18
F78.823529411764724
sg19
I104021
sg20
S'39.4383928684'
p77
sg22
F0.0
sbasg26
I00
sg27
I00
sg28
I103972
sg20
S'39.4740121999'
p78
sba(igraph
Edge
p79
(dp80
g7
I1
sg8
I00
sg9
I5
sg10
(lp81
g75
a(igraph
Vertex
p82
(dp83
g14
F0.6470588235294118
sg8
I00
sg15
g16
sg17
F-179.0
sg18
F101.70588235294119
sg19
I104023
sg20
S'39.4384828239'
p84
sg22
F0.0
sbasg26
I00
sg27
I00
sg28
I103973
sg20
S'39.4742155777'
p85
sba(igraph
Edge
p86
(dp87
g7
I1
sg8
I00
sg9
I5
sg10
(lp88
g82
a(igraph
Vertex
p89
(dp90
g14
F0.70588235294117652
sg8
I00
sg15
g16
sg17
F-179.0
sg18
F124.58823529411768
sg19
I104024
sg20
S'39.4385814398'
p91
sg22
F0.0
sbasg26
I00
sg27
I00
sg28
I103974
sg20
S'39.4744136475'
p92
sba(igraph
Edge
p93
(dp94
g7
I1
sg8
I00
sg9
I5
sg10
(lp95
g89
a(igraph
Vertex
p96
(dp97
g14
F0.76470588235294124
sg8
I00
sg15
g16
sg17
F-179.0
sg18
F147.47058823529414
sg19
I104025
sg20
S'39.4386875986'
p98
sg22
F0.0
sbasg26
I00
sg27
I00
sg28
I103975
sg20
S'39.4746200984'
p99
sba(igraph
Edge
p100
(dp101
g7
I1
sg8
I00
sg9
I5
sg10
(lp102
(igraph
Vertex
p103
(dp104
g14
F0.11764705882352942
sg8
I00
sg15
I0
sg17
F-115.75
sg18
F-104.23529411764704
sg19
I104026
sg20
S'39.439658113'
p105
sg22
F0.25
sba(igraph
Vertex
p106
(dp107
g14
F0.1764705882352941
sg8
I00
sg15
g16
sg17
F-115.75
sg18
F-81.352941176470594
sg19
I104028
sg20
S'39.4398290844'
p108
sg22
F0.25
sbasg26
I00
sg27
I00
sg28
I103976
sg20
S'39.4767695336'
p109
sba(igraph
Edge
p110
(dp111
g7
I1
sg8
I00
sg9
I5
sg10
(lp112
g106
a(igraph
Vertex
p113
(dp114
g14
F0.23529411764705885
sg8
I00
sg15
I0
sg17
F-115.75
sg18
F-58.470588235294102
sg19
I104029
sg20
S'39.44002464'
p115
sg22
F0.25
sbasg26
I00
sg27
I00
sg28
I103977
sg20
S'39.4770983463'
p116
sba(igraph
Edge
p117
(dp118
g7
I1
sg8
I00
sg9
I5
sg10
(lp119
g113
a(igraph
Vertex
p120
(dp121
g14
F0.29411764705882354
sg8
I00
sg15
g16
sg17
F-115.75
sg18
F-35.588235294117638
sg19
I104031
sg20
S'39.4402146083'
p122
sg22
F0.25
sbasg26
I00
sg27
I00
sg28
I103978
sg20
S'39.4774866638'
p123
sba(igraph
Edge
p124
(dp125
g7
I1
sg8
I00
sg9
I5
sg10
(lp126
g120
a(igraph
Vertex
p127
(dp128
g14
F0.35294117647058826
sg8
I00
sg15
I0
sg17
F-115.75
sg18
F-12.70588235294116
sg19
I104032
sg20
S'39.4404126781'
p129
sg22
F0.25
sbasg26
I00
sg27
I00
sg28
I103979
sg20
S'39.4778584988'
p130
sba(igraph
Edge
p131
(dp132
g7
I1
sg8
I00
sg9
I5
sg10
(lp133
g127
a(igraph
Vertex
p134
(dp135
g14
F0.41176470588235298
sg8
I00
sg15
g16
sg17
F-115.75
sg18
F10.176470588235304
sg19
I104034
sg20
S'39.440616894'
p136
sg22
F0.25
sbasg26
I00
sg27
I00
sg28
I103980
sg20
S'39.4782440226'
p137
sba(igraph
Edge
p138
(dp139
g7
I1
sg8
I00
sg9
I5
sg10
(lp140
g134
a(igraph
Vertex
p141
(dp142
g14
F0.4705882352941177
sg8
I00
sg15
I0
sg17
F-115.75
sg18
F33.058823529411796
sg19
I104035
sg20
S'39.4408306084'
p143
sg22
F0.25
sbasg26
I00
sg27
I00
sg28
I103981
sg20
S'39.4786334576'
p144
sba(igraph
Edge
p145
(dp146
g7
I1
sg8
I00
sg9
I5
sg10
(lp147
g141
a(igraph
Vertex
p148
(dp149
g14
F0.52941176470588236
sg8
I00
sg15
g16
sg17
F-115.75
sg18
F55.941176470588232
sg19
I104037
sg20
S'39.4410521449'
p150
sg22
F0.25
sbasg26
I00
sg27
I00
sg28
I103982
sg20
S'39.4790720608'
p151
sba(igraph
Edge
p152
(dp153
g7
I1
sg8
I00
sg9
I5
sg10
(lp154
g148
a(igraph
Vertex
p155
(dp156
g14
F0.58823529411764708
sg8
I00
sg15
I0
sg17
F-115.75
sg18
F78.823529411764724
sg19
I104038
sg20
S'39.4412815037'
p157
sg22
F0.25
sbasg26
I00
sg27
I00
sg28
I103983
sg20
S'39.4794913879'
p158
sba(igraph
Edge
p159
(dp160
g7
I1
sg8
I00
sg9
I5
sg10
(lp161
g155
a(igraph
Vertex
p162
(dp163
g14
F0.6470588235294118
sg8
I00
sg15
g16
sg17
F-115.75
sg18
F101.70588235294119
sg19
I104040
sg20
S'39.441518964'
p164
sg22
F0.25
sbasg26
I00
sg27
I00
sg28
I103984
sg20
S'39.4799179784'
p165
sba(igraph
Edge
p166
(dp167
g7
I1
sg8
I00
sg9
I5
sg10
(lp168
g162
a(igraph
Vertex
p169
(dp170
g14
F0.70588235294117652
sg8
I00
sg15
g16
sg17
F-115.75
sg18
F124.58823529411768
sg19
I104041
sg20
S'39.4417634085'
p171
sg22
F0.25
sbasg26
I00
sg27
I00
sg28
I103985
sg20
S'39.4803697118'
p172
sba(igraph
Edge
p173
(dp174
g7
I1
sg8
I00
sg9
I5
sg10
(lp175
g169
a(igraph
Vertex
p176
(dp177
g14
F0.76470588235294124
sg8
I00
sg15
g16
sg17
F-115.75
sg18
F147.47058823529414
sg19
I104042
sg20
S'39.4420204244'
p178
sg22
F0.25
sbasg26
I00
sg27
I00
sg28
I103986
sg20
S'39.4808208865'
p179
sba(igraph
Edge
p180
(dp181
g7
I1
sg8
I00
sg9
I5
sg10
(lp182
(igraph
Vertex
p183
(dp184
g14
F0.11764705882352942
sg8
I00
sg15
g16
sg17
F-52.5
sg18
F-104.23529411764704
sg19
I104043
sg20
S'39.4440259865'
p185
sg22
F0.5
sba(igraph
Vertex
p186
(dp187
g14
F0.1764705882352941
sg8
I00
sg15
g16
sg17
F-52.5
sg18
F-81.352941176470594
sg19
I104044
sg20
S'39.4443508882'
p188
sg22
F0.5
sbasg26
I00
sg27
I00
sg28
I103987
sg20
S'39.4849825886'
p189
sba(igraph
Edge
p190
(dp191
g7
I1
sg8
I00
sg9
I5
sg10
(lp192
g186
a(igraph
Vertex
p193
(dp194
g14
F0.23529411764705885
sg8
I00
sg15
g16
sg17
F-52.5
sg18
F-58.470588235294102
sg19
I104045
sg20
S'39.4446810977'
p195
sg22
F0.5
sbasg26
I00
sg27
I00
sg28
I103988
sg20
S'39.4855695347'
p196
sba(igraph
Edge
p197
(dp198
g7
I1
sg8
I00
sg9
I5
sg10
(lp199
g193
a(igraph
Vertex
p200
(dp201
g14
F0.29411764705882354
sg8
I00
sg15
g16
sg17
F-52.5
sg18
F-35.588235294117638
sg19
I104046
sg20
S'39.4450177327'
p202
sg22
F0.5
sbasg26
I00
sg27
I00
sg28
I103989
sg20
S'39.4861648617'
p203
sba(igraph
Edge
p204
(dp205
g7
I1
sg8
I00
sg9
I5
sg10
(lp206
g200
a(igraph
Vertex
p207
(dp208
g14
F0.35294117647058826
sg8
I00
sg15
g16
sg17
F-52.5
sg18
F-12.70588235294116
sg19
I104047
sg20
S'39.4453750407'
p209
sg22
F0.5
sbasg26
I00
sg27
I00
sg28
I103990
sg20
S'39.4867719221'
p210
sba(igraph
Edge
p211
(dp212
g7
I1
sg8
I00
sg9
I5
sg10
(lp213
g207
a(igraph
Vertex
p214
(dp215
g14
F0.41176470588235298
sg8
I00
sg15
g16
sg17
F-52.5
sg18
F10.176470588235304
sg19
I104048
sg20
S'39.4457275995'
p216
sg22
F0.5
sbasg26
I00
sg27
I00
sg28
I103991
sg20
S'39.4874502206'
p217
sba(igraph
Edge
p218
(dp219
g7
I1
sg8
I00
sg9
I5
sg10
(lp220
g214
a(igraph
Vertex
p221
(dp222
g14
F0.4705882352941177
sg8
I00
sg15
g16
sg17
F-52.5
sg18
F33.058823529411796
sg19
I104049
sg20
S'39.4460918916'
p223
sg22
F0.5
sbasg26
I00
sg27
I00
sg28
I103992
sg20
S'39.4880910842'
p224
sba(igraph
Edge
p225
(dp226
g7
I1
sg8
I00
sg9
I5
sg10
(lp227
g221
a(igraph
Vertex
p228
(dp229
g14
F0.52941176470588236
sg8
I00
sg15
g16
sg17
F-52.5
sg18
F55.941176470588232
sg19
I104050
sg20
S'39.446491663'
p230
sg22
F0.5
sbasg26
I00
sg27
I00
sg28
I103993
sg20
S'39.4887478716'
p231
sba(igraph
Edge
p232
(dp233
g7
I1
sg8
I00
sg9
I5
sg10
(lp234
g228
a(igraph
Vertex
p235
(dp236
g14
F0.58823529411764708
sg8
I00
sg15
g16
sg17
F-52.5
sg18
F78.823529411764724
sg19
I104051
sg20
S'39.4468746726'
p237
sg22
F0.5
sbasg26
I00
sg27
I00
sg28
I103994
sg20
S'39.4894158336'
p238
sba(igraph
Edge
p239
(dp240
g7
I1
sg8
I00
sg9
I5
sg10
(lp241
g235
a(igraph
Vertex
p242
(dp243
g14
F0.6470588235294118
sg8
I00
sg15
g16
sg17
F-52.5
sg18
F101.70588235294119
sg19
I104052
sg20
S'39.4472646663'
p244
sg22
F0.5
sbasg26
I00
sg27
I00
sg28
I103995
sg20
S'39.4901298908'
p245
sba(igraph
Edge
p246
(dp247
g7
I1
sg8
I00
sg9
I5
sg10
(lp248
g242
a(igraph
Vertex
p249
(dp250
g14
F0.70588235294117652
sg8
I00
sg15
g16
sg17
F-52.5
sg18
F124.58823529411768
sg19
I104053
sg20
S'39.4476585711'
p251
sg22
F0.5
sbasg26
I00
sg27
I00
sg28
I103996
sg20
S'39.4908400369'
p252
sba(igraph
Edge
p253
(dp254
g7
I1
sg8
I00
sg9
I5
sg10
(lp255
g249
a(igraph
Vertex
p256
(dp257
g14
F0.76470588235294124
sg8
I00
sg15
I0
sg17
F-52.5
sg18
F147.47058823529414
sg19
I104054
sg20
S'39.4481002474'
p258
sg22
F0.5
sbasg26
I00
sg27
I00
sg28
I103997
sg20
S'39.491555491'
p259
sba(igraph
Edge
p260
(dp261
g7
I1
sg8
I00
sg9
I5
sg10
(lp262
g12
ag106
asg26
I00
sg27
I00
sg28
I103998
sg20
S'39.5362539094'
p263
sba(igraph
Edge
p264
(dp265
g7
I1
sg8
I00
sg9
I5
sg10
(lp266
g33
ag120
asg26
I00
sg27
I00
sg28
I103999
sg20
S'39.5375736302'
p267
sba(igraph
Edge
p268
(dp269
g7
I1
sg8
I00
sg9
I5
sg10
(lp270
g47
ag134
asg26
I00
sg27
I00
sg28
I104000
sg20
S'39.5389268748'
p271
sba(igraph
Edge
p272
(dp273
g7
I1
sg8
I00
sg9
I5
sg10
(lp274
g61
ag148
asg26
I00
sg27
I00
sg28
I104001
sg20
S'39.540294367'
p275
sba(igraph
Edge
p276
(dp277
g7
I1
sg8
I00
sg9
I5
sg10
(lp278
g75
ag162
asg26
I00
sg27
I00
sg28
I104002
sg20
S'39.5417400815'
p279
sba(igraph
Edge
p280
(dp281
g7
I1
sg8
I00
sg9
I5
sg10
(lp282
g89
ag176
asg26
I00
sg27
I00
sg28
I104003
sg20
S'39.5431254531'
p283
sba(igraph
Edge
p284
(dp285
g7
I1
sg8
I00
sg9
I5
sg10
(lp286
g103
ag186
asg26
I00
sg27
I00
sg28
I104004
sg20
S'39.5632824842'
p287
sba(igraph
Edge
p288
(dp289
g7
I1
sg8
I00
sg9
I5
sg10
(lp290
g113
ag200
asg26
I00
sg27
I00
sg28
I104005
sg20
S'39.5649578368'
p291
sba(igraph
Edge
p292
(dp293
g7
I1
sg8
I00
sg9
I5
sg10
(lp294
g127
ag214
asg26
I00
sg27
I00
sg28
I104006
sg20
S'39.5665893291'
p295
sba(igraph
Edge
p296
(dp297
g7
I1
sg8
I00
sg9
I5
sg10
(lp298
g141
ag228
asg26
I00
sg27
I00
sg28
I104007
sg20
S'39.5682725039'
p299
sba(igraph
Edge
p300
(dp301
g7
I1
sg8
I00
sg9
I5
sg10
(lp302
g155
ag242
asg26
I00
sg27
I00
sg28
I104008
sg20
S'39.5700288724'
p303
sba(igraph
Edge
p304
(dp305
g7
I1
sg8
I00
sg9
I5
sg10
(lp306
g169
ag256
asg26
I00
sg27
I00
sg28
I104009
sg20
S'39.5717153996'
p307
sba(igraph
Edge
p308
(dp309
g7
I1
sg8
I00
sg9
I5
sg10
(lp310
g12
ag96
asg26
I00
sg27
I00
sg28
I104010
sg20
S'1049.59276863'
p311
sba(igraph
Edge
p312
(dp313
g7
I1
sg8
I00
sg9
I5
sg10
(lp314
g103
ag176
asg26
I00
sg27
I00
sg28
I104011
sg20
S'1052.76869043'
p315
sba(igraph
Edge
p316
(dp317
g7
I1
sg8
I00
sg9
I5
sg10
(lp318
g183
ag256
asg26
I00
sg27
I00
sg28
I104012
sg20
S'1056.15642686'
p319
sbasS'vertices'
p320
(lp321
g12
ag23
ag33
ag40
ag47
ag54
ag61
ag68
ag75
ag82
ag89
ag96
ag103
ag106
ag113
ag120
ag127
ag134
ag141
ag148
ag155
ag162
ag169
ag176
ag183
ag186
ag193
ag200
ag207
ag214
ag221
ag228
ag235
ag242
ag249
ag256
asS'tags'
p322
(lp323
sb.