(igraph
Graph
p0
(dp1
S'labelingConstraints'
p2
I-1
sS'edges'
p3
(lp4
(igraph
Edge
p5
(dp6
S'direction'
p7
I1
sS'selected'
p8
I00
sS'height'
p9
I5
sS'vs'
p10
(lp11
(igraph
Vertex
p12
(dp13
S'y'
p14
F-50.0
sS'x'
p15
F-149.99999999999997
sS'circle'
p16
I4713233
sg8
I01
sS'id'
p17
S'104828.527665'
p18
sS'label'
p19
I0
sba(igraph
Vertex
p20
(dp21
g14
F-50.0
sg15
F-126.92307692307689
sg16
I4713235
sg8
I00
sg17
S'104828.527703'
p22
sg19
S'NULL'
p23
sbasS'wrap'
p24
I00
sS'curved'
p25
I00
sS'line'
p26
I4713169
sg17
S'104828.543051'
p27
sba(igraph
Edge
p28
(dp29
g7
I1
sg8
I00
sg9
I5
sg10
(lp30
g20
a(igraph
Vertex
p31
(dp32
g14
F-50.0
sg15
F-103.84615384615381
sg16
I4713237
sg8
I01
sg17
S'104828.527748'
p33
sg19
I0
sbasg24
I00
sg25
I00
sg26
I4713170
sg17
S'104828.543151'
p34
sba(igraph
Edge
p35
(dp36
g7
I1
sg8
I00
sg9
I5
sg10
(lp37
g31
a(igraph
Vertex
p38
(dp39
g14
F-50.0
sg15
F-80.769230769230731
sg16
I4713239
sg8
I00
sg17
S'104828.527805'
p40
sg19
g23
sbasg24
I00
sg25
I00
sg26
I4713171
sg17
S'104828.543277'
p41
sba(igraph
Edge
p42
(dp43
g7
I1
sg8
I00
sg9
I5
sg10
(lp44
g38
a(igraph
Vertex
p45
(dp46
g14
F-50.0
sg15
F-57.692307692307665
sg16
I4713241
sg8
I01
sg17
S'104828.527875'
p47
sg19
I0
sbasg24
I00
sg25
I00
sg26
I4713172
sg17
S'104828.543483'
p48
sba(igraph
Edge
p49
(dp50
g7
I1
sg8
I00
sg9
I5
sg10
(lp51
g45
a(igraph
Vertex
p52
(dp53
g14
F-50.0
sg15
F-34.615384615384585
sg16
I4713243
sg8
I00
sg17
S'104828.527961'
p54
sg19
g23
sbasg24
I00
sg25
I00
sg26
I4713173
sg17
S'104828.543676'
p55
sba(igraph
Edge
p56
(dp57
g7
I1
sg8
I00
sg9
I5
sg10
(lp58
g52
a(igraph
Vertex
p59
(dp60
g14
F-50.0
sg15
F-11.53846153846149
sg16
I4713245
sg8
I01
sg17
S'104828.528064'
p61
sg19
I0
sbasg24
I00
sg25
I00
sg26
I4713174
sg17
S'104828.543897'
p62
sba(igraph
Edge
p63
(dp64
g7
I1
sg8
I00
sg9
I5
sg10
(lp65
g59
a(igraph
Vertex
p66
(dp67
g14
F-50.0
sg15
F11.538461538461604
sg16
I4713247
sg8
I00
sg17
S'104828.528181'
p68
sg19
g23
sbasg24
I00
sg25
I00
sg26
I4713175
sg17
S'104828.544148'
p69
sba(igraph
Edge
p70
(dp71
g7
I1
sg8
I00
sg9
I5
sg10
(lp72
g66
a(igraph
Vertex
p73
(dp74
g14
F-50.0
sg15
F34.615384615384642
sg16
I4713249
sg8
I01
sg17
S'104828.528317'
p75
sg19
I0
sbasg24
I00
sg25
I00
sg26
I4713176
sg17
S'104828.54443'
p76
sba(igraph
Edge
p77
(dp78
g7
I1
sg8
I00
sg9
I5
sg10
(lp79
g73
a(igraph
Vertex
p80
(dp81
g14
F-50.0
sg15
F57.692307692307708
sg16
I4713251
sg8
I00
sg17
S'104828.528469'
p82
sg19
g23
sbasg24
I00
sg25
I00
sg26
I4713177
sg17
S'104828.544744'
p83
sba(igraph
Edge
p84
(dp85
g7
I1
sg8
I00
sg9
I5
sg10
(lp86
g80
a(igraph
Vertex
p87
(dp88
g14
F-50.0
sg15
F80.769230769230774
sg16
I4713253
sg8
I01
sg17
S'104828.528636'
p89
sg19
I0
sbasg24
I00
sg25
I00
sg26
I4713178
sg17
S'104828.545088'
p90
sba(igraph
Edge
p91
(dp92
g7
I1
sg8
I00
sg9
I5
sg10
(lp93
g87
a(igraph
Vertex
p94
(dp95
g14
F-50.0
sg15
F103.84615384615384
sg16
I4713255
sg8
I00
sg17
S'104828.528821'
p96
sg19
g23
sbasg24
I00
sg25
I00
sg26
I4713179
sg17
S'104828.545468'
p97
sba(igraph
Edge
p98
(dp99
g7
I1
sg8
I00
sg9
I5
sg10
(lp100
g94
a(igraph
Vertex
p101
(dp102
g14
F-50.0
sg15
F126.92307692307688
sg16
I4713257
sg8
I01
sg17
S'104828.529024'
p103
sg19
I0
sbasg24
I00
sg25
I00
sg26
I4713180
sg17
S'104828.545876'
p104
sba(igraph
Edge
p105
(dp106
g7
I1
sg8
I00
sg9
I5
sg10
(lp107
g101
a(igraph
Vertex
p108
(dp109
g14
F-50.0
sg15
F149.99999999999997
sg16
I4713259
sg8
I00
sg17
S'104828.529242'
p110
sg19
g23
sbasg24
I00
sg25
I00
sg26
I4713181
sg17
S'104828.54632'
p111
sba(igraph
Edge
p112
(dp113
g7
I1
sg8
I00
sg9
I5
sg10
(lp114
g108
ag12
asg24
I00
sg25
I00
sg26
I4713182
sg17
S'104828.546789'
p115
sba(igraph
Edge
p116
(dp117
g7
I1
sg8
I00
sg9
I5
sg10
(lp118
(igraph
Vertex
p119
(dp120
g14
F0.0
sg15
F-149.99999999999997
sg16
I4713260
sg8
I00
sg17
S'104828.529477'
p121
sg19
g23
sba(igraph
Vertex
p122
(dp123
g14
F0.0
sg15
F-126.92307692307689
sg16
I4713261
sg8
I00
sg17
S'104828.529729'
p124
sg19
g23
sbasg24
I00
sg25
I00
sg26
I4713183
sg17
S'104828.547292'
p125
sba(igraph
Edge
p126
(dp127
g7
I1
sg8
I00
sg9
I5
sg10
(lp128
g122
a(igraph
Vertex
p129
(dp130
g14
F0.0
sg15
F-103.84615384615381
sg16
I4713263
sg8
I01
sg17
S'104828.529996'
p131
sg19
I0
sbasg24
I00
sg25
I00
sg26
I4713184
sg17
S'104828.547826'
p132
sba(igraph
Edge
p133
(dp134
g7
I1
sg8
I00
sg9
I5
sg10
(lp135
g129
a(igraph
Vertex
p136
(dp137
g14
F0.0
sg15
F-80.769230769230731
sg16
I4713265
sg8
I00
sg17
S'104828.530288'
p138
sg19
g23
sbasg24
I00
sg25
I00
sg26
I4713185
sg17
S'104828.548387'
p139
sba(igraph
Edge
p140
(dp141
g7
I1
sg8
I00
sg9
I5
sg10
(lp142
g136
a(igraph
Vertex
p143
(dp144
g14
F0.0
sg15
F-57.692307692307665
sg16
I4713266
sg8
I00
sg17
S'104828.530592'
p145
sg19
g23
sbasg24
I00
sg25
I00
sg26
I4713186
sg17
S'104828.549032'
p146
sba(igraph
Edge
p147
(dp148
g7
I1
sg8
I00
sg9
I5
sg10
(lp149
g143
a(igraph
Vertex
p150
(dp151
g14
F0.0
sg15
F-34.615384615384585
sg16
I4713267
sg8
I00
sg17
S'104828.530912'
p152
sg19
g23
sbasg24
I00
sg25
I00
sg26
I4713187
sg17
S'104828.549705'
p153
sba(igraph
Edge
p154
(dp155
g7
I1
sg8
I00
sg9
I5
sg10
(lp156
g150
a(igraph
Vertex
p157
(dp158
g14
F0.0
sg15
F-11.53846153846149
sg16
I4713269
sg8
I01
sg17
S'104828.531249'
p159
sg19
I0
sbasg24
I00
sg25
I00
sg26
I4713188
sg17
S'104828.550375'
p160
sba(igraph
Edge
p161
(dp162
g7
I1
sg8
I00
sg9
I5
sg10
(lp163
g157
a(igraph
Vertex
p164
(dp165
g14
F0.0
sg15
F11.538461538461604
sg16
I4713271
sg8
I00
sg17
S'104828.531602'
p166
sg19
g23
sbasg24
I00
sg25
I00
sg26
I4713189
sg17
S'104828.551084'
p167
sba(igraph
Edge
p168
(dp169
g7
I1
sg8
I00
sg9
I5
sg10
(lp170
g164
a(igraph
Vertex
p171
(dp172
g14
F0.0
sg15
F34.615384615384642
sg16
I4713272
sg8
I00
sg17
S'104828.531977'
p173
sg19
g23
sbasg24
I00
sg25
I00
sg26
I4713190
sg17
S'104828.551864'
p174
sba(igraph
Edge
p175
(dp176
g7
I1
sg8
I00
sg9
I5
sg10
(lp177
g171
a(igraph
Vertex
p178
(dp179
g14
F0.0
sg15
F57.692307692307708
sg16
I4713273
sg8
I00
sg17
S'104828.532365'
p180
sg19
g23
sbasg24
I00
sg25
I00
sg26
I4713191
sg17
S'104828.552641'
p181
sba(igraph
Edge
p182
(dp183
g7
I1
sg8
I00
sg9
I5
sg10
(lp184
g178
a(igraph
Vertex
p185
(dp186
g14
F0.0
sg15
F80.769230769230774
sg16
I4713275
sg8
I01
sg17
S'104828.532766'
p187
sg19
I0
sbasg24
I00
sg25
I00
sg26
I4713192
sg17
S'104828.553432'
p188
sba(igraph
Edge
p189
(dp190
g7
I1
sg8
I00
sg9
I5
sg10
(lp191
g185
a(igraph
Vertex
p192
(dp193
g14
F0.0
sg15
F103.84615384615384
sg16
I4713277
sg8
I00
sg17
S'104828.533188'
p194
sg19
g23
sbasg24
I00
sg25
I00
sg26
I4713193
sg17
S'104828.554279'
p195
sba(igraph
Edge
p196
(dp197
g7
I1
sg8
I00
sg9
I5
sg10
(lp198
g192
a(igraph
Vertex
p199
(dp200
g14
F0.0
sg15
F126.92307692307688
sg16
I4713278
sg8
I00
sg17
S'104828.533627'
p201
sg19
g23
sbasg24
I00
sg25
I00
sg26
I4713194
sg17
S'104828.555154'
p202
sba(igraph
Edge
p203
(dp204
g7
I1
sg8
I00
sg9
I5
sg10
(lp205
g199
a(igraph
Vertex
p206
(dp207
g14
F0.0
sg15
F149.99999999999997
sg16
I4713279
sg8
I00
sg17
S'104828.534085'
p208
sg19
g23
sbasg24
I00
sg25
I00
sg26
I4713195
sg17
S'104828.556105'
p209
sba(igraph
Edge
p210
(dp211
g7
I1
sg8
I00
sg9
I5
sg10
(lp212
g206
ag119
asg24
I00
sg25
I00
sg26
I4713196
sg17
S'104828.5571'
p213
sba(igraph
Edge
p214
(dp215
g7
I1
sg8
I00
sg9
I5
sg10
(lp216
(igraph
Vertex
p217
(dp218
g14
F50.0
sg15
F-149.99999999999997
sg16
I4713280
sg8
I00
sg17
S'104828.53456'
p219
sg19
g23
sba(igraph
Vertex
p220
(dp221
g14
F50.0
sg15
F-126.92307692307689
sg16
I4713282
sg8
I01
sg17
S'104828.535051'
p222
sg19
I0
sbasg24
I00
sg25
I00
sg26
I4713197
sg17
S'104828.558066'
p223
sba(igraph
Edge
p224
(dp225
g7
I1
sg8
I00
sg9
I5
sg10
(lp226
g220
a(igraph
Vertex
p227
(dp228
g14
F50.0
sg15
F-103.84615384615381
sg16
I4713284
sg8
I00
sg17
S'104828.535558'
p229
sg19
g23
sbasg24
I00
sg25
I00
sg26
I4713198
sg17
S'104828.559049'
p230
sba(igraph
Edge
p231
(dp232
g7
I1
sg8
I00
sg9
I5
sg10
(lp233
g227
a(igraph
Vertex
p234
(dp235
g14
F50.0
sg15
F-80.769230769230731
sg16
I4713285
sg8
I00
sg17
S'104828.536082'
p236
sg19
g23
sbasg24
I00
sg25
I00
sg26
I4713199
sg17
S'104828.560158'
p237
sba(igraph
Edge
p238
(dp239
g7
I1
sg8
I00
sg9
I5
sg10
(lp240
g234
a(igraph
Vertex
p241
(dp242
g14
F50.0
sg15
F-57.692307692307665
sg16
I4713286
sg8
I00
sg17
S'104828.53662'
p243
sg19
g23
sbasg24
I00
sg25
I00
sg26
I4713200
sg17
S'104828.561409'
p244
sba(igraph
Edge
p245
(dp246
g7
I1
sg8
I00
sg9
I5
sg10
(lp247
g241
a(igraph
Vertex
p248
(dp249
g14
F50.0
sg15
F-34.615384615384585
sg16
I4713287
sg8
I00
sg17
S'104828.53718'
p250
sg19
g23
sbasg24
I00
sg25
I00
sg26
I4713201
sg17
S'104828.56252'
p251
sba(igraph
Edge
p252
(dp253
g7
I1
sg8
I00
sg9
I5
sg10
(lp254
g248
a(igraph
Vertex
p255
(dp256
g14
F50.0
sg15
F-11.53846153846149
sg16
I4713288
sg8
I00
sg17
S'104828.537758'
p257
sg19
g23
sbasg24
I00
sg25
I00
sg26
I4713202
sg17
S'104828.563684'
p258
sba(igraph
Edge
p259
(dp260
g7
I1
sg8
I00
sg9
I5
sg10
(lp261
g255
a(igraph
Vertex
p262
(dp263
g14
F50.0
sg15
F11.538461538461604
sg16
I4713289
sg8
I00
sg17
S'104828.538351'
p264
sg19
g23
sbasg24
I00
sg25
I00
sg26
I4713203
sg17
S'104828.564986'
p265
sba(igraph
Edge
p266
(dp267
g7
I1
sg8
I00
sg9
I5
sg10
(lp268
g262
a(igraph
Vertex
p269
(dp270
g14
F50.0
sg15
F34.615384615384642
sg16
I4713290
sg8
I00
sg17
S'104828.538959'
p271
sg19
g23
sbasg24
I00
sg25
I00
sg26
I4713204
sg17
S'104828.566173'
p272
sba(igraph
Edge
p273
(dp274
g7
I1
sg8
I00
sg9
I5
sg10
(lp275
g269
a(igraph
Vertex
p276
(dp277
g14
F50.0
sg15
F57.692307692307708
sg16
I4713291
sg8
I00
sg17
S'104828.539588'
p278
sg19
g23
sbasg24
I00
sg25
I00
sg26
I4713205
sg17
S'104828.56745'
p279
sba(igraph
Edge
p280
(dp281
g7
I1
sg8
I00
sg9
I5
sg10
(lp282
g276
a(igraph
Vertex
p283
(dp284
g14
F50.0
sg15
F80.769230769230774
sg16
I4713292
sg8
I00
sg17
S'104828.54024'
p285
sg19
g23
sbasg24
I00
sg25
I00
sg26
I4713206
sg17
S'104828.568692'
p286
sba(igraph
Edge
p287
(dp288
g7
I1
sg8
I00
sg9
I5
sg10
(lp289
g283
a(igraph
Vertex
p290
(dp291
g14
F50.0
sg15
F103.84615384615384
sg16
I4713293
sg8
I00
sg17
S'104828.540902'
p292
sg19
g23
sbasg24
I00
sg25
I00
sg26
I4713207
sg17
S'104828.56997'
p293
sba(igraph
Edge
p294
(dp295
g7
I1
sg8
I00
sg9
I5
sg10
(lp296
g290
a(igraph
Vertex
p297
(dp298
g14
F50.0
sg15
F126.92307692307688
sg16
I4713294
sg8
I00
sg17
S'104828.541585'
p299
sg19
g23
sbasg24
I00
sg25
I00
sg26
I4713208
sg17
S'104828.571325'
p300
sba(igraph
Edge
p301
(dp302
g7
I1
sg8
I00
sg9
I5
sg10
(lp303
g297
a(igraph
Vertex
p304
(dp305
g14
F50.0
sg15
F149.99999999999997
sg16
I4713295
sg8
I00
sg17
S'104828.542287'
p306
sg19
g23
sbasg24
I00
sg25
I00
sg26
I4713209
sg17
S'104828.572679'
p307
sba(igraph
Edge
p308
(dp309
g7
I1
sg8
I00
sg9
I5
sg10
(lp310
g304
ag217
asg24
I00
sg25
I00
sg26
I4713210
sg17
S'104828.574084'
p311
sba(igraph
Edge
p312
(dp313
g7
I1
sg8
I00
sg9
I5
sg10
(lp314
g12
ag122
asg24
I00
sg25
I00
sg26
I4713211
sg17
S'104828.575575'
p315
sba(igraph
Edge
p316
(dp317
g7
I1
sg8
I00
sg9
I5
sg10
(lp318
g31
ag136
asg24
I00
sg25
I00
sg26
I4713212
sg17
S'104828.577092'
p319
sba(igraph
Edge
p320
(dp321
g7
I1
sg8
I00
sg9
I5
sg10
(lp322
g45
ag150
asg24
I00
sg25
I00
sg26
I4713213
sg17
S'104828.578593'
p323
sba(igraph
Edge
p324
(dp325
g7
I1
sg8
I00
sg9
I5
sg10
(lp326
g59
ag164
asg24
I00
sg25
I00
sg26
I4713214
sg17
S'104828.580149'
p327
sba(igraph
Edge
p328
(dp329
g7
I1
sg8
I00
sg9
I5
sg10
(lp330
g73
ag178
asg24
I00
sg25
I00
sg26
I4713215
sg17
S'104828.581661'
p331
sba(igraph
Edge
p332
(dp333
g7
I1
sg8
I00
sg9
I5
sg10
(lp334
g87
ag192
asg24
I00
sg25
I00
sg26
I4713216
sg17
S'104828.583278'
p335
sba(igraph
Edge
p336
(dp337
g7
I1
sg8
I00
sg9
I5
sg10
(lp338
g101
ag206
asg24
I00
sg25
I00
sg26
I4713217
sg17
S'104828.584957'
p339
sba(igraph
Edge
p340
(dp341
g7
I1
sg8
I00
sg9
I5
sg10
(lp342
g20
ag217
asg24
I00
sg25
I00
sg26
I4713218
sg17
S'104828.586603'
p343
sba(igraph
Edge
p344
(dp345
g7
I1
sg8
I00
sg9
I5
sg10
(lp346
g38
ag227
asg24
I00
sg25
I00
sg26
I4713219
sg17
S'104828.588293'
p347
sba(igraph
Edge
p348
(dp349
g7
I1
sg8
I00
sg9
I5
sg10
(lp350
g52
ag241
asg24
I00
sg25
I00
sg26
I4713220
sg17
S'104828.590117'
p351
sba(igraph
Edge
p352
(dp353
g7
I1
sg8
I00
sg9
I5
sg10
(lp354
g66
ag255
asg24
I00
sg25
I00
sg26
I4713221
sg17
S'104828.591913'
p355
sba(igraph
Edge
p356
(dp357
g7
I1
sg8
I00
sg9
I5
sg10
(lp358
g80
ag269
asg24
I00
sg25
I00
sg26
I4713222
sg17
S'104828.593737'
p359
sba(igraph
Edge
p360
(dp361
g7
I1
sg8
I00
sg9
I5
sg10
(lp362
g94
ag283
asg24
I00
sg25
I00
sg26
I4713223
sg17
S'104828.595701'
p363
sba(igraph
Edge
p364
(dp365
g7
I1
sg8
I00
sg9
I5
sg10
(lp366
g108
ag297
asg24
I00
sg25
I00
sg26
I4713224
sg17
S'104828.597626'
p367
sba(igraph
Edge
p368
(dp369
g7
I1
sg8
I00
sg9
I5
sg10
(lp370
g119
ag220
asg24
I00
sg25
I00
sg26
I4713225
sg17
S'104828.599447'
p371
sba(igraph
Edge
p372
(dp373
g7
I1
sg8
I00
sg9
I5
sg10
(lp374
g129
ag234
asg24
I00
sg25
I00
sg26
I4713226
sg17
S'104828.601427'
p375
sba(igraph
Edge
p376
(dp377
g7
I1
sg8
I00
sg9
I5
sg10
(lp378
g143
ag248
asg24
I00
sg25
I00
sg26
I4713227
sg17
S'104828.603462'
p379
sba(igraph
Edge
p380
(dp381
g7
I1
sg8
I00
sg9
I5
sg10
(lp382
g157
ag262
asg24
I00
sg25
I00
sg26
I4713228
sg17
S'104828.605436'
p383
sba(igraph
Edge
p384
(dp385
g7
I1
sg8
I00
sg9
I5
sg10
(lp386
g171
ag276
asg24
I00
sg25
I00
sg26
I4713229
sg17
S'104828.607415'
p387
sba(igraph
Edge
p388
(dp389
g7
I1
sg8
I00
sg9
I5
sg10
(lp390
g185
ag290
asg24
I00
sg25
I00
sg26
I4713230
sg17
S'104828.609595'
p391
sba(igraph
Edge
p392
(dp393
g7
I1
sg8
I00
sg9
I5
sg10
(lp394
g199
ag304
asg24
I00
sg25
I00
sg26
I4713231
sg17
S'104828.612912'
p395
sbasS'vertices'
p396
(lp397
g12
ag20
ag31
ag38
ag45
ag52
ag59
ag66
ag73
ag80
ag87
ag94
ag101
ag108
ag119
ag122
ag129
ag136
ag143
ag150
ag157
ag164
ag171
ag178
ag185
ag192
ag199
ag206
ag217
ag220
ag227
ag234
ag241
ag248
ag255
ag262
ag269
ag276
ag283
ag290
ag297
ag304
asS'tags'
p398
(lp399
sb.