(igraph
Graph
p0
(dp1
S'labelingConstraints'
p2
I-1
sS'edges'
p3
(lp4
(igraph
Edge
p5
(dp6
S'direction'
p7
I1
sS'selected'
p8
I00
sS'height'
p9
I5
sS'vs'
p10
(lp11
(igraph
Vertex
p12
(dp13
S'y'
p14
F-49.0
sS'x'
p15
F-149.99999999999994
sS'circle'
p16
I4818768
sg8
I00
sS'id'
p17
S'104910.063637'
p18
sS'label'
p19
I0
sba(igraph
Vertex
p20
(dp21
g14
F-49.0
sg15
F-134.21052631578942
sg16
I4818770
sg8
I00
sg17
S'104910.063676'
p22
sg19
S'NULL'
p23
sbasS'wrap'
p24
I00
sS'curved'
p25
I00
sS'line'
p26
I4818684
sg17
S'104910.122874'
p27
sba(igraph
Edge
p28
(dp29
g7
I1
sg8
I00
sg9
I5
sg10
(lp30
g20
a(igraph
Vertex
p31
(dp32
g14
F-49.0
sg15
F-118.42105263157889
sg16
I4818771
sg8
I00
sg17
S'104910.063722'
p33
sg19
I0
sbasg24
I00
sg25
I00
sg26
I4818685
sg17
S'104910.122975'
p34
sba(igraph
Edge
p35
(dp36
g7
I1
sg8
I00
sg9
I5
sg10
(lp37
g31
a(igraph
Vertex
p38
(dp39
g14
F-49.0
sg15
F-102.63157894736837
sg16
I4818773
sg8
I00
sg17
S'104910.063778'
p40
sg19
g23
sbasg24
I00
sg25
I00
sg26
I4818686
sg17
S'104910.123115'
p41
sba(igraph
Edge
p42
(dp43
g7
I1
sg8
I00
sg9
I5
sg10
(lp44
g38
a(igraph
Vertex
p45
(dp46
g14
F-49.0
sg15
F-86.842105263157833
sg16
I4818774
sg8
I00
sg17
S'104910.063848'
p47
sg19
I0
sbasg24
I00
sg25
I00
sg26
I4818687
sg17
S'104910.123271'
p48
sba(igraph
Edge
p49
(dp50
g7
I1
sg8
I00
sg9
I5
sg10
(lp51
g45
a(igraph
Vertex
p52
(dp53
g14
F-49.0
sg15
F-71.052631578947313
sg16
I4818776
sg8
I00
sg17
S'104910.063933'
p54
sg19
g23
sbasg24
I00
sg25
I00
sg26
I4818688
sg17
S'104910.123456'
p55
sba(igraph
Edge
p56
(dp57
g7
I1
sg8
I00
sg9
I5
sg10
(lp58
g52
a(igraph
Vertex
p59
(dp60
g14
F-49.0
sg15
F-55.263157894736793
sg16
I4818777
sg8
I00
sg17
S'104910.064036'
p61
sg19
I0
sbasg24
I00
sg25
I00
sg26
I4818689
sg17
S'104910.123676'
p62
sba(igraph
Edge
p63
(dp64
g7
I1
sg8
I00
sg9
I5
sg10
(lp65
g59
a(igraph
Vertex
p66
(dp67
g14
F-49.0
sg15
F-39.473684210526258
sg16
I4818779
sg8
I00
sg17
S'104910.064154'
p68
sg19
g23
sbasg24
I00
sg25
I00
sg26
I4818690
sg17
S'104910.123927'
p69
sba(igraph
Edge
p70
(dp71
g7
I1
sg8
I00
sg9
I5
sg10
(lp72
g66
a(igraph
Vertex
p73
(dp74
g14
F-49.0
sg15
F-23.684210526315738
sg16
I4818780
sg8
I00
sg17
S'104910.064298'
p75
sg19
I0
sbasg24
I00
sg25
I00
sg26
I4818691
sg17
S'104910.124249'
p76
sba(igraph
Edge
p77
(dp78
g7
I1
sg8
I00
sg9
I5
sg10
(lp79
g73
a(igraph
Vertex
p80
(dp81
g14
F-49.0
sg15
F-7.8947368421052033
sg16
I4818782
sg8
I00
sg17
S'104910.064457'
p82
sg19
g23
sbasg24
I00
sg25
I00
sg26
I4818692
sg17
S'104910.124561'
p83
sba(igraph
Edge
p84
(dp85
g7
I1
sg8
I00
sg9
I5
sg10
(lp86
g80
a(igraph
Vertex
p87
(dp88
g14
F-49.0
sg15
F7.894736842105317
sg16
I4818783
sg8
I00
sg17
S'104910.064624'
p89
sg19
I0
sbasg24
I00
sg25
I00
sg26
I4818693
sg17
S'104910.124904'
p90
sba(igraph
Edge
p91
(dp92
g7
I1
sg8
I00
sg9
I5
sg10
(lp93
g87
a(igraph
Vertex
p94
(dp95
g14
F-49.0
sg15
F23.684210526315866
sg16
I4818785
sg8
I00
sg17
S'104910.064807'
p96
sg19
g23
sbasg24
I00
sg25
I00
sg26
I4818694
sg17
S'104910.125344'
p97
sba(igraph
Edge
p98
(dp99
g7
I1
sg8
I00
sg9
I5
sg10
(lp100
g94
a(igraph
Vertex
p101
(dp102
g14
F-49.0
sg15
F39.473684210526358
sg16
I4818786
sg8
I00
sg17
S'104910.065008'
p103
sg19
I0
sbasg24
I00
sg25
I00
sg26
I4818695
sg17
S'104910.125753'
p104
sba(igraph
Edge
p105
(dp106
g7
I1
sg8
I00
sg9
I5
sg10
(lp107
g101
a(igraph
Vertex
p108
(dp109
g14
F-49.0
sg15
F55.263157894736878
sg16
I4818788
sg8
I00
sg17
S'104910.065224'
p110
sg19
g23
sbasg24
I00
sg25
I00
sg26
I4818696
sg17
S'104910.126359'
p111
sba(igraph
Edge
p112
(dp113
g7
I1
sg8
I00
sg9
I5
sg10
(lp114
(igraph
Vertex
p115
(dp116
g14
F-16.0
sg15
F-149.99999999999994
sg16
I4818789
sg8
I00
sg17
S'104910.067538'
p117
sg19
g23
sba(igraph
Vertex
p118
(dp119
g14
F-16.0
sg15
F-134.21052631578942
sg16
I4818790
sg8
I00
sg17
S'104910.067887'
p120
sg19
g23
sbasg24
I00
sg25
I00
sg26
I4818697
sg17
S'104910.131185'
p121
sba(igraph
Edge
p122
(dp123
g7
I1
sg8
I00
sg9
I5
sg10
(lp124
g118
a(igraph
Vertex
p125
(dp126
g14
F-16.0
sg15
F-118.42105263157889
sg16
I4818791
sg8
I00
sg17
S'104910.06826'
p127
sg19
I0
sbasg24
I00
sg25
I00
sg26
I4818698
sg17
S'104910.131949'
p128
sba(igraph
Edge
p129
(dp130
g7
I1
sg8
I00
sg9
I5
sg10
(lp131
g125
a(igraph
Vertex
p132
(dp133
g14
F-16.0
sg15
F-102.63157894736837
sg16
I4818793
sg8
I00
sg17
S'104910.068655'
p134
sg19
g23
sbasg24
I00
sg25
I00
sg26
I4818699
sg17
S'104910.132727'
p135
sba(igraph
Edge
p136
(dp137
g7
I1
sg8
I00
sg9
I5
sg10
(lp138
g132
a(igraph
Vertex
p139
(dp140
g14
F-16.0
sg15
F-86.842105263157833
sg16
I4818794
sg8
I00
sg17
S'104910.069054'
p141
sg19
g23
sbasg24
I00
sg25
I00
sg26
I4818700
sg17
S'104910.133527'
p142
sba(igraph
Edge
p143
(dp144
g7
I1
sg8
I00
sg9
I5
sg10
(lp145
g139
a(igraph
Vertex
p146
(dp147
g14
F-16.0
sg15
F-71.052631578947313
sg16
I4818795
sg8
I00
sg17
S'104910.069488'
p148
sg19
g23
sbasg24
I00
sg25
I00
sg26
I4818701
sg17
S'104910.13436'
p149
sba(igraph
Edge
p150
(dp151
g7
I1
sg8
I00
sg9
I5
sg10
(lp152
g146
a(igraph
Vertex
p153
(dp154
g14
F-16.0
sg15
F-55.263157894736793
sg16
I4818796
sg8
I00
sg17
S'104910.070238'
p155
sg19
I0
sbasg24
I00
sg25
I00
sg26
I4818702
sg17
S'104910.13523'
p156
sba(igraph
Edge
p157
(dp158
g7
I1
sg8
I00
sg9
I5
sg10
(lp159
g153
a(igraph
Vertex
p160
(dp161
g14
F-16.0
sg15
F-39.473684210526258
sg16
I4818798
sg8
I00
sg17
S'104910.070702'
p162
sg19
g23
sbasg24
I00
sg25
I00
sg26
I4818703
sg17
S'104910.136156'
p163
sba(igraph
Edge
p164
(dp165
g7
I1
sg8
I00
sg9
I5
sg10
(lp166
g160
a(igraph
Vertex
p167
(dp168
g14
F-16.0
sg15
F-23.684210526315738
sg16
I4818799
sg8
I00
sg17
S'104910.071169'
p169
sg19
g23
sbasg24
I00
sg25
I00
sg26
I4818704
sg17
S'104910.137096'
p170
sba(igraph
Edge
p171
(dp172
g7
I1
sg8
I00
sg9
I5
sg10
(lp173
g167
a(igraph
Vertex
p174
(dp175
g14
F-16.0
sg15
F-7.8947368421052033
sg16
I4818800
sg8
I00
sg17
S'104910.071771'
p176
sg19
g23
sbasg24
I00
sg25
I00
sg26
I4818705
sg17
S'104910.138082'
p177
sba(igraph
Edge
p178
(dp179
g7
I1
sg8
I00
sg9
I5
sg10
(lp180
g174
a(igraph
Vertex
p181
(dp182
g14
F-16.0
sg15
F7.894736842105317
sg16
I4818801
sg8
I00
sg17
S'104910.072286'
p183
sg19
I0
sbasg24
I00
sg25
I00
sg26
I4818706
sg17
S'104910.139071'
p184
sba(igraph
Edge
p185
(dp186
g7
I1
sg8
I00
sg9
I5
sg10
(lp187
g181
a(igraph
Vertex
p188
(dp189
g14
F-16.0
sg15
F23.684210526315866
sg16
I4818803
sg8
I00
sg17
S'104910.072862'
p190
sg19
g23
sbasg24
I00
sg25
I00
sg26
I4818707
sg17
S'104910.140131'
p191
sba(igraph
Edge
p192
(dp193
g7
I1
sg8
I00
sg9
I5
sg10
(lp194
g188
a(igraph
Vertex
p195
(dp196
g14
F-16.0
sg15
F39.473684210526358
sg16
I4818804
sg8
I00
sg17
S'104910.073402'
p197
sg19
g23
sbasg24
I00
sg25
I00
sg26
I4818708
sg17
S'104910.141232'
p198
sba(igraph
Edge
p199
(dp200
g7
I1
sg8
I00
sg9
I5
sg10
(lp201
g195
a(igraph
Vertex
p202
(dp203
g14
F-16.0
sg15
F55.263157894736878
sg16
I4818805
sg8
I00
sg17
S'104910.07396'
p204
sg19
g23
sbasg24
I00
sg25
I00
sg26
I4818709
sg17
S'104910.14239'
p205
sba(igraph
Edge
p206
(dp207
g7
I1
sg8
I00
sg9
I5
sg10
(lp208
(igraph
Vertex
p209
(dp210
g14
F17.0
sg15
F-149.99999999999994
sg16
I4818806
sg8
I00
sg17
S'104910.07857'
p211
sg19
g23
sba(igraph
Vertex
p212
(dp213
g14
F17.0
sg15
F-134.21052631578942
sg16
I4818807
sg8
I00
sg17
S'104910.079257'
p214
sg19
g23
sbasg24
I00
sg25
I00
sg26
I4818710
sg17
S'104910.152684'
p215
sba(igraph
Edge
p216
(dp217
g7
I1
sg8
I00
sg9
I5
sg10
(lp218
g212
a(igraph
Vertex
p219
(dp220
g14
F17.0
sg15
F-118.42105263157889
sg16
I4818808
sg8
I00
sg17
S'104910.07996'
p221
sg19
g23
sbasg24
I00
sg25
I00
sg26
I4818711
sg17
S'104910.154064'
p222
sba(igraph
Edge
p223
(dp224
g7
I1
sg8
I00
sg9
I5
sg10
(lp225
g219
a(igraph
Vertex
p226
(dp227
g14
F17.0
sg15
F-102.63157894736837
sg16
I4818809
sg8
I00
sg17
S'104910.080685'
p228
sg19
g23
sbasg24
I00
sg25
I00
sg26
I4818712
sg17
S'104910.155513'
p229
sba(igraph
Edge
p230
(dp231
g7
I1
sg8
I00
sg9
I5
sg10
(lp232
g226
a(igraph
Vertex
p233
(dp234
g14
F17.0
sg15
F-86.842105263157833
sg16
I4818810
sg8
I00
sg17
S'104910.082483'
p235
sg19
g23
sbasg24
I00
sg25
I00
sg26
I4818713
sg17
S'104910.156953'
p236
sba(igraph
Edge
p237
(dp238
g7
I1
sg8
I00
sg9
I5
sg10
(lp239
g233
a(igraph
Vertex
p240
(dp241
g14
F17.0
sg15
F-71.052631578947313
sg16
I4818811
sg8
I00
sg17
S'104910.083268'
p242
sg19
g23
sbasg24
I00
sg25
I00
sg26
I4818714
sg17
S'104910.158598'
p243
sba(igraph
Edge
p244
(dp245
g7
I1
sg8
I00
sg9
I5
sg10
(lp246
g240
a(igraph
Vertex
p247
(dp248
g14
F17.0
sg15
F-55.263157894736793
sg16
I4818812
sg8
I00
sg17
S'104910.084163'
p249
sg19
g23
sbasg24
I00
sg25
I00
sg26
I4818715
sg17
S'104910.160231'
p250
sba(igraph
Edge
p251
(dp252
g7
I1
sg8
I00
sg9
I5
sg10
(lp253
g247
a(igraph
Vertex
p254
(dp255
g14
F17.0
sg15
F-39.473684210526258
sg16
I4818813
sg8
I00
sg17
S'104910.08498'
p256
sg19
g23
sbasg24
I00
sg25
I00
sg26
I4818716
sg17
S'104910.161786'
p257
sba(igraph
Edge
p258
(dp259
g7
I1
sg8
I00
sg9
I5
sg10
(lp260
g254
a(igraph
Vertex
p261
(dp262
g14
F17.0
sg15
F-23.684210526315738
sg16
I4818814
sg8
I00
sg17
S'104910.085805'
p263
sg19
g23
sbasg24
I00
sg25
I00
sg26
I4818717
sg17
S'104910.16351'
p264
sba(igraph
Edge
p265
(dp266
g7
I1
sg8
I00
sg9
I5
sg10
(lp267
g261
a(igraph
Vertex
p268
(dp269
g14
F17.0
sg15
F-7.8947368421052033
sg16
I4818815
sg8
I00
sg17
S'104910.086645'
p270
sg19
g23
sbasg24
I00
sg25
I00
sg26
I4818718
sg17
S'104910.165145'
p271
sba(igraph
Edge
p272
(dp273
g7
I1
sg8
I00
sg9
I5
sg10
(lp274
g268
a(igraph
Vertex
p275
(dp276
g14
F17.0
sg15
F7.894736842105317
sg16
I4818816
sg8
I00
sg17
S'104910.087555'
p277
sg19
g23
sbasg24
I00
sg25
I00
sg26
I4818719
sg17
S'104910.166789'
p278
sba(igraph
Edge
p279
(dp280
g7
I1
sg8
I00
sg9
I5
sg10
(lp281
g275
a(igraph
Vertex
p282
(dp283
g14
F17.0
sg15
F23.684210526315866
sg16
I4818817
sg8
I00
sg17
S'104910.08845'
p284
sg19
g23
sbasg24
I00
sg25
I00
sg26
I4818720
sg17
S'104910.168487'
p285
sba(igraph
Edge
p286
(dp287
g7
I1
sg8
I00
sg9
I5
sg10
(lp288
g282
a(igraph
Vertex
p289
(dp290
g14
F17.0
sg15
F39.473684210526358
sg16
I4818818
sg8
I00
sg17
S'104910.08936'
p291
sg19
g23
sbasg24
I00
sg25
I00
sg26
I4818721
sg17
S'104910.170243'
p292
sba(igraph
Edge
p293
(dp294
g7
I1
sg8
I00
sg9
I5
sg10
(lp295
g289
a(igraph
Vertex
p296
(dp297
g14
F17.0
sg15
F55.263157894736878
sg16
I4818819
sg8
I00
sg17
S'104910.09028'
p298
sg19
I0
sbasg24
I00
sg25
I00
sg26
I4818722
sg17
S'104910.172299'
p299
sba(igraph
Edge
p300
(dp301
g7
I1
sg8
I00
sg9
I5
sg10
(lp302
(igraph
Vertex
p303
(dp304
g14
F50.0
sg15
F-149.99999999999994
sg16
I4818821
sg8
I00
sg17
S'104910.097505'
p305
sg19
g23
sba(igraph
Vertex
p306
(dp307
g14
F50.0
sg15
F-134.21052631578942
sg16
I4818822
sg8
I00
sg17
S'104910.098635'
p308
sg19
I0
sbasg24
I00
sg25
I00
sg26
I4818723
sg17
S'104910.190119'
p309
sba(igraph
Edge
p310
(dp311
g7
I1
sg8
I00
sg9
I5
sg10
(lp312
g306
a(igraph
Vertex
p313
(dp314
g14
F50.0
sg15
F-118.42105263157889
sg16
I4818824
sg8
I00
sg17
S'104910.099782'
p315
sg19
g23
sbasg24
I00
sg25
I00
sg26
I4818724
sg17
S'104910.192484'
p316
sba(igraph
Edge
p317
(dp318
g7
I1
sg8
I00
sg9
I5
sg10
(lp319
g313
a(igraph
Vertex
p320
(dp321
g14
F50.0
sg15
F-102.63157894736837
sg16
I4818825
sg8
I00
sg17
S'104910.100851'
p322
sg19
g23
sbasg24
I00
sg25
I00
sg26
I4818725
sg17
S'104910.194547'
p323
sba(igraph
Edge
p324
(dp325
g7
I1
sg8
I00
sg9
I5
sg10
(lp326
g320
a(igraph
Vertex
p327
(dp328
g14
F50.0
sg15
F-86.842105263157833
sg16
I4818826
sg8
I00
sg17
S'104910.101969'
p329
sg19
g23
sbasg24
I00
sg25
I00
sg26
I4818726
sg17
S'104910.19663'
p330
sba(igraph
Edge
p331
(dp332
g7
I1
sg8
I00
sg9
I5
sg10
(lp333
g327
a(igraph
Vertex
p334
(dp335
g14
F50.0
sg15
F-71.052631578947313
sg16
I4818827
sg8
I00
sg17
S'104910.103096'
p336
sg19
I0
sbasg24
I00
sg25
I00
sg26
I4818727
sg17
S'104910.198976'
p337
sba(igraph
Edge
p338
(dp339
g7
I1
sg8
I00
sg9
I5
sg10
(lp340
g334
a(igraph
Vertex
p341
(dp342
g14
F50.0
sg15
F-55.263157894736793
sg16
I4818829
sg8
I00
sg17
S'104910.104226'
p343
sg19
g23
sbasg24
I00
sg25
I00
sg26
I4818728
sg17
S'104910.201233'
p344
sba(igraph
Edge
p345
(dp346
g7
I1
sg8
I00
sg9
I5
sg10
(lp347
g341
a(igraph
Vertex
p348
(dp349
g14
F50.0
sg15
F-39.473684210526258
sg16
I4818830
sg8
I00
sg17
S'104910.105778'
p350
sg19
g23
sbasg24
I00
sg25
I00
sg26
I4818729
sg17
S'104910.203459'
p351
sba(igraph
Edge
p352
(dp353
g7
I1
sg8
I00
sg9
I5
sg10
(lp354
g348
a(igraph
Vertex
p355
(dp356
g14
F50.0
sg15
F-23.684210526315738
sg16
I4818831
sg8
I00
sg17
S'104910.106962'
p357
sg19
g23
sbasg24
I00
sg25
I00
sg26
I4818730
sg17
S'104910.205231'
p358
sba(igraph
Edge
p359
(dp360
g7
I1
sg8
I00
sg9
I5
sg10
(lp361
g355
a(igraph
Vertex
p362
(dp363
g14
F50.0
sg15
F-7.8947368421052033
sg16
I4818832
sg8
I00
sg17
S'104910.10816'
p364
sg19
I0
sbasg24
I00
sg25
I00
sg26
I4818731
sg17
S'104910.206267'
p365
sba(igraph
Edge
p366
(dp367
g7
I1
sg8
I00
sg9
I5
sg10
(lp368
g362
a(igraph
Vertex
p369
(dp370
g14
F50.0
sg15
F7.894736842105317
sg16
I4818834
sg8
I00
sg17
S'104910.109479'
p371
sg19
g23
sbasg24
I00
sg25
I00
sg26
I4818732
sg17
S'104910.207316'
p372
sba(igraph
Edge
p373
(dp374
g7
I1
sg8
I00
sg9
I5
sg10
(lp375
g369
a(igraph
Vertex
p376
(dp377
g14
F50.0
sg15
F23.684210526315866
sg16
I4818835
sg8
I00
sg17
S'104910.110789'
p378
sg19
g23
sbasg24
I00
sg25
I00
sg26
I4818733
sg17
S'104910.208391'
p379
sba(igraph
Edge
p380
(dp381
g7
I1
sg8
I00
sg9
I5
sg10
(lp382
g376
a(igraph
Vertex
p383
(dp384
g14
F50.0
sg15
F39.473684210526358
sg16
I4818836
sg8
I00
sg17
S'104910.112024'
p385
sg19
g23
sbasg24
I00
sg25
I00
sg26
I4818734
sg17
S'104910.209494'
p386
sba(igraph
Edge
p387
(dp388
g7
I1
sg8
I00
sg9
I5
sg10
(lp389
g383
a(igraph
Vertex
p390
(dp391
g14
F50.0
sg15
F55.263157894736878
sg16
I4818837
sg8
I00
sg17
S'104910.113261'
p392
sg19
I0
sbasg24
I00
sg25
I00
sg26
I4818735
sg17
S'104910.210585'
p393
sba(igraph
Edge
p394
(dp395
g7
I1
sg8
I00
sg9
I5
sg10
(lp396
g12
ag118
asg24
I00
sg25
I00
sg26
I4818736
sg17
S'104910.219904'
p397
sba(igraph
Edge
p398
(dp399
g7
I1
sg8
I00
sg9
I5
sg10
(lp400
g31
ag132
asg24
I00
sg25
I00
sg26
I4818737
sg17
S'104910.221112'
p401
sba(igraph
Edge
p402
(dp403
g7
I1
sg8
I00
sg9
I5
sg10
(lp404
g45
ag146
asg24
I00
sg25
I00
sg26
I4818738
sg17
S'104910.222351'
p405
sba(igraph
Edge
p406
(dp407
g7
I1
sg8
I00
sg9
I5
sg10
(lp408
g59
ag160
asg24
I00
sg25
I00
sg26
I4818739
sg17
S'104910.223643'
p409
sba(igraph
Edge
p410
(dp411
g7
I1
sg8
I00
sg9
I5
sg10
(lp412
g73
ag174
asg24
I00
sg25
I00
sg26
I4818740
sg17
S'104910.224903'
p413
sba(igraph
Edge
p414
(dp415
g7
I1
sg8
I00
sg9
I5
sg10
(lp416
g87
ag188
asg24
I00
sg25
I00
sg26
I4818741
sg17
S'104910.226203'
p417
sba(igraph
Edge
p418
(dp419
g7
I1
sg8
I00
sg9
I5
sg10
(lp420
g101
ag202
asg24
I00
sg25
I00
sg26
I4818742
sg17
S'104910.227538'
p421
sba(igraph
Edge
p422
(dp423
g7
I1
sg8
I00
sg9
I5
sg10
(lp424
g20
ag303
asg24
I00
sg25
I00
sg26
I4818743
sg17
S'104910.232897'
p425
sba(igraph
Edge
p426
(dp427
g7
I1
sg8
I00
sg9
I5
sg10
(lp428
g38
ag313
asg24
I00
sg25
I00
sg26
I4818744
sg17
S'104910.234292'
p429
sba(igraph
Edge
p430
(dp431
g7
I1
sg8
I00
sg9
I5
sg10
(lp432
g52
ag327
asg24
I00
sg25
I00
sg26
I4818745
sg17
S'104910.23568'
p433
sba(igraph
Edge
p434
(dp435
g7
I1
sg8
I00
sg9
I5
sg10
(lp436
g66
ag341
asg24
I00
sg25
I00
sg26
I4818746
sg17
S'104910.237062'
p437
sba(igraph
Edge
p438
(dp439
g7
I1
sg8
I00
sg9
I5
sg10
(lp440
g80
ag355
asg24
I00
sg25
I00
sg26
I4818747
sg17
S'104910.23846'
p441
sba(igraph
Edge
p442
(dp443
g7
I1
sg8
I00
sg9
I5
sg10
(lp444
g94
ag369
asg24
I00
sg25
I00
sg26
I4818748
sg17
S'104910.239913'
p445
sba(igraph
Edge
p446
(dp447
g7
I1
sg8
I00
sg9
I5
sg10
(lp448
g108
ag383
asg24
I00
sg25
I00
sg26
I4818749
sg17
S'104910.241356'
p449
sba(igraph
Edge
p450
(dp451
g7
I1
sg8
I00
sg9
I5
sg10
(lp452
g115
ag212
asg24
I00
sg25
I00
sg26
I4818750
sg17
S'104910.247526'
p453
sba(igraph
Edge
p454
(dp455
g7
I1
sg8
I00
sg9
I5
sg10
(lp456
g125
ag226
asg24
I00
sg25
I00
sg26
I4818751
sg17
S'104910.249062'
p457
sba(igraph
Edge
p458
(dp459
g7
I1
sg8
I00
sg9
I5
sg10
(lp460
g139
ag240
asg24
I00
sg25
I00
sg26
I4818752
sg17
S'104910.250592'
p461
sba(igraph
Edge
p462
(dp463
g7
I1
sg8
I00
sg9
I5
sg10
(lp464
g153
ag254
asg24
I00
sg25
I00
sg26
I4818753
sg17
S'104910.252261'
p465
sba(igraph
Edge
p466
(dp467
g7
I1
sg8
I00
sg9
I5
sg10
(lp468
g167
ag268
asg24
I00
sg25
I00
sg26
I4818754
sg17
S'104910.253829'
p469
sba(igraph
Edge
p470
(dp471
g7
I1
sg8
I00
sg9
I5
sg10
(lp472
g181
ag282
asg24
I00
sg25
I00
sg26
I4818755
sg17
S'104910.255473'
p473
sba(igraph
Edge
p474
(dp475
g7
I1
sg8
I00
sg9
I5
sg10
(lp476
g195
ag296
asg24
I00
sg25
I00
sg26
I4818756
sg17
S'104910.257066'
p477
sba(igraph
Edge
p478
(dp479
g7
I1
sg8
I00
sg9
I5
sg10
(lp480
g209
ag306
asg24
I00
sg25
I00
sg26
I4818757
sg17
S'104910.263716'
p481
sba(igraph
Edge
p482
(dp483
g7
I1
sg8
I00
sg9
I5
sg10
(lp484
g219
ag320
asg24
I00
sg25
I00
sg26
I4818758
sg17
S'104910.265362'
p485
sba(igraph
Edge
p486
(dp487
g7
I1
sg8
I00
sg9
I5
sg10
(lp488
g233
ag334
asg24
I00
sg25
I00
sg26
I4818759
sg17
S'104910.267141'
p489
sba(igraph
Edge
p490
(dp491
g7
I1
sg8
I00
sg9
I5
sg10
(lp492
g247
ag348
asg24
I00
sg25
I00
sg26
I4818760
sg17
S'104910.268834'
p493
sba(igraph
Edge
p494
(dp495
g7
I1
sg8
I00
sg9
I5
sg10
(lp496
g261
ag362
asg24
I00
sg25
I00
sg26
I4818761
sg17
S'104910.270639'
p497
sba(igraph
Edge
p498
(dp499
g7
I1
sg8
I00
sg9
I5
sg10
(lp500
g275
ag376
asg24
I00
sg25
I00
sg26
I4818762
sg17
S'104910.27236'
p501
sba(igraph
Edge
p502
(dp503
g7
I1
sg8
I00
sg9
I5
sg10
(lp504
g289
ag390
asg24
I00
sg25
I00
sg26
I4818763
sg17
S'104910.274184'
p505
sba(igraph
Edge
p506
(dp507
g7
I1
sg8
I00
sg9
I5
sg10
(lp508
g303
ag390
asg24
I00
sg25
I00
sg26
I4818764
sg17
S'105715.006276'
p509
sba(igraph
Edge
p510
(dp511
g7
I1
sg8
I00
sg9
I5
sg10
(lp512
g209
ag296
asg24
I00
sg25
I00
sg26
I4818765
sg17
S'105718.196958'
p513
sba(igraph
Edge
p514
(dp515
g7
I1
sg8
I00
sg9
I5
sg10
(lp516
g202
ag115
asg24
I00
sg25
I00
sg26
I4818766
sg17
S'105721.493096'
p517
sba(igraph
Edge
p518
(dp519
g7
I1
sg8
I00
sg9
I5
sg10
(lp520
g12
ag108
asg24
I00
sg25
I00
sg26
I4818767
sg17
S'105725.650977'
p521
sbasS'vertices'
p522
(lp523
g12
ag20
ag31
ag38
ag45
ag52
ag59
ag66
ag73
ag80
ag87
ag94
ag101
ag108
ag115
ag118
ag125
ag132
ag139
ag146
ag153
ag160
ag167
ag174
ag181
ag188
ag195
ag202
ag209
ag212
ag219
ag226
ag233
ag240
ag247
ag254
ag261
ag268
ag275
ag282
ag289
ag296
ag303
ag306
ag313
ag320
ag327
ag334
ag341
ag348
ag355
ag362
ag369
ag376
ag383
ag390
asS'tags'
p524
(lp525
sb.