(igraph
Graph
p0
(dp1
S'labelingConstraints'
p2
I-1
sS'edges'
p3
(lp4
(igraph
Edge
p5
(dp6
S'direction'
p7
I1
sS'selected'
p8
I00
sS'height'
p9
I5
sS'vs'
p10
(lp11
(igraph
Vertex
p12
(dp13
S'y'
p14
F-49.0
sS'x'
p15
F-149.99999999999994
sS'circle'
p16
I4797128
sg8
I01
sS'id'
p17
S'104910.063637'
p18
sS'label'
p19
I0
sba(igraph
Vertex
p20
(dp21
g14
F-49.0
sg15
F-134.21052631578942
sg16
I4797130
sg8
I00
sg17
S'104910.063676'
p22
sg19
S'NULL'
p23
sbasS'wrap'
p24
I00
sS'curved'
p25
I00
sS'line'
p26
I4797031
sg17
S'104910.122874'
p27
sba(igraph
Edge
p28
(dp29
g7
I1
sg8
I00
sg9
I5
sg10
(lp30
g20
a(igraph
Vertex
p31
(dp32
g14
F-49.0
sg15
F-118.42105263157889
sg16
I4797132
sg8
I01
sg17
S'104910.063722'
p33
sg19
I0
sbasg24
I00
sg25
I00
sg26
I4797032
sg17
S'104910.122975'
p34
sba(igraph
Edge
p35
(dp36
g7
I1
sg8
I00
sg9
I5
sg10
(lp37
g31
a(igraph
Vertex
p38
(dp39
g14
F-49.0
sg15
F-102.63157894736837
sg16
I4797134
sg8
I00
sg17
S'104910.063778'
p40
sg19
g23
sbasg24
I00
sg25
I00
sg26
I4797033
sg17
S'104910.123115'
p41
sba(igraph
Edge
p42
(dp43
g7
I1
sg8
I00
sg9
I5
sg10
(lp44
g38
a(igraph
Vertex
p45
(dp46
g14
F-49.0
sg15
F-86.842105263157833
sg16
I4797136
sg8
I01
sg17
S'104910.063848'
p47
sg19
I0
sbasg24
I00
sg25
I00
sg26
I4797034
sg17
S'104910.123271'
p48
sba(igraph
Edge
p49
(dp50
g7
I1
sg8
I00
sg9
I5
sg10
(lp51
g45
a(igraph
Vertex
p52
(dp53
g14
F-49.0
sg15
F-71.052631578947313
sg16
I4797138
sg8
I00
sg17
S'104910.063933'
p54
sg19
g23
sbasg24
I00
sg25
I00
sg26
I4797035
sg17
S'104910.123456'
p55
sba(igraph
Edge
p56
(dp57
g7
I1
sg8
I00
sg9
I5
sg10
(lp58
g52
a(igraph
Vertex
p59
(dp60
g14
F-49.0
sg15
F-55.263157894736793
sg16
I4797140
sg8
I01
sg17
S'104910.064036'
p61
sg19
I0
sbasg24
I00
sg25
I00
sg26
I4797036
sg17
S'104910.123676'
p62
sba(igraph
Edge
p63
(dp64
g7
I1
sg8
I00
sg9
I5
sg10
(lp65
g59
a(igraph
Vertex
p66
(dp67
g14
F-49.0
sg15
F-39.473684210526258
sg16
I4797142
sg8
I00
sg17
S'104910.064154'
p68
sg19
g23
sbasg24
I00
sg25
I00
sg26
I4797037
sg17
S'104910.123927'
p69
sba(igraph
Edge
p70
(dp71
g7
I1
sg8
I00
sg9
I5
sg10
(lp72
g66
a(igraph
Vertex
p73
(dp74
g14
F-49.0
sg15
F-23.684210526315738
sg16
I4797144
sg8
I01
sg17
S'104910.064298'
p75
sg19
I0
sbasg24
I00
sg25
I00
sg26
I4797038
sg17
S'104910.124249'
p76
sba(igraph
Edge
p77
(dp78
g7
I1
sg8
I00
sg9
I5
sg10
(lp79
g73
a(igraph
Vertex
p80
(dp81
g14
F-49.0
sg15
F-7.8947368421052033
sg16
I4797146
sg8
I00
sg17
S'104910.064457'
p82
sg19
g23
sbasg24
I00
sg25
I00
sg26
I4797039
sg17
S'104910.124561'
p83
sba(igraph
Edge
p84
(dp85
g7
I1
sg8
I00
sg9
I5
sg10
(lp86
g80
a(igraph
Vertex
p87
(dp88
g14
F-49.0
sg15
F7.894736842105317
sg16
I4797148
sg8
I01
sg17
S'104910.064624'
p89
sg19
I0
sbasg24
I00
sg25
I00
sg26
I4797040
sg17
S'104910.124904'
p90
sba(igraph
Edge
p91
(dp92
g7
I1
sg8
I00
sg9
I5
sg10
(lp93
g87
a(igraph
Vertex
p94
(dp95
g14
F-49.0
sg15
F23.684210526315866
sg16
I4797150
sg8
I00
sg17
S'104910.064807'
p96
sg19
g23
sbasg24
I00
sg25
I00
sg26
I4797041
sg17
S'104910.125344'
p97
sba(igraph
Edge
p98
(dp99
g7
I1
sg8
I00
sg9
I5
sg10
(lp100
g94
a(igraph
Vertex
p101
(dp102
g14
F-49.0
sg15
F39.473684210526358
sg16
I4797152
sg8
I01
sg17
S'104910.065008'
p103
sg19
I0
sbasg24
I00
sg25
I00
sg26
I4797042
sg17
S'104910.125753'
p104
sba(igraph
Edge
p105
(dp106
g7
I1
sg8
I00
sg9
I5
sg10
(lp107
g101
a(igraph
Vertex
p108
(dp109
g14
F-49.0
sg15
F55.263157894736878
sg16
I4797154
sg8
I00
sg17
S'104910.065224'
p110
sg19
g23
sbasg24
I00
sg25
I00
sg26
I4797043
sg17
S'104910.126359'
p111
sba(igraph
Edge
p112
(dp113
g7
I1
sg8
I00
sg9
I5
sg10
(lp114
g108
a(igraph
Vertex
p115
(dp116
g14
F-49.0
sg15
F71.05263157894737
sg16
I4797156
sg8
I01
sg17
S'104910.065703'
p117
sg19
I0
sbasg24
I00
sg25
I00
sg26
I4797044
sg17
S'104910.126841'
p118
sba(igraph
Edge
p119
(dp120
g7
I1
sg8
I00
sg9
I5
sg10
(lp121
g115
a(igraph
Vertex
p122
(dp123
g14
F-49.0
sg15
F86.84210526315789
sg16
I4797158
sg8
I00
sg17
S'104910.065961'
p124
sg19
g23
sbasg24
I00
sg25
I00
sg26
I4797045
sg17
S'104910.127348'
p125
sba(igraph
Edge
p126
(dp127
g7
I1
sg8
I00
sg9
I5
sg10
(lp128
(igraph
Vertex
p129
(dp130
g14
F-16.0
sg15
F-149.99999999999994
sg16
I4797159
sg8
I00
sg17
S'104910.067538'
p131
sg19
g23
sba(igraph
Vertex
p132
(dp133
g14
F-16.0
sg15
F-134.21052631578942
sg16
I4797160
sg8
I00
sg17
S'104910.067887'
p134
sg19
g23
sbasg24
I00
sg25
I00
sg26
I4797046
sg17
S'104910.131185'
p135
sba(igraph
Edge
p136
(dp137
g7
I1
sg8
I00
sg9
I5
sg10
(lp138
g132
a(igraph
Vertex
p139
(dp140
g14
F-16.0
sg15
F-118.42105263157889
sg16
I4797162
sg8
I01
sg17
S'104910.06826'
p141
sg19
I0
sbasg24
I00
sg25
I00
sg26
I4797047
sg17
S'104910.131949'
p142
sba(igraph
Edge
p143
(dp144
g7
I1
sg8
I00
sg9
I5
sg10
(lp145
g139
a(igraph
Vertex
p146
(dp147
g14
F-16.0
sg15
F-102.63157894736837
sg16
I4797164
sg8
I00
sg17
S'104910.068655'
p148
sg19
g23
sbasg24
I00
sg25
I00
sg26
I4797048
sg17
S'104910.132727'
p149
sba(igraph
Edge
p150
(dp151
g7
I1
sg8
I00
sg9
I5
sg10
(lp152
g146
a(igraph
Vertex
p153
(dp154
g14
F-16.0
sg15
F-86.842105263157833
sg16
I4797165
sg8
I00
sg17
S'104910.069054'
p155
sg19
g23
sbasg24
I00
sg25
I00
sg26
I4797049
sg17
S'104910.133527'
p156
sba(igraph
Edge
p157
(dp158
g7
I1
sg8
I00
sg9
I5
sg10
(lp159
g153
a(igraph
Vertex
p160
(dp161
g14
F-16.0
sg15
F-71.052631578947313
sg16
I4797166
sg8
I00
sg17
S'104910.069488'
p162
sg19
g23
sbasg24
I00
sg25
I00
sg26
I4797050
sg17
S'104910.13436'
p163
sba(igraph
Edge
p164
(dp165
g7
I1
sg8
I00
sg9
I5
sg10
(lp166
g160
a(igraph
Vertex
p167
(dp168
g14
F-16.0
sg15
F-55.263157894736793
sg16
I4797168
sg8
I01
sg17
S'104910.070238'
p169
sg19
I0
sbasg24
I00
sg25
I00
sg26
I4797051
sg17
S'104910.13523'
p170
sba(igraph
Edge
p171
(dp172
g7
I1
sg8
I00
sg9
I5
sg10
(lp173
g167
a(igraph
Vertex
p174
(dp175
g14
F-16.0
sg15
F-39.473684210526258
sg16
I4797170
sg8
I00
sg17
S'104910.070702'
p176
sg19
g23
sbasg24
I00
sg25
I00
sg26
I4797052
sg17
S'104910.136156'
p177
sba(igraph
Edge
p178
(dp179
g7
I1
sg8
I00
sg9
I5
sg10
(lp180
g174
a(igraph
Vertex
p181
(dp182
g14
F-16.0
sg15
F-23.684210526315738
sg16
I4797171
sg8
I00
sg17
S'104910.071169'
p183
sg19
g23
sbasg24
I00
sg25
I00
sg26
I4797053
sg17
S'104910.137096'
p184
sba(igraph
Edge
p185
(dp186
g7
I1
sg8
I00
sg9
I5
sg10
(lp187
g181
a(igraph
Vertex
p188
(dp189
g14
F-16.0
sg15
F-7.8947368421052033
sg16
I4797172
sg8
I00
sg17
S'104910.071771'
p190
sg19
g23
sbasg24
I00
sg25
I00
sg26
I4797054
sg17
S'104910.138082'
p191
sba(igraph
Edge
p192
(dp193
g7
I1
sg8
I00
sg9
I5
sg10
(lp194
g188
a(igraph
Vertex
p195
(dp196
g14
F-16.0
sg15
F7.894736842105317
sg16
I4797174
sg8
I01
sg17
S'104910.072286'
p197
sg19
I0
sbasg24
I00
sg25
I00
sg26
I4797055
sg17
S'104910.139071'
p198
sba(igraph
Edge
p199
(dp200
g7
I1
sg8
I00
sg9
I5
sg10
(lp201
g195
a(igraph
Vertex
p202
(dp203
g14
F-16.0
sg15
F23.684210526315866
sg16
I4797176
sg8
I00
sg17
S'104910.072862'
p204
sg19
g23
sbasg24
I00
sg25
I00
sg26
I4797056
sg17
S'104910.140131'
p205
sba(igraph
Edge
p206
(dp207
g7
I1
sg8
I00
sg9
I5
sg10
(lp208
g202
a(igraph
Vertex
p209
(dp210
g14
F-16.0
sg15
F39.473684210526358
sg16
I4797177
sg8
I00
sg17
S'104910.073402'
p211
sg19
g23
sbasg24
I00
sg25
I00
sg26
I4797057
sg17
S'104910.141232'
p212
sba(igraph
Edge
p213
(dp214
g7
I1
sg8
I00
sg9
I5
sg10
(lp215
g209
a(igraph
Vertex
p216
(dp217
g14
F-16.0
sg15
F55.263157894736878
sg16
I4797178
sg8
I00
sg17
S'104910.07396'
p218
sg19
g23
sbasg24
I00
sg25
I00
sg26
I4797058
sg17
S'104910.14239'
p219
sba(igraph
Edge
p220
(dp221
g7
I1
sg8
I00
sg9
I5
sg10
(lp222
g216
a(igraph
Vertex
p223
(dp224
g14
F-16.0
sg15
F71.05263157894737
sg16
I4797180
sg8
I01
sg17
S'104910.074575'
p225
sg19
I0
sbasg24
I00
sg25
I00
sg26
I4797059
sg17
S'104910.143583'
p226
sba(igraph
Edge
p227
(dp228
g7
I1
sg8
I00
sg9
I5
sg10
(lp229
g223
a(igraph
Vertex
p230
(dp231
g14
F-16.0
sg15
F86.84210526315789
sg16
I4797182
sg8
I00
sg17
S'104910.075273'
p232
sg19
g23
sbasg24
I00
sg25
I00
sg26
I4797060
sg17
S'104910.14477'
p233
sba(igraph
Edge
p234
(dp235
g7
I1
sg8
I00
sg9
I5
sg10
(lp236
(igraph
Vertex
p237
(dp238
g14
F17.0
sg15
F-149.99999999999994
sg16
I4797183
sg8
I00
sg17
S'104910.07857'
p239
sg19
g23
sba(igraph
Vertex
p240
(dp241
g14
F17.0
sg15
F-134.21052631578942
sg16
I4797185
sg8
I01
sg17
S'104910.079257'
p242
sg19
I0
sbasg24
I00
sg25
I00
sg26
I4797061
sg17
S'104910.152684'
p243
sba(igraph
Edge
p244
(dp245
g7
I1
sg8
I00
sg9
I5
sg10
(lp246
g240
a(igraph
Vertex
p247
(dp248
g14
F17.0
sg15
F-118.42105263157889
sg16
I4797187
sg8
I00
sg17
S'104910.07996'
p249
sg19
g23
sbasg24
I00
sg25
I00
sg26
I4797062
sg17
S'104910.154064'
p250
sba(igraph
Edge
p251
(dp252
g7
I1
sg8
I00
sg9
I5
sg10
(lp253
g247
a(igraph
Vertex
p254
(dp255
g14
F17.0
sg15
F-102.63157894736837
sg16
I4797188
sg8
I00
sg17
S'104910.080685'
p256
sg19
g23
sbasg24
I00
sg25
I00
sg26
I4797063
sg17
S'104910.155513'
p257
sba(igraph
Edge
p258
(dp259
g7
I1
sg8
I00
sg9
I5
sg10
(lp260
g254
a(igraph
Vertex
p261
(dp262
g14
F17.0
sg15
F-86.842105263157833
sg16
I4797189
sg8
I00
sg17
S'104910.082483'
p263
sg19
g23
sbasg24
I00
sg25
I00
sg26
I4797064
sg17
S'104910.156953'
p264
sba(igraph
Edge
p265
(dp266
g7
I1
sg8
I00
sg9
I5
sg10
(lp267
g261
a(igraph
Vertex
p268
(dp269
g14
F17.0
sg15
F-71.052631578947313
sg16
I4797190
sg8
I00
sg17
S'104910.083268'
p270
sg19
g23
sbasg24
I00
sg25
I00
sg26
I4797065
sg17
S'104910.158598'
p271
sba(igraph
Edge
p272
(dp273
g7
I1
sg8
I00
sg9
I5
sg10
(lp274
g268
a(igraph
Vertex
p275
(dp276
g14
F17.0
sg15
F-55.263157894736793
sg16
I4797191
sg8
I00
sg17
S'104910.084163'
p277
sg19
g23
sbasg24
I00
sg25
I00
sg26
I4797066
sg17
S'104910.160231'
p278
sba(igraph
Edge
p279
(dp280
g7
I1
sg8
I00
sg9
I5
sg10
(lp281
g275
a(igraph
Vertex
p282
(dp283
g14
F17.0
sg15
F-39.473684210526258
sg16
I4797192
sg8
I00
sg17
S'104910.08498'
p284
sg19
g23
sbasg24
I00
sg25
I00
sg26
I4797067
sg17
S'104910.161786'
p285
sba(igraph
Edge
p286
(dp287
g7
I1
sg8
I00
sg9
I5
sg10
(lp288
g282
a(igraph
Vertex
p289
(dp290
g14
F17.0
sg15
F-23.684210526315738
sg16
I4797193
sg8
I00
sg17
S'104910.085805'
p291
sg19
g23
sbasg24
I00
sg25
I00
sg26
I4797068
sg17
S'104910.16351'
p292
sba(igraph
Edge
p293
(dp294
g7
I1
sg8
I00
sg9
I5
sg10
(lp295
g289
a(igraph
Vertex
p296
(dp297
g14
F17.0
sg15
F-7.8947368421052033
sg16
I4797194
sg8
I00
sg17
S'104910.086645'
p298
sg19
g23
sbasg24
I00
sg25
I00
sg26
I4797069
sg17
S'104910.165145'
p299
sba(igraph
Edge
p300
(dp301
g7
I1
sg8
I00
sg9
I5
sg10
(lp302
g296
a(igraph
Vertex
p303
(dp304
g14
F17.0
sg15
F7.894736842105317
sg16
I4797195
sg8
I00
sg17
S'104910.087555'
p305
sg19
g23
sbasg24
I00
sg25
I00
sg26
I4797070
sg17
S'104910.166789'
p306
sba(igraph
Edge
p307
(dp308
g7
I1
sg8
I00
sg9
I5
sg10
(lp309
g303
a(igraph
Vertex
p310
(dp311
g14
F17.0
sg15
F23.684210526315866
sg16
I4797196
sg8
I00
sg17
S'104910.08845'
p312
sg19
g23
sbasg24
I00
sg25
I00
sg26
I4797071
sg17
S'104910.168487'
p313
sba(igraph
Edge
p314
(dp315
g7
I1
sg8
I00
sg9
I5
sg10
(lp316
g310
a(igraph
Vertex
p317
(dp318
g14
F17.0
sg15
F39.473684210526358
sg16
I4797197
sg8
I00
sg17
S'104910.08936'
p319
sg19
g23
sbasg24
I00
sg25
I00
sg26
I4797072
sg17
S'104910.170243'
p320
sba(igraph
Edge
p321
(dp322
g7
I1
sg8
I00
sg9
I5
sg10
(lp323
g317
a(igraph
Vertex
p324
(dp325
g14
F17.0
sg15
F55.263157894736878
sg16
I4797198
sg8
I00
sg17
S'104910.09028'
p326
sg19
g23
sbasg24
I00
sg25
I00
sg26
I4797073
sg17
S'104910.172299'
p327
sba(igraph
Edge
p328
(dp329
g7
I1
sg8
I00
sg9
I5
sg10
(lp330
g324
a(igraph
Vertex
p331
(dp332
g14
F17.0
sg15
F71.05263157894737
sg16
I4797199
sg8
I00
sg17
S'104910.091249'
p333
sg19
g23
sbasg24
I00
sg25
I00
sg26
I4797074
sg17
S'104910.176069'
p334
sba(igraph
Edge
p335
(dp336
g7
I1
sg8
I00
sg9
I5
sg10
(lp337
g331
a(igraph
Vertex
p338
(dp339
g14
F17.0
sg15
F86.84210526315789
sg16
I4797200
sg8
I00
sg17
S'104910.0924'
p340
sg19
g23
sbasg24
I00
sg25
I00
sg26
I4797075
sg17
S'104910.178025'
p341
sba(igraph
Edge
p342
(dp343
g7
I1
sg8
I00
sg9
I5
sg10
(lp344
(igraph
Vertex
p345
(dp346
g14
F50.0
sg15
F-149.99999999999994
sg16
I4797201
sg8
I00
sg17
S'104910.097505'
p347
sg19
g23
sba(igraph
Vertex
p348
(dp349
g14
F50.0
sg15
F-134.21052631578942
sg16
I4797203
sg8
I01
sg17
S'104910.098635'
p350
sg19
I0
sbasg24
I00
sg25
I00
sg26
I4797076
sg17
S'104910.190119'
p351
sba(igraph
Edge
p352
(dp353
g7
I1
sg8
I00
sg9
I5
sg10
(lp354
g348
a(igraph
Vertex
p355
(dp356
g14
F50.0
sg15
F-118.42105263157889
sg16
I4797205
sg8
I00
sg17
S'104910.099782'
p357
sg19
g23
sbasg24
I00
sg25
I00
sg26
I4797077
sg17
S'104910.192484'
p358
sba(igraph
Edge
p359
(dp360
g7
I1
sg8
I00
sg9
I5
sg10
(lp361
g355
a(igraph
Vertex
p362
(dp363
g14
F50.0
sg15
F-102.63157894736837
sg16
I4797206
sg8
I00
sg17
S'104910.100851'
p364
sg19
g23
sbasg24
I00
sg25
I00
sg26
I4797078
sg17
S'104910.194547'
p365
sba(igraph
Edge
p366
(dp367
g7
I1
sg8
I00
sg9
I5
sg10
(lp368
g362
a(igraph
Vertex
p369
(dp370
g14
F50.0
sg15
F-86.842105263157833
sg16
I4797207
sg8
I00
sg17
S'104910.101969'
p371
sg19
g23
sbasg24
I00
sg25
I00
sg26
I4797079
sg17
S'104910.19663'
p372
sba(igraph
Edge
p373
(dp374
g7
I1
sg8
I00
sg9
I5
sg10
(lp375
g369
a(igraph
Vertex
p376
(dp377
g14
F50.0
sg15
F-71.052631578947313
sg16
I4797209
sg8
I01
sg17
S'104910.103096'
p378
sg19
I0
sbasg24
I00
sg25
I00
sg26
I4797080
sg17
S'104910.198976'
p379
sba(igraph
Edge
p380
(dp381
g7
I1
sg8
I00
sg9
I5
sg10
(lp382
g376
a(igraph
Vertex
p383
(dp384
g14
F50.0
sg15
F-55.263157894736793
sg16
I4797211
sg8
I00
sg17
S'104910.104226'
p385
sg19
g23
sbasg24
I00
sg25
I00
sg26
I4797081
sg17
S'104910.201233'
p386
sba(igraph
Edge
p387
(dp388
g7
I1
sg8
I00
sg9
I5
sg10
(lp389
g383
a(igraph
Vertex
p390
(dp391
g14
F50.0
sg15
F-39.473684210526258
sg16
I4797212
sg8
I00
sg17
S'104910.105778'
p392
sg19
g23
sbasg24
I00
sg25
I00
sg26
I4797082
sg17
S'104910.203459'
p393
sba(igraph
Edge
p394
(dp395
g7
I1
sg8
I00
sg9
I5
sg10
(lp396
g390
a(igraph
Vertex
p397
(dp398
g14
F50.0
sg15
F-23.684210526315738
sg16
I4797213
sg8
I00
sg17
S'104910.106962'
p399
sg19
g23
sbasg24
I00
sg25
I00
sg26
I4797083
sg17
S'104910.205231'
p400
sba(igraph
Edge
p401
(dp402
g7
I1
sg8
I00
sg9
I5
sg10
(lp403
g397
a(igraph
Vertex
p404
(dp405
g14
F50.0
sg15
F-7.8947368421052033
sg16
I4797215
sg8
I01
sg17
S'104910.10816'
p406
sg19
I0
sbasg24
I00
sg25
I00
sg26
I4797084
sg17
S'104910.206267'
p407
sba(igraph
Edge
p408
(dp409
g7
I1
sg8
I00
sg9
I5
sg10
(lp410
g404
a(igraph
Vertex
p411
(dp412
g14
F50.0
sg15
F7.894736842105317
sg16
I4797217
sg8
I00
sg17
S'104910.109479'
p413
sg19
g23
sbasg24
I00
sg25
I00
sg26
I4797085
sg17
S'104910.207316'
p414
sba(igraph
Edge
p415
(dp416
g7
I1
sg8
I00
sg9
I5
sg10
(lp417
g411
a(igraph
Vertex
p418
(dp419
g14
F50.0
sg15
F23.684210526315866
sg16
I4797218
sg8
I00
sg17
S'104910.110789'
p420
sg19
g23
sbasg24
I00
sg25
I00
sg26
I4797086
sg17
S'104910.208391'
p421
sba(igraph
Edge
p422
(dp423
g7
I1
sg8
I00
sg9
I5
sg10
(lp424
g418
a(igraph
Vertex
p425
(dp426
g14
F50.0
sg15
F39.473684210526358
sg16
I4797219
sg8
I00
sg17
S'104910.112024'
p427
sg19
g23
sbasg24
I00
sg25
I00
sg26
I4797087
sg17
S'104910.209494'
p428
sba(igraph
Edge
p429
(dp430
g7
I1
sg8
I00
sg9
I5
sg10
(lp431
g425
a(igraph
Vertex
p432
(dp433
g14
F50.0
sg15
F55.263157894736878
sg16
I4797221
sg8
I01
sg17
S'104910.113261'
p434
sg19
I0
sbasg24
I00
sg25
I00
sg26
I4797088
sg17
S'104910.210585'
p435
sba(igraph
Edge
p436
(dp437
g7
I1
sg8
I00
sg9
I5
sg10
(lp438
g432
a(igraph
Vertex
p439
(dp440
g14
F50.0
sg15
F71.05263157894737
sg16
I4797223
sg8
I00
sg17
S'104910.11467'
p441
sg19
g23
sbasg24
I00
sg25
I00
sg26
I4797089
sg17
S'104910.211684'
p442
sba(igraph
Edge
p443
(dp444
g7
I1
sg8
I00
sg9
I5
sg10
(lp445
g439
a(igraph
Vertex
p446
(dp447
g14
F50.0
sg15
F86.84210526315789
sg16
I4797224
sg8
I00
sg17
S'104910.115963'
p448
sg19
g23
sbasg24
I00
sg25
I00
sg26
I4797090
sg17
S'104910.212846'
p449
sba(igraph
Edge
p450
(dp451
g7
I1
sg8
I00
sg9
I5
sg10
(lp452
g12
ag132
asg24
I00
sg25
I00
sg26
I4797091
sg17
S'104910.219904'
p453
sba(igraph
Edge
p454
(dp455
g7
I1
sg8
I00
sg9
I5
sg10
(lp456
g31
ag146
asg24
I00
sg25
I00
sg26
I4797092
sg17
S'104910.221112'
p457
sba(igraph
Edge
p458
(dp459
g7
I1
sg8
I00
sg9
I5
sg10
(lp460
g45
ag160
asg24
I00
sg25
I00
sg26
I4797093
sg17
S'104910.222351'
p461
sba(igraph
Edge
p462
(dp463
g7
I1
sg8
I00
sg9
I5
sg10
(lp464
g59
ag174
asg24
I00
sg25
I00
sg26
I4797094
sg17
S'104910.223643'
p465
sba(igraph
Edge
p466
(dp467
g7
I1
sg8
I00
sg9
I5
sg10
(lp468
g73
ag188
asg24
I00
sg25
I00
sg26
I4797095
sg17
S'104910.224903'
p469
sba(igraph
Edge
p470
(dp471
g7
I1
sg8
I00
sg9
I5
sg10
(lp472
g87
ag202
asg24
I00
sg25
I00
sg26
I4797096
sg17
S'104910.226203'
p473
sba(igraph
Edge
p474
(dp475
g7
I1
sg8
I00
sg9
I5
sg10
(lp476
g101
ag216
asg24
I00
sg25
I00
sg26
I4797097
sg17
S'104910.227538'
p477
sba(igraph
Edge
p478
(dp479
g7
I1
sg8
I00
sg9
I5
sg10
(lp480
g115
ag230
asg24
I00
sg25
I00
sg26
I4797098
sg17
S'104910.228878'
p481
sba(igraph
Edge
p482
(dp483
g7
I1
sg8
I00
sg9
I5
sg10
(lp484
g20
ag345
asg24
I00
sg25
I00
sg26
I4797099
sg17
S'104910.232897'
p485
sba(igraph
Edge
p486
(dp487
g7
I1
sg8
I00
sg9
I5
sg10
(lp488
g38
ag355
asg24
I00
sg25
I00
sg26
I4797100
sg17
S'104910.234292'
p489
sba(igraph
Edge
p490
(dp491
g7
I1
sg8
I00
sg9
I5
sg10
(lp492
g52
ag369
asg24
I00
sg25
I00
sg26
I4797101
sg17
S'104910.23568'
p493
sba(igraph
Edge
p494
(dp495
g7
I1
sg8
I00
sg9
I5
sg10
(lp496
g66
ag383
asg24
I00
sg25
I00
sg26
I4797102
sg17
S'104910.237062'
p497
sba(igraph
Edge
p498
(dp499
g7
I1
sg8
I00
sg9
I5
sg10
(lp500
g80
ag397
asg24
I00
sg25
I00
sg26
I4797103
sg17
S'104910.23846'
p501
sba(igraph
Edge
p502
(dp503
g7
I1
sg8
I00
sg9
I5
sg10
(lp504
g94
ag411
asg24
I00
sg25
I00
sg26
I4797104
sg17
S'104910.239913'
p505
sba(igraph
Edge
p506
(dp507
g7
I1
sg8
I00
sg9
I5
sg10
(lp508
g108
ag425
asg24
I00
sg25
I00
sg26
I4797105
sg17
S'104910.241356'
p509
sba(igraph
Edge
p510
(dp511
g7
I1
sg8
I00
sg9
I5
sg10
(lp512
g122
ag439
asg24
I00
sg25
I00
sg26
I4797106
sg17
S'104910.242833'
p513
sba(igraph
Edge
p514
(dp515
g7
I1
sg8
I00
sg9
I5
sg10
(lp516
g129
ag240
asg24
I00
sg25
I00
sg26
I4797107
sg17
S'104910.247526'
p517
sba(igraph
Edge
p518
(dp519
g7
I1
sg8
I00
sg9
I5
sg10
(lp520
g139
ag254
asg24
I00
sg25
I00
sg26
I4797108
sg17
S'104910.249062'
p521
sba(igraph
Edge
p522
(dp523
g7
I1
sg8
I00
sg9
I5
sg10
(lp524
g153
ag268
asg24
I00
sg25
I00
sg26
I4797109
sg17
S'104910.250592'
p525
sba(igraph
Edge
p526
(dp527
g7
I1
sg8
I00
sg9
I5
sg10
(lp528
g167
ag282
asg24
I00
sg25
I00
sg26
I4797110
sg17
S'104910.252261'
p529
sba(igraph
Edge
p530
(dp531
g7
I1
sg8
I00
sg9
I5
sg10
(lp532
g181
ag296
asg24
I00
sg25
I00
sg26
I4797111
sg17
S'104910.253829'
p533
sba(igraph
Edge
p534
(dp535
g7
I1
sg8
I00
sg9
I5
sg10
(lp536
g195
ag310
asg24
I00
sg25
I00
sg26
I4797112
sg17
S'104910.255473'
p537
sba(igraph
Edge
p538
(dp539
g7
I1
sg8
I00
sg9
I5
sg10
(lp540
g209
ag324
asg24
I00
sg25
I00
sg26
I4797113
sg17
S'104910.257066'
p541
sba(igraph
Edge
p542
(dp543
g7
I1
sg8
I00
sg9
I5
sg10
(lp544
g223
ag338
asg24
I00
sg25
I00
sg26
I4797114
sg17
S'104910.258661'
p545
sba(igraph
Edge
p546
(dp547
g7
I1
sg8
I00
sg9
I5
sg10
(lp548
g237
ag348
asg24
I00
sg25
I00
sg26
I4797115
sg17
S'104910.263716'
p549
sba(igraph
Edge
p550
(dp551
g7
I1
sg8
I00
sg9
I5
sg10
(lp552
g247
ag362
asg24
I00
sg25
I00
sg26
I4797116
sg17
S'104910.265362'
p553
sba(igraph
Edge
p554
(dp555
g7
I1
sg8
I00
sg9
I5
sg10
(lp556
g261
ag376
asg24
I00
sg25
I00
sg26
I4797117
sg17
S'104910.267141'
p557
sba(igraph
Edge
p558
(dp559
g7
I1
sg8
I00
sg9
I5
sg10
(lp560
g275
ag390
asg24
I00
sg25
I00
sg26
I4797118
sg17
S'104910.268834'
p561
sba(igraph
Edge
p562
(dp563
g7
I1
sg8
I00
sg9
I5
sg10
(lp564
g289
ag404
asg24
I00
sg25
I00
sg26
I4797119
sg17
S'104910.270639'
p565
sba(igraph
Edge
p566
(dp567
g7
I1
sg8
I00
sg9
I5
sg10
(lp568
g303
ag418
asg24
I00
sg25
I00
sg26
I4797120
sg17
S'104910.27236'
p569
sba(igraph
Edge
p570
(dp571
g7
I1
sg8
I00
sg9
I5
sg10
(lp572
g317
ag432
asg24
I00
sg25
I00
sg26
I4797121
sg17
S'104910.274184'
p573
sba(igraph
Edge
p574
(dp575
g7
I1
sg8
I00
sg9
I5
sg10
(lp576
g331
ag446
asg24
I00
sg25
I00
sg26
I4797122
sg17
S'104910.276256'
p577
sba(igraph
Edge
p578
(dp579
g7
I1
sg8
I00
sg9
I5
sg10
(lp580
g345
ag446
asg24
I00
sg25
I00
sg26
I4797123
sg17
S'105462.895386'
p581
sba(igraph
Edge
p582
(dp583
g7
I1
sg8
I00
sg9
I5
sg10
(lp584
g237
ag338
asg24
I00
sg25
I00
sg26
I4797124
sg17
S'105467.143543'
p585
sba(igraph
Edge
p586
(dp587
g7
I1
sg8
I00
sg9
I5
sg10
(lp588
g129
ag230
asg24
I00
sg25
I00
sg26
I4797125
sg17
S'105471.282737'
p589
sba(igraph
Edge
p590
(dp591
g7
I1
sg8
I00
sg9
I5
sg10
(lp592
g12
ag122
asg24
I00
sg25
I00
sg26
I4797126
sg17
S'105475.456364'
p593
sbasS'vertices'
p594
(lp595
g12
ag20
ag31
ag38
ag45
ag52
ag59
ag66
ag73
ag80
ag87
ag94
ag101
ag108
ag115
ag122
ag129
ag132
ag139
ag146
ag153
ag160
ag167
ag174
ag181
ag188
ag195
ag202
ag209
ag216
ag223
ag230
ag237
ag240
ag247
ag254
ag261
ag268
ag275
ag282
ag289
ag296
ag303
ag310
ag317
ag324
ag331
ag338
ag345
ag348
ag355
ag362
ag369
ag376
ag383
ag390
ag397
ag404
ag411
ag418
ag425
ag432
ag439
ag446
asS'tags'
p596
(lp597
sb.