(igraph
Graph
p0
(dp1
S'labelingConstraints'
p2
I-1
sS'edges'
p3
(lp4
(igraph
Edge
p5
(dp6
S'direction'
p7
I1
sS'selected'
p8
I00
sS'height'
p9
I5
sS'vs'
p10
(lp11
(igraph
Vertex
p12
(dp13
S'y'
p14
F-49.0
sS'x'
p15
F-149.99999999999994
sS'circle'
p16
I4769576
sg8
I01
sS'id'
p17
S'104910.063637'
p18
sS'label'
p19
I0
sba(igraph
Vertex
p20
(dp21
g14
F-49.0
sg15
F-134.21052631578942
sg16
I4769578
sg8
I00
sg17
S'104910.063676'
p22
sg19
S'NULL'
p23
sbasS'wrap'
p24
I00
sS'curved'
p25
I00
sS'line'
p26
I4769467
sg17
S'104910.122874'
p27
sba(igraph
Edge
p28
(dp29
g7
I1
sg8
I00
sg9
I5
sg10
(lp30
g20
a(igraph
Vertex
p31
(dp32
g14
F-49.0
sg15
F-118.42105263157889
sg16
I4769580
sg8
I01
sg17
S'104910.063722'
p33
sg19
I0
sbasg24
I00
sg25
I00
sg26
I4769468
sg17
S'104910.122975'
p34
sba(igraph
Edge
p35
(dp36
g7
I1
sg8
I00
sg9
I5
sg10
(lp37
g31
a(igraph
Vertex
p38
(dp39
g14
F-49.0
sg15
F-102.63157894736837
sg16
I4769582
sg8
I00
sg17
S'104910.063778'
p40
sg19
g23
sbasg24
I00
sg25
I00
sg26
I4769469
sg17
S'104910.123115'
p41
sba(igraph
Edge
p42
(dp43
g7
I1
sg8
I00
sg9
I5
sg10
(lp44
g38
a(igraph
Vertex
p45
(dp46
g14
F-49.0
sg15
F-86.842105263157833
sg16
I4769584
sg8
I01
sg17
S'104910.063848'
p47
sg19
I0
sbasg24
I00
sg25
I00
sg26
I4769470
sg17
S'104910.123271'
p48
sba(igraph
Edge
p49
(dp50
g7
I1
sg8
I00
sg9
I5
sg10
(lp51
g45
a(igraph
Vertex
p52
(dp53
g14
F-49.0
sg15
F-71.052631578947313
sg16
I4769586
sg8
I00
sg17
S'104910.063933'
p54
sg19
g23
sbasg24
I00
sg25
I00
sg26
I4769471
sg17
S'104910.123456'
p55
sba(igraph
Edge
p56
(dp57
g7
I1
sg8
I00
sg9
I5
sg10
(lp58
g52
a(igraph
Vertex
p59
(dp60
g14
F-49.0
sg15
F-55.263157894736793
sg16
I4769588
sg8
I01
sg17
S'104910.064036'
p61
sg19
I0
sbasg24
I00
sg25
I00
sg26
I4769472
sg17
S'104910.123676'
p62
sba(igraph
Edge
p63
(dp64
g7
I1
sg8
I00
sg9
I5
sg10
(lp65
g59
a(igraph
Vertex
p66
(dp67
g14
F-49.0
sg15
F-39.473684210526258
sg16
I4769590
sg8
I00
sg17
S'104910.064154'
p68
sg19
g23
sbasg24
I00
sg25
I00
sg26
I4769473
sg17
S'104910.123927'
p69
sba(igraph
Edge
p70
(dp71
g7
I1
sg8
I00
sg9
I5
sg10
(lp72
g66
a(igraph
Vertex
p73
(dp74
g14
F-49.0
sg15
F-23.684210526315738
sg16
I4769592
sg8
I01
sg17
S'104910.064298'
p75
sg19
I0
sbasg24
I00
sg25
I00
sg26
I4769474
sg17
S'104910.124249'
p76
sba(igraph
Edge
p77
(dp78
g7
I1
sg8
I00
sg9
I5
sg10
(lp79
g73
a(igraph
Vertex
p80
(dp81
g14
F-49.0
sg15
F-7.8947368421052033
sg16
I4769594
sg8
I00
sg17
S'104910.064457'
p82
sg19
g23
sbasg24
I00
sg25
I00
sg26
I4769475
sg17
S'104910.124561'
p83
sba(igraph
Edge
p84
(dp85
g7
I1
sg8
I00
sg9
I5
sg10
(lp86
g80
a(igraph
Vertex
p87
(dp88
g14
F-49.0
sg15
F7.894736842105317
sg16
I4769596
sg8
I01
sg17
S'104910.064624'
p89
sg19
I0
sbasg24
I00
sg25
I00
sg26
I4769476
sg17
S'104910.124904'
p90
sba(igraph
Edge
p91
(dp92
g7
I1
sg8
I00
sg9
I5
sg10
(lp93
g87
a(igraph
Vertex
p94
(dp95
g14
F-49.0
sg15
F23.684210526315866
sg16
I4769598
sg8
I00
sg17
S'104910.064807'
p96
sg19
g23
sbasg24
I00
sg25
I00
sg26
I4769477
sg17
S'104910.125344'
p97
sba(igraph
Edge
p98
(dp99
g7
I1
sg8
I00
sg9
I5
sg10
(lp100
g94
a(igraph
Vertex
p101
(dp102
g14
F-49.0
sg15
F39.473684210526358
sg16
I4769600
sg8
I01
sg17
S'104910.065008'
p103
sg19
I0
sbasg24
I00
sg25
I00
sg26
I4769478
sg17
S'104910.125753'
p104
sba(igraph
Edge
p105
(dp106
g7
I1
sg8
I00
sg9
I5
sg10
(lp107
g101
a(igraph
Vertex
p108
(dp109
g14
F-49.0
sg15
F55.263157894736878
sg16
I4769602
sg8
I00
sg17
S'104910.065224'
p110
sg19
g23
sbasg24
I00
sg25
I00
sg26
I4769479
sg17
S'104910.126359'
p111
sba(igraph
Edge
p112
(dp113
g7
I1
sg8
I00
sg9
I5
sg10
(lp114
g108
a(igraph
Vertex
p115
(dp116
g14
F-49.0
sg15
F71.05263157894737
sg16
I4769604
sg8
I01
sg17
S'104910.065703'
p117
sg19
I0
sbasg24
I00
sg25
I00
sg26
I4769480
sg17
S'104910.126841'
p118
sba(igraph
Edge
p119
(dp120
g7
I1
sg8
I00
sg9
I5
sg10
(lp121
g115
a(igraph
Vertex
p122
(dp123
g14
F-49.0
sg15
F86.84210526315789
sg16
I4769606
sg8
I00
sg17
S'104910.065961'
p124
sg19
g23
sbasg24
I00
sg25
I00
sg26
I4769481
sg17
S'104910.127348'
p125
sba(igraph
Edge
p126
(dp127
g7
I1
sg8
I00
sg9
I5
sg10
(lp128
g122
a(igraph
Vertex
p129
(dp130
g14
F-49.0
sg15
F102.63157894736841
sg16
I4769608
sg8
I01
sg17
S'104910.066228'
p131
sg19
I0
sbasg24
I00
sg25
I00
sg26
I4769482
sg17
S'104910.127879'
p132
sba(igraph
Edge
p133
(dp134
g7
I1
sg8
I00
sg9
I5
sg10
(lp135
g129
a(igraph
Vertex
p136
(dp137
g14
F-49.0
sg15
F118.4210526315789
sg16
I4769610
sg8
I00
sg17
S'104910.066532'
p138
sg19
g23
sbasg24
I00
sg25
I00
sg26
I4769483
sg17
S'104910.12845'
p139
sba(igraph
Edge
p140
(dp141
g7
I1
sg8
I00
sg9
I5
sg10
(lp142
(igraph
Vertex
p143
(dp144
g14
F-16.0
sg15
F-149.99999999999994
sg16
I4769611
sg8
I00
sg17
S'104910.067538'
p145
sg19
g23
sba(igraph
Vertex
p146
(dp147
g14
F-16.0
sg15
F-134.21052631578942
sg16
I4769612
sg8
I00
sg17
S'104910.067887'
p148
sg19
g23
sbasg24
I00
sg25
I00
sg26
I4769484
sg17
S'104910.131185'
p149
sba(igraph
Edge
p150
(dp151
g7
I1
sg8
I00
sg9
I5
sg10
(lp152
g146
a(igraph
Vertex
p153
(dp154
g14
F-16.0
sg15
F-118.42105263157889
sg16
I4769613
sg8
I00
sg17
S'104910.06826'
p155
sg19
g23
sbasg24
I00
sg25
I00
sg26
I4769485
sg17
S'104910.131949'
p156
sba(igraph
Edge
p157
(dp158
g7
I1
sg8
I00
sg9
I5
sg10
(lp159
g153
a(igraph
Vertex
p160
(dp161
g14
F-16.0
sg15
F-102.63157894736837
sg16
I4769614
sg8
I00
sg17
S'104910.068655'
p162
sg19
g23
sbasg24
I00
sg25
I00
sg26
I4769486
sg17
S'104910.132727'
p163
sba(igraph
Edge
p164
(dp165
g7
I1
sg8
I00
sg9
I5
sg10
(lp166
g160
a(igraph
Vertex
p167
(dp168
g14
F-16.0
sg15
F-86.842105263157833
sg16
I4769615
sg8
I00
sg17
S'104910.069054'
p169
sg19
g23
sbasg24
I00
sg25
I00
sg26
I4769487
sg17
S'104910.133527'
p170
sba(igraph
Edge
p171
(dp172
g7
I1
sg8
I00
sg9
I5
sg10
(lp173
g167
a(igraph
Vertex
p174
(dp175
g14
F-16.0
sg15
F-71.052631578947313
sg16
I4769616
sg8
I00
sg17
S'104910.069488'
p176
sg19
g23
sbasg24
I00
sg25
I00
sg26
I4769488
sg17
S'104910.13436'
p177
sba(igraph
Edge
p178
(dp179
g7
I1
sg8
I00
sg9
I5
sg10
(lp180
g174
a(igraph
Vertex
p181
(dp182
g14
F-16.0
sg15
F-55.263157894736793
sg16
I4769618
sg8
I01
sg17
S'104910.070238'
p183
sg19
I0
sbasg24
I00
sg25
I00
sg26
I4769489
sg17
S'104910.13523'
p184
sba(igraph
Edge
p185
(dp186
g7
I1
sg8
I00
sg9
I5
sg10
(lp187
g181
a(igraph
Vertex
p188
(dp189
g14
F-16.0
sg15
F-39.473684210526258
sg16
I4769620
sg8
I00
sg17
S'104910.070702'
p190
sg19
g23
sbasg24
I00
sg25
I00
sg26
I4769490
sg17
S'104910.136156'
p191
sba(igraph
Edge
p192
(dp193
g7
I1
sg8
I00
sg9
I5
sg10
(lp194
g188
a(igraph
Vertex
p195
(dp196
g14
F-16.0
sg15
F-23.684210526315738
sg16
I4769621
sg8
I00
sg17
S'104910.071169'
p197
sg19
g23
sbasg24
I00
sg25
I00
sg26
I4769491
sg17
S'104910.137096'
p198
sba(igraph
Edge
p199
(dp200
g7
I1
sg8
I00
sg9
I5
sg10
(lp201
g195
a(igraph
Vertex
p202
(dp203
g14
F-16.0
sg15
F-7.8947368421052033
sg16
I4769622
sg8
I00
sg17
S'104910.071771'
p204
sg19
g23
sbasg24
I00
sg25
I00
sg26
I4769492
sg17
S'104910.138082'
p205
sba(igraph
Edge
p206
(dp207
g7
I1
sg8
I00
sg9
I5
sg10
(lp208
g202
a(igraph
Vertex
p209
(dp210
g14
F-16.0
sg15
F7.894736842105317
sg16
I4769623
sg8
I00
sg17
S'104910.072286'
p211
sg19
g23
sbasg24
I00
sg25
I00
sg26
I4769493
sg17
S'104910.139071'
p212
sba(igraph
Edge
p213
(dp214
g7
I1
sg8
I00
sg9
I5
sg10
(lp215
g209
a(igraph
Vertex
p216
(dp217
g14
F-16.0
sg15
F23.684210526315866
sg16
I4769624
sg8
I00
sg17
S'104910.072862'
p218
sg19
g23
sbasg24
I00
sg25
I00
sg26
I4769494
sg17
S'104910.140131'
p219
sba(igraph
Edge
p220
(dp221
g7
I1
sg8
I00
sg9
I5
sg10
(lp222
g216
a(igraph
Vertex
p223
(dp224
g14
F-16.0
sg15
F39.473684210526358
sg16
I4769625
sg8
I00
sg17
S'104910.073402'
p225
sg19
g23
sbasg24
I00
sg25
I00
sg26
I4769495
sg17
S'104910.141232'
p226
sba(igraph
Edge
p227
(dp228
g7
I1
sg8
I00
sg9
I5
sg10
(lp229
g223
a(igraph
Vertex
p230
(dp231
g14
F-16.0
sg15
F55.263157894736878
sg16
I4769626
sg8
I00
sg17
S'104910.07396'
p232
sg19
g23
sbasg24
I00
sg25
I00
sg26
I4769496
sg17
S'104910.14239'
p233
sba(igraph
Edge
p234
(dp235
g7
I1
sg8
I00
sg9
I5
sg10
(lp236
g230
a(igraph
Vertex
p237
(dp238
g14
F-16.0
sg15
F71.05263157894737
sg16
I4769627
sg8
I00
sg17
S'104910.074575'
p239
sg19
g23
sbasg24
I00
sg25
I00
sg26
I4769497
sg17
S'104910.143583'
p240
sba(igraph
Edge
p241
(dp242
g7
I1
sg8
I00
sg9
I5
sg10
(lp243
g237
a(igraph
Vertex
p244
(dp245
g14
F-16.0
sg15
F86.84210526315789
sg16
I4769628
sg8
I00
sg17
S'104910.075273'
p246
sg19
g23
sbasg24
I00
sg25
I00
sg26
I4769498
sg17
S'104910.14477'
p247
sba(igraph
Edge
p248
(dp249
g7
I1
sg8
I00
sg9
I5
sg10
(lp250
g244
a(igraph
Vertex
p251
(dp252
g14
F-16.0
sg15
F102.63157894736841
sg16
I4769629
sg8
I00
sg17
S'104910.075878'
p253
sg19
g23
sbasg24
I00
sg25
I00
sg26
I4769499
sg17
S'104910.145993'
p254
sba(igraph
Edge
p255
(dp256
g7
I1
sg8
I00
sg9
I5
sg10
(lp257
g251
a(igraph
Vertex
p258
(dp259
g14
F-16.0
sg15
F118.4210526315789
sg16
I4769630
sg8
I00
sg17
S'104910.076516'
p260
sg19
g23
sbasg24
I00
sg25
I00
sg26
I4769500
sg17
S'104910.147377'
p261
sba(igraph
Edge
p262
(dp263
g7
I1
sg8
I00
sg9
I5
sg10
(lp264
(igraph
Vertex
p265
(dp266
g14
F17.0
sg15
F-149.99999999999994
sg16
I4769631
sg8
I00
sg17
S'104910.07857'
p267
sg19
g23
sba(igraph
Vertex
p268
(dp269
g14
F17.0
sg15
F-134.21052631578942
sg16
I4769633
sg8
I01
sg17
S'104910.079257'
p270
sg19
I0
sbasg24
I00
sg25
I00
sg26
I4769501
sg17
S'104910.152684'
p271
sba(igraph
Edge
p272
(dp273
g7
I1
sg8
I00
sg9
I5
sg10
(lp274
g268
a(igraph
Vertex
p275
(dp276
g14
F17.0
sg15
F-118.42105263157889
sg16
I4769635
sg8
I00
sg17
S'104910.07996'
p277
sg19
g23
sbasg24
I00
sg25
I00
sg26
I4769502
sg17
S'104910.154064'
p278
sba(igraph
Edge
p279
(dp280
g7
I1
sg8
I00
sg9
I5
sg10
(lp281
g275
a(igraph
Vertex
p282
(dp283
g14
F17.0
sg15
F-102.63157894736837
sg16
I4769637
sg8
I01
sg17
S'104910.080685'
p284
sg19
I0
sbasg24
I00
sg25
I00
sg26
I4769503
sg17
S'104910.155513'
p285
sba(igraph
Edge
p286
(dp287
g7
I1
sg8
I00
sg9
I5
sg10
(lp288
g282
a(igraph
Vertex
p289
(dp290
g14
F17.0
sg15
F-86.842105263157833
sg16
I4769639
sg8
I00
sg17
S'104910.082483'
p291
sg19
g23
sbasg24
I00
sg25
I00
sg26
I4769504
sg17
S'104910.156953'
p292
sba(igraph
Edge
p293
(dp294
g7
I1
sg8
I00
sg9
I5
sg10
(lp295
g289
a(igraph
Vertex
p296
(dp297
g14
F17.0
sg15
F-71.052631578947313
sg16
I4769641
sg8
I01
sg17
S'104910.083268'
p298
sg19
I0
sbasg24
I00
sg25
I00
sg26
I4769505
sg17
S'104910.158598'
p299
sba(igraph
Edge
p300
(dp301
g7
I1
sg8
I00
sg9
I5
sg10
(lp302
g296
a(igraph
Vertex
p303
(dp304
g14
F17.0
sg15
F-55.263157894736793
sg16
I4769643
sg8
I00
sg17
S'104910.084163'
p305
sg19
g23
sbasg24
I00
sg25
I00
sg26
I4769506
sg17
S'104910.160231'
p306
sba(igraph
Edge
p307
(dp308
g7
I1
sg8
I00
sg9
I5
sg10
(lp309
g303
a(igraph
Vertex
p310
(dp311
g14
F17.0
sg15
F-39.473684210526258
sg16
I4769645
sg8
I01
sg17
S'104910.08498'
p312
sg19
I0
sbasg24
I00
sg25
I00
sg26
I4769507
sg17
S'104910.161786'
p313
sba(igraph
Edge
p314
(dp315
g7
I1
sg8
I00
sg9
I5
sg10
(lp316
g310
a(igraph
Vertex
p317
(dp318
g14
F17.0
sg15
F-23.684210526315738
sg16
I4769647
sg8
I00
sg17
S'104910.085805'
p319
sg19
g23
sbasg24
I00
sg25
I00
sg26
I4769508
sg17
S'104910.16351'
p320
sba(igraph
Edge
p321
(dp322
g7
I1
sg8
I00
sg9
I5
sg10
(lp323
g317
a(igraph
Vertex
p324
(dp325
g14
F17.0
sg15
F-7.8947368421052033
sg16
I4769649
sg8
I01
sg17
S'104910.086645'
p326
sg19
I0
sbasg24
I00
sg25
I00
sg26
I4769509
sg17
S'104910.165145'
p327
sba(igraph
Edge
p328
(dp329
g7
I1
sg8
I00
sg9
I5
sg10
(lp330
g324
a(igraph
Vertex
p331
(dp332
g14
F17.0
sg15
F7.894736842105317
sg16
I4769651
sg8
I00
sg17
S'104910.087555'
p333
sg19
g23
sbasg24
I00
sg25
I00
sg26
I4769510
sg17
S'104910.166789'
p334
sba(igraph
Edge
p335
(dp336
g7
I1
sg8
I00
sg9
I5
sg10
(lp337
g331
a(igraph
Vertex
p338
(dp339
g14
F17.0
sg15
F23.684210526315866
sg16
I4769653
sg8
I01
sg17
S'104910.08845'
p340
sg19
I0
sbasg24
I00
sg25
I00
sg26
I4769511
sg17
S'104910.168487'
p341
sba(igraph
Edge
p342
(dp343
g7
I1
sg8
I00
sg9
I5
sg10
(lp344
g338
a(igraph
Vertex
p345
(dp346
g14
F17.0
sg15
F39.473684210526358
sg16
I4769655
sg8
I00
sg17
S'104910.08936'
p347
sg19
g23
sbasg24
I00
sg25
I00
sg26
I4769512
sg17
S'104910.170243'
p348
sba(igraph
Edge
p349
(dp350
g7
I1
sg8
I00
sg9
I5
sg10
(lp351
g345
a(igraph
Vertex
p352
(dp353
g14
F17.0
sg15
F55.263157894736878
sg16
I4769657
sg8
I01
sg17
S'104910.09028'
p354
sg19
I0
sbasg24
I00
sg25
I00
sg26
I4769513
sg17
S'104910.172299'
p355
sba(igraph
Edge
p356
(dp357
g7
I1
sg8
I00
sg9
I5
sg10
(lp358
g352
a(igraph
Vertex
p359
(dp360
g14
F17.0
sg15
F71.05263157894737
sg16
I4769659
sg8
I00
sg17
S'104910.091249'
p361
sg19
g23
sbasg24
I00
sg25
I00
sg26
I4769514
sg17
S'104910.176069'
p362
sba(igraph
Edge
p363
(dp364
g7
I1
sg8
I00
sg9
I5
sg10
(lp365
g359
a(igraph
Vertex
p366
(dp367
g14
F17.0
sg15
F86.84210526315789
sg16
I4769661
sg8
I01
sg17
S'104910.0924'
p368
sg19
I0
sbasg24
I00
sg25
I00
sg26
I4769515
sg17
S'104910.178025'
p369
sba(igraph
Edge
p370
(dp371
g7
I1
sg8
I00
sg9
I5
sg10
(lp372
g366
a(igraph
Vertex
p373
(dp374
g14
F17.0
sg15
F102.63157894736841
sg16
I4769663
sg8
I00
sg17
S'104910.093451'
p375
sg19
g23
sbasg24
I00
sg25
I00
sg26
I4769516
sg17
S'104910.180274'
p376
sba(igraph
Edge
p377
(dp378
g7
I1
sg8
I00
sg9
I5
sg10
(lp379
g373
a(igraph
Vertex
p380
(dp381
g14
F17.0
sg15
F118.4210526315789
sg16
I4769665
sg8
I01
sg17
S'104910.094422'
p382
sg19
I0
sbasg24
I00
sg25
I00
sg26
I4769517
sg17
S'104910.182123'
p383
sba(igraph
Edge
p384
(dp385
g7
I1
sg8
I00
sg9
I5
sg10
(lp386
(igraph
Vertex
p387
(dp388
g14
F50.0
sg15
F-149.99999999999994
sg16
I4769667
sg8
I00
sg17
S'104910.097505'
p389
sg19
g23
sba(igraph
Vertex
p390
(dp391
g14
F50.0
sg15
F-134.21052631578942
sg16
I4769668
sg8
I00
sg17
S'104910.098635'
p392
sg19
g23
sbasg24
I00
sg25
I00
sg26
I4769518
sg17
S'104910.190119'
p393
sba(igraph
Edge
p394
(dp395
g7
I1
sg8
I00
sg9
I5
sg10
(lp396
g390
a(igraph
Vertex
p397
(dp398
g14
F50.0
sg15
F-118.42105263157889
sg16
I4769669
sg8
I00
sg17
S'104910.099782'
p399
sg19
g23
sbasg24
I00
sg25
I00
sg26
I4769519
sg17
S'104910.192484'
p400
sba(igraph
Edge
p401
(dp402
g7
I1
sg8
I00
sg9
I5
sg10
(lp403
g397
a(igraph
Vertex
p404
(dp405
g14
F50.0
sg15
F-102.63157894736837
sg16
I4769670
sg8
I00
sg17
S'104910.100851'
p406
sg19
g23
sbasg24
I00
sg25
I00
sg26
I4769520
sg17
S'104910.194547'
p407
sba(igraph
Edge
p408
(dp409
g7
I1
sg8
I00
sg9
I5
sg10
(lp410
g404
a(igraph
Vertex
p411
(dp412
g14
F50.0
sg15
F-86.842105263157833
sg16
I4769671
sg8
I00
sg17
S'104910.101969'
p413
sg19
g23
sbasg24
I00
sg25
I00
sg26
I4769521
sg17
S'104910.19663'
p414
sba(igraph
Edge
p415
(dp416
g7
I1
sg8
I00
sg9
I5
sg10
(lp417
g411
a(igraph
Vertex
p418
(dp419
g14
F50.0
sg15
F-71.052631578947313
sg16
I4769673
sg8
I01
sg17
S'104910.103096'
p420
sg19
I0
sbasg24
I00
sg25
I00
sg26
I4769522
sg17
S'104910.198976'
p421
sba(igraph
Edge
p422
(dp423
g7
I1
sg8
I00
sg9
I5
sg10
(lp424
g418
a(igraph
Vertex
p425
(dp426
g14
F50.0
sg15
F-55.263157894736793
sg16
I4769675
sg8
I00
sg17
S'104910.104226'
p427
sg19
g23
sbasg24
I00
sg25
I00
sg26
I4769523
sg17
S'104910.201233'
p428
sba(igraph
Edge
p429
(dp430
g7
I1
sg8
I00
sg9
I5
sg10
(lp431
g425
a(igraph
Vertex
p432
(dp433
g14
F50.0
sg15
F-39.473684210526258
sg16
I4769676
sg8
I00
sg17
S'104910.105778'
p434
sg19
g23
sbasg24
I00
sg25
I00
sg26
I4769524
sg17
S'104910.203459'
p435
sba(igraph
Edge
p436
(dp437
g7
I1
sg8
I00
sg9
I5
sg10
(lp438
g432
a(igraph
Vertex
p439
(dp440
g14
F50.0
sg15
F-23.684210526315738
sg16
I4769677
sg8
I00
sg17
S'104910.106962'
p441
sg19
g23
sbasg24
I00
sg25
I00
sg26
I4769525
sg17
S'104910.205231'
p442
sba(igraph
Edge
p443
(dp444
g7
I1
sg8
I00
sg9
I5
sg10
(lp445
g439
a(igraph
Vertex
p446
(dp447
g14
F50.0
sg15
F-7.8947368421052033
sg16
I4769678
sg8
I00
sg17
S'104910.10816'
p448
sg19
g23
sbasg24
I00
sg25
I00
sg26
I4769526
sg17
S'104910.206267'
p449
sba(igraph
Edge
p450
(dp451
g7
I1
sg8
I00
sg9
I5
sg10
(lp452
g446
a(igraph
Vertex
p453
(dp454
g14
F50.0
sg15
F7.894736842105317
sg16
I4769679
sg8
I00
sg17
S'104910.109479'
p455
sg19
g23
sbasg24
I00
sg25
I00
sg26
I4769527
sg17
S'104910.207316'
p456
sba(igraph
Edge
p457
(dp458
g7
I1
sg8
I00
sg9
I5
sg10
(lp459
g453
a(igraph
Vertex
p460
(dp461
g14
F50.0
sg15
F23.684210526315866
sg16
I4769680
sg8
I00
sg17
S'104910.110789'
p462
sg19
g23
sbasg24
I00
sg25
I00
sg26
I4769528
sg17
S'104910.208391'
p463
sba(igraph
Edge
p464
(dp465
g7
I1
sg8
I00
sg9
I5
sg10
(lp466
g460
a(igraph
Vertex
p467
(dp468
g14
F50.0
sg15
F39.473684210526358
sg16
I4769681
sg8
I00
sg17
S'104910.112024'
p469
sg19
g23
sbasg24
I00
sg25
I00
sg26
I4769529
sg17
S'104910.209494'
p470
sba(igraph
Edge
p471
(dp472
g7
I1
sg8
I00
sg9
I5
sg10
(lp473
g467
a(igraph
Vertex
p474
(dp475
g14
F50.0
sg15
F55.263157894736878
sg16
I4769682
sg8
I00
sg17
S'104910.113261'
p476
sg19
g23
sbasg24
I00
sg25
I00
sg26
I4769530
sg17
S'104910.210585'
p477
sba(igraph
Edge
p478
(dp479
g7
I1
sg8
I00
sg9
I5
sg10
(lp480
g474
a(igraph
Vertex
p481
(dp482
g14
F50.0
sg15
F71.05263157894737
sg16
I4769683
sg8
I00
sg17
S'104910.11467'
p483
sg19
g23
sbasg24
I00
sg25
I00
sg26
I4769531
sg17
S'104910.211684'
p484
sba(igraph
Edge
p485
(dp486
g7
I1
sg8
I00
sg9
I5
sg10
(lp487
g481
a(igraph
Vertex
p488
(dp489
g14
F50.0
sg15
F86.84210526315789
sg16
I4769684
sg8
I00
sg17
S'104910.115963'
p490
sg19
g23
sbasg24
I00
sg25
I00
sg26
I4769532
sg17
S'104910.212846'
p491
sba(igraph
Edge
p492
(dp493
g7
I1
sg8
I00
sg9
I5
sg10
(lp494
g488
a(igraph
Vertex
p495
(dp496
g14
F50.0
sg15
F102.63157894736841
sg16
I4769685
sg8
I00
sg17
S'104910.117314'
p497
sg19
g23
sbasg24
I00
sg25
I00
sg26
I4769533
sg17
S'104910.214037'
p498
sba(igraph
Edge
p499
(dp500
g7
I1
sg8
I00
sg9
I5
sg10
(lp501
g495
a(igraph
Vertex
p502
(dp503
g14
F50.0
sg15
F118.4210526315789
sg16
I4769686
sg8
I00
sg17
S'104910.118659'
p504
sg19
g23
sbasg24
I00
sg25
I00
sg26
I4769534
sg17
S'104910.215182'
p505
sba(igraph
Edge
p506
(dp507
g7
I1
sg8
I00
sg9
I5
sg10
(lp508
g12
ag146
asg24
I00
sg25
I00
sg26
I4769535
sg17
S'104910.219904'
p509
sba(igraph
Edge
p510
(dp511
g7
I1
sg8
I00
sg9
I5
sg10
(lp512
g31
ag160
asg24
I00
sg25
I00
sg26
I4769536
sg17
S'104910.221112'
p513
sba(igraph
Edge
p514
(dp515
g7
I1
sg8
I00
sg9
I5
sg10
(lp516
g45
ag174
asg24
I00
sg25
I00
sg26
I4769537
sg17
S'104910.222351'
p517
sba(igraph
Edge
p518
(dp519
g7
I1
sg8
I00
sg9
I5
sg10
(lp520
g59
ag188
asg24
I00
sg25
I00
sg26
I4769538
sg17
S'104910.223643'
p521
sba(igraph
Edge
p522
(dp523
g7
I1
sg8
I00
sg9
I5
sg10
(lp524
g73
ag202
asg24
I00
sg25
I00
sg26
I4769539
sg17
S'104910.224903'
p525
sba(igraph
Edge
p526
(dp527
g7
I1
sg8
I00
sg9
I5
sg10
(lp528
g87
ag216
asg24
I00
sg25
I00
sg26
I4769540
sg17
S'104910.226203'
p529
sba(igraph
Edge
p530
(dp531
g7
I1
sg8
I00
sg9
I5
sg10
(lp532
g101
ag230
asg24
I00
sg25
I00
sg26
I4769541
sg17
S'104910.227538'
p533
sba(igraph
Edge
p534
(dp535
g7
I1
sg8
I00
sg9
I5
sg10
(lp536
g115
ag244
asg24
I00
sg25
I00
sg26
I4769542
sg17
S'104910.228878'
p537
sba(igraph
Edge
p538
(dp539
g7
I1
sg8
I00
sg9
I5
sg10
(lp540
g129
ag258
asg24
I00
sg25
I00
sg26
I4769543
sg17
S'104910.230191'
p541
sba(igraph
Edge
p542
(dp543
g7
I1
sg8
I00
sg9
I5
sg10
(lp544
g20
ag387
asg24
I00
sg25
I00
sg26
I4769544
sg17
S'104910.232897'
p545
sba(igraph
Edge
p546
(dp547
g7
I1
sg8
I00
sg9
I5
sg10
(lp548
g38
ag397
asg24
I00
sg25
I00
sg26
I4769545
sg17
S'104910.234292'
p549
sba(igraph
Edge
p550
(dp551
g7
I1
sg8
I00
sg9
I5
sg10
(lp552
g52
ag411
asg24
I00
sg25
I00
sg26
I4769546
sg17
S'104910.23568'
p553
sba(igraph
Edge
p554
(dp555
g7
I1
sg8
I00
sg9
I5
sg10
(lp556
g66
ag425
asg24
I00
sg25
I00
sg26
I4769547
sg17
S'104910.237062'
p557
sba(igraph
Edge
p558
(dp559
g7
I1
sg8
I00
sg9
I5
sg10
(lp560
g80
ag439
asg24
I00
sg25
I00
sg26
I4769548
sg17
S'104910.23846'
p561
sba(igraph
Edge
p562
(dp563
g7
I1
sg8
I00
sg9
I5
sg10
(lp564
g94
ag453
asg24
I00
sg25
I00
sg26
I4769549
sg17
S'104910.239913'
p565
sba(igraph
Edge
p566
(dp567
g7
I1
sg8
I00
sg9
I5
sg10
(lp568
g108
ag467
asg24
I00
sg25
I00
sg26
I4769550
sg17
S'104910.241356'
p569
sba(igraph
Edge
p570
(dp571
g7
I1
sg8
I00
sg9
I5
sg10
(lp572
g122
ag481
asg24
I00
sg25
I00
sg26
I4769551
sg17
S'104910.242833'
p573
sba(igraph
Edge
p574
(dp575
g7
I1
sg8
I00
sg9
I5
sg10
(lp576
g136
ag495
asg24
I00
sg25
I00
sg26
I4769552
sg17
S'104910.244441'
p577
sba(igraph
Edge
p578
(dp579
g7
I1
sg8
I00
sg9
I5
sg10
(lp580
g143
ag268
asg24
I00
sg25
I00
sg26
I4769553
sg17
S'104910.247526'
p581
sba(igraph
Edge
p582
(dp583
g7
I1
sg8
I00
sg9
I5
sg10
(lp584
g153
ag282
asg24
I00
sg25
I00
sg26
I4769554
sg17
S'104910.249062'
p585
sba(igraph
Edge
p586
(dp587
g7
I1
sg8
I00
sg9
I5
sg10
(lp588
g167
ag296
asg24
I00
sg25
I00
sg26
I4769555
sg17
S'104910.250592'
p589
sba(igraph
Edge
p590
(dp591
g7
I1
sg8
I00
sg9
I5
sg10
(lp592
g181
ag310
asg24
I00
sg25
I00
sg26
I4769556
sg17
S'104910.252261'
p593
sba(igraph
Edge
p594
(dp595
g7
I1
sg8
I00
sg9
I5
sg10
(lp596
g195
ag324
asg24
I00
sg25
I00
sg26
I4769557
sg17
S'104910.253829'
p597
sba(igraph
Edge
p598
(dp599
g7
I1
sg8
I00
sg9
I5
sg10
(lp600
g209
ag338
asg24
I00
sg25
I00
sg26
I4769558
sg17
S'104910.255473'
p601
sba(igraph
Edge
p602
(dp603
g7
I1
sg8
I00
sg9
I5
sg10
(lp604
g223
ag352
asg24
I00
sg25
I00
sg26
I4769559
sg17
S'104910.257066'
p605
sba(igraph
Edge
p606
(dp607
g7
I1
sg8
I00
sg9
I5
sg10
(lp608
g237
ag366
asg24
I00
sg25
I00
sg26
I4769560
sg17
S'104910.258661'
p609
sba(igraph
Edge
p610
(dp611
g7
I1
sg8
I00
sg9
I5
sg10
(lp612
g251
ag380
asg24
I00
sg25
I00
sg26
I4769561
sg17
S'104910.260333'
p613
sba(igraph
Edge
p614
(dp615
g7
I1
sg8
I00
sg9
I5
sg10
(lp616
g265
ag390
asg24
I00
sg25
I00
sg26
I4769562
sg17
S'104910.263716'
p617
sba(igraph
Edge
p618
(dp619
g7
I1
sg8
I00
sg9
I5
sg10
(lp620
g275
ag404
asg24
I00
sg25
I00
sg26
I4769563
sg17
S'104910.265362'
p621
sba(igraph
Edge
p622
(dp623
g7
I1
sg8
I00
sg9
I5
sg10
(lp624
g289
ag418
asg24
I00
sg25
I00
sg26
I4769564
sg17
S'104910.267141'
p625
sba(igraph
Edge
p626
(dp627
g7
I1
sg8
I00
sg9
I5
sg10
(lp628
g303
ag432
asg24
I00
sg25
I00
sg26
I4769565
sg17
S'104910.268834'
p629
sba(igraph
Edge
p630
(dp631
g7
I1
sg8
I00
sg9
I5
sg10
(lp632
g317
ag446
asg24
I00
sg25
I00
sg26
I4769566
sg17
S'104910.270639'
p633
sba(igraph
Edge
p634
(dp635
g7
I1
sg8
I00
sg9
I5
sg10
(lp636
g331
ag460
asg24
I00
sg25
I00
sg26
I4769567
sg17
S'104910.27236'
p637
sba(igraph
Edge
p638
(dp639
g7
I1
sg8
I00
sg9
I5
sg10
(lp640
g345
ag474
asg24
I00
sg25
I00
sg26
I4769568
sg17
S'104910.274184'
p641
sba(igraph
Edge
p642
(dp643
g7
I1
sg8
I00
sg9
I5
sg10
(lp644
g359
ag488
asg24
I00
sg25
I00
sg26
I4769569
sg17
S'104910.276256'
p645
sba(igraph
Edge
p646
(dp647
g7
I1
sg8
I00
sg9
I5
sg10
(lp648
g373
ag502
asg24
I00
sg25
I00
sg26
I4769570
sg17
S'104910.278135'
p649
sba(igraph
Edge
p650
(dp651
g7
I1
sg8
I00
sg9
I5
sg10
(lp652
g387
ag502
asg24
I00
sg25
I00
sg26
I4769571
sg17
S'105137.169383'
p653
sba(igraph
Edge
p654
(dp655
g7
I1
sg8
I00
sg9
I5
sg10
(lp656
g380
ag265
asg24
I00
sg25
I00
sg26
I4769572
sg17
S'105158.791942'
p657
sba(igraph
Edge
p658
(dp659
g7
I1
sg8
I00
sg9
I5
sg10
(lp660
g143
ag258
asg24
I00
sg25
I00
sg26
I4769573
sg17
S'105163.470486'
p661
sba(igraph
Edge
p662
(dp663
g7
I1
sg8
I00
sg9
I5
sg10
(lp664
g136
ag12
asg24
I00
sg25
I00
sg26
I4769574
sg17
S'105168.046275'
p665
sbasS'vertices'
p666
(lp667
g12
ag20
ag31
ag38
ag45
ag52
ag59
ag66
ag73
ag80
ag87
ag94
ag101
ag108
ag115
ag122
ag129
ag136
ag143
ag146
ag153
ag160
ag167
ag174
ag181
ag188
ag195
ag202
ag209
ag216
ag223
ag230
ag237
ag244
ag251
ag258
ag265
ag268
ag275
ag282
ag289
ag296
ag303
ag310
ag317
ag324
ag331
ag338
ag345
ag352
ag359
ag366
ag373
ag380
ag387
ag390
ag397
ag404
ag411
ag418
ag425
ag432
ag439
ag446
ag453
ag460
ag467
ag474
ag481
ag488
ag495
ag502
asS'tags'
p668
(lp669
sb.