(igraph
Graph
p0
(dp1
S'labelingConstraints'
p2
(lp3
I2
aI1
asS'edges'
p4
(lp5
(igraph
Edge
p6
(dp7
S'direction'
p8
I1
sS'color'
p9
S'black'
p10
sS'selected'
p11
I00
sS'height'
p12
I5
sS'vs'
p13
(lp14
(igraph
Vertex
p15
(dp16
g9
S'#ffffff'
p17
sS'text'
p18
I52687
sg11
I00
sS'label'
p19
I0
sS'lsize'
p20
I16
sS'shape'
p21
I0
sS'ly'
p22
I-12
sS'y'
p23
F0.0
sS'x'
p24
F100.0
sS'circle'
p25
I52686
sS'lcolor'
p26
g10
sS'id'
p27
S'2829.95442885'
p28
sS'lx'
p29
I-12
sS'size'
p30
I5
sba(igraph
Vertex
p31
(dp32
g9
g17
sg18
I52690
sg11
I00
sg19
I2
sg20
I16
sg21
I0
sg22
I-12
sg23
F-38.268343236508976
sg24
F92.387953251128678
sg25
I52689
sg26
g10
sg27
S'2829.95445036'
p33
sg29
I-12
sg30
I5
sbasS'wrap'
p34
I00
sS'curved'
p35
I00
sS'line'
p36
I52637
sg27
S'2829.95875314'
p37
sg30
I3
sba(igraph
Edge
p38
(dp39
g8
I1
sg9
g10
sg11
I00
sg12
I5
sg13
(lp40
g31
a(igraph
Vertex
p41
(dp42
g9
g17
sg18
I52693
sg11
I00
sg19
I4
sg20
I16
sg21
I0
sg22
I-12
sg23
F-70.710678118654741
sg24
F70.710678118654755
sg25
I52692
sg26
g10
sg27
S'2829.95447131'
p43
sg29
I-12
sg30
I5
sbasg34
I00
sg35
I00
sg36
I52638
sg27
S'2829.95879309'
p44
sg30
I3
sba(igraph
Edge
p45
(dp46
g8
I1
sg9
g10
sg11
I00
sg12
I5
sg13
(lp47
g41
a(igraph
Vertex
p48
(dp49
g9
g17
sg18
I52696
sg11
I00
sg19
I0
sg20
I16
sg21
I0
sg22
I-12
sg23
F-92.387953251128678
sg24
F38.268343236508983
sg25
I52695
sg26
g10
sg27
S'2829.95449673'
p50
sg29
I-12
sg30
I5
sbasg34
I00
sg35
I00
sg36
I52639
sg27
S'2829.958847'
p51
sg30
I3
sba(igraph
Edge
p52
(dp53
g8
I1
sg9
g10
sg11
I00
sg12
I5
sg13
(lp54
g48
a(igraph
Vertex
p55
(dp56
g9
g17
sg18
I52699
sg11
I00
sg19
I2
sg20
I16
sg21
I0
sg22
I-12
sg23
F-100.0
sg24
F6.1232339957367661e-15
sg25
I52698
sg26
g10
sg27
S'2829.95452886'
p57
sg29
I-12
sg30
I5
sbasg34
I00
sg35
I00
sg36
I52640
sg27
S'2829.95890567'
p58
sg30
I3
sba(igraph
Edge
p59
(dp60
g8
I1
sg9
g10
sg11
I00
sg12
I5
sg13
(lp61
g55
a(igraph
Vertex
p62
(dp63
g9
g17
sg18
I52702
sg11
I00
sg19
I5
sg20
I16
sg21
I0
sg22
I-12
sg23
F-92.387953251128678
sg24
F-38.268343236508976
sg25
I52701
sg26
g10
sg27
S'2829.95456685'
p64
sg29
I-12
sg30
I5
sbasg34
I00
sg35
I00
sg36
I52641
sg27
S'2829.95897607'
p65
sg30
I3
sba(igraph
Edge
p66
(dp67
g8
I1
sg9
g10
sg11
I00
sg12
I5
sg13
(lp68
g62
a(igraph
Vertex
p69
(dp70
g9
g17
sg18
I52705
sg11
I00
sg19
I0
sg20
I16
sg21
I0
sg22
I-12
sg23
F-70.710678118654755
sg24
F-70.710678118654741
sg25
I52704
sg26
g10
sg27
S'2829.95461378'
p71
sg29
I-12
sg30
I5
sbasg34
I00
sg35
I00
sg36
I52642
sg27
S'2829.9590758'
p72
sg30
I3
sba(igraph
Edge
p73
(dp74
g8
I1
sg9
g10
sg11
I00
sg12
I5
sg13
(lp75
g69
a(igraph
Vertex
p76
(dp77
g9
g17
sg18
I52708
sg11
I00
sg19
I3
sg20
I16
sg21
I0
sg22
I-12
sg23
F-38.26834323650899
sg24
F-92.387953251128678
sg25
I52707
sg26
g10
sg27
S'2829.95466631'
p78
sg29
I-12
sg30
I5
sbasg34
I00
sg35
I00
sg36
I52643
sg27
S'2829.95917693'
p79
sg30
I3
sba(igraph
Edge
p80
(dp81
g8
I1
sg9
g10
sg11
I00
sg12
I5
sg13
(lp82
g76
a(igraph
Vertex
p83
(dp84
g9
g17
sg18
I52711
sg11
I00
sg19
I5
sg20
I16
sg21
I0
sg22
I-12
sg23
F-1.2246467991473532e-14
sg24
F-100.0
sg25
I52710
sg26
g10
sg27
S'2829.95472609'
p85
sg29
I-12
sg30
I5
sbasg34
I00
sg35
I00
sg36
I52644
sg27
S'2829.95929119'
p86
sg30
I3
sba(igraph
Edge
p87
(dp88
g8
I1
sg9
g10
sg11
I00
sg12
I5
sg13
(lp89
g83
a(igraph
Vertex
p90
(dp91
g9
g17
sg18
I52714
sg11
I00
sg19
I0
sg20
I16
sg21
I0
sg22
I-12
sg23
F38.268343236508969
sg24
F-92.387953251128678
sg25
I52713
sg26
g10
sg27
S'2829.95479342'
p92
sg29
I-12
sg30
I5
sbasg34
I00
sg35
I00
sg36
I52645
sg27
S'2829.95940797'
p93
sg30
I3
sba(igraph
Edge
p94
(dp95
g8
I1
sg9
g10
sg11
I00
sg12
I5
sg13
(lp96
g90
a(igraph
Vertex
p97
(dp98
g9
g17
sg18
I52717
sg11
I00
sg19
I3
sg20
I16
sg21
I0
sg22
I-12
sg23
F70.710678118654741
sg24
F-70.710678118654769
sg25
I52716
sg26
g10
sg27
S'2829.95486745'
p99
sg29
I-12
sg30
I5
sbasg34
I00
sg35
I00
sg36
I52646
sg27
S'2829.95953871'
p100
sg30
I3
sba(igraph
Edge
p101
(dp102
g8
I1
sg9
g10
sg11
I00
sg12
I5
sg13
(lp103
g97
a(igraph
Vertex
p104
(dp105
g9
g17
sg18
I52720
sg11
I00
sg19
I1
sg20
I16
sg21
I0
sg22
I-12
sg23
F92.38795325112865
sg24
F-38.268343236509033
sg25
I52719
sg26
g10
sg27
S'2829.95495098'
p106
sg29
I-12
sg30
I5
sbasg34
I00
sg35
I00
sg36
I52647
sg27
S'2829.95968063'
p107
sg30
I3
sba(igraph
Edge
p108
(dp109
g8
I1
sg9
g10
sg11
I00
sg12
I5
sg13
(lp110
g104
a(igraph
Vertex
p111
(dp112
g9
g17
sg18
I52723
sg11
I00
sg19
I6
sg20
I16
sg21
I0
sg22
I-12
sg23
F100.0
sg24
F-1.8369701987210297e-14
sg25
I52722
sg26
g10
sg27
S'2829.95504038'
p113
sg29
I-12
sg30
I5
sbasg34
I00
sg35
I00
sg36
I52648
sg27
S'2829.95983372'
p114
sg30
I3
sba(igraph
Edge
p115
(dp116
g8
I1
sg9
g10
sg11
I00
sg12
I5
sg13
(lp117
g111
a(igraph
Vertex
p118
(dp119
g9
g17
sg18
I52726
sg11
I00
sg19
I2
sg20
I16
sg21
I0
sg22
I-12
sg23
F92.387953251128664
sg24
F38.268343236508997
sg25
I52725
sg26
g10
sg27
S'2829.95513676'
p120
sg29
I-12
sg30
I5
sbasg34
I00
sg35
I00
sg36
I52649
sg27
S'2829.95999883'
p121
sg30
I3
sba(igraph
Edge
p122
(dp123
g8
I1
sg9
g10
sg11
I00
sg12
I5
sg13
(lp124
g118
a(igraph
Vertex
p125
(dp126
g9
g17
sg18
I52729
sg11
I00
sg19
I4
sg20
I16
sg21
I0
sg22
I-12
sg23
F70.710678118654769
sg24
F70.710678118654741
sg25
I52728
sg26
g10
sg27
S'2829.95525521'
p127
sg29
I-12
sg30
I5
sbasg34
I00
sg35
I00
sg36
I52650
sg27
S'2829.96021673'
p128
sg30
I3
sba(igraph
Edge
p129
(dp130
g8
I1
sg9
g10
sg11
I00
sg12
I5
sg13
(lp131
g125
a(igraph
Vertex
p132
(dp133
g9
g17
sg18
I52732
sg11
I00
sg19
I6
sg20
I16
sg21
I0
sg22
I-12
sg23
F38.26834323650904
sg24
F92.38795325112865
sg25
I52731
sg26
g10
sg27
S'2829.95537422'
p134
sg29
I-12
sg30
I5
sbasg34
I00
sg35
I00
sg36
I52651
sg27
S'2829.96040335'
p135
sg30
I3
sba(igraph
Edge
p136
(dp137
g8
I1
sg9
g10
sg11
I00
sg12
I5
sg13
(lp138
g132
ag15
asg34
I00
sg35
I00
sg36
I52652
sg27
S'2829.96060002'
p139
sg30
I3
sba(igraph
Edge
p140
(dp141
g8
I1
sg9
g10
sg11
I00
sg12
I5
sg13
(lp142
(igraph
Vertex
p143
(dp144
g9
g17
sg18
I52735
sg11
I00
sg19
I5
sg20
I16
sg21
I0
sg22
I-12
sg23
F0.0
sg24
F200.0
sg25
I52734
sg26
g10
sg27
S'2829.95549323'
p145
sg29
I-12
sg30
I5
sba(igraph
Vertex
p146
(dp147
g9
g17
sg18
I52738
sg11
I00
sg19
I3
sg20
I16
sg21
I0
sg22
I-12
sg23
F-76.536686473017951
sg24
F184.77590650225736
sg25
I52737
sg26
g10
sg27
S'2829.95561726'
p148
sg29
I-12
sg30
I5
sbasg34
I00
sg35
I00
sg36
I52653
sg27
S'2829.96080871'
p149
sg30
I3
sba(igraph
Edge
p150
(dp151
g8
I1
sg9
g10
sg11
I00
sg12
I5
sg13
(lp152
g146
a(igraph
Vertex
p153
(dp154
g9
g17
sg18
I52741
sg11
I00
sg19
I6
sg20
I16
sg21
I0
sg22
I-12
sg23
F-141.42135623730948
sg24
F141.42135623730951
sg25
I52740
sg26
g10
sg27
S'2829.95575248'
p155
sg29
I-12
sg30
I5
sbasg34
I00
sg35
I00
sg36
I52654
sg27
S'2829.9610484'
p156
sg30
I3
sba(igraph
Edge
p157
(dp158
g8
I1
sg9
g10
sg11
I00
sg12
I5
sg13
(lp159
g153
a(igraph
Vertex
p160
(dp161
g9
g17
sg18
I52744
sg11
I00
sg19
I1
sg20
I16
sg21
I0
sg22
I-12
sg23
F-184.77590650225736
sg24
F76.536686473017966
sg25
I52743
sg26
g10
sg27
S'2829.95589188'
p162
sg29
I-12
sg30
I5
sbasg34
I00
sg35
I00
sg36
I52655
sg27
S'2829.96129592'
p163
sg30
I3
sba(igraph
Edge
p164
(dp165
g8
I1
sg9
g10
sg11
I00
sg12
I5
sg13
(lp166
g160
a(igraph
Vertex
p167
(dp168
g9
g17
sg18
I52747
sg11
I00
sg19
I3
sg20
I16
sg21
I0
sg22
I-12
sg23
F-200.0
sg24
F1.2246467991473532e-14
sg25
I52746
sg26
g10
sg27
S'2829.95604134'
p169
sg29
I-12
sg30
I5
sbasg34
I00
sg35
I00
sg36
I52656
sg27
S'2829.96153953'
p170
sg30
I3
sba(igraph
Edge
p171
(dp172
g8
I1
sg9
g10
sg11
I00
sg12
I5
sg13
(lp173
g167
a(igraph
Vertex
p174
(dp175
g9
g17
sg18
I52750
sg11
I00
sg19
I6
sg20
I16
sg21
I0
sg22
I-12
sg23
F-184.77590650225736
sg24
F-76.536686473017951
sg25
I52749
sg26
g10
sg27
S'2829.95622935'
p176
sg29
I-12
sg30
I5
sbasg34
I00
sg35
I00
sg36
I52657
sg27
S'2829.96179375'
p177
sg30
I3
sba(igraph
Edge
p178
(dp179
g8
I1
sg9
g10
sg11
I00
sg12
I5
sg13
(lp180
g174
a(igraph
Vertex
p181
(dp182
g9
g17
sg18
I52753
sg11
I00
sg19
I1
sg20
I16
sg21
I0
sg22
I-12
sg23
F-141.42135623730951
sg24
F-141.42135623730948
sg25
I52752
sg26
g10
sg27
S'2829.95640759'
p183
sg29
I-12
sg30
I5
sbasg34
I00
sg35
I00
sg36
I52658
sg27
S'2829.96215664'
p184
sg30
I3
sba(igraph
Edge
p185
(dp186
g8
I1
sg9
g10
sg11
I00
sg12
I5
sg13
(lp187
g181
a(igraph
Vertex
p188
(dp189
g9
g17
sg18
I52756
sg11
I00
sg19
I4
sg20
I16
sg21
I0
sg22
I-12
sg23
F-76.53668647301798
sg24
F-184.77590650225736
sg25
I52755
sg26
g10
sg27
S'2829.95657996'
p190
sg29
I-12
sg30
I5
sbasg34
I00
sg35
I00
sg36
I52659
sg27
S'2829.96243461'
p191
sg30
I3
sba(igraph
Edge
p192
(dp193
g8
I1
sg9
g10
sg11
I00
sg12
I5
sg13
(lp194
g188
a(igraph
Vertex
p195
(dp196
g9
g17
sg18
I52759
sg11
I00
sg19
I6
sg20
I16
sg21
I0
sg22
I-12
sg23
F-2.4492935982947064e-14
sg24
F-200.0
sg25
I52758
sg26
g10
sg27
S'2829.95676043'
p197
sg29
I-12
sg30
I5
sbasg34
I00
sg35
I00
sg36
I52660
sg27
S'2829.96272375'
p198
sg30
I3
sba(igraph
Edge
p199
(dp200
g8
I1
sg9
g10
sg11
I00
sg12
I5
sg13
(lp201
g195
a(igraph
Vertex
p202
(dp203
g9
g17
sg18
I52762
sg11
I00
sg19
I2
sg20
I16
sg21
I0
sg22
I-12
sg23
F76.536686473017937
sg24
F-184.77590650225736
sg25
I52761
sg26
g10
sg27
S'2829.95704286'
p204
sg29
I-12
sg30
I5
sbasg34
I00
sg35
I00
sg36
I52661
sg27
S'2829.96304726'
p205
sg30
I3
sba(igraph
Edge
p206
(dp207
g8
I1
sg9
g10
sg11
I00
sg12
I5
sg13
(lp208
g202
a(igraph
Vertex
p209
(dp210
g9
g17
sg18
I52765
sg11
I00
sg19
I4
sg20
I16
sg21
I0
sg22
I-12
sg23
F141.42135623730948
sg24
F-141.42135623730954
sg25
I52764
sg26
g10
sg27
S'2829.95727446'
p211
sg29
I-12
sg30
I5
sbasg34
I00
sg35
I00
sg36
I52662
sg27
S'2829.963373'
p212
sg30
I3
sba(igraph
Edge
p213
(dp214
g8
I1
sg9
g10
sg11
I00
sg12
I5
sg13
(lp215
g209
a(igraph
Vertex
p216
(dp217
g9
g17
sg18
I52768
sg11
I00
sg19
I6
sg20
I16
sg21
I0
sg22
I-12
sg23
F184.7759065022573
sg24
F-76.536686473018065
sg25
I52767
sg26
g10
sg27
S'2829.95747784'
p218
sg29
I-12
sg30
I5
sbasg34
I00
sg35
I00
sg36
I52663
sg27
S'2829.96369846'
p219
sg30
I3
sba(igraph
Edge
p220
(dp221
g8
I1
sg9
g10
sg11
I00
sg12
I5
sg13
(lp222
g216
a(igraph
Vertex
p223
(dp224
g9
g17
sg18
I52771
sg11
I00
sg19
I0
sg20
I16
sg21
I0
sg22
I-12
sg23
F200.0
sg24
F-3.6739403974420595e-14
sg25
I52770
sg26
g10
sg27
S'2829.95769015'
p225
sg29
I-12
sg30
I5
sbasg34
I00
sg35
I00
sg36
I52664
sg27
S'2829.96406331'
p226
sg30
I3
sba(igraph
Edge
p227
(dp228
g8
I1
sg9
g10
sg11
I00
sg12
I5
sg13
(lp229
g223
a(igraph
Vertex
p230
(dp231
g9
g17
sg18
I52774
sg11
I00
sg19
I4
sg20
I16
sg21
I0
sg22
I-12
sg23
F184.77590650225733
sg24
F76.536686473017994
sg25
I52773
sg26
g10
sg27
S'2829.95790666'
p232
sg29
I-12
sg30
I5
sbasg34
I00
sg35
I00
sg36
I52665
sg27
S'2829.96442034'
p233
sg30
I3
sba(igraph
Edge
p234
(dp235
g8
I1
sg9
g10
sg11
I00
sg12
I5
sg13
(lp236
g230
a(igraph
Vertex
p237
(dp238
g9
g17
sg18
I52777
sg11
I00
sg19
I2
sg20
I16
sg21
I0
sg22
I-12
sg23
F141.42135623730954
sg24
F141.42135623730948
sg25
I52776
sg26
g10
sg27
S'2829.95822011'
p239
sg29
I-12
sg30
I5
sbasg34
I00
sg35
I00
sg36
I52666
sg27
S'2829.96478212'
p240
sg30
I3
sba(igraph
Edge
p241
(dp242
g8
I1
sg9
g10
sg11
I00
sg12
I5
sg13
(lp243
g237
a(igraph
Vertex
p244
(dp245
g9
g17
sg18
I52780
sg11
I00
sg19
I0
sg20
I16
sg21
I0
sg22
I-12
sg23
F76.536686473018079
sg24
F184.7759065022573
sg25
I52779
sg26
g10
sg27
S'2829.95846008'
p246
sg29
I-12
sg30
I5
sbasg34
I00
sg35
I00
sg36
I52667
sg27
S'2829.96518664'
p247
sg30
I3
sba(igraph
Edge
p248
(dp249
g8
I1
sg9
g10
sg11
I00
sg12
I5
sg13
(lp250
g244
ag143
asg34
I00
sg35
I00
sg36
I52668
sg27
S'2829.96556909'
p251
sg30
I3
sba(igraph
Edge
p252
(dp253
g8
I1
sg9
g10
sg11
I00
sg12
I5
sg13
(lp254
g31
ag143
asg34
I00
sg35
I00
sg36
I52669
sg27
S'2856.33072304'
p255
sg30
I3
sba(igraph
Edge
p256
(dp257
g8
I1
sg9
g10
sg11
I00
sg12
I5
sg13
(lp258
g15
ag146
asg34
I00
sg35
I00
sg36
I52670
sg27
S'2859.13912187'
p259
sg30
I3
sba(igraph
Edge
p260
(dp261
g8
I1
sg9
g10
sg11
I00
sg12
I5
sg13
(lp262
g41
ag160
asg34
I00
sg35
I00
sg36
I52671
sg27
S'2866.43505446'
p263
sg30
I3
sba(igraph
Edge
p264
(dp265
g8
I1
sg9
g10
sg11
I00
sg12
I5
sg13
(lp266
g48
ag153
asg34
I00
sg35
I00
sg36
I52672
sg27
S'2868.90375118'
p267
sg30
I3
sba(igraph
Edge
p268
(dp269
g8
I1
sg9
g10
sg11
I00
sg12
I5
sg13
(lp270
g55
ag174
asg34
I00
sg35
I00
sg36
I52673
sg27
S'2871.04678053'
p271
sg30
I3
sba(igraph
Edge
p272
(dp273
g8
I1
sg9
g10
sg11
I00
sg12
I5
sg13
(lp274
g62
ag167
asg34
I00
sg35
I00
sg36
I52674
sg27
S'2873.41408028'
p275
sg30
I3
sba(igraph
Edge
p276
(dp277
g8
I1
sg9
g10
sg11
I00
sg12
I5
sg13
(lp278
g69
ag188
asg34
I00
sg35
I00
sg36
I52675
sg27
S'2875.58003545'
p279
sg30
I3
sba(igraph
Edge
p280
(dp281
g8
I1
sg9
g10
sg11
I00
sg12
I5
sg13
(lp282
g76
ag181
asg34
I00
sg35
I00
sg36
I52676
sg27
S'2877.9866916'
p283
sg30
I3
sba(igraph
Edge
p284
(dp285
g8
I1
sg9
g10
sg11
I00
sg12
I5
sg13
(lp286
g83
ag202
asg34
I00
sg35
I00
sg36
I52677
sg27
S'2880.55874029'
p287
sg30
I3
sba(igraph
Edge
p288
(dp289
g8
I1
sg9
g10
sg11
I00
sg12
I5
sg13
(lp290
g90
ag195
asg34
I00
sg35
I00
sg36
I52678
sg27
S'2883.14605907'
p291
sg30
I3
sba(igraph
Edge
p292
(dp293
g8
I1
sg9
g10
sg11
I00
sg12
I5
sg13
(lp294
g97
ag216
asg34
I00
sg35
I00
sg36
I52679
sg27
S'2885.63140706'
p295
sg30
I3
sba(igraph
Edge
p296
(dp297
g8
I1
sg9
g10
sg11
I00
sg12
I5
sg13
(lp298
g209
ag104
asg34
I00
sg35
I00
sg36
I52680
sg27
S'2888.53089848'
p299
sg30
I3
sba(igraph
Edge
p300
(dp301
g8
I1
sg9
g10
sg11
I00
sg12
I5
sg13
(lp302
g111
ag230
asg34
I00
sg35
I00
sg36
I52681
sg27
S'2890.79187662'
p303
sg30
I3
sba(igraph
Edge
p304
(dp305
g8
I1
sg9
g10
sg11
I00
sg12
I5
sg13
(lp306
g223
ag118
asg34
I00
sg35
I00
sg36
I52682
sg27
S'2894.15171956'
p307
sg30
I3
sba(igraph
Edge
p308
(dp309
g8
I1
sg9
g10
sg11
I00
sg12
I5
sg13
(lp310
g125
ag244
asg34
I00
sg35
I00
sg36
I52683
sg27
S'2897.11129375'
p311
sg30
I3
sba(igraph
Edge
p312
(dp313
g8
I1
sg9
g10
sg11
I00
sg12
I5
sg13
(lp314
g237
ag132
asg34
I00
sg35
I00
sg36
I52684
sg27
S'2900.02939536'
p315
sg30
I3
sbasS'vertices'
p316
(lp317
g15
ag31
ag41
ag48
ag55
ag62
ag69
ag76
ag83
ag90
ag97
ag104
ag111
ag118
ag125
ag132
ag143
ag146
ag153
ag160
ag167
ag174
ag181
ag188
ag195
ag202
ag209
ag216
ag223
ag230
ag237
ag244
asS'tags'
p318
(lp319
sb.