(igraph
Graph
p0
(dp1
S'labelingConstraints'
p2
(lp3
I2
aI1
asS'edges'
p4
(lp5
(igraph
Edge
p6
(dp7
S'direction'
p8
I1
sS'color'
p9
S'black'
p10
sS'selected'
p11
I00
sS'height'
p12
I5
sS'vs'
p13
(lp14
(igraph
Vertex
p15
(dp16
g9
S'#ffffff'
p17
sS'text'
p18
I43222
sg11
I00
sS'label'
p19
I0
sS'lsize'
p20
I16
sS'shape'
p21
I0
sS'ly'
p22
I-12
sS'y'
p23
F-4.2632564145606011e-14
sS'x'
p24
F100.0
sS'circle'
p25
I43221
sS'lcolor'
p26
g10
sS'id'
p27
S'2545.95646262'
p28
sS'lx'
p29
I-12
sS'size'
p30
I5
sba(igraph
Vertex
p31
(dp32
g9
g17
sg18
I43225
sg11
I00
sg19
I2
sg20
I16
sg21
I0
sg22
I-12
sg23
F-43.388373911755856
sg24
F90.096886790241911
sg25
I43224
sg26
g10
sg27
S'2545.95674255'
p33
sg29
I-12
sg30
I5
sbasS'wrap'
p34
I00
sS'curved'
p35
I00
sS'line'
p36
I43178
sg27
S'2545.96060086'
p37
sg30
I3
sba(igraph
Edge
p38
(dp39
g8
I1
sg9
g10
sg11
I00
sg12
I5
sg13
(lp40
g31
a(igraph
Vertex
p41
(dp42
g9
g17
sg18
I43228
sg11
I00
sg19
I4
sg20
I16
sg21
I0
sg22
I-12
sg23
F-78.183148246803029
sg24
F62.348980185873359
sg25
I43227
sg26
g10
sg27
S'2545.9567825'
p43
sg29
I-12
sg30
I5
sbasg34
I00
sg35
I00
sg36
I43179
sg27
S'2545.96064332'
p44
sg30
I3
sba(igraph
Edge
p45
(dp46
g8
I1
sg9
g10
sg11
I00
sg12
I5
sg13
(lp47
g41
a(igraph
Vertex
p48
(dp49
g9
g17
sg18
I43231
sg11
I00
sg19
I6
sg20
I16
sg21
I0
sg22
I-12
sg23
F-97.492791218182404
sg24
F22.252093395631444
sg25
I43230
sg26
g10
sg27
S'2545.95682245'
p50
sg29
I-12
sg30
I5
sbasg34
I00
sg35
I00
sg36
I43180
sg27
S'2545.96069528'
p51
sg30
I3
sba(igraph
Edge
p52
(dp53
g8
I1
sg9
g10
sg11
I00
sg12
I5
sg13
(lp54
g48
a(igraph
Vertex
p55
(dp56
g9
g17
sg18
I43234
sg11
I00
sg19
I0
sg20
I16
sg21
I0
sg22
I-12
sg23
F-97.492791218182404
sg24
F-22.252093395631434
sg25
I43233
sg26
g10
sg27
S'2545.95685988'
p57
sg29
I-12
sg30
I5
sbasg34
I00
sg35
I00
sg36
I43181
sg27
S'2545.9607601'
p58
sg30
I3
sba(igraph
Edge
p59
(dp60
g8
I1
sg9
g10
sg11
I00
sg12
I5
sg13
(lp61
g55
a(igraph
Vertex
p62
(dp63
g9
g17
sg18
I43237
sg11
I00
sg19
I2
sg20
I16
sg21
I0
sg22
I-12
sg23
F-78.183148246803057
sg24
F-62.348980185873316
sg25
I43236
sg26
g10
sg27
S'2545.95690151'
p64
sg29
I-12
sg30
I5
sbasg34
I00
sg35
I00
sg36
I43182
sg27
S'2545.96083692'
p65
sg30
I3
sba(igraph
Edge
p66
(dp67
g8
I1
sg9
g10
sg11
I00
sg12
I5
sg13
(lp68
g62
a(igraph
Vertex
p69
(dp70
g9
g17
sg18
I43240
sg11
I00
sg19
I4
sg20
I16
sg21
I0
sg22
I-12
sg23
F-43.388373911755906
sg24
F-90.096886790241896
sg25
I43239
sg26
g10
sg27
S'2545.95695235'
p71
sg29
I-12
sg30
I5
sbasg34
I00
sg35
I00
sg36
I43183
sg27
S'2545.96092772'
p72
sg30
I3
sba(igraph
Edge
p73
(dp74
g8
I1
sg9
g10
sg11
I00
sg12
I5
sg13
(lp75
g69
a(igraph
Vertex
p76
(dp77
g9
g17
sg18
I43243
sg11
I00
sg19
I6
sg20
I16
sg21
I0
sg22
I-12
sg23
F-1.4369687410709207e-13
sg24
F-100.0
sg25
I43242
sg26
g10
sg27
S'2545.95701046'
p78
sg29
I-12
sg30
I5
sbasg34
I00
sg35
I00
sg36
I43184
sg27
S'2545.9610308'
p79
sg30
I3
sba(igraph
Edge
p80
(dp81
g8
I1
sg9
g10
sg11
I00
sg12
I5
sg13
(lp82
g76
a(igraph
Vertex
p83
(dp84
g9
g17
sg18
I43246
sg11
I00
sg19
I0
sg20
I16
sg21
I0
sg22
I-12
sg23
F43.388373911755679
sg24
F-90.096886790241953
sg25
I43245
sg26
g10
sg27
S'2545.95707555'
p85
sg29
I-12
sg30
I5
sbasg34
I00
sg35
I00
sg36
I43185
sg27
S'2545.96114646'
p86
sg30
I3
sba(igraph
Edge
p87
(dp88
g8
I1
sg9
g10
sg11
I00
sg12
I5
sg13
(lp89
g83
a(igraph
Vertex
p90
(dp91
g9
g17
sg18
I43249
sg11
I00
sg19
I2
sg20
I16
sg21
I0
sg22
I-12
sg23
F78.183148246802872
sg24
F-62.348980185873437
sg25
I43248
sg26
g10
sg27
S'2545.95714958'
p92
sg29
I-12
sg30
I5
sbasg34
I00
sg35
I00
sg36
I43186
sg27
S'2545.96127413'
p93
sg30
I3
sba(igraph
Edge
p94
(dp95
g8
I1
sg9
g10
sg11
I00
sg12
I5
sg13
(lp96
g90
a(igraph
Vertex
p97
(dp98
g9
g17
sg18
I43252
sg11
I00
sg19
I5
sg20
I16
sg21
I0
sg22
I-12
sg23
F97.49279121818229
sg24
F-22.252093395631544
sg25
I43251
sg26
g10
sg27
S'2545.95723032'
p99
sg29
I-12
sg30
I5
sbasg34
I00
sg35
I00
sg36
I43187
sg27
S'2545.96141493'
p100
sg30
I3
sba(igraph
Edge
p101
(dp102
g8
I1
sg9
g10
sg11
I00
sg12
I5
sg13
(lp103
g97
a(igraph
Vertex
p104
(dp105
g9
g17
sg18
I43255
sg11
I00
sg19
I0
sg20
I16
sg21
I0
sg22
I-12
sg23
F97.492791218182361
sg24
F22.252093395631249
sg25
I43254
sg26
g10
sg27
S'2545.9573186'
p106
sg29
I-12
sg30
I5
sbasg34
I00
sg35
I00
sg36
I43188
sg27
S'2545.96156998'
p107
sg30
I3
sba(igraph
Edge
p108
(dp109
g8
I1
sg9
g10
sg11
I00
sg12
I5
sg13
(lp110
g104
a(igraph
Vertex
p111
(dp112
g9
g17
sg18
I43258
sg11
I00
sg19
I3
sg20
I16
sg21
I0
sg22
I-12
sg23
F78.183148246803057
sg24
F62.348980185873195
sg25
I43257
sg26
g10
sg27
S'2545.95741554'
p113
sg29
I-12
sg30
I5
sbasg34
I00
sg35
I00
sg36
I43189
sg27
S'2545.96173676'
p114
sg30
I3
sba(igraph
Edge
p115
(dp116
g8
I1
sg9
g10
sg11
I00
sg12
I5
sg13
(lp117
g111
a(igraph
Vertex
p118
(dp119
g9
g17
sg18
I43261
sg11
I00
sg19
I5
sg20
I16
sg21
I0
sg22
I-12
sg23
F43.388373911755956
sg24
F90.096886790241825
sg25
I43260
sg26
g10
sg27
S'2545.95751974'
p120
sg29
I-12
sg30
I5
sbasg34
I00
sg35
I00
sg36
I43190
sg27
S'2545.96191639'
p121
sg30
I3
sba(igraph
Edge
p122
(dp123
g8
I1
sg9
g10
sg11
I00
sg12
I5
sg13
(lp124
g118
ag15
asg34
I00
sg35
I00
sg36
I43191
sg27
S'2545.96210887'
p125
sg30
I3
sba(igraph
Edge
p126
(dp127
g8
I1
sg9
g10
sg11
I00
sg12
I5
sg13
(lp128
(igraph
Vertex
p129
(dp130
g9
g17
sg18
I43264
sg11
I00
sg19
I2
sg20
I16
sg21
I0
sg22
I-12
sg23
F-4.2632564145606011e-14
sg24
F200.0
sg25
I43263
sg26
g10
sg27
S'2545.95763344'
p131
sg29
I-12
sg30
I5
sba(igraph
Vertex
p132
(dp133
g9
g17
sg18
I43267
sg11
I00
sg19
I0
sg20
I16
sg21
I0
sg22
I-12
sg23
F-86.77674782351167
sg24
F180.19377358048382
sg25
I43266
sg26
g10
sg27
S'2545.95775301'
p134
sg29
I-12
sg30
I5
sbasg34
I00
sg35
I00
sg36
I43192
sg27
S'2545.96231393'
p135
sg30
I3
sba(igraph
Edge
p136
(dp137
g8
I1
sg9
g10
sg11
I00
sg12
I5
sg13
(lp138
g132
a(igraph
Vertex
p139
(dp140
g9
g17
sg18
I43270
sg11
I00
sg19
I6
sg20
I16
sg21
I0
sg22
I-12
sg23
F-156.366296493606
sg24
F124.69796037174672
sg25
I43269
sg26
g10
sg27
S'2545.9578804'
p141
sg29
I-12
sg30
I5
sbasg34
I00
sg35
I00
sg36
I43193
sg27
S'2545.96253239'
p142
sg30
I3
sba(igraph
Edge
p143
(dp144
g8
I1
sg9
g10
sg11
I00
sg12
I5
sg13
(lp145
g139
a(igraph
Vertex
p146
(dp147
g9
g17
sg18
I43273
sg11
I00
sg19
I4
sg20
I16
sg21
I0
sg22
I-12
sg23
F-194.98558243636478
sg24
F44.504186791262889
sg25
I43272
sg26
g10
sg27
S'2545.95801505'
p148
sg29
I-12
sg30
I5
sbasg34
I00
sg35
I00
sg36
I43194
sg27
S'2545.96275951'
p149
sg30
I3
sba(igraph
Edge
p150
(dp151
g8
I1
sg9
g10
sg11
I00
sg12
I5
sg13
(lp152
g146
a(igraph
Vertex
p153
(dp154
g9
g17
sg18
I43276
sg11
I00
sg19
I2
sg20
I16
sg21
I0
sg22
I-12
sg23
F-194.98558243636478
sg24
F-44.504186791262867
sg25
I43275
sg26
g10
sg27
S'2545.95818156'
p155
sg29
I-12
sg30
I5
sbasg34
I00
sg35
I00
sg36
I43195
sg27
S'2545.9630048'
p156
sg30
I3
sba(igraph
Edge
p157
(dp158
g8
I1
sg9
g10
sg11
I00
sg12
I5
sg13
(lp159
g153
a(igraph
Vertex
p160
(dp161
g9
g17
sg18
I43279
sg11
I00
sg19
I0
sg20
I16
sg21
I0
sg22
I-12
sg23
F-156.36629649360606
sg24
F-124.69796037174663
sg25
I43278
sg26
g10
sg27
S'2545.958338'
p162
sg29
I-12
sg30
I5
sbasg34
I00
sg35
I00
sg36
I43196
sg27
S'2545.96326153'
p163
sg30
I3
sba(igraph
Edge
p164
(dp165
g8
I1
sg9
g10
sg11
I00
sg12
I5
sg13
(lp166
g160
a(igraph
Vertex
p167
(dp168
g9
g17
sg18
I43282
sg11
I00
sg19
I6
sg20
I16
sg21
I0
sg22
I-12
sg23
F-86.776747823511769
sg24
F-180.19377358048379
sg25
I43281
sg26
g10
sg27
S'2545.95850311'
p169
sg29
I-12
sg30
I5
sbasg34
I00
sg35
I00
sg36
I43197
sg27
S'2545.96353056'
p170
sg30
I3
sba(igraph
Edge
p171
(dp172
g8
I1
sg9
g10
sg11
I00
sg12
I5
sg13
(lp173
g167
a(igraph
Vertex
p174
(dp175
g9
g17
sg18
I43285
sg11
I00
sg19
I4
sg20
I16
sg21
I0
sg22
I-12
sg23
F-2.4476118406857814e-13
sg24
F-200.0
sg25
I43284
sg26
g10
sg27
S'2545.9586886'
p176
sg29
I-12
sg30
I5
sbasg34
I00
sg35
I00
sg36
I43198
sg27
S'2545.96381495'
p177
sg30
I3
sba(igraph
Edge
p178
(dp179
g8
I1
sg9
g10
sg11
I00
sg12
I5
sg13
(lp180
g174
a(igraph
Vertex
p181
(dp182
g9
g17
sg18
I43288
sg11
I00
sg19
I1
sg20
I16
sg21
I0
sg22
I-12
sg23
F86.7767478235114
sg24
F-180.19377358048391
sg25
I43287
sg26
g10
sg27
S'2545.95887187'
p183
sg29
I-12
sg30
I5
sbasg34
I00
sg35
I00
sg36
I43199
sg27
S'2545.9641108'
p184
sg30
I3
sba(igraph
Edge
p185
(dp186
g8
I1
sg9
g10
sg11
I00
sg12
I5
sg13
(lp187
g181
a(igraph
Vertex
p188
(dp189
g9
g17
sg18
I43291
sg11
I00
sg19
I3
sg20
I16
sg21
I0
sg22
I-12
sg23
F156.36629649360577
sg24
F-124.69796037174687
sg25
I43290
sg26
g10
sg27
S'2545.95908251'
p190
sg29
I-12
sg30
I5
sbasg34
I00
sg35
I00
sg36
I43200
sg27
S'2545.96441838'
p191
sg30
I3
sba(igraph
Edge
p192
(dp193
g8
I1
sg9
g10
sg11
I00
sg12
I5
sg13
(lp194
g188
a(igraph
Vertex
p195
(dp196
g9
g17
sg18
I43294
sg11
I00
sg19
I6
sg20
I16
sg21
I0
sg22
I-12
sg23
F194.98558243636461
sg24
F-44.504186791263088
sg25
I43293
sg26
g10
sg27
S'2545.95927779'
p197
sg29
I-12
sg30
I5
sbasg34
I00
sg35
I00
sg36
I43201
sg27
S'2545.96473798'
p198
sg30
I3
sba(igraph
Edge
p199
(dp200
g8
I1
sg9
g10
sg11
I00
sg12
I5
sg13
(lp201
g195
a(igraph
Vertex
p202
(dp203
g9
g17
sg18
I43297
sg11
I00
sg19
I1
sg20
I16
sg21
I0
sg22
I-12
sg23
F194.98558243636478
sg24
F44.504186791262498
sg25
I43296
sg26
g10
sg27
S'2545.95947921'
p204
sg29
I-12
sg30
I5
sbasg34
I00
sg35
I00
sg36
I43202
sg27
S'2545.96506958'
p205
sg30
I3
sba(igraph
Edge
p206
(dp207
g8
I1
sg9
g10
sg11
I00
sg12
I5
sg13
(lp208
g202
a(igraph
Vertex
p209
(dp210
g9
g17
sg18
I43300
sg11
I00
sg19
I4
sg20
I16
sg21
I0
sg22
I-12
sg23
F156.36629649360617
sg24
F124.69796037174639
sg25
I43299
sg26
g10
sg27
S'2545.95983959'
p211
sg29
I-12
sg30
I5
sbasg34
I00
sg35
I00
sg36
I43203
sg27
S'2545.96541655'
p212
sg30
I3
sba(igraph
Edge
p213
(dp214
g8
I1
sg9
g10
sg11
I00
sg12
I5
sg13
(lp215
g209
a(igraph
Vertex
p216
(dp217
g9
g17
sg18
I43303
sg11
I00
sg19
I6
sg20
I16
sg21
I0
sg22
I-12
sg23
F86.776747823511954
sg24
F180.19377358048365
sg25
I43302
sg26
g10
sg27
S'2545.96007202'
p218
sg29
I-12
sg30
I5
sbasg34
I00
sg35
I00
sg36
I43204
sg27
S'2545.96577749'
p219
sg30
I3
sba(igraph
Edge
p220
(dp221
g8
I1
sg9
g10
sg11
I00
sg12
I5
sg13
(lp222
g216
ag129
asg34
I00
sg35
I00
sg36
I43205
sg27
S'2545.96614765'
p223
sg30
I3
sba(igraph
Edge
p224
(dp225
g8
I1
sg9
g10
sg11
I00
sg12
I5
sg13
(lp226
g153
ag48
asg34
I00
sg35
I00
sg36
I43206
sg27
S'2590.78804485'
p227
sg30
I3
sba(igraph
Edge
p228
(dp229
g8
I1
sg9
g10
sg11
I00
sg12
I5
sg13
(lp230
g41
ag132
asg34
I00
sg35
I00
sg36
I43207
sg27
S'2593.5457973'
p231
sg30
I3
sba(igraph
Edge
p232
(dp233
g8
I1
sg9
g10
sg11
I00
sg12
I5
sg13
(lp234
g129
ag118
asg34
I00
sg35
I00
sg36
I43208
sg27
S'2602.21395233'
p235
sg30
I3
sba(igraph
Edge
p236
(dp237
g8
I1
sg9
g10
sg11
I00
sg12
I5
sg13
(lp238
g111
ag202
asg34
I00
sg35
I00
sg36
I43209
sg27
S'2605.60675281'
p239
sg30
I3
sba(igraph
Edge
p240
(dp241
g8
I1
sg9
g10
sg11
I00
sg12
I5
sg13
(lp242
g90
ag195
asg34
I00
sg35
I00
sg36
I43210
sg27
S'2611.97119662'
p243
sg30
I3
sba(igraph
Edge
p244
(dp245
g8
I1
sg9
g10
sg11
I00
sg12
I5
sg13
(lp246
g83
ag174
asg34
I00
sg35
I00
sg36
I43211
sg27
S'2614.90105698'
p247
sg30
I3
sba(igraph
Edge
p248
(dp249
g8
I1
sg9
g10
sg11
I00
sg12
I5
sg13
(lp250
g55
ag146
asg34
I00
sg35
I00
sg36
I43212
sg27
S'2618.32110254'
p251
sg30
I3
sba(igraph
Edge
p252
(dp253
g8
I1
sg9
g10
sg11
I00
sg12
I5
sg13
(lp254
g139
ag31
asg34
I00
sg35
I00
sg36
I43213
sg27
S'2620.51820134'
p255
sg30
I3
sba(igraph
Edge
p256
(dp257
g8
I1
sg9
g10
sg11
I00
sg12
I5
sg13
(lp258
g15
ag216
asg34
I00
sg35
I00
sg36
I43214
sg27
S'2622.6347695'
p259
sg30
I3
sba(igraph
Edge
p260
(dp261
g8
I1
sg9
g10
sg11
I00
sg12
I5
sg13
(lp262
g209
ag104
asg34
I00
sg35
I00
sg36
I43215
sg27
S'2625.25800039'
p263
sg30
I3
sba(igraph
Edge
p264
(dp265
g8
I1
sg9
g10
sg11
I00
sg12
I5
sg13
(lp266
g97
ag188
asg34
I00
sg35
I00
sg36
I43216
sg27
S'2627.74601632'
p267
sg30
I3
sba(igraph
Edge
p268
(dp269
g8
I1
sg9
g10
sg11
I00
sg12
I5
sg13
(lp270
g181
ag76
asg34
I00
sg35
I00
sg36
I43217
sg27
S'2630.74232731'
p271
sg30
I3
sba(igraph
Edge
p272
(dp273
g8
I1
sg9
g10
sg11
I00
sg12
I5
sg13
(lp274
g69
ag160
asg34
I00
sg35
I00
sg36
I43218
sg27
S'2632.55795164'
p275
sg30
I3
sba(igraph
Edge
p276
(dp277
g8
I1
sg9
g10
sg11
I00
sg12
I5
sg13
(lp278
g167
ag62
asg34
I00
sg35
I00
sg36
I43219
sg27
S'2635.14418508'
p279
sg30
I3
sbasS'vertices'
p280
(lp281
g15
ag31
ag41
ag48
ag55
ag62
ag69
ag76
ag83
ag90
ag97
ag104
ag111
ag118
ag129
ag132
ag139
ag146
ag153
ag160
ag167
ag174
ag181
ag188
ag195
ag202
ag209
ag216
asS'tags'
p282
(lp283
sb.