(igraph
Graph
p0
(dp1
S'labelingConstraints'
p2
(lp3
I2
aI1
asS'edges'
p4
(lp5
(igraph
Edge
p6
(dp7
S'direction'
p8
I1
sS'color'
p9
S'black'
p10
sS'selected'
p11
I00
sS'height'
p12
I5
sS'vs'
p13
(lp14
(igraph
Vertex
p15
(dp16
g9
S'#ffffff'
p17
sS'text'
p18
Nsg11
I00
sS'label'
p19
S'NULL'
p20
sS'lsize'
p21
I16
sS'shape'
p22
I0
sS'ly'
p23
I-12
sS'y'
p24
F-4.2632564145606011e-14
sS'x'
p25
F200.0
sS'circle'
p26
I8978
sS'lcolor'
p27
g10
sS'id'
p28
S'0.00412314972992'
p29
sS'lx'
p30
I-12
sS'size'
p31
I5
sba(igraph
Vertex
p32
(dp33
g9
g17
sg18
Nsg11
I00
sg19
g20
sg21
I16
sg22
I0
sg23
I-12
sg24
F-86.77674782351167
sg25
F180.19377358048382
sg26
I8980
sg27
g10
sg28
S'0.0043335116614'
p34
sg30
I-12
sg31
I5
sbasS'wrap'
p35
I00
sS'curved'
p36
I00
sS'line'
p37
I8907
sg28
S'0.0163783385877'
p38
sg31
I3
sba(igraph
Edge
p39
(dp40
g8
I1
sg9
g10
sg11
I00
sg12
I5
sg13
(lp41
g32
a(igraph
Vertex
p42
(dp43
g9
g17
sg18
Nsg11
I00
sg19
g20
sg21
I16
sg22
I0
sg23
I-12
sg24
F-156.366296493606
sg25
F124.69796037174672
sg26
I8982
sg27
g10
sg28
S'0.00445280056543'
p44
sg30
I-12
sg31
I5
sbasg35
I00
sg36
I00
sg37
I8908
sg28
S'0.0165789227402'
p45
sg31
I3
sba(igraph
Edge
p46
(dp47
g8
I1
sg9
g10
sg11
I00
sg12
I5
sg13
(lp48
g42
a(igraph
Vertex
p49
(dp50
g9
g17
sg18
Nsg11
I00
sg19
g20
sg21
I16
sg22
I0
sg23
I-12
sg24
F-194.98558243636478
sg25
F44.504186791262889
sg26
I8984
sg27
g10
sg28
S'0.00457879423223'
p51
sg30
I-12
sg31
I5
sbasg35
I00
sg36
I00
sg37
I8909
sg28
S'0.0167881672112'
p52
sg31
I3
sba(igraph
Edge
p53
(dp54
g8
I1
sg9
g10
sg11
I00
sg12
I5
sg13
(lp55
g49
a(igraph
Vertex
p56
(dp57
g9
g17
sg18
Nsg11
I00
sg19
g20
sg21
I16
sg22
I0
sg23
I-12
sg24
F-194.98558243636478
sg25
F-44.504186791262867
sg26
I8986
sg27
g10
sg28
S'0.00471484504315'
p58
sg30
I-12
sg31
I5
sbasg35
I00
sg36
I00
sg37
I8910
sg28
S'0.017043227561'
p59
sg31
I3
sba(igraph
Edge
p60
(dp61
g8
I1
sg9
g10
sg11
I00
sg12
I5
sg13
(lp62
g56
a(igraph
Vertex
p63
(dp64
g9
g17
sg18
Nsg11
I00
sg19
g20
sg21
I16
sg22
I0
sg23
I-12
sg24
F-156.36629649360606
sg25
F-124.69796037174663
sg26
I8988
sg27
g10
sg28
S'0.00485760061684'
p65
sg30
I-12
sg31
I5
sbasg35
I00
sg36
I00
sg37
I8911
sg28
S'0.0172748212412'
p66
sg31
I3
sba(igraph
Edge
p67
(dp68
g8
I1
sg9
g10
sg11
I00
sg12
I5
sg13
(lp69
g63
a(igraph
Vertex
p70
(dp71
g9
g17
sg18
Nsg11
I00
sg19
g20
sg21
I16
sg22
I0
sg23
I-12
sg24
F-86.776747823511769
sg25
F-180.19377358048379
sg26
I8990
sg27
g10
sg28
S'0.00500761968351'
p72
sg30
I-12
sg31
I5
sbasg35
I00
sg36
I00
sg37
I8912
sg28
S'0.0175203831772'
p73
sg31
I3
sba(igraph
Edge
p74
(dp75
g8
I1
sg9
g10
sg11
I00
sg12
I5
sg13
(lp76
g70
a(igraph
Vertex
p77
(dp78
g9
g17
sg18
Nsg11
I00
sg19
g20
sg21
I16
sg22
I0
sg23
I-12
sg24
F-2.4476118406857814e-13
sg25
F-200.0
sg26
I8992
sg27
g10
sg28
S'0.0051920006593'
p79
sg30
I-12
sg31
I5
sbasg35
I00
sg36
I00
sg37
I8913
sg28
S'0.0177765609875'
p80
sg31
I3
sba(igraph
Edge
p81
(dp82
g8
I1
sg9
g10
sg11
I00
sg12
I5
sg13
(lp83
g77
a(igraph
Vertex
p84
(dp85
g9
g17
sg18
Nsg11
I00
sg19
g20
sg21
I16
sg22
I0
sg23
I-12
sg24
F86.7767478235114
sg25
F-180.19377358048391
sg26
I8994
sg27
g10
sg28
S'0.00536632449096'
p86
sg30
I-12
sg31
I5
sbasg35
I00
sg36
I00
sg37
I8914
sg28
S'0.0180774372162'
p87
sg31
I3
sba(igraph
Edge
p88
(dp89
g8
I1
sg9
g10
sg11
I00
sg12
I5
sg13
(lp90
g84
a(igraph
Vertex
p91
(dp92
g9
g17
sg18
Nsg11
I00
sg19
g20
sg21
I16
sg22
I0
sg23
I-12
sg24
F156.36629649360577
sg25
F-124.69796037174687
sg26
I8996
sg27
g10
sg28
S'0.00553478165521'
p93
sg30
I-12
sg31
I5
sbasg35
I00
sg36
I00
sg37
I8915
sg28
S'0.0183573610613'
p94
sg31
I3
sba(igraph
Edge
p95
(dp96
g8
I1
sg9
g10
sg11
I00
sg12
I5
sg13
(lp97
g91
a(igraph
Vertex
p98
(dp99
g9
g17
sg18
Nsg11
I00
sg19
g20
sg21
I16
sg22
I0
sg23
I-12
sg24
F194.98558243636461
sg25
F-44.504186791263088
sg26
I8998
sg27
g10
sg28
S'0.00570994358222'
p100
sg30
I-12
sg31
I5
sbasg35
I00
sg36
I00
sg37
I8916
sg28
S'0.0186473420505'
p101
sg31
I3
sba(igraph
Edge
p102
(dp103
g8
I1
sg9
g10
sg11
I00
sg12
I5
sg13
(lp104
g98
a(igraph
Vertex
p105
(dp106
g9
g17
sg18
Nsg11
I00
sg19
g20
sg21
I16
sg22
I0
sg23
I-12
sg24
F194.98558243636478
sg25
F44.504186791262498
sg26
I9000
sg27
g10
sg28
S'0.0058960007487'
p107
sg30
I-12
sg31
I5
sbasg35
I00
sg36
I00
sg37
I8917
sg28
S'0.0189887262208'
p108
sg31
I3
sba(igraph
Edge
p109
(dp110
g8
I1
sg9
g10
sg11
I00
sg12
I5
sg13
(lp111
g105
a(igraph
Vertex
p112
(dp113
g9
g17
sg18
Nsg11
I00
sg19
g20
sg21
I16
sg22
I0
sg23
I-12
sg24
F156.36629649360617
sg25
F124.69796037174639
sg26
I9002
sg27
g10
sg28
S'0.00609686426627'
p114
sg30
I-12
sg31
I5
sbasg35
I00
sg36
I00
sg37
I8918
sg28
S'0.0193046881657'
p115
sg31
I3
sba(igraph
Edge
p116
(dp117
g8
I1
sg9
g10
sg11
I00
sg12
I5
sg13
(lp118
g112
a(igraph
Vertex
p119
(dp120
g9
g17
sg18
Nsg11
I00
sg19
g20
sg21
I16
sg22
I0
sg23
I-12
sg24
F86.776747823511954
sg25
F180.19377358048365
sg26
I9004
sg27
g10
sg28
S'0.00633208969296'
p121
sg30
I-12
sg31
I5
sbasg35
I00
sg36
I00
sg37
I8919
sg28
S'0.0196312659849'
p122
sg31
I3
sba(igraph
Edge
p123
(dp124
g8
I1
sg9
g10
sg11
I00
sg12
I5
sg13
(lp125
g119
ag15
asg35
I00
sg36
I00
sg37
I8920
sg28
S'0.0200687517548'
p126
sg31
I3
sba(igraph
Edge
p127
(dp128
g8
I1
sg9
g10
sg11
I00
sg12
I5
sg13
(lp129
(igraph
Vertex
p130
(dp131
g9
g17
sg18
Nsg11
I00
sg19
g20
sg21
I16
sg22
I0
sg23
I-12
sg24
F-4.2632564145606011e-14
sg25
F100.0
sg26
I8950
sg27
g10
sg28
S'4.1904767226e-06'
p132
sg30
I-12
sg31
I5
sbag15
asg35
I00
sg36
I00
sg37
I8921
sg28
S'0.020417120053'
p133
sg31
I3
sba(igraph
Edge
p134
(dp135
g8
I1
sg9
g10
sg11
I00
sg12
I5
sg13
(lp136
(igraph
Vertex
p137
(dp138
g9
g17
sg18
Nsg11
I00
sg19
g20
sg21
I16
sg22
I0
sg23
I-12
sg24
F-43.388373911755856
sg25
F90.096886790241911
sg26
I8952
sg27
g10
sg28
S'0.002938641643'
p139
sg30
I-12
sg31
I5
sbag32
asg35
I00
sg36
I00
sg37
I8922
sg28
S'0.0207970566092'
p140
sg31
I3
sba(igraph
Edge
p141
(dp142
g8
I1
sg9
g10
sg11
I00
sg12
I5
sg13
(lp143
(igraph
Vertex
p144
(dp145
g9
g17
sg18
Nsg11
I00
sg19
g20
sg21
I16
sg22
I0
sg23
I-12
sg24
F-78.183148246803029
sg25
F62.348980185873359
sg26
I8954
sg27
g10
sg28
S'0.00303055276578'
p146
sg30
I-12
sg31
I5
sbag42
asg35
I00
sg36
I00
sg37
I8923
sg28
S'0.0211828598327'
p147
sg31
I3
sba(igraph
Edge
p148
(dp149
g8
I1
sg9
g10
sg11
I00
sg12
I5
sg13
(lp150
(igraph
Vertex
p151
(dp152
g9
g17
sg18
Nsg11
I00
sg19
g20
sg21
I16
sg22
I0
sg23
I-12
sg24
F-97.492791218182404
sg25
F22.252093395631444
sg26
I8956
sg27
g10
sg28
S'0.00312469880949'
p153
sg30
I-12
sg31
I5
sbag49
asg35
I00
sg36
I00
sg37
I8924
sg28
S'0.0215625170238'
p154
sg31
I3
sba(igraph
Edge
p155
(dp156
g8
I1
sg9
g10
sg11
I00
sg12
I5
sg13
(lp157
(igraph
Vertex
p158
(dp159
g9
g17
sg18
Nsg11
I00
sg19
g20
sg21
I16
sg22
I0
sg23
I-12
sg24
F-97.492791218182404
sg25
F-22.252093395631434
sg26
I8958
sg27
g10
sg28
S'0.00325516231812'
p160
sg30
I-12
sg31
I5
sbag56
asg35
I00
sg36
I00
sg37
I8925
sg28
S'0.0219927393007'
p161
sg31
I3
sba(igraph
Edge
p162
(dp163
g8
I1
sg9
g10
sg11
I00
sg12
I5
sg13
(lp164
(igraph
Vertex
p165
(dp166
g9
g17
sg18
Nsg11
I00
sg19
g20
sg21
I16
sg22
I0
sg23
I-12
sg24
F-78.183148246803057
sg25
F-62.348980185873316
sg26
I8960
sg27
g10
sg28
S'0.00337026074543'
p167
sg30
I-12
sg31
I5
sbag63
asg35
I00
sg36
I00
sg37
I8926
sg28
S'0.0224020091939'
p168
sg31
I3
sba(igraph
Edge
p169
(dp170
g8
I1
sg9
g10
sg11
I00
sg12
I5
sg13
(lp171
(igraph
Vertex
p172
(dp173
g9
g17
sg18
Nsg11
I00
sg19
g20
sg21
I16
sg22
I0
sg23
I-12
sg24
F-43.388373911755906
sg25
F-90.096886790241896
sg26
I8962
sg27
g10
sg28
S'0.00348368298205'
p174
sg30
I-12
sg31
I5
sbag70
asg35
I00
sg36
I00
sg37
I8927
sg28
S'0.022852345759'
p175
sg31
I3
sba(igraph
Edge
p176
(dp177
g8
I1
sg9
g10
sg11
I00
sg12
I5
sg13
(lp178
(igraph
Vertex
p179
(dp180
g9
g17
sg18
Nsg11
I00
sg19
g20
sg21
I16
sg22
I0
sg23
I-12
sg24
F-1.4369687410709207e-13
sg25
F-100.0
sg26
I8964
sg27
g10
sg28
S'0.00354067346548'
p181
sg30
I-12
sg31
I5
sbag77
asg35
I00
sg36
I00
sg37
I8928
sg28
S'0.0232856410521'
p182
sg31
I3
sba(igraph
Edge
p183
(dp184
g8
I1
sg9
g10
sg11
I00
sg12
I5
sg13
(lp185
(igraph
Vertex
p186
(dp187
g9
g17
sg18
Nsg11
I00
sg19
g20
sg21
I16
sg22
I0
sg23
I-12
sg24
F43.388373911755679
sg25
F-90.096886790241953
sg26
I8966
sg27
g10
sg28
S'0.0036012956954'
p188
sg30
I-12
sg31
I5
sbag84
asg35
I00
sg36
I00
sg37
I8929
sg28
S'0.0238105681029'
p189
sg31
I3
sba(igraph
Edge
p190
(dp191
g8
I1
sg9
g10
sg11
I00
sg12
I5
sg13
(lp192
(igraph
Vertex
p193
(dp194
g9
g17
sg18
Nsg11
I00
sg19
g20
sg21
I16
sg22
I0
sg23
I-12
sg24
F78.183148246802872
sg25
F-62.348980185873437
sg26
I8968
sg27
g10
sg28
S'0.00366918141831'
p195
sg30
I-12
sg31
I5
sbag91
asg35
I00
sg36
I00
sg37
I8930
sg28
S'0.0242698443517'
p196
sg31
I3
sba(igraph
Edge
p197
(dp198
g8
I1
sg9
g10
sg11
I00
sg12
I5
sg13
(lp199
(igraph
Vertex
p200
(dp201
g9
g17
sg18
Nsg11
I00
sg19
g20
sg21
I16
sg22
I0
sg23
I-12
sg24
F97.49279121818229
sg25
F-22.252093395631544
sg26
I8970
sg27
g10
sg28
S'0.0037443306342'
p202
sg30
I-12
sg31
I5
sbag98
asg35
I00
sg36
I00
sg37
I8931
sg28
S'0.0247520285399'
p203
sg31
I3
sba(igraph
Edge
p204
(dp205
g8
I1
sg9
g10
sg11
I00
sg12
I5
sg13
(lp206
(igraph
Vertex
p207
(dp208
g9
g17
sg18
Nsg11
I00
sg19
g20
sg21
I16
sg22
I0
sg23
I-12
sg24
F97.492791218182361
sg25
F22.252093395631249
sg26
I8972
sg27
g10
sg28
S'0.00382841953377'
p209
sg30
I-12
sg31
I5
sbag105
asg35
I00
sg36
I00
sg37
I8932
sg28
S'0.0252344920933'
p210
sg31
I3
sba(igraph
Edge
p211
(dp212
g8
I1
sg9
g10
sg11
I00
sg12
I5
sg13
(lp213
(igraph
Vertex
p214
(dp215
g9
g17
sg18
Nsg11
I00
sg19
g20
sg21
I16
sg22
I0
sg23
I-12
sg24
F78.183148246803057
sg25
F62.348980185873195
sg26
I8974
sg27
g10
sg28
S'0.00391893383098'
p216
sg30
I-12
sg31
I5
sbag112
asg35
I00
sg36
I00
sg37
I8933
sg28
S'0.0257404223162'
p217
sg31
I3
sba(igraph
Edge
p218
(dp219
g8
I1
sg9
g10
sg11
I00
sg12
I5
sg13
(lp220
(igraph
Vertex
p221
(dp222
g9
g17
sg18
Nsg11
I00
sg19
g20
sg21
I16
sg22
I0
sg23
I-12
sg24
F43.388373911755956
sg25
F90.096886790241825
sg26
I8976
sg27
g10
sg28
S'0.00401699098628'
p223
sg30
I-12
sg31
I5
sbag119
asg35
I00
sg36
I00
sg37
I8934
sg28
S'0.0262511017462'
p224
sg31
I3
sba(igraph
Edge
p225
(dp226
g8
I1
sg9
g10
sg11
I00
sg12
I5
sg13
(lp227
g158
ag137
asg35
I00
sg36
I00
sg37
I8935
sg28
S'126.949442178'
p228
sg31
I3
sba(igraph
Edge
p229
(dp230
g8
I1
sg9
g10
sg11
I00
sg12
I5
sg13
(lp231
g137
ag214
asg35
I00
sg36
I00
sg37
I8936
sg28
S'130.573349965'
p232
sg31
I3
sba(igraph
Edge
p233
(dp234
g8
I1
sg9
g10
sg11
I00
sg12
I5
sg13
(lp235
g214
ag193
asg35
I00
sg36
I00
sg37
I8937
sg28
S'133.253197823'
p236
sg31
I3
sba(igraph
Edge
p237
(dp238
g8
I1
sg9
g10
sg11
I00
sg12
I5
sg13
(lp239
g193
ag172
asg35
I00
sg36
I00
sg37
I8938
sg28
S'135.854817023'
p240
sg31
I3
sba(igraph
Edge
p241
(dp242
g8
I1
sg9
g10
sg11
I00
sg12
I5
sg13
(lp243
g172
ag151
asg35
I00
sg36
I00
sg37
I8939
sg28
S'138.7532868'
p244
sg31
I3
sba(igraph
Edge
p245
(dp246
g8
I1
sg9
g10
sg11
I00
sg12
I5
sg13
(lp247
g151
ag130
asg35
I00
sg36
I00
sg37
I8940
sg28
S'141.266120135'
p248
sg31
I3
sba(igraph
Edge
p249
(dp250
g8
I1
sg9
g10
sg11
I00
sg12
I5
sg13
(lp251
g130
ag207
asg35
I00
sg36
I00
sg37
I8941
sg28
S'144.456434547'
p252
sg31
I3
sba(igraph
Edge
p253
(dp254
g8
I1
sg9
g10
sg11
I00
sg12
I5
sg13
(lp255
g207
ag186
asg35
I00
sg36
I00
sg37
I8942
sg28
S'147.559314941'
p256
sg31
I3
sba(igraph
Edge
p257
(dp258
g8
I1
sg9
g10
sg11
I00
sg12
I5
sg13
(lp259
g186
ag165
asg35
I00
sg36
I00
sg37
I8943
sg28
S'149.57895794'
p260
sg31
I3
sba(igraph
Edge
p261
(dp262
g8
I1
sg9
g10
sg11
I00
sg12
I5
sg13
(lp263
g165
ag144
asg35
I00
sg36
I00
sg37
I8944
sg28
S'159.881889458'
p264
sg31
I3
sba(igraph
Edge
p265
(dp266
g8
I1
sg9
g10
sg11
I00
sg12
I5
sg13
(lp267
g144
ag221
asg35
I00
sg36
I00
sg37
I8945
sg28
S'163.377157432'
p268
sg31
I3
sba(igraph
Edge
p269
(dp270
g8
I1
sg9
g10
sg11
I00
sg12
I5
sg13
(lp271
g221
ag200
asg35
I00
sg36
I00
sg37
I8946
sg28
S'166.357498788'
p272
sg31
I3
sba(igraph
Edge
p273
(dp274
g8
I1
sg9
g10
sg11
I00
sg12
I5
sg13
(lp275
g200
ag179
asg35
I00
sg36
I00
sg37
I8947
sg28
S'172.992399034'
p276
sg31
I3
sba(igraph
Edge
p277
(dp278
g8
I1
sg9
g10
sg11
I00
sg12
I5
sg13
(lp279
g179
ag158
asg35
I00
sg36
I00
sg37
I8948
sg28
S'175.102139518'
p280
sg31
I3
sbasS'vertices'
p281
(lp282
g130
ag137
ag144
ag151
ag158
ag165
ag172
ag179
ag186
ag193
ag200
ag207
ag214
ag221
ag15
ag32
ag42
ag49
ag56
ag63
ag70
ag77
ag84
ag91
ag98
ag105
ag112
ag119
asS'tags'
p283
(lp284
sb.