(igraph
Graph
p0
(dp1
S'labelingConstraints'
p2
(lp3
I2
aI1
asS'edges'
p4
(lp5
(igraph
Edge
p6
(dp7
S'direction'
p8
I1
sS'color'
p9
S'black'
p10
sS'selected'
p11
I00
sS'height'
p12
I5
sS'vs'
p13
(lp14
(igraph
Vertex
p15
(dp16
g9
S'#ffffff'
p17
sS'text'
p18
I14775
sg11
I00
sS'label'
p19
I6
sS'lsize'
p20
I16
sS'shape'
p21
I0
sS'ly'
p22
I-12
sS'y'
p23
F-4.2632564145606011e-14
sS'x'
p24
F200.0
sS'circle'
p25
I14774
sS'lcolor'
p26
g10
sS'id'
p27
S'0.0443327294391'
p28
sS'lx'
p29
I-12
sS'size'
p30
I5
sba(igraph
Vertex
p31
(dp32
g9
g17
sg18
I14778
sg11
I00
sg19
I2
sg20
I16
sg21
I0
sg22
I-12
sg23
F-86.77674782351167
sg24
F180.19377358048382
sg25
I14777
sg26
g10
sg27
S'0.044451738978'
p33
sg29
I-12
sg30
I5
sbasS'wrap'
p34
I00
sS'curved'
p35
I00
sS'line'
p36
I14689
sg27
S'0.0472543298101'
p37
sg30
I3
sba(igraph
Edge
p38
(dp39
g8
I1
sg9
g10
sg11
I00
sg12
I5
sg13
(lp40
g31
a(igraph
Vertex
p41
(dp42
g9
g17
sg18
I14781
sg11
I00
sg19
I4
sg20
I16
sg21
I0
sg22
I-12
sg23
F-156.366296493606
sg24
F124.69796037174672
sg25
I14780
sg26
g10
sg27
S'0.0445687929611'
p43
sg29
I-12
sg30
I5
sbasg34
I00
sg35
I00
sg36
I14690
sg27
S'0.0475605139759'
p44
sg30
I3
sba(igraph
Edge
p45
(dp46
g8
I1
sg9
g10
sg11
I00
sg12
I5
sg13
(lp47
g41
a(igraph
Vertex
p48
(dp49
g9
g17
sg18
I14784
sg11
I00
sg19
I6
sg20
I16
sg21
I0
sg22
I-12
sg23
F-194.98558243636478
sg24
F44.504186791262889
sg25
I14783
sg26
g10
sg27
S'0.044692551707'
p50
sg29
I-12
sg30
I5
sbasg34
I00
sg35
I00
sg36
I14691
sg27
S'0.0477082981217'
p51
sg30
I3
sba(igraph
Edge
p52
(dp53
g8
I1
sg9
g10
sg11
I00
sg12
I5
sg13
(lp54
g48
a(igraph
Vertex
p55
(dp56
g9
g17
sg18
I14787
sg11
I00
sg19
I2
sg20
I16
sg21
I0
sg22
I-12
sg23
F-194.98558243636478
sg24
F-44.504186791262867
sg25
I14786
sg26
g10
sg27
S'0.044823853311'
p57
sg29
I-12
sg30
I5
sbasg34
I00
sg35
I00
sg36
I14692
sg27
S'0.0477694790818'
p58
sg30
I3
sba(igraph
Edge
p59
(dp60
g8
I1
sg9
g10
sg11
I00
sg12
I5
sg13
(lp61
g55
a(igraph
Vertex
p62
(dp63
g9
g17
sg18
I14790
sg11
I00
sg19
I5
sg20
I16
sg21
I0
sg22
I-12
sg23
F-156.36629649360606
sg24
F-124.69796037174663
sg25
I14789
sg26
g10
sg27
S'0.0449632565033'
p64
sg29
I-12
sg30
I5
sbasg34
I00
sg35
I00
sg36
I14693
sg27
S'0.0478401584559'
p65
sg30
I3
sba(igraph
Edge
p66
(dp67
g8
I1
sg9
g10
sg11
I00
sg12
I5
sg13
(lp68
g62
a(igraph
Vertex
p69
(dp70
g9
g17
sg18
I14793
sg11
I00
sg19
I1
sg20
I16
sg21
I0
sg22
I-12
sg23
F-86.776747823511769
sg24
F-180.19377358048379
sg25
I14792
sg26
g10
sg27
S'0.0451088057281'
p71
sg29
I-12
sg30
I5
sbasg34
I00
sg35
I00
sg36
I14694
sg27
S'0.0479242473555'
p72
sg30
I3
sba(igraph
Edge
p73
(dp74
g8
I1
sg9
g10
sg11
I00
sg12
I5
sg13
(lp75
g69
a(igraph
Vertex
p76
(dp77
g9
g17
sg18
I14796
sg11
I00
sg19
I6
sg20
I16
sg21
I0
sg22
I-12
sg23
F-2.4476118406857814e-13
sg24
F-200.0
sg25
I14795
sg26
g10
sg27
S'0.0452772628924'
p78
sg29
I-12
sg30
I5
sbasg34
I00
sg35
I00
sg36
I14695
sg27
S'0.0480197902247'
p79
sg30
I3
sba(igraph
Edge
p80
(dp81
g8
I1
sg9
g10
sg11
I00
sg12
I5
sg13
(lp82
g76
a(igraph
Vertex
p83
(dp84
g9
g17
sg18
I14799
sg11
I00
sg19
I3
sg20
I16
sg21
I0
sg22
I-12
sg23
F86.7767478235114
sg24
F-180.19377358048391
sg25
I14798
sg26
g10
sg27
S'0.0454568946612'
p85
sg29
I-12
sg30
I5
sbasg34
I00
sg35
I00
sg36
I14696
sg27
S'0.0481354473823'
p86
sg30
I3
sba(igraph
Edge
p87
(dp88
g8
I1
sg9
g10
sg11
I00
sg12
I5
sg13
(lp89
g83
a(igraph
Vertex
p90
(dp91
g9
g17
sg18
I14802
sg11
I00
sg19
I0
sg20
I16
sg21
I0
sg22
I-12
sg23
F156.36629649360577
sg24
F-124.69796037174687
sg25
I14801
sg26
g10
sg27
S'0.0456250724603'
p92
sg29
I-12
sg30
I5
sbasg34
I00
sg35
I00
sg36
I14697
sg27
S'0.0482650727956'
p93
sg30
I3
sba(igraph
Edge
p94
(dp95
g8
I1
sg9
g10
sg11
I00
sg12
I5
sg13
(lp96
g90
a(igraph
Vertex
p97
(dp98
g9
g17
sg18
I14805
sg11
I00
sg19
I2
sg20
I16
sg21
I0
sg22
I-12
sg23
F194.98558243636461
sg24
F-44.504186791263088
sg25
I14804
sg26
g10
sg27
S'0.045801910578'
p99
sg29
I-12
sg30
I5
sbasg34
I00
sg35
I00
sg36
I14698
sg27
S'0.0484030791623'
p100
sg30
I3
sba(igraph
Edge
p101
(dp102
g8
I1
sg9
g10
sg11
I00
sg12
I5
sg13
(lp103
g97
a(igraph
Vertex
p104
(dp105
g9
g17
sg18
I14808
sg11
I00
sg19
I6
sg20
I16
sg21
I0
sg22
I-12
sg23
F194.98558243636478
sg24
F44.504186791262498
sg25
I14807
sg26
g10
sg27
S'0.0459829391724'
p106
sg29
I-12
sg30
I5
sbasg34
I00
sg35
I00
sg36
I14699
sg27
S'0.0485466728313'
p107
sg30
I3
sba(igraph
Edge
p108
(dp109
g8
I1
sg9
g10
sg11
I00
sg12
I5
sg13
(lp110
g104
a(igraph
Vertex
p111
(dp112
g9
g17
sg18
I14811
sg11
I00
sg19
I3
sg20
I16
sg21
I0
sg22
I-12
sg23
F156.36629649360617
sg24
F124.69796037174639
sg25
I14810
sg26
g10
sg27
S'0.0461815677691'
p113
sg29
I-12
sg30
I5
sbasg34
I00
sg35
I00
sg36
I14700
sg27
S'0.0487011617398'
p114
sg30
I3
sba(igraph
Edge
p115
(dp116
g8
I1
sg9
g10
sg11
I00
sg12
I5
sg13
(lp117
g111
a(igraph
Vertex
p118
(dp119
g9
g17
sg18
I14814
sg11
I00
sg19
I1
sg20
I16
sg21
I0
sg22
I-12
sg23
F86.776747823511954
sg24
F180.19377358048365
sg25
I14813
sg26
g10
sg27
S'0.0463916503354'
p120
sg29
I-12
sg30
I5
sbasg34
I00
sg35
I00
sg36
I14701
sg27
S'0.0488679427134'
p121
sg30
I3
sba(igraph
Edge
p122
(dp123
g8
I1
sg9
g10
sg11
I00
sg12
I5
sg13
(lp124
g118
ag15
asg34
I00
sg35
I00
sg36
I14702
sg27
S'0.0490475744822'
p125
sg30
I3
sba(igraph
Edge
p126
(dp127
g8
I1
sg9
g10
sg11
I00
sg12
I5
sg13
(lp128
(igraph
Vertex
p129
(dp130
g9
g17
sg18
I14733
sg11
I00
sg19
I0
sg20
I16
sg21
I0
sg22
I-12
sg23
F-4.2632564145606011e-14
sg24
F100.0
sg25
I14732
sg26
g10
sg27
S'3.63174649292e-06'
p131
sg29
I-12
sg30
I5
sbag15
asg34
I00
sg35
I00
sg36
I14703
sg27
S'0.0492618475253'
p132
sg30
I3
sba(igraph
Edge
p133
(dp134
g8
I1
sg9
g10
sg11
I00
sg12
I5
sg13
(lp135
(igraph
Vertex
p136
(dp137
g9
g17
sg18
I14736
sg11
I00
sg19
I0
sg20
I16
sg21
I0
sg22
I-12
sg23
F-43.388373911755856
sg24
F90.096886790241911
sg25
I14735
sg26
g10
sg27
S'0.0430294911783'
p138
sg29
I-12
sg30
I5
sbag31
asg34
I00
sg35
I00
sg36
I14704
sg27
S'0.0494624316778'
p139
sg30
I3
sba(igraph
Edge
p140
(dp141
g8
I1
sg9
g10
sg11
I00
sg12
I5
sg13
(lp142
(igraph
Vertex
p143
(dp144
g9
g17
sg18
I14739
sg11
I00
sg19
I0
sg20
I16
sg21
I0
sg22
I-12
sg23
F-78.183148246803029
sg24
F62.348980185873359
sg25
I14738
sg26
g10
sg27
S'0.0431607927823'
p145
sg29
I-12
sg30
I5
sbag41
asg34
I00
sg35
I00
sg36
I14705
sg27
S'0.0496767047209'
p146
sg30
I3
sba(igraph
Edge
p147
(dp148
g8
I1
sg9
g10
sg11
I00
sg12
I5
sg13
(lp149
(igraph
Vertex
p150
(dp151
g9
g17
sg18
I14742
sg11
I00
sg19
I0
sg20
I16
sg21
I0
sg22
I-12
sg23
F-97.492791218182404
sg24
F22.252093395631444
sg25
I14741
sg26
g10
sg27
S'0.0432750531143'
p152
sg29
I-12
sg30
I5
sbag48
asg34
I00
sg35
I00
sg36
I14706
sg27
S'0.0499085777662'
p153
sg30
I3
sba(igraph
Edge
p154
(dp155
g8
I1
sg9
g10
sg11
I00
sg12
I5
sg13
(lp156
(igraph
Vertex
p157
(dp158
g9
g17
sg18
I14745
sg11
I00
sg19
I4
sg20
I16
sg21
I0
sg22
I-12
sg23
F-97.492791218182404
sg24
F-22.252093395631434
sg25
I14744
sg26
g10
sg27
S'0.0434253515461'
p159
sg29
I-12
sg30
I5
sbag55
asg34
I00
sg35
I00
sg36
I14707
sg27
S'0.0501628000207'
p160
sg30
I3
sba(igraph
Edge
p161
(dp162
g8
I1
sg9
g10
sg11
I00
sg12
I5
sg13
(lp163
(igraph
Vertex
p164
(dp165
g9
g17
sg18
I14748
sg11
I00
sg19
I3
sg20
I16
sg21
I0
sg22
I-12
sg23
F-78.183148246803057
sg24
F-62.348980185873316
sg25
I14747
sg26
g10
sg27
S'0.043544361085'
p166
sg29
I-12
sg30
I5
sbag62
asg34
I00
sg35
I00
sg36
I14708
sg27
S'0.0504223302124'
p167
sg30
I3
sba(igraph
Edge
p168
(dp169
g8
I1
sg9
g10
sg11
I00
sg12
I5
sg13
(lp170
(igraph
Vertex
p171
(dp172
g9
g17
sg18
I14751
sg11
I00
sg19
I3
sg20
I16
sg21
I0
sg22
I-12
sg23
F-43.388373911755906
sg24
F-90.096886790241896
sg25
I14750
sg26
g10
sg27
S'0.0436552690356'
p173
sg29
I-12
sg30
I5
sbag69
asg34
I00
sg35
I00
sg36
I14709
sg27
S'0.0506807429436'
p174
sg30
I3
sba(igraph
Edge
p175
(dp176
g8
I1
sg9
g10
sg11
I00
sg12
I5
sg13
(lp177
(igraph
Vertex
p178
(dp179
g9
g17
sg18
I14754
sg11
I00
sg19
I2
sg20
I16
sg21
I0
sg22
I-12
sg23
F-1.4369687410709207e-13
sg24
F-100.0
sg25
I14753
sg26
g10
sg27
S'0.0437105833283'
p180
sg29
I-12
sg30
I5
sbag76
asg34
I00
sg35
I00
sg36
I14710
sg27
S'0.0509528445654'
p181
sg30
I3
sba(igraph
Edge
p182
(dp183
g8
I1
sg9
g10
sg11
I00
sg12
I5
sg13
(lp184
(igraph
Vertex
p185
(dp186
g9
g17
sg18
I14757
sg11
I00
sg19
I1
sg20
I16
sg21
I0
sg22
I-12
sg23
F43.388373911755679
sg24
F-90.096886790241953
sg25
I14756
sg26
g10
sg27
S'0.0437709261931'
p187
sg29
I-12
sg30
I5
sbag83
asg34
I00
sg35
I00
sg36
I14711
sg27
S'0.0512609842871'
p188
sg30
I3
sba(igraph
Edge
p189
(dp190
g8
I1
sg9
g10
sg11
I00
sg12
I5
sg13
(lp191
(igraph
Vertex
p192
(dp193
g9
g17
sg18
I14760
sg11
I00
sg19
I6
sg20
I16
sg21
I0
sg22
I-12
sg23
F78.183148246802872
sg24
F-62.348980185873437
sg25
I14759
sg26
g10
sg27
S'0.0438393706463'
p194
sg29
I-12
sg30
I5
sbag90
asg34
I00
sg35
I00
sg36
I14712
sg27
S'0.0515540382926'
p195
sg30
I3
sba(igraph
Edge
p196
(dp197
g8
I1
sg9
g10
sg11
I00
sg12
I5
sg13
(lp198
(igraph
Vertex
p199
(dp200
g9
g17
sg18
I14763
sg11
I00
sg19
I5
sg20
I16
sg21
I0
sg22
I-12
sg23
F97.49279121818229
sg24
F-22.252093395631544
sg25
I14762
sg26
g10
sg27
S'0.043914240497'
p201
sg29
I-12
sg30
I5
sbag97
asg34
I00
sg35
I00
sg36
I14713
sg27
S'0.0518624573794'
p202
sg30
I3
sba(igraph
Edge
p203
(dp204
g8
I1
sg9
g10
sg11
I00
sg12
I5
sg13
(lp205
(igraph
Vertex
p206
(dp207
g9
g17
sg18
I14766
sg11
I00
sg19
I4
sg20
I16
sg21
I0
sg22
I-12
sg23
F97.492791218182361
sg24
F22.252093395631249
sg25
I14765
sg26
g10
sg27
S'0.0439963738408'
p208
sg29
I-12
sg30
I5
sbag104
asg34
I00
sg35
I00
sg36
I14714
sg27
S'0.0522038415497'
p209
sg30
I3
sba(igraph
Edge
p210
(dp211
g8
I1
sg9
g10
sg11
I00
sg12
I5
sg13
(lp212
(igraph
Vertex
p213
(dp214
g9
g17
sg18
I14769
sg11
I00
sg19
I5
sg20
I16
sg21
I0
sg22
I-12
sg23
F78.183148246803057
sg24
F62.348980185873195
sg25
I14768
sg26
g10
sg27
S'0.0440846532171'
p215
sg29
I-12
sg30
I5
sbag111
asg34
I00
sg35
I00
sg36
I14715
sg27
S'0.0525390796875'
p216
sg30
I3
sba(igraph
Edge
p217
(dp218
g8
I1
sg9
g10
sg11
I00
sg12
I5
sg13
(lp219
(igraph
Vertex
p220
(dp221
g9
g17
sg18
I14772
sg11
I00
sg19
I4
sg20
I16
sg21
I0
sg22
I-12
sg23
F43.388373911755956
sg24
F90.096886790241825
sg25
I14771
sg26
g10
sg27
S'0.0441801960864'
p222
sg29
I-12
sg30
I5
sbag118
asg34
I00
sg35
I00
sg36
I14716
sg27
S'0.052880743223'
p223
sg30
I3
sba(igraph
Edge
p224
(dp225
g8
I1
sg9
g10
sg11
I00
sg12
I5
sg13
(lp226
g129
ag157
asg34
I00
sg35
I00
sg36
I14717
sg27
S'117.060452376'
p227
sg30
I3
sba(igraph
Edge
p228
(dp229
g8
I1
sg9
g10
sg11
I00
sg12
I5
sg13
(lp230
g157
ag185
asg34
I00
sg35
I00
sg36
I14718
sg27
S'119.256176693'
p231
sg30
I3
sba(igraph
Edge
p232
(dp233
g8
I1
sg9
g10
sg11
I00
sg12
I5
sg13
(lp234
g185
ag213
asg34
I00
sg35
I00
sg36
I14719
sg27
S'121.468681075'
p235
sg30
I3
sba(igraph
Edge
p236
(dp237
g8
I1
sg9
g10
sg11
I00
sg12
I5
sg13
(lp238
g213
ag143
asg34
I00
sg35
I00
sg36
I14720
sg27
S'123.719270745'
p239
sg30
I3
sba(igraph
Edge
p240
(dp241
g8
I1
sg9
g10
sg11
I00
sg12
I5
sg13
(lp242
g143
ag171
asg34
I00
sg35
I00
sg36
I14721
sg27
S'127.768404923'
p243
sg30
I3
sba(igraph
Edge
p244
(dp245
g8
I1
sg9
g10
sg11
I00
sg12
I5
sg13
(lp246
g171
ag199
asg34
I00
sg35
I00
sg36
I14722
sg27
S'130.573557813'
p247
sg30
I3
sba(igraph
Edge
p248
(dp249
g8
I1
sg9
g10
sg11
I00
sg12
I5
sg13
(lp250
g199
ag129
asg34
I00
sg35
I00
sg36
I14723
sg27
S'133.097567428'
p251
sg30
I3
sba(igraph
Edge
p252
(dp253
g8
I1
sg9
g10
sg11
I00
sg12
I5
sg13
(lp254
g136
ag164
asg34
I00
sg35
I00
sg36
I14724
sg27
S'136.330953515'
p255
sg30
I3
sba(igraph
Edge
p256
(dp257
g8
I1
sg9
g10
sg11
I00
sg12
I5
sg13
(lp258
g164
ag192
asg34
I00
sg35
I00
sg36
I14725
sg27
S'138.680609407'
p259
sg30
I3
sba(igraph
Edge
p260
(dp261
g8
I1
sg9
g10
sg11
I00
sg12
I5
sg13
(lp262
g192
ag220
asg34
I00
sg35
I00
sg36
I14726
sg27
S'141.287246563'
p263
sg30
I3
sba(igraph
Edge
p264
(dp265
g8
I1
sg9
g10
sg11
I00
sg12
I5
sg13
(lp266
g220
ag150
asg34
I00
sg35
I00
sg36
I14727
sg27
S'143.095989015'
p267
sg30
I3
sba(igraph
Edge
p268
(dp269
g8
I1
sg9
g10
sg11
I00
sg12
I5
sg13
(lp270
g150
ag178
asg34
I00
sg35
I00
sg36
I14728
sg27
S'144.671099819'
p271
sg30
I3
sba(igraph
Edge
p272
(dp273
g8
I1
sg9
g10
sg11
I00
sg12
I5
sg13
(lp274
g178
ag206
asg34
I00
sg35
I00
sg36
I14729
sg27
S'147.481725471'
p275
sg30
I3
sba(igraph
Edge
p276
(dp277
g8
I1
sg9
g10
sg11
I00
sg12
I5
sg13
(lp278
g206
ag136
asg34
I00
sg35
I00
sg36
I14730
sg27
S'149.695503479'
p279
sg30
I3
sbasS'vertices'
p280
(lp281
g129
ag136
ag143
ag150
ag157
ag164
ag171
ag178
ag185
ag192
ag199
ag206
ag213
ag220
ag15
ag31
ag41
ag48
ag55
ag62
ag69
ag76
ag83
ag90
ag97
ag104
ag111
ag118
asS'tags'
p282
(lp283
sb.