(igraph
Graph
p0
(dp1
S'labelingConstraints'
p2
(lp3
I2
aI1
asS'edges'
p4
(lp5
(igraph
Edge
p6
(dp7
S'direction'
p8
I1
sS'color'
p9
S'black'
p10
sS'selected'
p11
I00
sS'height'
p12
I5
sS'vs'
p13
(lp14
(igraph
Vertex
p15
(dp16
S'lcolor'
p17
g10
sg9
S'#ffffff'
p18
sS'text'
p19
Nsg11
I00
sS'label'
p20
S'NULL'
p21
sS'shape'
p22
I0
sS'circle'
p23
I2230
sS'y'
p24
F-4.2632564145606011e-14
sS'x'
p25
F200.0
sS'lsize'
p26
I16
sS'ly'
p27
I-12
sS'id'
p28
S'0.00412314972992'
p29
sS'lx'
p30
I-12
sS'size'
p31
I5
sba(igraph
Vertex
p32
(dp33
g17
g10
sg9
g18
sg19
Nsg11
I00
sg20
g21
sg22
I0
sg23
I2232
sg24
F-86.77674782351167
sg25
F180.19377358048382
sg26
I16
sg27
I-12
sg28
S'0.0043335116614'
p34
sg30
I-12
sg31
I5
sbasS'wrap'
p35
I00
sS'curved'
p36
I00
sS'line'
p37
I2173
sg28
S'0.0163783385877'
p38
sg31
I3
sba(igraph
Edge
p39
(dp40
g8
I1
sg9
g10
sg11
I00
sg12
I5
sg13
(lp41
g32
a(igraph
Vertex
p42
(dp43
g17
g10
sg9
g18
sg19
Nsg11
I00
sg20
g21
sg22
I0
sg23
I2234
sg24
F-156.366296493606
sg25
F124.69796037174672
sg26
I16
sg27
I-12
sg28
S'0.00445280056543'
p44
sg30
I-12
sg31
I5
sbasg35
I00
sg36
I00
sg37
I2174
sg28
S'0.0165789227402'
p45
sg31
I3
sba(igraph
Edge
p46
(dp47
g8
I1
sg9
g10
sg11
I00
sg12
I5
sg13
(lp48
g42
a(igraph
Vertex
p49
(dp50
g17
g10
sg9
g18
sg19
Nsg11
I00
sg20
g21
sg22
I0
sg23
I2236
sg24
F-194.98558243636478
sg25
F44.504186791262889
sg26
I16
sg27
I-12
sg28
S'0.00457879423223'
p51
sg30
I-12
sg31
I5
sbasg35
I00
sg36
I00
sg37
I2175
sg28
S'0.0167881672112'
p52
sg31
I3
sba(igraph
Edge
p53
(dp54
g8
I1
sg9
g10
sg11
I00
sg12
I5
sg13
(lp55
g49
a(igraph
Vertex
p56
(dp57
g17
g10
sg9
g18
sg19
Nsg11
I00
sg20
g21
sg22
I0
sg23
I2238
sg24
F-194.98558243636478
sg25
F-44.504186791262867
sg26
I16
sg27
I-12
sg28
S'0.00471484504315'
p58
sg30
I-12
sg31
I5
sbasg35
I00
sg36
I00
sg37
I2176
sg28
S'0.017043227561'
p59
sg31
I3
sba(igraph
Edge
p60
(dp61
g8
I1
sg9
g10
sg11
I00
sg12
I5
sg13
(lp62
g56
a(igraph
Vertex
p63
(dp64
g17
g10
sg9
g18
sg19
Nsg11
I00
sg20
g21
sg22
I0
sg23
I2240
sg24
F-156.36629649360606
sg25
F-124.69796037174663
sg26
I16
sg27
I-12
sg28
S'0.00485760061684'
p65
sg30
I-12
sg31
I5
sbasg35
I00
sg36
I00
sg37
I2177
sg28
S'0.0172748212412'
p66
sg31
I3
sba(igraph
Edge
p67
(dp68
g8
I1
sg9
g10
sg11
I00
sg12
I5
sg13
(lp69
g63
a(igraph
Vertex
p70
(dp71
g17
g10
sg9
g18
sg19
Nsg11
I00
sg20
g21
sg22
I0
sg23
I2242
sg24
F-86.776747823511769
sg25
F-180.19377358048379
sg26
I16
sg27
I-12
sg28
S'0.00500761968351'
p72
sg30
I-12
sg31
I5
sbasg35
I00
sg36
I00
sg37
I2178
sg28
S'0.0175203831772'
p73
sg31
I3
sba(igraph
Edge
p74
(dp75
g8
I1
sg9
g10
sg11
I00
sg12
I5
sg13
(lp76
g70
a(igraph
Vertex
p77
(dp78
g17
g10
sg9
g18
sg19
Nsg11
I00
sg20
g21
sg22
I0
sg23
I2244
sg24
F-2.4476118406857814e-13
sg25
F-200.0
sg26
I16
sg27
I-12
sg28
S'0.0051920006593'
p79
sg30
I-12
sg31
I5
sbasg35
I00
sg36
I00
sg37
I2179
sg28
S'0.0177765609875'
p80
sg31
I3
sba(igraph
Edge
p81
(dp82
g8
I1
sg9
g10
sg11
I00
sg12
I5
sg13
(lp83
g77
a(igraph
Vertex
p84
(dp85
g17
g10
sg9
g18
sg19
Nsg11
I00
sg20
g21
sg22
I0
sg23
I2246
sg24
F86.7767478235114
sg25
F-180.19377358048391
sg26
I16
sg27
I-12
sg28
S'0.00536632449096'
p86
sg30
I-12
sg31
I5
sbasg35
I00
sg36
I00
sg37
I2180
sg28
S'0.0180774372162'
p87
sg31
I3
sba(igraph
Edge
p88
(dp89
g8
I1
sg9
g10
sg11
I00
sg12
I5
sg13
(lp90
g84
a(igraph
Vertex
p91
(dp92
g17
g10
sg9
g18
sg19
Nsg11
I00
sg20
g21
sg22
I0
sg23
I2248
sg24
F156.36629649360577
sg25
F-124.69796037174687
sg26
I16
sg27
I-12
sg28
S'0.00553478165521'
p93
sg30
I-12
sg31
I5
sbasg35
I00
sg36
I00
sg37
I2181
sg28
S'0.0183573610613'
p94
sg31
I3
sba(igraph
Edge
p95
(dp96
g8
I1
sg9
g10
sg11
I00
sg12
I5
sg13
(lp97
g91
a(igraph
Vertex
p98
(dp99
g17
g10
sg9
g18
sg19
Nsg11
I00
sg20
g21
sg22
I0
sg23
I2250
sg24
F194.98558243636461
sg25
F-44.504186791263088
sg26
I16
sg27
I-12
sg28
S'0.00570994358222'
p100
sg30
I-12
sg31
I5
sbasg35
I00
sg36
I00
sg37
I2182
sg28
S'0.0186473420505'
p101
sg31
I3
sba(igraph
Edge
p102
(dp103
g8
I1
sg9
g10
sg11
I00
sg12
I5
sg13
(lp104
g98
a(igraph
Vertex
p105
(dp106
g17
g10
sg9
g18
sg19
Nsg11
I00
sg20
g21
sg22
I0
sg23
I2252
sg24
F194.98558243636478
sg25
F44.504186791262498
sg26
I16
sg27
I-12
sg28
S'0.0058960007487'
p107
sg30
I-12
sg31
I5
sbasg35
I00
sg36
I00
sg37
I2183
sg28
S'0.0189887262208'
p108
sg31
I3
sba(igraph
Edge
p109
(dp110
g8
I1
sg9
g10
sg11
I00
sg12
I5
sg13
(lp111
g105
a(igraph
Vertex
p112
(dp113
g17
g10
sg9
g18
sg19
Nsg11
I00
sg20
g21
sg22
I0
sg23
I2254
sg24
F156.36629649360617
sg25
F124.69796037174639
sg26
I16
sg27
I-12
sg28
S'0.00609686426627'
p114
sg30
I-12
sg31
I5
sbasg35
I00
sg36
I00
sg37
I2184
sg28
S'0.0193046881657'
p115
sg31
I3
sba(igraph
Edge
p116
(dp117
g8
I1
sg9
g10
sg11
I00
sg12
I5
sg13
(lp118
g112
a(igraph
Vertex
p119
(dp120
g17
g10
sg9
g18
sg19
Nsg11
I00
sg20
g21
sg22
I0
sg23
I2256
sg24
F86.776747823511954
sg25
F180.19377358048365
sg26
I16
sg27
I-12
sg28
S'0.00633208969296'
p121
sg30
I-12
sg31
I5
sbasg35
I00
sg36
I00
sg37
I2185
sg28
S'0.0196312659849'
p122
sg31
I3
sba(igraph
Edge
p123
(dp124
g8
I1
sg9
g10
sg11
I00
sg12
I5
sg13
(lp125
g119
ag15
asg35
I00
sg36
I00
sg37
I2186
sg28
S'0.0200687517548'
p126
sg31
I3
sba(igraph
Edge
p127
(dp128
g8
I1
sg9
g10
sg11
I00
sg12
I5
sg13
(lp129
(igraph
Vertex
p130
(dp131
g17
g10
sg9
g18
sg19
Nsg11
I00
sg20
g21
sg22
I0
sg23
I2202
sg24
F-4.2632564145606011e-14
sg25
F100.0
sg26
I16
sg27
I-12
sg28
S'4.1904767226e-06'
p132
sg30
I-12
sg31
I5
sbag15
asg35
I00
sg36
I00
sg37
I2187
sg28
S'0.020417120053'
p133
sg31
I3
sba(igraph
Edge
p134
(dp135
g8
I1
sg9
g10
sg11
I00
sg12
I5
sg13
(lp136
(igraph
Vertex
p137
(dp138
g17
g10
sg9
g18
sg19
Nsg11
I00
sg20
g21
sg22
I0
sg23
I2204
sg24
F-43.388373911755856
sg25
F90.096886790241911
sg26
I16
sg27
I-12
sg28
S'0.002938641643'
p139
sg30
I-12
sg31
I5
sbag32
asg35
I00
sg36
I00
sg37
I2188
sg28
S'0.0207970566092'
p140
sg31
I3
sba(igraph
Edge
p141
(dp142
g8
I1
sg9
g10
sg11
I00
sg12
I5
sg13
(lp143
(igraph
Vertex
p144
(dp145
g17
g10
sg9
g18
sg19
Nsg11
I00
sg20
g21
sg22
I0
sg23
I2206
sg24
F-78.183148246803029
sg25
F62.348980185873359
sg26
I16
sg27
I-12
sg28
S'0.00303055276578'
p146
sg30
I-12
sg31
I5
sbag42
asg35
I00
sg36
I00
sg37
I2189
sg28
S'0.0211828598327'
p147
sg31
I3
sba(igraph
Edge
p148
(dp149
g8
I1
sg9
g10
sg11
I00
sg12
I5
sg13
(lp150
(igraph
Vertex
p151
(dp152
g17
g10
sg9
g18
sg19
Nsg11
I00
sg20
g21
sg22
I0
sg23
I2208
sg24
F-97.492791218182404
sg25
F22.252093395631444
sg26
I16
sg27
I-12
sg28
S'0.00312469880949'
p153
sg30
I-12
sg31
I5
sbag49
asg35
I00
sg36
I00
sg37
I2190
sg28
S'0.0215625170238'
p154
sg31
I3
sba(igraph
Edge
p155
(dp156
g8
I1
sg9
g10
sg11
I00
sg12
I5
sg13
(lp157
(igraph
Vertex
p158
(dp159
g17
g10
sg9
g18
sg19
Nsg11
I00
sg20
g21
sg22
I0
sg23
I2210
sg24
F-97.492791218182404
sg25
F-22.252093395631434
sg26
I16
sg27
I-12
sg28
S'0.00325516231812'
p160
sg30
I-12
sg31
I5
sbag56
asg35
I00
sg36
I00
sg37
I2191
sg28
S'0.0219927393007'
p161
sg31
I3
sba(igraph
Edge
p162
(dp163
g8
I1
sg9
g10
sg11
I00
sg12
I5
sg13
(lp164
(igraph
Vertex
p165
(dp166
g17
g10
sg9
g18
sg19
Nsg11
I00
sg20
g21
sg22
I0
sg23
I2212
sg24
F-78.183148246803057
sg25
F-62.348980185873316
sg26
I16
sg27
I-12
sg28
S'0.00337026074543'
p167
sg30
I-12
sg31
I5
sbag63
asg35
I00
sg36
I00
sg37
I2192
sg28
S'0.0224020091939'
p168
sg31
I3
sba(igraph
Edge
p169
(dp170
g8
I1
sg9
g10
sg11
I00
sg12
I5
sg13
(lp171
(igraph
Vertex
p172
(dp173
g17
g10
sg9
g18
sg19
Nsg11
I00
sg20
g21
sg22
I0
sg23
I2214
sg24
F-43.388373911755906
sg25
F-90.096886790241896
sg26
I16
sg27
I-12
sg28
S'0.00348368298205'
p174
sg30
I-12
sg31
I5
sbag70
asg35
I00
sg36
I00
sg37
I2193
sg28
S'0.022852345759'
p175
sg31
I3
sba(igraph
Edge
p176
(dp177
g8
I1
sg9
g10
sg11
I00
sg12
I5
sg13
(lp178
(igraph
Vertex
p179
(dp180
g17
g10
sg9
g18
sg19
Nsg11
I00
sg20
g21
sg22
I0
sg23
I2216
sg24
F-1.4369687410709207e-13
sg25
F-100.0
sg26
I16
sg27
I-12
sg28
S'0.00354067346548'
p181
sg30
I-12
sg31
I5
sbag77
asg35
I00
sg36
I00
sg37
I2194
sg28
S'0.0232856410521'
p182
sg31
I3
sba(igraph
Edge
p183
(dp184
g8
I1
sg9
g10
sg11
I00
sg12
I5
sg13
(lp185
(igraph
Vertex
p186
(dp187
g17
g10
sg9
g18
sg19
Nsg11
I00
sg20
g21
sg22
I0
sg23
I2218
sg24
F43.388373911755679
sg25
F-90.096886790241953
sg26
I16
sg27
I-12
sg28
S'0.0036012956954'
p188
sg30
I-12
sg31
I5
sbag84
asg35
I00
sg36
I00
sg37
I2195
sg28
S'0.0238105681029'
p189
sg31
I3
sba(igraph
Edge
p190
(dp191
g8
I1
sg9
g10
sg11
I00
sg12
I5
sg13
(lp192
(igraph
Vertex
p193
(dp194
g17
g10
sg9
g18
sg19
Nsg11
I00
sg20
g21
sg22
I0
sg23
I2220
sg24
F78.183148246802872
sg25
F-62.348980185873437
sg26
I16
sg27
I-12
sg28
S'0.00366918141831'
p195
sg30
I-12
sg31
I5
sbag91
asg35
I00
sg36
I00
sg37
I2196
sg28
S'0.0242698443517'
p196
sg31
I3
sba(igraph
Edge
p197
(dp198
g8
I1
sg9
g10
sg11
I00
sg12
I5
sg13
(lp199
(igraph
Vertex
p200
(dp201
g17
g10
sg9
g18
sg19
Nsg11
I00
sg20
g21
sg22
I0
sg23
I2222
sg24
F97.49279121818229
sg25
F-22.252093395631544
sg26
I16
sg27
I-12
sg28
S'0.0037443306342'
p202
sg30
I-12
sg31
I5
sbag98
asg35
I00
sg36
I00
sg37
I2197
sg28
S'0.0247520285399'
p203
sg31
I3
sba(igraph
Edge
p204
(dp205
g8
I1
sg9
g10
sg11
I00
sg12
I5
sg13
(lp206
(igraph
Vertex
p207
(dp208
g17
g10
sg9
g18
sg19
Nsg11
I00
sg20
g21
sg22
I0
sg23
I2224
sg24
F97.492791218182361
sg25
F22.252093395631249
sg26
I16
sg27
I-12
sg28
S'0.00382841953377'
p209
sg30
I-12
sg31
I5
sbag105
asg35
I00
sg36
I00
sg37
I2198
sg28
S'0.0252344920933'
p210
sg31
I3
sba(igraph
Edge
p211
(dp212
g8
I1
sg9
g10
sg11
I00
sg12
I5
sg13
(lp213
(igraph
Vertex
p214
(dp215
g17
g10
sg9
g18
sg19
Nsg11
I00
sg20
g21
sg22
I0
sg23
I2226
sg24
F78.183148246803057
sg25
F62.348980185873195
sg26
I16
sg27
I-12
sg28
S'0.00391893383098'
p216
sg30
I-12
sg31
I5
sbag112
asg35
I00
sg36
I00
sg37
I2199
sg28
S'0.0257404223162'
p217
sg31
I3
sba(igraph
Edge
p218
(dp219
g8
I1
sg9
g10
sg11
I00
sg12
I5
sg13
(lp220
(igraph
Vertex
p221
(dp222
g17
g10
sg9
g18
sg19
Nsg11
I00
sg20
g21
sg22
I0
sg23
I2228
sg24
F43.388373911755956
sg25
F90.096886790241825
sg26
I16
sg27
I-12
sg28
S'0.00401699098628'
p223
sg30
I-12
sg31
I5
sbag119
asg35
I00
sg36
I00
sg37
I2200
sg28
S'0.0262511017462'
p224
sg31
I3
sbasS'vertices'
p225
(lp226
g130
ag137
ag144
ag151
ag158
ag165
ag172
ag179
ag186
ag193
ag200
ag207
ag214
ag221
ag15
ag32
ag42
ag49
ag56
ag63
ag70
ag77
ag84
ag91
ag98
ag105
ag112
ag119
asS'tags'
p227
(lp228
sb.