(igraph
Graph
p0
(dp1
S'labelingConstraints'
p2
I-1
sS'edges'
p3
(lp4
(igraph
Edge
p5
(dp6
S'direction'
p7
I1
sS'selected'
p8
I00
sS'height'
p9
I5
sS'vs'
p10
(lp11
(igraph
Vertex
p12
(dp13
S'y'
p14
F-66.0
sS'x'
p15
F-55.263157894736793
sS'circle'
p16
I373802
sg8
I00
sS'id'
p17
S'2605.01125394'
p18
sS'label'
p19
S'NULL'
p20
sba(igraph
Vertex
p21
(dp22
g14
F-66.0
sg15
F-39.473684210526258
sg16
I373803
sg8
I00
sg17
S'2605.01131485'
p23
sg19
g20
sbasS'wrap'
p24
I00
sS'curved'
p25
I00
sS'line'
p26
I373704
sg17
S'2605.05710419'
p27
sba(igraph
Edge
p28
(dp29
g7
I1
sg8
I00
sg9
I5
sg10
(lp30
g21
a(igraph
Vertex
p31
(dp32
g14
F-66.0
sg15
F-23.684210526315738
sg16
I373804
sg8
I00
sg17
S'2605.01138217'
p33
sg19
g20
sbasg24
I00
sg25
I00
sg26
I373705
sg17
S'2605.05723465'
p34
sba(igraph
Edge
p35
(dp36
g7
I1
sg8
I00
sg9
I5
sg10
(lp37
g31
a(igraph
Vertex
p38
(dp39
g14
F-66.0
sg15
F-7.8947368421052033
sg16
I373805
sg8
I00
sg17
S'2605.01145732'
p40
sg19
g20
sbasg24
I00
sg25
I00
sg26
I373706
sg17
S'2605.05737852'
p41
sba(igraph
Edge
p42
(dp43
g7
I1
sg8
I00
sg9
I5
sg10
(lp44
g38
a(igraph
Vertex
p45
(dp46
g14
F-66.0
sg15
F7.894736842105317
sg16
I373806
sg8
I00
sg17
S'2605.0115442'
p47
sg19
g20
sbasg24
I00
sg25
I00
sg26
I373707
sg17
S'2605.0575386'
p48
sba(igraph
Edge
p49
(dp50
g7
I1
sg8
I00
sg9
I5
sg10
(lp51
g45
a(igraph
Vertex
p52
(dp53
g14
F-66.0
sg15
F23.684210526315866
sg16
I373807
sg8
I00
sg17
S'2605.01163891'
p54
sg19
g20
sbasg24
I00
sg25
I00
sg26
I373708
sg17
S'2605.05771292'
p55
sba(igraph
Edge
p56
(dp57
g7
I1
sg8
I00
sg9
I5
sg10
(lp58
g52
a(igraph
Vertex
p59
(dp60
g14
F-66.0
sg15
F39.473684210526358
sg16
I373808
sg8
I00
sg17
S'2605.01174814'
p61
sg19
g20
sbasg24
I00
sg25
I00
sg26
I373709
sg17
S'2605.05790261'
p62
sba(igraph
Edge
p63
(dp64
g7
I1
sg8
I00
sg9
I5
sg10
(lp65
g59
a(igraph
Vertex
p66
(dp67
g14
F-66.0
sg15
F55.263157894736878
sg16
I373809
sg8
I00
sg17
S'2605.01185709'
p68
sg19
g20
sbasg24
I00
sg25
I00
sg26
I373710
sg17
S'2605.05812387'
p69
sba(igraph
Edge
p70
(dp71
g7
I1
sg8
I00
sg9
I5
sg10
(lp72
g66
a(igraph
Vertex
p73
(dp74
g14
F-66.0
sg15
F71.05263157894737
sg16
I373810
sg8
I00
sg17
S'2605.01197582'
p75
sg19
g20
sbasg24
I00
sg25
I00
sg26
I373711
sg17
S'2605.05834093'
p76
sba(igraph
Edge
p77
(dp78
g7
I1
sg8
I00
sg9
I5
sg10
(lp79
g73
a(igraph
Vertex
p80
(dp81
g14
F-66.0
sg15
F86.84210526315789
sg16
I373811
sg8
I00
sg17
S'2605.01213478'
p82
sg19
g20
sbasg24
I00
sg25
I00
sg26
I373712
sg17
S'2605.05857476'
p83
sba(igraph
Edge
p84
(dp85
g7
I1
sg8
I00
sg9
I5
sg10
(lp86
g80
a(igraph
Vertex
p87
(dp88
g14
F-66.0
sg15
F102.63157894736841
sg16
I373812
sg8
I00
sg17
S'2605.01226832'
p89
sg19
g20
sbasg24
I00
sg25
I00
sg26
I373713
sg17
S'2605.05882144'
p90
sba(igraph
Edge
p91
(dp92
g7
I1
sg8
I00
sg9
I5
sg10
(lp93
g87
a(igraph
Vertex
p94
(dp95
g14
F-66.0
sg15
F118.4210526315789
sg16
I373813
sg8
I00
sg17
S'2605.01241359'
p96
sg19
g20
sbasg24
I00
sg25
I00
sg26
I373714
sg17
S'2605.05909354'
p97
sba(igraph
Edge
p98
(dp99
g7
I1
sg8
I00
sg9
I5
sg10
(lp100
g94
a(igraph
Vertex
p101
(dp102
S'xnorm'
p103
F0.16732128829536452
sg8
I00
sg19
I0
sg14
F-66.0
sg15
F134.21052631578942
sg16
I373814
sg17
S'2605.01256193'
p104
sS'ynorm'
p105
F0.10294117647058823
sbasg24
I00
sg25
I00
sg26
I373715
sg17
S'2605.05937375'
p106
sba(igraph
Edge
p107
(dp108
g7
I1
sg8
I00
sg9
I5
sg10
(lp109
g101
a(igraph
Vertex
p110
(dp111
g103
F0.40298507462686484
sg8
I00
sg19
g20
sg14
F-66.0
sg15
F149.99999999999994
sg16
I373816
sg17
S'2605.01272145'
p112
sg105
F0.10294117647058823
sbasg24
I00
sg25
I00
sg26
I373716
sg17
S'2605.0596749'
p113
sba(igraph
Edge
p114
(dp115
g7
I1
sg8
I00
sg9
I5
sg10
(lp116
(igraph
Vertex
p117
(dp118
g14
F-33.0
sg15
F-55.263157894736793
sg16
I373817
sg8
I00
sg17
S'2605.01411548'
p119
sg19
I0
sba(igraph
Vertex
p120
(dp121
g14
F-33.0
sg15
F-39.473684210526258
sg16
I373819
sg8
I00
sg17
S'2605.014344'
p122
sg19
g20
sbasg24
I00
sg25
I00
sg26
I373717
sg17
S'2605.06271551'
p123
sba(igraph
Edge
p124
(dp125
g7
I1
sg8
I00
sg9
I5
sg10
(lp126
g120
a(igraph
Vertex
p127
(dp128
g14
F-33.0
sg15
F-23.684210526315738
sg16
I373820
sg8
I00
sg17
S'2605.01458342'
p129
sg19
I0
sbasg24
I00
sg25
I00
sg26
I373718
sg17
S'2605.06321111'
p130
sba(igraph
Edge
p131
(dp132
g7
I1
sg8
I00
sg9
I5
sg10
(lp133
g127
a(igraph
Vertex
p134
(dp135
g14
F-33.0
sg15
F-7.8947368421052033
sg16
I373822
sg8
I00
sg17
S'2605.01482702'
p136
sg19
g20
sbasg24
I00
sg25
I00
sg26
I373719
sg17
S'2605.06369469'
p137
sba(igraph
Edge
p138
(dp139
g7
I1
sg8
I00
sg9
I5
sg10
(lp140
g134
a(igraph
Vertex
p141
(dp142
g14
F-33.0
sg15
F7.894736842105317
sg16
I373823
sg8
I00
sg17
S'2605.01509298'
p143
sg19
I0
sbasg24
I00
sg25
I00
sg26
I373720
sg17
S'2605.06419252'
p144
sba(igraph
Edge
p145
(dp146
g7
I1
sg8
I00
sg9
I5
sg10
(lp147
g141
a(igraph
Vertex
p148
(dp149
g14
F-33.0
sg15
F23.684210526315866
sg16
I373825
sg8
I00
sg17
S'2605.01534972'
p150
sg19
g20
sbasg24
I00
sg25
I00
sg26
I373721
sg17
S'2605.06466408'
p151
sba(igraph
Edge
p152
(dp153
g7
I1
sg8
I00
sg9
I5
sg10
(lp154
g148
a(igraph
Vertex
p155
(dp156
g14
F-33.0
sg15
F39.473684210526358
sg16
I373826
sg8
I00
sg17
S'2605.01561986'
p157
sg19
I0
sbasg24
I00
sg25
I00
sg26
I373722
sg17
S'2605.06519013'
p158
sba(igraph
Edge
p159
(dp160
g7
I1
sg8
I00
sg9
I5
sg10
(lp161
g155
a(igraph
Vertex
p162
(dp163
g14
F-33.0
sg15
F55.263157894736878
sg16
I373828
sg8
I00
sg17
S'2605.01589951'
p164
sg19
g20
sbasg24
I00
sg25
I00
sg26
I373723
sg17
S'2605.0657307'
p165
sba(igraph
Edge
p166
(dp167
g7
I1
sg8
I00
sg9
I5
sg10
(lp168
g162
a(igraph
Vertex
p169
(dp170
g14
F-33.0
sg15
F71.05263157894737
sg16
I373829
sg8
I00
sg17
S'2605.01660183'
p171
sg19
I0
sbasg24
I00
sg25
I00
sg26
I373724
sg17
S'2605.06628859'
p172
sba(igraph
Edge
p173
(dp174
g7
I1
sg8
I00
sg9
I5
sg10
(lp175
g169
a(igraph
Vertex
p176
(dp177
g14
F-33.0
sg15
F86.84210526315789
sg16
I373831
sg8
I00
sg17
S'2605.01690243'
p178
sg19
g20
sbasg24
I00
sg25
I00
sg26
I373725
sg17
S'2605.06685291'
p179
sba(igraph
Edge
p180
(dp181
g7
I1
sg8
I00
sg9
I5
sg10
(lp182
g176
a(igraph
Vertex
p183
(dp184
g14
F-33.0
sg15
F102.63157894736841
sg16
I373832
sg8
I00
sg17
S'2605.01722426'
p185
sg19
I0
sbasg24
I00
sg25
I00
sg26
I373726
sg17
S'2605.0674027'
p186
sba(igraph
Edge
p187
(dp188
g7
I1
sg8
I00
sg9
I5
sg10
(lp189
g183
a(igraph
Vertex
p190
(dp191
g14
F-33.0
sg15
F118.4210526315789
sg16
I373834
sg8
I00
sg17
S'2605.017531'
p192
sg19
g20
sbasg24
I00
sg25
I00
sg26
I373727
sg17
S'2605.06802736'
p193
sba(igraph
Edge
p194
(dp195
g7
I1
sg8
I00
sg9
I5
sg10
(lp196
g190
a(igraph
Vertex
p197
(dp198
g103
F0.16732128829536452
sg8
I00
sg19
g20
sg14
F-33.0
sg15
F134.21052631578942
sg16
I373835
sg17
S'2605.01784584'
p199
sg105
F0.20000000000000001
sbasg24
I00
sg25
I00
sg26
I373728
sg17
S'2605.06866431'
p200
sba(igraph
Edge
p201
(dp202
g7
I1
sg8
I00
sg9
I5
sg10
(lp203
g197
a(igraph
Vertex
p204
(dp205
g103
F0.40298507462686484
sg8
I00
sg19
g20
sg14
F-33.0
sg15
F149.99999999999994
sg16
I373836
sg17
S'2605.01818751'
p206
sg105
F0.20000000000000001
sbasg24
I00
sg25
I00
sg26
I373729
sg17
S'2605.06936999'
p207
sba(igraph
Edge
p208
(dp209
g7
I1
sg8
I00
sg9
I5
sg10
(lp210
(igraph
Vertex
p211
(dp212
g14
F0.0
sg15
F-55.263157894736793
sg16
I373837
sg8
I00
sg17
S'2605.02088478'
p213
sg19
g20
sba(igraph
Vertex
p214
(dp215
g14
F0.0
sg15
F-39.473684210526258
sg16
I373838
sg8
I00
sg17
S'2605.02128846'
p216
sg19
g20
sbasg24
I00
sg25
I00
sg26
I373730
sg17
S'2605.07572946'
p217
sba(igraph
Edge
p218
(dp219
g7
I1
sg8
I00
sg9
I5
sg10
(lp220
g214
a(igraph
Vertex
p221
(dp222
g14
F0.0
sg15
F-23.684210526315738
sg16
I373839
sg8
I00
sg17
S'2605.02169941'
p223
sg19
g20
sbasg24
I00
sg25
I00
sg26
I373731
sg17
S'2605.07654381'
p224
sba(igraph
Edge
p225
(dp226
g7
I1
sg8
I00
sg9
I5
sg10
(lp227
g221
a(igraph
Vertex
p228
(dp229
g14
F0.0
sg15
F-7.8947368421052033
sg16
I373840
sg8
I00
sg17
S'2605.02217461'
p230
sg19
g20
sbasg24
I00
sg25
I00
sg26
I373732
sg17
S'2605.07737352'
p231
sba(igraph
Edge
p232
(dp233
g7
I1
sg8
I00
sg9
I5
sg10
(lp234
g228
a(igraph
Vertex
p235
(dp236
g14
F0.0
sg15
F7.894736842105317
sg16
I373841
sg8
I00
sg17
S'2605.02260623'
p237
sg19
g20
sbasg24
I00
sg25
I00
sg26
I373733
sg17
S'2605.07820324'
p238
sba(igraph
Edge
p239
(dp240
g7
I1
sg8
I00
sg9
I5
sg10
(lp241
g235
a(igraph
Vertex
p242
(dp243
g14
F0.0
sg15
F23.684210526315866
sg16
I373842
sg8
I00
sg17
S'2605.0230412'
p244
sg19
g20
sbasg24
I00
sg25
I00
sg26
I373734
sg17
S'2605.0790377'
p245
sba(igraph
Edge
p246
(dp247
g7
I1
sg8
I00
sg9
I5
sg10
(lp248
g242
a(igraph
Vertex
p249
(dp250
g14
F0.0
sg15
F39.473684210526358
sg16
I373843
sg8
I00
sg17
S'2605.02348315'
p251
sg19
g20
sbasg24
I00
sg25
I00
sg26
I373735
sg17
S'2605.07983082'
p252
sba(igraph
Edge
p253
(dp254
g7
I1
sg8
I00
sg9
I5
sg10
(lp255
g249
a(igraph
Vertex
p256
(dp257
g14
F0.0
sg15
F55.263157894736878
sg16
I373844
sg8
I00
sg17
S'2605.0239902'
p258
sg19
g20
sbasg24
I00
sg25
I00
sg26
I373736
sg17
S'2605.08072283'
p259
sba(igraph
Edge
p260
(dp261
g7
I1
sg8
I00
sg9
I5
sg10
(lp262
g256
a(igraph
Vertex
p263
(dp264
g14
F0.0
sg15
F71.05263157894737
sg16
I373845
sg8
I00
sg17
S'2605.02445786'
p265
sg19
g20
sbasg24
I00
sg25
I00
sg26
I373737
sg17
S'2605.08163943'
p266
sba(igraph
Edge
p267
(dp268
g7
I1
sg8
I00
sg9
I5
sg10
(lp269
g263
a(igraph
Vertex
p270
(dp271
g14
F0.0
sg15
F86.84210526315789
sg16
I373846
sg8
I00
sg17
S'2605.02495569'
p272
sg19
g20
sbasg24
I00
sg25
I00
sg26
I373738
sg17
S'2605.08253647'
p273
sba(igraph
Edge
p274
(dp275
g7
I1
sg8
I00
sg9
I5
sg10
(lp276
g270
a(igraph
Vertex
p277
(dp278
g14
F0.0
sg15
F102.63157894736841
sg16
I373847
sg8
I00
sg17
S'2605.02543452'
p279
sg19
g20
sbasg24
I00
sg25
I00
sg26
I373739
sg17
S'2605.08336702'
p280
sba(igraph
Edge
p281
(dp282
g7
I1
sg8
I00
sg9
I5
sg10
(lp283
g277
a(igraph
Vertex
p284
(dp285
g14
F0.0
sg15
F118.4210526315789
sg16
I373848
sg8
I00
sg17
S'2605.02594352'
p286
sg19
g20
sbasg24
I00
sg25
I00
sg26
I373740
sg17
S'2605.08420819'
p287
sba(igraph
Edge
p288
(dp289
g7
I1
sg8
I00
sg9
I5
sg10
(lp290
g284
a(igraph
Vertex
p291
(dp292
g103
F0.16732128829536452
sg8
I00
sg19
I0
sg14
F0.0
sg15
F134.21052631578942
sg16
I373849
sg17
S'2605.02644386'
p293
sg105
F0.29705882352941176
sbasg24
I00
sg25
I00
sg26
I373741
sg17
S'2605.08506444'
p294
sba(igraph
Edge
p295
(dp296
g7
I1
sg8
I00
sg9
I5
sg10
(lp297
g291
a(igraph
Vertex
p298
(dp299
g103
F0.40298507462686484
sg8
I00
sg19
g20
sg14
F0.0
sg15
F149.99999999999994
sg16
I373851
sg17
S'2605.02695007'
p300
sg105
F0.29705882352941176
sbasg24
I00
sg25
I00
sg26
I373742
sg17
S'2605.0859436'
p301
sba(igraph
Edge
p302
(dp303
g7
I1
sg8
I00
sg9
I5
sg10
(lp304
(igraph
Vertex
p305
(dp306
g14
F33.0
sg15
F-55.263157894736793
sg16
I373852
sg8
I00
sg17
S'2605.03083716'
p307
sg19
I0
sba(igraph
Vertex
p308
(dp309
g14
F33.0
sg15
F-39.473684210526258
sg16
I373854
sg8
I00
sg17
S'2605.03142411'
p310
sg19
g20
sbasg24
I00
sg25
I00
sg26
I373743
sg17
S'2605.09356301'
p311
sba(igraph
Edge
p312
(dp313
g7
I1
sg8
I00
sg9
I5
sg10
(lp314
g308
a(igraph
Vertex
p315
(dp316
g14
F33.0
sg15
F-23.684210526315738
sg16
I373855
sg8
I00
sg17
S'2605.03202334'
p317
sg19
I0
sbasg24
I00
sg25
I00
sg26
I373744
sg17
S'2605.09456761'
p318
sba(igraph
Edge
p319
(dp320
g7
I1
sg8
I00
sg9
I5
sg10
(lp321
g315
a(igraph
Vertex
p322
(dp323
g14
F33.0
sg15
F-7.8947368421052033
sg16
I373857
sg8
I00
sg17
S'2605.03268153'
p324
sg19
g20
sbasg24
I00
sg25
I00
sg26
I373745
sg17
S'2605.09558058'
p325
sba(igraph
Edge
p326
(dp327
g7
I1
sg8
I00
sg9
I5
sg10
(lp328
g322
a(igraph
Vertex
p329
(dp330
g14
F33.0
sg15
F7.894736842105317
sg16
I373858
sg8
I00
sg17
S'2605.03338134'
p331
sg19
I0
sbasg24
I00
sg25
I00
sg26
I373746
sg17
S'2605.096593'
p332
sba(igraph
Edge
p333
(dp334
g7
I1
sg8
I00
sg9
I5
sg10
(lp335
g329
a(igraph
Vertex
p336
(dp337
g14
F33.0
sg15
F23.684210526315866
sg16
I373860
sg8
I00
sg17
S'2605.03399203'
p338
sg19
g20
sbasg24
I00
sg25
I00
sg26
I373747
sg17
S'2605.09763727'
p339
sba(igraph
Edge
p340
(dp341
g7
I1
sg8
I00
sg9
I5
sg10
(lp342
g336
a(igraph
Vertex
p343
(dp344
g14
F33.0
sg15
F39.473684210526358
sg16
I373861
sg8
I00
sg17
S'2605.03463094'
p345
sg19
I0
sbasg24
I00
sg25
I00
sg26
I373748
sg17
S'2605.09869271'
p346
sba(igraph
Edge
p347
(dp348
g7
I1
sg8
I00
sg9
I5
sg10
(lp349
g343
a(igraph
Vertex
p350
(dp351
g14
F33.0
sg15
F55.263157894736878
sg16
I373863
sg8
I00
sg17
S'2605.03525839'
p352
sg19
g20
sbasg24
I00
sg25
I00
sg26
I373749
sg17
S'2605.09982554'
p353
sba(igraph
Edge
p354
(dp355
g7
I1
sg8
I00
sg9
I5
sg10
(lp356
g350
a(igraph
Vertex
p357
(dp358
g14
F34.0
sg15
F71.0
sg16
I373864
sg8
I00
sg17
S'2605.03594144'
p359
sg19
I0
sbasg24
I00
sg25
I00
sg26
I373750
sg17
S'2605.10104999'
p360
sba(igraph
Edge
p361
(dp362
g7
I1
sg8
I00
sg9
I5
sg10
(lp363
g357
a(igraph
Vertex
p364
(dp365
g14
F33.0
sg15
F86.84210526315789
sg16
I373866
sg8
I00
sg17
S'2605.03659348'
p366
sg19
g20
sbasg24
I00
sg25
I00
sg26
I373751
sg17
S'2605.10216103'
p367
sba(igraph
Edge
p368
(dp369
g7
I1
sg8
I00
sg9
I5
sg10
(lp370
g364
a(igraph
Vertex
p371
(dp372
g14
F33.0
sg15
F102.63157894736841
sg16
I373867
sg8
I00
sg17
S'2605.03725166'
p373
sg19
I0
sbasg24
I00
sg25
I00
sg26
I373752
sg17
S'2605.10328575'
p374
sba(igraph
Edge
p375
(dp376
g7
I1
sg8
I00
sg9
I5
sg10
(lp377
g371
a(igraph
Vertex
p378
(dp379
g14
F33.0
sg15
F118.4210526315789
sg16
I373869
sg8
I00
sg17
S'2605.03794533'
p380
sg19
g20
sbasg24
I00
sg25
I00
sg26
I373753
sg17
S'2605.10448702'
p381
sba(igraph
Edge
p382
(dp383
g7
I1
sg8
I00
sg9
I5
sg10
(lp384
g378
a(igraph
Vertex
p385
(dp386
g103
F0.16732128829536452
sg8
I00
sg19
g20
sg14
F33.0
sg15
F134.21052631578942
sg16
I373870
sg17
S'2605.03862698'
p387
sg105
F0.39411764705882352
sbasg24
I00
sg25
I00
sg26
I373754
sg17
S'2605.1056584'
p388
sba(igraph
Edge
p389
(dp390
g7
I1
sg8
I00
sg9
I5
sg10
(lp391
g385
a(igraph
Vertex
p392
(dp393
g103
F0.40298507462686484
sg8
I00
sg19
g20
sg14
F33.0
sg15
F149.99999999999994
sg16
I373871
sg17
S'2605.03930164'
p394
sg105
F0.39411764705882352
sbasg24
I00
sg25
I00
sg26
I373755
sg17
S'2605.10686051'
p395
sba(igraph
Edge
p396
(dp397
g7
I1
sg8
I00
sg9
I5
sg10
(lp398
(igraph
Vertex
p399
(dp400
g14
F66.0
sg15
F-55.263157894736793
sg16
I373872
sg8
I00
sg17
S'2605.04456516'
p401
sg19
g20
sba(igraph
Vertex
p402
(dp403
g14
F66.0
sg15
F-39.473684210526258
sg16
I373873
sg8
I00
sg17
S'2605.04539543'
p404
sg19
g20
sbasg24
I00
sg25
I00
sg26
I373756
sg17
S'2605.11683608'
p405
sba(igraph
Edge
p406
(dp407
g7
I1
sg8
I00
sg9
I5
sg10
(lp408
g402
a(igraph
Vertex
p409
(dp410
g14
F66.0
sg15
F-23.684210526315738
sg16
I373874
sg8
I00
sg17
S'2605.04616928'
p411
sg19
g20
sbasg24
I00
sg25
I00
sg26
I373757
sg17
S'2605.11816725'
p412
sba(igraph
Edge
p413
(dp414
g7
I1
sg8
I00
sg9
I5
sg10
(lp415
g409
a(igraph
Vertex
p416
(dp417
g14
F66.0
sg15
F-7.8947368421052033
sg16
I373875
sg8
I00
sg17
S'2605.04696156'
p418
sg19
g20
sbasg24
I00
sg25
I00
sg26
I373758
sg17
S'2605.11965208'
p419
sba(igraph
Edge
p420
(dp421
g7
I1
sg8
I00
sg9
I5
sg10
(lp422
g416
a(igraph
Vertex
p423
(dp424
g14
F66.0
sg15
F7.894736842105317
sg16
I373876
sg8
I00
sg17
S'2605.04775439'
p425
sg19
g20
sbasg24
I00
sg25
I00
sg26
I373759
sg17
S'2605.12096789'
p426
sba(igraph
Edge
p427
(dp428
g7
I1
sg8
I00
sg9
I5
sg10
(lp429
g423
a(igraph
Vertex
p430
(dp431
g14
F66.0
sg15
F23.684210526315866
sg16
I373877
sg8
I00
sg17
S'2605.04856288'
p432
sg19
g20
sbasg24
I00
sg25
I00
sg26
I373760
sg17
S'2605.12230996'
p433
sba(igraph
Edge
p434
(dp435
g7
I1
sg8
I00
sg9
I5
sg10
(lp436
g430
a(igraph
Vertex
p437
(dp438
g14
F66.0
sg15
F39.473684210526358
sg16
I373878
sg8
I00
sg17
S'2605.04946439'
p439
sg19
g20
sbasg24
I00
sg25
I00
sg26
I373761
sg17
S'2605.12365091'
p440
sba(igraph
Edge
p441
(dp442
g7
I1
sg8
I00
sg9
I5
sg10
(lp443
g437
a(igraph
Vertex
p444
(dp445
g14
F66.0
sg15
F55.263157894736878
sg16
I373879
sg8
I00
sg17
S'2605.05034355'
p446
sg19
g20
sbasg24
I00
sg25
I00
sg26
I373762
sg17
S'2605.12500918'
p447
sba(igraph
Edge
p448
(dp449
g7
I1
sg8
I00
sg9
I5
sg10
(lp450
g444
a(igraph
Vertex
p451
(dp452
g14
F66.0
sg15
F71.05263157894737
sg16
I373880
sg8
I00
sg17
S'2605.05117913'
p453
sg19
g20
sbasg24
I00
sg25
I00
sg26
I373763
sg17
S'2605.12636494'
p454
sba(igraph
Edge
p455
(dp456
g7
I1
sg8
I00
sg9
I5
sg10
(lp457
g451
a(igraph
Vertex
p458
(dp459
g14
F66.0
sg15
F86.84210526315789
sg16
I373881
sg8
I00
sg17
S'2605.05200661'
p460
sg19
g20
sbasg24
I00
sg25
I00
sg26
I373764
sg17
S'2605.1278182'
p461
sba(igraph
Edge
p462
(dp463
g7
I1
sg8
I00
sg9
I5
sg10
(lp464
g458
a(igraph
Vertex
p465
(dp466
g14
F66.0
sg15
F102.63157894736841
sg16
I373882
sg8
I00
sg17
S'2605.05294472'
p467
sg19
g20
sbasg24
I00
sg25
I00
sg26
I373765
sg17
S'2605.12924659'
p468
sba(igraph
Edge
p469
(dp470
g7
I1
sg8
I00
sg9
I5
sg10
(lp471
g465
a(igraph
Vertex
p472
(dp473
g14
F66.0
sg15
F118.4210526315789
sg16
I373883
sg8
I00
sg17
S'2605.05384148'
p474
sg19
g20
sbasg24
I00
sg25
I00
sg26
I373766
sg17
S'2605.13073477'
p475
sba(igraph
Edge
p476
(dp477
g7
I1
sg8
I00
sg9
I5
sg10
(lp478
g472
a(igraph
Vertex
p479
(dp480
g103
F0.16732128829536452
sg8
I00
sg19
I0
sg14
F66.0
sg15
F134.21052631578942
sg16
I373884
sg17
S'2605.05471058'
p481
sg105
F0.49117647058823527
sbasg24
I00
sg25
I00
sg26
I373767
sg17
S'2605.13218552'
p482
sba(igraph
Edge
p483
(dp484
g7
I1
sg8
I00
sg9
I5
sg10
(lp485
g479
a(igraph
Vertex
p486
(dp487
g103
F0.40298507462686484
sg8
I00
sg19
g20
sg14
F66.0
sg15
F149.99999999999994
sg16
I373886
sg17
S'2605.05560371'
p488
sg105
F0.49117647058823527
sbasg24
I00
sg25
I00
sg26
I373768
sg17
S'2605.13369185'
p489
sba(igraph
Edge
p490
(dp491
g7
I1
sg8
I00
sg9
I5
sg10
(lp492
g12
ag120
asg24
I00
sg25
I00
sg26
I373769
sg17
S'2605.14123192'
p493
sba(igraph
Edge
p494
(dp495
g7
I1
sg8
I00
sg9
I5
sg10
(lp496
g31
ag134
asg24
I00
sg25
I00
sg26
I373770
sg17
S'2605.14276591'
p497
sba(igraph
Edge
p498
(dp499
g7
I1
sg8
I00
sg9
I5
sg10
(lp500
g45
ag148
asg24
I00
sg25
I00
sg26
I373771
sg17
S'2605.14431248'
p501
sba(igraph
Edge
p502
(dp503
g7
I1
sg8
I00
sg9
I5
sg10
(lp504
g59
ag162
asg24
I00
sg25
I00
sg26
I373772
sg17
S'2605.14586463'
p505
sba(igraph
Edge
p506
(dp507
g7
I1
sg8
I00
sg9
I5
sg10
(lp508
g73
ag176
asg24
I00
sg25
I00
sg26
I373773
sg17
S'2605.1474246'
p509
sba(igraph
Edge
p510
(dp511
g7
I1
sg8
I00
sg9
I5
sg10
(lp512
g87
ag190
asg24
I00
sg25
I00
sg26
I373774
sg17
S'2605.14900553'
p513
sba(igraph
Edge
p514
(dp515
g7
I1
sg8
I00
sg9
I5
sg10
(lp516
g101
ag204
asg24
I00
sg25
I00
sg26
I373775
sg17
S'2605.15059651'
p517
sba(igraph
Edge
p518
(dp519
g7
I1
sg8
I00
sg9
I5
sg10
(lp520
g117
ag214
asg24
I00
sg25
I00
sg26
I373776
sg17
S'2605.15708281'
p521
sba(igraph
Edge
p522
(dp523
g7
I1
sg8
I00
sg9
I5
sg10
(lp524
g127
ag228
asg24
I00
sg25
I00
sg26
I373777
sg17
S'2605.1587537'
p525
sba(igraph
Edge
p526
(dp527
g7
I1
sg8
I00
sg9
I5
sg10
(lp528
g141
ag242
asg24
I00
sg25
I00
sg26
I373778
sg17
S'2605.16042542'
p529
sba(igraph
Edge
p530
(dp531
g7
I1
sg8
I00
sg9
I5
sg10
(lp532
g155
ag256
asg24
I00
sg25
I00
sg26
I373779
sg17
S'2605.16279555'
p533
sba(igraph
Edge
p534
(dp535
g7
I1
sg8
I00
sg9
I5
sg10
(lp536
g169
ag270
asg24
I00
sg25
I00
sg26
I373780
sg17
S'2605.16460165'
p537
sba(igraph
Edge
p538
(dp539
g7
I1
sg8
I00
sg9
I5
sg10
(lp540
g183
ag284
asg24
I00
sg25
I00
sg26
I373781
sg17
S'2605.16642841'
p541
sba(igraph
Edge
p542
(dp543
g7
I1
sg8
I00
sg9
I5
sg10
(lp544
g197
ag298
asg24
I00
sg25
I00
sg26
I373782
sg17
S'2605.16821356'
p545
sba(igraph
Edge
p546
(dp547
g7
I1
sg8
I00
sg9
I5
sg10
(lp548
g211
ag308
asg24
I00
sg25
I00
sg26
I373783
sg17
S'2605.17552091'
p549
sba(igraph
Edge
p550
(dp551
g7
I1
sg8
I00
sg9
I5
sg10
(lp552
g221
ag322
asg24
I00
sg25
I00
sg26
I373784
sg17
S'2605.17735774'
p553
sba(igraph
Edge
p554
(dp555
g7
I1
sg8
I00
sg9
I5
sg10
(lp556
g235
ag336
asg24
I00
sg25
I00
sg26
I373785
sg17
S'2605.17919903'
p557
sba(igraph
Edge
p558
(dp559
g7
I1
sg8
I00
sg9
I5
sg10
(lp560
g249
ag350
asg24
I00
sg25
I00
sg26
I373786
sg17
S'2605.18105765'
p561
sba(igraph
Edge
p562
(dp563
g7
I1
sg8
I00
sg9
I5
sg10
(lp564
g263
ag364
asg24
I00
sg25
I00
sg26
I373787
sg17
S'2605.1829009'
p565
sba(igraph
Edge
p566
(dp567
g7
I1
sg8
I00
sg9
I5
sg10
(lp568
g277
ag378
asg24
I00
sg25
I00
sg26
I373788
sg17
S'2605.18480505'
p569
sba(igraph
Edge
p570
(dp571
g7
I1
sg8
I00
sg9
I5
sg10
(lp572
g291
ag392
asg24
I00
sg25
I00
sg26
I373789
sg17
S'2605.18671256'
p573
sba(igraph
Edge
p574
(dp575
g7
I1
sg8
I00
sg9
I5
sg10
(lp576
g305
ag402
asg24
I00
sg25
I00
sg26
I373790
sg17
S'2605.19465854'
p577
sba(igraph
Edge
p578
(dp579
g7
I1
sg8
I00
sg9
I5
sg10
(lp580
g315
ag416
asg24
I00
sg25
I00
sg26
I373791
sg17
S'2605.19664874'
p581
sba(igraph
Edge
p582
(dp583
g7
I1
sg8
I00
sg9
I5
sg10
(lp584
g329
ag430
asg24
I00
sg25
I00
sg26
I373792
sg17
S'2605.19870822'
p585
sba(igraph
Edge
p586
(dp587
g7
I1
sg8
I00
sg9
I5
sg10
(lp588
g343
ag444
asg24
I00
sg25
I00
sg26
I373793
sg17
S'2605.20073473'
p589
sba(igraph
Edge
p590
(dp591
g7
I1
sg8
I00
sg9
I5
sg10
(lp592
g357
ag458
asg24
I00
sg25
I00
sg26
I373794
sg17
S'2605.20281013'
p593
sba(igraph
Edge
p594
(dp595
g7
I1
sg8
I00
sg9
I5
sg10
(lp596
g371
ag472
asg24
I00
sg25
I00
sg26
I373795
sg17
S'2605.20489057'
p597
sba(igraph
Edge
p598
(dp599
g7
I1
sg8
I00
sg9
I5
sg10
(lp600
g385
ag486
asg24
I00
sg25
I00
sg26
I373796
sg17
S'2605.20700676'
p601
sba(igraph
Edge
p602
(dp603
g7
I1
sg8
I00
sg9
I5
sg10
(lp604
g12
ag110
asg24
I00
sg25
I00
sg26
I373797
sg17
S'3120.85885106'
p605
sba(igraph
Edge
p606
(dp607
g7
I1
sg8
I00
sg9
I5
sg10
(lp608
g117
ag204
asg24
I00
sg25
I00
sg26
I373798
sg17
S'3125.64326891'
p609
sba(igraph
Edge
p610
(dp611
g7
I1
sg8
I00
sg9
I5
sg10
(lp612
g211
ag298
asg24
I00
sg25
I00
sg26
I373799
sg17
S'3130.51802897'
p613
sba(igraph
Edge
p614
(dp615
g7
I1
sg8
I00
sg9
I5
sg10
(lp616
g305
ag392
asg24
I00
sg25
I00
sg26
I373800
sg17
S'3134.83761009'
p617
sba(igraph
Edge
p618
(dp619
g7
I1
sg8
I00
sg9
I5
sg10
(lp620
g399
ag486
asg24
I00
sg25
I00
sg26
I373801
sg17
S'3139.19483789'
p621
sbasS'vertices'
p622
(lp623
g12
ag21
ag31
ag38
ag45
ag52
ag59
ag66
ag73
ag80
ag87
ag94
ag101
ag110
ag117
ag120
ag127
ag134
ag141
ag148
ag155
ag162
ag169
ag176
ag183
ag190
ag197
ag204
ag211
ag214
ag221
ag228
ag235
ag242
ag249
ag256
ag263
ag270
ag277
ag284
ag291
ag298
ag305
ag308
ag315
ag322
ag329
ag336
ag343
ag350
ag357
ag364
ag371
ag378
ag385
ag392
ag399
ag402
ag409
ag416
ag423
ag430
ag437
ag444
ag451
ag458
ag465
ag472
ag479
ag486
asS'tags'
p624
(lp625
sb.