(igraph
Graph
p0
(dp1
S'labelingConstraints'
p2
I-1
sS'edges'
p3
(lp4
(igraph
Edge
p5
(dp6
S'direction'
p7
I1
sS'selected'
p8
I00
sS'height'
p9
I5
sS'vs'
p10
(lp11
(igraph
Vertex
p12
(dp13
S'y'
p14
F-66.0
sS'x'
p15
F-23.684210526315738
sS'circle'
p16
I378277
sg8
I00
sS'id'
p17
S'2605.01138217'
p18
sS'label'
p19
S'NULL'
p20
sba(igraph
Vertex
p21
(dp22
g14
F-66.0
sg15
F-7.8947368421052033
sg16
I378278
sg8
I00
sg17
S'2605.01145732'
p23
sg19
g20
sbasS'wrap'
p24
I00
sS'curved'
p25
I00
sS'line'
p26
I378193
sg17
S'2605.05737852'
p27
sba(igraph
Edge
p28
(dp29
g7
I1
sg8
I00
sg9
I5
sg10
(lp30
g21
a(igraph
Vertex
p31
(dp32
g14
F-66.0
sg15
F7.894736842105317
sg16
I378279
sg8
I00
sg17
S'2605.0115442'
p33
sg19
g20
sbasg24
I00
sg25
I00
sg26
I378194
sg17
S'2605.0575386'
p34
sba(igraph
Edge
p35
(dp36
g7
I1
sg8
I00
sg9
I5
sg10
(lp37
g31
a(igraph
Vertex
p38
(dp39
g14
F-66.0
sg15
F23.684210526315866
sg16
I378280
sg8
I00
sg17
S'2605.01163891'
p40
sg19
g20
sbasg24
I00
sg25
I00
sg26
I378195
sg17
S'2605.05771292'
p41
sba(igraph
Edge
p42
(dp43
g7
I1
sg8
I00
sg9
I5
sg10
(lp44
g38
a(igraph
Vertex
p45
(dp46
g14
F-66.0
sg15
F39.473684210526358
sg16
I378281
sg8
I00
sg17
S'2605.01174814'
p47
sg19
g20
sbasg24
I00
sg25
I00
sg26
I378196
sg17
S'2605.05790261'
p48
sba(igraph
Edge
p49
(dp50
g7
I1
sg8
I00
sg9
I5
sg10
(lp51
g45
a(igraph
Vertex
p52
(dp53
g14
F-66.0
sg15
F55.263157894736878
sg16
I378282
sg8
I00
sg17
S'2605.01185709'
p54
sg19
g20
sbasg24
I00
sg25
I00
sg26
I378197
sg17
S'2605.05812387'
p55
sba(igraph
Edge
p56
(dp57
g7
I1
sg8
I00
sg9
I5
sg10
(lp58
g52
a(igraph
Vertex
p59
(dp60
g14
F-66.0
sg15
F71.05263157894737
sg16
I378283
sg8
I00
sg17
S'2605.01197582'
p61
sg19
g20
sbasg24
I00
sg25
I00
sg26
I378198
sg17
S'2605.05834093'
p62
sba(igraph
Edge
p63
(dp64
g7
I1
sg8
I00
sg9
I5
sg10
(lp65
g59
a(igraph
Vertex
p66
(dp67
g14
F-66.0
sg15
F86.84210526315789
sg16
I378284
sg8
I00
sg17
S'2605.01213478'
p68
sg19
g20
sbasg24
I00
sg25
I00
sg26
I378199
sg17
S'2605.05857476'
p69
sba(igraph
Edge
p70
(dp71
g7
I1
sg8
I00
sg9
I5
sg10
(lp72
g66
a(igraph
Vertex
p73
(dp74
g14
F-66.0
sg15
F102.63157894736841
sg16
I378285
sg8
I00
sg17
S'2605.01226832'
p75
sg19
g20
sbasg24
I00
sg25
I00
sg26
I378200
sg17
S'2605.05882144'
p76
sba(igraph
Edge
p77
(dp78
g7
I1
sg8
I00
sg9
I5
sg10
(lp79
g73
a(igraph
Vertex
p80
(dp81
g14
F-66.0
sg15
F118.4210526315789
sg16
I378286
sg8
I00
sg17
S'2605.01241359'
p82
sg19
g20
sbasg24
I00
sg25
I00
sg26
I378201
sg17
S'2605.05909354'
p83
sba(igraph
Edge
p84
(dp85
g7
I1
sg8
I00
sg9
I5
sg10
(lp86
g80
a(igraph
Vertex
p87
(dp88
S'xnorm'
p89
F0.16732128829536452
sg8
I00
sg19
I0
sg14
F-66.0
sg15
F134.21052631578942
sg16
I378287
sg17
S'2605.01256193'
p90
sS'ynorm'
p91
F0.10294117647058823
sbasg24
I00
sg25
I00
sg26
I378202
sg17
S'2605.05937375'
p92
sba(igraph
Edge
p93
(dp94
g7
I1
sg8
I00
sg9
I5
sg10
(lp95
g87
a(igraph
Vertex
p96
(dp97
g89
F0.40298507462686484
sg8
I00
sg19
g20
sg14
F-66.0
sg15
F149.99999999999994
sg16
I378289
sg17
S'2605.01272145'
p98
sg91
F0.10294117647058823
sbasg24
I00
sg25
I00
sg26
I378203
sg17
S'2605.0596749'
p99
sba(igraph
Edge
p100
(dp101
g7
I1
sg8
I00
sg9
I5
sg10
(lp102
(igraph
Vertex
p103
(dp104
g14
F-33.0
sg15
F-23.684210526315738
sg16
I378290
sg8
I00
sg17
S'2605.01458342'
p105
sg19
I0
sba(igraph
Vertex
p106
(dp107
g14
F-33.0
sg15
F-7.8947368421052033
sg16
I378292
sg8
I00
sg17
S'2605.01482702'
p108
sg19
g20
sbasg24
I00
sg25
I00
sg26
I378204
sg17
S'2605.06369469'
p109
sba(igraph
Edge
p110
(dp111
g7
I1
sg8
I00
sg9
I5
sg10
(lp112
g106
a(igraph
Vertex
p113
(dp114
g14
F-33.0
sg15
F7.894736842105317
sg16
I378293
sg8
I00
sg17
S'2605.01509298'
p115
sg19
I0
sbasg24
I00
sg25
I00
sg26
I378205
sg17
S'2605.06419252'
p116
sba(igraph
Edge
p117
(dp118
g7
I1
sg8
I00
sg9
I5
sg10
(lp119
g113
a(igraph
Vertex
p120
(dp121
g14
F-33.0
sg15
F23.684210526315866
sg16
I378295
sg8
I00
sg17
S'2605.01534972'
p122
sg19
g20
sbasg24
I00
sg25
I00
sg26
I378206
sg17
S'2605.06466408'
p123
sba(igraph
Edge
p124
(dp125
g7
I1
sg8
I00
sg9
I5
sg10
(lp126
g120
a(igraph
Vertex
p127
(dp128
g14
F-33.0
sg15
F39.473684210526358
sg16
I378296
sg8
I00
sg17
S'2605.01561986'
p129
sg19
I0
sbasg24
I00
sg25
I00
sg26
I378207
sg17
S'2605.06519013'
p130
sba(igraph
Edge
p131
(dp132
g7
I1
sg8
I00
sg9
I5
sg10
(lp133
g127
a(igraph
Vertex
p134
(dp135
g14
F-33.0
sg15
F55.263157894736878
sg16
I378298
sg8
I00
sg17
S'2605.01589951'
p136
sg19
g20
sbasg24
I00
sg25
I00
sg26
I378208
sg17
S'2605.0657307'
p137
sba(igraph
Edge
p138
(dp139
g7
I1
sg8
I00
sg9
I5
sg10
(lp140
g134
a(igraph
Vertex
p141
(dp142
g14
F-33.0
sg15
F71.05263157894737
sg16
I378299
sg8
I00
sg17
S'2605.01660183'
p143
sg19
I0
sbasg24
I00
sg25
I00
sg26
I378209
sg17
S'2605.06628859'
p144
sba(igraph
Edge
p145
(dp146
g7
I1
sg8
I00
sg9
I5
sg10
(lp147
g141
a(igraph
Vertex
p148
(dp149
g14
F-33.0
sg15
F86.84210526315789
sg16
I378301
sg8
I00
sg17
S'2605.01690243'
p150
sg19
g20
sbasg24
I00
sg25
I00
sg26
I378210
sg17
S'2605.06685291'
p151
sba(igraph
Edge
p152
(dp153
g7
I1
sg8
I00
sg9
I5
sg10
(lp154
g148
a(igraph
Vertex
p155
(dp156
g14
F-33.0
sg15
F102.63157894736841
sg16
I378302
sg8
I00
sg17
S'2605.01722426'
p157
sg19
I0
sbasg24
I00
sg25
I00
sg26
I378211
sg17
S'2605.0674027'
p158
sba(igraph
Edge
p159
(dp160
g7
I1
sg8
I00
sg9
I5
sg10
(lp161
g155
a(igraph
Vertex
p162
(dp163
g14
F-33.0
sg15
F118.4210526315789
sg16
I378304
sg8
I00
sg17
S'2605.017531'
p164
sg19
g20
sbasg24
I00
sg25
I00
sg26
I378212
sg17
S'2605.06802736'
p165
sba(igraph
Edge
p166
(dp167
g7
I1
sg8
I00
sg9
I5
sg10
(lp168
g162
a(igraph
Vertex
p169
(dp170
g89
F0.16732128829536452
sg8
I00
sg19
g20
sg14
F-33.0
sg15
F134.21052631578942
sg16
I378305
sg17
S'2605.01784584'
p171
sg91
F0.20000000000000001
sbasg24
I00
sg25
I00
sg26
I378213
sg17
S'2605.06866431'
p172
sba(igraph
Edge
p173
(dp174
g7
I1
sg8
I00
sg9
I5
sg10
(lp175
g169
a(igraph
Vertex
p176
(dp177
g89
F0.40298507462686484
sg8
I00
sg19
g20
sg14
F-33.0
sg15
F149.99999999999994
sg16
I378306
sg17
S'2605.01818751'
p178
sg91
F0.20000000000000001
sbasg24
I00
sg25
I00
sg26
I378214
sg17
S'2605.06936999'
p179
sba(igraph
Edge
p180
(dp181
g7
I1
sg8
I00
sg9
I5
sg10
(lp182
(igraph
Vertex
p183
(dp184
g14
F0.0
sg15
F-23.684210526315738
sg16
I378307
sg8
I00
sg17
S'2605.02169941'
p185
sg19
g20
sba(igraph
Vertex
p186
(dp187
g14
F0.0
sg15
F-7.8947368421052033
sg16
I378308
sg8
I00
sg17
S'2605.02217461'
p188
sg19
g20
sbasg24
I00
sg25
I00
sg26
I378215
sg17
S'2605.07737352'
p189
sba(igraph
Edge
p190
(dp191
g7
I1
sg8
I00
sg9
I5
sg10
(lp192
g186
a(igraph
Vertex
p193
(dp194
g14
F0.0
sg15
F7.894736842105317
sg16
I378309
sg8
I00
sg17
S'2605.02260623'
p195
sg19
g20
sbasg24
I00
sg25
I00
sg26
I378216
sg17
S'2605.07820324'
p196
sba(igraph
Edge
p197
(dp198
g7
I1
sg8
I00
sg9
I5
sg10
(lp199
g193
a(igraph
Vertex
p200
(dp201
g14
F0.0
sg15
F23.684210526315866
sg16
I378310
sg8
I00
sg17
S'2605.0230412'
p202
sg19
g20
sbasg24
I00
sg25
I00
sg26
I378217
sg17
S'2605.0790377'
p203
sba(igraph
Edge
p204
(dp205
g7
I1
sg8
I00
sg9
I5
sg10
(lp206
g200
a(igraph
Vertex
p207
(dp208
g14
F0.0
sg15
F39.473684210526358
sg16
I378311
sg8
I00
sg17
S'2605.02348315'
p209
sg19
g20
sbasg24
I00
sg25
I00
sg26
I378218
sg17
S'2605.07983082'
p210
sba(igraph
Edge
p211
(dp212
g7
I1
sg8
I00
sg9
I5
sg10
(lp213
g207
a(igraph
Vertex
p214
(dp215
g14
F0.0
sg15
F55.263157894736878
sg16
I378312
sg8
I00
sg17
S'2605.0239902'
p216
sg19
g20
sbasg24
I00
sg25
I00
sg26
I378219
sg17
S'2605.08072283'
p217
sba(igraph
Edge
p218
(dp219
g7
I1
sg8
I00
sg9
I5
sg10
(lp220
g214
a(igraph
Vertex
p221
(dp222
g14
F0.0
sg15
F71.05263157894737
sg16
I378313
sg8
I00
sg17
S'2605.02445786'
p223
sg19
g20
sbasg24
I00
sg25
I00
sg26
I378220
sg17
S'2605.08163943'
p224
sba(igraph
Edge
p225
(dp226
g7
I1
sg8
I00
sg9
I5
sg10
(lp227
g221
a(igraph
Vertex
p228
(dp229
g14
F0.0
sg15
F86.84210526315789
sg16
I378314
sg8
I00
sg17
S'2605.02495569'
p230
sg19
g20
sbasg24
I00
sg25
I00
sg26
I378221
sg17
S'2605.08253647'
p231
sba(igraph
Edge
p232
(dp233
g7
I1
sg8
I00
sg9
I5
sg10
(lp234
g228
a(igraph
Vertex
p235
(dp236
g14
F0.0
sg15
F102.63157894736841
sg16
I378315
sg8
I00
sg17
S'2605.02543452'
p237
sg19
g20
sbasg24
I00
sg25
I00
sg26
I378222
sg17
S'2605.08336702'
p238
sba(igraph
Edge
p239
(dp240
g7
I1
sg8
I00
sg9
I5
sg10
(lp241
g235
a(igraph
Vertex
p242
(dp243
g14
F0.0
sg15
F118.4210526315789
sg16
I378316
sg8
I00
sg17
S'2605.02594352'
p244
sg19
g20
sbasg24
I00
sg25
I00
sg26
I378223
sg17
S'2605.08420819'
p245
sba(igraph
Edge
p246
(dp247
g7
I1
sg8
I00
sg9
I5
sg10
(lp248
g242
a(igraph
Vertex
p249
(dp250
g89
F0.16732128829536452
sg8
I00
sg19
I0
sg14
F0.0
sg15
F134.21052631578942
sg16
I378317
sg17
S'2605.02644386'
p251
sg91
F0.29705882352941176
sbasg24
I00
sg25
I00
sg26
I378224
sg17
S'2605.08506444'
p252
sba(igraph
Edge
p253
(dp254
g7
I1
sg8
I00
sg9
I5
sg10
(lp255
g249
a(igraph
Vertex
p256
(dp257
g89
F0.40298507462686484
sg8
I00
sg19
g20
sg14
F0.0
sg15
F149.99999999999994
sg16
I378319
sg17
S'2605.02695007'
p258
sg91
F0.29705882352941176
sbasg24
I00
sg25
I00
sg26
I378225
sg17
S'2605.0859436'
p259
sba(igraph
Edge
p260
(dp261
g7
I1
sg8
I00
sg9
I5
sg10
(lp262
(igraph
Vertex
p263
(dp264
g14
F33.0
sg15
F-23.684210526315738
sg16
I378320
sg8
I00
sg17
S'2605.03202334'
p265
sg19
I0
sba(igraph
Vertex
p266
(dp267
g14
F33.0
sg15
F-7.8947368421052033
sg16
I378322
sg8
I00
sg17
S'2605.03268153'
p268
sg19
g20
sbasg24
I00
sg25
I00
sg26
I378226
sg17
S'2605.09558058'
p269
sba(igraph
Edge
p270
(dp271
g7
I1
sg8
I00
sg9
I5
sg10
(lp272
g266
a(igraph
Vertex
p273
(dp274
g14
F33.0
sg15
F7.894736842105317
sg16
I378323
sg8
I00
sg17
S'2605.03338134'
p275
sg19
I0
sbasg24
I00
sg25
I00
sg26
I378227
sg17
S'2605.096593'
p276
sba(igraph
Edge
p277
(dp278
g7
I1
sg8
I00
sg9
I5
sg10
(lp279
g273
a(igraph
Vertex
p280
(dp281
g14
F33.0
sg15
F23.684210526315866
sg16
I378325
sg8
I00
sg17
S'2605.03399203'
p282
sg19
g20
sbasg24
I00
sg25
I00
sg26
I378228
sg17
S'2605.09763727'
p283
sba(igraph
Edge
p284
(dp285
g7
I1
sg8
I00
sg9
I5
sg10
(lp286
g280
a(igraph
Vertex
p287
(dp288
g14
F33.0
sg15
F39.473684210526358
sg16
I378326
sg8
I00
sg17
S'2605.03463094'
p289
sg19
I0
sbasg24
I00
sg25
I00
sg26
I378229
sg17
S'2605.09869271'
p290
sba(igraph
Edge
p291
(dp292
g7
I1
sg8
I00
sg9
I5
sg10
(lp293
g287
a(igraph
Vertex
p294
(dp295
g14
F33.0
sg15
F55.263157894736878
sg16
I378328
sg8
I00
sg17
S'2605.03525839'
p296
sg19
g20
sbasg24
I00
sg25
I00
sg26
I378230
sg17
S'2605.09982554'
p297
sba(igraph
Edge
p298
(dp299
g7
I1
sg8
I00
sg9
I5
sg10
(lp300
g294
a(igraph
Vertex
p301
(dp302
g14
F34.0
sg15
F71.0
sg16
I378329
sg8
I00
sg17
S'2605.03594144'
p303
sg19
I0
sbasg24
I00
sg25
I00
sg26
I378231
sg17
S'2605.10104999'
p304
sba(igraph
Edge
p305
(dp306
g7
I1
sg8
I00
sg9
I5
sg10
(lp307
g301
a(igraph
Vertex
p308
(dp309
g14
F33.0
sg15
F86.84210526315789
sg16
I378331
sg8
I00
sg17
S'2605.03659348'
p310
sg19
g20
sbasg24
I00
sg25
I00
sg26
I378232
sg17
S'2605.10216103'
p311
sba(igraph
Edge
p312
(dp313
g7
I1
sg8
I00
sg9
I5
sg10
(lp314
g308
a(igraph
Vertex
p315
(dp316
g14
F33.0
sg15
F102.63157894736841
sg16
I378332
sg8
I00
sg17
S'2605.03725166'
p317
sg19
I0
sbasg24
I00
sg25
I00
sg26
I378233
sg17
S'2605.10328575'
p318
sba(igraph
Edge
p319
(dp320
g7
I1
sg8
I00
sg9
I5
sg10
(lp321
g315
a(igraph
Vertex
p322
(dp323
g14
F33.0
sg15
F118.4210526315789
sg16
I378334
sg8
I00
sg17
S'2605.03794533'
p324
sg19
g20
sbasg24
I00
sg25
I00
sg26
I378234
sg17
S'2605.10448702'
p325
sba(igraph
Edge
p326
(dp327
g7
I1
sg8
I00
sg9
I5
sg10
(lp328
g322
a(igraph
Vertex
p329
(dp330
g89
F0.16732128829536452
sg8
I00
sg19
g20
sg14
F33.0
sg15
F134.21052631578942
sg16
I378335
sg17
S'2605.03862698'
p331
sg91
F0.39411764705882352
sbasg24
I00
sg25
I00
sg26
I378235
sg17
S'2605.1056584'
p332
sba(igraph
Edge
p333
(dp334
g7
I1
sg8
I00
sg9
I5
sg10
(lp335
g329
a(igraph
Vertex
p336
(dp337
g89
F0.40298507462686484
sg8
I00
sg19
g20
sg14
F33.0
sg15
F149.99999999999994
sg16
I378336
sg17
S'2605.03930164'
p338
sg91
F0.39411764705882352
sbasg24
I00
sg25
I00
sg26
I378236
sg17
S'2605.10686051'
p339
sba(igraph
Edge
p340
(dp341
g7
I1
sg8
I00
sg9
I5
sg10
(lp342
(igraph
Vertex
p343
(dp344
g14
F66.0
sg15
F-23.684210526315738
sg16
I378337
sg8
I00
sg17
S'2605.04616928'
p345
sg19
g20
sba(igraph
Vertex
p346
(dp347
g14
F66.0
sg15
F-7.8947368421052033
sg16
I378338
sg8
I00
sg17
S'2605.04696156'
p348
sg19
g20
sbasg24
I00
sg25
I00
sg26
I378237
sg17
S'2605.11965208'
p349
sba(igraph
Edge
p350
(dp351
g7
I1
sg8
I00
sg9
I5
sg10
(lp352
g346
a(igraph
Vertex
p353
(dp354
g14
F66.0
sg15
F7.894736842105317
sg16
I378339
sg8
I00
sg17
S'2605.04775439'
p355
sg19
g20
sbasg24
I00
sg25
I00
sg26
I378238
sg17
S'2605.12096789'
p356
sba(igraph
Edge
p357
(dp358
g7
I1
sg8
I00
sg9
I5
sg10
(lp359
g353
a(igraph
Vertex
p360
(dp361
g14
F66.0
sg15
F23.684210526315866
sg16
I378340
sg8
I00
sg17
S'2605.04856288'
p362
sg19
g20
sbasg24
I00
sg25
I00
sg26
I378239
sg17
S'2605.12230996'
p363
sba(igraph
Edge
p364
(dp365
g7
I1
sg8
I00
sg9
I5
sg10
(lp366
g360
a(igraph
Vertex
p367
(dp368
g14
F66.0
sg15
F39.473684210526358
sg16
I378341
sg8
I00
sg17
S'2605.04946439'
p369
sg19
g20
sbasg24
I00
sg25
I00
sg26
I378240
sg17
S'2605.12365091'
p370
sba(igraph
Edge
p371
(dp372
g7
I1
sg8
I00
sg9
I5
sg10
(lp373
g367
a(igraph
Vertex
p374
(dp375
g14
F66.0
sg15
F55.263157894736878
sg16
I378342
sg8
I00
sg17
S'2605.05034355'
p376
sg19
g20
sbasg24
I00
sg25
I00
sg26
I378241
sg17
S'2605.12500918'
p377
sba(igraph
Edge
p378
(dp379
g7
I1
sg8
I00
sg9
I5
sg10
(lp380
g374
a(igraph
Vertex
p381
(dp382
g14
F66.0
sg15
F71.05263157894737
sg16
I378343
sg8
I00
sg17
S'2605.05117913'
p383
sg19
g20
sbasg24
I00
sg25
I00
sg26
I378242
sg17
S'2605.12636494'
p384
sba(igraph
Edge
p385
(dp386
g7
I1
sg8
I00
sg9
I5
sg10
(lp387
g381
a(igraph
Vertex
p388
(dp389
g14
F66.0
sg15
F86.84210526315789
sg16
I378344
sg8
I00
sg17
S'2605.05200661'
p390
sg19
g20
sbasg24
I00
sg25
I00
sg26
I378243
sg17
S'2605.1278182'
p391
sba(igraph
Edge
p392
(dp393
g7
I1
sg8
I00
sg9
I5
sg10
(lp394
g388
a(igraph
Vertex
p395
(dp396
g14
F66.0
sg15
F102.63157894736841
sg16
I378345
sg8
I00
sg17
S'2605.05294472'
p397
sg19
g20
sbasg24
I00
sg25
I00
sg26
I378244
sg17
S'2605.12924659'
p398
sba(igraph
Edge
p399
(dp400
g7
I1
sg8
I00
sg9
I5
sg10
(lp401
g395
a(igraph
Vertex
p402
(dp403
g14
F66.0
sg15
F118.4210526315789
sg16
I378346
sg8
I00
sg17
S'2605.05384148'
p404
sg19
g20
sbasg24
I00
sg25
I00
sg26
I378245
sg17
S'2605.13073477'
p405
sba(igraph
Edge
p406
(dp407
g7
I1
sg8
I00
sg9
I5
sg10
(lp408
g402
a(igraph
Vertex
p409
(dp410
g89
F0.16732128829536452
sg8
I00
sg19
I0
sg14
F66.0
sg15
F134.21052631578942
sg16
I378347
sg17
S'2605.05471058'
p411
sg91
F0.49117647058823527
sbasg24
I00
sg25
I00
sg26
I378246
sg17
S'2605.13218552'
p412
sba(igraph
Edge
p413
(dp414
g7
I1
sg8
I00
sg9
I5
sg10
(lp415
g409
a(igraph
Vertex
p416
(dp417
g89
F0.40298507462686484
sg8
I00
sg19
g20
sg14
F66.0
sg15
F149.99999999999994
sg16
I378349
sg17
S'2605.05560371'
p418
sg91
F0.49117647058823527
sbasg24
I00
sg25
I00
sg26
I378247
sg17
S'2605.13369185'
p419
sba(igraph
Edge
p420
(dp421
g7
I1
sg8
I00
sg9
I5
sg10
(lp422
g12
ag106
asg24
I00
sg25
I00
sg26
I378248
sg17
S'2605.14276591'
p423
sba(igraph
Edge
p424
(dp425
g7
I1
sg8
I00
sg9
I5
sg10
(lp426
g31
ag120
asg24
I00
sg25
I00
sg26
I378249
sg17
S'2605.14431248'
p427
sba(igraph
Edge
p428
(dp429
g7
I1
sg8
I00
sg9
I5
sg10
(lp430
g45
ag134
asg24
I00
sg25
I00
sg26
I378250
sg17
S'2605.14586463'
p431
sba(igraph
Edge
p432
(dp433
g7
I1
sg8
I00
sg9
I5
sg10
(lp434
g59
ag148
asg24
I00
sg25
I00
sg26
I378251
sg17
S'2605.1474246'
p435
sba(igraph
Edge
p436
(dp437
g7
I1
sg8
I00
sg9
I5
sg10
(lp438
g73
ag162
asg24
I00
sg25
I00
sg26
I378252
sg17
S'2605.14900553'
p439
sba(igraph
Edge
p440
(dp441
g7
I1
sg8
I00
sg9
I5
sg10
(lp442
g87
ag176
asg24
I00
sg25
I00
sg26
I378253
sg17
S'2605.15059651'
p443
sba(igraph
Edge
p444
(dp445
g7
I1
sg8
I00
sg9
I5
sg10
(lp446
g103
ag186
asg24
I00
sg25
I00
sg26
I378254
sg17
S'2605.1587537'
p447
sba(igraph
Edge
p448
(dp449
g7
I1
sg8
I00
sg9
I5
sg10
(lp450
g113
ag200
asg24
I00
sg25
I00
sg26
I378255
sg17
S'2605.16042542'
p451
sba(igraph
Edge
p452
(dp453
g7
I1
sg8
I00
sg9
I5
sg10
(lp454
g127
ag214
asg24
I00
sg25
I00
sg26
I378256
sg17
S'2605.16279555'
p455
sba(igraph
Edge
p456
(dp457
g7
I1
sg8
I00
sg9
I5
sg10
(lp458
g141
ag228
asg24
I00
sg25
I00
sg26
I378257
sg17
S'2605.16460165'
p459
sba(igraph
Edge
p460
(dp461
g7
I1
sg8
I00
sg9
I5
sg10
(lp462
g155
ag242
asg24
I00
sg25
I00
sg26
I378258
sg17
S'2605.16642841'
p463
sba(igraph
Edge
p464
(dp465
g7
I1
sg8
I00
sg9
I5
sg10
(lp466
g169
ag256
asg24
I00
sg25
I00
sg26
I378259
sg17
S'2605.16821356'
p467
sba(igraph
Edge
p468
(dp469
g7
I1
sg8
I00
sg9
I5
sg10
(lp470
g183
ag266
asg24
I00
sg25
I00
sg26
I378260
sg17
S'2605.17735774'
p471
sba(igraph
Edge
p472
(dp473
g7
I1
sg8
I00
sg9
I5
sg10
(lp474
g193
ag280
asg24
I00
sg25
I00
sg26
I378261
sg17
S'2605.17919903'
p475
sba(igraph
Edge
p476
(dp477
g7
I1
sg8
I00
sg9
I5
sg10
(lp478
g207
ag294
asg24
I00
sg25
I00
sg26
I378262
sg17
S'2605.18105765'
p479
sba(igraph
Edge
p480
(dp481
g7
I1
sg8
I00
sg9
I5
sg10
(lp482
g221
ag308
asg24
I00
sg25
I00
sg26
I378263
sg17
S'2605.1829009'
p483
sba(igraph
Edge
p484
(dp485
g7
I1
sg8
I00
sg9
I5
sg10
(lp486
g235
ag322
asg24
I00
sg25
I00
sg26
I378264
sg17
S'2605.18480505'
p487
sba(igraph
Edge
p488
(dp489
g7
I1
sg8
I00
sg9
I5
sg10
(lp490
g249
ag336
asg24
I00
sg25
I00
sg26
I378265
sg17
S'2605.18671256'
p491
sba(igraph
Edge
p492
(dp493
g7
I1
sg8
I00
sg9
I5
sg10
(lp494
g263
ag346
asg24
I00
sg25
I00
sg26
I378266
sg17
S'2605.19664874'
p495
sba(igraph
Edge
p496
(dp497
g7
I1
sg8
I00
sg9
I5
sg10
(lp498
g273
ag360
asg24
I00
sg25
I00
sg26
I378267
sg17
S'2605.19870822'
p499
sba(igraph
Edge
p500
(dp501
g7
I1
sg8
I00
sg9
I5
sg10
(lp502
g287
ag374
asg24
I00
sg25
I00
sg26
I378268
sg17
S'2605.20073473'
p503
sba(igraph
Edge
p504
(dp505
g7
I1
sg8
I00
sg9
I5
sg10
(lp506
g301
ag388
asg24
I00
sg25
I00
sg26
I378269
sg17
S'2605.20281013'
p507
sba(igraph
Edge
p508
(dp509
g7
I1
sg8
I00
sg9
I5
sg10
(lp510
g315
ag402
asg24
I00
sg25
I00
sg26
I378270
sg17
S'2605.20489057'
p511
sba(igraph
Edge
p512
(dp513
g7
I1
sg8
I00
sg9
I5
sg10
(lp514
g329
ag416
asg24
I00
sg25
I00
sg26
I378271
sg17
S'2605.20700676'
p515
sba(igraph
Edge
p516
(dp517
g7
I1
sg8
I00
sg9
I5
sg10
(lp518
g343
ag416
asg24
I00
sg25
I00
sg26
I378272
sg17
S'3198.51789459'
p519
sba(igraph
Edge
p520
(dp521
g7
I1
sg8
I00
sg9
I5
sg10
(lp522
g336
ag263
asg24
I00
sg25
I00
sg26
I378273
sg17
S'3201.37849866'
p523
sba(igraph
Edge
p524
(dp525
g7
I1
sg8
I00
sg9
I5
sg10
(lp526
g183
ag256
asg24
I00
sg25
I00
sg26
I378274
sg17
S'3205.72263793'
p527
sba(igraph
Edge
p528
(dp529
g7
I1
sg8
I00
sg9
I5
sg10
(lp530
g176
ag103
asg24
I00
sg25
I00
sg26
I378275
sg17
S'3208.74763664'
p531
sba(igraph
Edge
p532
(dp533
g7
I1
sg8
I00
sg9
I5
sg10
(lp534
g12
ag96
asg24
I00
sg25
I00
sg26
I378276
sg17
S'3211.84946187'
p535
sbasS'vertices'
p536
(lp537
g12
ag21
ag31
ag38
ag45
ag52
ag59
ag66
ag73
ag80
ag87
ag96
ag103
ag106
ag113
ag120
ag127
ag134
ag141
ag148
ag155
ag162
ag169
ag176
ag183
ag186
ag193
ag200
ag207
ag214
ag221
ag228
ag235
ag242
ag249
ag256
ag263
ag266
ag273
ag280
ag287
ag294
ag301
ag308
ag315
ag322
ag329
ag336
ag343
ag346
ag353
ag360
ag367
ag374
ag381
ag388
ag395
ag402
ag409
ag416
asS'tags'
p538
(lp539
sb.