(igraph
Graph
p0
(dp1
S'labelingConstraints'
p2
I-1
sS'edges'
p3
(lp4
(igraph
Edge
p5
(dp6
S'direction'
p7
I1
sS'selected'
p8
I00
sS'height'
p9
I5
sS'vs'
p10
(lp11
(igraph
Vertex
p12
(dp13
S'y'
p14
F-66.0
sS'x'
p15
F-118.42105263157889
sS'circle'
p16
I363907
sg8
I00
sS'id'
p17
S'2605.01102375'
p18
sS'label'
p19
S'NULL'
p20
sba(igraph
Vertex
p21
(dp22
g14
F-66.0
sg15
F-102.63157894736837
sg16
I363908
sg8
I00
sg17
S'2605.01105336'
p23
sg19
g20
sbasS'wrap'
p24
I00
sS'curved'
p25
I00
sS'line'
p26
I363781
sg17
S'2605.05669072'
p27
sba(igraph
Edge
p28
(dp29
g7
I1
sg8
I00
sg9
I5
sg10
(lp30
g21
a(igraph
Vertex
p31
(dp32
g14
F-66.0
sg15
F-86.842105263157833
sg16
I363909
sg8
I00
sg17
S'2605.01108856'
p33
sg19
g20
sbasg24
I00
sg25
I00
sg26
I363782
sg17
S'2605.05676392'
p34
sba(igraph
Edge
p35
(dp36
g7
I1
sg8
I00
sg9
I5
sg10
(lp37
g31
a(igraph
Vertex
p38
(dp39
g14
F-66.0
sg15
F-71.052631578947313
sg16
I363910
sg8
I00
sg17
S'2605.01118019'
p40
sg19
g20
sbasg24
I00
sg25
I00
sg26
I363783
sg17
S'2605.05685024'
p41
sba(igraph
Edge
p42
(dp43
g7
I1
sg8
I00
sg9
I5
sg10
(lp44
g38
a(igraph
Vertex
p45
(dp46
g14
F-66.0
sg15
F-55.263157894736793
sg16
I363911
sg8
I00
sg17
S'2605.01125394'
p47
sg19
g20
sbasg24
I00
sg25
I00
sg26
I363784
sg17
S'2605.05695249'
p48
sba(igraph
Edge
p49
(dp50
g7
I1
sg8
I00
sg9
I5
sg10
(lp51
g45
a(igraph
Vertex
p52
(dp53
g14
F-66.0
sg15
F-39.473684210526258
sg16
I363912
sg8
I00
sg17
S'2605.01131485'
p54
sg19
g20
sbasg24
I00
sg25
I00
sg26
I363785
sg17
S'2605.05710419'
p55
sba(igraph
Edge
p56
(dp57
g7
I1
sg8
I00
sg9
I5
sg10
(lp58
g52
a(igraph
Vertex
p59
(dp60
g14
F-66.0
sg15
F-23.684210526315738
sg16
I363913
sg8
I00
sg17
S'2605.01138217'
p61
sg19
g20
sbasg24
I00
sg25
I00
sg26
I363786
sg17
S'2605.05723465'
p62
sba(igraph
Edge
p63
(dp64
g7
I1
sg8
I00
sg9
I5
sg10
(lp65
g59
a(igraph
Vertex
p66
(dp67
g14
F-66.0
sg15
F-7.8947368421052033
sg16
I363914
sg8
I00
sg17
S'2605.01145732'
p68
sg19
g20
sbasg24
I00
sg25
I00
sg26
I363787
sg17
S'2605.05737852'
p69
sba(igraph
Edge
p70
(dp71
g7
I1
sg8
I00
sg9
I5
sg10
(lp72
g66
a(igraph
Vertex
p73
(dp74
g14
F-66.0
sg15
F7.894736842105317
sg16
I363915
sg8
I00
sg17
S'2605.0115442'
p75
sg19
g20
sbasg24
I00
sg25
I00
sg26
I363788
sg17
S'2605.0575386'
p76
sba(igraph
Edge
p77
(dp78
g7
I1
sg8
I00
sg9
I5
sg10
(lp79
g73
a(igraph
Vertex
p80
(dp81
g14
F-66.0
sg15
F23.684210526315866
sg16
I363916
sg8
I00
sg17
S'2605.01163891'
p82
sg19
g20
sbasg24
I00
sg25
I00
sg26
I363789
sg17
S'2605.05771292'
p83
sba(igraph
Edge
p84
(dp85
g7
I1
sg8
I00
sg9
I5
sg10
(lp86
g80
a(igraph
Vertex
p87
(dp88
g14
F-66.0
sg15
F39.473684210526358
sg16
I363917
sg8
I00
sg17
S'2605.01174814'
p89
sg19
g20
sbasg24
I00
sg25
I00
sg26
I363790
sg17
S'2605.05790261'
p90
sba(igraph
Edge
p91
(dp92
g7
I1
sg8
I00
sg9
I5
sg10
(lp93
g87
a(igraph
Vertex
p94
(dp95
g14
F-66.0
sg15
F55.263157894736878
sg16
I363918
sg8
I00
sg17
S'2605.01185709'
p96
sg19
g20
sbasg24
I00
sg25
I00
sg26
I363791
sg17
S'2605.05812387'
p97
sba(igraph
Edge
p98
(dp99
g7
I1
sg8
I00
sg9
I5
sg10
(lp100
g94
a(igraph
Vertex
p101
(dp102
g14
F-66.0
sg15
F71.05263157894737
sg16
I363919
sg8
I00
sg17
S'2605.01197582'
p103
sg19
g20
sbasg24
I00
sg25
I00
sg26
I363792
sg17
S'2605.05834093'
p104
sba(igraph
Edge
p105
(dp106
g7
I1
sg8
I00
sg9
I5
sg10
(lp107
g101
a(igraph
Vertex
p108
(dp109
g14
F-66.0
sg15
F86.84210526315789
sg16
I363920
sg8
I00
sg17
S'2605.01213478'
p110
sg19
g20
sbasg24
I00
sg25
I00
sg26
I363793
sg17
S'2605.05857476'
p111
sba(igraph
Edge
p112
(dp113
g7
I1
sg8
I00
sg9
I5
sg10
(lp114
g108
a(igraph
Vertex
p115
(dp116
g14
F-66.0
sg15
F102.63157894736841
sg16
I363921
sg8
I00
sg17
S'2605.01226832'
p117
sg19
g20
sbasg24
I00
sg25
I00
sg26
I363794
sg17
S'2605.05882144'
p118
sba(igraph
Edge
p119
(dp120
g7
I1
sg8
I00
sg9
I5
sg10
(lp121
g115
a(igraph
Vertex
p122
(dp123
g14
F-66.0
sg15
F118.4210526315789
sg16
I363922
sg8
I00
sg17
S'2605.01241359'
p124
sg19
g20
sbasg24
I00
sg25
I00
sg26
I363795
sg17
S'2605.05909354'
p125
sba(igraph
Edge
p126
(dp127
g7
I1
sg8
I00
sg9
I5
sg10
(lp128
g122
a(igraph
Vertex
p129
(dp130
S'xnorm'
p131
F0.16732128829536452
sg8
I01
sg19
I0
sg14
F-66.0
sg15
F134.21052631578942
sg16
I363924
sg17
S'2605.01256193'
p132
sS'ynorm'
p133
F0.10294117647058823
sbasg24
I00
sg25
I00
sg26
I363796
sg17
S'2605.05937375'
p134
sba(igraph
Edge
p135
(dp136
g7
I1
sg8
I00
sg9
I5
sg10
(lp137
g129
a(igraph
Vertex
p138
(dp139
g131
F0.40298507462686484
sg8
I00
sg19
g20
sg14
F-66.0
sg15
F149.99999999999994
sg16
I363926
sg17
S'2605.01272145'
p140
sg133
F0.10294117647058823
sbasg24
I00
sg25
I00
sg26
I363797
sg17
S'2605.0596749'
p141
sba(igraph
Edge
p142
(dp143
g7
I1
sg8
I00
sg9
I5
sg10
(lp144
(igraph
Vertex
p145
(dp146
g14
F-33.0
sg15
F-118.42105263157889
sg16
I363928
sg8
I01
sg17
S'2605.01327152'
p147
sg19
I0
sba(igraph
Vertex
p148
(dp149
g14
F-33.0
sg15
F-102.63157894736837
sg16
I363930
sg8
I00
sg17
S'2605.01346344'
p150
sg19
g20
sbasg24
I00
sg25
I00
sg26
I363798
sg17
S'2605.06111028'
p151
sba(igraph
Edge
p152
(dp153
g7
I1
sg8
I00
sg9
I5
sg10
(lp154
g148
a(igraph
Vertex
p155
(dp156
g14
F-34.0
sg15
F-83.0
sg16
I363932
sg8
I01
sg17
S'2605.01366431'
p157
sg19
I0
sbasg24
I00
sg25
I00
sg26
I363799
sg17
S'2605.06151396'
p158
sba(igraph
Edge
p159
(dp160
g7
I1
sg8
I00
sg9
I5
sg10
(lp161
g155
a(igraph
Vertex
p162
(dp163
g14
F-33.0
sg15
F-71.052631578947313
sg16
I363934
sg8
I00
sg17
S'2605.01387495'
p164
sg19
g20
sbasg24
I00
sg25
I00
sg26
I363800
sg17
S'2605.06190843'
p165
sba(igraph
Edge
p166
(dp167
g7
I1
sg8
I00
sg9
I5
sg10
(lp168
g162
a(igraph
Vertex
p169
(dp170
g14
F-33.0
sg15
F-55.263157894736793
sg16
I363936
sg8
I01
sg17
S'2605.01411548'
p171
sg19
I0
sbasg24
I00
sg25
I00
sg26
I363801
sg17
S'2605.06230149'
p172
sba(igraph
Edge
p173
(dp174
g7
I1
sg8
I00
sg9
I5
sg10
(lp175
g169
a(igraph
Vertex
p176
(dp177
g14
F-33.0
sg15
F-39.473684210526258
sg16
I363938
sg8
I00
sg17
S'2605.014344'
p178
sg19
g20
sbasg24
I00
sg25
I00
sg26
I363802
sg17
S'2605.06271551'
p179
sba(igraph
Edge
p180
(dp181
g7
I1
sg8
I00
sg9
I5
sg10
(lp182
g176
a(igraph
Vertex
p183
(dp184
g14
F-33.0
sg15
F-23.684210526315738
sg16
I363940
sg8
I01
sg17
S'2605.01458342'
p185
sg19
I0
sbasg24
I00
sg25
I00
sg26
I363803
sg17
S'2605.06321111'
p186
sba(igraph
Edge
p187
(dp188
g7
I1
sg8
I00
sg9
I5
sg10
(lp189
g183
a(igraph
Vertex
p190
(dp191
g14
F-33.0
sg15
F-7.8947368421052033
sg16
I363942
sg8
I00
sg17
S'2605.01482702'
p192
sg19
g20
sbasg24
I00
sg25
I00
sg26
I363804
sg17
S'2605.06369469'
p193
sba(igraph
Edge
p194
(dp195
g7
I1
sg8
I00
sg9
I5
sg10
(lp196
g190
a(igraph
Vertex
p197
(dp198
g14
F-33.0
sg15
F7.894736842105317
sg16
I363944
sg8
I01
sg17
S'2605.01509298'
p199
sg19
I0
sbasg24
I00
sg25
I00
sg26
I363805
sg17
S'2605.06419252'
p200
sba(igraph
Edge
p201
(dp202
g7
I1
sg8
I00
sg9
I5
sg10
(lp203
g197
a(igraph
Vertex
p204
(dp205
g14
F-33.0
sg15
F23.684210526315866
sg16
I363946
sg8
I00
sg17
S'2605.01534972'
p206
sg19
g20
sbasg24
I00
sg25
I00
sg26
I363806
sg17
S'2605.06466408'
p207
sba(igraph
Edge
p208
(dp209
g7
I1
sg8
I00
sg9
I5
sg10
(lp210
g204
a(igraph
Vertex
p211
(dp212
g14
F-33.0
sg15
F39.473684210526358
sg16
I363948
sg8
I01
sg17
S'2605.01561986'
p213
sg19
I0
sbasg24
I00
sg25
I00
sg26
I363807
sg17
S'2605.06519013'
p214
sba(igraph
Edge
p215
(dp216
g7
I1
sg8
I00
sg9
I5
sg10
(lp217
g211
a(igraph
Vertex
p218
(dp219
g14
F-33.0
sg15
F55.263157894736878
sg16
I363950
sg8
I00
sg17
S'2605.01589951'
p220
sg19
g20
sbasg24
I00
sg25
I00
sg26
I363808
sg17
S'2605.0657307'
p221
sba(igraph
Edge
p222
(dp223
g7
I1
sg8
I00
sg9
I5
sg10
(lp224
g218
a(igraph
Vertex
p225
(dp226
g14
F-33.0
sg15
F71.05263157894737
sg16
I363952
sg8
I01
sg17
S'2605.01660183'
p227
sg19
I0
sbasg24
I00
sg25
I00
sg26
I363809
sg17
S'2605.06628859'
p228
sba(igraph
Edge
p229
(dp230
g7
I1
sg8
I00
sg9
I5
sg10
(lp231
g225
a(igraph
Vertex
p232
(dp233
g14
F-33.0
sg15
F86.84210526315789
sg16
I363954
sg8
I00
sg17
S'2605.01690243'
p234
sg19
g20
sbasg24
I00
sg25
I00
sg26
I363810
sg17
S'2605.06685291'
p235
sba(igraph
Edge
p236
(dp237
g7
I1
sg8
I00
sg9
I5
sg10
(lp238
g232
a(igraph
Vertex
p239
(dp240
g14
F-33.0
sg15
F102.63157894736841
sg16
I363956
sg8
I01
sg17
S'2605.01722426'
p241
sg19
I0
sbasg24
I00
sg25
I00
sg26
I363811
sg17
S'2605.0674027'
p242
sba(igraph
Edge
p243
(dp244
g7
I1
sg8
I00
sg9
I5
sg10
(lp245
g239
a(igraph
Vertex
p246
(dp247
g14
F-33.0
sg15
F118.4210526315789
sg16
I363958
sg8
I00
sg17
S'2605.017531'
p248
sg19
g20
sbasg24
I00
sg25
I00
sg26
I363812
sg17
S'2605.06802736'
p249
sba(igraph
Edge
p250
(dp251
g7
I1
sg8
I00
sg9
I5
sg10
(lp252
g246
a(igraph
Vertex
p253
(dp254
g131
F0.16732128829536452
sg8
I00
sg19
g20
sg14
F-33.0
sg15
F134.21052631578942
sg16
I363959
sg17
S'2605.01784584'
p255
sg133
F0.20000000000000001
sbasg24
I00
sg25
I00
sg26
I363813
sg17
S'2605.06866431'
p256
sba(igraph
Edge
p257
(dp258
g7
I1
sg8
I00
sg9
I5
sg10
(lp259
g253
a(igraph
Vertex
p260
(dp261
g131
F0.40298507462686484
sg8
I00
sg19
g20
sg14
F-33.0
sg15
F149.99999999999994
sg16
I363960
sg17
S'2605.01818751'
p262
sg133
F0.20000000000000001
sbasg24
I00
sg25
I00
sg26
I363814
sg17
S'2605.06936999'
p263
sba(igraph
Edge
p264
(dp265
g7
I1
sg8
I00
sg9
I5
sg10
(lp266
(igraph
Vertex
p267
(dp268
g14
F0.0
sg15
F-118.42105263157889
sg16
I363961
sg8
I00
sg17
S'2605.0192991'
p269
sg19
g20
sba(igraph
Vertex
p270
(dp271
g14
F0.0
sg15
F-102.63157894736837
sg16
I363962
sg8
I00
sg17
S'2605.01966339'
p272
sg19
g20
sbasg24
I00
sg25
I00
sg26
I363815
sg17
S'2605.07210023'
p273
sba(igraph
Edge
p274
(dp275
g7
I1
sg8
I00
sg9
I5
sg10
(lp276
g270
a(igraph
Vertex
p277
(dp278
g14
F0.0
sg15
F-86.842105263157833
sg16
I363963
sg8
I00
sg17
S'2605.02009753'
p279
sg19
g20
sbasg24
I00
sg25
I00
sg26
I363816
sg17
S'2605.07336659'
p280
sba(igraph
Edge
p281
(dp282
g7
I1
sg8
I00
sg9
I5
sg10
(lp283
g277
a(igraph
Vertex
p284
(dp285
g14
F0.0
sg15
F-71.052631578947313
sg16
I363964
sg8
I00
sg17
S'2605.02048696'
p286
sg19
g20
sbasg24
I00
sg25
I00
sg26
I363817
sg17
S'2605.07417703'
p287
sba(igraph
Edge
p288
(dp289
g7
I1
sg8
I00
sg9
I5
sg10
(lp290
g284
a(igraph
Vertex
p291
(dp292
g14
F0.0
sg15
F-55.263157894736793
sg16
I363965
sg8
I00
sg17
S'2605.02088478'
p293
sg19
g20
sbasg24
I00
sg25
I00
sg26
I363818
sg17
S'2605.07495729'
p294
sba(igraph
Edge
p295
(dp296
g7
I1
sg8
I00
sg9
I5
sg10
(lp297
g291
a(igraph
Vertex
p298
(dp299
g14
F0.0
sg15
F-39.473684210526258
sg16
I363966
sg8
I00
sg17
S'2605.02128846'
p300
sg19
g20
sbasg24
I00
sg25
I00
sg26
I363819
sg17
S'2605.07572946'
p301
sba(igraph
Edge
p302
(dp303
g7
I1
sg8
I00
sg9
I5
sg10
(lp304
g298
a(igraph
Vertex
p305
(dp306
g14
F0.0
sg15
F-23.684210526315738
sg16
I363967
sg8
I00
sg17
S'2605.02169941'
p307
sg19
g20
sbasg24
I00
sg25
I00
sg26
I363820
sg17
S'2605.07654381'
p308
sba(igraph
Edge
p309
(dp310
g7
I1
sg8
I00
sg9
I5
sg10
(lp311
g305
a(igraph
Vertex
p312
(dp313
g14
F0.0
sg15
F-7.8947368421052033
sg16
I363968
sg8
I00
sg17
S'2605.02217461'
p314
sg19
g20
sbasg24
I00
sg25
I00
sg26
I363821
sg17
S'2605.07737352'
p315
sba(igraph
Edge
p316
(dp317
g7
I1
sg8
I00
sg9
I5
sg10
(lp318
g312
a(igraph
Vertex
p319
(dp320
g14
F0.0
sg15
F7.894736842105317
sg16
I363969
sg8
I00
sg17
S'2605.02260623'
p321
sg19
g20
sbasg24
I00
sg25
I00
sg26
I363822
sg17
S'2605.07820324'
p322
sba(igraph
Edge
p323
(dp324
g7
I1
sg8
I00
sg9
I5
sg10
(lp325
g319
a(igraph
Vertex
p326
(dp327
g14
F0.0
sg15
F23.684210526315866
sg16
I363970
sg8
I00
sg17
S'2605.0230412'
p328
sg19
g20
sbasg24
I00
sg25
I00
sg26
I363823
sg17
S'2605.0790377'
p329
sba(igraph
Edge
p330
(dp331
g7
I1
sg8
I00
sg9
I5
sg10
(lp332
g326
a(igraph
Vertex
p333
(dp334
g14
F0.0
sg15
F39.473684210526358
sg16
I363971
sg8
I00
sg17
S'2605.02348315'
p335
sg19
g20
sbasg24
I00
sg25
I00
sg26
I363824
sg17
S'2605.07983082'
p336
sba(igraph
Edge
p337
(dp338
g7
I1
sg8
I00
sg9
I5
sg10
(lp339
g333
a(igraph
Vertex
p340
(dp341
g14
F0.0
sg15
F55.263157894736878
sg16
I363972
sg8
I00
sg17
S'2605.0239902'
p342
sg19
g20
sbasg24
I00
sg25
I00
sg26
I363825
sg17
S'2605.08072283'
p343
sba(igraph
Edge
p344
(dp345
g7
I1
sg8
I00
sg9
I5
sg10
(lp346
g340
a(igraph
Vertex
p347
(dp348
g14
F0.0
sg15
F71.05263157894737
sg16
I363973
sg8
I00
sg17
S'2605.02445786'
p349
sg19
g20
sbasg24
I00
sg25
I00
sg26
I363826
sg17
S'2605.08163943'
p350
sba(igraph
Edge
p351
(dp352
g7
I1
sg8
I00
sg9
I5
sg10
(lp353
g347
a(igraph
Vertex
p354
(dp355
g14
F0.0
sg15
F86.84210526315789
sg16
I363974
sg8
I00
sg17
S'2605.02495569'
p356
sg19
g20
sbasg24
I00
sg25
I00
sg26
I363827
sg17
S'2605.08253647'
p357
sba(igraph
Edge
p358
(dp359
g7
I1
sg8
I00
sg9
I5
sg10
(lp360
g354
a(igraph
Vertex
p361
(dp362
g14
F0.0
sg15
F102.63157894736841
sg16
I363975
sg8
I00
sg17
S'2605.02543452'
p363
sg19
g20
sbasg24
I00
sg25
I00
sg26
I363828
sg17
S'2605.08336702'
p364
sba(igraph
Edge
p365
(dp366
g7
I1
sg8
I00
sg9
I5
sg10
(lp367
g361
a(igraph
Vertex
p368
(dp369
g14
F0.0
sg15
F118.4210526315789
sg16
I363976
sg8
I00
sg17
S'2605.02594352'
p370
sg19
g20
sbasg24
I00
sg25
I00
sg26
I363829
sg17
S'2605.08420819'
p371
sba(igraph
Edge
p372
(dp373
g7
I1
sg8
I00
sg9
I5
sg10
(lp374
g368
a(igraph
Vertex
p375
(dp376
g131
F0.16732128829536452
sg8
I01
sg19
I0
sg14
F0.0
sg15
F134.21052631578942
sg16
I363978
sg17
S'2605.02644386'
p377
sg133
F0.29705882352941176
sbasg24
I00
sg25
I00
sg26
I363830
sg17
S'2605.08506444'
p378
sba(igraph
Edge
p379
(dp380
g7
I1
sg8
I00
sg9
I5
sg10
(lp381
g375
a(igraph
Vertex
p382
(dp383
g131
F0.40298507462686484
sg8
I00
sg19
g20
sg14
F0.0
sg15
F149.99999999999994
sg16
I363980
sg17
S'2605.02695007'
p384
sg133
F0.29705882352941176
sbasg24
I00
sg25
I00
sg26
I363831
sg17
S'2605.0859436'
p385
sba(igraph
Edge
p386
(dp387
g7
I1
sg8
I00
sg9
I5
sg10
(lp388
(igraph
Vertex
p389
(dp390
g14
F33.0
sg15
F-118.42105263157889
sg16
I363982
sg8
I01
sg17
S'2605.0285134'
p391
sg19
I0
sba(igraph
Vertex
p392
(dp393
g14
F33.0
sg15
F-102.63157894736837
sg16
I363984
sg8
I00
sg17
S'2605.02907437'
p394
sg19
g20
sbasg24
I00
sg25
I00
sg26
I363832
sg17
S'2605.08970609'
p395
sba(igraph
Edge
p396
(dp397
g7
I1
sg8
I00
sg9
I5
sg10
(lp398
g392
a(igraph
Vertex
p399
(dp400
g14
F33.0
sg15
F-86.842105263157833
sg16
I363986
sg8
I01
sg17
S'2605.02963114'
p401
sg19
I0
sbasg24
I00
sg25
I00
sg26
I363833
sg17
S'2605.09064504'
p402
sba(igraph
Edge
p403
(dp404
g7
I1
sg8
I00
sg9
I5
sg10
(lp405
g399
a(igraph
Vertex
p406
(dp407
g14
F33.0
sg15
F-71.052631578947313
sg16
I363988
sg8
I00
sg17
S'2605.03021948'
p408
sg19
g20
sbasg24
I00
sg25
I00
sg26
I363834
sg17
S'2605.09160075'
p409
sba(igraph
Edge
p410
(dp411
g7
I1
sg8
I00
sg9
I5
sg10
(lp412
g406
a(igraph
Vertex
p413
(dp414
g14
F33.0
sg15
F-55.263157894736793
sg16
I363990
sg8
I01
sg17
S'2605.03083716'
p415
sg19
I0
sbasg24
I00
sg25
I00
sg26
I363835
sg17
S'2605.09257545'
p416
sba(igraph
Edge
p417
(dp418
g7
I1
sg8
I00
sg9
I5
sg10
(lp419
g413
a(igraph
Vertex
p420
(dp421
g14
F33.0
sg15
F-39.473684210526258
sg16
I363992
sg8
I00
sg17
S'2605.03142411'
p422
sg19
g20
sbasg24
I00
sg25
I00
sg26
I363836
sg17
S'2605.09356301'
p423
sba(igraph
Edge
p424
(dp425
g7
I1
sg8
I00
sg9
I5
sg10
(lp426
g420
a(igraph
Vertex
p427
(dp428
g14
F33.0
sg15
F-23.684210526315738
sg16
I363994
sg8
I01
sg17
S'2605.03202334'
p429
sg19
I0
sbasg24
I00
sg25
I00
sg26
I363837
sg17
S'2605.09456761'
p430
sba(igraph
Edge
p431
(dp432
g7
I1
sg8
I00
sg9
I5
sg10
(lp433
g427
a(igraph
Vertex
p434
(dp435
g14
F33.0
sg15
F-7.8947368421052033
sg16
I363996
sg8
I00
sg17
S'2605.03268153'
p436
sg19
g20
sbasg24
I00
sg25
I00
sg26
I363838
sg17
S'2605.09558058'
p437
sba(igraph
Edge
p438
(dp439
g7
I1
sg8
I00
sg9
I5
sg10
(lp440
g434
a(igraph
Vertex
p441
(dp442
g14
F33.0
sg15
F7.894736842105317
sg16
I363998
sg8
I01
sg17
S'2605.03338134'
p443
sg19
I0
sbasg24
I00
sg25
I00
sg26
I363839
sg17
S'2605.096593'
p444
sba(igraph
Edge
p445
(dp446
g7
I1
sg8
I00
sg9
I5
sg10
(lp447
g441
a(igraph
Vertex
p448
(dp449
g14
F33.0
sg15
F23.684210526315866
sg16
I364000
sg8
I00
sg17
S'2605.03399203'
p450
sg19
g20
sbasg24
I00
sg25
I00
sg26
I363840
sg17
S'2605.09763727'
p451
sba(igraph
Edge
p452
(dp453
g7
I1
sg8
I00
sg9
I5
sg10
(lp454
g448
a(igraph
Vertex
p455
(dp456
g14
F33.0
sg15
F39.473684210526358
sg16
I364002
sg8
I01
sg17
S'2605.03463094'
p457
sg19
I0
sbasg24
I00
sg25
I00
sg26
I363841
sg17
S'2605.09869271'
p458
sba(igraph
Edge
p459
(dp460
g7
I1
sg8
I00
sg9
I5
sg10
(lp461
g455
a(igraph
Vertex
p462
(dp463
g14
F33.0
sg15
F55.263157894736878
sg16
I364004
sg8
I00
sg17
S'2605.03525839'
p464
sg19
g20
sbasg24
I00
sg25
I00
sg26
I363842
sg17
S'2605.09982554'
p465
sba(igraph
Edge
p466
(dp467
g7
I1
sg8
I00
sg9
I5
sg10
(lp468
g462
a(igraph
Vertex
p469
(dp470
g14
F34.0
sg15
F71.0
sg16
I364006
sg8
I01
sg17
S'2605.03594144'
p471
sg19
I0
sbasg24
I00
sg25
I00
sg26
I363843
sg17
S'2605.10104999'
p472
sba(igraph
Edge
p473
(dp474
g7
I1
sg8
I00
sg9
I5
sg10
(lp475
g469
a(igraph
Vertex
p476
(dp477
g14
F33.0
sg15
F86.84210526315789
sg16
I364008
sg8
I00
sg17
S'2605.03659348'
p478
sg19
g20
sbasg24
I00
sg25
I00
sg26
I363844
sg17
S'2605.10216103'
p479
sba(igraph
Edge
p480
(dp481
g7
I1
sg8
I00
sg9
I5
sg10
(lp482
g476
a(igraph
Vertex
p483
(dp484
g14
F33.0
sg15
F102.63157894736841
sg16
I364010
sg8
I01
sg17
S'2605.03725166'
p485
sg19
I0
sbasg24
I00
sg25
I00
sg26
I363845
sg17
S'2605.10328575'
p486
sba(igraph
Edge
p487
(dp488
g7
I1
sg8
I00
sg9
I5
sg10
(lp489
g483
a(igraph
Vertex
p490
(dp491
g14
F33.0
sg15
F118.4210526315789
sg16
I364012
sg8
I00
sg17
S'2605.03794533'
p492
sg19
g20
sbasg24
I00
sg25
I00
sg26
I363846
sg17
S'2605.10448702'
p493
sba(igraph
Edge
p494
(dp495
g7
I1
sg8
I00
sg9
I5
sg10
(lp496
g490
a(igraph
Vertex
p497
(dp498
g131
F0.16732128829536452
sg8
I00
sg19
g20
sg14
F33.0
sg15
F134.21052631578942
sg16
I364013
sg17
S'2605.03862698'
p499
sg133
F0.39411764705882352
sbasg24
I00
sg25
I00
sg26
I363847
sg17
S'2605.1056584'
p500
sba(igraph
Edge
p501
(dp502
g7
I1
sg8
I00
sg9
I5
sg10
(lp503
g497
a(igraph
Vertex
p504
(dp505
g131
F0.40298507462686484
sg8
I00
sg19
g20
sg14
F33.0
sg15
F149.99999999999994
sg16
I364014
sg17
S'2605.03930164'
p506
sg133
F0.39411764705882352
sbasg24
I00
sg25
I00
sg26
I363848
sg17
S'2605.10686051'
p507
sba(igraph
Edge
p508
(dp509
g7
I1
sg8
I00
sg9
I5
sg10
(lp510
(igraph
Vertex
p511
(dp512
g14
F66.0
sg15
F-118.42105263157889
sg16
I364015
sg8
I00
sg17
S'2605.0415226'
p513
sg19
g20
sba(igraph
Vertex
p514
(dp515
g14
F66.0
sg15
F-102.63157894736837
sg16
I364016
sg8
I00
sg17
S'2605.04224839'
p516
sg19
g20
sbasg24
I00
sg25
I00
sg26
I363849
sg17
S'2605.11165944'
p517
sba(igraph
Edge
p518
(dp519
g7
I1
sg8
I00
sg9
I5
sg10
(lp520
g514
a(igraph
Vertex
p521
(dp522
g14
F66.0
sg15
F-86.842105263157833
sg16
I364017
sg8
I00
sg17
S'2605.04298144'
p523
sg19
g20
sbasg24
I00
sg25
I00
sg26
I363850
sg17
S'2605.11287161'
p524
sba(igraph
Edge
p525
(dp526
g7
I1
sg8
I00
sg9
I5
sg10
(lp527
g521
a(igraph
Vertex
p528
(dp529
g14
F66.0
sg15
F-71.052631578947313
sg16
I364018
sg8
I00
sg17
S'2605.04379495'
p530
sg19
g20
sbasg24
I00
sg25
I00
sg26
I363851
sg17
S'2605.11411227'
p531
sba(igraph
Edge
p532
(dp533
g7
I1
sg8
I00
sg9
I5
sg10
(lp534
g528
a(igraph
Vertex
p535
(dp536
g14
F66.0
sg15
F-55.263157894736793
sg16
I364019
sg8
I00
sg17
S'2605.04456516'
p537
sg19
g20
sbasg24
I00
sg25
I00
sg26
I363852
sg17
S'2605.11536131'
p538
sba(igraph
Edge
p539
(dp540
g7
I1
sg8
I00
sg9
I5
sg10
(lp541
g535
a(igraph
Vertex
p542
(dp543
g14
F66.0
sg15
F-39.473684210526258
sg16
I364020
sg8
I00
sg17
S'2605.04539543'
p544
sg19
g20
sbasg24
I00
sg25
I00
sg26
I363853
sg17
S'2605.11683608'
p545
sba(igraph
Edge
p546
(dp547
g7
I1
sg8
I00
sg9
I5
sg10
(lp548
g542
a(igraph
Vertex
p549
(dp550
g14
F66.0
sg15
F-23.684210526315738
sg16
I364021
sg8
I00
sg17
S'2605.04616928'
p551
sg19
g20
sbasg24
I00
sg25
I00
sg26
I363854
sg17
S'2605.11816725'
p552
sba(igraph
Edge
p553
(dp554
g7
I1
sg8
I00
sg9
I5
sg10
(lp555
g549
a(igraph
Vertex
p556
(dp557
g14
F66.0
sg15
F-7.8947368421052033
sg16
I364022
sg8
I00
sg17
S'2605.04696156'
p558
sg19
g20
sbasg24
I00
sg25
I00
sg26
I363855
sg17
S'2605.11965208'
p559
sba(igraph
Edge
p560
(dp561
g7
I1
sg8
I00
sg9
I5
sg10
(lp562
g556
a(igraph
Vertex
p563
(dp564
g14
F66.0
sg15
F7.894736842105317
sg16
I364023
sg8
I00
sg17
S'2605.04775439'
p565
sg19
g20
sbasg24
I00
sg25
I00
sg26
I363856
sg17
S'2605.12096789'
p566
sba(igraph
Edge
p567
(dp568
g7
I1
sg8
I00
sg9
I5
sg10
(lp569
g563
a(igraph
Vertex
p570
(dp571
g14
F66.0
sg15
F23.684210526315866
sg16
I364024
sg8
I00
sg17
S'2605.04856288'
p572
sg19
g20
sbasg24
I00
sg25
I00
sg26
I363857
sg17
S'2605.12230996'
p573
sba(igraph
Edge
p574
(dp575
g7
I1
sg8
I00
sg9
I5
sg10
(lp576
g570
a(igraph
Vertex
p577
(dp578
g14
F66.0
sg15
F39.473684210526358
sg16
I364025
sg8
I00
sg17
S'2605.04946439'
p579
sg19
g20
sbasg24
I00
sg25
I00
sg26
I363858
sg17
S'2605.12365091'
p580
sba(igraph
Edge
p581
(dp582
g7
I1
sg8
I00
sg9
I5
sg10
(lp583
g577
a(igraph
Vertex
p584
(dp585
g14
F66.0
sg15
F55.263157894736878
sg16
I364026
sg8
I00
sg17
S'2605.05034355'
p586
sg19
g20
sbasg24
I00
sg25
I00
sg26
I363859
sg17
S'2605.12500918'
p587
sba(igraph
Edge
p588
(dp589
g7
I1
sg8
I00
sg9
I5
sg10
(lp590
g584
a(igraph
Vertex
p591
(dp592
g14
F66.0
sg15
F71.05263157894737
sg16
I364027
sg8
I00
sg17
S'2605.05117913'
p593
sg19
g20
sbasg24
I00
sg25
I00
sg26
I363860
sg17
S'2605.12636494'
p594
sba(igraph
Edge
p595
(dp596
g7
I1
sg8
I00
sg9
I5
sg10
(lp597
g591
a(igraph
Vertex
p598
(dp599
g14
F66.0
sg15
F86.84210526315789
sg16
I364028
sg8
I00
sg17
S'2605.05200661'
p600
sg19
g20
sbasg24
I00
sg25
I00
sg26
I363861
sg17
S'2605.1278182'
p601
sba(igraph
Edge
p602
(dp603
g7
I1
sg8
I00
sg9
I5
sg10
(lp604
g598
a(igraph
Vertex
p605
(dp606
g14
F66.0
sg15
F102.63157894736841
sg16
I364029
sg8
I00
sg17
S'2605.05294472'
p607
sg19
g20
sbasg24
I00
sg25
I00
sg26
I363862
sg17
S'2605.12924659'
p608
sba(igraph
Edge
p609
(dp610
g7
I1
sg8
I00
sg9
I5
sg10
(lp611
g605
a(igraph
Vertex
p612
(dp613
g14
F66.0
sg15
F118.4210526315789
sg16
I364030
sg8
I00
sg17
S'2605.05384148'
p614
sg19
g20
sbasg24
I00
sg25
I00
sg26
I363863
sg17
S'2605.13073477'
p615
sba(igraph
Edge
p616
(dp617
g7
I1
sg8
I00
sg9
I5
sg10
(lp618
g612
a(igraph
Vertex
p619
(dp620
g131
F0.16732128829536452
sg8
I01
sg19
I0
sg14
F66.0
sg15
F134.21052631578942
sg16
I364032
sg17
S'2605.05471058'
p621
sg133
F0.49117647058823527
sbasg24
I00
sg25
I00
sg26
I363864
sg17
S'2605.13218552'
p622
sba(igraph
Edge
p623
(dp624
g7
I1
sg8
I00
sg9
I5
sg10
(lp625
g619
a(igraph
Vertex
p626
(dp627
g131
F0.40298507462686484
sg8
I00
sg19
g20
sg14
F66.0
sg15
F149.99999999999994
sg16
I364034
sg17
S'2605.05560371'
p628
sg133
F0.49117647058823527
sbasg24
I00
sg25
I00
sg26
I363865
sg17
S'2605.13369185'
p629
sba(igraph
Edge
p630
(dp631
g7
I1
sg8
I00
sg9
I5
sg10
(lp632
g12
ag148
asg24
I00
sg25
I00
sg26
I363866
sg17
S'2605.13822539'
p633
sba(igraph
Edge
p634
(dp635
g7
I1
sg8
I00
sg9
I5
sg10
(lp636
g31
ag162
asg24
I00
sg25
I00
sg26
I363867
sg17
S'2605.13972083'
p637
sba(igraph
Edge
p638
(dp639
g7
I1
sg8
I00
sg9
I5
sg10
(lp640
g45
ag176
asg24
I00
sg25
I00
sg26
I363868
sg17
S'2605.14123192'
p641
sba(igraph
Edge
p642
(dp643
g7
I1
sg8
I00
sg9
I5
sg10
(lp644
g59
ag190
asg24
I00
sg25
I00
sg26
I363869
sg17
S'2605.14276591'
p645
sba(igraph
Edge
p646
(dp647
g7
I1
sg8
I00
sg9
I5
sg10
(lp648
g73
ag204
asg24
I00
sg25
I00
sg26
I363870
sg17
S'2605.14431248'
p649
sba(igraph
Edge
p650
(dp651
g7
I1
sg8
I00
sg9
I5
sg10
(lp652
g87
ag218
asg24
I00
sg25
I00
sg26
I363871
sg17
S'2605.14586463'
p653
sba(igraph
Edge
p654
(dp655
g7
I1
sg8
I00
sg9
I5
sg10
(lp656
g101
ag232
asg24
I00
sg25
I00
sg26
I363872
sg17
S'2605.1474246'
p657
sba(igraph
Edge
p658
(dp659
g7
I1
sg8
I00
sg9
I5
sg10
(lp660
g115
ag246
asg24
I00
sg25
I00
sg26
I363873
sg17
S'2605.14900553'
p661
sba(igraph
Edge
p662
(dp663
g7
I1
sg8
I00
sg9
I5
sg10
(lp664
g129
ag260
asg24
I00
sg25
I00
sg26
I363874
sg17
S'2605.15059651'
p665
sba(igraph
Edge
p666
(dp667
g7
I1
sg8
I00
sg9
I5
sg10
(lp668
g145
ag270
asg24
I00
sg25
I00
sg26
I363875
sg17
S'2605.15382123'
p669
sba(igraph
Edge
p670
(dp671
g7
I1
sg8
I00
sg9
I5
sg10
(lp672
g155
ag284
asg24
I00
sg25
I00
sg26
I363876
sg17
S'2605.15544126'
p673
sba(igraph
Edge
p674
(dp675
g7
I1
sg8
I00
sg9
I5
sg10
(lp676
g169
ag298
asg24
I00
sg25
I00
sg26
I363877
sg17
S'2605.15708281'
p677
sba(igraph
Edge
p678
(dp679
g7
I1
sg8
I00
sg9
I5
sg10
(lp680
g183
ag312
asg24
I00
sg25
I00
sg26
I363878
sg17
S'2605.1587537'
p681
sba(igraph
Edge
p682
(dp683
g7
I1
sg8
I00
sg9
I5
sg10
(lp684
g197
ag326
asg24
I00
sg25
I00
sg26
I363879
sg17
S'2605.16042542'
p685
sba(igraph
Edge
p686
(dp687
g7
I1
sg8
I00
sg9
I5
sg10
(lp688
g211
ag340
asg24
I00
sg25
I00
sg26
I363880
sg17
S'2605.16279555'
p689
sba(igraph
Edge
p690
(dp691
g7
I1
sg8
I00
sg9
I5
sg10
(lp692
g225
ag354
asg24
I00
sg25
I00
sg26
I363881
sg17
S'2605.16460165'
p693
sba(igraph
Edge
p694
(dp695
g7
I1
sg8
I00
sg9
I5
sg10
(lp696
g239
ag368
asg24
I00
sg25
I00
sg26
I363882
sg17
S'2605.16642841'
p697
sba(igraph
Edge
p698
(dp699
g7
I1
sg8
I00
sg9
I5
sg10
(lp700
g253
ag382
asg24
I00
sg25
I00
sg26
I363883
sg17
S'2605.16821356'
p701
sba(igraph
Edge
p702
(dp703
g7
I1
sg8
I00
sg9
I5
sg10
(lp704
g267
ag392
asg24
I00
sg25
I00
sg26
I363884
sg17
S'2605.17183301'
p705
sba(igraph
Edge
p706
(dp707
g7
I1
sg8
I00
sg9
I5
sg10
(lp708
g277
ag406
asg24
I00
sg25
I00
sg26
I363885
sg17
S'2605.17365699'
p709
sba(igraph
Edge
p710
(dp711
g7
I1
sg8
I00
sg9
I5
sg10
(lp712
g291
ag420
asg24
I00
sg25
I00
sg26
I363886
sg17
S'2605.17552091'
p713
sba(igraph
Edge
p714
(dp715
g7
I1
sg8
I00
sg9
I5
sg10
(lp716
g305
ag434
asg24
I00
sg25
I00
sg26
I363887
sg17
S'2605.17735774'
p717
sba(igraph
Edge
p718
(dp719
g7
I1
sg8
I00
sg9
I5
sg10
(lp720
g319
ag448
asg24
I00
sg25
I00
sg26
I363888
sg17
S'2605.17919903'
p721
sba(igraph
Edge
p722
(dp723
g7
I1
sg8
I00
sg9
I5
sg10
(lp724
g333
ag462
asg24
I00
sg25
I00
sg26
I363889
sg17
S'2605.18105765'
p725
sba(igraph
Edge
p726
(dp727
g7
I1
sg8
I00
sg9
I5
sg10
(lp728
g347
ag476
asg24
I00
sg25
I00
sg26
I363890
sg17
S'2605.1829009'
p729
sba(igraph
Edge
p730
(dp731
g7
I1
sg8
I00
sg9
I5
sg10
(lp732
g361
ag490
asg24
I00
sg25
I00
sg26
I363891
sg17
S'2605.18480505'
p733
sba(igraph
Edge
p734
(dp735
g7
I1
sg8
I00
sg9
I5
sg10
(lp736
g375
ag504
asg24
I00
sg25
I00
sg26
I363892
sg17
S'2605.18671256'
p737
sba(igraph
Edge
p738
(dp739
g7
I1
sg8
I00
sg9
I5
sg10
(lp740
g389
ag514
asg24
I00
sg25
I00
sg26
I363893
sg17
S'2605.19062451'
p741
sba(igraph
Edge
p742
(dp743
g7
I1
sg8
I00
sg9
I5
sg10
(lp744
g399
ag528
asg24
I00
sg25
I00
sg26
I363894
sg17
S'2605.19266331'
p745
sba(igraph
Edge
p746
(dp747
g7
I1
sg8
I00
sg9
I5
sg10
(lp748
g413
ag542
asg24
I00
sg25
I00
sg26
I363895
sg17
S'2605.19465854'
p749
sba(igraph
Edge
p750
(dp751
g7
I1
sg8
I00
sg9
I5
sg10
(lp752
g427
ag556
asg24
I00
sg25
I00
sg26
I363896
sg17
S'2605.19664874'
p753
sba(igraph
Edge
p754
(dp755
g7
I1
sg8
I00
sg9
I5
sg10
(lp756
g441
ag570
asg24
I00
sg25
I00
sg26
I363897
sg17
S'2605.19870822'
p757
sba(igraph
Edge
p758
(dp759
g7
I1
sg8
I00
sg9
I5
sg10
(lp760
g455
ag584
asg24
I00
sg25
I00
sg26
I363898
sg17
S'2605.20073473'
p761
sba(igraph
Edge
p762
(dp763
g7
I1
sg8
I00
sg9
I5
sg10
(lp764
g469
ag598
asg24
I00
sg25
I00
sg26
I363899
sg17
S'2605.20281013'
p765
sba(igraph
Edge
p766
(dp767
g7
I1
sg8
I00
sg9
I5
sg10
(lp768
g483
ag612
asg24
I00
sg25
I00
sg26
I363900
sg17
S'2605.20489057'
p769
sba(igraph
Edge
p770
(dp771
g7
I1
sg8
I00
sg9
I5
sg10
(lp772
g497
ag626
asg24
I00
sg25
I00
sg26
I363901
sg17
S'2605.20700676'
p773
sba(igraph
Edge
p774
(dp775
g7
I1
sg8
I00
sg9
I5
sg10
(lp776
g511
ag626
asg24
I00
sg25
I00
sg26
I363902
sg17
S'2916.42033974'
p777
sba(igraph
Edge
p778
(dp779
g7
I1
sg8
I00
sg9
I5
sg10
(lp780
g389
ag504
asg24
I00
sg25
I00
sg26
I363903
sg17
S'2919.90282452'
p781
sba(igraph
Edge
p782
(dp783
g7
I1
sg8
I00
sg9
I5
sg10
(lp784
g267
ag382
asg24
I00
sg25
I00
sg26
I363904
sg17
S'2923.34992408'
p785
sba(igraph
Edge
p786
(dp787
g7
I1
sg8
I00
sg9
I5
sg10
(lp788
g145
ag260
asg24
I00
sg25
I00
sg26
I363905
sg17
S'2927.40052549'
p789
sba(igraph
Edge
p790
(dp791
g7
I1
sg8
I00
sg9
I5
sg10
(lp792
g12
ag138
asg24
I00
sg25
I00
sg26
I363906
sg17
S'2931.55130917'
p793
sbasS'vertices'
p794
(lp795
g12
ag21
ag31
ag38
ag45
ag52
ag59
ag66
ag73
ag80
ag87
ag94
ag101
ag108
ag115
ag122
ag129
ag138
ag145
ag148
ag155
ag162
ag169
ag176
ag183
ag190
ag197
ag204
ag211
ag218
ag225
ag232
ag239
ag246
ag253
ag260
ag267
ag270
ag277
ag284
ag291
ag298
ag305
ag312
ag319
ag326
ag333
ag340
ag347
ag354
ag361
ag368
ag375
ag382
ag389
ag392
ag399
ag406
ag413
ag420
ag427
ag434
ag441
ag448
ag455
ag462
ag469
ag476
ag483
ag490
ag497
ag504
ag511
ag514
ag521
ag528
ag535
ag542
ag549
ag556
ag563
ag570
ag577
ag584
ag591
ag598
ag605
ag612
ag619
ag626
asS'tags'
p796
(lp797
sb.