(igraph
Graph
p0
(dp1
S'labelingConstraints'
p2
I-1
sS'edges'
p3
(lp4
(igraph
Edge
p5
(dp6
S'direction'
p7
I1
sS'selected'
p8
I00
sS'height'
p9
I5
sS'vs'
p10
(lp11
(igraph
Vertex
p12
(dp13
S'xnorm'
p14
F0.0
sg8
I01
sS'label'
p15
I0
sS'y'
p16
F-37.0
sS'x'
p17
F-235.0
sS'circle'
p18
I213657
sS'id'
p19
S'2059.69925368'
p20
sS'ynorm'
p21
F0.0
sba(igraph
Vertex
p22
(dp23
g14
F0.052631578947368418
sg8
I00
sg15
S'NULL'
p24
sg16
F-37.0
sg17
F-214.73684210526315
sg18
I213659
sg19
S'2059.69929167'
p25
sg21
F0.0
sbasS'wrap'
p26
I00
sS'curved'
p27
I00
sS'line'
p28
I213626
sg19
S'2059.7127498'
p29
sba(igraph
Edge
p30
(dp31
g7
I1
sg8
I00
sg9
I5
sg10
(lp32
g22
a(igraph
Vertex
p33
(dp34
g14
F0.10526315789473689
sg8
I00
sg15
g24
sg16
F-37.0
sg17
F-194.4736842105263
sg18
I213660
sg19
S'2059.69933553'
p35
sg21
F0.0
sbasg26
I00
sg27
I00
sg28
I213627
sg19
S'2059.71284674'
p36
sba(igraph
Edge
p37
(dp38
g7
I1
sg8
I00
sg9
I5
sg10
(lp39
g33
a(igraph
Vertex
p40
(dp41
g14
F0.15789473684210531
sg8
I00
sg15
g24
sg16
F-37.0
sg17
F-174.21052631578948
sg18
I213661
sg19
S'2059.69939001'
p42
sg21
F0.0
sbasg26
I00
sg27
I00
sg28
I213628
sg19
S'2059.7129705'
p43
sba(igraph
Edge
p44
(dp45
g7
I1
sg8
I00
sg9
I5
sg10
(lp46
g40
a(igraph
Vertex
p47
(dp48
g14
F0.21052631578947378
sg8
I01
sg15
I0
sg16
F-37.0
sg17
F-153.9473684210526
sg18
I213663
sg19
S'2059.69945789'
p49
sg21
F0.0
sbasg26
I00
sg27
I00
sg28
I213629
sg19
S'2059.71312248'
p50
sba(igraph
Edge
p51
(dp52
g7
I1
sg8
I00
sg9
I5
sg10
(lp53
g47
a(igraph
Vertex
p54
(dp55
g14
F0.2631578947368422
sg8
I00
sg15
g24
sg16
F-37.0
sg17
F-133.68421052631578
sg18
I213665
sg19
S'2059.69954086'
p56
sg21
F0.0
sbasg26
I00
sg27
I00
sg28
I213630
sg19
S'2059.7133063'
p57
sba(igraph
Edge
p58
(dp59
g7
I1
sg8
I00
sg9
I5
sg10
(lp60
g54
a(igraph
Vertex
p61
(dp62
g14
F0.31578947368421062
sg8
I00
sg15
g24
sg16
F-37.0
sg17
F-113.42105263157893
sg18
I213666
sg19
S'2059.69963864'
p63
sg21
F0.0
sbasg26
I00
sg27
I00
sg28
I213631
sg19
S'2059.71352365'
p64
sba(igraph
Edge
p65
(dp66
g7
I1
sg8
I00
sg9
I5
sg10
(lp67
g61
a(igraph
Vertex
p68
(dp69
g14
F0.36842105263157909
sg8
I00
sg15
g24
sg16
F-37.0
sg17
F-93.157894736842081
sg18
I213667
sg19
S'2059.69975262'
p70
sg21
F0.0
sbasg26
I00
sg27
I00
sg28
I213632
sg19
S'2059.71376837'
p71
sba(igraph
Edge
p72
(dp73
g7
I1
sg8
I00
sg9
I5
sg10
(lp74
g68
a(igraph
Vertex
p75
(dp76
g14
F0.42105263157894751
sg8
I01
sg15
I0
sg16
F-37.0
sg17
F-72.894736842105232
sg18
I213669
sg19
S'2059.69987973'
p77
sg21
F0.0
sbasg26
I00
sg27
I00
sg28
I213633
sg19
S'2059.7140455'
p78
sba(igraph
Edge
p79
(dp80
g7
I1
sg8
I00
sg9
I5
sg10
(lp81
g75
a(igraph
Vertex
p82
(dp83
g14
F0.47368421052631599
sg8
I00
sg15
g24
sg16
F-37.0
sg17
F-52.631578947368382
sg18
I213671
sg19
S'2059.70002193'
p84
sg21
F0.0
sbasg26
I00
sg27
I00
sg28
I213634
sg19
S'2059.71435476'
p85
sba(igraph
Edge
p86
(dp87
g7
I1
sg8
I00
sg9
I5
sg10
(lp88
g82
a(igraph
Vertex
p89
(dp90
g14
F0.5263157894736844
sg8
I00
sg15
g24
sg16
F-37.0
sg17
F-32.368421052631533
sg18
I213672
sg19
S'2059.70018089'
p91
sg21
F0.0
sbasg26
I00
sg27
I00
sg28
I213635
sg19
S'2059.71469894'
p92
sba(igraph
Edge
p93
(dp94
g7
I1
sg8
I00
sg9
I5
sg10
(lp95
g89
a(igraph
Vertex
p96
(dp97
g14
F0.57894736842105288
sg8
I00
sg15
g24
sg16
F-37.0
sg17
F-12.105263157894683
sg18
I213673
sg19
S'2059.70035633'
p98
sg21
F0.0
sbasg26
I00
sg27
I00
sg28
I213636
sg19
S'2059.7150772'
p99
sba(igraph
Edge
p100
(dp101
g7
I1
sg8
I00
sg9
I5
sg10
(lp102
g96
a(igraph
Vertex
p103
(dp104
g14
F0.63157894736842124
sg8
I01
sg15
I0
sg16
F-37.0
sg17
F8.1578947368421382
sg18
I213675
sg19
S'2059.70054658'
p105
sg21
F0.0
sbasg26
I00
sg27
I00
sg28
I213637
sg19
S'2059.71558173'
p106
sba(igraph
Edge
p107
(dp108
g7
I1
sg8
I00
sg9
I5
sg10
(lp109
g103
a(igraph
Vertex
p110
(dp111
g14
F0.68421052631578971
sg8
I00
sg15
g24
sg16
F-37.0
sg17
F28.421052631579016
sg18
I213677
sg19
S'2059.70075722'
p112
sg21
F0.0
sbasg26
I00
sg27
I00
sg28
I213638
sg19
S'2059.71602732'
p113
sba(igraph
Edge
p114
(dp115
g7
I1
sg8
I00
sg9
I5
sg10
(lp116
g110
a(igraph
Vertex
p117
(dp118
g14
F0.73684210526315796
sg8
I00
sg15
g24
sg16
F-37.0
sg17
F48.68421052631578
sg18
I213678
sg19
S'2059.70098043'
p119
sg21
F0.0
sbasg26
I00
sg27
I00
sg28
I213639
sg19
S'2059.71649749'
p120
sba(igraph
Edge
p121
(dp122
g7
I1
sg8
I00
sg9
I5
sg10
(lp123
g117
a(igraph
Vertex
p124
(dp125
g14
F0.78947368421052644
sg8
I00
sg15
g24
sg16
F-37.0
sg17
F68.947368421052659
sg18
I213679
sg19
S'2059.70121789'
p126
sg21
F0.0
sbasg26
I00
sg27
I00
sg28
I213640
sg19
S'2059.7170023'
p127
sba(igraph
Edge
p128
(dp129
g7
I1
sg8
I00
sg9
I5
sg10
(lp130
g124
a(igraph
Vertex
p131
(dp132
g14
F0.8421052631578948
sg8
I01
sg15
I0
sg16
F-37.0
sg17
F89.210526315789423
sg18
I213681
sg19
S'2059.70147156'
p133
sg21
F0.0
sbasg26
I00
sg27
I00
sg28
I213641
sg19
S'2059.71753952'
p134
sba(igraph
Edge
p135
(dp136
g7
I1
sg8
I00
sg9
I5
sg10
(lp137
g131
a(igraph
Vertex
p138
(dp139
g14
F0.89473684210526316
sg8
I00
sg15
g24
sg16
F-37.0
sg17
F109.47368421052624
sg18
I213683
sg19
S'2059.70174422'
p140
sg21
F0.0
sbasg26
I00
sg27
I00
sg28
I213642
sg19
S'2059.71811166'
p141
sba(igraph
Edge
p142
(dp143
g7
I1
sg8
I00
sg9
I5
sg10
(lp144
g138
a(igraph
Vertex
p145
(dp146
g14
F0.94736842105263153
sg8
I00
sg15
g24
sg16
F-37.0
sg17
F129.73684210526307
sg18
I213684
sg19
S'2059.70216187'
p147
sg21
F0.0
sbasg26
I00
sg27
I00
sg28
I213643
sg19
S'2059.71875252'
p148
sba(igraph
Edge
p149
(dp150
g7
I1
sg8
I00
sg9
I5
sg10
(lp151
g145
a(igraph
Vertex
p152
(dp153
g14
F1.0
sg8
I00
sg15
g24
sg16
F-37.0
sg17
F149.99999999999994
sg18
I213685
sg19
S'2059.7024742'
p154
sg21
F0.0
sbasg26
I00
sg27
I00
sg28
I213644
sg19
S'2059.71944451'
p155
sba(igraph
Edge
p156
(dp157
g7
I1
sg8
I00
sg9
I5
sg10
(lp158
g152
ag12
asg26
I00
sg27
I00
sg28
I213645
sg19
S'2059.72011722'
p159
sba(igraph
Edge
p160
(dp161
g7
I1
sg8
I00
sg9
I5
sg10
(lp162
g12
a(igraph
Vertex
p163
(dp164
g14
F0.052631578947368418
sg8
I00
sg15
g24
sg16
F17.65625
sg17
F-214.73684210526315
sg18
I213686
sg19
S'2059.70314886'
p165
sg21
F1.03125
sbasg26
I00
sg27
I00
sg28
I213646
sg19
S'2059.74198341'
p166
sba(igraph
Edge
p167
(dp168
g7
I1
sg8
I00
sg9
I5
sg10
(lp169
g33
a(igraph
Vertex
p170
(dp171
g14
F0.15789473684210531
sg8
I00
sg15
g24
sg16
F17.65625
sg17
F-174.21052631578948
sg18
I213687
sg19
S'2059.70395958'
p172
sg21
F1.03125
sbasg26
I00
sg27
I00
sg28
I213647
sg19
S'2059.74335761'
p173
sba(igraph
Edge
p174
(dp175
g7
I1
sg8
I00
sg9
I5
sg10
(lp176
g47
a(igraph
Vertex
p177
(dp178
g14
F0.2631578947368422
sg8
I00
sg15
g24
sg16
F17.65625
sg17
F-133.68421052631578
sg18
I213688
sg19
S'2059.70474907'
p179
sg21
F1.03125
sbasg26
I00
sg27
I00
sg28
I213648
sg19
S'2059.74489914'
p180
sba(igraph
Edge
p181
(dp182
g7
I1
sg8
I00
sg9
I5
sg10
(lp183
g61
a(igraph
Vertex
p184
(dp185
g14
F0.36842105263157909
sg8
I00
sg15
g24
sg16
F17.65625
sg17
F-93.157894736842081
sg18
I213689
sg19
S'2059.70559303'
p186
sg21
F1.03125
sbasg26
I00
sg27
I00
sg28
I213649
sg19
S'2059.74643453'
p187
sba(igraph
Edge
p188
(dp189
g7
I1
sg8
I00
sg9
I5
sg10
(lp190
g75
a(igraph
Vertex
p191
(dp192
g14
F0.47368421052631599
sg8
I00
sg15
g24
sg16
F17.65625
sg17
F-52.631578947368382
sg18
I213690
sg19
S'2059.70651214'
p193
sg21
F1.03125
sbasg26
I00
sg27
I00
sg28
I213650
sg19
S'2059.74798194'
p194
sba(igraph
Edge
p195
(dp196
g7
I1
sg8
I00
sg9
I5
sg10
(lp197
g89
a(igraph
Vertex
p198
(dp199
g14
F0.57894736842105288
sg8
I00
sg15
g24
sg16
F17.65625
sg17
F-12.105263157894683
sg18
I213691
sg19
S'2059.70749187'
p200
sg21
F1.03125
sbasg26
I00
sg27
I00
sg28
I213651
sg19
S'2059.74960393'
p201
sba(igraph
Edge
p202
(dp203
g7
I1
sg8
I00
sg9
I5
sg10
(lp204
g103
a(igraph
Vertex
p205
(dp206
g14
F0.68421052631578971
sg8
I00
sg15
g24
sg16
F17.65625
sg17
F28.421052631579016
sg18
I213692
sg19
S'2059.70852636'
p207
sg21
F1.03125
sbasg26
I00
sg27
I00
sg28
I213652
sg19
S'2059.75119743'
p208
sba(igraph
Edge
p209
(dp210
g7
I1
sg8
I00
sg9
I5
sg10
(lp211
g117
a(igraph
Vertex
p212
(dp213
g14
F0.78947368421052644
sg8
I00
sg15
g24
sg16
F17.65625
sg17
F68.947368421052659
sg18
I213693
sg19
S'2059.70963041'
p214
sg21
F1.03125
sbasg26
I00
sg27
I00
sg28
I213653
sg19
S'2059.75304543'
p215
sba(igraph
Edge
p216
(dp217
g7
I1
sg8
I00
sg9
I5
sg10
(lp218
g131
a(igraph
Vertex
p219
(dp220
g14
F0.89473684210526316
sg8
I00
sg15
g24
sg16
F17.65625
sg17
F109.47368421052624
sg18
I213694
sg19
S'2059.71080207'
p221
sg21
F1.03125
sbasg26
I00
sg27
I00
sg28
I213654
sg19
S'2059.75481213'
p222
sba(igraph
Edge
p223
(dp224
g7
I1
sg8
I00
sg9
I5
sg10
(lp225
g145
a(igraph
Vertex
p226
(dp227
g14
F1.0
sg8
I00
sg15
g24
sg16
F17.65625
sg17
F149.99999999999994
sg18
I213695
sg19
S'2059.7120405'
p228
sg21
F1.03125
sbasg26
I00
sg27
I00
sg28
I213655
sg19
S'2059.75647184'
p229
sbasS'vertices'
p230
(lp231
g12
ag22
ag33
ag40
ag47
ag54
ag61
ag68
ag75
ag82
ag89
ag96
ag103
ag110
ag117
ag124
ag131
ag138
ag145
ag152
ag163
ag170
ag177
ag184
ag191
ag198
ag205
ag212
ag219
ag226
asS'tags'
p232
(lp233
sb.