(igraph
Graph
p0
(dp1
S'labelingConstraints'
p2
I-1
sS'edges'
p3
(lp4
(igraph
Edge
p5
(dp6
S'direction'
p7
I1
sS'selected'
p8
I00
sS'height'
p9
I5
sS'vs'
p10
(lp11
(igraph
Vertex
p12
(dp13
S'y'
p14
F-16.0
sS'x'
p15
F-149.99999999999994
sS'circle'
p16
I177009
sg8
I00
sS'id'
p17
S'1628.60675561'
p18
sS'label'
p19
S'NULL'
p20
sba(igraph
Vertex
p21
(dp22
g14
F-16.0
sg15
F-134.21052631578942
sg16
I177010
sg8
I00
sg17
S'1628.60677879'
p23
sg19
g20
sbasS'wrap'
p24
I00
sS'curved'
p25
I00
sS'line'
p26
I176959
sg17
S'1628.6142317'
p27
sba(igraph
Edge
p28
(dp29
g7
I1
sg8
I00
sg9
I5
sg10
(lp30
g21
a(igraph
Vertex
p31
(dp32
g14
F-16.0
sg15
F-118.42105263157889
sg16
I177011
sg8
I00
sg17
S'1628.60680282'
p33
sg19
g20
sbasg24
I00
sg25
I00
sg26
I176960
sg17
S'1628.61428059'
p34
sba(igraph
Edge
p35
(dp36
g7
I1
sg8
I00
sg9
I5
sg10
(lp37
g31
a(igraph
Vertex
p38
(dp39
g14
F-16.0
sg15
F-102.63157894736837
sg16
I177012
sg8
I00
sg17
S'1628.60683187'
p40
sg19
g20
sbasg24
I00
sg25
I00
sg26
I176961
sg17
S'1628.61434233'
p41
sba(igraph
Edge
p42
(dp43
g7
I1
sg8
I00
sg9
I5
sg10
(lp44
g38
a(igraph
Vertex
p45
(dp46
g14
F-16.0
sg15
F-86.842105263157833
sg16
I177013
sg8
I00
sg17
S'1628.60686959'
p47
sg19
g20
sbasg24
I00
sg25
I00
sg26
I176962
sg17
S'1628.61441943'
p48
sba(igraph
Edge
p49
(dp50
g7
I1
sg8
I00
sg9
I5
sg10
(lp51
g45
a(igraph
Vertex
p52
(dp53
g14
F-16.0
sg15
F-71.052631578947313
sg16
I177014
sg8
I00
sg17
S'1628.60700117'
p54
sg19
g20
sbasg24
I00
sg25
I00
sg26
I176963
sg17
S'1628.61451134'
p55
sba(igraph
Edge
p56
(dp57
g7
I1
sg8
I00
sg9
I5
sg10
(lp58
g52
a(igraph
Vertex
p59
(dp60
g14
F-16.0
sg15
F-55.263157894736793
sg16
I177015
sg8
I00
sg17
S'1628.60705592'
p61
sg19
g20
sbasg24
I00
sg25
I00
sg26
I176964
sg17
S'1628.61462029'
p62
sba(igraph
Edge
p63
(dp64
g7
I1
sg8
I00
sg9
I5
sg10
(lp65
g59
a(igraph
Vertex
p66
(dp67
g14
F-16.0
sg15
F-39.473684210526258
sg16
I177016
sg8
I00
sg17
S'1628.6071199'
p68
sg19
g20
sbasg24
I00
sg25
I00
sg26
I176965
sg17
S'1628.61491083'
p69
sba(igraph
Edge
p70
(dp71
g7
I1
sg8
I00
sg9
I5
sg10
(lp72
g66
a(igraph
Vertex
p73
(dp74
g14
F-16.0
sg15
F-23.684210526315738
sg16
I177017
sg8
I00
sg17
S'1628.60719198'
p75
sg19
g20
sbasg24
I00
sg25
I00
sg26
I176966
sg17
S'1628.61505415'
p76
sba(igraph
Edge
p77
(dp78
g7
I1
sg8
I00
sg9
I5
sg10
(lp79
g73
a(igraph
Vertex
p80
(dp81
g14
F-16.0
sg15
F-7.8947368421052033
sg16
I177018
sg8
I00
sg17
S'1628.60726936'
p82
sg19
g20
sbasg24
I00
sg25
I00
sg26
I176967
sg17
S'1628.61520947'
p83
sba(igraph
Edge
p84
(dp85
g7
I1
sg8
I00
sg9
I5
sg10
(lp86
g80
a(igraph
Vertex
p87
(dp88
g14
F-16.0
sg15
F7.894736842105317
sg16
I177020
sg8
I01
sg17
S'1628.60735764'
p89
sg19
I0
sbasg24
I00
sg25
I00
sg26
I176968
sg17
S'1628.61538073'
p90
sba(igraph
Edge
p91
(dp92
g7
I1
sg8
I00
sg9
I5
sg10
(lp93
g87
a(igraph
Vertex
p94
(dp95
g14
F-16.0
sg15
F23.684210526315866
sg16
I177022
sg8
I00
sg17
S'1628.6074529'
p96
sg19
g20
sbasg24
I00
sg25
I00
sg26
I176969
sg17
S'1628.61556483'
p97
sba(igraph
Edge
p98
(dp99
g7
I1
sg8
I00
sg9
I5
sg10
(lp100
g94
a(igraph
Vertex
p101
(dp102
g14
F-16.0
sg15
F39.473684210526358
sg16
I177023
sg8
I00
sg17
S'1628.60755794'
p103
sg19
g20
sbasg24
I00
sg25
I00
sg26
I176970
sg17
S'1628.61579698'
p104
sba(igraph
Edge
p105
(dp106
g7
I1
sg8
I00
sg9
I5
sg10
(lp107
g101
a(igraph
Vertex
p108
(dp109
g14
F-16.0
sg15
F55.263157894736878
sg16
I177024
sg8
I00
sg17
S'1628.60767304'
p110
sg19
g20
sbasg24
I00
sg25
I00
sg26
I176971
sg17
S'1628.61602634'
p111
sba(igraph
Edge
p112
(dp113
g7
I1
sg8
I00
sg9
I5
sg10
(lp114
g108
a(igraph
Vertex
p115
(dp116
g14
F-16.0
sg15
F71.05263157894737
sg16
I177025
sg8
I00
sg17
S'1628.60779568'
p117
sg19
g20
sbasg24
I00
sg25
I00
sg26
I176972
sg17
S'1628.61626017'
p118
sba(igraph
Edge
p119
(dp120
g7
I1
sg8
I00
sg9
I5
sg10
(lp121
g115
a(igraph
Vertex
p122
(dp123
g14
F-16.0
sg15
F86.84210526315789
sg16
I177026
sg8
I00
sg17
S'1628.60796135'
p124
sg19
g20
sbasg24
I00
sg25
I00
sg26
I176973
sg17
S'1628.61650657'
p125
sba(igraph
Edge
p126
(dp127
g7
I1
sg8
I00
sg9
I5
sg10
(lp128
g122
a(igraph
Vertex
p129
(dp130
g14
F-16.0
sg15
F102.63157894736841
sg16
I177027
sg8
I00
sg17
S'1628.60810187'
p131
sg19
g20
sbasg24
I00
sg25
I00
sg26
I176974
sg17
S'1628.61677727'
p132
sba(igraph
Edge
p133
(dp134
g7
I1
sg8
I00
sg9
I5
sg10
(lp135
g129
a(igraph
Vertex
p136
(dp137
g14
F-16.0
sg15
F118.4210526315789
sg16
I177028
sg8
I00
sg17
S'1628.60824826'
p138
sg19
g20
sbasg24
I00
sg25
I00
sg26
I176975
sg17
S'1628.61706195'
p139
sba(igraph
Edge
p140
(dp141
g7
I1
sg8
I00
sg9
I5
sg10
(lp142
g136
a(igraph
Vertex
p143
(dp144
g14
F-16.0
sg15
F134.21052631578942
sg16
I177029
sg8
I00
sg17
S'1628.60840358'
p145
sg19
g20
sbasg24
I00
sg25
I00
sg26
I176976
sg17
S'1628.61735472'
p146
sba(igraph
Edge
p147
(dp148
g7
I1
sg8
I00
sg9
I5
sg10
(lp149
g143
a(igraph
Vertex
p150
(dp151
g14
F-16.0
sg15
F149.99999999999994
sg16
I177030
sg8
I00
sg17
S'1628.60856897'
p152
sg19
g20
sbasg24
I00
sg25
I00
sg26
I176977
sg17
S'1628.61773298'
p153
sba(igraph
Edge
p154
(dp155
g7
I1
sg8
I00
sg9
I5
sg10
(lp156
g150
ag12
asg24
I00
sg25
I00
sg26
I176978
sg17
S'1628.61806487'
p157
sba(igraph
Edge
p158
(dp159
g7
I1
sg8
I00
sg9
I5
sg10
(lp160
(igraph
Vertex
p161
(dp162
g14
F17.0
sg15
F-149.99999999999994
sg16
I177031
sg8
I00
sg17
S'1628.60874273'
p163
sg19
g20
sba(igraph
Vertex
p164
(dp165
g14
F17.0
sg15
F-134.21052631578942
sg16
I177033
sg8
I01
sg17
S'1628.60893438'
p166
sg19
I0
sbasg24
I00
sg25
I00
sg26
I176979
sg17
S'1628.61840346'
p167
sba(igraph
Edge
p168
(dp169
g7
I1
sg8
I00
sg9
I5
sg10
(lp170
g164
a(igraph
Vertex
p171
(dp172
g14
F17.0
sg15
F-118.42105263157889
sg16
I177035
sg8
I00
sg17
S'1628.60912742'
p173
sg19
g20
sbasg24
I00
sg25
I00
sg26
I176980
sg17
S'1628.61956925'
p174
sba(igraph
Edge
p175
(dp176
g7
I1
sg8
I00
sg9
I5
sg10
(lp177
g171
a(igraph
Vertex
p178
(dp179
g14
F17.0
sg15
F-102.63157894736837
sg16
I177036
sg8
I00
sg17
S'1628.609328'
p180
sg19
g20
sbasg24
I00
sg25
I00
sg26
I176981
sg17
S'1628.61995561'
p181
sba(igraph
Edge
p182
(dp183
g7
I1
sg8
I00
sg9
I5
sg10
(lp184
g178
a(igraph
Vertex
p185
(dp186
g14
F17.0
sg15
F-86.842105263157833
sg16
I177037
sg8
I00
sg17
S'1628.60953557'
p187
sg19
g20
sbasg24
I00
sg25
I00
sg26
I176982
sg17
S'1628.62035063'
p188
sba(igraph
Edge
p189
(dp190
g7
I1
sg8
I00
sg9
I5
sg10
(lp191
g185
a(igraph
Vertex
p192
(dp193
g14
F17.0
sg15
F-71.052631578947313
sg16
I177039
sg8
I01
sg17
S'1628.60975347'
p194
sg19
I0
sbasg24
I00
sg25
I00
sg26
I176983
sg17
S'1628.62079762'
p195
sba(igraph
Edge
p196
(dp197
g7
I1
sg8
I00
sg9
I5
sg10
(lp198
g192
a(igraph
Vertex
p199
(dp200
g14
F17.0
sg15
F-55.263157894736793
sg16
I177041
sg8
I00
sg17
S'1628.60999513'
p201
sg19
g20
sbasg24
I00
sg25
I00
sg26
I176984
sg17
S'1628.62131193'
p202
sba(igraph
Edge
p203
(dp204
g7
I1
sg8
I00
sg9
I5
sg10
(lp205
g199
a(igraph
Vertex
p206
(dp207
g14
F17.0
sg15
F-39.473684210526258
sg16
I177042
sg8
I00
sg17
S'1628.61022951'
p208
sg19
g20
sbasg24
I00
sg25
I00
sg26
I176985
sg17
S'1628.62176729'
p209
sba(igraph
Edge
p210
(dp211
g7
I1
sg8
I00
sg9
I5
sg10
(lp212
g206
a(igraph
Vertex
p213
(dp214
g14
F17.0
sg15
F-23.684210526315738
sg16
I177043
sg8
I00
sg17
S'1628.61047116'
p215
sg19
g20
sbasg24
I00
sg25
I00
sg26
I176986
sg17
S'1628.62222126'
p216
sba(igraph
Edge
p217
(dp218
g7
I1
sg8
I00
sg9
I5
sg10
(lp219
g213
a(igraph
Vertex
p220
(dp221
g14
F17.0
sg15
F-7.8947368421052033
sg16
I177045
sg8
I01
sg17
S'1628.61072259'
p222
sg19
I0
sbasg24
I00
sg25
I00
sg26
I176987
sg17
S'1628.62268417'
p223
sba(igraph
Edge
p224
(dp225
g7
I1
sg8
I00
sg9
I5
sg10
(lp226
g220
a(igraph
Vertex
p227
(dp228
g14
F17.0
sg15
F7.894736842105317
sg16
I177047
sg8
I00
sg17
S'1628.6109933'
p229
sg19
g20
sbasg24
I00
sg25
I00
sg26
I176988
sg17
S'1628.62337196'
p230
sba(igraph
Edge
p231
(dp232
g7
I1
sg8
I00
sg9
I5
sg10
(lp233
g227
a(igraph
Vertex
p234
(dp235
g14
F17.0
sg15
F23.684210526315866
sg16
I177048
sg8
I00
sg17
S'1628.611264'
p236
sg19
g20
sbasg24
I00
sg25
I00
sg26
I176989
sg17
S'1628.62411759'
p237
sba(igraph
Edge
p238
(dp239
g7
I1
sg8
I00
sg9
I5
sg10
(lp240
g234
a(igraph
Vertex
p241
(dp242
g14
F17.0
sg15
F39.473684210526358
sg16
I177049
sg8
I00
sg17
S'1628.61154253'
p243
sg19
g20
sbasg24
I00
sg25
I00
sg26
I176990
sg17
S'1628.62470426'
p244
sba(igraph
Edge
p245
(dp246
g7
I1
sg8
I00
sg9
I5
sg10
(lp247
g241
a(igraph
Vertex
p248
(dp249
g14
F17.0
sg15
F55.263157894736878
sg16
I177051
sg8
I01
sg17
S'1628.61192163'
p250
sg19
I0
sbasg24
I00
sg25
I00
sg26
I176991
sg17
S'1628.62528701'
p251
sba(igraph
Edge
p252
(dp253
g7
I1
sg8
I00
sg9
I5
sg10
(lp254
g248
a(igraph
Vertex
p255
(dp256
g14
F17.0
sg15
F71.05263157894737
sg16
I177053
sg8
I00
sg17
S'1628.61222027'
p257
sg19
g20
sbasg24
I00
sg25
I00
sg26
I176992
sg17
S'1628.62592816'
p258
sba(igraph
Edge
p259
(dp260
g7
I1
sg8
I00
sg9
I5
sg10
(lp261
g255
a(igraph
Vertex
p262
(dp263
g14
F17.0
sg15
F86.84210526315789
sg16
I177054
sg8
I00
sg17
S'1628.61252617'
p264
sg19
g20
sbasg24
I00
sg25
I00
sg26
I176993
sg17
S'1628.62656511'
p265
sba(igraph
Edge
p266
(dp267
g7
I1
sg8
I00
sg9
I5
sg10
(lp268
g262
a(igraph
Vertex
p269
(dp270
g14
F17.0
sg15
F102.63157894736841
sg16
I177055
sg8
I00
sg17
S'1628.612848'
p271
sg19
g20
sbasg24
I00
sg25
I00
sg26
I176994
sg17
S'1628.62722804'
p272
sba(igraph
Edge
p273
(dp274
g7
I1
sg8
I00
sg9
I5
sg10
(lp275
g269
a(igraph
Vertex
p276
(dp277
g14
F17.0
sg15
F118.4210526315789
sg16
I177057
sg8
I01
sg17
S'1628.61317123'
p278
sg19
I0
sbasg24
I00
sg25
I00
sg26
I176995
sg17
S'1628.62795467'
p279
sba(igraph
Edge
p280
(dp281
g7
I1
sg8
I00
sg9
I5
sg10
(lp282
g276
a(igraph
Vertex
p283
(dp284
g14
F17.0
sg15
F134.21052631578942
sg16
I177059
sg8
I00
sg17
S'1628.61350507'
p285
sg19
g20
sbasg24
I00
sg25
I00
sg26
I176996
sg17
S'1628.62865532'
p286
sba(igraph
Edge
p287
(dp288
g7
I1
sg8
I00
sg9
I5
sg10
(lp289
g283
a(igraph
Vertex
p290
(dp291
g14
F17.0
sg15
F149.99999999999994
sg16
I177060
sg8
I00
sg17
S'1628.61385874'
p292
sg19
g20
sbasg24
I00
sg25
I00
sg26
I176997
sg17
S'1628.6293867'
p293
sba(igraph
Edge
p294
(dp295
g7
I1
sg8
I00
sg9
I5
sg10
(lp296
g290
ag161
asg24
I00
sg25
I00
sg26
I176998
sg17
S'1628.63010075'
p297
sba(igraph
Edge
p298
(dp299
g7
I1
sg8
I00
sg9
I5
sg10
(lp300
g12
ag164
asg24
I00
sg25
I00
sg26
I176999
sg17
S'1628.63086314'
p301
sba(igraph
Edge
p302
(dp303
g7
I1
sg8
I00
sg9
I5
sg10
(lp304
g31
ag178
asg24
I00
sg25
I00
sg26
I177000
sg17
S'1628.63164061'
p305
sba(igraph
Edge
p306
(dp307
g7
I1
sg8
I00
sg9
I5
sg10
(lp308
g45
ag192
asg24
I00
sg25
I00
sg26
I177001
sg17
S'1628.63247284'
p309
sba(igraph
Edge
p310
(dp311
g7
I1
sg8
I00
sg9
I5
sg10
(lp312
g59
ag206
asg24
I00
sg25
I00
sg26
I177002
sg17
S'1628.633264'
p313
sba(igraph
Edge
p314
(dp315
g7
I1
sg8
I00
sg9
I5
sg10
(lp316
g73
ag220
asg24
I00
sg25
I00
sg26
I177003
sg17
S'1628.63406969'
p317
sba(igraph
Edge
p318
(dp319
g7
I1
sg8
I00
sg9
I5
sg10
(lp320
g87
ag234
asg24
I00
sg25
I00
sg26
I177004
sg17
S'1628.63490499'
p321
sba(igraph
Edge
p322
(dp323
g7
I1
sg8
I00
sg9
I5
sg10
(lp324
g101
ag248
asg24
I00
sg25
I00
sg26
I177005
sg17
S'1628.63577745'
p325
sba(igraph
Edge
p326
(dp327
g7
I1
sg8
I00
sg9
I5
sg10
(lp328
g115
ag262
asg24
I00
sg25
I00
sg26
I177006
sg17
S'1628.63673875'
p329
sba(igraph
Edge
p330
(dp331
g7
I1
sg8
I00
sg9
I5
sg10
(lp332
g129
ag276
asg24
I00
sg25
I00
sg26
I177007
sg17
S'1628.63771541'
p333
sba(igraph
Edge
p334
(dp335
g7
I1
sg8
I00
sg9
I5
sg10
(lp336
g143
ag290
asg24
I00
sg25
I00
sg26
I177008
sg17
S'1628.63888651'
p337
sbasS'vertices'
p338
(lp339
g12
ag21
ag31
ag38
ag45
ag52
ag59
ag66
ag73
ag80
ag87
ag94
ag101
ag108
ag115
ag122
ag129
ag136
ag143
ag150
ag161
ag164
ag171
ag178
ag185
ag192
ag199
ag206
ag213
ag220
ag227
ag234
ag241
ag248
ag255
ag262
ag269
ag276
ag283
ag290
asS'tags'
p340
(lp341
sb.