(igraph
Graph
p0
(dp1
S'labelingConstraints'
p2
I-1
sS'edges'
p3
(lp4
(igraph
Edge
p5
(dp6
S'direction'
p7
I1
sS'selected'
p8
I00
sS'height'
p9
I5
sS'vs'
p10
(lp11
(igraph
Vertex
p12
(dp13
S'y'
p14
F-16.0
sS'x'
p15
F39.473684210526358
sS'circle'
p16
I199509
sg8
I00
sS'id'
p17
S'1628.60755794'
p18
sS'label'
p19
S'NULL'
p20
sba(igraph
Vertex
p21
(dp22
g14
F-16.0
sg15
F55.263157894736878
sg16
I199510
sg8
I00
sg17
S'1628.60767304'
p23
sg19
g20
sbasS'wrap'
p24
I00
sS'curved'
p25
I00
sS'line'
p26
I199489
sg17
S'1628.61602634'
p27
sba(igraph
Edge
p28
(dp29
g7
I1
sg8
I00
sg9
I5
sg10
(lp30
g21
a(igraph
Vertex
p31
(dp32
g14
F-16.0
sg15
F71.05263157894737
sg16
I199511
sg8
I00
sg17
S'1628.60779568'
p33
sg19
g20
sbasg24
I00
sg25
I00
sg26
I199490
sg17
S'1628.61626017'
p34
sba(igraph
Edge
p35
(dp36
g7
I1
sg8
I00
sg9
I5
sg10
(lp37
g31
a(igraph
Vertex
p38
(dp39
g14
F-16.0
sg15
F86.84210526315789
sg16
I199512
sg8
I00
sg17
S'1628.60796135'
p40
sg19
g20
sbasg24
I00
sg25
I00
sg26
I199491
sg17
S'1628.61650657'
p41
sba(igraph
Edge
p42
(dp43
g7
I1
sg8
I00
sg9
I5
sg10
(lp44
g38
a(igraph
Vertex
p45
(dp46
g14
F-16.0
sg15
F102.63157894736841
sg16
I199513
sg8
I00
sg17
S'1628.60810187'
p47
sg19
I0
sbasg24
I00
sg25
I00
sg26
I199492
sg17
S'1628.61677727'
p48
sba(igraph
Edge
p49
(dp50
g7
I1
sg8
I00
sg9
I5
sg10
(lp51
g45
a(igraph
Vertex
p52
(dp53
g14
F-16.0
sg15
F118.4210526315789
sg16
I199515
sg8
I00
sg17
S'1628.60824826'
p54
sg19
g20
sbasg24
I00
sg25
I00
sg26
I199493
sg17
S'1628.61706195'
p55
sba(igraph
Edge
p56
(dp57
g7
I1
sg8
I00
sg9
I5
sg10
(lp58
g52
a(igraph
Vertex
p59
(dp60
g14
F-16.0
sg15
F134.21052631578942
sg16
I199516
sg8
I00
sg17
S'1628.60840358'
p61
sg19
g20
sbasg24
I00
sg25
I00
sg26
I199494
sg17
S'1628.61735472'
p62
sba(igraph
Edge
p63
(dp64
g7
I1
sg8
I00
sg9
I5
sg10
(lp65
g59
a(igraph
Vertex
p66
(dp67
g14
F-16.0
sg15
F149.99999999999994
sg16
I199517
sg8
I00
sg17
S'1628.60856897'
p68
sg19
g20
sbasg24
I00
sg25
I00
sg26
I199495
sg17
S'1628.61773298'
p69
sba(igraph
Edge
p70
(dp71
g7
I1
sg8
I00
sg9
I5
sg10
(lp72
(igraph
Vertex
p73
(dp74
g14
F17.0
sg15
F39.473684210526358
sg16
I199518
sg8
I00
sg17
S'1628.61154253'
p75
sg19
g20
sba(igraph
Vertex
p76
(dp77
g14
F17.0
sg15
F55.263157894736878
sg16
I199519
sg8
I00
sg17
S'1628.61192163'
p78
sg19
g20
sbasg24
I00
sg25
I00
sg26
I199496
sg17
S'1628.62528701'
p79
sba(igraph
Edge
p80
(dp81
g7
I1
sg8
I00
sg9
I5
sg10
(lp82
g76
a(igraph
Vertex
p83
(dp84
g14
F17.0
sg15
F71.05263157894737
sg16
I199520
sg8
I00
sg17
S'1628.61222027'
p85
sg19
g20
sbasg24
I00
sg25
I00
sg26
I199497
sg17
S'1628.62592816'
p86
sba(igraph
Edge
p87
(dp88
g7
I1
sg8
I00
sg9
I5
sg10
(lp89
g83
a(igraph
Vertex
p90
(dp91
g14
F17.0
sg15
F86.84210526315789
sg16
I199521
sg8
I00
sg17
S'1628.61252617'
p92
sg19
I0
sbasg24
I00
sg25
I00
sg26
I199498
sg17
S'1628.62656511'
p93
sba(igraph
Edge
p94
(dp95
g7
I1
sg8
I00
sg9
I5
sg10
(lp96
g90
a(igraph
Vertex
p97
(dp98
g14
F17.0
sg15
F102.63157894736841
sg16
I199523
sg8
I00
sg17
S'1628.612848'
p99
sg19
g20
sbasg24
I00
sg25
I00
sg26
I199499
sg17
S'1628.62722804'
p100
sba(igraph
Edge
p101
(dp102
g7
I1
sg8
I00
sg9
I5
sg10
(lp103
g97
a(igraph
Vertex
p104
(dp105
g14
F17.0
sg15
F118.4210526315789
sg16
I199524
sg8
I00
sg17
S'1628.61317123'
p106
sg19
g20
sbasg24
I00
sg25
I00
sg26
I199500
sg17
S'1628.62795467'
p107
sba(igraph
Edge
p108
(dp109
g7
I1
sg8
I00
sg9
I5
sg10
(lp110
g104
a(igraph
Vertex
p111
(dp112
g14
F17.0
sg15
F134.21052631578942
sg16
I199525
sg8
I00
sg17
S'1628.61350507'
p113
sg19
g20
sbasg24
I00
sg25
I00
sg26
I199501
sg17
S'1628.62865532'
p114
sba(igraph
Edge
p115
(dp116
g7
I1
sg8
I00
sg9
I5
sg10
(lp117
g111
a(igraph
Vertex
p118
(dp119
g14
F17.0
sg15
F149.99999999999994
sg16
I199526
sg8
I00
sg17
S'1628.61385874'
p120
sg19
I0
sbasg24
I00
sg25
I00
sg26
I199502
sg17
S'1628.6293867'
p121
sba(igraph
Edge
p122
(dp123
g7
I1
sg8
I00
sg9
I5
sg10
(lp124
g12
ag76
asg24
I00
sg25
I00
sg26
I199503
sg17
S'1628.63577745'
p125
sba(igraph
Edge
p126
(dp127
g7
I1
sg8
I00
sg9
I5
sg10
(lp128
g31
ag90
asg24
I00
sg25
I00
sg26
I199504
sg17
S'1628.63673875'
p129
sba(igraph
Edge
p130
(dp131
g7
I1
sg8
I00
sg9
I5
sg10
(lp132
g45
ag104
asg24
I00
sg25
I00
sg26
I199505
sg17
S'1628.63771541'
p133
sba(igraph
Edge
p134
(dp135
g7
I1
sg8
I00
sg9
I5
sg10
(lp136
g59
ag118
asg24
I00
sg25
I00
sg26
I199506
sg17
S'1628.63888651'
p137
sba(igraph
Edge
p138
(dp139
g7
I1
sg8
I00
sg9
I5
sg10
(lp140
g73
ag118
asg24
I00
sg25
I00
sg26
I199507
sg17
S'2030.57548655'
p141
sba(igraph
Edge
p142
(dp143
g7
I1
sg8
I00
sg9
I5
sg10
(lp144
g12
ag66
asg24
I00
sg25
I00
sg26
I199508
sg17
S'2033.97469958'
p145
sbasS'vertices'
p146
(lp147
g12
ag21
ag31
ag38
ag45
ag52
ag59
ag66
ag73
ag76
ag83
ag90
ag97
ag104
ag111
ag118
asS'tags'
p148
(lp149
sb.