(igraph
Graph
p0
(dp1
S'labelingConstraints'
p2
I-1
sS'edges'
p3
(lp4
(igraph
Edge
p5
(dp6
S'direction'
p7
I1
sS'selected'
p8
I00
sS'height'
p9
I5
sS'vs'
p10
(lp11
(igraph
Vertex
p12
(dp13
S'y'
p14
F-16.0
sS'x'
p15
F7.894736842105317
sS'circle'
p16
I198034
sg8
I00
sS'id'
p17
S'1628.60735764'
p18
sS'label'
p19
S'NULL'
p20
sba(igraph
Vertex
p21
(dp22
g14
F-16.0
sg15
F23.684210526315866
sg16
I198035
sg8
I00
sg17
S'1628.6074529'
p23
sg19
g20
sbasS'wrap'
p24
I00
sS'curved'
p25
I00
sS'line'
p26
I198009
sg17
S'1628.61556483'
p27
sba(igraph
Edge
p28
(dp29
g7
I1
sg8
I00
sg9
I5
sg10
(lp30
g21
a(igraph
Vertex
p31
(dp32
g14
F-16.0
sg15
F39.473684210526358
sg16
I198036
sg8
I00
sg17
S'1628.60755794'
p33
sg19
g20
sbasg24
I00
sg25
I00
sg26
I198010
sg17
S'1628.61579698'
p34
sba(igraph
Edge
p35
(dp36
g7
I1
sg8
I00
sg9
I5
sg10
(lp37
g31
a(igraph
Vertex
p38
(dp39
g14
F-16.0
sg15
F55.263157894736878
sg16
I198037
sg8
I00
sg17
S'1628.60767304'
p40
sg19
g20
sbasg24
I00
sg25
I00
sg26
I198011
sg17
S'1628.61602634'
p41
sba(igraph
Edge
p42
(dp43
g7
I1
sg8
I00
sg9
I5
sg10
(lp44
g38
a(igraph
Vertex
p45
(dp46
g14
F-16.0
sg15
F71.05263157894737
sg16
I198038
sg8
I00
sg17
S'1628.60779568'
p47
sg19
g20
sbasg24
I00
sg25
I00
sg26
I198012
sg17
S'1628.61626017'
p48
sba(igraph
Edge
p49
(dp50
g7
I1
sg8
I00
sg9
I5
sg10
(lp51
g45
a(igraph
Vertex
p52
(dp53
g14
F-16.0
sg15
F86.84210526315789
sg16
I198039
sg8
I00
sg17
S'1628.60796135'
p54
sg19
g20
sbasg24
I00
sg25
I00
sg26
I198013
sg17
S'1628.61650657'
p55
sba(igraph
Edge
p56
(dp57
g7
I1
sg8
I00
sg9
I5
sg10
(lp58
g52
a(igraph
Vertex
p59
(dp60
g14
F-16.0
sg15
F102.63157894736841
sg16
I198041
sg8
I01
sg17
S'1628.60810187'
p61
sg19
I0
sbasg24
I00
sg25
I00
sg26
I198014
sg17
S'1628.61677727'
p62
sba(igraph
Edge
p63
(dp64
g7
I1
sg8
I00
sg9
I5
sg10
(lp65
g59
a(igraph
Vertex
p66
(dp67
g14
F-16.0
sg15
F118.4210526315789
sg16
I198043
sg8
I00
sg17
S'1628.60824826'
p68
sg19
g20
sbasg24
I00
sg25
I00
sg26
I198015
sg17
S'1628.61706195'
p69
sba(igraph
Edge
p70
(dp71
g7
I1
sg8
I00
sg9
I5
sg10
(lp72
g66
a(igraph
Vertex
p73
(dp74
g14
F-16.0
sg15
F134.21052631578942
sg16
I198044
sg8
I00
sg17
S'1628.60840358'
p75
sg19
g20
sbasg24
I00
sg25
I00
sg26
I198016
sg17
S'1628.61735472'
p76
sba(igraph
Edge
p77
(dp78
g7
I1
sg8
I00
sg9
I5
sg10
(lp79
g73
a(igraph
Vertex
p80
(dp81
g14
F-16.0
sg15
F149.99999999999994
sg16
I198045
sg8
I00
sg17
S'1628.60856897'
p82
sg19
g20
sbasg24
I00
sg25
I00
sg26
I198017
sg17
S'1628.61773298'
p83
sba(igraph
Edge
p84
(dp85
g7
I1
sg8
I00
sg9
I5
sg10
(lp86
(igraph
Vertex
p87
(dp88
g14
F17.0
sg15
F7.894736842105317
sg16
I198046
sg8
I00
sg17
S'1628.6109933'
p89
sg19
g20
sba(igraph
Vertex
p90
(dp91
g14
F17.0
sg15
F23.684210526315866
sg16
I198048
sg8
I01
sg17
S'1628.611264'
p92
sg19
I0
sbasg24
I00
sg25
I00
sg26
I198018
sg17
S'1628.62411759'
p93
sba(igraph
Edge
p94
(dp95
g7
I1
sg8
I00
sg9
I5
sg10
(lp96
g90
a(igraph
Vertex
p97
(dp98
g14
F17.0
sg15
F39.473684210526358
sg16
I198050
sg8
I00
sg17
S'1628.61154253'
p99
sg19
g20
sbasg24
I00
sg25
I00
sg26
I198019
sg17
S'1628.62470426'
p100
sba(igraph
Edge
p101
(dp102
g7
I1
sg8
I00
sg9
I5
sg10
(lp103
g97
a(igraph
Vertex
p104
(dp105
g14
F17.0
sg15
F55.263157894736878
sg16
I198051
sg8
I00
sg17
S'1628.61192163'
p106
sg19
g20
sbasg24
I00
sg25
I00
sg26
I198020
sg17
S'1628.62528701'
p107
sba(igraph
Edge
p108
(dp109
g7
I1
sg8
I00
sg9
I5
sg10
(lp110
g104
a(igraph
Vertex
p111
(dp112
g14
F17.0
sg15
F71.05263157894737
sg16
I198052
sg8
I00
sg17
S'1628.61222027'
p113
sg19
g20
sbasg24
I00
sg25
I00
sg26
I198021
sg17
S'1628.62592816'
p114
sba(igraph
Edge
p115
(dp116
g7
I1
sg8
I00
sg9
I5
sg10
(lp117
g111
a(igraph
Vertex
p118
(dp119
g14
F17.0
sg15
F86.84210526315789
sg16
I198054
sg8
I01
sg17
S'1628.61252617'
p120
sg19
I0
sbasg24
I00
sg25
I00
sg26
I198022
sg17
S'1628.62656511'
p121
sba(igraph
Edge
p122
(dp123
g7
I1
sg8
I00
sg9
I5
sg10
(lp124
g118
a(igraph
Vertex
p125
(dp126
g14
F17.0
sg15
F102.63157894736841
sg16
I198056
sg8
I00
sg17
S'1628.612848'
p127
sg19
g20
sbasg24
I00
sg25
I00
sg26
I198023
sg17
S'1628.62722804'
p128
sba(igraph
Edge
p129
(dp130
g7
I1
sg8
I00
sg9
I5
sg10
(lp131
g125
a(igraph
Vertex
p132
(dp133
g14
F17.0
sg15
F118.4210526315789
sg16
I198057
sg8
I00
sg17
S'1628.61317123'
p134
sg19
g20
sbasg24
I00
sg25
I00
sg26
I198024
sg17
S'1628.62795467'
p135
sba(igraph
Edge
p136
(dp137
g7
I1
sg8
I00
sg9
I5
sg10
(lp138
g132
a(igraph
Vertex
p139
(dp140
g14
F17.0
sg15
F134.21052631578942
sg16
I198058
sg8
I00
sg17
S'1628.61350507'
p141
sg19
g20
sbasg24
I00
sg25
I00
sg26
I198025
sg17
S'1628.62865532'
p142
sba(igraph
Edge
p143
(dp144
g7
I1
sg8
I00
sg9
I5
sg10
(lp145
g139
a(igraph
Vertex
p146
(dp147
g14
F17.0
sg15
F149.99999999999994
sg16
I198059
sg8
I00
sg17
S'1628.61385874'
p148
sg19
g20
sbasg24
I00
sg25
I00
sg26
I198026
sg17
S'1628.6293867'
p149
sba(igraph
Edge
p150
(dp151
g7
I1
sg8
I00
sg9
I5
sg10
(lp152
g12
ag90
asg24
I00
sg25
I00
sg26
I198027
sg17
S'1628.63490499'
p153
sba(igraph
Edge
p154
(dp155
g7
I1
sg8
I00
sg9
I5
sg10
(lp156
g31
ag104
asg24
I00
sg25
I00
sg26
I198028
sg17
S'1628.63577745'
p157
sba(igraph
Edge
p158
(dp159
g7
I1
sg8
I00
sg9
I5
sg10
(lp160
g45
ag118
asg24
I00
sg25
I00
sg26
I198029
sg17
S'1628.63673875'
p161
sba(igraph
Edge
p162
(dp163
g7
I1
sg8
I00
sg9
I5
sg10
(lp164
g59
ag132
asg24
I00
sg25
I00
sg26
I198030
sg17
S'1628.63771541'
p165
sba(igraph
Edge
p166
(dp167
g7
I1
sg8
I00
sg9
I5
sg10
(lp168
g73
ag146
asg24
I00
sg25
I00
sg26
I198031
sg17
S'1628.63888651'
p169
sba(igraph
Edge
p170
(dp171
g7
I1
sg8
I00
sg9
I5
sg10
(lp172
g12
ag80
asg24
I00
sg25
I00
sg26
I198032
sg17
S'1989.69636923'
p173
sba(igraph
Edge
p174
(dp175
g7
I1
sg8
I00
sg9
I5
sg10
(lp176
g87
ag146
asg24
I00
sg25
I00
sg26
I198033
sg17
S'1992.97868863'
p177
sbasS'vertices'
p178
(lp179
g12
ag21
ag31
ag38
ag45
ag52
ag59
ag66
ag73
ag80
ag87
ag90
ag97
ag104
ag111
ag118
ag125
ag132
ag139
ag146
asS'tags'
p180
(lp181
sb.