(igraph
Graph
p0
(dp1
S'labelingConstraints'
p2
I-1
sS'edges'
p3
(lp4
(igraph
Edge
p5
(dp6
S'direction'
p7
I1
sS'selected'
p8
I00
sS'height'
p9
I5
sS'vs'
p10
(lp11
(igraph
Vertex
p12
(dp13
S'y'
p14
F-16.0
sS'x'
p15
F-55.263157894736793
sS'circle'
p16
I193491
sg8
I00
sS'id'
p17
S'1628.60705592'
p18
sS'label'
p19
S'NULL'
p20
sba(igraph
Vertex
p21
(dp22
g14
F-16.0
sg15
F-39.473684210526258
sg16
I193492
sg8
I00
sg17
S'1628.6071199'
p23
sg19
g20
sbasS'wrap'
p24
I00
sS'curved'
p25
I00
sS'line'
p26
I193456
sg17
S'1628.61491083'
p27
sba(igraph
Edge
p28
(dp29
g7
I1
sg8
I00
sg9
I5
sg10
(lp30
g21
a(igraph
Vertex
p31
(dp32
g14
F-16.0
sg15
F-23.684210526315738
sg16
I193493
sg8
I00
sg17
S'1628.60719198'
p33
sg19
g20
sbasg24
I00
sg25
I00
sg26
I193457
sg17
S'1628.61505415'
p34
sba(igraph
Edge
p35
(dp36
g7
I1
sg8
I00
sg9
I5
sg10
(lp37
g31
a(igraph
Vertex
p38
(dp39
g14
F-16.0
sg15
F-7.8947368421052033
sg16
I193494
sg8
I00
sg17
S'1628.60726936'
p40
sg19
g20
sbasg24
I00
sg25
I00
sg26
I193458
sg17
S'1628.61520947'
p41
sba(igraph
Edge
p42
(dp43
g7
I1
sg8
I00
sg9
I5
sg10
(lp44
g38
a(igraph
Vertex
p45
(dp46
g14
F-16.0
sg15
F7.894736842105317
sg16
I193495
sg8
I00
sg17
S'1628.60735764'
p47
sg19
g20
sbasg24
I00
sg25
I00
sg26
I193459
sg17
S'1628.61538073'
p48
sba(igraph
Edge
p49
(dp50
g7
I1
sg8
I00
sg9
I5
sg10
(lp51
g45
a(igraph
Vertex
p52
(dp53
g14
F-16.0
sg15
F23.684210526315866
sg16
I193496
sg8
I00
sg17
S'1628.6074529'
p54
sg19
g20
sbasg24
I00
sg25
I00
sg26
I193460
sg17
S'1628.61556483'
p55
sba(igraph
Edge
p56
(dp57
g7
I1
sg8
I00
sg9
I5
sg10
(lp58
g52
a(igraph
Vertex
p59
(dp60
g14
F-16.0
sg15
F39.473684210526358
sg16
I193497
sg8
I00
sg17
S'1628.60755794'
p61
sg19
g20
sbasg24
I00
sg25
I00
sg26
I193461
sg17
S'1628.61579698'
p62
sba(igraph
Edge
p63
(dp64
g7
I1
sg8
I00
sg9
I5
sg10
(lp65
g59
a(igraph
Vertex
p66
(dp67
g14
F-16.0
sg15
F55.263157894736878
sg16
I193498
sg8
I00
sg17
S'1628.60767304'
p68
sg19
g20
sbasg24
I00
sg25
I00
sg26
I193462
sg17
S'1628.61602634'
p69
sba(igraph
Edge
p70
(dp71
g7
I1
sg8
I00
sg9
I5
sg10
(lp72
g66
a(igraph
Vertex
p73
(dp74
g14
F-16.0
sg15
F71.05263157894737
sg16
I193499
sg8
I00
sg17
S'1628.60779568'
p75
sg19
g20
sbasg24
I00
sg25
I00
sg26
I193463
sg17
S'1628.61626017'
p76
sba(igraph
Edge
p77
(dp78
g7
I1
sg8
I00
sg9
I5
sg10
(lp79
g73
a(igraph
Vertex
p80
(dp81
g14
F-16.0
sg15
F86.84210526315789
sg16
I193500
sg8
I00
sg17
S'1628.60796135'
p82
sg19
g20
sbasg24
I00
sg25
I00
sg26
I193464
sg17
S'1628.61650657'
p83
sba(igraph
Edge
p84
(dp85
g7
I1
sg8
I00
sg9
I5
sg10
(lp86
g80
a(igraph
Vertex
p87
(dp88
g14
F-16.0
sg15
F102.63157894736841
sg16
I193501
sg8
I00
sg17
S'1628.60810187'
p89
sg19
g20
sbasg24
I00
sg25
I00
sg26
I193465
sg17
S'1628.61677727'
p90
sba(igraph
Edge
p91
(dp92
g7
I1
sg8
I00
sg9
I5
sg10
(lp93
g87
a(igraph
Vertex
p94
(dp95
g14
F-16.0
sg15
F118.4210526315789
sg16
I193502
sg8
I00
sg17
S'1628.60824826'
p96
sg19
g20
sbasg24
I00
sg25
I00
sg26
I193466
sg17
S'1628.61706195'
p97
sba(igraph
Edge
p98
(dp99
g7
I1
sg8
I00
sg9
I5
sg10
(lp100
g94
a(igraph
Vertex
p101
(dp102
g14
F-16.0
sg15
F134.21052631578942
sg16
I193503
sg8
I00
sg17
S'1628.60840358'
p103
sg19
I0
sbasg24
I00
sg25
I00
sg26
I193467
sg17
S'1628.61735472'
p104
sba(igraph
Edge
p105
(dp106
g7
I1
sg8
I00
sg9
I5
sg10
(lp107
g101
a(igraph
Vertex
p108
(dp109
g14
F-16.0
sg15
F149.99999999999994
sg16
I193505
sg8
I00
sg17
S'1628.60856897'
p110
sg19
g20
sbasg24
I00
sg25
I00
sg26
I193468
sg17
S'1628.61773298'
p111
sba(igraph
Edge
p112
(dp113
g7
I1
sg8
I00
sg9
I5
sg10
(lp114
(igraph
Vertex
p115
(dp116
g14
F17.0
sg15
F-55.263157894736793
sg16
I193506
sg8
I00
sg17
S'1628.60999513'
p117
sg19
g20
sba(igraph
Vertex
p118
(dp119
g14
F17.0
sg15
F-39.473684210526258
sg16
I193507
sg8
I00
sg17
S'1628.61022951'
p120
sg19
g20
sbasg24
I00
sg25
I00
sg26
I193469
sg17
S'1628.62176729'
p121
sba(igraph
Edge
p122
(dp123
g7
I1
sg8
I00
sg9
I5
sg10
(lp124
g118
a(igraph
Vertex
p125
(dp126
g14
F17.0
sg15
F-23.684210526315738
sg16
I193508
sg8
I00
sg17
S'1628.61047116'
p127
sg19
g20
sbasg24
I00
sg25
I00
sg26
I193470
sg17
S'1628.62222126'
p128
sba(igraph
Edge
p129
(dp130
g7
I1
sg8
I00
sg9
I5
sg10
(lp131
g125
a(igraph
Vertex
p132
(dp133
g14
F17.0
sg15
F-7.8947368421052033
sg16
I193509
sg8
I00
sg17
S'1628.61072259'
p134
sg19
I0
sbasg24
I00
sg25
I00
sg26
I193471
sg17
S'1628.62268417'
p135
sba(igraph
Edge
p136
(dp137
g7
I1
sg8
I00
sg9
I5
sg10
(lp138
g132
a(igraph
Vertex
p139
(dp140
g14
F17.0
sg15
F7.894736842105317
sg16
I193511
sg8
I00
sg17
S'1628.6109933'
p141
sg19
g20
sbasg24
I00
sg25
I00
sg26
I193472
sg17
S'1628.62337196'
p142
sba(igraph
Edge
p143
(dp144
g7
I1
sg8
I00
sg9
I5
sg10
(lp145
g139
a(igraph
Vertex
p146
(dp147
g14
F17.0
sg15
F23.684210526315866
sg16
I193512
sg8
I00
sg17
S'1628.611264'
p148
sg19
g20
sbasg24
I00
sg25
I00
sg26
I193473
sg17
S'1628.62411759'
p149
sba(igraph
Edge
p150
(dp151
g7
I1
sg8
I00
sg9
I5
sg10
(lp152
g146
a(igraph
Vertex
p153
(dp154
g14
F17.0
sg15
F39.473684210526358
sg16
I193513
sg8
I00
sg17
S'1628.61154253'
p155
sg19
g20
sbasg24
I00
sg25
I00
sg26
I193474
sg17
S'1628.62470426'
p156
sba(igraph
Edge
p157
(dp158
g7
I1
sg8
I00
sg9
I5
sg10
(lp159
g153
a(igraph
Vertex
p160
(dp161
g14
F17.0
sg15
F55.263157894736878
sg16
I193514
sg8
I00
sg17
S'1628.61192163'
p162
sg19
I0
sbasg24
I00
sg25
I00
sg26
I193475
sg17
S'1628.62528701'
p163
sba(igraph
Edge
p164
(dp165
g7
I1
sg8
I00
sg9
I5
sg10
(lp166
g160
a(igraph
Vertex
p167
(dp168
g14
F17.0
sg15
F71.05263157894737
sg16
I193516
sg8
I00
sg17
S'1628.61222027'
p169
sg19
g20
sbasg24
I00
sg25
I00
sg26
I193476
sg17
S'1628.62592816'
p170
sba(igraph
Edge
p171
(dp172
g7
I1
sg8
I00
sg9
I5
sg10
(lp173
g167
a(igraph
Vertex
p174
(dp175
g14
F17.0
sg15
F86.84210526315789
sg16
I193517
sg8
I00
sg17
S'1628.61252617'
p176
sg19
g20
sbasg24
I00
sg25
I00
sg26
I193477
sg17
S'1628.62656511'
p177
sba(igraph
Edge
p178
(dp179
g7
I1
sg8
I00
sg9
I5
sg10
(lp180
g174
a(igraph
Vertex
p181
(dp182
g14
F17.0
sg15
F102.63157894736841
sg16
I193518
sg8
I00
sg17
S'1628.612848'
p183
sg19
g20
sbasg24
I00
sg25
I00
sg26
I193478
sg17
S'1628.62722804'
p184
sba(igraph
Edge
p185
(dp186
g7
I1
sg8
I00
sg9
I5
sg10
(lp187
g181
a(igraph
Vertex
p188
(dp189
g14
F17.0
sg15
F118.4210526315789
sg16
I193519
sg8
I00
sg17
S'1628.61317123'
p190
sg19
I0
sbasg24
I00
sg25
I00
sg26
I193479
sg17
S'1628.62795467'
p191
sba(igraph
Edge
p192
(dp193
g7
I1
sg8
I00
sg9
I5
sg10
(lp194
g188
a(igraph
Vertex
p195
(dp196
g14
F17.0
sg15
F134.21052631578942
sg16
I193521
sg8
I00
sg17
S'1628.61350507'
p197
sg19
g20
sbasg24
I00
sg25
I00
sg26
I193480
sg17
S'1628.62865532'
p198
sba(igraph
Edge
p199
(dp200
g7
I1
sg8
I00
sg9
I5
sg10
(lp201
g195
a(igraph
Vertex
p202
(dp203
g14
F17.0
sg15
F149.99999999999994
sg16
I193522
sg8
I00
sg17
S'1628.61385874'
p204
sg19
g20
sbasg24
I00
sg25
I00
sg26
I193481
sg17
S'1628.6293867'
p205
sba(igraph
Edge
p206
(dp207
g7
I1
sg8
I00
sg9
I5
sg10
(lp208
g12
ag118
asg24
I00
sg25
I00
sg26
I193482
sg17
S'1628.633264'
p209
sba(igraph
Edge
p210
(dp211
g7
I1
sg8
I00
sg9
I5
sg10
(lp212
g31
ag132
asg24
I00
sg25
I00
sg26
I193483
sg17
S'1628.63406969'
p213
sba(igraph
Edge
p214
(dp215
g7
I1
sg8
I00
sg9
I5
sg10
(lp216
g45
ag146
asg24
I00
sg25
I00
sg26
I193484
sg17
S'1628.63490499'
p217
sba(igraph
Edge
p218
(dp219
g7
I1
sg8
I00
sg9
I5
sg10
(lp220
g59
ag160
asg24
I00
sg25
I00
sg26
I193485
sg17
S'1628.63577745'
p221
sba(igraph
Edge
p222
(dp223
g7
I1
sg8
I00
sg9
I5
sg10
(lp224
g73
ag174
asg24
I00
sg25
I00
sg26
I193486
sg17
S'1628.63673875'
p225
sba(igraph
Edge
p226
(dp227
g7
I1
sg8
I00
sg9
I5
sg10
(lp228
g87
ag188
asg24
I00
sg25
I00
sg26
I193487
sg17
S'1628.63771541'
p229
sba(igraph
Edge
p230
(dp231
g7
I1
sg8
I00
sg9
I5
sg10
(lp232
g101
ag202
asg24
I00
sg25
I00
sg26
I193488
sg17
S'1628.63888651'
p233
sba(igraph
Edge
p234
(dp235
g7
I1
sg8
I00
sg9
I5
sg10
(lp236
g12
ag108
asg24
I00
sg25
I00
sg26
I193489
sg17
S'1860.75449925'
p237
sba(igraph
Edge
p238
(dp239
g7
I1
sg8
I00
sg9
I5
sg10
(lp240
g115
ag202
asg24
I00
sg25
I00
sg26
I193490
sg17
S'1863.29430696'
p241
sbasS'vertices'
p242
(lp243
g12
ag21
ag31
ag38
ag45
ag52
ag59
ag66
ag73
ag80
ag87
ag94
ag101
ag108
ag115
ag118
ag125
ag132
ag139
ag146
ag153
ag160
ag167
ag174
ag181
ag188
ag195
ag202
asS'tags'
p244
(lp245
sb.