(igraph
Graph
p0
(dp1
S'labelingConstraints'
p2
I-1
sS'edges'
p3
(lp4
(igraph
Edge
p5
(dp6
S'direction'
p7
I1
sS'selected'
p8
I00
sS'height'
p9
I5
sS'vs'
p10
(lp11
(igraph
Vertex
p12
(dp13
S'y'
p14
F-16.0
sS'x'
p15
F-86.842105263157833
sS'circle'
p16
I186221
sg8
I00
sS'id'
p17
S'1628.60686959'
p18
sS'label'
p19
S'NULL'
p20
sba(igraph
Vertex
p21
(dp22
g14
F-16.0
sg15
F-71.052631578947313
sg16
I186222
sg8
I00
sg17
S'1628.60700117'
p23
sg19
g20
sbasS'wrap'
p24
I00
sS'curved'
p25
I00
sS'line'
p26
I186181
sg17
S'1628.61451134'
p27
sba(igraph
Edge
p28
(dp29
g7
I1
sg8
I00
sg9
I5
sg10
(lp30
g21
a(igraph
Vertex
p31
(dp32
g14
F-16.0
sg15
F-55.263157894736793
sg16
I186223
sg8
I00
sg17
S'1628.60705592'
p33
sg19
g20
sbasg24
I00
sg25
I00
sg26
I186182
sg17
S'1628.61462029'
p34
sba(igraph
Edge
p35
(dp36
g7
I1
sg8
I00
sg9
I5
sg10
(lp37
g31
a(igraph
Vertex
p38
(dp39
g14
F-16.0
sg15
F-39.473684210526258
sg16
I186224
sg8
I00
sg17
S'1628.6071199'
p40
sg19
g20
sbasg24
I00
sg25
I00
sg26
I186183
sg17
S'1628.61491083'
p41
sba(igraph
Edge
p42
(dp43
g7
I1
sg8
I00
sg9
I5
sg10
(lp44
g38
a(igraph
Vertex
p45
(dp46
g14
F-16.0
sg15
F-23.684210526315738
sg16
I186225
sg8
I00
sg17
S'1628.60719198'
p47
sg19
g20
sbasg24
I00
sg25
I00
sg26
I186184
sg17
S'1628.61505415'
p48
sba(igraph
Edge
p49
(dp50
g7
I1
sg8
I00
sg9
I5
sg10
(lp51
g45
a(igraph
Vertex
p52
(dp53
g14
F-16.0
sg15
F-7.8947368421052033
sg16
I186226
sg8
I00
sg17
S'1628.60726936'
p54
sg19
g20
sbasg24
I00
sg25
I00
sg26
I186185
sg17
S'1628.61520947'
p55
sba(igraph
Edge
p56
(dp57
g7
I1
sg8
I00
sg9
I5
sg10
(lp58
g52
a(igraph
Vertex
p59
(dp60
g14
F-16.0
sg15
F7.894736842105317
sg16
I186227
sg8
I00
sg17
S'1628.60735764'
p61
sg19
g20
sbasg24
I00
sg25
I00
sg26
I186186
sg17
S'1628.61538073'
p62
sba(igraph
Edge
p63
(dp64
g7
I1
sg8
I00
sg9
I5
sg10
(lp65
g59
a(igraph
Vertex
p66
(dp67
g14
F-16.0
sg15
F23.684210526315866
sg16
I186228
sg8
I00
sg17
S'1628.6074529'
p68
sg19
g20
sbasg24
I00
sg25
I00
sg26
I186187
sg17
S'1628.61556483'
p69
sba(igraph
Edge
p70
(dp71
g7
I1
sg8
I00
sg9
I5
sg10
(lp72
g66
a(igraph
Vertex
p73
(dp74
g14
F-16.0
sg15
F39.473684210526358
sg16
I186229
sg8
I00
sg17
S'1628.60755794'
p75
sg19
g20
sbasg24
I00
sg25
I00
sg26
I186188
sg17
S'1628.61579698'
p76
sba(igraph
Edge
p77
(dp78
g7
I1
sg8
I00
sg9
I5
sg10
(lp79
g73
a(igraph
Vertex
p80
(dp81
g14
F-16.0
sg15
F55.263157894736878
sg16
I186230
sg8
I00
sg17
S'1628.60767304'
p82
sg19
g20
sbasg24
I00
sg25
I00
sg26
I186189
sg17
S'1628.61602634'
p83
sba(igraph
Edge
p84
(dp85
g7
I1
sg8
I00
sg9
I5
sg10
(lp86
g80
a(igraph
Vertex
p87
(dp88
g14
F-16.0
sg15
F71.05263157894737
sg16
I186231
sg8
I00
sg17
S'1628.60779568'
p89
sg19
g20
sbasg24
I00
sg25
I00
sg26
I186190
sg17
S'1628.61626017'
p90
sba(igraph
Edge
p91
(dp92
g7
I1
sg8
I00
sg9
I5
sg10
(lp93
g87
a(igraph
Vertex
p94
(dp95
g14
F-16.0
sg15
F86.84210526315789
sg16
I186232
sg8
I00
sg17
S'1628.60796135'
p96
sg19
g20
sbasg24
I00
sg25
I00
sg26
I186191
sg17
S'1628.61650657'
p97
sba(igraph
Edge
p98
(dp99
g7
I1
sg8
I00
sg9
I5
sg10
(lp100
g94
a(igraph
Vertex
p101
(dp102
g14
F-16.0
sg15
F102.63157894736841
sg16
I186233
sg8
I00
sg17
S'1628.60810187'
p103
sg19
g20
sbasg24
I00
sg25
I00
sg26
I186192
sg17
S'1628.61677727'
p104
sba(igraph
Edge
p105
(dp106
g7
I1
sg8
I00
sg9
I5
sg10
(lp107
g101
a(igraph
Vertex
p108
(dp109
g14
F-16.0
sg15
F118.4210526315789
sg16
I186234
sg8
I00
sg17
S'1628.60824826'
p110
sg19
g20
sbasg24
I00
sg25
I00
sg26
I186193
sg17
S'1628.61706195'
p111
sba(igraph
Edge
p112
(dp113
g7
I1
sg8
I00
sg9
I5
sg10
(lp114
g108
a(igraph
Vertex
p115
(dp116
g14
F-16.0
sg15
F134.21052631578942
sg16
I186235
sg8
I00
sg17
S'1628.60840358'
p117
sg19
I0
sbasg24
I00
sg25
I00
sg26
I186194
sg17
S'1628.61735472'
p118
sba(igraph
Edge
p119
(dp120
g7
I1
sg8
I00
sg9
I5
sg10
(lp121
g115
a(igraph
Vertex
p122
(dp123
g14
F-16.0
sg15
F149.99999999999994
sg16
I186237
sg8
I00
sg17
S'1628.60856897'
p124
sg19
g20
sbasg24
I00
sg25
I00
sg26
I186195
sg17
S'1628.61773298'
p125
sba(igraph
Edge
p126
(dp127
g7
I1
sg8
I00
sg9
I5
sg10
(lp128
(igraph
Vertex
p129
(dp130
g14
F17.0
sg15
F-86.842105263157833
sg16
I186238
sg8
I00
sg17
S'1628.60953557'
p131
sg19
g20
sba(igraph
Vertex
p132
(dp133
g14
F17.0
sg15
F-71.052631578947313
sg16
I186239
sg8
I00
sg17
S'1628.60975347'
p134
sg19
I0
sbasg24
I00
sg25
I00
sg26
I186196
sg17
S'1628.62079762'
p135
sba(igraph
Edge
p136
(dp137
g7
I1
sg8
I00
sg9
I5
sg10
(lp138
g132
a(igraph
Vertex
p139
(dp140
g14
F17.0
sg15
F-55.263157894736793
sg16
I186241
sg8
I00
sg17
S'1628.60999513'
p141
sg19
g20
sbasg24
I00
sg25
I00
sg26
I186197
sg17
S'1628.62131193'
p142
sba(igraph
Edge
p143
(dp144
g7
I1
sg8
I00
sg9
I5
sg10
(lp145
g139
a(igraph
Vertex
p146
(dp147
g14
F17.0
sg15
F-39.473684210526258
sg16
I186242
sg8
I00
sg17
S'1628.61022951'
p148
sg19
g20
sbasg24
I00
sg25
I00
sg26
I186198
sg17
S'1628.62176729'
p149
sba(igraph
Edge
p150
(dp151
g7
I1
sg8
I00
sg9
I5
sg10
(lp152
g146
a(igraph
Vertex
p153
(dp154
g14
F17.0
sg15
F-23.684210526315738
sg16
I186243
sg8
I00
sg17
S'1628.61047116'
p155
sg19
g20
sbasg24
I00
sg25
I00
sg26
I186199
sg17
S'1628.62222126'
p156
sba(igraph
Edge
p157
(dp158
g7
I1
sg8
I00
sg9
I5
sg10
(lp159
g153
a(igraph
Vertex
p160
(dp161
g14
F17.0
sg15
F-7.8947368421052033
sg16
I186244
sg8
I00
sg17
S'1628.61072259'
p162
sg19
I0
sbasg24
I00
sg25
I00
sg26
I186200
sg17
S'1628.62268417'
p163
sba(igraph
Edge
p164
(dp165
g7
I1
sg8
I00
sg9
I5
sg10
(lp166
g160
a(igraph
Vertex
p167
(dp168
g14
F17.0
sg15
F7.894736842105317
sg16
I186246
sg8
I00
sg17
S'1628.6109933'
p169
sg19
g20
sbasg24
I00
sg25
I00
sg26
I186201
sg17
S'1628.62337196'
p170
sba(igraph
Edge
p171
(dp172
g7
I1
sg8
I00
sg9
I5
sg10
(lp173
g167
a(igraph
Vertex
p174
(dp175
g14
F17.0
sg15
F23.684210526315866
sg16
I186247
sg8
I00
sg17
S'1628.611264'
p176
sg19
g20
sbasg24
I00
sg25
I00
sg26
I186202
sg17
S'1628.62411759'
p177
sba(igraph
Edge
p178
(dp179
g7
I1
sg8
I00
sg9
I5
sg10
(lp180
g174
a(igraph
Vertex
p181
(dp182
g14
F17.0
sg15
F39.473684210526358
sg16
I186248
sg8
I00
sg17
S'1628.61154253'
p183
sg19
g20
sbasg24
I00
sg25
I00
sg26
I186203
sg17
S'1628.62470426'
p184
sba(igraph
Edge
p185
(dp186
g7
I1
sg8
I00
sg9
I5
sg10
(lp187
g181
a(igraph
Vertex
p188
(dp189
g14
F17.0
sg15
F55.263157894736878
sg16
I186249
sg8
I00
sg17
S'1628.61192163'
p190
sg19
I0
sbasg24
I00
sg25
I00
sg26
I186204
sg17
S'1628.62528701'
p191
sba(igraph
Edge
p192
(dp193
g7
I1
sg8
I00
sg9
I5
sg10
(lp194
g188
a(igraph
Vertex
p195
(dp196
g14
F17.0
sg15
F71.05263157894737
sg16
I186251
sg8
I00
sg17
S'1628.61222027'
p197
sg19
g20
sbasg24
I00
sg25
I00
sg26
I186205
sg17
S'1628.62592816'
p198
sba(igraph
Edge
p199
(dp200
g7
I1
sg8
I00
sg9
I5
sg10
(lp201
g195
a(igraph
Vertex
p202
(dp203
g14
F17.0
sg15
F86.84210526315789
sg16
I186252
sg8
I00
sg17
S'1628.61252617'
p204
sg19
g20
sbasg24
I00
sg25
I00
sg26
I186206
sg17
S'1628.62656511'
p205
sba(igraph
Edge
p206
(dp207
g7
I1
sg8
I00
sg9
I5
sg10
(lp208
g202
a(igraph
Vertex
p209
(dp210
g14
F17.0
sg15
F102.63157894736841
sg16
I186253
sg8
I00
sg17
S'1628.612848'
p211
sg19
g20
sbasg24
I00
sg25
I00
sg26
I186207
sg17
S'1628.62722804'
p212
sba(igraph
Edge
p213
(dp214
g7
I1
sg8
I00
sg9
I5
sg10
(lp215
g209
a(igraph
Vertex
p216
(dp217
g14
F17.0
sg15
F118.4210526315789
sg16
I186254
sg8
I00
sg17
S'1628.61317123'
p218
sg19
I0
sbasg24
I00
sg25
I00
sg26
I186208
sg17
S'1628.62795467'
p219
sba(igraph
Edge
p220
(dp221
g7
I1
sg8
I00
sg9
I5
sg10
(lp222
g216
a(igraph
Vertex
p223
(dp224
g14
F17.0
sg15
F134.21052631578942
sg16
I186256
sg8
I00
sg17
S'1628.61350507'
p225
sg19
g20
sbasg24
I00
sg25
I00
sg26
I186209
sg17
S'1628.62865532'
p226
sba(igraph
Edge
p227
(dp228
g7
I1
sg8
I00
sg9
I5
sg10
(lp229
g223
a(igraph
Vertex
p230
(dp231
g14
F17.0
sg15
F149.99999999999994
sg16
I186257
sg8
I00
sg17
S'1628.61385874'
p232
sg19
g20
sbasg24
I00
sg25
I00
sg26
I186210
sg17
S'1628.6293867'
p233
sba(igraph
Edge
p234
(dp235
g7
I1
sg8
I00
sg9
I5
sg10
(lp236
g12
ag132
asg24
I00
sg25
I00
sg26
I186211
sg17
S'1628.63247284'
p237
sba(igraph
Edge
p238
(dp239
g7
I1
sg8
I00
sg9
I5
sg10
(lp240
g31
ag146
asg24
I00
sg25
I00
sg26
I186212
sg17
S'1628.633264'
p241
sba(igraph
Edge
p242
(dp243
g7
I1
sg8
I00
sg9
I5
sg10
(lp244
g45
ag160
asg24
I00
sg25
I00
sg26
I186213
sg17
S'1628.63406969'
p245
sba(igraph
Edge
p246
(dp247
g7
I1
sg8
I00
sg9
I5
sg10
(lp248
g59
ag174
asg24
I00
sg25
I00
sg26
I186214
sg17
S'1628.63490499'
p249
sba(igraph
Edge
p250
(dp251
g7
I1
sg8
I00
sg9
I5
sg10
(lp252
g73
ag188
asg24
I00
sg25
I00
sg26
I186215
sg17
S'1628.63577745'
p253
sba(igraph
Edge
p254
(dp255
g7
I1
sg8
I00
sg9
I5
sg10
(lp256
g87
ag202
asg24
I00
sg25
I00
sg26
I186216
sg17
S'1628.63673875'
p257
sba(igraph
Edge
p258
(dp259
g7
I1
sg8
I00
sg9
I5
sg10
(lp260
g101
ag216
asg24
I00
sg25
I00
sg26
I186217
sg17
S'1628.63771541'
p261
sba(igraph
Edge
p262
(dp263
g7
I1
sg8
I00
sg9
I5
sg10
(lp264
g115
ag230
asg24
I00
sg25
I00
sg26
I186218
sg17
S'1628.63888651'
p265
sba(igraph
Edge
p266
(dp267
g7
I1
sg8
I00
sg9
I5
sg10
(lp268
(igraph
Vertex
p269
(dp270
g14
F17.0
sg15
F-85.0
sg16
I186258
sg8
I00
sg17
S'1768.77275603'
p271
sg19
g20
sbag230
asg24
I00
sg25
I00
sg26
I186219
sg17
S'1768.7854691'
p272
sba(igraph
Edge
p273
(dp274
g7
I1
sg8
I00
sg9
I5
sg10
(lp275
g12
ag122
asg24
I00
sg25
I00
sg26
I186220
sg17
S'1772.70214008'
p276
sbasS'vertices'
p277
(lp278
g12
ag21
ag31
ag38
ag45
ag52
ag59
ag66
ag73
ag80
ag87
ag94
ag101
ag108
ag115
ag122
ag129
ag132
ag139
ag146
ag153
ag160
ag167
ag174
ag181
ag188
ag195
ag202
ag209
ag216
ag223
ag230
ag269
asS'tags'
p279
(lp280
sb.