(igraph
Graph
p0
(dp1
S'labelingConstraints'
p2
I-1
sS'edges'
p3
(lp4
(igraph
Edge
p5
(dp6
S'direction'
p7
I1
sS'selected'
p8
I00
sS'height'
p9
I5
sS'vs'
p10
(lp11
(igraph
Vertex
p12
(dp13
S'y'
p14
F-16.0
sS'x'
p15
F-118.42105263157889
sS'circle'
p16
I184854
sg8
I00
sS'id'
p17
S'1628.60680282'
p18
sS'label'
p19
S'NULL'
p20
sba(igraph
Vertex
p21
(dp22
g14
F-16.0
sg15
F-102.63157894736837
sg16
I184855
sg8
I00
sg17
S'1628.60683187'
p23
sg19
g20
sbasS'wrap'
p24
I00
sS'curved'
p25
I00
sS'line'
p26
I184809
sg17
S'1628.61434233'
p27
sba(igraph
Edge
p28
(dp29
g7
I1
sg8
I00
sg9
I5
sg10
(lp30
g21
a(igraph
Vertex
p31
(dp32
g14
F-16.0
sg15
F-86.842105263157833
sg16
I184856
sg8
I00
sg17
S'1628.60686959'
p33
sg19
g20
sbasg24
I00
sg25
I00
sg26
I184810
sg17
S'1628.61441943'
p34
sba(igraph
Edge
p35
(dp36
g7
I1
sg8
I00
sg9
I5
sg10
(lp37
g31
a(igraph
Vertex
p38
(dp39
g14
F-16.0
sg15
F-71.052631578947313
sg16
I184857
sg8
I00
sg17
S'1628.60700117'
p40
sg19
g20
sbasg24
I00
sg25
I00
sg26
I184811
sg17
S'1628.61451134'
p41
sba(igraph
Edge
p42
(dp43
g7
I1
sg8
I00
sg9
I5
sg10
(lp44
g38
a(igraph
Vertex
p45
(dp46
g14
F-16.0
sg15
F-55.263157894736793
sg16
I184858
sg8
I00
sg17
S'1628.60705592'
p47
sg19
g20
sbasg24
I00
sg25
I00
sg26
I184812
sg17
S'1628.61462029'
p48
sba(igraph
Edge
p49
(dp50
g7
I1
sg8
I00
sg9
I5
sg10
(lp51
g45
a(igraph
Vertex
p52
(dp53
g14
F-16.0
sg15
F-39.473684210526258
sg16
I184859
sg8
I00
sg17
S'1628.6071199'
p54
sg19
g20
sbasg24
I00
sg25
I00
sg26
I184813
sg17
S'1628.61491083'
p55
sba(igraph
Edge
p56
(dp57
g7
I1
sg8
I00
sg9
I5
sg10
(lp58
g52
a(igraph
Vertex
p59
(dp60
g14
F-16.0
sg15
F-23.684210526315738
sg16
I184860
sg8
I00
sg17
S'1628.60719198'
p61
sg19
g20
sbasg24
I00
sg25
I00
sg26
I184814
sg17
S'1628.61505415'
p62
sba(igraph
Edge
p63
(dp64
g7
I1
sg8
I00
sg9
I5
sg10
(lp65
g59
a(igraph
Vertex
p66
(dp67
g14
F-16.0
sg15
F-7.8947368421052033
sg16
I184861
sg8
I00
sg17
S'1628.60726936'
p68
sg19
g20
sbasg24
I00
sg25
I00
sg26
I184815
sg17
S'1628.61520947'
p69
sba(igraph
Edge
p70
(dp71
g7
I1
sg8
I00
sg9
I5
sg10
(lp72
g66
a(igraph
Vertex
p73
(dp74
g14
F-16.0
sg15
F7.894736842105317
sg16
I184862
sg8
I00
sg17
S'1628.60735764'
p75
sg19
g20
sbasg24
I00
sg25
I00
sg26
I184816
sg17
S'1628.61538073'
p76
sba(igraph
Edge
p77
(dp78
g7
I1
sg8
I00
sg9
I5
sg10
(lp79
g73
a(igraph
Vertex
p80
(dp81
g14
F-16.0
sg15
F23.684210526315866
sg16
I184863
sg8
I00
sg17
S'1628.6074529'
p82
sg19
g20
sbasg24
I00
sg25
I00
sg26
I184817
sg17
S'1628.61556483'
p83
sba(igraph
Edge
p84
(dp85
g7
I1
sg8
I00
sg9
I5
sg10
(lp86
g80
a(igraph
Vertex
p87
(dp88
g14
F-16.0
sg15
F39.473684210526358
sg16
I184864
sg8
I00
sg17
S'1628.60755794'
p89
sg19
g20
sbasg24
I00
sg25
I00
sg26
I184818
sg17
S'1628.61579698'
p90
sba(igraph
Edge
p91
(dp92
g7
I1
sg8
I00
sg9
I5
sg10
(lp93
g87
a(igraph
Vertex
p94
(dp95
g14
F-16.0
sg15
F55.263157894736878
sg16
I184865
sg8
I00
sg17
S'1628.60767304'
p96
sg19
g20
sbasg24
I00
sg25
I00
sg26
I184819
sg17
S'1628.61602634'
p97
sba(igraph
Edge
p98
(dp99
g7
I1
sg8
I00
sg9
I5
sg10
(lp100
g94
a(igraph
Vertex
p101
(dp102
g14
F-16.0
sg15
F71.05263157894737
sg16
I184866
sg8
I00
sg17
S'1628.60779568'
p103
sg19
g20
sbasg24
I00
sg25
I00
sg26
I184820
sg17
S'1628.61626017'
p104
sba(igraph
Edge
p105
(dp106
g7
I1
sg8
I00
sg9
I5
sg10
(lp107
g101
a(igraph
Vertex
p108
(dp109
g14
F-16.0
sg15
F86.84210526315789
sg16
I184867
sg8
I00
sg17
S'1628.60796135'
p110
sg19
g20
sbasg24
I00
sg25
I00
sg26
I184821
sg17
S'1628.61650657'
p111
sba(igraph
Edge
p112
(dp113
g7
I1
sg8
I00
sg9
I5
sg10
(lp114
g108
a(igraph
Vertex
p115
(dp116
g14
F-16.0
sg15
F102.63157894736841
sg16
I184868
sg8
I00
sg17
S'1628.60810187'
p117
sg19
g20
sbasg24
I00
sg25
I00
sg26
I184822
sg17
S'1628.61677727'
p118
sba(igraph
Edge
p119
(dp120
g7
I1
sg8
I00
sg9
I5
sg10
(lp121
g115
a(igraph
Vertex
p122
(dp123
g14
F-16.0
sg15
F118.4210526315789
sg16
I184869
sg8
I00
sg17
S'1628.60824826'
p124
sg19
g20
sbasg24
I00
sg25
I00
sg26
I184823
sg17
S'1628.61706195'
p125
sba(igraph
Edge
p126
(dp127
g7
I1
sg8
I00
sg9
I5
sg10
(lp128
g122
a(igraph
Vertex
p129
(dp130
g14
F-16.0
sg15
F134.21052631578942
sg16
I184871
sg8
I01
sg17
S'1628.60840358'
p131
sg19
I0
sbasg24
I00
sg25
I00
sg26
I184824
sg17
S'1628.61735472'
p132
sba(igraph
Edge
p133
(dp134
g7
I1
sg8
I00
sg9
I5
sg10
(lp135
g129
a(igraph
Vertex
p136
(dp137
g14
F-16.0
sg15
F149.99999999999994
sg16
I184873
sg8
I00
sg17
S'1628.60856897'
p138
sg19
g20
sbasg24
I00
sg25
I00
sg26
I184825
sg17
S'1628.61773298'
p139
sba(igraph
Edge
p140
(dp141
g7
I1
sg8
I00
sg9
I5
sg10
(lp142
(igraph
Vertex
p143
(dp144
g14
F17.0
sg15
F-118.42105263157889
sg16
I184874
sg8
I00
sg17
S'1628.60912742'
p145
sg19
g20
sba(igraph
Vertex
p146
(dp147
g14
F17.0
sg15
F-102.63157894736837
sg16
I184875
sg8
I00
sg17
S'1628.609328'
p148
sg19
g20
sbasg24
I00
sg25
I00
sg26
I184826
sg17
S'1628.61995561'
p149
sba(igraph
Edge
p150
(dp151
g7
I1
sg8
I00
sg9
I5
sg10
(lp152
g146
a(igraph
Vertex
p153
(dp154
g14
F17.0
sg15
F-86.842105263157833
sg16
I184876
sg8
I00
sg17
S'1628.60953557'
p155
sg19
g20
sbasg24
I00
sg25
I00
sg26
I184827
sg17
S'1628.62035063'
p156
sba(igraph
Edge
p157
(dp158
g7
I1
sg8
I00
sg9
I5
sg10
(lp159
g153
a(igraph
Vertex
p160
(dp161
g14
F17.0
sg15
F-71.052631578947313
sg16
I184877
sg8
I00
sg17
S'1628.60975347'
p162
sg19
I0
sbasg24
I00
sg25
I00
sg26
I184828
sg17
S'1628.62079762'
p163
sba(igraph
Edge
p164
(dp165
g7
I1
sg8
I00
sg9
I5
sg10
(lp166
g160
a(igraph
Vertex
p167
(dp168
g14
F17.0
sg15
F-55.263157894736793
sg16
I184879
sg8
I00
sg17
S'1628.60999513'
p169
sg19
g20
sbasg24
I00
sg25
I00
sg26
I184829
sg17
S'1628.62131193'
p170
sba(igraph
Edge
p171
(dp172
g7
I1
sg8
I00
sg9
I5
sg10
(lp173
g167
a(igraph
Vertex
p174
(dp175
g14
F17.0
sg15
F-39.473684210526258
sg16
I184880
sg8
I00
sg17
S'1628.61022951'
p176
sg19
g20
sbasg24
I00
sg25
I00
sg26
I184830
sg17
S'1628.62176729'
p177
sba(igraph
Edge
p178
(dp179
g7
I1
sg8
I00
sg9
I5
sg10
(lp180
g174
a(igraph
Vertex
p181
(dp182
g14
F17.0
sg15
F-23.684210526315738
sg16
I184881
sg8
I00
sg17
S'1628.61047116'
p183
sg19
g20
sbasg24
I00
sg25
I00
sg26
I184831
sg17
S'1628.62222126'
p184
sba(igraph
Edge
p185
(dp186
g7
I1
sg8
I00
sg9
I5
sg10
(lp187
g181
a(igraph
Vertex
p188
(dp189
g14
F17.0
sg15
F-7.8947368421052033
sg16
I184882
sg8
I00
sg17
S'1628.61072259'
p190
sg19
I0
sbasg24
I00
sg25
I00
sg26
I184832
sg17
S'1628.62268417'
p191
sba(igraph
Edge
p192
(dp193
g7
I1
sg8
I00
sg9
I5
sg10
(lp194
g188
a(igraph
Vertex
p195
(dp196
g14
F17.0
sg15
F7.894736842105317
sg16
I184884
sg8
I00
sg17
S'1628.6109933'
p197
sg19
g20
sbasg24
I00
sg25
I00
sg26
I184833
sg17
S'1628.62337196'
p198
sba(igraph
Edge
p199
(dp200
g7
I1
sg8
I00
sg9
I5
sg10
(lp201
g195
a(igraph
Vertex
p202
(dp203
g14
F17.0
sg15
F23.684210526315866
sg16
I184885
sg8
I00
sg17
S'1628.611264'
p204
sg19
g20
sbasg24
I00
sg25
I00
sg26
I184834
sg17
S'1628.62411759'
p205
sba(igraph
Edge
p206
(dp207
g7
I1
sg8
I00
sg9
I5
sg10
(lp208
g202
a(igraph
Vertex
p209
(dp210
g14
F17.0
sg15
F39.473684210526358
sg16
I184886
sg8
I00
sg17
S'1628.61154253'
p211
sg19
g20
sbasg24
I00
sg25
I00
sg26
I184835
sg17
S'1628.62470426'
p212
sba(igraph
Edge
p213
(dp214
g7
I1
sg8
I00
sg9
I5
sg10
(lp215
g209
a(igraph
Vertex
p216
(dp217
g14
F17.0
sg15
F55.263157894736878
sg16
I184887
sg8
I00
sg17
S'1628.61192163'
p218
sg19
I0
sbasg24
I00
sg25
I00
sg26
I184836
sg17
S'1628.62528701'
p219
sba(igraph
Edge
p220
(dp221
g7
I1
sg8
I00
sg9
I5
sg10
(lp222
g216
a(igraph
Vertex
p223
(dp224
g14
F17.0
sg15
F71.05263157894737
sg16
I184889
sg8
I00
sg17
S'1628.61222027'
p225
sg19
g20
sbasg24
I00
sg25
I00
sg26
I184837
sg17
S'1628.62592816'
p226
sba(igraph
Edge
p227
(dp228
g7
I1
sg8
I00
sg9
I5
sg10
(lp229
g223
a(igraph
Vertex
p230
(dp231
g14
F17.0
sg15
F86.84210526315789
sg16
I184890
sg8
I00
sg17
S'1628.61252617'
p232
sg19
g20
sbasg24
I00
sg25
I00
sg26
I184838
sg17
S'1628.62656511'
p233
sba(igraph
Edge
p234
(dp235
g7
I1
sg8
I00
sg9
I5
sg10
(lp236
g230
a(igraph
Vertex
p237
(dp238
g14
F17.0
sg15
F102.63157894736841
sg16
I184891
sg8
I00
sg17
S'1628.612848'
p239
sg19
g20
sbasg24
I00
sg25
I00
sg26
I184839
sg17
S'1628.62722804'
p240
sba(igraph
Edge
p241
(dp242
g7
I1
sg8
I00
sg9
I5
sg10
(lp243
g237
a(igraph
Vertex
p244
(dp245
g14
F17.0
sg15
F118.4210526315789
sg16
I184892
sg8
I00
sg17
S'1628.61317123'
p246
sg19
I0
sbasg24
I00
sg25
I00
sg26
I184840
sg17
S'1628.62795467'
p247
sba(igraph
Edge
p248
(dp249
g7
I1
sg8
I00
sg9
I5
sg10
(lp250
g244
a(igraph
Vertex
p251
(dp252
g14
F17.0
sg15
F134.21052631578942
sg16
I184894
sg8
I00
sg17
S'1628.61350507'
p253
sg19
g20
sbasg24
I00
sg25
I00
sg26
I184841
sg17
S'1628.62865532'
p254
sba(igraph
Edge
p255
(dp256
g7
I1
sg8
I00
sg9
I5
sg10
(lp257
g251
a(igraph
Vertex
p258
(dp259
g14
F17.0
sg15
F149.99999999999994
sg16
I184895
sg8
I00
sg17
S'1628.61385874'
p260
sg19
g20
sbasg24
I00
sg25
I00
sg26
I184842
sg17
S'1628.6293867'
p261
sba(igraph
Edge
p262
(dp263
g7
I1
sg8
I00
sg9
I5
sg10
(lp264
g12
ag146
asg24
I00
sg25
I00
sg26
I184843
sg17
S'1628.63164061'
p265
sba(igraph
Edge
p266
(dp267
g7
I1
sg8
I00
sg9
I5
sg10
(lp268
g31
ag160
asg24
I00
sg25
I00
sg26
I184844
sg17
S'1628.63247284'
p269
sba(igraph
Edge
p270
(dp271
g7
I1
sg8
I00
sg9
I5
sg10
(lp272
g45
ag174
asg24
I00
sg25
I00
sg26
I184845
sg17
S'1628.633264'
p273
sba(igraph
Edge
p274
(dp275
g7
I1
sg8
I00
sg9
I5
sg10
(lp276
g59
ag188
asg24
I00
sg25
I00
sg26
I184846
sg17
S'1628.63406969'
p277
sba(igraph
Edge
p278
(dp279
g7
I1
sg8
I00
sg9
I5
sg10
(lp280
g73
ag202
asg24
I00
sg25
I00
sg26
I184847
sg17
S'1628.63490499'
p281
sba(igraph
Edge
p282
(dp283
g7
I1
sg8
I00
sg9
I5
sg10
(lp284
g87
ag216
asg24
I00
sg25
I00
sg26
I184848
sg17
S'1628.63577745'
p285
sba(igraph
Edge
p286
(dp287
g7
I1
sg8
I00
sg9
I5
sg10
(lp288
g101
ag230
asg24
I00
sg25
I00
sg26
I184849
sg17
S'1628.63673875'
p289
sba(igraph
Edge
p290
(dp291
g7
I1
sg8
I00
sg9
I5
sg10
(lp292
g115
ag244
asg24
I00
sg25
I00
sg26
I184850
sg17
S'1628.63771541'
p293
sba(igraph
Edge
p294
(dp295
g7
I1
sg8
I00
sg9
I5
sg10
(lp296
g129
ag258
asg24
I00
sg25
I00
sg26
I184851
sg17
S'1628.63888651'
p297
sba(igraph
Edge
p298
(dp299
g7
I1
sg8
I00
sg9
I5
sg10
(lp300
g143
ag258
asg24
I00
sg25
I00
sg26
I184852
sg17
S'1699.87100372'
p301
sba(igraph
Edge
p302
(dp303
g7
I1
sg8
I00
sg9
I5
sg10
(lp304
g12
ag136
asg24
I00
sg25
I00
sg26
I184853
sg17
S'1715.61750306'
p305
sbasS'vertices'
p306
(lp307
g12
ag21
ag31
ag38
ag45
ag52
ag59
ag66
ag73
ag80
ag87
ag94
ag101
ag108
ag115
ag122
ag129
ag136
ag143
ag146
ag153
ag160
ag167
ag174
ag181
ag188
ag195
ag202
ag209
ag216
ag223
ag230
ag237
ag244
ag251
ag258
asS'tags'
p308
(lp309
sb.