(igraph
Graph
p0
(dp1
S'labelingConstraints'
p2
I-1
sS'edges'
p3
(lp4
(igraph
Edge
p5
(dp6
S'direction'
p7
I1
sS'selected'
p8
I00
sS'height'
p9
I5
sS'vs'
p10
(lp11
(igraph
Vertex
p12
(dp13
S'xnorm'
p14
F0.0
sg8
I00
sS'label'
p15
S'NULL'
p16
sS'y'
p17
F-104.0
sS'x'
p18
F-252.0
sS'circle'
p19
I138896
sS'id'
p20
S'1163.1040487'
p21
sS'ynorm'
p22
F0.0
sba(igraph
Vertex
p23
(dp24
g14
F0.052631578947368411
sg8
I00
sg15
g16
sg17
F-104.0
sg18
F-224.84210526315789
sg19
I138897
sg20
S'1163.10408641'
p25
sg22
F0.0
sbasS'wrap'
p26
I00
sS'curved'
p27
I00
sS'line'
p28
I138836
sg20
S'1163.13455062'
p29
sba(igraph
Edge
p30
(dp31
g7
I1
sg8
I00
sg9
I5
sg10
(lp32
g23
a(igraph
Vertex
p33
(dp34
g14
F0.10526315789473689
sg8
I00
sg15
g16
sg17
F-104.0
sg18
F-197.68421052631578
sg19
I138898
sg20
S'1163.10412999'
p35
sg22
F0.0
sbasg26
I00
sg27
I00
sg28
I138837
sg20
S'1163.13464952'
p36
sba(igraph
Edge
p37
(dp38
g7
I1
sg8
I00
sg9
I5
sg10
(lp39
g33
a(igraph
Vertex
p40
(dp41
g14
F0.15789473684210531
sg8
I00
sg15
g16
sg17
F-104.0
sg18
F-170.52631578947364
sg19
I138899
sg20
S'1163.10418335'
p42
sg22
F0.0
sbasg26
I00
sg27
I00
sg28
I138838
sg20
S'1163.13477774'
p43
sba(igraph
Edge
p44
(dp45
g7
I1
sg8
I00
sg9
I5
sg10
(lp46
g40
a(igraph
Vertex
p47
(dp48
g14
F0.21052631578947378
sg8
I00
sg15
g16
sg17
F-104.0
sg18
F-143.36842105263153
sg19
I138900
sg20
S'1163.1042518'
p49
sg22
F0.0
sbasg26
I00
sg27
I00
sg28
I138839
sg20
S'1163.13494536'
p50
sba(igraph
Edge
p51
(dp52
g7
I1
sg8
I00
sg9
I5
sg10
(lp53
g47
a(igraph
Vertex
p54
(dp55
g14
F0.2631578947368422
sg8
I00
sg15
g16
sg17
F-104.0
sg18
F-116.21052631578942
sg19
I138901
sg20
S'1163.10433449'
p56
sg22
F0.0
sbasg26
I00
sg27
I00
sg28
I138840
sg20
S'1163.13513338'
p57
sba(igraph
Edge
p58
(dp59
g7
I1
sg8
I00
sg9
I5
sg10
(lp60
g54
a(igraph
Vertex
p61
(dp62
g14
F0.31578947368421062
sg8
I00
sg15
g16
sg17
F-104.0
sg18
F-89.052631578947313
sg19
I138902
sg20
S'1163.10443311'
p63
sg22
F0.0
sbasg26
I00
sg27
I00
sg28
I138841
sg20
S'1163.13535352'
p64
sba(igraph
Edge
p65
(dp66
g7
I1
sg8
I00
sg9
I5
sg10
(lp67
g61
a(igraph
Vertex
p68
(dp69
g14
F0.36842105263157909
sg8
I00
sg15
g16
sg17
F-104.0
sg18
F-61.894736842105175
sg19
I138903
sg20
S'1163.10454569'
p70
sg22
F0.0
sbasg26
I00
sg27
I00
sg28
I138842
sg20
S'1163.13560383'
p71
sba(igraph
Edge
p72
(dp73
g7
I1
sg8
I00
sg9
I5
sg10
(lp74
g68
a(igraph
Vertex
p75
(dp76
g14
F0.42105263157894751
sg8
I00
sg15
g16
sg17
F-104.0
sg18
F-34.736842105263094
sg19
I138904
sg20
S'1163.10467308'
p77
sg22
F0.0
sbasg26
I00
sg27
I00
sg28
I138843
sg20
S'1163.13589213'
p78
sba(igraph
Edge
p79
(dp80
g7
I1
sg8
I00
sg9
I5
sg10
(lp81
g75
a(igraph
Vertex
p82
(dp83
g14
F0.47368421052631599
sg8
I00
sg15
g16
sg17
F-104.0
sg18
F-7.5789473684209554
sg19
I138905
sg20
S'1163.10481611'
p84
sg22
F0.0
sbasg26
I00
sg27
I00
sg28
I138844
sg20
S'1163.13620726'
p85
sba(igraph
Edge
p86
(dp87
g7
I1
sg8
I00
sg9
I5
sg10
(lp88
g82
a(igraph
Vertex
p89
(dp90
g14
F0.5263157894736844
sg8
I00
sg15
g16
sg17
F-104.0
sg18
F19.578947368421154
sg19
I138906
sg20
S'1163.10497368'
p91
sg22
F0.0
sbasg26
I00
sg27
I00
sg28
I138845
sg20
S'1163.13655311'
p92
sba(igraph
Edge
p93
(dp94
g7
I1
sg8
I00
sg9
I5
sg10
(lp95
g89
a(igraph
Vertex
p96
(dp97
g14
F0.57894736842105288
sg8
I00
sg15
g16
sg17
F-104.0
sg18
F46.736842105263293
sg19
I138907
sg20
S'1163.10514912'
p98
sg22
F0.0
sbasg26
I00
sg27
I00
sg28
I138846
sg20
S'1163.13702272'
p99
sba(igraph
Edge
p100
(dp101
g7
I1
sg8
I00
sg9
I5
sg10
(lp102
g96
a(igraph
Vertex
p103
(dp104
g14
F0.63157894736842124
sg8
I00
sg15
g16
sg17
F-104.0
sg18
F73.894736842105374
sg19
I138908
sg20
S'1163.1053402'
p105
sg22
F0.0
sbasg26
I00
sg27
I00
sg28
I138847
sg20
S'1163.13744345'
p106
sba(igraph
Edge
p107
(dp108
g7
I1
sg8
I00
sg9
I5
sg10
(lp109
g103
a(igraph
Vertex
p110
(dp111
g14
F0.6842105263157896
sg8
I00
sg15
g16
sg17
F-104.0
sg18
F101.05263157894746
sg19
I138909
sg20
S'1163.10554665'
p112
sg22
F0.0
sbasg26
I00
sg27
I00
sg28
I138848
sg20
S'1163.13789406'
p113
sba(igraph
Edge
p114
(dp115
g7
I1
sg8
I00
sg9
I5
sg10
(lp116
g110
a(igraph
Vertex
p117
(dp118
g14
F0.73684210526315796
sg8
I00
sg15
g16
sg17
F-104.0
sg18
F128.21052631578954
sg19
I138910
sg20
S'1163.10576987'
p119
sg22
F0.0
sbasg26
I00
sg27
I00
sg28
I138849
sg20
S'1163.13836675'
p120
sba(igraph
Edge
p121
(dp122
g7
I1
sg8
I00
sg9
I5
sg10
(lp123
g117
a(igraph
Vertex
p124
(dp125
g14
F0.78947368421052644
sg8
I00
sg15
g16
sg17
F-104.0
sg18
F155.36842105263162
sg19
I138911
sg20
S'1163.10600621'
p126
sg22
F0.0
sbasg26
I00
sg27
I00
sg28
I138850
sg20
S'1163.13887016'
p127
sba(igraph
Edge
p128
(dp129
g7
I1
sg8
I00
sg9
I5
sg10
(lp130
g124
a(igraph
Vertex
p131
(dp132
g14
F0.8421052631578948
sg8
I01
sg15
I0
sg17
F-104.0
sg18
F182.5263157894737
sg19
I138913
sg20
S'1163.10625959'
p133
sg22
F0.0
sbasg26
I00
sg27
I00
sg28
I138851
sg20
S'1163.13940459'
p134
sba(igraph
Edge
p135
(dp136
g7
I1
sg8
I00
sg9
I5
sg10
(lp137
g131
a(igraph
Vertex
p138
(dp139
g14
F0.89473684210526316
sg8
I00
sg15
g16
sg17
F-104.0
sg18
F209.68421052631578
sg19
I138915
sg20
S'1163.10652806'
p140
sg22
F0.0
sbasg26
I00
sg27
I00
sg28
I138852
sg20
S'1163.13996835'
p141
sba(igraph
Edge
p142
(dp143
g7
I1
sg8
I00
sg9
I5
sg10
(lp144
g138
a(igraph
Vertex
p145
(dp146
g14
F0.94736842105263164
sg8
I00
sg15
g16
sg17
F-104.0
sg18
F236.84210526315792
sg19
I138916
sg20
S'1163.10685464'
p147
sg22
F0.0
sbasg26
I00
sg27
I00
sg28
I138853
sg20
S'1163.1405715'
p148
sba(igraph
Edge
p149
(dp150
g7
I1
sg8
I00
sg9
I5
sg10
(lp151
g145
a(igraph
Vertex
p152
(dp153
g14
F1.0
sg8
I00
sg15
g16
sg17
F-104.0
sg18
F264.0
sg19
I138917
sg20
S'1163.10715887'
p154
sg22
F0.0
sbasg26
I00
sg27
I00
sg28
I138854
sg20
S'1163.14120202'
p155
sba(igraph
Edge
p156
(dp157
g7
I1
sg8
I00
sg9
I5
sg10
(lp158
g152
ag12
asg26
I00
sg27
I00
sg28
I138855
sg20
S'1163.14185937'
p159
sba(igraph
Edge
p160
(dp161
g7
I1
sg8
I00
sg9
I5
sg10
(lp162
(igraph
Vertex
p163
(dp164
g14
F0.0
sg8
I01
sg15
I0
sg17
F-35.5
sg18
F-252.0
sg19
I138919
sg20
S'1163.10747846'
p165
sg22
F0.5
sba(igraph
Vertex
p166
(dp167
g14
F0.052631578947368411
sg8
I00
sg15
g16
sg17
F-35.5
sg18
F-224.84210526315789
sg19
I138921
sg20
S'1163.10781705'
p168
sg22
F0.5
sbasg26
I00
sg27
I00
sg28
I138856
sg20
S'1163.14254912'
p169
sba(igraph
Edge
p170
(dp171
g7
I1
sg8
I00
sg9
I5
sg10
(lp172
g166
a(igraph
Vertex
p173
(dp174
g14
F0.10526315789473689
sg8
I01
sg15
I0
sg17
F-35.5
sg18
F-197.68421052631578
sg19
I138923
sg20
S'1163.10817241'
p175
sg22
F0.5
sbasg26
I00
sg27
I00
sg28
I138857
sg20
S'1163.14329251'
p176
sba(igraph
Edge
p177
(dp178
g7
I1
sg8
I00
sg9
I5
sg10
(lp179
g173
a(igraph
Vertex
p180
(dp181
g14
F0.15789473684210531
sg8
I00
sg15
g16
sg17
F-35.5
sg18
F-170.52631578947364
sg19
I138925
sg20
S'1163.10854312'
p182
sg22
F0.5
sbasg26
I00
sg27
I00
sg28
I138858
sg20
S'1163.14404792'
p183
sba(igraph
Edge
p184
(dp185
g7
I1
sg8
I00
sg9
I5
sg10
(lp186
g180
a(igraph
Vertex
p187
(dp188
g14
F0.21052631578947378
sg8
I01
sg15
I0
sg17
F-35.5
sg18
F-143.36842105263153
sg19
I138927
sg20
S'1163.10892725'
p189
sg22
F0.5
sbasg26
I00
sg27
I00
sg28
I138859
sg20
S'1163.14483936'
p190
sba(igraph
Edge
p191
(dp192
g7
I1
sg8
I00
sg9
I5
sg10
(lp193
g187
a(igraph
Vertex
p194
(dp195
g14
F0.2631578947368422
sg8
I00
sg15
g16
sg17
F-35.5
sg18
F-116.21052631578942
sg19
I138929
sg20
S'1163.10932842'
p196
sg22
F0.5
sbasg26
I00
sg27
I00
sg28
I138860
sg20
S'1163.14567913'
p197
sba(igraph
Edge
p198
(dp199
g7
I1
sg8
I00
sg9
I5
sg10
(lp200
g194
a(igraph
Vertex
p201
(dp202
g14
F0.31578947368421062
sg8
I01
sg15
I0
sg17
F-35.5
sg18
F-89.052631578947313
sg19
I138931
sg20
S'1163.1097687'
p203
sg22
F0.5
sbasg26
I00
sg27
I00
sg28
I138861
sg20
S'1163.14665356'
p204
sba(igraph
Edge
p205
(dp206
g7
I1
sg8
I00
sg9
I5
sg10
(lp207
g201
a(igraph
Vertex
p208
(dp209
g14
F0.36842105263157909
sg8
I00
sg15
g16
sg17
F-35.5
sg18
F-61.894736842105175
sg19
I138933
sg20
S'1163.11020535'
p210
sg22
F0.5
sbasg26
I00
sg27
I00
sg28
I138862
sg20
S'1163.1475763'
p211
sba(igraph
Edge
p212
(dp213
g7
I1
sg8
I00
sg9
I5
sg10
(lp214
g208
a(igraph
Vertex
p215
(dp216
g14
F0.42105263157894751
sg8
I01
sg15
I0
sg17
F-35.5
sg18
F-34.736842105263094
sg19
I138935
sg20
S'1163.1106568'
p217
sg22
F0.5
sbasg26
I00
sg27
I00
sg28
I138863
sg20
S'1163.14850798'
p218
sba(igraph
Edge
p219
(dp220
g7
I1
sg8
I00
sg9
I5
sg10
(lp221
g215
a(igraph
Vertex
p222
(dp223
g14
F0.47368421052631599
sg8
I00
sg15
g16
sg17
F-35.5
sg18
F-7.5789473684209554
sg19
I138937
sg20
S'1163.11112362'
p224
sg22
F0.5
sbasg26
I00
sg27
I00
sg28
I138864
sg20
S'1163.14951537'
p225
sba(igraph
Edge
p226
(dp227
g7
I1
sg8
I00
sg9
I5
sg10
(lp228
g222
a(igraph
Vertex
p229
(dp230
g14
F0.5263157894736844
sg8
I01
sg15
I0
sg17
F-35.5
sg18
F19.578947368421154
sg19
I138939
sg20
S'1163.11161083'
p231
sg22
F0.5
sbasg26
I00
sg27
I00
sg28
I138865
sg20
S'1163.15049399'
p232
sba(igraph
Edge
p233
(dp234
g7
I1
sg8
I00
sg9
I5
sg10
(lp235
g229
a(igraph
Vertex
p236
(dp237
g14
F0.57894736842105288
sg8
I00
sg15
g16
sg17
F-35.5
sg18
F46.736842105263293
sg19
I138941
sg20
S'1163.11211146'
p238
sg22
F0.5
sbasg26
I00
sg27
I00
sg28
I138866
sg20
S'1163.15149914'
p239
sba(igraph
Edge
p240
(dp241
g7
I1
sg8
I00
sg9
I5
sg10
(lp242
g236
a(igraph
Vertex
p243
(dp244
g14
F0.63157894736842124
sg8
I01
sg15
I0
sg17
F-35.5
sg18
F73.894736842105374
sg19
I138943
sg20
S'1163.1126565'
p245
sg22
F0.5
sbasg26
I00
sg27
I00
sg28
I138867
sg20
S'1163.15254229'
p246
sba(igraph
Edge
p247
(dp248
g7
I1
sg8
I00
sg9
I5
sg10
(lp249
g243
a(igraph
Vertex
p250
(dp251
g14
F0.6842105263157896
sg8
I00
sg15
g16
sg17
F-35.5
sg18
F101.05263157894746
sg19
I138945
sg20
S'1163.11319567'
p252
sg22
F0.5
sbasg26
I00
sg27
I00
sg28
I138868
sg20
S'1163.15362176'
p253
sba(igraph
Edge
p254
(dp255
g7
I1
sg8
I00
sg9
I5
sg10
(lp256
g250
a(igraph
Vertex
p257
(dp258
g14
F0.73684210526315796
sg8
I01
sg15
I0
sg17
F-35.5
sg18
F128.21052631578954
sg19
I138947
sg20
S'1163.11374965'
p259
sg22
F0.5
sbasg26
I00
sg27
I00
sg28
I138869
sg20
S'1163.15479537'
p260
sba(igraph
Edge
p261
(dp262
g7
I1
sg8
I00
sg9
I5
sg10
(lp263
g257
a(igraph
Vertex
p264
(dp265
g14
F0.78947368421052644
sg8
I00
sg15
g16
sg17
F-35.5
sg18
F155.36842105263162
sg19
I138949
sg20
S'1163.1143176'
p266
sg22
F0.5
sbasg26
I00
sg27
I00
sg28
I138870
sg20
S'1163.1559539'
p267
sba(igraph
Edge
p268
(dp269
g7
I1
sg8
I00
sg9
I5
sg10
(lp270
g264
a(igraph
Vertex
p271
(dp272
g14
F0.8421052631578948
sg8
I01
sg15
I0
sg17
F-35.5
sg18
F182.5263157894737
sg19
I138951
sg20
S'1163.1150135'
p273
sg22
F0.5
sbasg26
I00
sg27
I00
sg28
I138871
sg20
S'1163.15716858'
p274
sba(igraph
Edge
p275
(dp276
g7
I1
sg8
I00
sg9
I5
sg10
(lp277
g271
a(igraph
Vertex
p278
(dp279
g14
F0.89473684210526316
sg8
I00
sg15
g16
sg17
F-35.5
sg18
F209.68421052631578
sg19
I138953
sg20
S'1163.11571275'
p280
sg22
F0.5
sbasg26
I00
sg27
I00
sg28
I138872
sg20
S'1163.15840645'
p281
sba(igraph
Edge
p282
(dp283
g7
I1
sg8
I00
sg9
I5
sg10
(lp284
g278
a(igraph
Vertex
p285
(dp286
g14
F0.94736842105263164
sg8
I00
sg15
g16
sg17
F-35.5
sg18
F236.84210526315792
sg19
I138954
sg20
S'1163.11632959'
p287
sg22
F0.5
sbasg26
I00
sg27
I00
sg28
I138873
sg20
S'1163.15964627'
p288
sba(igraph
Edge
p289
(dp290
g7
I1
sg8
I00
sg9
I5
sg10
(lp291
g285
a(igraph
Vertex
p292
(dp293
g14
F1.0
sg8
I00
sg15
g16
sg17
F-35.5
sg18
F264.0
sg19
I138955
sg20
S'1163.116959'
p294
sg22
F0.5
sbasg26
I00
sg27
I00
sg28
I138874
sg20
S'1163.16092185'
p295
sba(igraph
Edge
p296
(dp297
g7
I1
sg8
I00
sg9
I5
sg10
(lp298
g292
ag163
asg26
I00
sg27
I00
sg28
I138875
sg20
S'1163.16221894'
p299
sba(igraph
Edge
p300
(dp301
g7
I1
sg8
I00
sg9
I5
sg10
(lp302
g12
ag166
asg26
I00
sg27
I00
sg28
I138876
sg20
S'1163.1976416'
p303
sba(igraph
Edge
p304
(dp305
g7
I1
sg8
I00
sg9
I5
sg10
(lp306
g33
ag180
asg26
I00
sg27
I00
sg28
I138877
sg20
S'1163.19962006'
p307
sba(igraph
Edge
p308
(dp309
g7
I1
sg8
I00
sg9
I5
sg10
(lp310
g47
ag194
asg26
I00
sg27
I00
sg28
I138878
sg20
S'1163.2016435'
p311
sba(igraph
Edge
p312
(dp313
g7
I1
sg8
I00
sg9
I5
sg10
(lp314
g61
ag208
asg26
I00
sg27
I00
sg28
I138879
sg20
S'1163.20384602'
p315
sba(igraph
Edge
p316
(dp317
g7
I1
sg8
I00
sg9
I5
sg10
(lp318
g75
ag222
asg26
I00
sg27
I00
sg28
I138880
sg20
S'1163.20599937'
p319
sba(igraph
Edge
p320
(dp321
g7
I1
sg8
I00
sg9
I5
sg10
(lp322
g89
ag236
asg26
I00
sg27
I00
sg28
I138881
sg20
S'1163.20809516'
p323
sba(igraph
Edge
p324
(dp325
g7
I1
sg8
I00
sg9
I5
sg10
(lp326
g103
ag250
asg26
I00
sg27
I00
sg28
I138882
sg20
S'1163.21025968'
p327
sba(igraph
Edge
p328
(dp329
g7
I1
sg8
I00
sg9
I5
sg10
(lp330
g117
ag264
asg26
I00
sg27
I00
sg28
I138883
sg20
S'1163.21256389'
p331
sba(igraph
Edge
p332
(dp333
g7
I1
sg8
I00
sg9
I5
sg10
(lp334
g131
ag278
asg26
I00
sg27
I00
sg28
I138884
sg20
S'1163.2149505'
p335
sba(igraph
Edge
p336
(dp337
g7
I1
sg8
I00
sg9
I5
sg10
(lp338
g145
ag292
asg26
I00
sg27
I00
sg28
I138885
sg20
S'1163.21734969'
p339
sba(igraph
Edge
p340
(dp341
g7
I1
sg8
I00
sg9
I5
sg10
(lp342
g163
a(igraph
Vertex
p343
(dp344
g14
F0.052631578947368411
sg8
I00
sg15
g16
sg17
F33.0
sg18
F-224.84210526315789
sg19
I138956
sg20
S'1163.11827453'
p345
sg22
F1.0
sbasg26
I00
sg27
I00
sg28
I138886
sg20
S'1163.24476882'
p346
sba(igraph
Edge
p347
(dp348
g7
I1
sg8
I00
sg9
I5
sg10
(lp349
g173
a(igraph
Vertex
p350
(dp351
g14
F0.15789473684210531
sg8
I00
sg15
g16
sg17
F33.0
sg18
F-170.52631578947364
sg19
I138957
sg20
S'1163.11965599'
p352
sg22
F1.0
sbasg26
I00
sg27
I00
sg28
I138887
sg20
S'1163.24754515'
p353
sba(igraph
Edge
p354
(dp355
g7
I1
sg8
I00
sg9
I5
sg10
(lp356
g187
a(igraph
Vertex
p357
(dp358
g14
F0.2631578947368422
sg8
I00
sg15
g16
sg17
F33.0
sg18
F-116.21052631578942
sg19
I138958
sg20
S'1163.12109863'
p359
sg22
F1.0
sbasg26
I00
sg27
I00
sg28
I138888
sg20
S'1163.25022845'
p360
sba(igraph
Edge
p361
(dp362
g7
I1
sg8
I00
sg9
I5
sg10
(lp363
g201
a(igraph
Vertex
p364
(dp365
g14
F0.36842105263157909
sg8
I00
sg15
g16
sg17
F33.0
sg18
F-61.894736842105175
sg19
I138959
sg20
S'1163.12262927'
p366
sg22
F1.0
sbasg26
I00
sg27
I00
sg28
I138889
sg20
S'1163.25262177'
p367
sba(igraph
Edge
p368
(dp369
g7
I1
sg8
I00
sg9
I5
sg10
(lp370
g215
a(igraph
Vertex
p371
(dp372
g14
F0.47368421052631599
sg8
I00
sg15
g16
sg17
F33.0
sg18
F-7.5789473684209554
sg19
I138960
sg20
S'1163.12420489'
p373
sg22
F1.0
sbasg26
I00
sg27
I00
sg28
I138890
sg20
S'1163.25386076'
p374
sba(igraph
Edge
p375
(dp376
g7
I1
sg8
I00
sg9
I5
sg10
(lp377
g229
a(igraph
Vertex
p378
(dp379
g14
F0.57894736842105288
sg8
I00
sg15
g16
sg17
F33.0
sg18
F46.736842105263293
sg19
I138961
sg20
S'1163.12584672'
p380
sg22
F1.0
sbasg26
I00
sg27
I00
sg28
I138891
sg20
S'1163.25510421'
p381
sba(igraph
Edge
p382
(dp383
g7
I1
sg8
I00
sg9
I5
sg10
(lp384
g243
a(igraph
Vertex
p385
(dp386
g14
F0.6842105263157896
sg8
I00
sg15
g16
sg17
F33.0
sg18
F101.05263157894746
sg19
I138962
sg20
S'1163.12756314'
p387
sg22
F1.0
sbasg26
I00
sg27
I00
sg28
I138892
sg20
S'1163.25636331'
p388
sba(igraph
Edge
p389
(dp390
g7
I1
sg8
I00
sg9
I5
sg10
(lp391
g257
a(igraph
Vertex
p392
(dp393
g14
F0.78947368421052644
sg8
I00
sg15
g16
sg17
F33.0
sg18
F155.36842105263162
sg19
I138963
sg20
S'1163.12933152'
p394
sg22
F1.0
sbasg26
I00
sg27
I00
sg28
I138893
sg20
S'1163.25764448'
p395
sba(igraph
Edge
p396
(dp397
g7
I1
sg8
I00
sg9
I5
sg10
(lp398
g271
a(igraph
Vertex
p399
(dp400
g14
F0.89473684210526316
sg8
I00
sg15
g16
sg17
F33.0
sg18
F209.68421052631578
sg19
I138964
sg20
S'1163.13138234'
p401
sg22
F1.0
sbasg26
I00
sg27
I00
sg28
I138894
sg20
S'1163.25893933'
p402
sba(igraph
Edge
p403
(dp404
g7
I1
sg8
I00
sg9
I5
sg10
(lp405
g285
a(igraph
Vertex
p406
(dp407
g14
F1.0
sg8
I00
sg15
g16
sg17
F33.0
sg18
F264.0
sg19
I138965
sg20
S'1163.13351892'
p408
sg22
F1.0
sbasg26
I00
sg27
I00
sg28
I138895
sg20
S'1163.26027051'
p409
sbasS'vertices'
p410
(lp411
g12
ag23
ag33
ag40
ag47
ag54
ag61
ag68
ag75
ag82
ag89
ag96
ag103
ag110
ag117
ag124
ag131
ag138
ag145
ag152
ag163
ag166
ag173
ag180
ag187
ag194
ag201
ag208
ag215
ag222
ag229
ag236
ag243
ag250
ag257
ag264
ag271
ag278
ag285
ag292
ag343
ag350
ag357
ag364
ag371
ag378
ag385
ag392
ag399
ag406
asS'tags'
p412
(lp413
sb.