(igraph
Graph
p0
(dp1
S'labelingConstraints'
p2
I-1
sS'edges'
p3
(lp4
(igraph
Edge
p5
(dp6
S'direction'
p7
I1
sS'selected'
p8
I00
sS'height'
p9
I5
sS'vs'
p10
(lp11
(igraph
Vertex
p12
(dp13
S'xnorm'
p14
F0.42105263157894751
sg8
I00
sS'label'
p15
S'NULL'
p16
sS'y'
p17
F-104.0
sS'x'
p18
F-34.736842105263094
sS'circle'
p19
I166542
sS'id'
p20
S'1163.10467308'
p21
sS'ynorm'
p22
F0.0
sba(igraph
Vertex
p23
(dp24
g14
F0.47368421052631599
sg8
I00
sg15
g16
sg17
F-104.0
sg18
F-7.5789473684209554
sg19
I166543
sg20
S'1163.10481611'
p25
sg22
F0.0
sbasS'wrap'
p26
I00
sS'curved'
p27
I00
sS'line'
p28
I166506
sg20
S'1163.13620726'
p29
sba(igraph
Edge
p30
(dp31
g7
I1
sg8
I00
sg9
I5
sg10
(lp32
g23
a(igraph
Vertex
p33
(dp34
g14
F0.5263157894736844
sg8
I00
sg15
g16
sg17
F-104.0
sg18
F19.578947368421154
sg19
I166544
sg20
S'1163.10497368'
p35
sg22
F0.0
sbasg26
I00
sg27
I00
sg28
I166507
sg20
S'1163.13655311'
p36
sba(igraph
Edge
p37
(dp38
g7
I1
sg8
I00
sg9
I5
sg10
(lp39
g33
a(igraph
Vertex
p40
(dp41
g14
F0.57894736842105288
sg8
I00
sg15
g16
sg17
F-104.0
sg18
F46.736842105263293
sg19
I166545
sg20
S'1163.10514912'
p42
sg22
F0.0
sbasg26
I00
sg27
I00
sg28
I166508
sg20
S'1163.13702272'
p43
sba(igraph
Edge
p44
(dp45
g7
I1
sg8
I00
sg9
I5
sg10
(lp46
g40
a(igraph
Vertex
p47
(dp48
g14
F0.63157894736842124
sg8
I00
sg15
g16
sg17
F-104.0
sg18
F73.894736842105374
sg19
I166546
sg20
S'1163.1053402'
p49
sg22
F0.0
sbasg26
I00
sg27
I00
sg28
I166509
sg20
S'1163.13744345'
p50
sba(igraph
Edge
p51
(dp52
g7
I1
sg8
I00
sg9
I5
sg10
(lp53
g47
a(igraph
Vertex
p54
(dp55
g14
F0.6842105263157896
sg8
I00
sg15
g16
sg17
F-104.0
sg18
F101.05263157894746
sg19
I166547
sg20
S'1163.10554665'
p56
sg22
F0.0
sbasg26
I00
sg27
I00
sg28
I166510
sg20
S'1163.13789406'
p57
sba(igraph
Edge
p58
(dp59
g7
I1
sg8
I00
sg9
I5
sg10
(lp60
g54
a(igraph
Vertex
p61
(dp62
g14
F0.73684210526315796
sg8
I00
sg15
g16
sg17
F-104.0
sg18
F128.21052631578954
sg19
I166548
sg20
S'1163.10576987'
p63
sg22
F0.0
sbasg26
I00
sg27
I00
sg28
I166511
sg20
S'1163.13836675'
p64
sba(igraph
Edge
p65
(dp66
g7
I1
sg8
I00
sg9
I5
sg10
(lp67
g61
a(igraph
Vertex
p68
(dp69
g14
F0.78947368421052644
sg8
I00
sg15
g16
sg17
F-104.0
sg18
F155.36842105263162
sg19
I166549
sg20
S'1163.10600621'
p70
sg22
F0.0
sbasg26
I00
sg27
I00
sg28
I166512
sg20
S'1163.13887016'
p71
sba(igraph
Edge
p72
(dp73
g7
I1
sg8
I00
sg9
I5
sg10
(lp74
g68
a(igraph
Vertex
p75
(dp76
g14
F0.8421052631578948
sg8
I00
sg15
g16
sg17
F-104.0
sg18
F182.5263157894737
sg19
I166550
sg20
S'1163.10625959'
p77
sg22
F0.0
sbasg26
I00
sg27
I00
sg28
I166513
sg20
S'1163.13940459'
p78
sba(igraph
Edge
p79
(dp80
g7
I1
sg8
I00
sg9
I5
sg10
(lp81
g75
a(igraph
Vertex
p82
(dp83
g14
F0.89473684210526316
sg8
I00
sg15
g16
sg17
F-104.0
sg18
F209.68421052631578
sg19
I166551
sg20
S'1163.10652806'
p84
sg22
F0.0
sbasg26
I00
sg27
I00
sg28
I166514
sg20
S'1163.13996835'
p85
sba(igraph
Edge
p86
(dp87
g7
I1
sg8
I00
sg9
I5
sg10
(lp88
g82
a(igraph
Vertex
p89
(dp90
g14
F0.94736842105263164
sg8
I01
sg15
I0
sg17
F-104.0
sg18
F236.84210526315792
sg19
I166553
sg20
S'1163.10685464'
p91
sg22
F0.0
sbasg26
I00
sg27
I00
sg28
I166515
sg20
S'1163.1405715'
p92
sba(igraph
Edge
p93
(dp94
g7
I1
sg8
I00
sg9
I5
sg10
(lp95
g89
a(igraph
Vertex
p96
(dp97
g14
F1.0
sg8
I00
sg15
g16
sg17
F-104.0
sg18
F264.0
sg19
I166555
sg20
S'1163.10715887'
p98
sg22
F0.0
sbasg26
I00
sg27
I00
sg28
I166516
sg20
S'1163.14120202'
p99
sba(igraph
Edge
p100
(dp101
g7
I1
sg8
I00
sg9
I5
sg10
(lp102
(igraph
Vertex
p103
(dp104
g14
F0.42105263157894751
sg8
I01
sg15
I0
sg17
F-35.5
sg18
F-34.736842105263094
sg19
I166557
sg20
S'1163.1106568'
p105
sg22
F0.5
sba(igraph
Vertex
p106
(dp107
g14
F0.47368421052631599
sg8
I00
sg15
g16
sg17
F-35.5
sg18
F-7.5789473684209554
sg19
I166559
sg20
S'1163.11112362'
p108
sg22
F0.5
sbasg26
I00
sg27
I00
sg28
I166517
sg20
S'1163.14951537'
p109
sba(igraph
Edge
p110
(dp111
g7
I1
sg8
I00
sg9
I5
sg10
(lp112
g106
a(igraph
Vertex
p113
(dp114
g14
F0.5263157894736844
sg8
I01
sg15
I0
sg17
F-35.5
sg18
F19.578947368421154
sg19
I166561
sg20
S'1163.11161083'
p115
sg22
F0.5
sbasg26
I00
sg27
I00
sg28
I166518
sg20
S'1163.15049399'
p116
sba(igraph
Edge
p117
(dp118
g7
I1
sg8
I00
sg9
I5
sg10
(lp119
g113
a(igraph
Vertex
p120
(dp121
g14
F0.57894736842105288
sg8
I00
sg15
g16
sg17
F-35.5
sg18
F46.736842105263293
sg19
I166563
sg20
S'1163.11211146'
p122
sg22
F0.5
sbasg26
I00
sg27
I00
sg28
I166519
sg20
S'1163.15149914'
p123
sba(igraph
Edge
p124
(dp125
g7
I1
sg8
I00
sg9
I5
sg10
(lp126
g120
a(igraph
Vertex
p127
(dp128
g14
F0.63157894736842124
sg8
I01
sg15
I0
sg17
F-35.5
sg18
F73.894736842105374
sg19
I166565
sg20
S'1163.1126565'
p129
sg22
F0.5
sbasg26
I00
sg27
I00
sg28
I166520
sg20
S'1163.15254229'
p130
sba(igraph
Edge
p131
(dp132
g7
I1
sg8
I00
sg9
I5
sg10
(lp133
g127
a(igraph
Vertex
p134
(dp135
g14
F0.6842105263157896
sg8
I00
sg15
g16
sg17
F-35.5
sg18
F101.05263157894746
sg19
I166567
sg20
S'1163.11319567'
p136
sg22
F0.5
sbasg26
I00
sg27
I00
sg28
I166521
sg20
S'1163.15362176'
p137
sba(igraph
Edge
p138
(dp139
g7
I1
sg8
I00
sg9
I5
sg10
(lp140
g134
a(igraph
Vertex
p141
(dp142
g14
F0.73684210526315796
sg8
I01
sg15
I0
sg17
F-35.5
sg18
F128.21052631578954
sg19
I166569
sg20
S'1163.11374965'
p143
sg22
F0.5
sbasg26
I00
sg27
I00
sg28
I166522
sg20
S'1163.15479537'
p144
sba(igraph
Edge
p145
(dp146
g7
I1
sg8
I00
sg9
I5
sg10
(lp147
g141
a(igraph
Vertex
p148
(dp149
g14
F0.78947368421052644
sg8
I00
sg15
g16
sg17
F-35.5
sg18
F155.36842105263162
sg19
I166571
sg20
S'1163.1143176'
p150
sg22
F0.5
sbasg26
I00
sg27
I00
sg28
I166523
sg20
S'1163.1559539'
p151
sba(igraph
Edge
p152
(dp153
g7
I1
sg8
I00
sg9
I5
sg10
(lp154
g148
a(igraph
Vertex
p155
(dp156
g14
F0.8421052631578948
sg8
I01
sg15
I0
sg17
F-35.5
sg18
F182.5263157894737
sg19
I166573
sg20
S'1163.1150135'
p157
sg22
F0.5
sbasg26
I00
sg27
I00
sg28
I166524
sg20
S'1163.15716858'
p158
sba(igraph
Edge
p159
(dp160
g7
I1
sg8
I00
sg9
I5
sg10
(lp161
g155
a(igraph
Vertex
p162
(dp163
g14
F0.89473684210526316
sg8
I00
sg15
g16
sg17
F-35.5
sg18
F209.68421052631578
sg19
I166575
sg20
S'1163.11571275'
p164
sg22
F0.5
sbasg26
I00
sg27
I00
sg28
I166525
sg20
S'1163.15840645'
p165
sba(igraph
Edge
p166
(dp167
g7
I1
sg8
I00
sg9
I5
sg10
(lp168
g162
a(igraph
Vertex
p169
(dp170
g14
F0.94736842105263164
sg8
I00
sg15
g16
sg17
F-35.5
sg18
F236.84210526315792
sg19
I166576
sg20
S'1163.11632959'
p171
sg22
F0.5
sbasg26
I00
sg27
I00
sg28
I166526
sg20
S'1163.15964627'
p172
sba(igraph
Edge
p173
(dp174
g7
I1
sg8
I00
sg9
I5
sg10
(lp175
g169
a(igraph
Vertex
p176
(dp177
g14
F1.0
sg8
I00
sg15
g16
sg17
F-35.5
sg18
F264.0
sg19
I166577
sg20
S'1163.116959'
p178
sg22
F0.5
sbasg26
I00
sg27
I00
sg28
I166527
sg20
S'1163.16092185'
p179
sba(igraph
Edge
p180
(dp181
g7
I1
sg8
I00
sg9
I5
sg10
(lp182
g12
ag106
asg26
I00
sg27
I00
sg28
I166528
sg20
S'1163.20599937'
p183
sba(igraph
Edge
p184
(dp185
g7
I1
sg8
I00
sg9
I5
sg10
(lp186
g33
ag120
asg26
I00
sg27
I00
sg28
I166529
sg20
S'1163.20809516'
p187
sba(igraph
Edge
p188
(dp189
g7
I1
sg8
I00
sg9
I5
sg10
(lp190
g47
ag134
asg26
I00
sg27
I00
sg28
I166530
sg20
S'1163.21025968'
p191
sba(igraph
Edge
p192
(dp193
g7
I1
sg8
I00
sg9
I5
sg10
(lp194
g61
ag148
asg26
I00
sg27
I00
sg28
I166531
sg20
S'1163.21256389'
p195
sba(igraph
Edge
p196
(dp197
g7
I1
sg8
I00
sg9
I5
sg10
(lp198
g75
ag162
asg26
I00
sg27
I00
sg28
I166532
sg20
S'1163.2149505'
p199
sba(igraph
Edge
p200
(dp201
g7
I1
sg8
I00
sg9
I5
sg10
(lp202
g89
ag176
asg26
I00
sg27
I00
sg28
I166533
sg20
S'1163.21734969'
p203
sba(igraph
Edge
p204
(dp205
g7
I1
sg8
I00
sg9
I5
sg10
(lp206
g103
a(igraph
Vertex
p207
(dp208
g14
F0.47368421052631599
sg8
I00
sg15
g16
sg17
F33.0
sg18
F-7.5789473684209554
sg19
I166578
sg20
S'1163.12420489'
p209
sg22
F1.0
sbasg26
I00
sg27
I00
sg28
I166534
sg20
S'1163.25386076'
p210
sba(igraph
Edge
p211
(dp212
g7
I1
sg8
I00
sg9
I5
sg10
(lp213
g113
a(igraph
Vertex
p214
(dp215
g14
F0.57894736842105288
sg8
I00
sg15
g16
sg17
F33.0
sg18
F46.736842105263293
sg19
I166579
sg20
S'1163.12584672'
p216
sg22
F1.0
sbasg26
I00
sg27
I00
sg28
I166535
sg20
S'1163.25510421'
p217
sba(igraph
Edge
p218
(dp219
g7
I1
sg8
I00
sg9
I5
sg10
(lp220
g127
a(igraph
Vertex
p221
(dp222
g14
F0.6842105263157896
sg8
I00
sg15
g16
sg17
F33.0
sg18
F101.05263157894746
sg19
I166580
sg20
S'1163.12756314'
p223
sg22
F1.0
sbasg26
I00
sg27
I00
sg28
I166536
sg20
S'1163.25636331'
p224
sba(igraph
Edge
p225
(dp226
g7
I1
sg8
I00
sg9
I5
sg10
(lp227
g141
a(igraph
Vertex
p228
(dp229
g14
F0.78947368421052644
sg8
I00
sg15
g16
sg17
F33.0
sg18
F155.36842105263162
sg19
I166581
sg20
S'1163.12933152'
p230
sg22
F1.0
sbasg26
I00
sg27
I00
sg28
I166537
sg20
S'1163.25764448'
p231
sba(igraph
Edge
p232
(dp233
g7
I1
sg8
I00
sg9
I5
sg10
(lp234
g155
a(igraph
Vertex
p235
(dp236
g14
F0.89473684210526316
sg8
I00
sg15
g16
sg17
F33.0
sg18
F209.68421052631578
sg19
I166582
sg20
S'1163.13138234'
p237
sg22
F1.0
sbasg26
I00
sg27
I00
sg28
I166538
sg20
S'1163.25893933'
p238
sba(igraph
Edge
p239
(dp240
g7
I1
sg8
I00
sg9
I5
sg10
(lp241
g169
a(igraph
Vertex
p242
(dp243
g14
F1.0
sg8
I00
sg15
g16
sg17
F33.0
sg18
F264.0
sg19
I166583
sg20
S'1163.13351892'
p244
sg22
F1.0
sbasg26
I00
sg27
I00
sg28
I166539
sg20
S'1163.26027051'
p245
sba(igraph
Edge
p246
(dp247
g7
I1
sg8
I00
sg9
I5
sg10
(lp248
g12
ag96
asg26
I00
sg27
I00
sg28
I166540
sg20
S'1570.04370136'
p249
sba(igraph
Edge
p250
(dp251
g7
I1
sg8
I00
sg9
I5
sg10
(lp252
g103
ag176
asg26
I00
sg27
I00
sg28
I166541
sg20
S'1574.58686481'
p253
sbasS'vertices'
p254
(lp255
g12
ag23
ag33
ag40
ag47
ag54
ag61
ag68
ag75
ag82
ag89
ag96
ag103
ag106
ag113
ag120
ag127
ag134
ag141
ag148
ag155
ag162
ag169
ag176
ag207
ag214
ag221
ag228
ag235
ag242
asS'tags'
p256
(lp257
sb.