(igraph
Graph
p0
(dp1
S'labelingConstraints'
p2
I-1
sS'edges'
p3
(lp4
(igraph
Edge
p5
(dp6
S'direction'
p7
I1
sS'selected'
p8
I00
sS'height'
p9
I5
sS'vs'
p10
(lp11
(igraph
Vertex
p12
(dp13
S'xnorm'
p14
F0.31578947368421062
sg8
I00
sS'label'
p15
S'NULL'
p16
sS'y'
p17
F-104.0
sS'x'
p18
F-89.052631578947313
sS'circle'
p19
I150475
sS'id'
p20
S'1163.10443311'
p21
sS'ynorm'
p22
F0.0
sba(igraph
Vertex
p23
(dp24
g14
F0.36842105263157909
sg8
I00
sg15
g16
sg17
F-104.0
sg18
F-61.894736842105175
sg19
I150476
sg20
S'1163.10454569'
p25
sg22
F0.0
sbasS'wrap'
p26
I00
sS'curved'
p27
I00
sS'line'
p28
I150433
sg20
S'1163.13560383'
p29
sba(igraph
Edge
p30
(dp31
g7
I1
sg8
I00
sg9
I5
sg10
(lp32
g23
a(igraph
Vertex
p33
(dp34
g14
F0.42105263157894751
sg8
I00
sg15
g16
sg17
F-104.0
sg18
F-34.736842105263094
sg19
I150477
sg20
S'1163.10467308'
p35
sg22
F0.0
sbasg26
I00
sg27
I00
sg28
I150434
sg20
S'1163.13589213'
p36
sba(igraph
Edge
p37
(dp38
g7
I1
sg8
I00
sg9
I5
sg10
(lp39
g33
a(igraph
Vertex
p40
(dp41
g14
F0.47368421052631599
sg8
I00
sg15
g16
sg17
F-104.0
sg18
F-7.5789473684209554
sg19
I150478
sg20
S'1163.10481611'
p42
sg22
F0.0
sbasg26
I00
sg27
I00
sg28
I150435
sg20
S'1163.13620726'
p43
sba(igraph
Edge
p44
(dp45
g7
I1
sg8
I00
sg9
I5
sg10
(lp46
g40
a(igraph
Vertex
p47
(dp48
g14
F0.5263157894736844
sg8
I00
sg15
g16
sg17
F-104.0
sg18
F19.578947368421154
sg19
I150479
sg20
S'1163.10497368'
p49
sg22
F0.0
sbasg26
I00
sg27
I00
sg28
I150436
sg20
S'1163.13655311'
p50
sba(igraph
Edge
p51
(dp52
g7
I1
sg8
I00
sg9
I5
sg10
(lp53
g47
a(igraph
Vertex
p54
(dp55
g14
F0.57894736842105288
sg8
I00
sg15
g16
sg17
F-104.0
sg18
F46.736842105263293
sg19
I150480
sg20
S'1163.10514912'
p56
sg22
F0.0
sbasg26
I00
sg27
I00
sg28
I150437
sg20
S'1163.13702272'
p57
sba(igraph
Edge
p58
(dp59
g7
I1
sg8
I00
sg9
I5
sg10
(lp60
g54
a(igraph
Vertex
p61
(dp62
g14
F0.63157894736842124
sg8
I00
sg15
g16
sg17
F-104.0
sg18
F73.894736842105374
sg19
I150481
sg20
S'1163.1053402'
p63
sg22
F0.0
sbasg26
I00
sg27
I00
sg28
I150438
sg20
S'1163.13744345'
p64
sba(igraph
Edge
p65
(dp66
g7
I1
sg8
I00
sg9
I5
sg10
(lp67
g61
a(igraph
Vertex
p68
(dp69
g14
F0.6842105263157896
sg8
I00
sg15
g16
sg17
F-104.0
sg18
F101.05263157894746
sg19
I150482
sg20
S'1163.10554665'
p70
sg22
F0.0
sbasg26
I00
sg27
I00
sg28
I150439
sg20
S'1163.13789406'
p71
sba(igraph
Edge
p72
(dp73
g7
I1
sg8
I00
sg9
I5
sg10
(lp74
g68
a(igraph
Vertex
p75
(dp76
g14
F0.73684210526315796
sg8
I00
sg15
g16
sg17
F-104.0
sg18
F128.21052631578954
sg19
I150483
sg20
S'1163.10576987'
p77
sg22
F0.0
sbasg26
I00
sg27
I00
sg28
I150440
sg20
S'1163.13836675'
p78
sba(igraph
Edge
p79
(dp80
g7
I1
sg8
I00
sg9
I5
sg10
(lp81
g75
a(igraph
Vertex
p82
(dp83
g14
F0.78947368421052644
sg8
I00
sg15
g16
sg17
F-104.0
sg18
F155.36842105263162
sg19
I150484
sg20
S'1163.10600621'
p84
sg22
F0.0
sbasg26
I00
sg27
I00
sg28
I150441
sg20
S'1163.13887016'
p85
sba(igraph
Edge
p86
(dp87
g7
I1
sg8
I00
sg9
I5
sg10
(lp88
g82
a(igraph
Vertex
p89
(dp90
g14
F0.8421052631578948
sg8
I00
sg15
I0
sg17
F-104.0
sg18
F182.5263157894737
sg19
I150485
sg20
S'1163.10625959'
p91
sg22
F0.0
sbasg26
I00
sg27
I00
sg28
I150442
sg20
S'1163.13940459'
p92
sba(igraph
Edge
p93
(dp94
g7
I1
sg8
I00
sg9
I5
sg10
(lp95
g89
a(igraph
Vertex
p96
(dp97
g14
F0.89473684210526316
sg8
I00
sg15
g16
sg17
F-104.0
sg18
F209.68421052631578
sg19
I150487
sg20
S'1163.10652806'
p98
sg22
F0.0
sbasg26
I00
sg27
I00
sg28
I150443
sg20
S'1163.13996835'
p99
sba(igraph
Edge
p100
(dp101
g7
I1
sg8
I00
sg9
I5
sg10
(lp102
g96
a(igraph
Vertex
p103
(dp104
g14
F0.94736842105263164
sg8
I00
sg15
g16
sg17
F-104.0
sg18
F236.84210526315792
sg19
I150488
sg20
S'1163.10685464'
p105
sg22
F0.0
sbasg26
I00
sg27
I00
sg28
I150444
sg20
S'1163.1405715'
p106
sba(igraph
Edge
p107
(dp108
g7
I1
sg8
I00
sg9
I5
sg10
(lp109
g103
a(igraph
Vertex
p110
(dp111
g14
F1.0
sg8
I00
sg15
g16
sg17
F-104.0
sg18
F264.0
sg19
I150489
sg20
S'1163.10715887'
p112
sg22
F0.0
sbasg26
I00
sg27
I00
sg28
I150445
sg20
S'1163.14120202'
p113
sba(igraph
Edge
p114
(dp115
g7
I1
sg8
I00
sg9
I5
sg10
(lp116
(igraph
Vertex
p117
(dp118
g14
F0.31578947368421062
sg8
I00
sg15
I0
sg17
F-35.5
sg18
F-89.052631578947313
sg19
I150490
sg20
S'1163.1097687'
p119
sg22
F0.5
sba(igraph
Vertex
p120
(dp121
g14
F0.36842105263157909
sg8
I00
sg15
g16
sg17
F-35.5
sg18
F-61.894736842105175
sg19
I150492
sg20
S'1163.11020535'
p122
sg22
F0.5
sbasg26
I00
sg27
I00
sg28
I150446
sg20
S'1163.1475763'
p123
sba(igraph
Edge
p124
(dp125
g7
I1
sg8
I00
sg9
I5
sg10
(lp126
g120
a(igraph
Vertex
p127
(dp128
g14
F0.42105263157894751
sg8
I00
sg15
I0
sg17
F-35.5
sg18
F-34.736842105263094
sg19
I150493
sg20
S'1163.1106568'
p129
sg22
F0.5
sbasg26
I00
sg27
I00
sg28
I150447
sg20
S'1163.14850798'
p130
sba(igraph
Edge
p131
(dp132
g7
I1
sg8
I00
sg9
I5
sg10
(lp133
g127
a(igraph
Vertex
p134
(dp135
g14
F0.47368421052631599
sg8
I00
sg15
g16
sg17
F-35.5
sg18
F-7.5789473684209554
sg19
I150495
sg20
S'1163.11112362'
p136
sg22
F0.5
sbasg26
I00
sg27
I00
sg28
I150448
sg20
S'1163.14951537'
p137
sba(igraph
Edge
p138
(dp139
g7
I1
sg8
I00
sg9
I5
sg10
(lp140
g134
a(igraph
Vertex
p141
(dp142
g14
F0.5263157894736844
sg8
I00
sg15
I0
sg17
F-35.5
sg18
F19.578947368421154
sg19
I150496
sg20
S'1163.11161083'
p143
sg22
F0.5
sbasg26
I00
sg27
I00
sg28
I150449
sg20
S'1163.15049399'
p144
sba(igraph
Edge
p145
(dp146
g7
I1
sg8
I00
sg9
I5
sg10
(lp147
g141
a(igraph
Vertex
p148
(dp149
g14
F0.57894736842105288
sg8
I00
sg15
g16
sg17
F-35.5
sg18
F46.736842105263293
sg19
I150498
sg20
S'1163.11211146'
p150
sg22
F0.5
sbasg26
I00
sg27
I00
sg28
I150450
sg20
S'1163.15149914'
p151
sba(igraph
Edge
p152
(dp153
g7
I1
sg8
I00
sg9
I5
sg10
(lp154
g148
a(igraph
Vertex
p155
(dp156
g14
F0.63157894736842124
sg8
I00
sg15
I0
sg17
F-35.5
sg18
F73.894736842105374
sg19
I150499
sg20
S'1163.1126565'
p157
sg22
F0.5
sbasg26
I00
sg27
I00
sg28
I150451
sg20
S'1163.15254229'
p158
sba(igraph
Edge
p159
(dp160
g7
I1
sg8
I00
sg9
I5
sg10
(lp161
g155
a(igraph
Vertex
p162
(dp163
g14
F0.6842105263157896
sg8
I00
sg15
g16
sg17
F-35.5
sg18
F101.05263157894746
sg19
I150501
sg20
S'1163.11319567'
p164
sg22
F0.5
sbasg26
I00
sg27
I00
sg28
I150452
sg20
S'1163.15362176'
p165
sba(igraph
Edge
p166
(dp167
g7
I1
sg8
I00
sg9
I5
sg10
(lp168
g162
a(igraph
Vertex
p169
(dp170
g14
F0.73684210526315796
sg8
I00
sg15
I0
sg17
F-35.5
sg18
F128.21052631578954
sg19
I150502
sg20
S'1163.11374965'
p171
sg22
F0.5
sbasg26
I00
sg27
I00
sg28
I150453
sg20
S'1163.15479537'
p172
sba(igraph
Edge
p173
(dp174
g7
I1
sg8
I00
sg9
I5
sg10
(lp175
g169
a(igraph
Vertex
p176
(dp177
g14
F0.78947368421052644
sg8
I00
sg15
g16
sg17
F-35.5
sg18
F155.36842105263162
sg19
I150504
sg20
S'1163.1143176'
p178
sg22
F0.5
sbasg26
I00
sg27
I00
sg28
I150454
sg20
S'1163.1559539'
p179
sba(igraph
Edge
p180
(dp181
g7
I1
sg8
I00
sg9
I5
sg10
(lp182
g176
a(igraph
Vertex
p183
(dp184
g14
F0.8421052631578948
sg8
I00
sg15
I0
sg17
F-35.5
sg18
F182.5263157894737
sg19
I150505
sg20
S'1163.1150135'
p185
sg22
F0.5
sbasg26
I00
sg27
I00
sg28
I150455
sg20
S'1163.15716858'
p186
sba(igraph
Edge
p187
(dp188
g7
I1
sg8
I00
sg9
I5
sg10
(lp189
g183
a(igraph
Vertex
p190
(dp191
g14
F0.89473684210526316
sg8
I00
sg15
g16
sg17
F-35.5
sg18
F209.68421052631578
sg19
I150507
sg20
S'1163.11571275'
p192
sg22
F0.5
sbasg26
I00
sg27
I00
sg28
I150456
sg20
S'1163.15840645'
p193
sba(igraph
Edge
p194
(dp195
g7
I1
sg8
I00
sg9
I5
sg10
(lp196
g190
a(igraph
Vertex
p197
(dp198
g14
F0.94736842105263164
sg8
I00
sg15
g16
sg17
F-35.5
sg18
F236.84210526315792
sg19
I150508
sg20
S'1163.11632959'
p199
sg22
F0.5
sbasg26
I00
sg27
I00
sg28
I150457
sg20
S'1163.15964627'
p200
sba(igraph
Edge
p201
(dp202
g7
I1
sg8
I00
sg9
I5
sg10
(lp203
g197
a(igraph
Vertex
p204
(dp205
g14
F1.0
sg8
I00
sg15
g16
sg17
F-35.5
sg18
F264.0
sg19
I150509
sg20
S'1163.116959'
p206
sg22
F0.5
sbasg26
I00
sg27
I00
sg28
I150458
sg20
S'1163.16092185'
p207
sba(igraph
Edge
p208
(dp209
g7
I1
sg8
I00
sg9
I5
sg10
(lp210
g12
ag120
asg26
I00
sg27
I00
sg28
I150459
sg20
S'1163.20384602'
p211
sba(igraph
Edge
p212
(dp213
g7
I1
sg8
I00
sg9
I5
sg10
(lp214
g33
ag134
asg26
I00
sg27
I00
sg28
I150460
sg20
S'1163.20599937'
p215
sba(igraph
Edge
p216
(dp217
g7
I1
sg8
I00
sg9
I5
sg10
(lp218
g47
ag148
asg26
I00
sg27
I00
sg28
I150461
sg20
S'1163.20809516'
p219
sba(igraph
Edge
p220
(dp221
g7
I1
sg8
I00
sg9
I5
sg10
(lp222
g61
ag162
asg26
I00
sg27
I00
sg28
I150462
sg20
S'1163.21025968'
p223
sba(igraph
Edge
p224
(dp225
g7
I1
sg8
I00
sg9
I5
sg10
(lp226
g75
ag176
asg26
I00
sg27
I00
sg28
I150463
sg20
S'1163.21256389'
p227
sba(igraph
Edge
p228
(dp229
g7
I1
sg8
I00
sg9
I5
sg10
(lp230
g89
ag190
asg26
I00
sg27
I00
sg28
I150464
sg20
S'1163.2149505'
p231
sba(igraph
Edge
p232
(dp233
g7
I1
sg8
I00
sg9
I5
sg10
(lp234
g103
ag204
asg26
I00
sg27
I00
sg28
I150465
sg20
S'1163.21734969'
p235
sba(igraph
Edge
p236
(dp237
g7
I1
sg8
I00
sg9
I5
sg10
(lp238
g117
a(igraph
Vertex
p239
(dp240
g14
F0.36842105263157909
sg8
I00
sg15
g16
sg17
F33.0
sg18
F-61.894736842105175
sg19
I150510
sg20
S'1163.12262927'
p241
sg22
F1.0
sbasg26
I00
sg27
I00
sg28
I150466
sg20
S'1163.25262177'
p242
sba(igraph
Edge
p243
(dp244
g7
I1
sg8
I00
sg9
I5
sg10
(lp245
g127
a(igraph
Vertex
p246
(dp247
g14
F0.47368421052631599
sg8
I00
sg15
g16
sg17
F33.0
sg18
F-7.5789473684209554
sg19
I150511
sg20
S'1163.12420489'
p248
sg22
F1.0
sbasg26
I00
sg27
I00
sg28
I150467
sg20
S'1163.25386076'
p249
sba(igraph
Edge
p250
(dp251
g7
I1
sg8
I00
sg9
I5
sg10
(lp252
g141
a(igraph
Vertex
p253
(dp254
g14
F0.57894736842105288
sg8
I00
sg15
g16
sg17
F33.0
sg18
F46.736842105263293
sg19
I150512
sg20
S'1163.12584672'
p255
sg22
F1.0
sbasg26
I00
sg27
I00
sg28
I150468
sg20
S'1163.25510421'
p256
sba(igraph
Edge
p257
(dp258
g7
I1
sg8
I00
sg9
I5
sg10
(lp259
g155
a(igraph
Vertex
p260
(dp261
g14
F0.6842105263157896
sg8
I00
sg15
g16
sg17
F33.0
sg18
F101.05263157894746
sg19
I150513
sg20
S'1163.12756314'
p262
sg22
F1.0
sbasg26
I00
sg27
I00
sg28
I150469
sg20
S'1163.25636331'
p263
sba(igraph
Edge
p264
(dp265
g7
I1
sg8
I00
sg9
I5
sg10
(lp266
g169
a(igraph
Vertex
p267
(dp268
g14
F0.78947368421052644
sg8
I00
sg15
g16
sg17
F33.0
sg18
F155.36842105263162
sg19
I150514
sg20
S'1163.12933152'
p269
sg22
F1.0
sbasg26
I00
sg27
I00
sg28
I150470
sg20
S'1163.25764448'
p270
sba(igraph
Edge
p271
(dp272
g7
I1
sg8
I00
sg9
I5
sg10
(lp273
g183
a(igraph
Vertex
p274
(dp275
g14
F0.89473684210526316
sg8
I00
sg15
g16
sg17
F33.0
sg18
F209.68421052631578
sg19
I150515
sg20
S'1163.13138234'
p276
sg22
F1.0
sbasg26
I00
sg27
I00
sg28
I150471
sg20
S'1163.25893933'
p277
sba(igraph
Edge
p278
(dp279
g7
I1
sg8
I00
sg9
I5
sg10
(lp280
g197
a(igraph
Vertex
p281
(dp282
g14
F1.0
sg8
I00
sg15
g16
sg17
F33.0
sg18
F264.0
sg19
I150516
sg20
S'1163.13351892'
p283
sg22
F1.0
sbasg26
I00
sg27
I00
sg28
I150472
sg20
S'1163.26027051'
p284
sba(igraph
Edge
p285
(dp286
g7
I1
sg8
I00
sg9
I5
sg10
(lp287
g12
ag110
asg26
I00
sg27
I00
sg28
I150473
sg20
S'1422.80008325'
p288
sba(igraph
Edge
p289
(dp290
g7
I1
sg8
I00
sg9
I5
sg10
(lp291
g117
ag204
asg26
I00
sg27
I00
sg28
I150474
sg20
S'1426.62867124'
p292
sbasS'vertices'
p293
(lp294
g12
ag23
ag33
ag40
ag47
ag54
ag61
ag68
ag75
ag82
ag89
ag96
ag103
ag110
ag117
ag120
ag127
ag134
ag141
ag148
ag155
ag162
ag169
ag176
ag183
ag190
ag197
ag204
ag239
ag246
ag253
ag260
ag267
ag274
ag281
asS'tags'
p295
(lp296
sb.