(igraph
Graph
p0
(dp1
S'labelingConstraints'
p2
I-1
sS'edges'
p3
(lp4
(igraph
Edge
p5
(dp6
S'direction'
p7
I1
sS'selected'
p8
I00
sS'height'
p9
I5
sS'vs'
p10
(lp11
(igraph
Vertex
p12
(dp13
S'xnorm'
p14
F0.21052631578947378
sg8
I00
sS'label'
p15
S'NULL'
p16
sS'y'
p17
F-104.0
sS'x'
p18
F-143.36842105263153
sS'circle'
p19
I149166
sS'id'
p20
S'1163.1042518'
p21
sS'ynorm'
p22
F0.0
sba(igraph
Vertex
p23
(dp24
g14
F0.2631578947368422
sg8
I00
sg15
g16
sg17
F-104.0
sg18
F-116.21052631578942
sg19
I149167
sg20
S'1163.10433449'
p25
sg22
F0.0
sbasS'wrap'
p26
I00
sS'curved'
p27
I00
sS'line'
p28
I149118
sg20
S'1163.13513338'
p29
sba(igraph
Edge
p30
(dp31
g7
I1
sg8
I00
sg9
I5
sg10
(lp32
g23
a(igraph
Vertex
p33
(dp34
g14
F0.31578947368421062
sg8
I00
sg15
g16
sg17
F-104.0
sg18
F-89.052631578947313
sg19
I149168
sg20
S'1163.10443311'
p35
sg22
F0.0
sbasg26
I00
sg27
I00
sg28
I149119
sg20
S'1163.13535352'
p36
sba(igraph
Edge
p37
(dp38
g7
I1
sg8
I00
sg9
I5
sg10
(lp39
g33
a(igraph
Vertex
p40
(dp41
g14
F0.36842105263157909
sg8
I00
sg15
g16
sg17
F-104.0
sg18
F-61.894736842105175
sg19
I149169
sg20
S'1163.10454569'
p42
sg22
F0.0
sbasg26
I00
sg27
I00
sg28
I149120
sg20
S'1163.13560383'
p43
sba(igraph
Edge
p44
(dp45
g7
I1
sg8
I00
sg9
I5
sg10
(lp46
g40
a(igraph
Vertex
p47
(dp48
g14
F0.42105263157894751
sg8
I00
sg15
g16
sg17
F-104.0
sg18
F-34.736842105263094
sg19
I149170
sg20
S'1163.10467308'
p49
sg22
F0.0
sbasg26
I00
sg27
I00
sg28
I149121
sg20
S'1163.13589213'
p50
sba(igraph
Edge
p51
(dp52
g7
I1
sg8
I00
sg9
I5
sg10
(lp53
g47
a(igraph
Vertex
p54
(dp55
g14
F0.47368421052631599
sg8
I00
sg15
g16
sg17
F-104.0
sg18
F-7.5789473684209554
sg19
I149171
sg20
S'1163.10481611'
p56
sg22
F0.0
sbasg26
I00
sg27
I00
sg28
I149122
sg20
S'1163.13620726'
p57
sba(igraph
Edge
p58
(dp59
g7
I1
sg8
I00
sg9
I5
sg10
(lp60
g54
a(igraph
Vertex
p61
(dp62
g14
F0.5263157894736844
sg8
I00
sg15
g16
sg17
F-104.0
sg18
F19.578947368421154
sg19
I149172
sg20
S'1163.10497368'
p63
sg22
F0.0
sbasg26
I00
sg27
I00
sg28
I149123
sg20
S'1163.13655311'
p64
sba(igraph
Edge
p65
(dp66
g7
I1
sg8
I00
sg9
I5
sg10
(lp67
g61
a(igraph
Vertex
p68
(dp69
g14
F0.57894736842105288
sg8
I00
sg15
g16
sg17
F-104.0
sg18
F46.736842105263293
sg19
I149173
sg20
S'1163.10514912'
p70
sg22
F0.0
sbasg26
I00
sg27
I00
sg28
I149124
sg20
S'1163.13702272'
p71
sba(igraph
Edge
p72
(dp73
g7
I1
sg8
I00
sg9
I5
sg10
(lp74
g68
a(igraph
Vertex
p75
(dp76
g14
F0.63157894736842124
sg8
I00
sg15
g16
sg17
F-104.0
sg18
F73.894736842105374
sg19
I149174
sg20
S'1163.1053402'
p77
sg22
F0.0
sbasg26
I00
sg27
I00
sg28
I149125
sg20
S'1163.13744345'
p78
sba(igraph
Edge
p79
(dp80
g7
I1
sg8
I00
sg9
I5
sg10
(lp81
g75
a(igraph
Vertex
p82
(dp83
g14
F0.6842105263157896
sg8
I00
sg15
g16
sg17
F-104.0
sg18
F101.05263157894746
sg19
I149175
sg20
S'1163.10554665'
p84
sg22
F0.0
sbasg26
I00
sg27
I00
sg28
I149126
sg20
S'1163.13789406'
p85
sba(igraph
Edge
p86
(dp87
g7
I1
sg8
I00
sg9
I5
sg10
(lp88
g82
a(igraph
Vertex
p89
(dp90
g14
F0.73684210526315796
sg8
I00
sg15
g16
sg17
F-104.0
sg18
F128.21052631578954
sg19
I149176
sg20
S'1163.10576987'
p91
sg22
F0.0
sbasg26
I00
sg27
I00
sg28
I149127
sg20
S'1163.13836675'
p92
sba(igraph
Edge
p93
(dp94
g7
I1
sg8
I00
sg9
I5
sg10
(lp95
g89
a(igraph
Vertex
p96
(dp97
g14
F0.78947368421052644
sg8
I00
sg15
g16
sg17
F-104.0
sg18
F155.36842105263162
sg19
I149177
sg20
S'1163.10600621'
p98
sg22
F0.0
sbasg26
I00
sg27
I00
sg28
I149128
sg20
S'1163.13887016'
p99
sba(igraph
Edge
p100
(dp101
g7
I1
sg8
I00
sg9
I5
sg10
(lp102
g96
a(igraph
Vertex
p103
(dp104
g14
F0.8421052631578948
sg8
I00
sg15
I0
sg17
F-104.0
sg18
F182.5263157894737
sg19
I149178
sg20
S'1163.10625959'
p105
sg22
F0.0
sbasg26
I00
sg27
I00
sg28
I149129
sg20
S'1163.13940459'
p106
sba(igraph
Edge
p107
(dp108
g7
I1
sg8
I00
sg9
I5
sg10
(lp109
g103
a(igraph
Vertex
p110
(dp111
g14
F0.89473684210526316
sg8
I00
sg15
g16
sg17
F-104.0
sg18
F209.68421052631578
sg19
I149180
sg20
S'1163.10652806'
p112
sg22
F0.0
sbasg26
I00
sg27
I00
sg28
I149130
sg20
S'1163.13996835'
p113
sba(igraph
Edge
p114
(dp115
g7
I1
sg8
I00
sg9
I5
sg10
(lp116
g110
a(igraph
Vertex
p117
(dp118
g14
F0.94736842105263164
sg8
I00
sg15
g16
sg17
F-104.0
sg18
F236.84210526315792
sg19
I149181
sg20
S'1163.10685464'
p119
sg22
F0.0
sbasg26
I00
sg27
I00
sg28
I149131
sg20
S'1163.1405715'
p120
sba(igraph
Edge
p121
(dp122
g7
I1
sg8
I00
sg9
I5
sg10
(lp123
g117
a(igraph
Vertex
p124
(dp125
g14
F1.0
sg8
I00
sg15
g16
sg17
F-104.0
sg18
F264.0
sg19
I149182
sg20
S'1163.10715887'
p126
sg22
F0.0
sbasg26
I00
sg27
I00
sg28
I149132
sg20
S'1163.14120202'
p127
sba(igraph
Edge
p128
(dp129
g7
I1
sg8
I00
sg9
I5
sg10
(lp130
(igraph
Vertex
p131
(dp132
g14
F0.21052631578947378
sg8
I00
sg15
I0
sg17
F-35.5
sg18
F-143.36842105263153
sg19
I149183
sg20
S'1163.10892725'
p133
sg22
F0.5
sba(igraph
Vertex
p134
(dp135
g14
F0.2631578947368422
sg8
I00
sg15
g16
sg17
F-35.5
sg18
F-116.21052631578942
sg19
I149185
sg20
S'1163.10932842'
p136
sg22
F0.5
sbasg26
I00
sg27
I00
sg28
I149133
sg20
S'1163.14567913'
p137
sba(igraph
Edge
p138
(dp139
g7
I1
sg8
I00
sg9
I5
sg10
(lp140
g134
a(igraph
Vertex
p141
(dp142
g14
F0.31578947368421062
sg8
I00
sg15
I0
sg17
F-35.5
sg18
F-89.052631578947313
sg19
I149186
sg20
S'1163.1097687'
p143
sg22
F0.5
sbasg26
I00
sg27
I00
sg28
I149134
sg20
S'1163.14665356'
p144
sba(igraph
Edge
p145
(dp146
g7
I1
sg8
I00
sg9
I5
sg10
(lp147
g141
a(igraph
Vertex
p148
(dp149
g14
F0.36842105263157909
sg8
I00
sg15
g16
sg17
F-35.5
sg18
F-61.894736842105175
sg19
I149188
sg20
S'1163.11020535'
p150
sg22
F0.5
sbasg26
I00
sg27
I00
sg28
I149135
sg20
S'1163.1475763'
p151
sba(igraph
Edge
p152
(dp153
g7
I1
sg8
I00
sg9
I5
sg10
(lp154
g148
a(igraph
Vertex
p155
(dp156
g14
F0.42105263157894751
sg8
I00
sg15
I0
sg17
F-35.5
sg18
F-34.736842105263094
sg19
I149189
sg20
S'1163.1106568'
p157
sg22
F0.5
sbasg26
I00
sg27
I00
sg28
I149136
sg20
S'1163.14850798'
p158
sba(igraph
Edge
p159
(dp160
g7
I1
sg8
I00
sg9
I5
sg10
(lp161
g155
a(igraph
Vertex
p162
(dp163
g14
F0.47368421052631599
sg8
I00
sg15
g16
sg17
F-35.5
sg18
F-7.5789473684209554
sg19
I149191
sg20
S'1163.11112362'
p164
sg22
F0.5
sbasg26
I00
sg27
I00
sg28
I149137
sg20
S'1163.14951537'
p165
sba(igraph
Edge
p166
(dp167
g7
I1
sg8
I00
sg9
I5
sg10
(lp168
g162
a(igraph
Vertex
p169
(dp170
g14
F0.5263157894736844
sg8
I00
sg15
I0
sg17
F-35.5
sg18
F19.578947368421154
sg19
I149192
sg20
S'1163.11161083'
p171
sg22
F0.5
sbasg26
I00
sg27
I00
sg28
I149138
sg20
S'1163.15049399'
p172
sba(igraph
Edge
p173
(dp174
g7
I1
sg8
I00
sg9
I5
sg10
(lp175
g169
a(igraph
Vertex
p176
(dp177
g14
F0.57894736842105288
sg8
I00
sg15
g16
sg17
F-35.5
sg18
F46.736842105263293
sg19
I149194
sg20
S'1163.11211146'
p178
sg22
F0.5
sbasg26
I00
sg27
I00
sg28
I149139
sg20
S'1163.15149914'
p179
sba(igraph
Edge
p180
(dp181
g7
I1
sg8
I00
sg9
I5
sg10
(lp182
g176
a(igraph
Vertex
p183
(dp184
g14
F0.63157894736842124
sg8
I00
sg15
I0
sg17
F-35.5
sg18
F73.894736842105374
sg19
I149195
sg20
S'1163.1126565'
p185
sg22
F0.5
sbasg26
I00
sg27
I00
sg28
I149140
sg20
S'1163.15254229'
p186
sba(igraph
Edge
p187
(dp188
g7
I1
sg8
I00
sg9
I5
sg10
(lp189
g183
a(igraph
Vertex
p190
(dp191
g14
F0.6842105263157896
sg8
I00
sg15
g16
sg17
F-35.5
sg18
F101.05263157894746
sg19
I149197
sg20
S'1163.11319567'
p192
sg22
F0.5
sbasg26
I00
sg27
I00
sg28
I149141
sg20
S'1163.15362176'
p193
sba(igraph
Edge
p194
(dp195
g7
I1
sg8
I00
sg9
I5
sg10
(lp196
g190
a(igraph
Vertex
p197
(dp198
g14
F0.73684210526315796
sg8
I00
sg15
I0
sg17
F-35.5
sg18
F128.21052631578954
sg19
I149198
sg20
S'1163.11374965'
p199
sg22
F0.5
sbasg26
I00
sg27
I00
sg28
I149142
sg20
S'1163.15479537'
p200
sba(igraph
Edge
p201
(dp202
g7
I1
sg8
I00
sg9
I5
sg10
(lp203
g197
a(igraph
Vertex
p204
(dp205
g14
F0.78947368421052644
sg8
I00
sg15
g16
sg17
F-35.5
sg18
F155.36842105263162
sg19
I149200
sg20
S'1163.1143176'
p206
sg22
F0.5
sbasg26
I00
sg27
I00
sg28
I149143
sg20
S'1163.1559539'
p207
sba(igraph
Edge
p208
(dp209
g7
I1
sg8
I00
sg9
I5
sg10
(lp210
g204
a(igraph
Vertex
p211
(dp212
g14
F0.8421052631578948
sg8
I00
sg15
I0
sg17
F-35.5
sg18
F182.5263157894737
sg19
I149201
sg20
S'1163.1150135'
p213
sg22
F0.5
sbasg26
I00
sg27
I00
sg28
I149144
sg20
S'1163.15716858'
p214
sba(igraph
Edge
p215
(dp216
g7
I1
sg8
I00
sg9
I5
sg10
(lp217
g211
a(igraph
Vertex
p218
(dp219
g14
F0.89473684210526316
sg8
I00
sg15
g16
sg17
F-35.5
sg18
F209.68421052631578
sg19
I149203
sg20
S'1163.11571275'
p220
sg22
F0.5
sbasg26
I00
sg27
I00
sg28
I149145
sg20
S'1163.15840645'
p221
sba(igraph
Edge
p222
(dp223
g7
I1
sg8
I00
sg9
I5
sg10
(lp224
g218
a(igraph
Vertex
p225
(dp226
g14
F0.94736842105263164
sg8
I00
sg15
g16
sg17
F-35.5
sg18
F236.84210526315792
sg19
I149204
sg20
S'1163.11632959'
p227
sg22
F0.5
sbasg26
I00
sg27
I00
sg28
I149146
sg20
S'1163.15964627'
p228
sba(igraph
Edge
p229
(dp230
g7
I1
sg8
I00
sg9
I5
sg10
(lp231
g225
a(igraph
Vertex
p232
(dp233
g14
F1.0
sg8
I00
sg15
g16
sg17
F-35.5
sg18
F264.0
sg19
I149205
sg20
S'1163.116959'
p234
sg22
F0.5
sbasg26
I00
sg27
I00
sg28
I149147
sg20
S'1163.16092185'
p235
sba(igraph
Edge
p236
(dp237
g7
I1
sg8
I00
sg9
I5
sg10
(lp238
g12
ag134
asg26
I00
sg27
I00
sg28
I149148
sg20
S'1163.2016435'
p239
sba(igraph
Edge
p240
(dp241
g7
I1
sg8
I00
sg9
I5
sg10
(lp242
g33
ag148
asg26
I00
sg27
I00
sg28
I149149
sg20
S'1163.20384602'
p243
sba(igraph
Edge
p244
(dp245
g7
I1
sg8
I00
sg9
I5
sg10
(lp246
g47
ag162
asg26
I00
sg27
I00
sg28
I149150
sg20
S'1163.20599937'
p247
sba(igraph
Edge
p248
(dp249
g7
I1
sg8
I00
sg9
I5
sg10
(lp250
g61
ag176
asg26
I00
sg27
I00
sg28
I149151
sg20
S'1163.20809516'
p251
sba(igraph
Edge
p252
(dp253
g7
I1
sg8
I00
sg9
I5
sg10
(lp254
g75
ag190
asg26
I00
sg27
I00
sg28
I149152
sg20
S'1163.21025968'
p255
sba(igraph
Edge
p256
(dp257
g7
I1
sg8
I00
sg9
I5
sg10
(lp258
g89
ag204
asg26
I00
sg27
I00
sg28
I149153
sg20
S'1163.21256389'
p259
sba(igraph
Edge
p260
(dp261
g7
I1
sg8
I00
sg9
I5
sg10
(lp262
g103
ag218
asg26
I00
sg27
I00
sg28
I149154
sg20
S'1163.2149505'
p263
sba(igraph
Edge
p264
(dp265
g7
I1
sg8
I00
sg9
I5
sg10
(lp266
g117
ag232
asg26
I00
sg27
I00
sg28
I149155
sg20
S'1163.21734969'
p267
sba(igraph
Edge
p268
(dp269
g7
I1
sg8
I00
sg9
I5
sg10
(lp270
g131
a(igraph
Vertex
p271
(dp272
g14
F0.2631578947368422
sg8
I00
sg15
g16
sg17
F33.0
sg18
F-116.21052631578942
sg19
I149206
sg20
S'1163.12109863'
p273
sg22
F1.0
sbasg26
I00
sg27
I00
sg28
I149156
sg20
S'1163.25022845'
p274
sba(igraph
Edge
p275
(dp276
g7
I1
sg8
I00
sg9
I5
sg10
(lp277
g141
a(igraph
Vertex
p278
(dp279
g14
F0.36842105263157909
sg8
I00
sg15
g16
sg17
F33.0
sg18
F-61.894736842105175
sg19
I149207
sg20
S'1163.12262927'
p280
sg22
F1.0
sbasg26
I00
sg27
I00
sg28
I149157
sg20
S'1163.25262177'
p281
sba(igraph
Edge
p282
(dp283
g7
I1
sg8
I00
sg9
I5
sg10
(lp284
g155
a(igraph
Vertex
p285
(dp286
g14
F0.47368421052631599
sg8
I00
sg15
g16
sg17
F33.0
sg18
F-7.5789473684209554
sg19
I149208
sg20
S'1163.12420489'
p287
sg22
F1.0
sbasg26
I00
sg27
I00
sg28
I149158
sg20
S'1163.25386076'
p288
sba(igraph
Edge
p289
(dp290
g7
I1
sg8
I00
sg9
I5
sg10
(lp291
g169
a(igraph
Vertex
p292
(dp293
g14
F0.57894736842105288
sg8
I00
sg15
g16
sg17
F33.0
sg18
F46.736842105263293
sg19
I149209
sg20
S'1163.12584672'
p294
sg22
F1.0
sbasg26
I00
sg27
I00
sg28
I149159
sg20
S'1163.25510421'
p295
sba(igraph
Edge
p296
(dp297
g7
I1
sg8
I00
sg9
I5
sg10
(lp298
g183
a(igraph
Vertex
p299
(dp300
g14
F0.6842105263157896
sg8
I00
sg15
g16
sg17
F33.0
sg18
F101.05263157894746
sg19
I149210
sg20
S'1163.12756314'
p301
sg22
F1.0
sbasg26
I00
sg27
I00
sg28
I149160
sg20
S'1163.25636331'
p302
sba(igraph
Edge
p303
(dp304
g7
I1
sg8
I00
sg9
I5
sg10
(lp305
g197
a(igraph
Vertex
p306
(dp307
g14
F0.78947368421052644
sg8
I00
sg15
g16
sg17
F33.0
sg18
F155.36842105263162
sg19
I149211
sg20
S'1163.12933152'
p308
sg22
F1.0
sbasg26
I00
sg27
I00
sg28
I149161
sg20
S'1163.25764448'
p309
sba(igraph
Edge
p310
(dp311
g7
I1
sg8
I00
sg9
I5
sg10
(lp312
g211
a(igraph
Vertex
p313
(dp314
g14
F0.89473684210526316
sg8
I00
sg15
g16
sg17
F33.0
sg18
F209.68421052631578
sg19
I149212
sg20
S'1163.13138234'
p315
sg22
F1.0
sbasg26
I00
sg27
I00
sg28
I149162
sg20
S'1163.25893933'
p316
sba(igraph
Edge
p317
(dp318
g7
I1
sg8
I00
sg9
I5
sg10
(lp319
g225
a(igraph
Vertex
p320
(dp321
g14
F1.0
sg8
I00
sg15
g16
sg17
F33.0
sg18
F264.0
sg19
I149213
sg20
S'1163.13351892'
p322
sg22
F1.0
sbasg26
I00
sg27
I00
sg28
I149163
sg20
S'1163.26027051'
p323
sba(igraph
Edge
p324
(dp325
g7
F-1.0
sS'h'
p326
F60.315789473684248
sS'k'
p327
F446.46666666666681
sg8
I00
sg9
F36.475245901212247
sS'start'
p328
F110.30553056984655
sg10
(lp329
g12
ag124
asS'extent'
p330
F-40.611061139693092
sg26
I00
sg27
I1
sg28
I149164
sS'r'
p331
F586.94191256787906
sg20
S'1348.72122211'
p332
sba(igraph
Edge
p333
(dp334
g7
I1
sg8
I00
sg9
I5
sg10
(lp335
g131
ag232
asg26
I00
sg27
I00
sg28
I149165
sg20
S'1352.68438335'
p336
sbasS'vertices'
p337
(lp338
g12
ag23
ag33
ag40
ag47
ag54
ag61
ag68
ag75
ag82
ag89
ag96
ag103
ag110
ag117
ag124
ag131
ag134
ag141
ag148
ag155
ag162
ag169
ag176
ag183
ag190
ag197
ag204
ag211
ag218
ag225
ag232
ag271
ag278
ag285
ag292
ag299
ag306
ag313
ag320
asS'tags'
p339
(lp340
sb.