(igraph
Graph
p0
(dp1
S'labelingConstraints'
p2
I-1
sS'edges'
p3
(lp4
(igraph
Edge
p5
(dp6
S'direction'
p7
I1
sS'selected'
p8
I00
sS'height'
p9
I5
sS'vs'
p10
(lp11
(igraph
Vertex
p12
(dp13
S'xnorm'
p14
F0.10526315789473689
sg8
I00
sS'label'
p15
S'NULL'
p16
sS'y'
p17
F-104.0
sS'x'
p18
F-197.68421052631578
sS'circle'
p19
I141152
sS'id'
p20
S'1163.10412999'
p21
sS'ynorm'
p22
F0.0
sba(igraph
Vertex
p23
(dp24
g14
F0.15789473684210531
sg8
I00
sg15
g16
sg17
F-104.0
sg18
F-170.52631578947364
sg19
I141153
sg20
S'1163.10418335'
p25
sg22
F0.0
sbasS'wrap'
p26
I00
sS'curved'
p27
I00
sS'line'
p28
I141098
sg20
S'1163.13477774'
p29
sba(igraph
Edge
p30
(dp31
g7
I1
sg8
I00
sg9
I5
sg10
(lp32
g23
a(igraph
Vertex
p33
(dp34
g14
F0.21052631578947378
sg8
I00
sg15
g16
sg17
F-104.0
sg18
F-143.36842105263153
sg19
I141154
sg20
S'1163.1042518'
p35
sg22
F0.0
sbasg26
I00
sg27
I00
sg28
I141099
sg20
S'1163.13494536'
p36
sba(igraph
Edge
p37
(dp38
g7
I1
sg8
I00
sg9
I5
sg10
(lp39
g33
a(igraph
Vertex
p40
(dp41
g14
F0.2631578947368422
sg8
I00
sg15
g16
sg17
F-104.0
sg18
F-116.21052631578942
sg19
I141155
sg20
S'1163.10433449'
p42
sg22
F0.0
sbasg26
I00
sg27
I00
sg28
I141100
sg20
S'1163.13513338'
p43
sba(igraph
Edge
p44
(dp45
g7
I1
sg8
I00
sg9
I5
sg10
(lp46
g40
a(igraph
Vertex
p47
(dp48
g14
F0.31578947368421062
sg8
I00
sg15
g16
sg17
F-104.0
sg18
F-89.052631578947313
sg19
I141156
sg20
S'1163.10443311'
p49
sg22
F0.0
sbasg26
I00
sg27
I00
sg28
I141101
sg20
S'1163.13535352'
p50
sba(igraph
Edge
p51
(dp52
g7
I1
sg8
I00
sg9
I5
sg10
(lp53
g47
a(igraph
Vertex
p54
(dp55
g14
F0.36842105263157909
sg8
I00
sg15
g16
sg17
F-104.0
sg18
F-61.894736842105175
sg19
I141157
sg20
S'1163.10454569'
p56
sg22
F0.0
sbasg26
I00
sg27
I00
sg28
I141102
sg20
S'1163.13560383'
p57
sba(igraph
Edge
p58
(dp59
g7
I1
sg8
I00
sg9
I5
sg10
(lp60
g54
a(igraph
Vertex
p61
(dp62
g14
F0.42105263157894751
sg8
I00
sg15
g16
sg17
F-104.0
sg18
F-34.736842105263094
sg19
I141158
sg20
S'1163.10467308'
p63
sg22
F0.0
sbasg26
I00
sg27
I00
sg28
I141103
sg20
S'1163.13589213'
p64
sba(igraph
Edge
p65
(dp66
g7
I1
sg8
I00
sg9
I5
sg10
(lp67
g61
a(igraph
Vertex
p68
(dp69
g14
F0.47368421052631599
sg8
I00
sg15
g16
sg17
F-104.0
sg18
F-7.5789473684209554
sg19
I141159
sg20
S'1163.10481611'
p70
sg22
F0.0
sbasg26
I00
sg27
I00
sg28
I141104
sg20
S'1163.13620726'
p71
sba(igraph
Edge
p72
(dp73
g7
I1
sg8
I00
sg9
I5
sg10
(lp74
g68
a(igraph
Vertex
p75
(dp76
g14
F0.5263157894736844
sg8
I00
sg15
g16
sg17
F-104.0
sg18
F19.578947368421154
sg19
I141160
sg20
S'1163.10497368'
p77
sg22
F0.0
sbasg26
I00
sg27
I00
sg28
I141105
sg20
S'1163.13655311'
p78
sba(igraph
Edge
p79
(dp80
g7
I1
sg8
I00
sg9
I5
sg10
(lp81
g75
a(igraph
Vertex
p82
(dp83
g14
F0.57894736842105288
sg8
I00
sg15
g16
sg17
F-104.0
sg18
F46.736842105263293
sg19
I141161
sg20
S'1163.10514912'
p84
sg22
F0.0
sbasg26
I00
sg27
I00
sg28
I141106
sg20
S'1163.13702272'
p85
sba(igraph
Edge
p86
(dp87
g7
I1
sg8
I00
sg9
I5
sg10
(lp88
g82
a(igraph
Vertex
p89
(dp90
g14
F0.63157894736842124
sg8
I00
sg15
g16
sg17
F-104.0
sg18
F73.894736842105374
sg19
I141162
sg20
S'1163.1053402'
p91
sg22
F0.0
sbasg26
I00
sg27
I00
sg28
I141107
sg20
S'1163.13744345'
p92
sba(igraph
Edge
p93
(dp94
g7
I1
sg8
I00
sg9
I5
sg10
(lp95
g89
a(igraph
Vertex
p96
(dp97
g14
F0.6842105263157896
sg8
I00
sg15
g16
sg17
F-104.0
sg18
F101.05263157894746
sg19
I141163
sg20
S'1163.10554665'
p98
sg22
F0.0
sbasg26
I00
sg27
I00
sg28
I141108
sg20
S'1163.13789406'
p99
sba(igraph
Edge
p100
(dp101
g7
I1
sg8
I00
sg9
I5
sg10
(lp102
g96
a(igraph
Vertex
p103
(dp104
g14
F0.73684210526315796
sg8
I00
sg15
g16
sg17
F-104.0
sg18
F128.21052631578954
sg19
I141164
sg20
S'1163.10576987'
p105
sg22
F0.0
sbasg26
I00
sg27
I00
sg28
I141109
sg20
S'1163.13836675'
p106
sba(igraph
Edge
p107
(dp108
g7
I1
sg8
I00
sg9
I5
sg10
(lp109
g103
a(igraph
Vertex
p110
(dp111
g14
F0.78947368421052644
sg8
I00
sg15
g16
sg17
F-104.0
sg18
F155.36842105263162
sg19
I141165
sg20
S'1163.10600621'
p112
sg22
F0.0
sbasg26
I00
sg27
I00
sg28
I141110
sg20
S'1163.13887016'
p113
sba(igraph
Edge
p114
(dp115
g7
I1
sg8
I00
sg9
I5
sg10
(lp116
g110
a(igraph
Vertex
p117
(dp118
g14
F0.8421052631578948
sg8
I00
sg15
I0
sg17
F-104.0
sg18
F182.5263157894737
sg19
I141166
sg20
S'1163.10625959'
p119
sg22
F0.0
sbasg26
I00
sg27
I00
sg28
I141111
sg20
S'1163.13940459'
p120
sba(igraph
Edge
p121
(dp122
g7
I1
sg8
I00
sg9
I5
sg10
(lp123
g117
a(igraph
Vertex
p124
(dp125
g14
F0.89473684210526316
sg8
I00
sg15
g16
sg17
F-104.0
sg18
F209.68421052631578
sg19
I141168
sg20
S'1163.10652806'
p126
sg22
F0.0
sbasg26
I00
sg27
I00
sg28
I141112
sg20
S'1163.13996835'
p127
sba(igraph
Edge
p128
(dp129
g7
I1
sg8
I00
sg9
I5
sg10
(lp130
g124
a(igraph
Vertex
p131
(dp132
g14
F0.94736842105263164
sg8
I00
sg15
g16
sg17
F-104.0
sg18
F236.84210526315792
sg19
I141169
sg20
S'1163.10685464'
p133
sg22
F0.0
sbasg26
I00
sg27
I00
sg28
I141113
sg20
S'1163.1405715'
p134
sba(igraph
Edge
p135
(dp136
g7
I1
sg8
I00
sg9
I5
sg10
(lp137
g131
a(igraph
Vertex
p138
(dp139
g14
F1.0
sg8
I00
sg15
g16
sg17
F-104.0
sg18
F264.0
sg19
I141170
sg20
S'1163.10715887'
p140
sg22
F0.0
sbasg26
I00
sg27
I00
sg28
I141114
sg20
S'1163.14120202'
p141
sba(igraph
Edge
p142
(dp143
g7
I1
sg8
I00
sg9
I5
sg10
(lp144
(igraph
Vertex
p145
(dp146
g14
F0.10526315789473689
sg8
I00
sg15
I0
sg17
F-35.5
sg18
F-197.68421052631578
sg19
I141171
sg20
S'1163.10817241'
p147
sg22
F0.5
sba(igraph
Vertex
p148
(dp149
g14
F0.15789473684210531
sg8
I00
sg15
g16
sg17
F-35.5
sg18
F-170.52631578947364
sg19
I141173
sg20
S'1163.10854312'
p150
sg22
F0.5
sbasg26
I00
sg27
I00
sg28
I141115
sg20
S'1163.14404792'
p151
sba(igraph
Edge
p152
(dp153
g7
I1
sg8
I00
sg9
I5
sg10
(lp154
g148
a(igraph
Vertex
p155
(dp156
g14
F0.21052631578947378
sg8
I00
sg15
I0
sg17
F-35.5
sg18
F-143.36842105263153
sg19
I141174
sg20
S'1163.10892725'
p157
sg22
F0.5
sbasg26
I00
sg27
I00
sg28
I141116
sg20
S'1163.14483936'
p158
sba(igraph
Edge
p159
(dp160
g7
I1
sg8
I00
sg9
I5
sg10
(lp161
g155
a(igraph
Vertex
p162
(dp163
g14
F0.2631578947368422
sg8
I00
sg15
g16
sg17
F-35.5
sg18
F-116.21052631578942
sg19
I141176
sg20
S'1163.10932842'
p164
sg22
F0.5
sbasg26
I00
sg27
I00
sg28
I141117
sg20
S'1163.14567913'
p165
sba(igraph
Edge
p166
(dp167
g7
I1
sg8
I00
sg9
I5
sg10
(lp168
g162
a(igraph
Vertex
p169
(dp170
g14
F0.31578947368421062
sg8
I00
sg15
I0
sg17
F-35.5
sg18
F-89.052631578947313
sg19
I141177
sg20
S'1163.1097687'
p171
sg22
F0.5
sbasg26
I00
sg27
I00
sg28
I141118
sg20
S'1163.14665356'
p172
sba(igraph
Edge
p173
(dp174
g7
I1
sg8
I00
sg9
I5
sg10
(lp175
g169
a(igraph
Vertex
p176
(dp177
g14
F0.36842105263157909
sg8
I00
sg15
g16
sg17
F-35.5
sg18
F-61.894736842105175
sg19
I141179
sg20
S'1163.11020535'
p178
sg22
F0.5
sbasg26
I00
sg27
I00
sg28
I141119
sg20
S'1163.1475763'
p179
sba(igraph
Edge
p180
(dp181
g7
I1
sg8
I00
sg9
I5
sg10
(lp182
g176
a(igraph
Vertex
p183
(dp184
g14
F0.42105263157894751
sg8
I00
sg15
I0
sg17
F-35.5
sg18
F-34.736842105263094
sg19
I141180
sg20
S'1163.1106568'
p185
sg22
F0.5
sbasg26
I00
sg27
I00
sg28
I141120
sg20
S'1163.14850798'
p186
sba(igraph
Edge
p187
(dp188
g7
I1
sg8
I00
sg9
I5
sg10
(lp189
g183
a(igraph
Vertex
p190
(dp191
g14
F0.47368421052631599
sg8
I00
sg15
g16
sg17
F-35.5
sg18
F-7.5789473684209554
sg19
I141182
sg20
S'1163.11112362'
p192
sg22
F0.5
sbasg26
I00
sg27
I00
sg28
I141121
sg20
S'1163.14951537'
p193
sba(igraph
Edge
p194
(dp195
g7
I1
sg8
I00
sg9
I5
sg10
(lp196
g190
a(igraph
Vertex
p197
(dp198
g14
F0.5263157894736844
sg8
I00
sg15
I0
sg17
F-35.5
sg18
F19.578947368421154
sg19
I141183
sg20
S'1163.11161083'
p199
sg22
F0.5
sbasg26
I00
sg27
I00
sg28
I141122
sg20
S'1163.15049399'
p200
sba(igraph
Edge
p201
(dp202
g7
I1
sg8
I00
sg9
I5
sg10
(lp203
g197
a(igraph
Vertex
p204
(dp205
g14
F0.57894736842105288
sg8
I00
sg15
g16
sg17
F-35.5
sg18
F46.736842105263293
sg19
I141185
sg20
S'1163.11211146'
p206
sg22
F0.5
sbasg26
I00
sg27
I00
sg28
I141123
sg20
S'1163.15149914'
p207
sba(igraph
Edge
p208
(dp209
g7
I1
sg8
I00
sg9
I5
sg10
(lp210
g204
a(igraph
Vertex
p211
(dp212
g14
F0.63157894736842124
sg8
I00
sg15
I0
sg17
F-35.5
sg18
F73.894736842105374
sg19
I141186
sg20
S'1163.1126565'
p213
sg22
F0.5
sbasg26
I00
sg27
I00
sg28
I141124
sg20
S'1163.15254229'
p214
sba(igraph
Edge
p215
(dp216
g7
I1
sg8
I00
sg9
I5
sg10
(lp217
g211
a(igraph
Vertex
p218
(dp219
g14
F0.6842105263157896
sg8
I00
sg15
g16
sg17
F-35.5
sg18
F101.05263157894746
sg19
I141188
sg20
S'1163.11319567'
p220
sg22
F0.5
sbasg26
I00
sg27
I00
sg28
I141125
sg20
S'1163.15362176'
p221
sba(igraph
Edge
p222
(dp223
g7
I1
sg8
I00
sg9
I5
sg10
(lp224
g218
a(igraph
Vertex
p225
(dp226
g14
F0.73684210526315796
sg8
I00
sg15
I0
sg17
F-35.5
sg18
F128.21052631578954
sg19
I141189
sg20
S'1163.11374965'
p227
sg22
F0.5
sbasg26
I00
sg27
I00
sg28
I141126
sg20
S'1163.15479537'
p228
sba(igraph
Edge
p229
(dp230
g7
I1
sg8
I00
sg9
I5
sg10
(lp231
g225
a(igraph
Vertex
p232
(dp233
g14
F0.78947368421052644
sg8
I00
sg15
g16
sg17
F-35.5
sg18
F155.36842105263162
sg19
I141191
sg20
S'1163.1143176'
p234
sg22
F0.5
sbasg26
I00
sg27
I00
sg28
I141127
sg20
S'1163.1559539'
p235
sba(igraph
Edge
p236
(dp237
g7
I1
sg8
I00
sg9
I5
sg10
(lp238
g232
a(igraph
Vertex
p239
(dp240
g14
F0.8421052631578948
sg8
I00
sg15
I0
sg17
F-35.5
sg18
F182.5263157894737
sg19
I141192
sg20
S'1163.1150135'
p241
sg22
F0.5
sbasg26
I00
sg27
I00
sg28
I141128
sg20
S'1163.15716858'
p242
sba(igraph
Edge
p243
(dp244
g7
I1
sg8
I00
sg9
I5
sg10
(lp245
g239
a(igraph
Vertex
p246
(dp247
g14
F0.89473684210526316
sg8
I00
sg15
g16
sg17
F-35.5
sg18
F209.68421052631578
sg19
I141194
sg20
S'1163.11571275'
p248
sg22
F0.5
sbasg26
I00
sg27
I00
sg28
I141129
sg20
S'1163.15840645'
p249
sba(igraph
Edge
p250
(dp251
g7
I1
sg8
I00
sg9
I5
sg10
(lp252
g246
a(igraph
Vertex
p253
(dp254
g14
F0.94736842105263164
sg8
I00
sg15
g16
sg17
F-35.5
sg18
F236.84210526315792
sg19
I141195
sg20
S'1163.11632959'
p255
sg22
F0.5
sbasg26
I00
sg27
I00
sg28
I141130
sg20
S'1163.15964627'
p256
sba(igraph
Edge
p257
(dp258
g7
I1
sg8
I00
sg9
I5
sg10
(lp259
g253
a(igraph
Vertex
p260
(dp261
g14
F1.0
sg8
I00
sg15
g16
sg17
F-35.5
sg18
F264.0
sg19
I141196
sg20
S'1163.116959'
p262
sg22
F0.5
sbasg26
I00
sg27
I00
sg28
I141131
sg20
S'1163.16092185'
p263
sba(igraph
Edge
p264
(dp265
g7
I1
sg8
I00
sg9
I5
sg10
(lp266
g12
ag148
asg26
I00
sg27
I00
sg28
I141132
sg20
S'1163.19962006'
p267
sba(igraph
Edge
p268
(dp269
g7
I1
sg8
I00
sg9
I5
sg10
(lp270
g33
ag162
asg26
I00
sg27
I00
sg28
I141133
sg20
S'1163.2016435'
p271
sba(igraph
Edge
p272
(dp273
g7
I1
sg8
I00
sg9
I5
sg10
(lp274
g47
ag176
asg26
I00
sg27
I00
sg28
I141134
sg20
S'1163.20384602'
p275
sba(igraph
Edge
p276
(dp277
g7
I1
sg8
I00
sg9
I5
sg10
(lp278
g61
ag190
asg26
I00
sg27
I00
sg28
I141135
sg20
S'1163.20599937'
p279
sba(igraph
Edge
p280
(dp281
g7
I1
sg8
I00
sg9
I5
sg10
(lp282
g75
ag204
asg26
I00
sg27
I00
sg28
I141136
sg20
S'1163.20809516'
p283
sba(igraph
Edge
p284
(dp285
g7
I1
sg8
I00
sg9
I5
sg10
(lp286
g89
ag218
asg26
I00
sg27
I00
sg28
I141137
sg20
S'1163.21025968'
p287
sba(igraph
Edge
p288
(dp289
g7
I1
sg8
I00
sg9
I5
sg10
(lp290
g103
ag232
asg26
I00
sg27
I00
sg28
I141138
sg20
S'1163.21256389'
p291
sba(igraph
Edge
p292
(dp293
g7
I1
sg8
I00
sg9
I5
sg10
(lp294
g117
ag246
asg26
I00
sg27
I00
sg28
I141139
sg20
S'1163.2149505'
p295
sba(igraph
Edge
p296
(dp297
g7
I1
sg8
I00
sg9
I5
sg10
(lp298
g131
ag260
asg26
I00
sg27
I00
sg28
I141140
sg20
S'1163.21734969'
p299
sba(igraph
Edge
p300
(dp301
g7
I1
sg8
I00
sg9
I5
sg10
(lp302
g145
a(igraph
Vertex
p303
(dp304
g14
F0.15789473684210531
sg8
I00
sg15
g16
sg17
F33.0
sg18
F-170.52631578947364
sg19
I141197
sg20
S'1163.11965599'
p305
sg22
F1.0
sbasg26
I00
sg27
I00
sg28
I141141
sg20
S'1163.24754515'
p306
sba(igraph
Edge
p307
(dp308
g7
I1
sg8
I00
sg9
I5
sg10
(lp309
g155
a(igraph
Vertex
p310
(dp311
g14
F0.2631578947368422
sg8
I00
sg15
g16
sg17
F33.0
sg18
F-116.21052631578942
sg19
I141198
sg20
S'1163.12109863'
p312
sg22
F1.0
sbasg26
I00
sg27
I00
sg28
I141142
sg20
S'1163.25022845'
p313
sba(igraph
Edge
p314
(dp315
g7
I1
sg8
I00
sg9
I5
sg10
(lp316
g169
a(igraph
Vertex
p317
(dp318
g14
F0.36842105263157909
sg8
I00
sg15
g16
sg17
F33.0
sg18
F-61.894736842105175
sg19
I141199
sg20
S'1163.12262927'
p319
sg22
F1.0
sbasg26
I00
sg27
I00
sg28
I141143
sg20
S'1163.25262177'
p320
sba(igraph
Edge
p321
(dp322
g7
I1
sg8
I00
sg9
I5
sg10
(lp323
g183
a(igraph
Vertex
p324
(dp325
g14
F0.47368421052631599
sg8
I00
sg15
g16
sg17
F33.0
sg18
F-7.5789473684209554
sg19
I141200
sg20
S'1163.12420489'
p326
sg22
F1.0
sbasg26
I00
sg27
I00
sg28
I141144
sg20
S'1163.25386076'
p327
sba(igraph
Edge
p328
(dp329
g7
I1
sg8
I00
sg9
I5
sg10
(lp330
g197
a(igraph
Vertex
p331
(dp332
g14
F0.57894736842105288
sg8
I00
sg15
g16
sg17
F33.0
sg18
F46.736842105263293
sg19
I141201
sg20
S'1163.12584672'
p333
sg22
F1.0
sbasg26
I00
sg27
I00
sg28
I141145
sg20
S'1163.25510421'
p334
sba(igraph
Edge
p335
(dp336
g7
I1
sg8
I00
sg9
I5
sg10
(lp337
g211
a(igraph
Vertex
p338
(dp339
g14
F0.6842105263157896
sg8
I00
sg15
g16
sg17
F33.0
sg18
F101.05263157894746
sg19
I141202
sg20
S'1163.12756314'
p340
sg22
F1.0
sbasg26
I00
sg27
I00
sg28
I141146
sg20
S'1163.25636331'
p341
sba(igraph
Edge
p342
(dp343
g7
I1
sg8
I00
sg9
I5
sg10
(lp344
g225
a(igraph
Vertex
p345
(dp346
g14
F0.78947368421052644
sg8
I00
sg15
g16
sg17
F33.0
sg18
F155.36842105263162
sg19
I141203
sg20
S'1163.12933152'
p347
sg22
F1.0
sbasg26
I00
sg27
I00
sg28
I141147
sg20
S'1163.25764448'
p348
sba(igraph
Edge
p349
(dp350
g7
I1
sg8
I00
sg9
I5
sg10
(lp351
g239
a(igraph
Vertex
p352
(dp353
g14
F0.89473684210526316
sg8
I00
sg15
g16
sg17
F33.0
sg18
F209.68421052631578
sg19
I141204
sg20
S'1163.13138234'
p354
sg22
F1.0
sbasg26
I00
sg27
I00
sg28
I141148
sg20
S'1163.25893933'
p355
sba(igraph
Edge
p356
(dp357
g7
I1
sg8
I00
sg9
I5
sg10
(lp358
g253
a(igraph
Vertex
p359
(dp360
g14
F1.0
sg8
I00
sg15
g16
sg17
F33.0
sg18
F264.0
sg19
I141205
sg20
S'1163.13351892'
p361
sg22
F1.0
sbasg26
I00
sg27
I00
sg28
I141149
sg20
S'1163.26027051'
p362
sba(igraph
Edge
p363
(dp364
g7
I1
sg8
I00
sg9
I5
sg10
(lp365
g12
ag138
asg26
I00
sg27
I00
sg28
I141150
sg20
S'1269.20312582'
p366
sba(igraph
Edge
p367
(dp368
g7
I1
sg8
I00
sg9
I5
sg10
(lp369
g145
ag260
asg26
I00
sg27
I00
sg28
I141151
sg20
S'1273.33403379'
p370
sbasS'vertices'
p371
(lp372
g12
ag23
ag33
ag40
ag47
ag54
ag61
ag68
ag75
ag82
ag89
ag96
ag103
ag110
ag117
ag124
ag131
ag138
ag145
ag148
ag155
ag162
ag169
ag176
ag183
ag190
ag197
ag204
ag211
ag218
ag225
ag232
ag239
ag246
ag253
ag260
ag303
ag310
ag317
ag324
ag331
ag338
ag345
ag352
ag359
asS'tags'
p373
(lp374
sb.