(igraph
Graph
p0
(dp1
S'labelingConstraints'
p2
I-1
sS'edges'
p3
(lp4
(igraph
Edge
p5
(dp6
S'direction'
p7
I1
sS'selected'
p8
I00
sS'height'
p9
I5
sS'vs'
p10
(lp11
(igraph
Vertex
p12
(dp13
S'xnorm'
p14
F0.0
sg8
I00
sS'label'
p15
S'NULL'
p16
sS'y'
p17
F-179.0
sS'x'
p18
F-150.0
sS'circle'
p19
I102080
sS'id'
p20
S'39.4377358016'
p21
sS'ynorm'
p22
F0.0
sba(igraph
Vertex
p23
(dp24
g14
F0.058823529411764733
sg8
I00
sg15
g16
sg17
F-179.0
sg18
F-127.11764705882352
sg19
I102081
sg20
S'39.4379162715'
p25
sg22
F0.0
sbasS'wrap'
p26
I00
sS'curved'
p27
I00
sS'line'
p28
I102024
sg20
S'39.4730556537'
p29
sba(igraph
Edge
p30
(dp31
g7
I1
sg8
I00
sg9
I5
sg10
(lp32
g23
a(igraph
Vertex
p33
(dp34
g14
F0.11764705882352942
sg8
I00
sg15
g16
sg17
F-179.0
sg18
F-104.23529411764704
sg19
I102082
sg20
S'39.4379408556'
p35
sg22
F0.0
sbasg26
I00
sg27
I00
sg28
I102025
sg20
S'39.4731059394'
p36
sba(igraph
Edge
p37
(dp38
g7
I1
sg8
I00
sg9
I5
sg10
(lp39
g33
a(igraph
Vertex
p40
(dp41
g14
F0.1764705882352941
sg8
I00
sg15
g16
sg17
F-179.0
sg18
F-81.352941176470594
sg19
I102083
sg20
S'39.4379687921'
p42
sg22
F0.0
sbasg26
I00
sg27
I00
sg28
I102026
sg20
S'39.4731665617'
p43
sba(igraph
Edge
p44
(dp45
g7
I1
sg8
I00
sg9
I5
sg10
(lp46
g40
a(igraph
Vertex
p47
(dp48
g14
F0.23529411764705885
sg8
I00
sg15
g16
sg17
F-179.0
sg18
F-58.470588235294102
sg19
I102084
sg20
S'39.4380034334'
p49
sg22
F0.0
sbasg26
I00
sg27
I00
sg28
I102027
sg20
S'39.4732626633'
p50
sba(igraph
Edge
p51
(dp52
g7
I1
sg8
I00
sg9
I5
sg10
(lp53
g47
a(igraph
Vertex
p54
(dp55
g14
F0.29411764705882354
sg8
I00
sg15
g16
sg17
F-179.0
sg18
F-35.588235294117638
sg19
I102085
sg20
S'39.4380595858'
p56
sg22
F0.0
sbasg26
I00
sg27
I00
sg28
I102028
sg20
S'39.4733509426'
p57
sba(igraph
Edge
p58
(dp59
g7
I1
sg8
I00
sg9
I5
sg10
(lp60
g54
a(igraph
Vertex
p61
(dp62
g14
F0.35294117647058826
sg8
I00
sg15
g16
sg17
F-179.0
sg18
F-12.70588235294116
sg19
I102086
sg20
S'39.4381137826'
p63
sg22
F0.0
sbasg26
I00
sg27
I00
sg28
I102029
sg20
S'39.4734543077'
p64
sba(igraph
Edge
p65
(dp66
g7
I1
sg8
I00
sg9
I5
sg10
(lp67
g61
a(igraph
Vertex
p68
(dp69
g14
F0.41176470588235298
sg8
I00
sg15
g16
sg17
F-179.0
sg18
F10.176470588235304
sg19
I102087
sg20
S'39.4381732874'
p70
sg22
F0.0
sbasg26
I00
sg27
I00
sg28
I102030
sg20
S'39.4735713617'
p71
sba(igraph
Edge
p72
(dp73
g7
I1
sg8
I00
sg9
I5
sg10
(lp74
g68
a(igraph
Vertex
p75
(dp76
g14
F0.4705882352941177
sg8
I00
sg15
g16
sg17
F-179.0
sg18
F33.058823529411796
sg19
I102088
sg20
S'39.4382383795'
p77
sg22
F0.0
sbasg26
I00
sg27
I00
sg28
I102031
sg20
S'39.4737032221'
p78
sba(igraph
Edge
p79
(dp80
g7
I1
sg8
I00
sg9
I5
sg10
(lp81
g75
a(igraph
Vertex
p82
(dp83
g14
F0.52941176470588236
sg8
I00
sg15
g16
sg17
F-179.0
sg18
F55.941176470588232
sg19
I102089
sg20
S'39.4383121318'
p84
sg22
F0.0
sbasg26
I00
sg27
I00
sg28
I102032
sg20
S'39.4738501681'
p85
sba(igraph
Edge
p86
(dp87
g7
I1
sg8
I00
sg9
I5
sg10
(lp88
g82
a(igraph
Vertex
p89
(dp90
g14
F0.58823529411764708
sg8
I00
sg15
I0
sg17
F-179.0
sg18
F78.823529411764724
sg19
I102090
sg20
S'39.4383928684'
p91
sg22
F0.0
sbasg26
I00
sg27
I00
sg28
I102033
sg20
S'39.4740121999'
p92
sba(igraph
Edge
p93
(dp94
g7
I1
sg8
I00
sg9
I5
sg10
(lp95
g89
a(igraph
Vertex
p96
(dp97
g14
F0.6470588235294118
sg8
I00
sg15
g16
sg17
F-179.0
sg18
F101.70588235294119
sg19
I102092
sg20
S'39.4384828239'
p98
sg22
F0.0
sbasg26
I00
sg27
I00
sg28
I102034
sg20
S'39.4742155777'
p99
sba(igraph
Edge
p100
(dp101
g7
I1
sg8
I00
sg9
I5
sg10
(lp102
g96
a(igraph
Vertex
p103
(dp104
g14
F0.70588235294117652
sg8
I00
sg15
g16
sg17
F-179.0
sg18
F124.58823529411768
sg19
I102093
sg20
S'39.4385814398'
p105
sg22
F0.0
sbasg26
I00
sg27
I00
sg28
I102035
sg20
S'39.4744136475'
p106
sba(igraph
Edge
p107
(dp108
g7
I1
sg8
I00
sg9
I5
sg10
(lp109
g103
a(igraph
Vertex
p110
(dp111
g14
F0.76470588235294124
sg8
I00
sg15
g16
sg17
F-179.0
sg18
F147.47058823529414
sg19
I102094
sg20
S'39.4386875986'
p112
sg22
F0.0
sbasg26
I00
sg27
I00
sg28
I102036
sg20
S'39.4746200984'
p113
sba(igraph
Edge
p114
(dp115
g7
I1
sg8
I00
sg9
I5
sg10
(lp116
(igraph
Vertex
p117
(dp118
g14
F0.0
sg8
I00
sg15
I0
sg17
F-115.75
sg18
F-150.0
sg19
I102095
sg20
S'39.4393407542'
p119
sg22
F0.25
sba(igraph
Vertex
p120
(dp121
g14
F0.058823529411764733
sg8
I00
sg15
g16
sg17
F-115.75
sg18
F-127.11764705882352
sg19
I102097
sg20
S'39.4394955225'
p122
sg22
F0.25
sbasg26
I00
sg27
I00
sg28
I102037
sg20
S'39.4761518573'
p123
sba(igraph
Edge
p124
(dp125
g7
I1
sg8
I00
sg9
I5
sg10
(lp126
g120
a(igraph
Vertex
p127
(dp128
g14
F0.11764705882352942
sg8
I00
sg15
I0
sg17
F-115.75
sg18
F-104.23529411764704
sg19
I102098
sg20
S'39.439658113'
p129
sg22
F0.25
sbasg26
I00
sg27
I00
sg28
I102038
sg20
S'39.4764560859'
p130
sba(igraph
Edge
p131
(dp132
g7
I1
sg8
I00
sg9
I5
sg10
(lp133
g127
a(igraph
Vertex
p134
(dp135
g14
F0.1764705882352941
sg8
I00
sg15
g16
sg17
F-115.75
sg18
F-81.352941176470594
sg19
I102100
sg20
S'39.4398290844'
p136
sg22
F0.25
sbasg26
I00
sg27
I00
sg28
I102039
sg20
S'39.4767695336'
p137
sba(igraph
Edge
p138
(dp139
g7
I1
sg8
I00
sg9
I5
sg10
(lp140
g134
a(igraph
Vertex
p141
(dp142
g14
F0.23529411764705885
sg8
I00
sg15
I0
sg17
F-115.75
sg18
F-58.470588235294102
sg19
I102101
sg20
S'39.44002464'
p143
sg22
F0.25
sbasg26
I00
sg27
I00
sg28
I102040
sg20
S'39.4770983463'
p144
sba(igraph
Edge
p145
(dp146
g7
I1
sg8
I00
sg9
I5
sg10
(lp147
g141
a(igraph
Vertex
p148
(dp149
g14
F0.29411764705882354
sg8
I00
sg15
g16
sg17
F-115.75
sg18
F-35.588235294117638
sg19
I102103
sg20
S'39.4402146083'
p150
sg22
F0.25
sbasg26
I00
sg27
I00
sg28
I102041
sg20
S'39.4774866638'
p151
sba(igraph
Edge
p152
(dp153
g7
I1
sg8
I00
sg9
I5
sg10
(lp154
g148
a(igraph
Vertex
p155
(dp156
g14
F0.35294117647058826
sg8
I00
sg15
I0
sg17
F-115.75
sg18
F-12.70588235294116
sg19
I102104
sg20
S'39.4404126781'
p157
sg22
F0.25
sbasg26
I00
sg27
I00
sg28
I102042
sg20
S'39.4778584988'
p158
sba(igraph
Edge
p159
(dp160
g7
I1
sg8
I00
sg9
I5
sg10
(lp161
g155
a(igraph
Vertex
p162
(dp163
g14
F0.41176470588235298
sg8
I00
sg15
g16
sg17
F-115.75
sg18
F10.176470588235304
sg19
I102106
sg20
S'39.440616894'
p164
sg22
F0.25
sbasg26
I00
sg27
I00
sg28
I102043
sg20
S'39.4782440226'
p165
sba(igraph
Edge
p166
(dp167
g7
I1
sg8
I00
sg9
I5
sg10
(lp168
g162
a(igraph
Vertex
p169
(dp170
g14
F0.4705882352941177
sg8
I00
sg15
I0
sg17
F-115.75
sg18
F33.058823529411796
sg19
I102107
sg20
S'39.4408306084'
p171
sg22
F0.25
sbasg26
I00
sg27
I00
sg28
I102044
sg20
S'39.4786334576'
p172
sba(igraph
Edge
p173
(dp174
g7
I1
sg8
I00
sg9
I5
sg10
(lp175
g169
a(igraph
Vertex
p176
(dp177
g14
F0.52941176470588236
sg8
I00
sg15
g16
sg17
F-115.75
sg18
F55.941176470588232
sg19
I102109
sg20
S'39.4410521449'
p178
sg22
F0.25
sbasg26
I00
sg27
I00
sg28
I102045
sg20
S'39.4790720608'
p179
sba(igraph
Edge
p180
(dp181
g7
I1
sg8
I00
sg9
I5
sg10
(lp182
g176
a(igraph
Vertex
p183
(dp184
g14
F0.58823529411764708
sg8
I00
sg15
I0
sg17
F-115.75
sg18
F78.823529411764724
sg19
I102110
sg20
S'39.4412815037'
p185
sg22
F0.25
sbasg26
I00
sg27
I00
sg28
I102046
sg20
S'39.4794913879'
p186
sba(igraph
Edge
p187
(dp188
g7
I1
sg8
I00
sg9
I5
sg10
(lp189
g183
a(igraph
Vertex
p190
(dp191
g14
F0.6470588235294118
sg8
I00
sg15
g16
sg17
F-115.75
sg18
F101.70588235294119
sg19
I102112
sg20
S'39.441518964'
p192
sg22
F0.25
sbasg26
I00
sg27
I00
sg28
I102047
sg20
S'39.4799179784'
p193
sba(igraph
Edge
p194
(dp195
g7
I1
sg8
I00
sg9
I5
sg10
(lp196
g190
a(igraph
Vertex
p197
(dp198
g14
F0.70588235294117652
sg8
I00
sg15
g16
sg17
F-115.75
sg18
F124.58823529411768
sg19
I102113
sg20
S'39.4417634085'
p199
sg22
F0.25
sbasg26
I00
sg27
I00
sg28
I102048
sg20
S'39.4803697118'
p200
sba(igraph
Edge
p201
(dp202
g7
I1
sg8
I00
sg9
I5
sg10
(lp203
g197
a(igraph
Vertex
p204
(dp205
g14
F0.76470588235294124
sg8
I00
sg15
g16
sg17
F-115.75
sg18
F147.47058823529414
sg19
I102114
sg20
S'39.4420204244'
p206
sg22
F0.25
sbasg26
I00
sg27
I00
sg28
I102049
sg20
S'39.4808208865'
p207
sba(igraph
Edge
p208
(dp209
g7
I1
sg8
I00
sg9
I5
sg10
(lp210
(igraph
Vertex
p211
(dp212
g14
F0.0
sg8
I00
sg15
g16
sg17
F-52.5
sg18
F-150.0
sg19
I102115
sg20
S'39.4434097071'
p213
sg22
F0.5
sba(igraph
Vertex
p214
(dp215
g14
F0.058823529411764733
sg8
I00
sg15
g16
sg17
F-52.5
sg18
F-127.11764705882352
sg19
I102116
sg20
S'39.4437119802'
p216
sg22
F0.5
sbasg26
I00
sg27
I00
sg28
I102050
sg20
S'39.4838645694'
p217
sba(igraph
Edge
p218
(dp219
g7
I1
sg8
I00
sg9
I5
sg10
(lp220
g214
a(igraph
Vertex
p221
(dp222
g14
F0.11764705882352942
sg8
I00
sg15
g16
sg17
F-52.5
sg18
F-104.23529411764704
sg19
I102117
sg20
S'39.4440259865'
p223
sg22
F0.5
sbasg26
I00
sg27
I00
sg28
I102051
sg20
S'39.4844160361'
p224
sba(igraph
Edge
p225
(dp226
g7
I1
sg8
I00
sg9
I5
sg10
(lp227
g221
a(igraph
Vertex
p228
(dp229
g14
F0.1764705882352941
sg8
I00
sg15
g16
sg17
F-52.5
sg18
F-81.352941176470594
sg19
I102118
sg20
S'39.4443508882'
p230
sg22
F0.5
sbasg26
I00
sg27
I00
sg28
I102052
sg20
S'39.4849825886'
p231
sba(igraph
Edge
p232
(dp233
g7
I1
sg8
I00
sg9
I5
sg10
(lp234
g228
a(igraph
Vertex
p235
(dp236
g14
F0.23529411764705885
sg8
I00
sg15
g16
sg17
F-52.5
sg18
F-58.470588235294102
sg19
I102119
sg20
S'39.4446810977'
p237
sg22
F0.5
sbasg26
I00
sg27
I00
sg28
I102053
sg20
S'39.4855695347'
p238
sba(igraph
Edge
p239
(dp240
g7
I1
sg8
I00
sg9
I5
sg10
(lp241
g235
a(igraph
Vertex
p242
(dp243
g14
F0.29411764705882354
sg8
I00
sg15
g16
sg17
F-52.5
sg18
F-35.588235294117638
sg19
I102120
sg20
S'39.4450177327'
p244
sg22
F0.5
sbasg26
I00
sg27
I00
sg28
I102054
sg20
S'39.4861648617'
p245
sba(igraph
Edge
p246
(dp247
g7
I1
sg8
I00
sg9
I5
sg10
(lp248
g242
a(igraph
Vertex
p249
(dp250
g14
F0.35294117647058826
sg8
I00
sg15
g16
sg17
F-52.5
sg18
F-12.70588235294116
sg19
I102121
sg20
S'39.4453750407'
p251
sg22
F0.5
sbasg26
I00
sg27
I00
sg28
I102055
sg20
S'39.4867719221'
p252
sba(igraph
Edge
p253
(dp254
g7
I1
sg8
I00
sg9
I5
sg10
(lp255
g249
a(igraph
Vertex
p256
(dp257
g14
F0.41176470588235298
sg8
I00
sg15
g16
sg17
F-52.5
sg18
F10.176470588235304
sg19
I102122
sg20
S'39.4457275995'
p258
sg22
F0.5
sbasg26
I00
sg27
I00
sg28
I102056
sg20
S'39.4874502206'
p259
sba(igraph
Edge
p260
(dp261
g7
I1
sg8
I00
sg9
I5
sg10
(lp262
g256
a(igraph
Vertex
p263
(dp264
g14
F0.4705882352941177
sg8
I00
sg15
g16
sg17
F-52.5
sg18
F33.058823529411796
sg19
I102123
sg20
S'39.4460918916'
p265
sg22
F0.5
sbasg26
I00
sg27
I00
sg28
I102057
sg20
S'39.4880910842'
p266
sba(igraph
Edge
p267
(dp268
g7
I1
sg8
I00
sg9
I5
sg10
(lp269
g263
a(igraph
Vertex
p270
(dp271
g14
F0.52941176470588236
sg8
I00
sg15
g16
sg17
F-52.5
sg18
F55.941176470588232
sg19
I102124
sg20
S'39.446491663'
p272
sg22
F0.5
sbasg26
I00
sg27
I00
sg28
I102058
sg20
S'39.4887478716'
p273
sba(igraph
Edge
p274
(dp275
g7
I1
sg8
I00
sg9
I5
sg10
(lp276
g270
a(igraph
Vertex
p277
(dp278
g14
F0.58823529411764708
sg8
I00
sg15
g16
sg17
F-52.5
sg18
F78.823529411764724
sg19
I102125
sg20
S'39.4468746726'
p279
sg22
F0.5
sbasg26
I00
sg27
I00
sg28
I102059
sg20
S'39.4894158336'
p280
sba(igraph
Edge
p281
(dp282
g7
I1
sg8
I00
sg9
I5
sg10
(lp283
g277
a(igraph
Vertex
p284
(dp285
g14
F0.6470588235294118
sg8
I00
sg15
g16
sg17
F-52.5
sg18
F101.70588235294119
sg19
I102126
sg20
S'39.4472646663'
p286
sg22
F0.5
sbasg26
I00
sg27
I00
sg28
I102060
sg20
S'39.4901298908'
p287
sba(igraph
Edge
p288
(dp289
g7
I1
sg8
I00
sg9
I5
sg10
(lp290
g284
a(igraph
Vertex
p291
(dp292
g14
F0.70588235294117652
sg8
I00
sg15
g16
sg17
F-52.5
sg18
F124.58823529411768
sg19
I102127
sg20
S'39.4476585711'
p293
sg22
F0.5
sbasg26
I00
sg27
I00
sg28
I102061
sg20
S'39.4908400369'
p294
sba(igraph
Edge
p295
(dp296
g7
I1
sg8
I00
sg9
I5
sg10
(lp297
g291
a(igraph
Vertex
p298
(dp299
g14
F0.76470588235294124
sg8
I00
sg15
I0
sg17
F-52.5
sg18
F147.47058823529414
sg19
I102128
sg20
S'39.4481002474'
p300
sg22
F0.5
sbasg26
I00
sg27
I00
sg28
I102062
sg20
S'39.491555491'
p301
sba(igraph
Edge
p302
(dp303
g7
I1
sg8
I00
sg9
I5
sg10
(lp304
g12
ag120
asg26
I00
sg27
I00
sg28
I102063
sg20
S'39.5349316743'
p305
sba(igraph
Edge
p306
(dp307
g7
I1
sg8
I00
sg9
I5
sg10
(lp308
g33
ag134
asg26
I00
sg27
I00
sg28
I102064
sg20
S'39.5362539094'
p309
sba(igraph
Edge
p310
(dp311
g7
I1
sg8
I00
sg9
I5
sg10
(lp312
g47
ag148
asg26
I00
sg27
I00
sg28
I102065
sg20
S'39.5375736302'
p313
sba(igraph
Edge
p314
(dp315
g7
I1
sg8
I00
sg9
I5
sg10
(lp316
g61
ag162
asg26
I00
sg27
I00
sg28
I102066
sg20
S'39.5389268748'
p317
sba(igraph
Edge
p318
(dp319
g7
I1
sg8
I00
sg9
I5
sg10
(lp320
g75
ag176
asg26
I00
sg27
I00
sg28
I102067
sg20
S'39.540294367'
p321
sba(igraph
Edge
p322
(dp323
g7
I1
sg8
I00
sg9
I5
sg10
(lp324
g89
ag190
asg26
I00
sg27
I00
sg28
I102068
sg20
S'39.5417400815'
p325
sba(igraph
Edge
p326
(dp327
g7
I1
sg8
I00
sg9
I5
sg10
(lp328
g103
ag204
asg26
I00
sg27
I00
sg28
I102069
sg20
S'39.5431254531'
p329
sba(igraph
Edge
p330
(dp331
g7
I1
sg8
I00
sg9
I5
sg10
(lp332
g117
ag214
asg26
I00
sg27
I00
sg28
I102070
sg20
S'39.5617035126'
p333
sba(igraph
Edge
p334
(dp335
g7
I1
sg8
I00
sg9
I5
sg10
(lp336
g127
ag228
asg26
I00
sg27
I00
sg28
I102071
sg20
S'39.5632824842'
p337
sba(igraph
Edge
p338
(dp339
g7
I1
sg8
I00
sg9
I5
sg10
(lp340
g141
ag242
asg26
I00
sg27
I00
sg28
I102072
sg20
S'39.5649578368'
p341
sba(igraph
Edge
p342
(dp343
g7
I1
sg8
I00
sg9
I5
sg10
(lp344
g155
ag256
asg26
I00
sg27
I00
sg28
I102073
sg20
S'39.5665893291'
p345
sba(igraph
Edge
p346
(dp347
g7
I1
sg8
I00
sg9
I5
sg10
(lp348
g169
ag270
asg26
I00
sg27
I00
sg28
I102074
sg20
S'39.5682725039'
p349
sba(igraph
Edge
p350
(dp351
g7
I1
sg8
I00
sg9
I5
sg10
(lp352
g183
ag284
asg26
I00
sg27
I00
sg28
I102075
sg20
S'39.5700288724'
p353
sba(igraph
Edge
p354
(dp355
g7
I1
sg8
I00
sg9
I5
sg10
(lp356
g197
ag298
asg26
I00
sg27
I00
sg28
I102076
sg20
S'39.5717153996'
p357
sba(igraph
Edge
p358
(dp359
g7
I1
sg8
I00
sg9
I5
sg10
(lp360
g12
ag110
asg26
I00
sg27
I00
sg28
I102077
sg20
S'991.177604416'
p361
sba(igraph
Edge
p362
(dp363
g7
I1
sg8
I00
sg9
I5
sg10
(lp364
g117
ag204
asg26
I00
sg27
I00
sg28
I102078
sg20
S'995.239482392'
p365
sba(igraph
Edge
p366
(dp367
g7
I1
sg8
I00
sg9
I5
sg10
(lp368
g211
ag298
asg26
I00
sg27
I00
sg28
I102079
sg20
S'999.329850023'
p369
sbasS'vertices'
p370
(lp371
g12
ag23
ag33
ag40
ag47
ag54
ag61
ag68
ag75
ag82
ag89
ag96
ag103
ag110
ag117
ag120
ag127
ag134
ag141
ag148
ag155
ag162
ag169
ag176
ag183
ag190
ag197
ag204
ag211
ag214
ag221
ag228
ag235
ag242
ag249
ag256
ag263
ag270
ag277
ag284
ag291
ag298
asS'tags'
p372
(lp373
sb.