(igraph
Graph
p0
(dp1
S'labelingConstraints'
p2
I-1
sS'edges'
p3
(lp4
(igraph
Edge
p5
(dp6
S'direction'
p7
I1
sS'selected'
p8
I00
sS'height'
p9
I5
sS'vs'
p10
(lp11
(igraph
Vertex
p12
(dp13
S'xnorm'
p14
F0.0
sg8
I00
sS'label'
p15
S'NULL'
p16
sS'y'
p17
F-179.0
sS'x'
p18
F-150.0
sS'circle'
p19
I95389
sS'id'
p20
S'39.4377358016'
p21
sS'ynorm'
p22
F0.0
sba(igraph
Vertex
p23
(dp24
g14
F0.058823529411764733
sg8
I00
sg15
g16
sg17
F-179.0
sg18
F-127.11764705882352
sg19
I95390
sg20
S'39.4379162715'
p25
sg22
F0.0
sbasS'wrap'
p26
I00
sS'curved'
p27
I00
sS'line'
p28
I95325
sg20
S'39.4730556537'
p29
sba(igraph
Edge
p30
(dp31
g7
I1
sg8
I00
sg9
I5
sg10
(lp32
g23
a(igraph
Vertex
p33
(dp34
g14
F0.11764705882352942
sg8
I00
sg15
g16
sg17
F-179.0
sg18
F-104.23529411764704
sg19
I95391
sg20
S'39.4379408556'
p35
sg22
F0.0
sbasg26
I00
sg27
I00
sg28
I95326
sg20
S'39.4731059394'
p36
sba(igraph
Edge
p37
(dp38
g7
I1
sg8
I00
sg9
I5
sg10
(lp39
g33
a(igraph
Vertex
p40
(dp41
g14
F0.1764705882352941
sg8
I00
sg15
g16
sg17
F-179.0
sg18
F-81.352941176470594
sg19
I95392
sg20
S'39.4379687921'
p42
sg22
F0.0
sbasg26
I00
sg27
I00
sg28
I95327
sg20
S'39.4731665617'
p43
sba(igraph
Edge
p44
(dp45
g7
I1
sg8
I00
sg9
I5
sg10
(lp46
g40
a(igraph
Vertex
p47
(dp48
g14
F0.23529411764705885
sg8
I00
sg15
g16
sg17
F-179.0
sg18
F-58.470588235294102
sg19
I95393
sg20
S'39.4380034334'
p49
sg22
F0.0
sbasg26
I00
sg27
I00
sg28
I95328
sg20
S'39.4732626633'
p50
sba(igraph
Edge
p51
(dp52
g7
I1
sg8
I00
sg9
I5
sg10
(lp53
g47
a(igraph
Vertex
p54
(dp55
g14
F0.29411764705882354
sg8
I00
sg15
g16
sg17
F-179.0
sg18
F-35.588235294117638
sg19
I95394
sg20
S'39.4380595858'
p56
sg22
F0.0
sbasg26
I00
sg27
I00
sg28
I95329
sg20
S'39.4733509426'
p57
sba(igraph
Edge
p58
(dp59
g7
I1
sg8
I00
sg9
I5
sg10
(lp60
g54
a(igraph
Vertex
p61
(dp62
g14
F0.35294117647058826
sg8
I00
sg15
g16
sg17
F-179.0
sg18
F-12.70588235294116
sg19
I95395
sg20
S'39.4381137826'
p63
sg22
F0.0
sbasg26
I00
sg27
I00
sg28
I95330
sg20
S'39.4734543077'
p64
sba(igraph
Edge
p65
(dp66
g7
I1
sg8
I00
sg9
I5
sg10
(lp67
g61
a(igraph
Vertex
p68
(dp69
g14
F0.41176470588235298
sg8
I00
sg15
g16
sg17
F-179.0
sg18
F10.176470588235304
sg19
I95396
sg20
S'39.4381732874'
p70
sg22
F0.0
sbasg26
I00
sg27
I00
sg28
I95331
sg20
S'39.4735713617'
p71
sba(igraph
Edge
p72
(dp73
g7
I1
sg8
I00
sg9
I5
sg10
(lp74
g68
a(igraph
Vertex
p75
(dp76
g14
F0.4705882352941177
sg8
I00
sg15
g16
sg17
F-179.0
sg18
F33.058823529411796
sg19
I95397
sg20
S'39.4382383795'
p77
sg22
F0.0
sbasg26
I00
sg27
I00
sg28
I95332
sg20
S'39.4737032221'
p78
sba(igraph
Edge
p79
(dp80
g7
I1
sg8
I00
sg9
I5
sg10
(lp81
g75
a(igraph
Vertex
p82
(dp83
g14
F0.52941176470588236
sg8
I00
sg15
g16
sg17
F-179.0
sg18
F55.941176470588232
sg19
I95398
sg20
S'39.4383121318'
p84
sg22
F0.0
sbasg26
I00
sg27
I00
sg28
I95333
sg20
S'39.4738501681'
p85
sba(igraph
Edge
p86
(dp87
g7
I1
sg8
I00
sg9
I5
sg10
(lp88
g82
a(igraph
Vertex
p89
(dp90
g14
F0.58823529411764708
sg8
I00
sg15
g16
sg17
F-179.0
sg18
F78.823529411764724
sg19
I95399
sg20
S'39.4383928684'
p91
sg22
F0.0
sbasg26
I00
sg27
I00
sg28
I95334
sg20
S'39.4740121999'
p92
sba(igraph
Edge
p93
(dp94
g7
I1
sg8
I00
sg9
I5
sg10
(lp95
g89
a(igraph
Vertex
p96
(dp97
g14
F0.6470588235294118
sg8
I00
sg15
g16
sg17
F-179.0
sg18
F101.70588235294119
sg19
I95400
sg20
S'39.4384828239'
p98
sg22
F0.0
sbasg26
I00
sg27
I00
sg28
I95335
sg20
S'39.4742155777'
p99
sba(igraph
Edge
p100
(dp101
g7
I1
sg8
I00
sg9
I5
sg10
(lp102
g96
a(igraph
Vertex
p103
(dp104
g14
F0.70588235294117652
sg8
I01
sg15
I0
sg17
F-179.0
sg18
F124.58823529411768
sg19
I95402
sg20
S'39.4385814398'
p105
sg22
F0.0
sbasg26
I00
sg27
I00
sg28
I95336
sg20
S'39.4744136475'
p106
sba(igraph
Edge
p107
(dp108
g7
I1
sg8
I00
sg9
I5
sg10
(lp109
g103
a(igraph
Vertex
p110
(dp111
g14
F0.76470588235294124
sg8
I00
sg15
g16
sg17
F-179.0
sg18
F147.47058823529414
sg19
I95404
sg20
S'39.4386875986'
p112
sg22
F0.0
sbasg26
I00
sg27
I00
sg28
I95337
sg20
S'39.4746200984'
p113
sba(igraph
Edge
p114
(dp115
g7
I1
sg8
I00
sg9
I5
sg10
(lp116
g110
a(igraph
Vertex
p117
(dp118
g14
F0.82352941176470595
sg8
I00
sg15
g16
sg17
F-179.0
sg18
F170.35294117647061
sg19
I95405
sg20
S'39.4388015795'
p119
sg22
F0.0
sbasg26
I00
sg27
I00
sg28
I95338
sg20
S'39.4748394'
p120
sba(igraph
Edge
p121
(dp122
g7
I1
sg8
I00
sg9
I5
sg10
(lp123
g117
a(igraph
Vertex
p124
(dp125
g14
F0.88235294117647067
sg8
I00
sg15
g16
sg17
F-179.0
sg18
F193.23529411764707
sg19
I95406
sg20
S'39.4389236621'
p126
sg22
F0.0
sbasg26
I00
sg27
I00
sg28
I95339
sg20
S'39.4750715524'
p127
sba(igraph
Edge
p128
(dp129
g7
I1
sg8
I00
sg9
I5
sg10
(lp130
(igraph
Vertex
p131
(dp132
g14
F0.0
sg8
I00
sg15
I0
sg17
F-115.75
sg18
F-150.0
sg19
I95407
sg20
S'39.4393407542'
p133
sg22
F0.25
sba(igraph
Vertex
p134
(dp135
g14
F0.058823529411764733
sg8
I00
sg15
g16
sg17
F-115.75
sg18
F-127.11764705882352
sg19
I95409
sg20
S'39.4394955225'
p136
sg22
F0.25
sbasg26
I00
sg27
I00
sg28
I95340
sg20
S'39.4761518573'
p137
sba(igraph
Edge
p138
(dp139
g7
I1
sg8
I00
sg9
I5
sg10
(lp140
g134
a(igraph
Vertex
p141
(dp142
g14
F0.11764705882352942
sg8
I00
sg15
I0
sg17
F-115.75
sg18
F-104.23529411764704
sg19
I95410
sg20
S'39.439658113'
p143
sg22
F0.25
sbasg26
I00
sg27
I00
sg28
I95341
sg20
S'39.4764560859'
p144
sba(igraph
Edge
p145
(dp146
g7
I1
sg8
I00
sg9
I5
sg10
(lp147
g141
a(igraph
Vertex
p148
(dp149
g14
F0.1764705882352941
sg8
I00
sg15
g16
sg17
F-115.75
sg18
F-81.352941176470594
sg19
I95412
sg20
S'39.4398290844'
p150
sg22
F0.25
sbasg26
I00
sg27
I00
sg28
I95342
sg20
S'39.4767695336'
p151
sba(igraph
Edge
p152
(dp153
g7
I1
sg8
I00
sg9
I5
sg10
(lp154
g148
a(igraph
Vertex
p155
(dp156
g14
F0.23529411764705885
sg8
I00
sg15
I0
sg17
F-115.75
sg18
F-58.470588235294102
sg19
I95413
sg20
S'39.44002464'
p157
sg22
F0.25
sbasg26
I00
sg27
I00
sg28
I95343
sg20
S'39.4770983463'
p158
sba(igraph
Edge
p159
(dp160
g7
I1
sg8
I00
sg9
I5
sg10
(lp161
g155
a(igraph
Vertex
p162
(dp163
g14
F0.29411764705882354
sg8
I00
sg15
g16
sg17
F-115.75
sg18
F-35.588235294117638
sg19
I95415
sg20
S'39.4402146083'
p164
sg22
F0.25
sbasg26
I00
sg27
I00
sg28
I95344
sg20
S'39.4774866638'
p165
sba(igraph
Edge
p166
(dp167
g7
I1
sg8
I00
sg9
I5
sg10
(lp168
g162
a(igraph
Vertex
p169
(dp170
g14
F0.35294117647058826
sg8
I00
sg15
I0
sg17
F-115.75
sg18
F-12.70588235294116
sg19
I95416
sg20
S'39.4404126781'
p171
sg22
F0.25
sbasg26
I00
sg27
I00
sg28
I95345
sg20
S'39.4778584988'
p172
sba(igraph
Edge
p173
(dp174
g7
I1
sg8
I00
sg9
I5
sg10
(lp175
g169
a(igraph
Vertex
p176
(dp177
g14
F0.41176470588235298
sg8
I00
sg15
g16
sg17
F-115.75
sg18
F10.176470588235304
sg19
I95418
sg20
S'39.440616894'
p178
sg22
F0.25
sbasg26
I00
sg27
I00
sg28
I95346
sg20
S'39.4782440226'
p179
sba(igraph
Edge
p180
(dp181
g7
I1
sg8
I00
sg9
I5
sg10
(lp182
g176
a(igraph
Vertex
p183
(dp184
g14
F0.4705882352941177
sg8
I00
sg15
I0
sg17
F-115.75
sg18
F33.058823529411796
sg19
I95419
sg20
S'39.4408306084'
p185
sg22
F0.25
sbasg26
I00
sg27
I00
sg28
I95347
sg20
S'39.4786334576'
p186
sba(igraph
Edge
p187
(dp188
g7
I1
sg8
I00
sg9
I5
sg10
(lp189
g183
a(igraph
Vertex
p190
(dp191
g14
F0.52941176470588236
sg8
I00
sg15
g16
sg17
F-115.75
sg18
F55.941176470588232
sg19
I95421
sg20
S'39.4410521449'
p192
sg22
F0.25
sbasg26
I00
sg27
I00
sg28
I95348
sg20
S'39.4790720608'
p193
sba(igraph
Edge
p194
(dp195
g7
I1
sg8
I00
sg9
I5
sg10
(lp196
g190
a(igraph
Vertex
p197
(dp198
g14
F0.58823529411764708
sg8
I00
sg15
I0
sg17
F-115.75
sg18
F78.823529411764724
sg19
I95422
sg20
S'39.4412815037'
p199
sg22
F0.25
sbasg26
I00
sg27
I00
sg28
I95349
sg20
S'39.4794913879'
p200
sba(igraph
Edge
p201
(dp202
g7
I1
sg8
I00
sg9
I5
sg10
(lp203
g197
a(igraph
Vertex
p204
(dp205
g14
F0.6470588235294118
sg8
I00
sg15
g16
sg17
F-115.75
sg18
F101.70588235294119
sg19
I95424
sg20
S'39.441518964'
p206
sg22
F0.25
sbasg26
I00
sg27
I00
sg28
I95350
sg20
S'39.4799179784'
p207
sba(igraph
Edge
p208
(dp209
g7
I1
sg8
I00
sg9
I5
sg10
(lp210
g204
a(igraph
Vertex
p211
(dp212
g14
F0.70588235294117652
sg8
I00
sg15
I0
sg17
F-115.75
sg18
F124.58823529411768
sg19
I95425
sg20
S'39.4417634085'
p213
sg22
F0.25
sbasg26
I00
sg27
I00
sg28
I95351
sg20
S'39.4803697118'
p214
sba(igraph
Edge
p215
(dp216
g7
I1
sg8
I00
sg9
I5
sg10
(lp217
g211
a(igraph
Vertex
p218
(dp219
g14
F0.76470588235294124
sg8
I00
sg15
g16
sg17
F-115.75
sg18
F147.47058823529414
sg19
I95427
sg20
S'39.4420204244'
p220
sg22
F0.25
sbasg26
I00
sg27
I00
sg28
I95352
sg20
S'39.4808208865'
p221
sba(igraph
Edge
p222
(dp223
g7
I1
sg8
I00
sg9
I5
sg10
(lp224
g218
a(igraph
Vertex
p225
(dp226
g14
F0.82352941176470595
sg8
I00
sg15
g16
sg17
F-115.75
sg18
F170.35294117647061
sg19
I95428
sg20
S'39.4422805133'
p227
sg22
F0.25
sbasg26
I00
sg27
I00
sg28
I95353
sg20
S'39.48128575'
p228
sba(igraph
Edge
p229
(dp230
g7
I1
sg8
I00
sg9
I5
sg10
(lp231
g225
a(igraph
Vertex
p232
(dp233
g14
F0.88235294117647067
sg8
I00
sg15
g16
sg17
F-115.75
sg18
F193.23529411764707
sg19
I95429
sg20
S'39.4425495419'
p234
sg22
F0.25
sbasg26
I00
sg27
I00
sg28
I95354
sg20
S'39.4817659786'
p235
sba(igraph
Edge
p236
(dp237
g7
I1
sg8
I00
sg9
I5
sg10
(lp238
(igraph
Vertex
p239
(dp240
g14
F0.0
sg8
I00
sg15
g16
sg17
F-52.5
sg18
F-150.0
sg19
I95430
sg20
S'39.4434097071'
p241
sg22
F0.5
sba(igraph
Vertex
p242
(dp243
g14
F0.058823529411764733
sg8
I00
sg15
g16
sg17
F-52.5
sg18
F-127.11764705882352
sg19
I95431
sg20
S'39.4437119802'
p244
sg22
F0.5
sbasg26
I00
sg27
I00
sg28
I95355
sg20
S'39.4838645694'
p245
sba(igraph
Edge
p246
(dp247
g7
I1
sg8
I00
sg9
I5
sg10
(lp248
g242
a(igraph
Vertex
p249
(dp250
g14
F0.11764705882352942
sg8
I00
sg15
g16
sg17
F-52.5
sg18
F-104.23529411764704
sg19
I95432
sg20
S'39.4440259865'
p251
sg22
F0.5
sbasg26
I00
sg27
I00
sg28
I95356
sg20
S'39.4844160361'
p252
sba(igraph
Edge
p253
(dp254
g7
I1
sg8
I00
sg9
I5
sg10
(lp255
g249
a(igraph
Vertex
p256
(dp257
g14
F0.1764705882352941
sg8
I00
sg15
g16
sg17
F-52.5
sg18
F-81.352941176470594
sg19
I95433
sg20
S'39.4443508882'
p258
sg22
F0.5
sbasg26
I00
sg27
I00
sg28
I95357
sg20
S'39.4849825886'
p259
sba(igraph
Edge
p260
(dp261
g7
I1
sg8
I00
sg9
I5
sg10
(lp262
g256
a(igraph
Vertex
p263
(dp264
g14
F0.23529411764705885
sg8
I00
sg15
g16
sg17
F-52.5
sg18
F-58.470588235294102
sg19
I95434
sg20
S'39.4446810977'
p265
sg22
F0.5
sbasg26
I00
sg27
I00
sg28
I95358
sg20
S'39.4855695347'
p266
sba(igraph
Edge
p267
(dp268
g7
I1
sg8
I00
sg9
I5
sg10
(lp269
g263
a(igraph
Vertex
p270
(dp271
g14
F0.29411764705882354
sg8
I00
sg15
g16
sg17
F-52.5
sg18
F-35.588235294117638
sg19
I95435
sg20
S'39.4450177327'
p272
sg22
F0.5
sbasg26
I00
sg27
I00
sg28
I95359
sg20
S'39.4861648617'
p273
sba(igraph
Edge
p274
(dp275
g7
I1
sg8
I00
sg9
I5
sg10
(lp276
g270
a(igraph
Vertex
p277
(dp278
g14
F0.35294117647058826
sg8
I00
sg15
g16
sg17
F-52.5
sg18
F-12.70588235294116
sg19
I95436
sg20
S'39.4453750407'
p279
sg22
F0.5
sbasg26
I00
sg27
I00
sg28
I95360
sg20
S'39.4867719221'
p280
sba(igraph
Edge
p281
(dp282
g7
I1
sg8
I00
sg9
I5
sg10
(lp283
g277
a(igraph
Vertex
p284
(dp285
g14
F0.41176470588235298
sg8
I00
sg15
g16
sg17
F-52.5
sg18
F10.176470588235304
sg19
I95437
sg20
S'39.4457275995'
p286
sg22
F0.5
sbasg26
I00
sg27
I00
sg28
I95361
sg20
S'39.4874502206'
p287
sba(igraph
Edge
p288
(dp289
g7
I1
sg8
I00
sg9
I5
sg10
(lp290
g284
a(igraph
Vertex
p291
(dp292
g14
F0.4705882352941177
sg8
I00
sg15
g16
sg17
F-52.5
sg18
F33.058823529411796
sg19
I95438
sg20
S'39.4460918916'
p293
sg22
F0.5
sbasg26
I00
sg27
I00
sg28
I95362
sg20
S'39.4880910842'
p294
sba(igraph
Edge
p295
(dp296
g7
I1
sg8
I00
sg9
I5
sg10
(lp297
g291
a(igraph
Vertex
p298
(dp299
g14
F0.52941176470588236
sg8
I00
sg15
g16
sg17
F-52.5
sg18
F55.941176470588232
sg19
I95439
sg20
S'39.446491663'
p300
sg22
F0.5
sbasg26
I00
sg27
I00
sg28
I95363
sg20
S'39.4887478716'
p301
sba(igraph
Edge
p302
(dp303
g7
I1
sg8
I00
sg9
I5
sg10
(lp304
g298
a(igraph
Vertex
p305
(dp306
g14
F0.58823529411764708
sg8
I00
sg15
g16
sg17
F-52.5
sg18
F78.823529411764724
sg19
I95440
sg20
S'39.4468746726'
p307
sg22
F0.5
sbasg26
I00
sg27
I00
sg28
I95364
sg20
S'39.4894158336'
p308
sba(igraph
Edge
p309
(dp310
g7
I1
sg8
I00
sg9
I5
sg10
(lp311
g305
a(igraph
Vertex
p312
(dp313
g14
F0.6470588235294118
sg8
I00
sg15
g16
sg17
F-52.5
sg18
F101.70588235294119
sg19
I95441
sg20
S'39.4472646663'
p314
sg22
F0.5
sbasg26
I00
sg27
I00
sg28
I95365
sg20
S'39.4901298908'
p315
sba(igraph
Edge
p316
(dp317
g7
I1
sg8
I00
sg9
I5
sg10
(lp318
g312
a(igraph
Vertex
p319
(dp320
g14
F0.70588235294117652
sg8
I00
sg15
g16
sg17
F-52.5
sg18
F124.58823529411768
sg19
I95442
sg20
S'39.4476585711'
p321
sg22
F0.5
sbasg26
I00
sg27
I00
sg28
I95366
sg20
S'39.4908400369'
p322
sba(igraph
Edge
p323
(dp324
g7
I1
sg8
I00
sg9
I5
sg10
(lp325
g319
a(igraph
Vertex
p326
(dp327
g14
F0.76470588235294124
sg8
I00
sg15
g16
sg17
F-52.5
sg18
F147.47058823529414
sg19
I95443
sg20
S'39.4481002474'
p328
sg22
F0.5
sbasg26
I00
sg27
I00
sg28
I95367
sg20
S'39.491555491'
p329
sba(igraph
Edge
p330
(dp331
g7
I1
sg8
I00
sg9
I5
sg10
(lp332
g326
a(igraph
Vertex
p333
(dp334
g14
F0.82352941176470595
sg8
I00
sg15
g16
sg17
F-52.5
sg18
F170.35294117647061
sg19
I95444
sg20
S'39.448513149'
p335
sg22
F0.5
sbasg26
I00
sg27
I00
sg28
I95368
sg20
S'39.4922874276'
p336
sba(igraph
Edge
p337
(dp338
g7
I1
sg8
I00
sg9
I5
sg10
(lp339
g333
a(igraph
Vertex
p340
(dp341
g14
F0.88235294117647067
sg8
I01
sg15
I0
sg17
F-52.5
sg18
F193.23529411764707
sg19
I95446
sg20
S'39.4489335935'
p342
sg22
F0.5
sbasg26
I00
sg27
I00
sg28
I95369
sg20
S'39.4930344499'
p343
sba(igraph
Edge
p344
(dp345
g7
I1
sg8
I00
sg9
I5
sg10
(lp346
g12
ag134
asg26
I00
sg27
I00
sg28
I95370
sg20
S'39.5349316743'
p347
sba(igraph
Edge
p348
(dp349
g7
I1
sg8
I00
sg9
I5
sg10
(lp350
g33
ag148
asg26
I00
sg27
I00
sg28
I95371
sg20
S'39.5362539094'
p351
sba(igraph
Edge
p352
(dp353
g7
I1
sg8
I00
sg9
I5
sg10
(lp354
g47
ag162
asg26
I00
sg27
I00
sg28
I95372
sg20
S'39.5375736302'
p355
sba(igraph
Edge
p356
(dp357
g7
I1
sg8
I00
sg9
I5
sg10
(lp358
g61
ag176
asg26
I00
sg27
I00
sg28
I95373
sg20
S'39.5389268748'
p359
sba(igraph
Edge
p360
(dp361
g7
I1
sg8
I00
sg9
I5
sg10
(lp362
g75
ag190
asg26
I00
sg27
I00
sg28
I95374
sg20
S'39.540294367'
p363
sba(igraph
Edge
p364
(dp365
g7
I1
sg8
I00
sg9
I5
sg10
(lp366
g89
ag204
asg26
I00
sg27
I00
sg28
I95375
sg20
S'39.5417400815'
p367
sba(igraph
Edge
p368
(dp369
g7
I1
sg8
I00
sg9
I5
sg10
(lp370
g103
ag218
asg26
I00
sg27
I00
sg28
I95376
sg20
S'39.5431254531'
p371
sba(igraph
Edge
p372
(dp373
g7
I1
sg8
I00
sg9
I5
sg10
(lp374
g117
ag232
asg26
I00
sg27
I00
sg28
I95377
sg20
S'39.5446373771'
p375
sba(igraph
Edge
p376
(dp377
g7
I1
sg8
I00
sg9
I5
sg10
(lp378
g131
ag242
asg26
I00
sg27
I00
sg28
I95378
sg20
S'39.5617035126'
p379
sba(igraph
Edge
p380
(dp381
g7
I1
sg8
I00
sg9
I5
sg10
(lp382
g141
ag256
asg26
I00
sg27
I00
sg28
I95379
sg20
S'39.5632824842'
p383
sba(igraph
Edge
p384
(dp385
g7
I1
sg8
I00
sg9
I5
sg10
(lp386
g155
ag270
asg26
I00
sg27
I00
sg28
I95380
sg20
S'39.5649578368'
p387
sba(igraph
Edge
p388
(dp389
g7
I1
sg8
I00
sg9
I5
sg10
(lp390
g169
ag284
asg26
I00
sg27
I00
sg28
I95381
sg20
S'39.5665893291'
p391
sba(igraph
Edge
p392
(dp393
g7
I1
sg8
I00
sg9
I5
sg10
(lp394
g183
ag298
asg26
I00
sg27
I00
sg28
I95382
sg20
S'39.5682725039'
p395
sba(igraph
Edge
p396
(dp397
g7
I1
sg8
I00
sg9
I5
sg10
(lp398
g197
ag312
asg26
I00
sg27
I00
sg28
I95383
sg20
S'39.5700288724'
p399
sba(igraph
Edge
p400
(dp401
g7
I1
sg8
I00
sg9
I5
sg10
(lp402
g211
ag326
asg26
I00
sg27
I00
sg28
I95384
sg20
S'39.5717153996'
p403
sba(igraph
Edge
p404
(dp405
g7
I1
sg8
I00
sg9
I5
sg10
(lp406
g225
ag340
asg26
I00
sg27
I00
sg28
I95385
sg20
S'39.573403603'
p407
sba(igraph
Edge
p408
(dp409
g7
I1
sg8
I00
sg9
I5
sg10
(lp410
g12
ag124
asg26
I00
sg27
I00
sg28
I95386
sg20
S'929.796012901'
p411
sba(igraph
Edge
p412
(dp413
g7
I1
sg8
I00
sg9
I5
sg10
(lp414
g239
ag340
asg26
I00
sg27
I00
sg28
I95387
sg20
S'934.562813151'
p415
sba(igraph
Edge
p416
(dp417
g7
I1
sg8
I00
sg9
I5
sg10
(lp418
g131
ag232
asg26
I00
sg27
I00
sg28
I95388
sg20
S'938.063396884'
p419
sbasS'vertices'
p420
(lp421
g12
ag23
ag33
ag40
ag47
ag54
ag61
ag68
ag75
ag82
ag89
ag96
ag103
ag110
ag117
ag124
ag131
ag134
ag141
ag148
ag155
ag162
ag169
ag176
ag183
ag190
ag197
ag204
ag211
ag218
ag225
ag232
ag239
ag242
ag249
ag256
ag263
ag270
ag277
ag284
ag291
ag298
ag305
ag312
ag319
ag326
ag333
ag340
asS'tags'
p422
(lp423
sb.