(igraph
Graph
p0
(dp1
S'labelingConstraints'
p2
I-1
sS'edges'
p3
(lp4
(igraph
Edge
p5
(dp6
S'direction'
p7
I1
sS'selected'
p8
I00
sS'height'
p9
I5
sS'vs'
p10
(lp11
(igraph
Vertex
p12
(dp13
S'xnorm'
p14
F0.0
sg8
I00
sS'label'
p15
S'NULL'
p16
sS'y'
p17
F-179.0
sS'x'
p18
F-150.0
sS'circle'
p19
I89417
sS'id'
p20
S'39.4377358016'
p21
sS'ynorm'
p22
F0.0
sba(igraph
Vertex
p23
(dp24
g14
F0.058823529411764733
sg8
I00
sg15
g16
sg17
F-179.0
sg18
F-127.11764705882352
sg19
I89418
sg20
S'39.4379162715'
p25
sg22
F0.0
sbasS'wrap'
p26
I00
sS'curved'
p27
I00
sS'line'
p28
I89345
sg20
S'39.4730556537'
p29
sba(igraph
Edge
p30
(dp31
g7
I1
sg8
I00
sg9
I5
sg10
(lp32
g23
a(igraph
Vertex
p33
(dp34
g14
F0.11764705882352942
sg8
I00
sg15
g16
sg17
F-179.0
sg18
F-104.23529411764704
sg19
I89419
sg20
S'39.4379408556'
p35
sg22
F0.0
sbasg26
I00
sg27
I00
sg28
I89346
sg20
S'39.4731059394'
p36
sba(igraph
Edge
p37
(dp38
g7
I1
sg8
I00
sg9
I5
sg10
(lp39
g33
a(igraph
Vertex
p40
(dp41
g14
F0.1764705882352941
sg8
I00
sg15
g16
sg17
F-179.0
sg18
F-81.352941176470594
sg19
I89420
sg20
S'39.4379687921'
p42
sg22
F0.0
sbasg26
I00
sg27
I00
sg28
I89347
sg20
S'39.4731665617'
p43
sba(igraph
Edge
p44
(dp45
g7
I1
sg8
I00
sg9
I5
sg10
(lp46
g40
a(igraph
Vertex
p47
(dp48
g14
F0.23529411764705885
sg8
I00
sg15
g16
sg17
F-179.0
sg18
F-58.470588235294102
sg19
I89421
sg20
S'39.4380034334'
p49
sg22
F0.0
sbasg26
I00
sg27
I00
sg28
I89348
sg20
S'39.4732626633'
p50
sba(igraph
Edge
p51
(dp52
g7
I1
sg8
I00
sg9
I5
sg10
(lp53
g47
a(igraph
Vertex
p54
(dp55
g14
F0.29411764705882354
sg8
I00
sg15
g16
sg17
F-179.0
sg18
F-35.588235294117638
sg19
I89422
sg20
S'39.4380595858'
p56
sg22
F0.0
sbasg26
I00
sg27
I00
sg28
I89349
sg20
S'39.4733509426'
p57
sba(igraph
Edge
p58
(dp59
g7
I1
sg8
I00
sg9
I5
sg10
(lp60
g54
a(igraph
Vertex
p61
(dp62
g14
F0.35294117647058826
sg8
I00
sg15
g16
sg17
F-179.0
sg18
F-12.70588235294116
sg19
I89423
sg20
S'39.4381137826'
p63
sg22
F0.0
sbasg26
I00
sg27
I00
sg28
I89350
sg20
S'39.4734543077'
p64
sba(igraph
Edge
p65
(dp66
g7
I1
sg8
I00
sg9
I5
sg10
(lp67
g61
a(igraph
Vertex
p68
(dp69
g14
F0.41176470588235298
sg8
I00
sg15
g16
sg17
F-179.0
sg18
F10.176470588235304
sg19
I89424
sg20
S'39.4381732874'
p70
sg22
F0.0
sbasg26
I00
sg27
I00
sg28
I89351
sg20
S'39.4735713617'
p71
sba(igraph
Edge
p72
(dp73
g7
I1
sg8
I00
sg9
I5
sg10
(lp74
g68
a(igraph
Vertex
p75
(dp76
g14
F0.4705882352941177
sg8
I00
sg15
g16
sg17
F-179.0
sg18
F33.058823529411796
sg19
I89425
sg20
S'39.4382383795'
p77
sg22
F0.0
sbasg26
I00
sg27
I00
sg28
I89352
sg20
S'39.4737032221'
p78
sba(igraph
Edge
p79
(dp80
g7
I1
sg8
I00
sg9
I5
sg10
(lp81
g75
a(igraph
Vertex
p82
(dp83
g14
F0.52941176470588236
sg8
I00
sg15
g16
sg17
F-179.0
sg18
F55.941176470588232
sg19
I89426
sg20
S'39.4383121318'
p84
sg22
F0.0
sbasg26
I00
sg27
I00
sg28
I89353
sg20
S'39.4738501681'
p85
sba(igraph
Edge
p86
(dp87
g7
I1
sg8
I00
sg9
I5
sg10
(lp88
g82
a(igraph
Vertex
p89
(dp90
g14
F0.58823529411764708
sg8
I00
sg15
g16
sg17
F-179.0
sg18
F78.823529411764724
sg19
I89427
sg20
S'39.4383928684'
p91
sg22
F0.0
sbasg26
I00
sg27
I00
sg28
I89354
sg20
S'39.4740121999'
p92
sba(igraph
Edge
p93
(dp94
g7
I1
sg8
I00
sg9
I5
sg10
(lp95
g89
a(igraph
Vertex
p96
(dp97
g14
F0.6470588235294118
sg8
I00
sg15
g16
sg17
F-179.0
sg18
F101.70588235294119
sg19
I89428
sg20
S'39.4384828239'
p98
sg22
F0.0
sbasg26
I00
sg27
I00
sg28
I89355
sg20
S'39.4742155777'
p99
sba(igraph
Edge
p100
(dp101
g7
I1
sg8
I00
sg9
I5
sg10
(lp102
g96
a(igraph
Vertex
p103
(dp104
g14
F0.70588235294117652
sg8
I00
sg15
g16
sg17
F-179.0
sg18
F124.58823529411768
sg19
I89429
sg20
S'39.4385814398'
p105
sg22
F0.0
sbasg26
I00
sg27
I00
sg28
I89356
sg20
S'39.4744136475'
p106
sba(igraph
Edge
p107
(dp108
g7
I1
sg8
I00
sg9
I5
sg10
(lp109
g103
a(igraph
Vertex
p110
(dp111
g14
F0.76470588235294124
sg8
I00
sg15
g16
sg17
F-179.0
sg18
F147.47058823529414
sg19
I89430
sg20
S'39.4386875986'
p112
sg22
F0.0
sbasg26
I00
sg27
I00
sg28
I89357
sg20
S'39.4746200984'
p113
sba(igraph
Edge
p114
(dp115
g7
I1
sg8
I00
sg9
I5
sg10
(lp116
g110
a(igraph
Vertex
p117
(dp118
g14
F0.82352941176470595
sg8
I00
sg15
g16
sg17
F-179.0
sg18
F170.35294117647061
sg19
I89431
sg20
S'39.4388015795'
p119
sg22
F0.0
sbasg26
I00
sg27
I00
sg28
I89358
sg20
S'39.4748394'
p120
sba(igraph
Edge
p121
(dp122
g7
I1
sg8
I00
sg9
I5
sg10
(lp123
g117
a(igraph
Vertex
p124
(dp125
g14
F0.88235294117647067
sg8
I00
sg15
g16
sg17
F-179.0
sg18
F193.23529411764707
sg19
I89432
sg20
S'39.4389236621'
p126
sg22
F0.0
sbasg26
I00
sg27
I00
sg28
I89359
sg20
S'39.4750715524'
p127
sba(igraph
Edge
p128
(dp129
g7
I1
sg8
I00
sg9
I5
sg10
(lp130
g124
a(igraph
Vertex
p131
(dp132
g14
F0.94117647058823539
sg8
I01
sg15
I0
sg17
F-179.0
sg18
F216.11764705882359
sg19
I89434
sg20
S'39.4390560811'
p133
sg22
F0.0
sbasg26
I00
sg27
I00
sg28
I89360
sg20
S'39.475316835'
p134
sba(igraph
Edge
p135
(dp136
g7
I1
sg8
I00
sg9
I5
sg10
(lp137
g131
a(igraph
Vertex
p138
(dp139
g14
F1.0
sg8
I00
sg15
g16
sg17
F-179.0
sg18
F239.0
sg19
I89436
sg20
S'39.4391943669'
p140
sg22
F0.0
sbasg26
I00
sg27
I00
sg28
I89361
sg20
S'39.4755772032'
p141
sba(igraph
Edge
p142
(dp143
g7
F1.0
sS'h'
p144
F44.5
sS'k'
p145
F23.900000000000123
sg8
I00
sg9
F78.167002687971149
sS'start'
p146
F46.210903093884156
sg10
(lp147
g138
ag12
asS'extent'
p148
F87.578193812231689
sg26
I00
sg27
I1
sg28
I89362
sS'r'
p149
F281.06700268797124
sg20
S'39.4758534953'
p150
sba(igraph
Edge
p151
(dp152
g7
I1
sg8
I00
sg9
I5
sg10
(lp153
(igraph
Vertex
p154
(dp155
g14
F0.0
sg8
I01
sg15
I0
sg17
F-115.75
sg18
F-150.0
sg19
I89438
sg20
S'39.4393407542'
p156
sg22
F0.25
sba(igraph
Vertex
p157
(dp158
g14
F0.058823529411764733
sg8
I00
sg15
g16
sg17
F-115.75
sg18
F-127.11764705882352
sg19
I89440
sg20
S'39.4394955225'
p159
sg22
F0.25
sbasg26
I00
sg27
I00
sg28
I89363
sg20
S'39.4761518573'
p160
sba(igraph
Edge
p161
(dp162
g7
I1
sg8
I00
sg9
I5
sg10
(lp163
g157
a(igraph
Vertex
p164
(dp165
g14
F0.11764705882352942
sg8
I01
sg15
I0
sg17
F-115.75
sg18
F-104.23529411764704
sg19
I89442
sg20
S'39.439658113'
p166
sg22
F0.25
sbasg26
I00
sg27
I00
sg28
I89364
sg20
S'39.4764560859'
p167
sba(igraph
Edge
p168
(dp169
g7
I1
sg8
I00
sg9
I5
sg10
(lp170
g164
a(igraph
Vertex
p171
(dp172
g14
F0.1764705882352941
sg8
I00
sg15
g16
sg17
F-115.75
sg18
F-81.352941176470594
sg19
I89444
sg20
S'39.4398290844'
p173
sg22
F0.25
sbasg26
I00
sg27
I00
sg28
I89365
sg20
S'39.4767695336'
p174
sba(igraph
Edge
p175
(dp176
g7
I1
sg8
I00
sg9
I5
sg10
(lp177
g171
a(igraph
Vertex
p178
(dp179
g14
F0.23529411764705885
sg8
I01
sg15
I0
sg17
F-115.75
sg18
F-58.470588235294102
sg19
I89446
sg20
S'39.44002464'
p180
sg22
F0.25
sbasg26
I00
sg27
I00
sg28
I89366
sg20
S'39.4770983463'
p181
sba(igraph
Edge
p182
(dp183
g7
I1
sg8
I00
sg9
I5
sg10
(lp184
g178
a(igraph
Vertex
p185
(dp186
g14
F0.29411764705882354
sg8
I00
sg15
g16
sg17
F-115.75
sg18
F-35.588235294117638
sg19
I89448
sg20
S'39.4402146083'
p187
sg22
F0.25
sbasg26
I00
sg27
I00
sg28
I89367
sg20
S'39.4774866638'
p188
sba(igraph
Edge
p189
(dp190
g7
I1
sg8
I00
sg9
I5
sg10
(lp191
g185
a(igraph
Vertex
p192
(dp193
g14
F0.35294117647058826
sg8
I01
sg15
I0
sg17
F-115.75
sg18
F-12.70588235294116
sg19
I89450
sg20
S'39.4404126781'
p194
sg22
F0.25
sbasg26
I00
sg27
I00
sg28
I89368
sg20
S'39.4778584988'
p195
sba(igraph
Edge
p196
(dp197
g7
I1
sg8
I00
sg9
I5
sg10
(lp198
g192
a(igraph
Vertex
p199
(dp200
g14
F0.41176470588235298
sg8
I00
sg15
g16
sg17
F-115.75
sg18
F10.176470588235304
sg19
I89452
sg20
S'39.440616894'
p201
sg22
F0.25
sbasg26
I00
sg27
I00
sg28
I89369
sg20
S'39.4782440226'
p202
sba(igraph
Edge
p203
(dp204
g7
I1
sg8
I00
sg9
I5
sg10
(lp205
g199
a(igraph
Vertex
p206
(dp207
g14
F0.4705882352941177
sg8
I01
sg15
I0
sg17
F-115.75
sg18
F33.058823529411796
sg19
I89454
sg20
S'39.4408306084'
p208
sg22
F0.25
sbasg26
I00
sg27
I00
sg28
I89370
sg20
S'39.4786334576'
p209
sba(igraph
Edge
p210
(dp211
g7
I1
sg8
I00
sg9
I5
sg10
(lp212
g206
a(igraph
Vertex
p213
(dp214
g14
F0.52941176470588236
sg8
I00
sg15
g16
sg17
F-115.75
sg18
F55.941176470588232
sg19
I89456
sg20
S'39.4410521449'
p215
sg22
F0.25
sbasg26
I00
sg27
I00
sg28
I89371
sg20
S'39.4790720608'
p216
sba(igraph
Edge
p217
(dp218
g7
I1
sg8
I00
sg9
I5
sg10
(lp219
g213
a(igraph
Vertex
p220
(dp221
g14
F0.58823529411764708
sg8
I01
sg15
I0
sg17
F-115.75
sg18
F78.823529411764724
sg19
I89458
sg20
S'39.4412815037'
p222
sg22
F0.25
sbasg26
I00
sg27
I00
sg28
I89372
sg20
S'39.4794913879'
p223
sba(igraph
Edge
p224
(dp225
g7
I1
sg8
I00
sg9
I5
sg10
(lp226
g220
a(igraph
Vertex
p227
(dp228
g14
F0.6470588235294118
sg8
I00
sg15
g16
sg17
F-115.75
sg18
F101.70588235294119
sg19
I89460
sg20
S'39.441518964'
p229
sg22
F0.25
sbasg26
I00
sg27
I00
sg28
I89373
sg20
S'39.4799179784'
p230
sba(igraph
Edge
p231
(dp232
g7
I1
sg8
I00
sg9
I5
sg10
(lp233
g227
a(igraph
Vertex
p234
(dp235
g14
F0.70588235294117652
sg8
I01
sg15
I0
sg17
F-115.75
sg18
F124.58823529411768
sg19
I89462
sg20
S'39.4417634085'
p236
sg22
F0.25
sbasg26
I00
sg27
I00
sg28
I89374
sg20
S'39.4803697118'
p237
sba(igraph
Edge
p238
(dp239
g7
I1
sg8
I00
sg9
I5
sg10
(lp240
g234
a(igraph
Vertex
p241
(dp242
g14
F0.76470588235294124
sg8
I00
sg15
g16
sg17
F-115.75
sg18
F147.47058823529414
sg19
I89464
sg20
S'39.4420204244'
p243
sg22
F0.25
sbasg26
I00
sg27
I00
sg28
I89375
sg20
S'39.4808208865'
p244
sba(igraph
Edge
p245
(dp246
g7
I1
sg8
I00
sg9
I5
sg10
(lp247
g241
a(igraph
Vertex
p248
(dp249
g14
F0.82352941176470595
sg8
I01
sg15
I0
sg17
F-115.75
sg18
F170.35294117647061
sg19
I89466
sg20
S'39.4422805133'
p250
sg22
F0.25
sbasg26
I00
sg27
I00
sg28
I89376
sg20
S'39.48128575'
p251
sba(igraph
Edge
p252
(dp253
g7
I1
sg8
I00
sg9
I5
sg10
(lp254
g248
a(igraph
Vertex
p255
(dp256
g14
F0.88235294117647067
sg8
I00
sg15
g16
sg17
F-115.75
sg18
F193.23529411764707
sg19
I89468
sg20
S'39.4425495419'
p257
sg22
F0.25
sbasg26
I00
sg27
I00
sg28
I89377
sg20
S'39.4817659786'
p258
sba(igraph
Edge
p259
(dp260
g7
I1
sg8
I00
sg9
I5
sg10
(lp261
g255
a(igraph
Vertex
p262
(dp263
g14
F0.94117647058823539
sg8
I00
sg15
g16
sg17
F-115.75
sg18
F216.11764705882359
sg19
I89469
sg20
S'39.4428263927'
p264
sg22
F0.25
sbasg26
I00
sg27
I00
sg28
I89378
sg20
S'39.4822973311'
p265
sba(igraph
Edge
p266
(dp267
g7
I1
sg8
I00
sg9
I5
sg10
(lp268
g262
a(igraph
Vertex
p269
(dp270
g14
F1.0
sg8
I00
sg15
g16
sg17
F-115.75
sg18
F239.0
sg19
I89470
sg20
S'39.443115815'
p271
sg22
F0.25
sbasg26
I00
sg27
I00
sg28
I89379
sg20
S'39.4828071724'
p272
sba(igraph
Edge
p273
(dp274
g7
I1
sg8
I00
sg9
I5
sg10
(lp275
g269
ag154
asg26
I00
sg27
I00
sg28
I89380
sg20
S'39.4833290265'
p276
sba(igraph
Edge
p277
(dp278
g7
I1
sg8
I00
sg9
I5
sg10
(lp279
(igraph
Vertex
p280
(dp281
g14
F0.0
sg8
I00
sg15
g16
sg17
F-52.5
sg18
F-150.0
sg19
I89471
sg20
S'39.4434097071'
p282
sg22
F0.5
sba(igraph
Vertex
p283
(dp284
g14
F0.058823529411764733
sg8
I00
sg15
g16
sg17
F-52.5
sg18
F-127.11764705882352
sg19
I89472
sg20
S'39.4437119802'
p285
sg22
F0.5
sbasg26
I00
sg27
I00
sg28
I89381
sg20
S'39.4838645694'
p286
sba(igraph
Edge
p287
(dp288
g7
I1
sg8
I00
sg9
I5
sg10
(lp289
g283
a(igraph
Vertex
p290
(dp291
g14
F0.11764705882352942
sg8
I00
sg15
g16
sg17
F-52.5
sg18
F-104.23529411764704
sg19
I89473
sg20
S'39.4440259865'
p292
sg22
F0.5
sbasg26
I00
sg27
I00
sg28
I89382
sg20
S'39.4844160361'
p293
sba(igraph
Edge
p294
(dp295
g7
I1
sg8
I00
sg9
I5
sg10
(lp296
g290
a(igraph
Vertex
p297
(dp298
g14
F0.1764705882352941
sg8
I00
sg15
g16
sg17
F-52.5
sg18
F-81.352941176470594
sg19
I89474
sg20
S'39.4443508882'
p299
sg22
F0.5
sbasg26
I00
sg27
I00
sg28
I89383
sg20
S'39.4849825886'
p300
sba(igraph
Edge
p301
(dp302
g7
I1
sg8
I00
sg9
I5
sg10
(lp303
g297
a(igraph
Vertex
p304
(dp305
g14
F0.23529411764705885
sg8
I00
sg15
g16
sg17
F-52.5
sg18
F-58.470588235294102
sg19
I89475
sg20
S'39.4446810977'
p306
sg22
F0.5
sbasg26
I00
sg27
I00
sg28
I89384
sg20
S'39.4855695347'
p307
sba(igraph
Edge
p308
(dp309
g7
I1
sg8
I00
sg9
I5
sg10
(lp310
g304
a(igraph
Vertex
p311
(dp312
g14
F0.29411764705882354
sg8
I00
sg15
g16
sg17
F-52.5
sg18
F-35.588235294117638
sg19
I89476
sg20
S'39.4450177327'
p313
sg22
F0.5
sbasg26
I00
sg27
I00
sg28
I89385
sg20
S'39.4861648617'
p314
sba(igraph
Edge
p315
(dp316
g7
I1
sg8
I00
sg9
I5
sg10
(lp317
g311
a(igraph
Vertex
p318
(dp319
g14
F0.35294117647058826
sg8
I00
sg15
g16
sg17
F-52.5
sg18
F-12.70588235294116
sg19
I89477
sg20
S'39.4453750407'
p320
sg22
F0.5
sbasg26
I00
sg27
I00
sg28
I89386
sg20
S'39.4867719221'
p321
sba(igraph
Edge
p322
(dp323
g7
I1
sg8
I00
sg9
I5
sg10
(lp324
g318
a(igraph
Vertex
p325
(dp326
g14
F0.41176470588235298
sg8
I00
sg15
g16
sg17
F-52.5
sg18
F10.176470588235304
sg19
I89478
sg20
S'39.4457275995'
p327
sg22
F0.5
sbasg26
I00
sg27
I00
sg28
I89387
sg20
S'39.4874502206'
p328
sba(igraph
Edge
p329
(dp330
g7
I1
sg8
I00
sg9
I5
sg10
(lp331
g325
a(igraph
Vertex
p332
(dp333
g14
F0.4705882352941177
sg8
I00
sg15
g16
sg17
F-52.5
sg18
F33.058823529411796
sg19
I89479
sg20
S'39.4460918916'
p334
sg22
F0.5
sbasg26
I00
sg27
I00
sg28
I89388
sg20
S'39.4880910842'
p335
sba(igraph
Edge
p336
(dp337
g7
I1
sg8
I00
sg9
I5
sg10
(lp338
g332
a(igraph
Vertex
p339
(dp340
g14
F0.52941176470588236
sg8
I00
sg15
g16
sg17
F-52.5
sg18
F55.941176470588232
sg19
I89480
sg20
S'39.446491663'
p341
sg22
F0.5
sbasg26
I00
sg27
I00
sg28
I89389
sg20
S'39.4887478716'
p342
sba(igraph
Edge
p343
(dp344
g7
I1
sg8
I00
sg9
I5
sg10
(lp345
g339
a(igraph
Vertex
p346
(dp347
g14
F0.58823529411764708
sg8
I00
sg15
g16
sg17
F-52.5
sg18
F78.823529411764724
sg19
I89481
sg20
S'39.4468746726'
p348
sg22
F0.5
sbasg26
I00
sg27
I00
sg28
I89390
sg20
S'39.4894158336'
p349
sba(igraph
Edge
p350
(dp351
g7
I1
sg8
I00
sg9
I5
sg10
(lp352
g346
a(igraph
Vertex
p353
(dp354
g14
F0.6470588235294118
sg8
I00
sg15
g16
sg17
F-52.5
sg18
F101.70588235294119
sg19
I89482
sg20
S'39.4472646663'
p355
sg22
F0.5
sbasg26
I00
sg27
I00
sg28
I89391
sg20
S'39.4901298908'
p356
sba(igraph
Edge
p357
(dp358
g7
I1
sg8
I00
sg9
I5
sg10
(lp359
g353
a(igraph
Vertex
p360
(dp361
g14
F0.70588235294117652
sg8
I00
sg15
g16
sg17
F-52.5
sg18
F124.58823529411768
sg19
I89483
sg20
S'39.4476585711'
p362
sg22
F0.5
sbasg26
I00
sg27
I00
sg28
I89392
sg20
S'39.4908400369'
p363
sba(igraph
Edge
p364
(dp365
g7
I1
sg8
I00
sg9
I5
sg10
(lp366
g360
a(igraph
Vertex
p367
(dp368
g14
F0.76470588235294124
sg8
I00
sg15
g16
sg17
F-52.5
sg18
F147.47058823529414
sg19
I89484
sg20
S'39.4481002474'
p369
sg22
F0.5
sbasg26
I00
sg27
I00
sg28
I89393
sg20
S'39.491555491'
p370
sba(igraph
Edge
p371
(dp372
g7
I1
sg8
I00
sg9
I5
sg10
(lp373
g367
a(igraph
Vertex
p374
(dp375
g14
F0.82352941176470595
sg8
I00
sg15
g16
sg17
F-52.5
sg18
F170.35294117647061
sg19
I89485
sg20
S'39.448513149'
p376
sg22
F0.5
sbasg26
I00
sg27
I00
sg28
I89394
sg20
S'39.4922874276'
p377
sba(igraph
Edge
p378
(dp379
g7
I1
sg8
I00
sg9
I5
sg10
(lp380
g374
a(igraph
Vertex
p381
(dp382
g14
F0.88235294117647067
sg8
I00
sg15
g16
sg17
F-52.5
sg18
F193.23529411764707
sg19
I89486
sg20
S'39.4489335935'
p383
sg22
F0.5
sbasg26
I00
sg27
I00
sg28
I89395
sg20
S'39.4930344499'
p384
sba(igraph
Edge
p385
(dp386
g7
I1
sg8
I00
sg9
I5
sg10
(lp387
g381
a(igraph
Vertex
p388
(dp389
g14
F0.94117647058823539
sg8
I00
sg15
g16
sg17
F-52.5
sg18
F216.11764705882359
sg19
I89487
sg20
S'39.4493626983'
p390
sg22
F0.5
sbasg26
I00
sg27
I00
sg28
I89396
sg20
S'39.4937959992'
p391
sba(igraph
Edge
p392
(dp393
g7
I1
sg8
I00
sg9
I5
sg10
(lp394
g388
a(igraph
Vertex
p395
(dp396
g14
F1.0
sg8
I01
sg15
I0
sg17
F-52.5
sg18
F239.0
sg19
I89489
sg20
S'39.4497996254'
p397
sg22
F0.5
sbasg26
I00
sg27
I00
sg28
I89397
sg20
S'39.4945645326'
p398
sba(igraph
Edge
p399
(dp400
g7
I1
sg8
I00
sg9
I5
sg10
(lp401
g395
ag280
asg26
I00
sg27
I00
sg28
I89398
sg20
S'39.4953699423'
p402
sba(igraph
Edge
p403
(dp404
g7
I1
sg8
I00
sg9
I5
sg10
(lp405
g12
ag157
asg26
I00
sg27
I00
sg28
I89399
sg20
S'39.5349316743'
p406
sba(igraph
Edge
p407
(dp408
g7
I1
sg8
I00
sg9
I5
sg10
(lp409
g33
ag171
asg26
I00
sg27
I00
sg28
I89400
sg20
S'39.5362539094'
p410
sba(igraph
Edge
p411
(dp412
g7
I1
sg8
I00
sg9
I5
sg10
(lp413
g47
ag185
asg26
I00
sg27
I00
sg28
I89401
sg20
S'39.5375736302'
p414
sba(igraph
Edge
p415
(dp416
g7
I1
sg8
I00
sg9
I5
sg10
(lp417
g61
ag199
asg26
I00
sg27
I00
sg28
I89402
sg20
S'39.5389268748'
p418
sba(igraph
Edge
p419
(dp420
g7
I1
sg8
I00
sg9
I5
sg10
(lp421
g75
ag213
asg26
I00
sg27
I00
sg28
I89403
sg20
S'39.540294367'
p422
sba(igraph
Edge
p423
(dp424
g7
I1
sg8
I00
sg9
I5
sg10
(lp425
g89
ag227
asg26
I00
sg27
I00
sg28
I89404
sg20
S'39.5417400815'
p426
sba(igraph
Edge
p427
(dp428
g7
I1
sg8
I00
sg9
I5
sg10
(lp429
g103
ag241
asg26
I00
sg27
I00
sg28
I89405
sg20
S'39.5431254531'
p430
sba(igraph
Edge
p431
(dp432
g7
I1
sg8
I00
sg9
I5
sg10
(lp433
g117
ag255
asg26
I00
sg27
I00
sg28
I89406
sg20
S'39.5446373771'
p434
sba(igraph
Edge
p435
(dp436
g7
I1
sg8
I00
sg9
I5
sg10
(lp437
g131
ag269
asg26
I00
sg27
I00
sg28
I89407
sg20
S'39.5460867233'
p438
sba(igraph
Edge
p439
(dp440
g7
I1
sg8
I00
sg9
I5
sg10
(lp441
g154
ag283
asg26
I00
sg27
I00
sg28
I89408
sg20
S'39.5617035126'
p442
sba(igraph
Edge
p443
(dp444
g7
I1
sg8
I00
sg9
I5
sg10
(lp445
g164
ag297
asg26
I00
sg27
I00
sg28
I89409
sg20
S'39.5632824842'
p446
sba(igraph
Edge
p447
(dp448
g7
I1
sg8
I00
sg9
I5
sg10
(lp449
g178
ag311
asg26
I00
sg27
I00
sg28
I89410
sg20
S'39.5649578368'
p450
sba(igraph
Edge
p451
(dp452
g7
I1
sg8
I00
sg9
I5
sg10
(lp453
g192
ag325
asg26
I00
sg27
I00
sg28
I89411
sg20
S'39.5665893291'
p454
sba(igraph
Edge
p455
(dp456
g7
I1
sg8
I00
sg9
I5
sg10
(lp457
g206
ag339
asg26
I00
sg27
I00
sg28
I89412
sg20
S'39.5682725039'
p458
sba(igraph
Edge
p459
(dp460
g7
I1
sg8
I00
sg9
I5
sg10
(lp461
g220
ag353
asg26
I00
sg27
I00
sg28
I89413
sg20
S'39.5700288724'
p462
sba(igraph
Edge
p463
(dp464
g7
I1
sg8
I00
sg9
I5
sg10
(lp465
g234
ag367
asg26
I00
sg27
I00
sg28
I89414
sg20
S'39.5717153996'
p466
sba(igraph
Edge
p467
(dp468
g7
I1
sg8
I00
sg9
I5
sg10
(lp469
g248
ag381
asg26
I00
sg27
I00
sg28
I89415
sg20
S'39.573403603'
p470
sba(igraph
Edge
p471
(dp472
g7
I1
sg8
I00
sg9
I5
sg10
(lp473
g262
ag395
asg26
I00
sg27
I00
sg28
I89416
sg20
S'39.5751490762'
p474
sbasS'vertices'
p475
(lp476
g12
ag23
ag33
ag40
ag47
ag54
ag61
ag68
ag75
ag82
ag89
ag96
ag103
ag110
ag117
ag124
ag131
ag138
ag154
ag157
ag164
ag171
ag178
ag185
ag192
ag199
ag206
ag213
ag220
ag227
ag234
ag241
ag248
ag255
ag262
ag269
ag280
ag283
ag290
ag297
ag304
ag311
ag318
ag325
ag332
ag339
ag346
ag353
ag360
ag367
ag374
ag381
ag388
ag395
asS'tags'
p477
(lp478
sb.