(igraph
Graph
p0
(dp1
S'labelingConstraints'
p2
I-1
sS'edges'
p3
(lp4
(igraph
Edge
p5
(dp6
S'direction'
p7
I1
sS'selected'
p8
I00
sS'height'
p9
I5
sS'vs'
p10
(lp11
(igraph
Vertex
p12
(dp13
S'y'
p14
F-49.0
sS'x'
p15
F-149.99999999999994
sS'circle'
p16
I577273
sg8
I00
sS'id'
p17
S'4658.52232672'
p18
sS'label'
p19
S'NULL'
p20
sba(igraph
Vertex
p21
(dp22
g14
F-49.0
sg15
F-134.21052631578942
sg16
I577274
sg8
I00
sg17
S'4658.52236471'
p23
sg19
g20
sbasS'wrap'
p24
I00
sS'curved'
p25
I00
sS'line'
p26
I577183
sg17
S'4658.57772985'
p27
sba(igraph
Edge
p28
(dp29
g7
I1
sg8
I00
sg9
I5
sg10
(lp30
g21
a(igraph
Vertex
p31
(dp32
g14
F-49.0
sg15
F-118.42105263157889
sg16
I577275
sg8
I00
sg17
S'4658.52240857'
p33
sg19
g20
sbasg24
I00
sg25
I00
sg26
I577184
sg17
S'4658.57782819'
p34
sba(igraph
Edge
p35
(dp36
g7
I1
sg8
I00
sg9
I5
sg10
(lp37
g31
a(igraph
Vertex
p38
(dp39
g14
F-49.0
sg15
F-102.63157894736837
sg16
I577276
sg8
I00
sg17
S'4658.52246305'
p40
sg19
g20
sbasg24
I00
sg25
I00
sg26
I577185
sg17
S'4658.57795251'
p41
sba(igraph
Edge
p42
(dp43
g7
I1
sg8
I00
sg9
I5
sg10
(lp44
g38
a(igraph
Vertex
p45
(dp46
g14
F-49.0
sg15
F-86.842105263157833
sg16
I577277
sg8
I00
sg17
S'4658.52253094'
p47
sg19
g20
sbasg24
I00
sg25
I00
sg26
I577186
sg17
S'4658.57810727'
p48
sba(igraph
Edge
p49
(dp50
g7
I1
sg8
I00
sg9
I5
sg10
(lp51
g45
a(igraph
Vertex
p52
(dp53
g14
F-49.0
sg15
F-71.052631578947313
sg16
I577278
sg8
I00
sg17
S'4658.52261558'
p54
sg19
g20
sbasg24
I00
sg25
I00
sg26
I577187
sg17
S'4658.57829082'
p55
sba(igraph
Edge
p56
(dp57
g7
I1
sg8
I00
sg9
I5
sg10
(lp58
g52
a(igraph
Vertex
p59
(dp60
g14
F-49.0
sg15
F-55.263157894736793
sg16
I577279
sg8
I00
sg17
S'4658.52271699'
p61
sg19
g20
sbasg24
I00
sg25
I00
sg26
I577188
sg17
S'4658.57850788'
p62
sba(igraph
Edge
p63
(dp64
g7
I1
sg8
I00
sg9
I5
sg10
(lp65
g59
a(igraph
Vertex
p66
(dp67
g14
F-49.0
sg15
F-39.473684210526258
sg16
I577280
sg8
I00
sg17
S'4658.52283097'
p68
sg19
g20
sbasg24
I00
sg25
I00
sg26
I577189
sg17
S'4658.57879451'
p69
sba(igraph
Edge
p70
(dp71
g7
I1
sg8
I00
sg9
I5
sg10
(lp72
g66
a(igraph
Vertex
p73
(dp74
g14
F-49.0
sg15
F-23.684210526315738
sg16
I577281
sg8
I00
sg17
S'4658.5229592'
p75
sg19
g20
sbasg24
I00
sg25
I00
sg26
I577190
sg17
S'4658.57907583'
p76
sba(igraph
Edge
p77
(dp78
g7
I1
sg8
I00
sg9
I5
sg10
(lp79
g73
a(igraph
Vertex
p80
(dp81
g14
F-49.0
sg15
F-7.8947368421052033
sg16
I577282
sg8
I00
sg17
S'4658.52315196'
p82
sg19
g20
sbasg24
I00
sg25
I00
sg26
I577191
sg17
S'4658.57938705'
p83
sba(igraph
Edge
p84
(dp85
g7
I1
sg8
I00
sg9
I5
sg10
(lp86
g80
a(igraph
Vertex
p87
(dp88
g14
F-49.0
sg15
F7.894736842105317
sg16
I577283
sg8
I00
sg17
S'4658.5233207'
p89
sg19
g20
sbasg24
I00
sg25
I00
sg26
I577192
sg17
S'4658.57973066'
p90
sba(igraph
Edge
p91
(dp92
g7
I1
sg8
I00
sg9
I5
sg10
(lp93
g87
a(igraph
Vertex
p94
(dp95
g14
F-49.0
sg15
F23.684210526315866
sg16
I577284
sg8
I00
sg17
S'4658.52350061'
p96
sg19
g20
sbasg24
I00
sg25
I00
sg26
I577193
sg17
S'4658.5801011'
p97
sba(igraph
Edge
p98
(dp99
g7
I1
sg8
I00
sg9
I5
sg10
(lp100
g94
a(igraph
Vertex
p101
(dp102
g14
F-49.0
sg15
F39.473684210526358
sg16
I577285
sg8
I00
sg17
S'4658.52369756'
p103
sg19
g20
sbasg24
I00
sg25
I00
sg26
I577194
sg17
S'4658.58050562'
p104
sba(igraph
Edge
p105
(dp106
g7
I1
sg8
I00
sg9
I5
sg10
(lp107
g101
a(igraph
Vertex
p108
(dp109
g14
F-49.0
sg15
F55.263157894736878
sg16
I577286
sg8
I00
sg17
S'4658.52391659'
p110
sg19
g20
sbasg24
I00
sg25
I00
sg26
I577195
sg17
S'4658.58094451'
p111
sba(igraph
Edge
p112
(dp113
g7
I1
sg8
I00
sg9
I5
sg10
(lp114
g108
a(igraph
Vertex
p115
(dp116
g14
F-49.0
sg15
F71.05263157894737
sg16
I577287
sg8
I00
sg17
S'4658.52420126'
p117
sg19
g20
sbasg24
I00
sg25
I00
sg26
I577196
sg17
S'4658.58141049'
p118
sba(igraph
Edge
p119
(dp120
g7
I1
sg8
I00
sg9
I5
sg10
(lp121
g115
a(igraph
Vertex
p122
(dp123
g14
F-49.0
sg15
F86.84210526315789
sg16
I577288
sg8
I00
sg17
S'4658.52444347'
p124
sg19
g20
sbasg24
I00
sg25
I00
sg26
I577197
sg17
S'4658.58190887'
p125
sba(igraph
Edge
p126
(dp127
g7
I1
sg8
I00
sg9
I5
sg10
(lp128
g122
a(igraph
Vertex
p129
(dp130
g14
F-49.0
sg15
F102.63157894736841
sg16
I577289
sg8
I00
sg17
S'4658.52469713'
p131
sg19
g20
sbasg24
I00
sg25
I00
sg26
I577198
sg17
S'4658.58243743'
p132
sba(igraph
Edge
p133
(dp134
g7
I1
sg8
I00
sg9
I5
sg10
(lp135
g129
a(igraph
Vertex
p136
(dp137
g14
F-49.0
sg15
F118.4210526315789
sg16
I577290
sg8
I00
sg17
S'4658.52511143'
p138
sg19
g20
sbasg24
I00
sg25
I00
sg26
I577199
sg17
S'4658.58299477'
p139
sba(igraph
Edge
p140
(dp141
g7
I1
sg8
I00
sg9
I5
sg10
(lp142
g136
a(igraph
Vertex
p143
(dp144
g14
F-49.0
sg15
F134.21052631578942
sg16
I577292
sg8
I01
sg17
S'4658.52541147'
p145
sg19
I0
sbasg24
I00
sg25
I00
sg26
I577200
sg17
S'4658.58357696'
p146
sba(igraph
Edge
p147
(dp148
g7
I1
sg8
I00
sg9
I5
sg10
(lp149
g143
a(igraph
Vertex
p150
(dp151
g14
F-49.0
sg15
F149.99999999999994
sg16
I577294
sg8
I00
sg17
S'4658.52571765'
p152
sg19
g20
sbasg24
I00
sg25
I00
sg26
I577201
sg17
S'4658.58419687'
p153
sba(igraph
Edge
p154
(dp155
g7
I1
sg8
I00
sg9
I5
sg10
(lp156
g150
ag12
asg24
I00
sg25
I00
sg26
I577202
sg17
S'4658.58487126'
p157
sba(igraph
Edge
p158
(dp159
g7
I1
sg8
I00
sg9
I5
sg10
(lp160
(igraph
Vertex
p161
(dp162
g14
F-16.0
sg15
F-149.99999999999994
sg16
I577296
sg8
I01
sg17
S'4658.52608083'
p163
sg19
I0
sba(igraph
Vertex
p164
(dp165
g14
F-16.0
sg15
F-134.21052631578942
sg16
I577298
sg8
I00
sg17
S'4658.52643143'
p166
sg19
g20
sbasg24
I00
sg25
I00
sg26
I577203
sg17
S'4658.58556129'
p167
sba(igraph
Edge
p168
(dp169
g7
I1
sg8
I00
sg9
I5
sg10
(lp170
g164
a(igraph
Vertex
p171
(dp172
g14
F-16.0
sg15
F-118.42105263157889
sg16
I577300
sg8
I01
sg17
S'4658.52679489'
p173
sg19
I0
sbasg24
I00
sg25
I00
sg26
I577204
sg17
S'4658.58628289'
p174
sba(igraph
Edge
p175
(dp176
g7
I1
sg8
I00
sg9
I5
sg10
(lp177
g171
a(igraph
Vertex
p178
(dp179
g14
F-16.0
sg15
F-102.63157894736837
sg16
I577302
sg8
I00
sg17
S'4658.52717762'
p180
sg19
g20
sbasg24
I00
sg25
I00
sg26
I577205
sg17
S'4658.58703271'
p181
sba(igraph
Edge
p182
(dp183
g7
I1
sg8
I00
sg9
I5
sg10
(lp184
g178
a(igraph
Vertex
p185
(dp186
g14
F-16.0
sg15
F-86.842105263157833
sg16
I577304
sg8
I01
sg17
S'4658.52755979'
p187
sg19
I0
sbasg24
I00
sg25
I00
sg26
I577206
sg17
S'4658.58784203'
p188
sba(igraph
Edge
p189
(dp190
g7
I1
sg8
I00
sg9
I5
sg10
(lp191
g185
a(igraph
Vertex
p192
(dp193
g14
F-16.0
sg15
F-71.052631578947313
sg16
I577306
sg8
I00
sg17
S'4658.52806181'
p194
sg19
g20
sbasg24
I00
sg25
I00
sg26
I577207
sg17
S'4658.58865666'
p195
sba(igraph
Edge
p196
(dp197
g7
I1
sg8
I00
sg9
I5
sg10
(lp198
g192
a(igraph
Vertex
p199
(dp200
g14
F-16.0
sg15
F-55.263157894736793
sg16
I577308
sg8
I01
sg17
S'4658.52849287'
p201
sg19
I0
sbasg24
I00
sg25
I00
sg26
I577208
sg17
S'4658.58950788'
p202
sba(igraph
Edge
p203
(dp204
g7
I1
sg8
I00
sg9
I5
sg10
(lp205
g199
a(igraph
Vertex
p206
(dp207
g14
F-16.0
sg15
F-39.473684210526258
sg16
I577310
sg8
I00
sg17
S'4658.52893734'
p208
sg19
g20
sbasg24
I00
sg25
I00
sg26
I577209
sg17
S'4658.59042839'
p209
sba(igraph
Edge
p210
(dp211
g7
I1
sg8
I00
sg9
I5
sg10
(lp212
g206
a(igraph
Vertex
p213
(dp214
g14
F-16.0
sg15
F-23.684210526315738
sg16
I577312
sg8
I01
sg17
S'4658.52939214'
p215
sg19
I0
sbasg24
I00
sg25
I00
sg26
I577210
sg17
S'4658.59134192'
p216
sba(igraph
Edge
p217
(dp218
g7
I1
sg8
I00
sg9
I5
sg10
(lp219
g213
a(igraph
Vertex
p220
(dp221
g14
F-16.0
sg15
F-7.8947368421052033
sg16
I577314
sg8
I00
sg17
S'4658.52986008'
p222
sg19
g20
sbasg24
I00
sg25
I00
sg26
I577211
sg17
S'4658.59227416'
p223
sba(igraph
Edge
p224
(dp225
g7
I1
sg8
I00
sg9
I5
sg10
(lp226
g220
a(igraph
Vertex
p227
(dp228
g14
F-16.0
sg15
F7.894736842105317
sg16
I577316
sg8
I01
sg17
S'4658.53034673'
p229
sg19
I0
sbasg24
I00
sg25
I00
sg26
I577212
sg17
S'4658.59323573'
p230
sba(igraph
Edge
p231
(dp232
g7
I1
sg8
I00
sg9
I5
sg10
(lp233
g227
a(igraph
Vertex
p234
(dp235
g14
F-16.0
sg15
F23.684210526315866
sg16
I577318
sg8
I00
sg17
S'4658.53087222'
p236
sg19
g20
sbasg24
I00
sg25
I00
sg26
I577213
sg17
S'4658.59423474'
p237
sba(igraph
Edge
p238
(dp239
g7
I1
sg8
I00
sg9
I5
sg10
(lp240
g234
a(igraph
Vertex
p241
(dp242
g14
F-16.0
sg15
F39.473684210526358
sg16
I577320
sg8
I01
sg17
S'4658.53140106'
p243
sg19
I0
sbasg24
I00
sg25
I00
sg26
I577214
sg17
S'4658.59526085'
p244
sba(igraph
Edge
p245
(dp246
g7
I1
sg8
I00
sg9
I5
sg10
(lp247
g241
a(igraph
Vertex
p248
(dp249
g14
F-16.0
sg15
F55.263157894736878
sg16
I577322
sg8
I00
sg17
S'4658.53193884'
p250
sg19
g20
sbasg24
I00
sg25
I00
sg26
I577215
sg17
S'4658.5963297'
p251
sba(igraph
Edge
p252
(dp253
g7
I1
sg8
I00
sg9
I5
sg10
(lp254
g248
a(igraph
Vertex
p255
(dp256
g14
F-16.0
sg15
F71.05263157894737
sg16
I577324
sg8
I01
sg17
S'4658.53248639'
p257
sg19
I0
sbasg24
I00
sg25
I00
sg26
I577216
sg17
S'4658.59741727'
p258
sba(igraph
Edge
p259
(dp260
g7
I1
sg8
I00
sg9
I5
sg10
(lp261
g255
a(igraph
Vertex
p262
(dp263
g14
F-16.0
sg15
F86.84210526315789
sg16
I577326
sg8
I00
sg17
S'4658.53305434'
p264
sg19
g20
sbasg24
I00
sg25
I00
sg26
I577217
sg17
S'4658.59853389'
p265
sba(igraph
Edge
p266
(dp267
g7
I1
sg8
I00
sg9
I5
sg10
(lp268
g262
a(igraph
Vertex
p269
(dp270
g14
F-16.0
sg15
F102.63157894736841
sg16
I577328
sg8
I01
sg17
S'4658.5336371'
p271
sg19
I0
sbasg24
I00
sg25
I00
sg26
I577218
sg17
S'4658.59968879'
p272
sba(igraph
Edge
p273
(dp274
g7
I1
sg8
I00
sg9
I5
sg10
(lp275
g269
a(igraph
Vertex
p276
(dp277
g14
F-16.0
sg15
F118.4210526315789
sg16
I577330
sg8
I00
sg17
S'4658.53426762'
p278
sg19
g20
sbasg24
I00
sg25
I00
sg26
I577219
sg17
S'4658.60088503'
p279
sba(igraph
Edge
p280
(dp281
g7
I1
sg8
I00
sg9
I5
sg10
(lp282
g276
a(igraph
Vertex
p283
(dp284
g14
F-16.0
sg15
F134.21052631578942
sg16
I577331
sg8
I00
sg17
S'4658.53488865'
p285
sg19
g20
sbasg24
I00
sg25
I00
sg26
I577220
sg17
S'4658.60211871'
p286
sba(igraph
Edge
p287
(dp288
g7
I1
sg8
I00
sg9
I5
sg10
(lp289
g283
a(igraph
Vertex
p290
(dp291
g14
F-16.0
sg15
F149.99999999999994
sg16
I577332
sg8
I00
sg17
S'4658.53552421'
p292
sg19
g20
sbasg24
I00
sg25
I00
sg26
I577221
sg17
S'4658.60361582'
p293
sba(igraph
Edge
p294
(dp295
g7
I1
sg8
I00
sg9
I5
sg10
(lp296
g290
ag161
asg24
I00
sg25
I00
sg26
I577222
sg17
S'4658.60490733'
p297
sba(igraph
Edge
p298
(dp299
g7
I1
sg8
I00
sg9
I5
sg10
(lp300
(igraph
Vertex
p301
(dp302
g14
F17.0
sg15
F-149.99999999999994
sg16
I577334
sg8
I01
sg17
S'4658.53617485'
p303
sg19
I0
sba(igraph
Vertex
p304
(dp305
g14
F17.0
sg15
F-134.21052631578942
sg16
I577336
sg8
I00
sg17
S'4658.53684058'
p306
sg19
g20
sbasg24
I00
sg25
I00
sg26
I577223
sg17
S'4658.6062832'
p307
sba(igraph
Edge
p308
(dp309
g7
I1
sg8
I00
sg9
I5
sg10
(lp310
g304
a(igraph
Vertex
p311
(dp312
g14
F17.0
sg15
F-118.42105263157889
sg16
I577337
sg8
I00
sg17
S'4658.53752446'
p313
sg19
g20
sbasg24
I00
sg25
I00
sg26
I577224
sg17
S'4658.60763868'
p314
sba(igraph
Edge
p315
(dp316
g7
I1
sg8
I00
sg9
I5
sg10
(lp317
g311
a(igraph
Vertex
p318
(dp319
g14
F17.0
sg15
F-102.63157894736837
sg16
I577338
sg8
I00
sg17
S'4658.53822399'
p320
sg19
g20
sbasg24
I00
sg25
I00
sg26
I577225
sg17
S'4658.60903355'
p321
sba(igraph
Edge
p322
(dp323
g7
I1
sg8
I00
sg9
I5
sg10
(lp324
g318
a(igraph
Vertex
p325
(dp326
g14
F17.0
sg15
F-86.842105263157833
sg16
I577340
sg8
I01
sg17
S'4658.53893889'
p327
sg19
I0
sbasg24
I00
sg25
I00
sg26
I577226
sg17
S'4658.61043792'
p328
sba(igraph
Edge
p329
(dp330
g7
I1
sg8
I00
sg9
I5
sg10
(lp331
g325
a(igraph
Vertex
p332
(dp333
g14
F17.0
sg15
F-71.052631578947313
sg16
I577342
sg8
I00
sg17
S'4658.53967613'
p334
sg19
g20
sbasg24
I00
sg25
I00
sg26
I577227
sg17
S'4658.61186994'
p335
sba(igraph
Edge
p336
(dp337
g7
I1
sg8
I00
sg9
I5
sg10
(lp338
g332
a(igraph
Vertex
p339
(dp340
g14
F17.0
sg15
F-55.263157894736793
sg16
I577343
sg8
I00
sg17
S'4658.54042483'
p341
sg19
g20
sbasg24
I00
sg25
I00
sg26
I577228
sg17
S'4658.61335756'
p342
sba(igraph
Edge
p343
(dp344
g7
I1
sg8
I00
sg9
I5
sg10
(lp345
g339
a(igraph
Vertex
p346
(dp347
g14
F17.0
sg15
F-39.473684210526258
sg16
I577344
sg8
I00
sg17
S'4658.54135456'
p348
sg19
g20
sbasg24
I00
sg25
I00
sg26
I577229
sg17
S'4658.61488401'
p349
sba(igraph
Edge
p350
(dp351
g7
I1
sg8
I00
sg9
I5
sg10
(lp352
g346
a(igraph
Vertex
p353
(dp354
g14
F17.0
sg15
F-23.684210526315738
sg16
I577346
sg8
I01
sg17
S'4658.54219601'
p355
sg19
I0
sbasg24
I00
sg25
I00
sg26
I577230
sg17
S'4658.61641633'
p356
sba(igraph
Edge
p357
(dp358
g7
I1
sg8
I00
sg9
I5
sg10
(lp359
g353
a(igraph
Vertex
p360
(dp361
g14
F17.0
sg15
F-7.8947368421052033
sg16
I577348
sg8
I00
sg17
S'4658.5430598'
p362
sg19
g20
sbasg24
I00
sg25
I00
sg26
I577231
sg17
S'4658.61816236'
p363
sba(igraph
Edge
p364
(dp365
g7
I1
sg8
I00
sg9
I5
sg10
(lp366
g360
a(igraph
Vertex
p367
(dp368
g14
F17.0
sg15
F7.894736842105317
sg16
I577349
sg8
I00
sg17
S'4658.54405797'
p369
sg19
g20
sbasg24
I00
sg25
I00
sg26
I577232
sg17
S'4658.6197905'
p370
sba(igraph
Edge
p371
(dp372
g7
I1
sg8
I00
sg9
I5
sg10
(lp373
g367
a(igraph
Vertex
p374
(dp375
g14
F17.0
sg15
F23.684210526315866
sg16
I577350
sg8
I00
sg17
S'4658.54491283'
p376
sg19
g20
sbasg24
I00
sg25
I00
sg26
I577233
sg17
S'4658.62143485'
p377
sba(igraph
Edge
p378
(dp379
g7
I1
sg8
I00
sg9
I5
sg10
(lp380
g374
a(igraph
Vertex
p381
(dp382
g14
F17.0
sg15
F39.473684210526358
sg16
I577352
sg8
I01
sg17
S'4658.54585457'
p383
sg19
I0
sbasg24
I00
sg25
I00
sg26
I577234
sg17
S'4658.62315937'
p384
sba(igraph
Edge
p385
(dp386
g7
I1
sg8
I00
sg9
I5
sg10
(lp387
g381
a(igraph
Vertex
p388
(dp389
g14
F17.0
sg15
F55.263157894736878
sg16
I577354
sg8
I00
sg17
S'4658.54673178'
p390
sg19
g20
sbasg24
I00
sg25
I00
sg26
I577235
sg17
S'4658.62501463'
p391
sba(igraph
Edge
p392
(dp393
g7
I1
sg8
I00
sg9
I5
sg10
(lp394
g388
a(igraph
Vertex
p395
(dp396
g14
F17.0
sg15
F71.05263157894737
sg16
I577355
sg8
I00
sg17
S'4658.54761485'
p397
sg19
g20
sbasg24
I00
sg25
I00
sg26
I577236
sg17
S'4658.6267696'
p398
sba(igraph
Edge
p399
(dp400
g7
I1
sg8
I00
sg9
I5
sg10
(lp401
g395
a(igraph
Vertex
p402
(dp403
g14
F17.0
sg15
F86.84210526315789
sg16
I577356
sg8
I00
sg17
S'4658.54851105'
p404
sg19
g20
sbasg24
I00
sg25
I00
sg26
I577237
sg17
S'4658.62854609'
p405
sba(igraph
Edge
p406
(dp407
g7
I1
sg8
I00
sg9
I5
sg10
(lp408
g402
a(igraph
Vertex
p409
(dp410
g14
F17.0
sg15
F102.63157894736841
sg16
I577358
sg8
I01
sg17
S'4658.54942486'
p411
sg19
I0
sbasg24
I00
sg25
I00
sg26
I577238
sg17
S'4658.63033318'
p412
sba(igraph
Edge
p413
(dp414
g7
I1
sg8
I00
sg9
I5
sg10
(lp415
g409
a(igraph
Vertex
p416
(dp417
g14
F17.0
sg15
F118.4210526315789
sg16
I577360
sg8
I00
sg17
S'4658.55035961'
p418
sg19
g20
sbasg24
I00
sg25
I00
sg26
I577239
sg17
S'4658.63220242'
p419
sba(igraph
Edge
p420
(dp421
g7
I1
sg8
I00
sg9
I5
sg10
(lp422
g416
a(igraph
Vertex
p423
(dp424
g14
F17.0
sg15
F134.21052631578942
sg16
I577361
sg8
I00
sg17
S'4658.55130694'
p425
sg19
g20
sbasg24
I00
sg25
I00
sg26
I577240
sg17
S'4658.63416328'
p426
sba(igraph
Edge
p427
(dp428
g7
I1
sg8
I00
sg9
I5
sg10
(lp429
g423
a(igraph
Vertex
p430
(dp431
g14
F17.0
sg15
F149.99999999999994
sg16
I577362
sg8
I00
sg17
S'4658.55230539'
p432
sg19
g20
sbasg24
I00
sg25
I00
sg26
I577241
sg17
S'4658.63613476'
p433
sba(igraph
Edge
p434
(dp435
g7
I1
sg8
I00
sg9
I5
sg10
(lp436
g430
ag301
asg24
I00
sg25
I00
sg26
I577242
sg17
S'4658.63809032'
p437
sba(igraph
Edge
p438
(dp439
g7
I1
sg8
I00
sg9
I5
sg10
(lp440
g12
ag164
asg24
I00
sg25
I00
sg26
I577243
sg17
S'4658.68935773'
p441
sba(igraph
Edge
p442
(dp443
g7
I1
sg8
I00
sg9
I5
sg10
(lp444
g31
ag178
asg24
I00
sg25
I00
sg26
I577244
sg17
S'4658.69213015'
p445
sba(igraph
Edge
p446
(dp447
g7
I1
sg8
I00
sg9
I5
sg10
(lp448
g45
ag192
asg24
I00
sg25
I00
sg26
I577245
sg17
S'4658.6950361'
p449
sba(igraph
Edge
p450
(dp451
g7
I1
sg8
I00
sg9
I5
sg10
(lp452
g59
ag206
asg24
I00
sg25
I00
sg26
I577246
sg17
S'4658.69799877'
p453
sba(igraph
Edge
p454
(dp455
g7
I1
sg8
I00
sg9
I5
sg10
(lp456
g73
ag220
asg24
I00
sg25
I00
sg26
I577247
sg17
S'4658.70025492'
p457
sba(igraph
Edge
p458
(dp459
g7
I1
sg8
I00
sg9
I5
sg10
(lp460
g87
ag234
asg24
I00
sg25
I00
sg26
I577248
sg17
S'4658.7015143'
p461
sba(igraph
Edge
p462
(dp463
g7
I1
sg8
I00
sg9
I5
sg10
(lp464
g101
ag248
asg24
I00
sg25
I00
sg26
I577249
sg17
S'4658.70278988'
p465
sba(igraph
Edge
p466
(dp467
g7
I1
sg8
I00
sg9
I5
sg10
(lp468
g115
ag262
asg24
I00
sg25
I00
sg26
I577250
sg17
S'4658.70409675'
p469
sba(igraph
Edge
p470
(dp471
g7
I1
sg8
I00
sg9
I5
sg10
(lp472
g129
ag276
asg24
I00
sg25
I00
sg26
I577251
sg17
S'4658.70541396'
p473
sba(igraph
Edge
p474
(dp475
g7
I1
sg8
I00
sg9
I5
sg10
(lp476
g143
ag290
asg24
I00
sg25
I00
sg26
I577252
sg17
S'4658.70676245'
p477
sba(igraph
Edge
p478
(dp479
g7
I1
sg8
I00
sg9
I5
sg10
(lp480
g161
ag304
asg24
I00
sg25
I00
sg26
I577253
sg17
S'4658.70815537'
p481
sba(igraph
Edge
p482
(dp483
g7
I1
sg8
I00
sg9
I5
sg10
(lp484
g171
ag318
asg24
I00
sg25
I00
sg26
I577254
sg17
S'4658.70951085'
p485
sba(igraph
Edge
p486
(dp487
g7
I1
sg8
I00
sg9
I5
sg10
(lp488
g185
ag332
asg24
I00
sg25
I00
sg26
I577255
sg17
S'4658.7108884'
p489
sba(igraph
Edge
p490
(dp491
g7
I1
sg8
I00
sg9
I5
sg10
(lp492
g199
ag346
asg24
I00
sg25
I00
sg26
I577256
sg17
S'4658.71228131'
p493
sba(igraph
Edge
p494
(dp495
g7
I1
sg8
I00
sg9
I5
sg10
(lp496
g213
ag360
asg24
I00
sg25
I00
sg26
I577257
sg17
S'4658.71370412'
p497
sba(igraph
Edge
p498
(dp499
g7
I1
sg8
I00
sg9
I5
sg10
(lp500
g227
ag374
asg24
I00
sg25
I00
sg26
I577258
sg17
S'4658.71511128'
p501
sba(igraph
Edge
p502
(dp503
g7
I1
sg8
I00
sg9
I5
sg10
(lp504
g241
ag388
asg24
I00
sg25
I00
sg26
I577259
sg17
S'4658.71660029'
p505
sba(igraph
Edge
p506
(dp507
g7
I1
sg8
I00
sg9
I5
sg10
(lp508
g255
ag402
asg24
I00
sg25
I00
sg26
I577260
sg17
S'4658.71809127'
p509
sba(igraph
Edge
p510
(dp511
g7
I1
sg8
I00
sg9
I5
sg10
(lp512
g269
ag416
asg24
I00
sg25
I00
sg26
I577261
sg17
S'4658.71958'
p513
sba(igraph
Edge
p514
(dp515
g7
I1
sg8
I00
sg9
I5
sg10
(lp516
g283
ag430
asg24
I00
sg25
I00
sg26
I577262
sg17
S'4658.7211288'
p517
sba(igraph
Edge
p518
(dp519
g7
I1
sg8
I00
sg9
I5
sg10
(lp520
g301
a(igraph
Vertex
p521
(dp522
g14
F50.0
sg15
F-134.21052631578942
sg16
I577363
sg8
I00
sg17
S'4658.55430732'
p523
sg19
g20
sbasg24
I00
sg25
I00
sg26
I577263
sg17
S'4658.72261195'
p524
sba(igraph
Edge
p525
(dp526
g7
I1
sg8
I00
sg9
I5
sg10
(lp527
g311
a(igraph
Vertex
p528
(dp529
g14
F50.0
sg15
F-102.63157894736837
sg16
I577364
sg8
I00
sg17
S'4658.55637071'
p530
sg19
g20
sbasg24
I00
sg25
I00
sg26
I577264
sg17
S'4658.72413924'
p531
sba(igraph
Edge
p532
(dp533
g7
I1
sg8
I00
sg9
I5
sg10
(lp534
g325
a(igraph
Vertex
p535
(dp536
g14
F50.0
sg15
F-71.052631578947313
sg16
I577365
sg8
I00
sg17
S'4658.55873638'
p537
sg19
g20
sbasg24
I00
sg25
I00
sg26
I577265
sg17
S'4658.72572659'
p538
sba(igraph
Edge
p539
(dp540
g7
I1
sg8
I00
sg9
I5
sg10
(lp541
g339
a(igraph
Vertex
p542
(dp543
g14
F50.0
sg15
F-39.473684210526258
sg16
I577366
sg8
I00
sg17
S'4658.56096012'
p544
sg19
g20
sbasg24
I00
sg25
I00
sg26
I577266
sg17
S'4658.72728433'
p545
sba(igraph
Edge
p546
(dp547
g7
I1
sg8
I00
sg9
I5
sg10
(lp548
g353
a(igraph
Vertex
p549
(dp550
g14
F50.0
sg15
F-7.8947368421052033
sg16
I577367
sg8
I00
sg17
S'4658.5636532'
p551
sg19
g20
sbasg24
I00
sg25
I00
sg26
I577267
sg17
S'4658.72888621'
p552
sba(igraph
Edge
p553
(dp554
g7
I1
sg8
I00
sg9
I5
sg10
(lp555
g367
a(igraph
Vertex
p556
(dp557
g14
F50.0
sg15
F23.684210526315866
sg16
I577368
sg8
I00
sg17
S'4658.56612391'
p558
sg19
g20
sbasg24
I00
sg25
I00
sg26
I577268
sg17
S'4658.73043585'
p559
sba(igraph
Edge
p560
(dp561
g7
I1
sg8
I00
sg9
I5
sg10
(lp562
g381
a(igraph
Vertex
p563
(dp564
g14
F50.0
sg15
F55.263157894736878
sg16
I577369
sg8
I00
sg17
S'4658.56854656'
p565
sg19
g20
sbasg24
I00
sg25
I00
sg26
I577269
sg17
S'4658.73206036'
p566
sba(igraph
Edge
p567
(dp568
g7
I1
sg8
I00
sg9
I5
sg10
(lp569
g395
a(igraph
Vertex
p570
(dp571
g14
F50.0
sg15
F86.84210526315789
sg16
I577370
sg8
I00
sg17
S'4658.57109018'
p572
sg19
g20
sbasg24
I00
sg25
I00
sg26
I577270
sg17
S'4658.73370414'
p573
sba(igraph
Edge
p574
(dp575
g7
I1
sg8
I00
sg9
I5
sg10
(lp576
g409
a(igraph
Vertex
p577
(dp578
g14
F50.0
sg15
F118.4210526315789
sg16
I577371
sg8
I00
sg17
S'4658.57364972'
p579
sg19
g20
sbasg24
I00
sg25
I00
sg26
I577271
sg17
S'4658.73536413'
p580
sba(igraph
Edge
p581
(dp582
g7
I1
sg8
I00
sg9
I5
sg10
(lp583
g423
a(igraph
Vertex
p584
(dp585
g14
F50.0
sg15
F149.99999999999994
sg16
I577372
sg8
I00
sg17
S'4658.57634085'
p586
sg19
g20
sbasg24
I00
sg25
I00
sg26
I577272
sg17
S'4658.73698585'
p587
sbasS'vertices'
p588
(lp589
g12
ag21
ag31
ag38
ag45
ag52
ag59
ag66
ag73
ag80
ag87
ag94
ag101
ag108
ag115
ag122
ag129
ag136
ag143
ag150
ag161
ag164
ag171
ag178
ag185
ag192
ag199
ag206
ag213
ag220
ag227
ag234
ag241
ag248
ag255
ag262
ag269
ag276
ag283
ag290
ag301
ag304
ag311
ag318
ag325
ag332
ag339
ag346
ag353
ag360
ag367
ag374
ag381
ag388
ag395
ag402
ag409
ag416
ag423
ag430
ag521
ag528
ag535
ag542
ag549
ag556
ag563
ag570
ag577
ag584
asS'tags'
p590
(lp591
sb.