(igraph
Graph
p0
(dp1
S'labelingConstraints'
p2
I-1
sS'edges'
p3
(lp4
(igraph
Edge
p5
(dp6
S'direction'
p7
I1
sS'selected'
p8
I00
sS'height'
p9
I5
sS'vs'
p10
(lp11
(igraph
Vertex
p12
(dp13
S'y'
p14
F-49.0
sS'x'
p15
F7.894736842105317
sS'circle'
p16
I640919
sg8
I00
sS'id'
p17
S'4658.5233207'
p18
sS'label'
p19
S'NULL'
p20
sba(igraph
Vertex
p21
(dp22
g14
F-49.0
sg15
F23.684210526315866
sg16
I640920
sg8
I00
sg17
S'4658.52350061'
p23
sg19
g20
sbasS'wrap'
p24
I00
sS'curved'
p25
I00
sS'line'
p26
I640874
sg17
S'4658.5801011'
p27
sba(igraph
Edge
p28
(dp29
g7
I1
sg8
I00
sg9
I5
sg10
(lp30
g21
a(igraph
Vertex
p31
(dp32
g14
F-49.0
sg15
F39.473684210526358
sg16
I640921
sg8
I00
sg17
S'4658.52369756'
p33
sg19
g20
sbasg24
I00
sg25
I00
sg26
I640875
sg17
S'4658.58050562'
p34
sba(igraph
Edge
p35
(dp36
g7
I1
sg8
I00
sg9
I5
sg10
(lp37
g31
a(igraph
Vertex
p38
(dp39
g14
F-49.0
sg15
F55.263157894736878
sg16
I640922
sg8
I00
sg17
S'4658.52391659'
p40
sg19
g20
sbasg24
I00
sg25
I00
sg26
I640876
sg17
S'4658.58094451'
p41
sba(igraph
Edge
p42
(dp43
g7
I1
sg8
I00
sg9
I5
sg10
(lp44
g38
a(igraph
Vertex
p45
(dp46
g14
F-49.0
sg15
F71.05263157894737
sg16
I640923
sg8
I00
sg17
S'4658.52420126'
p47
sg19
g20
sbasg24
I00
sg25
I00
sg26
I640877
sg17
S'4658.58141049'
p48
sba(igraph
Edge
p49
(dp50
g7
I1
sg8
I00
sg9
I5
sg10
(lp51
g45
a(igraph
Vertex
p52
(dp53
g14
F-49.0
sg15
F86.84210526315789
sg16
I640924
sg8
I00
sg17
S'4658.52444347'
p54
sg19
g20
sbasg24
I00
sg25
I00
sg26
I640878
sg17
S'4658.58190887'
p55
sba(igraph
Edge
p56
(dp57
g7
I1
sg8
I00
sg9
I5
sg10
(lp58
g52
a(igraph
Vertex
p59
(dp60
g14
F-49.0
sg15
F102.63157894736841
sg16
I640925
sg8
I00
sg17
S'4658.52469713'
p61
sg19
g20
sbasg24
I00
sg25
I00
sg26
I640879
sg17
S'4658.58243743'
p62
sba(igraph
Edge
p63
(dp64
g7
I1
sg8
I00
sg9
I5
sg10
(lp65
g59
a(igraph
Vertex
p66
(dp67
g14
F-49.0
sg15
F118.4210526315789
sg16
I640926
sg8
I00
sg17
S'4658.52511143'
p68
sg19
g20
sbasg24
I00
sg25
I00
sg26
I640880
sg17
S'4658.58299477'
p69
sba(igraph
Edge
p70
(dp71
g7
I1
sg8
I00
sg9
I5
sg10
(lp72
g66
a(igraph
Vertex
p73
(dp74
g14
F-49.0
sg15
F134.21052631578942
sg16
I640927
sg8
I00
sg17
S'4658.52541147'
p75
sg19
I0
sbasg24
I00
sg25
I00
sg26
I640881
sg17
S'4658.58357696'
p76
sba(igraph
Edge
p77
(dp78
g7
I1
sg8
I00
sg9
I5
sg10
(lp79
g73
a(igraph
Vertex
p80
(dp81
g14
F-49.0
sg15
F149.99999999999994
sg16
I640929
sg8
I00
sg17
S'4658.52571765'
p82
sg19
g20
sbasg24
I00
sg25
I00
sg26
I640882
sg17
S'4658.58419687'
p83
sba(igraph
Edge
p84
(dp85
g7
I1
sg8
I00
sg9
I5
sg10
(lp86
(igraph
Vertex
p87
(dp88
g14
F-16.0
sg15
F7.894736842105317
sg16
I640930
sg8
I00
sg17
S'4658.53034673'
p89
sg19
I0
sba(igraph
Vertex
p90
(dp91
g14
F-16.0
sg15
F23.684210526315866
sg16
I640932
sg8
I00
sg17
S'4658.53087222'
p92
sg19
g20
sbasg24
I00
sg25
I00
sg26
I640883
sg17
S'4658.59423474'
p93
sba(igraph
Edge
p94
(dp95
g7
I1
sg8
I00
sg9
I5
sg10
(lp96
g90
a(igraph
Vertex
p97
(dp98
g14
F-16.0
sg15
F39.473684210526358
sg16
I640933
sg8
I00
sg17
S'4658.53140106'
p99
sg19
I0
sbasg24
I00
sg25
I00
sg26
I640884
sg17
S'4658.59526085'
p100
sba(igraph
Edge
p101
(dp102
g7
I1
sg8
I00
sg9
I5
sg10
(lp103
g97
a(igraph
Vertex
p104
(dp105
g14
F-16.0
sg15
F55.263157894736878
sg16
I640935
sg8
I00
sg17
S'4658.53193884'
p106
sg19
g20
sbasg24
I00
sg25
I00
sg26
I640885
sg17
S'4658.5963297'
p107
sba(igraph
Edge
p108
(dp109
g7
I1
sg8
I00
sg9
I5
sg10
(lp110
g104
a(igraph
Vertex
p111
(dp112
g14
F-16.0
sg15
F71.05263157894737
sg16
I640936
sg8
I00
sg17
S'4658.53248639'
p113
sg19
I0
sbasg24
I00
sg25
I00
sg26
I640886
sg17
S'4658.59741727'
p114
sba(igraph
Edge
p115
(dp116
g7
I1
sg8
I00
sg9
I5
sg10
(lp117
g111
a(igraph
Vertex
p118
(dp119
g14
F-16.0
sg15
F86.84210526315789
sg16
I640938
sg8
I00
sg17
S'4658.53305434'
p120
sg19
g20
sbasg24
I00
sg25
I00
sg26
I640887
sg17
S'4658.59853389'
p121
sba(igraph
Edge
p122
(dp123
g7
I1
sg8
I00
sg9
I5
sg10
(lp124
g118
a(igraph
Vertex
p125
(dp126
g14
F-16.0
sg15
F102.63157894736841
sg16
I640939
sg8
I00
sg17
S'4658.5336371'
p127
sg19
I0
sbasg24
I00
sg25
I00
sg26
I640888
sg17
S'4658.59968879'
p128
sba(igraph
Edge
p129
(dp130
g7
I1
sg8
I00
sg9
I5
sg10
(lp131
g125
a(igraph
Vertex
p132
(dp133
g14
F-16.0
sg15
F118.4210526315789
sg16
I640941
sg8
I00
sg17
S'4658.53426762'
p134
sg19
g20
sbasg24
I00
sg25
I00
sg26
I640889
sg17
S'4658.60088503'
p135
sba(igraph
Edge
p136
(dp137
g7
I1
sg8
I00
sg9
I5
sg10
(lp138
g132
a(igraph
Vertex
p139
(dp140
g14
F-16.0
sg15
F134.21052631578942
sg16
I640942
sg8
I00
sg17
S'4658.53488865'
p141
sg19
g20
sbasg24
I00
sg25
I00
sg26
I640890
sg17
S'4658.60211871'
p142
sba(igraph
Edge
p143
(dp144
g7
I1
sg8
I00
sg9
I5
sg10
(lp145
g139
a(igraph
Vertex
p146
(dp147
g14
F-16.0
sg15
F149.99999999999994
sg16
I640943
sg8
I00
sg17
S'4658.53552421'
p148
sg19
g20
sbasg24
I00
sg25
I00
sg26
I640891
sg17
S'4658.60361582'
p149
sba(igraph
Edge
p150
(dp151
g7
I1
sg8
I00
sg9
I5
sg10
(lp152
(igraph
Vertex
p153
(dp154
g14
F17.0
sg15
F7.894736842105317
sg16
I640944
sg8
I00
sg17
S'4658.54405797'
p155
sg19
I0
sba(igraph
Vertex
p156
(dp157
g14
F17.0
sg15
F23.684210526315866
sg16
I640946
sg8
I00
sg17
S'4658.54491283'
p158
sg19
g20
sbasg24
I00
sg25
I00
sg26
I640892
sg17
S'4658.62143485'
p159
sba(igraph
Edge
p160
(dp161
g7
I1
sg8
I00
sg9
I5
sg10
(lp162
g156
a(igraph
Vertex
p163
(dp164
g14
F17.0
sg15
F39.473684210526358
sg16
I640947
sg8
I00
sg17
S'4658.54585457'
p165
sg19
g20
sbasg24
I00
sg25
I00
sg26
I640893
sg17
S'4658.62315937'
p166
sba(igraph
Edge
p167
(dp168
g7
I1
sg8
I00
sg9
I5
sg10
(lp169
g163
a(igraph
Vertex
p170
(dp171
g14
F17.0
sg15
F55.263157894736878
sg16
I640948
sg8
I00
sg17
S'4658.54673178'
p172
sg19
g20
sbasg24
I00
sg25
I00
sg26
I640894
sg17
S'4658.62501463'
p173
sba(igraph
Edge
p174
(dp175
g7
I1
sg8
I00
sg9
I5
sg10
(lp176
g170
a(igraph
Vertex
p177
(dp178
g14
F17.0
sg15
F71.05263157894737
sg16
I640949
sg8
I00
sg17
S'4658.54761485'
p179
sg19
I0
sbasg24
I00
sg25
I00
sg26
I640895
sg17
S'4658.6267696'
p180
sba(igraph
Edge
p181
(dp182
g7
I1
sg8
I00
sg9
I5
sg10
(lp183
g177
a(igraph
Vertex
p184
(dp185
g14
F17.0
sg15
F86.84210526315789
sg16
I640951
sg8
I00
sg17
S'4658.54851105'
p186
sg19
g20
sbasg24
I00
sg25
I00
sg26
I640896
sg17
S'4658.62854609'
p187
sba(igraph
Edge
p188
(dp189
g7
I1
sg8
I00
sg9
I5
sg10
(lp190
g184
a(igraph
Vertex
p191
(dp192
g14
F17.0
sg15
F102.63157894736841
sg16
I640952
sg8
I00
sg17
S'4658.54942486'
p193
sg19
g20
sbasg24
I00
sg25
I00
sg26
I640897
sg17
S'4658.63033318'
p194
sba(igraph
Edge
p195
(dp196
g7
I1
sg8
I00
sg9
I5
sg10
(lp197
g191
a(igraph
Vertex
p198
(dp199
g14
F17.0
sg15
F118.4210526315789
sg16
I640953
sg8
I00
sg17
S'4658.55035961'
p200
sg19
g20
sbasg24
I00
sg25
I00
sg26
I640898
sg17
S'4658.63220242'
p201
sba(igraph
Edge
p202
(dp203
g7
I1
sg8
I00
sg9
I5
sg10
(lp204
g198
a(igraph
Vertex
p205
(dp206
g14
F17.0
sg15
F134.21052631578942
sg16
I640954
sg8
I00
sg17
S'4658.55130694'
p207
sg19
I0
sbasg24
I00
sg25
I00
sg26
I640899
sg17
S'4658.63416328'
p208
sba(igraph
Edge
p209
(dp210
g7
I1
sg8
I00
sg9
I5
sg10
(lp211
g205
a(igraph
Vertex
p212
(dp213
g14
F17.0
sg15
F149.99999999999994
sg16
I640956
sg8
I00
sg17
S'4658.55230539'
p214
sg19
g20
sbasg24
I00
sg25
I00
sg26
I640900
sg17
S'4658.63613476'
p215
sba(igraph
Edge
p216
(dp217
g7
I1
sg8
I00
sg9
I5
sg10
(lp218
g12
ag90
asg24
I00
sg25
I00
sg26
I640901
sg17
S'4658.7015143'
p219
sba(igraph
Edge
p220
(dp221
g7
I1
sg8
I00
sg9
I5
sg10
(lp222
g31
ag104
asg24
I00
sg25
I00
sg26
I640902
sg17
S'4658.70278988'
p223
sba(igraph
Edge
p224
(dp225
g7
I1
sg8
I00
sg9
I5
sg10
(lp226
g45
ag118
asg24
I00
sg25
I00
sg26
I640903
sg17
S'4658.70409675'
p227
sba(igraph
Edge
p228
(dp229
g7
I1
sg8
I00
sg9
I5
sg10
(lp230
g59
ag132
asg24
I00
sg25
I00
sg26
I640904
sg17
S'4658.70541396'
p231
sba(igraph
Edge
p232
(dp233
g7
I1
sg8
I00
sg9
I5
sg10
(lp234
g73
ag146
asg24
I00
sg25
I00
sg26
I640905
sg17
S'4658.70676245'
p235
sba(igraph
Edge
p236
(dp237
g7
I1
sg8
I00
sg9
I5
sg10
(lp238
g87
ag156
asg24
I00
sg25
I00
sg26
I640906
sg17
S'4658.71511128'
p239
sba(igraph
Edge
p240
(dp241
g7
I1
sg8
I00
sg9
I5
sg10
(lp242
g97
ag170
asg24
I00
sg25
I00
sg26
I640907
sg17
S'4658.71660029'
p243
sba(igraph
Edge
p244
(dp245
g7
I1
sg8
I00
sg9
I5
sg10
(lp246
g111
ag184
asg24
I00
sg25
I00
sg26
I640908
sg17
S'4658.71809127'
p247
sba(igraph
Edge
p248
(dp249
g7
I1
sg8
I00
sg9
I5
sg10
(lp250
g125
ag198
asg24
I00
sg25
I00
sg26
I640909
sg17
S'4658.71958'
p251
sba(igraph
Edge
p252
(dp253
g7
I1
sg8
I00
sg9
I5
sg10
(lp254
g139
ag212
asg24
I00
sg25
I00
sg26
I640910
sg17
S'4658.7211288'
p255
sba(igraph
Edge
p256
(dp257
g7
I1
sg8
I00
sg9
I5
sg10
(lp258
g153
a(igraph
Vertex
p259
(dp260
g14
F50.0
sg15
F23.684210526315866
sg16
I640957
sg8
I00
sg17
S'4658.56612391'
p261
sg19
g20
sbasg24
I00
sg25
I00
sg26
I640911
sg17
S'4658.73043585'
p262
sba(igraph
Edge
p263
(dp264
g7
I1
sg8
I00
sg9
I5
sg10
(lp265
g163
a(igraph
Vertex
p266
(dp267
g14
F50.0
sg15
F55.263157894736878
sg16
I640958
sg8
I00
sg17
S'4658.56854656'
p268
sg19
g20
sbasg24
I00
sg25
I00
sg26
I640912
sg17
S'4658.73206036'
p269
sba(igraph
Edge
p270
(dp271
g7
I1
sg8
I00
sg9
I5
sg10
(lp272
g177
a(igraph
Vertex
p273
(dp274
g14
F50.0
sg15
F86.84210526315789
sg16
I640959
sg8
I00
sg17
S'4658.57109018'
p275
sg19
g20
sbasg24
I00
sg25
I00
sg26
I640913
sg17
S'4658.73370414'
p276
sba(igraph
Edge
p277
(dp278
g7
I1
sg8
I00
sg9
I5
sg10
(lp279
g191
a(igraph
Vertex
p280
(dp281
g14
F50.0
sg15
F118.4210526315789
sg16
I640960
sg8
I00
sg17
S'4658.57364972'
p282
sg19
g20
sbasg24
I00
sg25
I00
sg26
I640914
sg17
S'4658.73536413'
p283
sba(igraph
Edge
p284
(dp285
g7
I1
sg8
I00
sg9
I5
sg10
(lp286
g205
a(igraph
Vertex
p287
(dp288
g14
F50.0
sg15
F149.99999999999994
sg16
I640961
sg8
I00
sg17
S'4658.57634085'
p289
sg19
g20
sbasg24
I00
sg25
I00
sg26
I640915
sg17
S'4658.73698585'
p290
sba(igraph
Edge
p291
(dp292
g7
I1
sg8
I00
sg9
I5
sg10
(lp293
g153
ag212
asg24
I00
sg25
I00
sg26
I640916
sg17
S'5446.4441341'
p294
sba(igraph
Edge
p295
(dp296
g7
I1
sg8
I00
sg9
I5
sg10
(lp297
g87
ag146
asg24
I00
sg25
I00
sg26
I640917
sg17
S'5450.29962104'
p298
sba(igraph
Edge
p299
(dp300
g7
I1
sg8
I00
sg9
I5
sg10
(lp301
g12
ag80
asg24
I00
sg25
I00
sg26
I640918
sg17
S'5454.97691075'
p302
sbasS'vertices'
p303
(lp304
g12
ag21
ag31
ag38
ag45
ag52
ag59
ag66
ag73
ag80
ag87
ag90
ag97
ag104
ag111
ag118
ag125
ag132
ag139
ag146
ag153
ag156
ag163
ag170
ag177
ag184
ag191
ag198
ag205
ag212
ag259
ag266
ag273
ag280
ag287
asS'tags'
p305
(lp306
sb.