(igraph
Graph
p0
(dp1
S'labelingConstraints'
p2
I-1
sS'edges'
p3
(lp4
(igraph
Edge
p5
(dp6
S'direction'
p7
I1
sS'selected'
p8
I00
sS'height'
p9
I5
sS'vs'
p10
(lp11
(igraph
Vertex
p12
(dp13
S'y'
p14
F-49.0
sS'x'
p15
F-23.684210526315738
sS'circle'
p16
I638904
sg8
I00
sS'id'
p17
S'4658.5229592'
p18
sS'label'
p19
S'NULL'
p20
sba(igraph
Vertex
p21
(dp22
g14
F-49.0
sg15
F-7.8947368421052033
sg16
I638905
sg8
I00
sg17
S'4658.52315196'
p23
sg19
g20
sbasS'wrap'
p24
I00
sS'curved'
p25
I00
sS'line'
p26
I638850
sg17
S'4658.57938705'
p27
sba(igraph
Edge
p28
(dp29
g7
I1
sg8
I00
sg9
I5
sg10
(lp30
g21
a(igraph
Vertex
p31
(dp32
g14
F-49.0
sg15
F7.894736842105317
sg16
I638906
sg8
I00
sg17
S'4658.5233207'
p33
sg19
g20
sbasg24
I00
sg25
I00
sg26
I638851
sg17
S'4658.57973066'
p34
sba(igraph
Edge
p35
(dp36
g7
I1
sg8
I00
sg9
I5
sg10
(lp37
g31
a(igraph
Vertex
p38
(dp39
g14
F-49.0
sg15
F23.684210526315866
sg16
I638907
sg8
I00
sg17
S'4658.52350061'
p40
sg19
g20
sbasg24
I00
sg25
I00
sg26
I638852
sg17
S'4658.5801011'
p41
sba(igraph
Edge
p42
(dp43
g7
I1
sg8
I00
sg9
I5
sg10
(lp44
g38
a(igraph
Vertex
p45
(dp46
g14
F-49.0
sg15
F39.473684210526358
sg16
I638908
sg8
I00
sg17
S'4658.52369756'
p47
sg19
g20
sbasg24
I00
sg25
I00
sg26
I638853
sg17
S'4658.58050562'
p48
sba(igraph
Edge
p49
(dp50
g7
I1
sg8
I00
sg9
I5
sg10
(lp51
g45
a(igraph
Vertex
p52
(dp53
g14
F-49.0
sg15
F55.263157894736878
sg16
I638909
sg8
I00
sg17
S'4658.52391659'
p54
sg19
g20
sbasg24
I00
sg25
I00
sg26
I638854
sg17
S'4658.58094451'
p55
sba(igraph
Edge
p56
(dp57
g7
I1
sg8
I00
sg9
I5
sg10
(lp58
g52
a(igraph
Vertex
p59
(dp60
g14
F-49.0
sg15
F71.05263157894737
sg16
I638910
sg8
I00
sg17
S'4658.52420126'
p61
sg19
g20
sbasg24
I00
sg25
I00
sg26
I638855
sg17
S'4658.58141049'
p62
sba(igraph
Edge
p63
(dp64
g7
I1
sg8
I00
sg9
I5
sg10
(lp65
g59
a(igraph
Vertex
p66
(dp67
g14
F-49.0
sg15
F86.84210526315789
sg16
I638911
sg8
I00
sg17
S'4658.52444347'
p68
sg19
g20
sbasg24
I00
sg25
I00
sg26
I638856
sg17
S'4658.58190887'
p69
sba(igraph
Edge
p70
(dp71
g7
I1
sg8
I00
sg9
I5
sg10
(lp72
g66
a(igraph
Vertex
p73
(dp74
g14
F-49.0
sg15
F102.63157894736841
sg16
I638912
sg8
I00
sg17
S'4658.52469713'
p75
sg19
g20
sbasg24
I00
sg25
I00
sg26
I638857
sg17
S'4658.58243743'
p76
sba(igraph
Edge
p77
(dp78
g7
I1
sg8
I00
sg9
I5
sg10
(lp79
g73
a(igraph
Vertex
p80
(dp81
g14
F-49.0
sg15
F118.4210526315789
sg16
I638913
sg8
I00
sg17
S'4658.52511143'
p82
sg19
g20
sbasg24
I00
sg25
I00
sg26
I638858
sg17
S'4658.58299477'
p83
sba(igraph
Edge
p84
(dp85
g7
I1
sg8
I00
sg9
I5
sg10
(lp86
g80
a(igraph
Vertex
p87
(dp88
g14
F-49.0
sg15
F134.21052631578942
sg16
I638914
sg8
I00
sg17
S'4658.52541147'
p89
sg19
I0
sbasg24
I00
sg25
I00
sg26
I638859
sg17
S'4658.58357696'
p90
sba(igraph
Edge
p91
(dp92
g7
I1
sg8
I00
sg9
I5
sg10
(lp93
g87
a(igraph
Vertex
p94
(dp95
g14
F-49.0
sg15
F149.99999999999994
sg16
I638916
sg8
I00
sg17
S'4658.52571765'
p96
sg19
g20
sbasg24
I00
sg25
I00
sg26
I638860
sg17
S'4658.58419687'
p97
sba(igraph
Edge
p98
(dp99
g7
I1
sg8
I00
sg9
I5
sg10
(lp100
(igraph
Vertex
p101
(dp102
g14
F-16.0
sg15
F-23.684210526315738
sg16
I638917
sg8
I00
sg17
S'4658.52939214'
p103
sg19
I0
sba(igraph
Vertex
p104
(dp105
g14
F-16.0
sg15
F-7.8947368421052033
sg16
I638919
sg8
I00
sg17
S'4658.52986008'
p106
sg19
g20
sbasg24
I00
sg25
I00
sg26
I638861
sg17
S'4658.59227416'
p107
sba(igraph
Edge
p108
(dp109
g7
I1
sg8
I00
sg9
I5
sg10
(lp110
g104
a(igraph
Vertex
p111
(dp112
g14
F-16.0
sg15
F7.894736842105317
sg16
I638920
sg8
I00
sg17
S'4658.53034673'
p113
sg19
I0
sbasg24
I00
sg25
I00
sg26
I638862
sg17
S'4658.59323573'
p114
sba(igraph
Edge
p115
(dp116
g7
I1
sg8
I00
sg9
I5
sg10
(lp117
g111
a(igraph
Vertex
p118
(dp119
g14
F-16.0
sg15
F23.684210526315866
sg16
I638922
sg8
I00
sg17
S'4658.53087222'
p120
sg19
g20
sbasg24
I00
sg25
I00
sg26
I638863
sg17
S'4658.59423474'
p121
sba(igraph
Edge
p122
(dp123
g7
I1
sg8
I00
sg9
I5
sg10
(lp124
g118
a(igraph
Vertex
p125
(dp126
g14
F-16.0
sg15
F39.473684210526358
sg16
I638923
sg8
I00
sg17
S'4658.53140106'
p127
sg19
I0
sbasg24
I00
sg25
I00
sg26
I638864
sg17
S'4658.59526085'
p128
sba(igraph
Edge
p129
(dp130
g7
I1
sg8
I00
sg9
I5
sg10
(lp131
g125
a(igraph
Vertex
p132
(dp133
g14
F-16.0
sg15
F55.263157894736878
sg16
I638925
sg8
I00
sg17
S'4658.53193884'
p134
sg19
g20
sbasg24
I00
sg25
I00
sg26
I638865
sg17
S'4658.5963297'
p135
sba(igraph
Edge
p136
(dp137
g7
I1
sg8
I00
sg9
I5
sg10
(lp138
g132
a(igraph
Vertex
p139
(dp140
g14
F-16.0
sg15
F71.05263157894737
sg16
I638926
sg8
I00
sg17
S'4658.53248639'
p141
sg19
I0
sbasg24
I00
sg25
I00
sg26
I638866
sg17
S'4658.59741727'
p142
sba(igraph
Edge
p143
(dp144
g7
I1
sg8
I00
sg9
I5
sg10
(lp145
g139
a(igraph
Vertex
p146
(dp147
g14
F-16.0
sg15
F86.84210526315789
sg16
I638928
sg8
I00
sg17
S'4658.53305434'
p148
sg19
g20
sbasg24
I00
sg25
I00
sg26
I638867
sg17
S'4658.59853389'
p149
sba(igraph
Edge
p150
(dp151
g7
I1
sg8
I00
sg9
I5
sg10
(lp152
g146
a(igraph
Vertex
p153
(dp154
g14
F-16.0
sg15
F102.63157894736841
sg16
I638929
sg8
I00
sg17
S'4658.5336371'
p155
sg19
I0
sbasg24
I00
sg25
I00
sg26
I638868
sg17
S'4658.59968879'
p156
sba(igraph
Edge
p157
(dp158
g7
I1
sg8
I00
sg9
I5
sg10
(lp159
g153
a(igraph
Vertex
p160
(dp161
g14
F-16.0
sg15
F118.4210526315789
sg16
I638931
sg8
I00
sg17
S'4658.53426762'
p162
sg19
g20
sbasg24
I00
sg25
I00
sg26
I638869
sg17
S'4658.60088503'
p163
sba(igraph
Edge
p164
(dp165
g7
I1
sg8
I00
sg9
I5
sg10
(lp166
g160
a(igraph
Vertex
p167
(dp168
g14
F-16.0
sg15
F134.21052631578942
sg16
I638932
sg8
I00
sg17
S'4658.53488865'
p169
sg19
g20
sbasg24
I00
sg25
I00
sg26
I638870
sg17
S'4658.60211871'
p170
sba(igraph
Edge
p171
(dp172
g7
I1
sg8
I00
sg9
I5
sg10
(lp173
g167
a(igraph
Vertex
p174
(dp175
g14
F-16.0
sg15
F149.99999999999994
sg16
I638933
sg8
I00
sg17
S'4658.53552421'
p176
sg19
g20
sbasg24
I00
sg25
I00
sg26
I638871
sg17
S'4658.60361582'
p177
sba(igraph
Edge
p178
(dp179
g7
I1
sg8
I00
sg9
I5
sg10
(lp180
(igraph
Vertex
p181
(dp182
g14
F17.0
sg15
F-23.684210526315738
sg16
I638934
sg8
I00
sg17
S'4658.54219601'
p183
sg19
g20
sba(igraph
Vertex
p184
(dp185
g14
F17.0
sg15
F-7.8947368421052033
sg16
I638935
sg8
I00
sg17
S'4658.5430598'
p186
sg19
g20
sbasg24
I00
sg25
I00
sg26
I638872
sg17
S'4658.61816236'
p187
sba(igraph
Edge
p188
(dp189
g7
I1
sg8
I00
sg9
I5
sg10
(lp190
g184
a(igraph
Vertex
p191
(dp192
g14
F17.0
sg15
F7.894736842105317
sg16
I638936
sg8
I00
sg17
S'4658.54405797'
p193
sg19
I0
sbasg24
I00
sg25
I00
sg26
I638873
sg17
S'4658.6197905'
p194
sba(igraph
Edge
p195
(dp196
g7
I1
sg8
I00
sg9
I5
sg10
(lp197
g191
a(igraph
Vertex
p198
(dp199
g14
F17.0
sg15
F23.684210526315866
sg16
I638938
sg8
I00
sg17
S'4658.54491283'
p200
sg19
g20
sbasg24
I00
sg25
I00
sg26
I638874
sg17
S'4658.62143485'
p201
sba(igraph
Edge
p202
(dp203
g7
I1
sg8
I00
sg9
I5
sg10
(lp204
g198
a(igraph
Vertex
p205
(dp206
g14
F17.0
sg15
F39.473684210526358
sg16
I638939
sg8
I00
sg17
S'4658.54585457'
p207
sg19
g20
sbasg24
I00
sg25
I00
sg26
I638875
sg17
S'4658.62315937'
p208
sba(igraph
Edge
p209
(dp210
g7
I1
sg8
I00
sg9
I5
sg10
(lp211
g205
a(igraph
Vertex
p212
(dp213
g14
F17.0
sg15
F55.263157894736878
sg16
I638940
sg8
I00
sg17
S'4658.54673178'
p214
sg19
g20
sbasg24
I00
sg25
I00
sg26
I638876
sg17
S'4658.62501463'
p215
sba(igraph
Edge
p216
(dp217
g7
I1
sg8
I00
sg9
I5
sg10
(lp218
g212
a(igraph
Vertex
p219
(dp220
g14
F17.0
sg15
F71.05263157894737
sg16
I638941
sg8
I00
sg17
S'4658.54761485'
p221
sg19
I0
sbasg24
I00
sg25
I00
sg26
I638877
sg17
S'4658.6267696'
p222
sba(igraph
Edge
p223
(dp224
g7
I1
sg8
I00
sg9
I5
sg10
(lp225
g219
a(igraph
Vertex
p226
(dp227
g14
F17.0
sg15
F86.84210526315789
sg16
I638943
sg8
I00
sg17
S'4658.54851105'
p228
sg19
g20
sbasg24
I00
sg25
I00
sg26
I638878
sg17
S'4658.62854609'
p229
sba(igraph
Edge
p230
(dp231
g7
I1
sg8
I00
sg9
I5
sg10
(lp232
g226
a(igraph
Vertex
p233
(dp234
g14
F17.0
sg15
F102.63157894736841
sg16
I638944
sg8
I00
sg17
S'4658.54942486'
p235
sg19
g20
sbasg24
I00
sg25
I00
sg26
I638879
sg17
S'4658.63033318'
p236
sba(igraph
Edge
p237
(dp238
g7
I1
sg8
I00
sg9
I5
sg10
(lp239
g233
a(igraph
Vertex
p240
(dp241
g14
F17.0
sg15
F118.4210526315789
sg16
I638945
sg8
I00
sg17
S'4658.55035961'
p242
sg19
g20
sbasg24
I00
sg25
I00
sg26
I638880
sg17
S'4658.63220242'
p243
sba(igraph
Edge
p244
(dp245
g7
I1
sg8
I00
sg9
I5
sg10
(lp246
g240
a(igraph
Vertex
p247
(dp248
g14
F17.0
sg15
F134.21052631578942
sg16
I638946
sg8
I00
sg17
S'4658.55130694'
p249
sg19
I0
sbasg24
I00
sg25
I00
sg26
I638881
sg17
S'4658.63416328'
p250
sba(igraph
Edge
p251
(dp252
g7
I1
sg8
I00
sg9
I5
sg10
(lp253
g247
a(igraph
Vertex
p254
(dp255
g14
F17.0
sg15
F149.99999999999994
sg16
I638948
sg8
I00
sg17
S'4658.55230539'
p256
sg19
g20
sbasg24
I00
sg25
I00
sg26
I638882
sg17
S'4658.63613476'
p257
sba(igraph
Edge
p258
(dp259
g7
I1
sg8
I00
sg9
I5
sg10
(lp260
g12
ag104
asg24
I00
sg25
I00
sg26
I638883
sg17
S'4658.70025492'
p261
sba(igraph
Edge
p262
(dp263
g7
I1
sg8
I00
sg9
I5
sg10
(lp264
g31
ag118
asg24
I00
sg25
I00
sg26
I638884
sg17
S'4658.7015143'
p265
sba(igraph
Edge
p266
(dp267
g7
I1
sg8
I00
sg9
I5
sg10
(lp268
g45
ag132
asg24
I00
sg25
I00
sg26
I638885
sg17
S'4658.70278988'
p269
sba(igraph
Edge
p270
(dp271
g7
I1
sg8
I00
sg9
I5
sg10
(lp272
g59
ag146
asg24
I00
sg25
I00
sg26
I638886
sg17
S'4658.70409675'
p273
sba(igraph
Edge
p274
(dp275
g7
I1
sg8
I00
sg9
I5
sg10
(lp276
g73
ag160
asg24
I00
sg25
I00
sg26
I638887
sg17
S'4658.70541396'
p277
sba(igraph
Edge
p278
(dp279
g7
I1
sg8
I00
sg9
I5
sg10
(lp280
g87
ag174
asg24
I00
sg25
I00
sg26
I638888
sg17
S'4658.70676245'
p281
sba(igraph
Edge
p282
(dp283
g7
I1
sg8
I00
sg9
I5
sg10
(lp284
g101
ag184
asg24
I00
sg25
I00
sg26
I638889
sg17
S'4658.71370412'
p285
sba(igraph
Edge
p286
(dp287
g7
I1
sg8
I00
sg9
I5
sg10
(lp288
g111
ag198
asg24
I00
sg25
I00
sg26
I638890
sg17
S'4658.71511128'
p289
sba(igraph
Edge
p290
(dp291
g7
I1
sg8
I00
sg9
I5
sg10
(lp292
g125
ag212
asg24
I00
sg25
I00
sg26
I638891
sg17
S'4658.71660029'
p293
sba(igraph
Edge
p294
(dp295
g7
I1
sg8
I00
sg9
I5
sg10
(lp296
g139
ag226
asg24
I00
sg25
I00
sg26
I638892
sg17
S'4658.71809127'
p297
sba(igraph
Edge
p298
(dp299
g7
I1
sg8
I00
sg9
I5
sg10
(lp300
g153
ag240
asg24
I00
sg25
I00
sg26
I638893
sg17
S'4658.71958'
p301
sba(igraph
Edge
p302
(dp303
g7
I1
sg8
I00
sg9
I5
sg10
(lp304
g167
ag254
asg24
I00
sg25
I00
sg26
I638894
sg17
S'4658.7211288'
p305
sba(igraph
Edge
p306
(dp307
g7
I1
sg8
I00
sg9
I5
sg10
(lp308
g181
a(igraph
Vertex
p309
(dp310
g14
F50.0
sg15
F-7.8947368421052033
sg16
I638949
sg8
I00
sg17
S'4658.5636532'
p311
sg19
g20
sbasg24
I00
sg25
I00
sg26
I638895
sg17
S'4658.72888621'
p312
sba(igraph
Edge
p313
(dp314
g7
I1
sg8
I00
sg9
I5
sg10
(lp315
g191
a(igraph
Vertex
p316
(dp317
g14
F50.0
sg15
F23.684210526315866
sg16
I638950
sg8
I00
sg17
S'4658.56612391'
p318
sg19
g20
sbasg24
I00
sg25
I00
sg26
I638896
sg17
S'4658.73043585'
p319
sba(igraph
Edge
p320
(dp321
g7
I1
sg8
I00
sg9
I5
sg10
(lp322
g205
a(igraph
Vertex
p323
(dp324
g14
F50.0
sg15
F55.263157894736878
sg16
I638951
sg8
I00
sg17
S'4658.56854656'
p325
sg19
g20
sbasg24
I00
sg25
I00
sg26
I638897
sg17
S'4658.73206036'
p326
sba(igraph
Edge
p327
(dp328
g7
I1
sg8
I00
sg9
I5
sg10
(lp329
g219
a(igraph
Vertex
p330
(dp331
g14
F50.0
sg15
F86.84210526315789
sg16
I638952
sg8
I00
sg17
S'4658.57109018'
p332
sg19
g20
sbasg24
I00
sg25
I00
sg26
I638898
sg17
S'4658.73370414'
p333
sba(igraph
Edge
p334
(dp335
g7
I1
sg8
I00
sg9
I5
sg10
(lp336
g233
a(igraph
Vertex
p337
(dp338
g14
F50.0
sg15
F118.4210526315789
sg16
I638953
sg8
I00
sg17
S'4658.57364972'
p339
sg19
g20
sbasg24
I00
sg25
I00
sg26
I638899
sg17
S'4658.73536413'
p340
sba(igraph
Edge
p341
(dp342
g7
I1
sg8
I00
sg9
I5
sg10
(lp343
g247
a(igraph
Vertex
p344
(dp345
g14
F50.0
sg15
F149.99999999999994
sg16
I638954
sg8
I00
sg17
S'4658.57634085'
p346
sg19
g20
sbasg24
I00
sg25
I00
sg26
I638900
sg17
S'4658.73698585'
p347
sba(igraph
Edge
p348
(dp349
g7
I1
sg8
I00
sg9
I5
sg10
(lp350
g181
ag254
asg24
I00
sg25
I00
sg26
I638901
sg17
S'5392.02133344'
p351
sba(igraph
Edge
p352
(dp353
g7
I1
sg8
I00
sg9
I5
sg10
(lp354
g101
ag174
asg24
I00
sg25
I00
sg26
I638902
sg17
S'5396.04985243'
p355
sba(igraph
Edge
p356
(dp357
g7
I1
sg8
I00
sg9
I5
sg10
(lp358
g12
ag94
asg24
I00
sg25
I00
sg26
I638903
sg17
S'5400.15411903'
p359
sbasS'vertices'
p360
(lp361
g12
ag21
ag31
ag38
ag45
ag52
ag59
ag66
ag73
ag80
ag87
ag94
ag101
ag104
ag111
ag118
ag125
ag132
ag139
ag146
ag153
ag160
ag167
ag174
ag181
ag184
ag191
ag198
ag205
ag212
ag219
ag226
ag233
ag240
ag247
ag254
ag309
ag316
ag323
ag330
ag337
ag344
asS'tags'
p362
(lp363
sb.