(igraph
Graph
p0
(dp1
S'labelingConstraints'
p2
I-1
sS'edges'
p3
(lp4
(igraph
Edge
p5
(dp6
S'direction'
p7
I1
sS'selected'
p8
I00
sS'height'
p9
I5
sS'vs'
p10
(lp11
(igraph
Vertex
p12
(dp13
S'y'
p14
F-49.0
sS'x'
p15
F-55.263157894736793
sS'circle'
p16
I637097
sg8
I00
sS'id'
p17
S'4658.52271699'
p18
sS'label'
p19
S'NULL'
p20
sba(igraph
Vertex
p21
(dp22
g14
F-49.0
sg15
F-39.473684210526258
sg16
I637098
sg8
I00
sg17
S'4658.52283097'
p23
sg19
g20
sbasS'wrap'
p24
I00
sS'curved'
p25
I00
sS'line'
p26
I637034
sg17
S'4658.57879451'
p27
sba(igraph
Edge
p28
(dp29
g7
I1
sg8
I00
sg9
I5
sg10
(lp30
g21
a(igraph
Vertex
p31
(dp32
g14
F-49.0
sg15
F-23.684210526315738
sg16
I637099
sg8
I00
sg17
S'4658.5229592'
p33
sg19
g20
sbasg24
I00
sg25
I00
sg26
I637035
sg17
S'4658.57907583'
p34
sba(igraph
Edge
p35
(dp36
g7
I1
sg8
I00
sg9
I5
sg10
(lp37
g31
a(igraph
Vertex
p38
(dp39
g14
F-49.0
sg15
F-7.8947368421052033
sg16
I637100
sg8
I00
sg17
S'4658.52315196'
p40
sg19
g20
sbasg24
I00
sg25
I00
sg26
I637036
sg17
S'4658.57938705'
p41
sba(igraph
Edge
p42
(dp43
g7
I1
sg8
I00
sg9
I5
sg10
(lp44
g38
a(igraph
Vertex
p45
(dp46
g14
F-49.0
sg15
F7.894736842105317
sg16
I637101
sg8
I00
sg17
S'4658.5233207'
p47
sg19
g20
sbasg24
I00
sg25
I00
sg26
I637037
sg17
S'4658.57973066'
p48
sba(igraph
Edge
p49
(dp50
g7
I1
sg8
I00
sg9
I5
sg10
(lp51
g45
a(igraph
Vertex
p52
(dp53
g14
F-49.0
sg15
F23.684210526315866
sg16
I637102
sg8
I00
sg17
S'4658.52350061'
p54
sg19
g20
sbasg24
I00
sg25
I00
sg26
I637038
sg17
S'4658.5801011'
p55
sba(igraph
Edge
p56
(dp57
g7
I1
sg8
I00
sg9
I5
sg10
(lp58
g52
a(igraph
Vertex
p59
(dp60
g14
F-49.0
sg15
F39.473684210526358
sg16
I637103
sg8
I00
sg17
S'4658.52369756'
p61
sg19
g20
sbasg24
I00
sg25
I00
sg26
I637039
sg17
S'4658.58050562'
p62
sba(igraph
Edge
p63
(dp64
g7
I1
sg8
I00
sg9
I5
sg10
(lp65
g59
a(igraph
Vertex
p66
(dp67
g14
F-49.0
sg15
F55.263157894736878
sg16
I637104
sg8
I00
sg17
S'4658.52391659'
p68
sg19
g20
sbasg24
I00
sg25
I00
sg26
I637040
sg17
S'4658.58094451'
p69
sba(igraph
Edge
p70
(dp71
g7
I1
sg8
I00
sg9
I5
sg10
(lp72
g66
a(igraph
Vertex
p73
(dp74
g14
F-49.0
sg15
F71.05263157894737
sg16
I637105
sg8
I00
sg17
S'4658.52420126'
p75
sg19
g20
sbasg24
I00
sg25
I00
sg26
I637041
sg17
S'4658.58141049'
p76
sba(igraph
Edge
p77
(dp78
g7
I1
sg8
I00
sg9
I5
sg10
(lp79
g73
a(igraph
Vertex
p80
(dp81
g14
F-49.0
sg15
F86.84210526315789
sg16
I637106
sg8
I00
sg17
S'4658.52444347'
p82
sg19
g20
sbasg24
I00
sg25
I00
sg26
I637042
sg17
S'4658.58190887'
p83
sba(igraph
Edge
p84
(dp85
g7
I1
sg8
I00
sg9
I5
sg10
(lp86
g80
a(igraph
Vertex
p87
(dp88
g14
F-49.0
sg15
F102.63157894736841
sg16
I637107
sg8
I00
sg17
S'4658.52469713'
p89
sg19
g20
sbasg24
I00
sg25
I00
sg26
I637043
sg17
S'4658.58243743'
p90
sba(igraph
Edge
p91
(dp92
g7
I1
sg8
I00
sg9
I5
sg10
(lp93
g87
a(igraph
Vertex
p94
(dp95
g14
F-49.0
sg15
F118.4210526315789
sg16
I637108
sg8
I00
sg17
S'4658.52511143'
p96
sg19
g20
sbasg24
I00
sg25
I00
sg26
I637044
sg17
S'4658.58299477'
p97
sba(igraph
Edge
p98
(dp99
g7
I1
sg8
I00
sg9
I5
sg10
(lp100
g94
a(igraph
Vertex
p101
(dp102
g14
F-49.0
sg15
F134.21052631578942
sg16
I637109
sg8
I00
sg17
S'4658.52541147'
p103
sg19
I0
sbasg24
I00
sg25
I00
sg26
I637045
sg17
S'4658.58357696'
p104
sba(igraph
Edge
p105
(dp106
g7
I1
sg8
I00
sg9
I5
sg10
(lp107
g101
a(igraph
Vertex
p108
(dp109
g14
F-49.0
sg15
F149.99999999999994
sg16
I637111
sg8
I00
sg17
S'4658.52571765'
p110
sg19
g20
sbasg24
I00
sg25
I00
sg26
I637046
sg17
S'4658.58419687'
p111
sba(igraph
Edge
p112
(dp113
g7
I1
sg8
I00
sg9
I5
sg10
(lp114
(igraph
Vertex
p115
(dp116
g14
F-16.0
sg15
F-55.263157894736793
sg16
I637112
sg8
I00
sg17
S'4658.52849287'
p117
sg19
I0
sba(igraph
Vertex
p118
(dp119
g14
F-16.0
sg15
F-39.473684210526258
sg16
I637114
sg8
I00
sg17
S'4658.52893734'
p120
sg19
g20
sbasg24
I00
sg25
I00
sg26
I637047
sg17
S'4658.59042839'
p121
sba(igraph
Edge
p122
(dp123
g7
I1
sg8
I00
sg9
I5
sg10
(lp124
g118
a(igraph
Vertex
p125
(dp126
g14
F-16.0
sg15
F-23.684210526315738
sg16
I637115
sg8
I00
sg17
S'4658.52939214'
p127
sg19
I0
sbasg24
I00
sg25
I00
sg26
I637048
sg17
S'4658.59134192'
p128
sba(igraph
Edge
p129
(dp130
g7
I1
sg8
I00
sg9
I5
sg10
(lp131
g125
a(igraph
Vertex
p132
(dp133
g14
F-16.0
sg15
F-7.8947368421052033
sg16
I637117
sg8
I00
sg17
S'4658.52986008'
p134
sg19
g20
sbasg24
I00
sg25
I00
sg26
I637049
sg17
S'4658.59227416'
p135
sba(igraph
Edge
p136
(dp137
g7
I1
sg8
I00
sg9
I5
sg10
(lp138
g132
a(igraph
Vertex
p139
(dp140
g14
F-16.0
sg15
F7.894736842105317
sg16
I637118
sg8
I00
sg17
S'4658.53034673'
p141
sg19
I0
sbasg24
I00
sg25
I00
sg26
I637050
sg17
S'4658.59323573'
p142
sba(igraph
Edge
p143
(dp144
g7
I1
sg8
I00
sg9
I5
sg10
(lp145
g139
a(igraph
Vertex
p146
(dp147
g14
F-16.0
sg15
F23.684210526315866
sg16
I637120
sg8
I00
sg17
S'4658.53087222'
p148
sg19
g20
sbasg24
I00
sg25
I00
sg26
I637051
sg17
S'4658.59423474'
p149
sba(igraph
Edge
p150
(dp151
g7
I1
sg8
I00
sg9
I5
sg10
(lp152
g146
a(igraph
Vertex
p153
(dp154
g14
F-16.0
sg15
F39.473684210526358
sg16
I637121
sg8
I00
sg17
S'4658.53140106'
p155
sg19
I0
sbasg24
I00
sg25
I00
sg26
I637052
sg17
S'4658.59526085'
p156
sba(igraph
Edge
p157
(dp158
g7
I1
sg8
I00
sg9
I5
sg10
(lp159
g153
a(igraph
Vertex
p160
(dp161
g14
F-16.0
sg15
F55.263157894736878
sg16
I637123
sg8
I00
sg17
S'4658.53193884'
p162
sg19
g20
sbasg24
I00
sg25
I00
sg26
I637053
sg17
S'4658.5963297'
p163
sba(igraph
Edge
p164
(dp165
g7
I1
sg8
I00
sg9
I5
sg10
(lp166
g160
a(igraph
Vertex
p167
(dp168
g14
F-16.0
sg15
F71.05263157894737
sg16
I637124
sg8
I00
sg17
S'4658.53248639'
p169
sg19
I0
sbasg24
I00
sg25
I00
sg26
I637054
sg17
S'4658.59741727'
p170
sba(igraph
Edge
p171
(dp172
g7
I1
sg8
I00
sg9
I5
sg10
(lp173
g167
a(igraph
Vertex
p174
(dp175
g14
F-16.0
sg15
F86.84210526315789
sg16
I637126
sg8
I00
sg17
S'4658.53305434'
p176
sg19
g20
sbasg24
I00
sg25
I00
sg26
I637055
sg17
S'4658.59853389'
p177
sba(igraph
Edge
p178
(dp179
g7
I1
sg8
I00
sg9
I5
sg10
(lp180
g174
a(igraph
Vertex
p181
(dp182
g14
F-16.0
sg15
F102.63157894736841
sg16
I637127
sg8
I00
sg17
S'4658.5336371'
p183
sg19
I0
sbasg24
I00
sg25
I00
sg26
I637056
sg17
S'4658.59968879'
p184
sba(igraph
Edge
p185
(dp186
g7
I1
sg8
I00
sg9
I5
sg10
(lp187
g181
a(igraph
Vertex
p188
(dp189
g14
F-16.0
sg15
F118.4210526315789
sg16
I637129
sg8
I00
sg17
S'4658.53426762'
p190
sg19
g20
sbasg24
I00
sg25
I00
sg26
I637057
sg17
S'4658.60088503'
p191
sba(igraph
Edge
p192
(dp193
g7
I1
sg8
I00
sg9
I5
sg10
(lp194
g188
a(igraph
Vertex
p195
(dp196
g14
F-16.0
sg15
F134.21052631578942
sg16
I637130
sg8
I00
sg17
S'4658.53488865'
p197
sg19
g20
sbasg24
I00
sg25
I00
sg26
I637058
sg17
S'4658.60211871'
p198
sba(igraph
Edge
p199
(dp200
g7
I1
sg8
I00
sg9
I5
sg10
(lp201
g195
a(igraph
Vertex
p202
(dp203
g14
F-16.0
sg15
F149.99999999999994
sg16
I637131
sg8
I00
sg17
S'4658.53552421'
p204
sg19
g20
sbasg24
I00
sg25
I00
sg26
I637059
sg17
S'4658.60361582'
p205
sba(igraph
Edge
p206
(dp207
g7
I1
sg8
I00
sg9
I5
sg10
(lp208
(igraph
Vertex
p209
(dp210
g14
F17.0
sg15
F-55.263157894736793
sg16
I637132
sg8
I00
sg17
S'4658.54042483'
p211
sg19
I0
sba(igraph
Vertex
p212
(dp213
g14
F17.0
sg15
F-39.473684210526258
sg16
I637134
sg8
I00
sg17
S'4658.54135456'
p214
sg19
g20
sbasg24
I00
sg25
I00
sg26
I637060
sg17
S'4658.61488401'
p215
sba(igraph
Edge
p216
(dp217
g7
I1
sg8
I00
sg9
I5
sg10
(lp218
g212
a(igraph
Vertex
p219
(dp220
g14
F17.0
sg15
F-23.684210526315738
sg16
I637135
sg8
I00
sg17
S'4658.54219601'
p221
sg19
g20
sbasg24
I00
sg25
I00
sg26
I637061
sg17
S'4658.61641633'
p222
sba(igraph
Edge
p223
(dp224
g7
I1
sg8
I00
sg9
I5
sg10
(lp225
g219
a(igraph
Vertex
p226
(dp227
g14
F17.0
sg15
F-7.8947368421052033
sg16
I637136
sg8
I00
sg17
S'4658.5430598'
p228
sg19
g20
sbasg24
I00
sg25
I00
sg26
I637062
sg17
S'4658.61816236'
p229
sba(igraph
Edge
p230
(dp231
g7
I1
sg8
I00
sg9
I5
sg10
(lp232
g226
a(igraph
Vertex
p233
(dp234
g14
F17.0
sg15
F7.894736842105317
sg16
I637137
sg8
I00
sg17
S'4658.54405797'
p235
sg19
I0
sbasg24
I00
sg25
I00
sg26
I637063
sg17
S'4658.6197905'
p236
sba(igraph
Edge
p237
(dp238
g7
I1
sg8
I00
sg9
I5
sg10
(lp239
g233
a(igraph
Vertex
p240
(dp241
g14
F17.0
sg15
F23.684210526315866
sg16
I637139
sg8
I00
sg17
S'4658.54491283'
p242
sg19
g20
sbasg24
I00
sg25
I00
sg26
I637064
sg17
S'4658.62143485'
p243
sba(igraph
Edge
p244
(dp245
g7
I1
sg8
I00
sg9
I5
sg10
(lp246
g240
a(igraph
Vertex
p247
(dp248
g14
F17.0
sg15
F39.473684210526358
sg16
I637140
sg8
I00
sg17
S'4658.54585457'
p249
sg19
g20
sbasg24
I00
sg25
I00
sg26
I637065
sg17
S'4658.62315937'
p250
sba(igraph
Edge
p251
(dp252
g7
I1
sg8
I00
sg9
I5
sg10
(lp253
g247
a(igraph
Vertex
p254
(dp255
g14
F17.0
sg15
F55.263157894736878
sg16
I637141
sg8
I00
sg17
S'4658.54673178'
p256
sg19
g20
sbasg24
I00
sg25
I00
sg26
I637066
sg17
S'4658.62501463'
p257
sba(igraph
Edge
p258
(dp259
g7
I1
sg8
I00
sg9
I5
sg10
(lp260
g254
a(igraph
Vertex
p261
(dp262
g14
F17.0
sg15
F71.05263157894737
sg16
I637142
sg8
I00
sg17
S'4658.54761485'
p263
sg19
I0
sbasg24
I00
sg25
I00
sg26
I637067
sg17
S'4658.6267696'
p264
sba(igraph
Edge
p265
(dp266
g7
I1
sg8
I00
sg9
I5
sg10
(lp267
g261
a(igraph
Vertex
p268
(dp269
g14
F17.0
sg15
F86.84210526315789
sg16
I637144
sg8
I00
sg17
S'4658.54851105'
p270
sg19
g20
sbasg24
I00
sg25
I00
sg26
I637068
sg17
S'4658.62854609'
p271
sba(igraph
Edge
p272
(dp273
g7
I1
sg8
I00
sg9
I5
sg10
(lp274
g268
a(igraph
Vertex
p275
(dp276
g14
F17.0
sg15
F102.63157894736841
sg16
I637145
sg8
I00
sg17
S'4658.54942486'
p277
sg19
g20
sbasg24
I00
sg25
I00
sg26
I637069
sg17
S'4658.63033318'
p278
sba(igraph
Edge
p279
(dp280
g7
I1
sg8
I00
sg9
I5
sg10
(lp281
g275
a(igraph
Vertex
p282
(dp283
g14
F17.0
sg15
F118.4210526315789
sg16
I637146
sg8
I00
sg17
S'4658.55035961'
p284
sg19
g20
sbasg24
I00
sg25
I00
sg26
I637070
sg17
S'4658.63220242'
p285
sba(igraph
Edge
p286
(dp287
g7
I1
sg8
I00
sg9
I5
sg10
(lp288
g282
a(igraph
Vertex
p289
(dp290
g14
F17.0
sg15
F134.21052631578942
sg16
I637147
sg8
I00
sg17
S'4658.55130694'
p291
sg19
I0
sbasg24
I00
sg25
I00
sg26
I637071
sg17
S'4658.63416328'
p292
sba(igraph
Edge
p293
(dp294
g7
I1
sg8
I00
sg9
I5
sg10
(lp295
g289
a(igraph
Vertex
p296
(dp297
g14
F17.0
sg15
F149.99999999999994
sg16
I637149
sg8
I00
sg17
S'4658.55230539'
p298
sg19
g20
sbasg24
I00
sg25
I00
sg26
I637072
sg17
S'4658.63613476'
p299
sba(igraph
Edge
p300
(dp301
g7
I1
sg8
I00
sg9
I5
sg10
(lp302
g12
ag118
asg24
I00
sg25
I00
sg26
I637073
sg17
S'4658.69799877'
p303
sba(igraph
Edge
p304
(dp305
g7
I1
sg8
I00
sg9
I5
sg10
(lp306
g31
ag132
asg24
I00
sg25
I00
sg26
I637074
sg17
S'4658.70025492'
p307
sba(igraph
Edge
p308
(dp309
g7
I1
sg8
I00
sg9
I5
sg10
(lp310
g45
ag146
asg24
I00
sg25
I00
sg26
I637075
sg17
S'4658.7015143'
p311
sba(igraph
Edge
p312
(dp313
g7
I1
sg8
I00
sg9
I5
sg10
(lp314
g59
ag160
asg24
I00
sg25
I00
sg26
I637076
sg17
S'4658.70278988'
p315
sba(igraph
Edge
p316
(dp317
g7
I1
sg8
I00
sg9
I5
sg10
(lp318
g73
ag174
asg24
I00
sg25
I00
sg26
I637077
sg17
S'4658.70409675'
p319
sba(igraph
Edge
p320
(dp321
g7
I1
sg8
I00
sg9
I5
sg10
(lp322
g87
ag188
asg24
I00
sg25
I00
sg26
I637078
sg17
S'4658.70541396'
p323
sba(igraph
Edge
p324
(dp325
g7
I1
sg8
I00
sg9
I5
sg10
(lp326
g101
ag202
asg24
I00
sg25
I00
sg26
I637079
sg17
S'4658.70676245'
p327
sba(igraph
Edge
p328
(dp329
g7
I1
sg8
I00
sg9
I5
sg10
(lp330
g115
ag212
asg24
I00
sg25
I00
sg26
I637080
sg17
S'4658.71228131'
p331
sba(igraph
Edge
p332
(dp333
g7
I1
sg8
I00
sg9
I5
sg10
(lp334
g125
ag226
asg24
I00
sg25
I00
sg26
I637081
sg17
S'4658.71370412'
p335
sba(igraph
Edge
p336
(dp337
g7
I1
sg8
I00
sg9
I5
sg10
(lp338
g139
ag240
asg24
I00
sg25
I00
sg26
I637082
sg17
S'4658.71511128'
p339
sba(igraph
Edge
p340
(dp341
g7
I1
sg8
I00
sg9
I5
sg10
(lp342
g153
ag254
asg24
I00
sg25
I00
sg26
I637083
sg17
S'4658.71660029'
p343
sba(igraph
Edge
p344
(dp345
g7
I1
sg8
I00
sg9
I5
sg10
(lp346
g167
ag268
asg24
I00
sg25
I00
sg26
I637084
sg17
S'4658.71809127'
p347
sba(igraph
Edge
p348
(dp349
g7
I1
sg8
I00
sg9
I5
sg10
(lp350
g181
ag282
asg24
I00
sg25
I00
sg26
I637085
sg17
S'4658.71958'
p351
sba(igraph
Edge
p352
(dp353
g7
I1
sg8
I00
sg9
I5
sg10
(lp354
g195
ag296
asg24
I00
sg25
I00
sg26
I637086
sg17
S'4658.7211288'
p355
sba(igraph
Edge
p356
(dp357
g7
I1
sg8
I00
sg9
I5
sg10
(lp358
g209
a(igraph
Vertex
p359
(dp360
g14
F50.0
sg15
F-39.473684210526258
sg16
I637150
sg8
I00
sg17
S'4658.56096012'
p361
sg19
g20
sbasg24
I00
sg25
I00
sg26
I637087
sg17
S'4658.72728433'
p362
sba(igraph
Edge
p363
(dp364
g7
I1
sg8
I00
sg9
I5
sg10
(lp365
g219
a(igraph
Vertex
p366
(dp367
g14
F50.0
sg15
F-7.8947368421052033
sg16
I637151
sg8
I00
sg17
S'4658.5636532'
p368
sg19
g20
sbasg24
I00
sg25
I00
sg26
I637088
sg17
S'4658.72888621'
p369
sba(igraph
Edge
p370
(dp371
g7
I1
sg8
I00
sg9
I5
sg10
(lp372
g233
a(igraph
Vertex
p373
(dp374
g14
F50.0
sg15
F23.684210526315866
sg16
I637152
sg8
I00
sg17
S'4658.56612391'
p375
sg19
g20
sbasg24
I00
sg25
I00
sg26
I637089
sg17
S'4658.73043585'
p376
sba(igraph
Edge
p377
(dp378
g7
I1
sg8
I00
sg9
I5
sg10
(lp379
g247
a(igraph
Vertex
p380
(dp381
g14
F50.0
sg15
F55.263157894736878
sg16
I637153
sg8
I00
sg17
S'4658.56854656'
p382
sg19
g20
sbasg24
I00
sg25
I00
sg26
I637090
sg17
S'4658.73206036'
p383
sba(igraph
Edge
p384
(dp385
g7
I1
sg8
I00
sg9
I5
sg10
(lp386
g261
a(igraph
Vertex
p387
(dp388
g14
F50.0
sg15
F86.84210526315789
sg16
I637154
sg8
I00
sg17
S'4658.57109018'
p389
sg19
g20
sbasg24
I00
sg25
I00
sg26
I637091
sg17
S'4658.73370414'
p390
sba(igraph
Edge
p391
(dp392
g7
I1
sg8
I00
sg9
I5
sg10
(lp393
g275
a(igraph
Vertex
p394
(dp395
g14
F50.0
sg15
F118.4210526315789
sg16
I637155
sg8
I00
sg17
S'4658.57364972'
p396
sg19
g20
sbasg24
I00
sg25
I00
sg26
I637092
sg17
S'4658.73536413'
p397
sba(igraph
Edge
p398
(dp399
g7
I1
sg8
I00
sg9
I5
sg10
(lp400
g289
a(igraph
Vertex
p401
(dp402
g14
F50.0
sg15
F149.99999999999994
sg16
I637156
sg8
I00
sg17
S'4658.57634085'
p403
sg19
g20
sbasg24
I00
sg25
I00
sg26
I637093
sg17
S'4658.73698585'
p404
sba(igraph
Edge
p405
(dp406
g7
I1
sg8
I00
sg9
I5
sg10
(lp407
g209
ag296
asg24
I00
sg25
I00
sg26
I637094
sg17
S'5307.858206'
p408
sba(igraph
Edge
p409
(dp410
g7
I1
sg8
I00
sg9
I5
sg10
(lp411
g115
ag202
asg24
I00
sg25
I00
sg26
I637095
sg17
S'5311.4985561'
p412
sba(igraph
Edge
p413
(dp414
g7
I1
sg8
I00
sg9
I5
sg10
(lp415
g12
ag108
asg24
I00
sg25
I00
sg26
I637096
sg17
S'5314.10239709'
p416
sbasS'vertices'
p417
(lp418
g12
ag21
ag31
ag38
ag45
ag52
ag59
ag66
ag73
ag80
ag87
ag94
ag101
ag108
ag115
ag118
ag125
ag132
ag139
ag146
ag153
ag160
ag167
ag174
ag181
ag188
ag195
ag202
ag209
ag212
ag219
ag226
ag233
ag240
ag247
ag254
ag261
ag268
ag275
ag282
ag289
ag296
ag359
ag366
ag373
ag380
ag387
ag394
ag401
asS'tags'
p419
(lp420
sb.