(igraph
Graph
p0
(dp1
S'labelingConstraints'
p2
I-1
sS'edges'
p3
(lp4
(igraph
Edge
p5
(dp6
S'direction'
p7
I1
sS'selected'
p8
I00
sS'height'
p9
I5
sS'vs'
p10
(lp11
(igraph
Vertex
p12
(dp13
S'y'
p14
F-49.0
sS'x'
p15
F-86.842105263157833
sS'circle'
p16
I631721
sg8
I00
sS'id'
p17
S'4658.52253094'
p18
sS'label'
p19
S'NULL'
p20
sba(igraph
Vertex
p21
(dp22
g14
F-49.0
sg15
F-71.052631578947313
sg16
I631722
sg8
I00
sg17
S'4658.52261558'
p23
sg19
g20
sbasS'wrap'
p24
I00
sS'curved'
p25
I00
sS'line'
p26
I631649
sg17
S'4658.57829082'
p27
sba(igraph
Edge
p28
(dp29
g7
I1
sg8
I00
sg9
I5
sg10
(lp30
g21
a(igraph
Vertex
p31
(dp32
g14
F-49.0
sg15
F-55.263157894736793
sg16
I631723
sg8
I00
sg17
S'4658.52271699'
p33
sg19
g20
sbasg24
I00
sg25
I00
sg26
I631650
sg17
S'4658.57850788'
p34
sba(igraph
Edge
p35
(dp36
g7
I1
sg8
I00
sg9
I5
sg10
(lp37
g31
a(igraph
Vertex
p38
(dp39
g14
F-49.0
sg15
F-39.473684210526258
sg16
I631724
sg8
I00
sg17
S'4658.52283097'
p40
sg19
g20
sbasg24
I00
sg25
I00
sg26
I631651
sg17
S'4658.57879451'
p41
sba(igraph
Edge
p42
(dp43
g7
I1
sg8
I00
sg9
I5
sg10
(lp44
g38
a(igraph
Vertex
p45
(dp46
g14
F-49.0
sg15
F-23.684210526315738
sg16
I631725
sg8
I00
sg17
S'4658.5229592'
p47
sg19
g20
sbasg24
I00
sg25
I00
sg26
I631652
sg17
S'4658.57907583'
p48
sba(igraph
Edge
p49
(dp50
g7
I1
sg8
I00
sg9
I5
sg10
(lp51
g45
a(igraph
Vertex
p52
(dp53
g14
F-49.0
sg15
F-7.8947368421052033
sg16
I631726
sg8
I00
sg17
S'4658.52315196'
p54
sg19
g20
sbasg24
I00
sg25
I00
sg26
I631653
sg17
S'4658.57938705'
p55
sba(igraph
Edge
p56
(dp57
g7
I1
sg8
I00
sg9
I5
sg10
(lp58
g52
a(igraph
Vertex
p59
(dp60
g14
F-49.0
sg15
F7.894736842105317
sg16
I631727
sg8
I00
sg17
S'4658.5233207'
p61
sg19
g20
sbasg24
I00
sg25
I00
sg26
I631654
sg17
S'4658.57973066'
p62
sba(igraph
Edge
p63
(dp64
g7
I1
sg8
I00
sg9
I5
sg10
(lp65
g59
a(igraph
Vertex
p66
(dp67
g14
F-49.0
sg15
F23.684210526315866
sg16
I631728
sg8
I00
sg17
S'4658.52350061'
p68
sg19
g20
sbasg24
I00
sg25
I00
sg26
I631655
sg17
S'4658.5801011'
p69
sba(igraph
Edge
p70
(dp71
g7
I1
sg8
I00
sg9
I5
sg10
(lp72
g66
a(igraph
Vertex
p73
(dp74
g14
F-49.0
sg15
F39.473684210526358
sg16
I631729
sg8
I00
sg17
S'4658.52369756'
p75
sg19
g20
sbasg24
I00
sg25
I00
sg26
I631656
sg17
S'4658.58050562'
p76
sba(igraph
Edge
p77
(dp78
g7
I1
sg8
I00
sg9
I5
sg10
(lp79
g73
a(igraph
Vertex
p80
(dp81
g14
F-49.0
sg15
F55.263157894736878
sg16
I631730
sg8
I00
sg17
S'4658.52391659'
p82
sg19
g20
sbasg24
I00
sg25
I00
sg26
I631657
sg17
S'4658.58094451'
p83
sba(igraph
Edge
p84
(dp85
g7
I1
sg8
I00
sg9
I5
sg10
(lp86
g80
a(igraph
Vertex
p87
(dp88
g14
F-49.0
sg15
F71.05263157894737
sg16
I631731
sg8
I00
sg17
S'4658.52420126'
p89
sg19
g20
sbasg24
I00
sg25
I00
sg26
I631658
sg17
S'4658.58141049'
p90
sba(igraph
Edge
p91
(dp92
g7
I1
sg8
I00
sg9
I5
sg10
(lp93
g87
a(igraph
Vertex
p94
(dp95
g14
F-49.0
sg15
F86.84210526315789
sg16
I631732
sg8
I00
sg17
S'4658.52444347'
p96
sg19
g20
sbasg24
I00
sg25
I00
sg26
I631659
sg17
S'4658.58190887'
p97
sba(igraph
Edge
p98
(dp99
g7
I1
sg8
I00
sg9
I5
sg10
(lp100
g94
a(igraph
Vertex
p101
(dp102
g14
F-49.0
sg15
F102.63157894736841
sg16
I631733
sg8
I00
sg17
S'4658.52469713'
p103
sg19
g20
sbasg24
I00
sg25
I00
sg26
I631660
sg17
S'4658.58243743'
p104
sba(igraph
Edge
p105
(dp106
g7
I1
sg8
I00
sg9
I5
sg10
(lp107
g101
a(igraph
Vertex
p108
(dp109
g14
F-49.0
sg15
F118.4210526315789
sg16
I631734
sg8
I00
sg17
S'4658.52511143'
p110
sg19
g20
sbasg24
I00
sg25
I00
sg26
I631661
sg17
S'4658.58299477'
p111
sba(igraph
Edge
p112
(dp113
g7
I1
sg8
I00
sg9
I5
sg10
(lp114
g108
a(igraph
Vertex
p115
(dp116
g14
F-49.0
sg15
F134.21052631578942
sg16
I631735
sg8
I00
sg17
S'4658.52541147'
p117
sg19
I0
sbasg24
I00
sg25
I00
sg26
I631662
sg17
S'4658.58357696'
p118
sba(igraph
Edge
p119
(dp120
g7
I1
sg8
I00
sg9
I5
sg10
(lp121
g115
a(igraph
Vertex
p122
(dp123
g14
F-49.0
sg15
F149.99999999999994
sg16
I631737
sg8
I00
sg17
S'4658.52571765'
p124
sg19
g20
sbasg24
I00
sg25
I00
sg26
I631663
sg17
S'4658.58419687'
p125
sba(igraph
Edge
p126
(dp127
g7
I1
sg8
I00
sg9
I5
sg10
(lp128
(igraph
Vertex
p129
(dp130
g14
F-16.0
sg15
F-86.842105263157833
sg16
I631738
sg8
I00
sg17
S'4658.52755979'
p131
sg19
I0
sba(igraph
Vertex
p132
(dp133
g14
F-16.0
sg15
F-71.052631578947313
sg16
I631740
sg8
I00
sg17
S'4658.52806181'
p134
sg19
g20
sbasg24
I00
sg25
I00
sg26
I631664
sg17
S'4658.58865666'
p135
sba(igraph
Edge
p136
(dp137
g7
I1
sg8
I00
sg9
I5
sg10
(lp138
g132
a(igraph
Vertex
p139
(dp140
g14
F-16.0
sg15
F-55.263157894736793
sg16
I631741
sg8
I00
sg17
S'4658.52849287'
p141
sg19
I0
sbasg24
I00
sg25
I00
sg26
I631665
sg17
S'4658.58950788'
p142
sba(igraph
Edge
p143
(dp144
g7
I1
sg8
I00
sg9
I5
sg10
(lp145
g139
a(igraph
Vertex
p146
(dp147
g14
F-16.0
sg15
F-39.473684210526258
sg16
I631743
sg8
I00
sg17
S'4658.52893734'
p148
sg19
g20
sbasg24
I00
sg25
I00
sg26
I631666
sg17
S'4658.59042839'
p149
sba(igraph
Edge
p150
(dp151
g7
I1
sg8
I00
sg9
I5
sg10
(lp152
g146
a(igraph
Vertex
p153
(dp154
g14
F-16.0
sg15
F-23.684210526315738
sg16
I631744
sg8
I00
sg17
S'4658.52939214'
p155
sg19
I0
sbasg24
I00
sg25
I00
sg26
I631667
sg17
S'4658.59134192'
p156
sba(igraph
Edge
p157
(dp158
g7
I1
sg8
I00
sg9
I5
sg10
(lp159
g153
a(igraph
Vertex
p160
(dp161
g14
F-16.0
sg15
F-7.8947368421052033
sg16
I631746
sg8
I00
sg17
S'4658.52986008'
p162
sg19
g20
sbasg24
I00
sg25
I00
sg26
I631668
sg17
S'4658.59227416'
p163
sba(igraph
Edge
p164
(dp165
g7
I1
sg8
I00
sg9
I5
sg10
(lp166
g160
a(igraph
Vertex
p167
(dp168
g14
F-16.0
sg15
F7.894736842105317
sg16
I631747
sg8
I00
sg17
S'4658.53034673'
p169
sg19
I0
sbasg24
I00
sg25
I00
sg26
I631669
sg17
S'4658.59323573'
p170
sba(igraph
Edge
p171
(dp172
g7
I1
sg8
I00
sg9
I5
sg10
(lp173
g167
a(igraph
Vertex
p174
(dp175
g14
F-16.0
sg15
F23.684210526315866
sg16
I631749
sg8
I00
sg17
S'4658.53087222'
p176
sg19
g20
sbasg24
I00
sg25
I00
sg26
I631670
sg17
S'4658.59423474'
p177
sba(igraph
Edge
p178
(dp179
g7
I1
sg8
I00
sg9
I5
sg10
(lp180
g174
a(igraph
Vertex
p181
(dp182
g14
F-16.0
sg15
F39.473684210526358
sg16
I631750
sg8
I00
sg17
S'4658.53140106'
p183
sg19
I0
sbasg24
I00
sg25
I00
sg26
I631671
sg17
S'4658.59526085'
p184
sba(igraph
Edge
p185
(dp186
g7
I1
sg8
I00
sg9
I5
sg10
(lp187
g181
a(igraph
Vertex
p188
(dp189
g14
F-16.0
sg15
F55.263157894736878
sg16
I631752
sg8
I00
sg17
S'4658.53193884'
p190
sg19
g20
sbasg24
I00
sg25
I00
sg26
I631672
sg17
S'4658.5963297'
p191
sba(igraph
Edge
p192
(dp193
g7
I1
sg8
I00
sg9
I5
sg10
(lp194
g188
a(igraph
Vertex
p195
(dp196
g14
F-16.0
sg15
F71.05263157894737
sg16
I631753
sg8
I00
sg17
S'4658.53248639'
p197
sg19
I0
sbasg24
I00
sg25
I00
sg26
I631673
sg17
S'4658.59741727'
p198
sba(igraph
Edge
p199
(dp200
g7
I1
sg8
I00
sg9
I5
sg10
(lp201
g195
a(igraph
Vertex
p202
(dp203
g14
F-16.0
sg15
F86.84210526315789
sg16
I631755
sg8
I00
sg17
S'4658.53305434'
p204
sg19
g20
sbasg24
I00
sg25
I00
sg26
I631674
sg17
S'4658.59853389'
p205
sba(igraph
Edge
p206
(dp207
g7
I1
sg8
I00
sg9
I5
sg10
(lp208
g202
a(igraph
Vertex
p209
(dp210
g14
F-16.0
sg15
F102.63157894736841
sg16
I631756
sg8
I00
sg17
S'4658.5336371'
p211
sg19
I0
sbasg24
I00
sg25
I00
sg26
I631675
sg17
S'4658.59968879'
p212
sba(igraph
Edge
p213
(dp214
g7
I1
sg8
I00
sg9
I5
sg10
(lp215
g209
a(igraph
Vertex
p216
(dp217
g14
F-16.0
sg15
F118.4210526315789
sg16
I631758
sg8
I00
sg17
S'4658.53426762'
p218
sg19
g20
sbasg24
I00
sg25
I00
sg26
I631676
sg17
S'4658.60088503'
p219
sba(igraph
Edge
p220
(dp221
g7
I1
sg8
I00
sg9
I5
sg10
(lp222
g216
a(igraph
Vertex
p223
(dp224
g14
F-16.0
sg15
F134.21052631578942
sg16
I631759
sg8
I00
sg17
S'4658.53488865'
p225
sg19
g20
sbasg24
I00
sg25
I00
sg26
I631677
sg17
S'4658.60211871'
p226
sba(igraph
Edge
p227
(dp228
g7
I1
sg8
I00
sg9
I5
sg10
(lp229
g223
a(igraph
Vertex
p230
(dp231
g14
F-16.0
sg15
F149.99999999999994
sg16
I631760
sg8
I00
sg17
S'4658.53552421'
p232
sg19
g20
sbasg24
I00
sg25
I00
sg26
I631678
sg17
S'4658.60361582'
p233
sba(igraph
Edge
p234
(dp235
g7
I1
sg8
I00
sg9
I5
sg10
(lp236
(igraph
Vertex
p237
(dp238
g14
F17.0
sg15
F-86.842105263157833
sg16
I631761
sg8
I00
sg17
S'4658.53893889'
p239
sg19
g20
sba(igraph
Vertex
p240
(dp241
g14
F17.0
sg15
F-71.052631578947313
sg16
I631762
sg8
I00
sg17
S'4658.53967613'
p242
sg19
g20
sbasg24
I00
sg25
I00
sg26
I631679
sg17
S'4658.61186994'
p243
sba(igraph
Edge
p244
(dp245
g7
I1
sg8
I00
sg9
I5
sg10
(lp246
g240
a(igraph
Vertex
p247
(dp248
g14
F17.0
sg15
F-55.263157894736793
sg16
I631763
sg8
I00
sg17
S'4658.54042483'
p249
sg19
I0
sbasg24
I00
sg25
I00
sg26
I631680
sg17
S'4658.61335756'
p250
sba(igraph
Edge
p251
(dp252
g7
I1
sg8
I00
sg9
I5
sg10
(lp253
g247
a(igraph
Vertex
p254
(dp255
g14
F17.0
sg15
F-39.473684210526258
sg16
I631765
sg8
I00
sg17
S'4658.54135456'
p256
sg19
g20
sbasg24
I00
sg25
I00
sg26
I631681
sg17
S'4658.61488401'
p257
sba(igraph
Edge
p258
(dp259
g7
I1
sg8
I00
sg9
I5
sg10
(lp260
g254
a(igraph
Vertex
p261
(dp262
g14
F17.0
sg15
F-23.684210526315738
sg16
I631766
sg8
I00
sg17
S'4658.54219601'
p263
sg19
g20
sbasg24
I00
sg25
I00
sg26
I631682
sg17
S'4658.61641633'
p264
sba(igraph
Edge
p265
(dp266
g7
I1
sg8
I00
sg9
I5
sg10
(lp267
g261
a(igraph
Vertex
p268
(dp269
g14
F17.0
sg15
F-7.8947368421052033
sg16
I631767
sg8
I00
sg17
S'4658.5430598'
p270
sg19
g20
sbasg24
I00
sg25
I00
sg26
I631683
sg17
S'4658.61816236'
p271
sba(igraph
Edge
p272
(dp273
g7
I1
sg8
I00
sg9
I5
sg10
(lp274
g268
a(igraph
Vertex
p275
(dp276
g14
F17.0
sg15
F7.894736842105317
sg16
I631768
sg8
I00
sg17
S'4658.54405797'
p277
sg19
I0
sbasg24
I00
sg25
I00
sg26
I631684
sg17
S'4658.6197905'
p278
sba(igraph
Edge
p279
(dp280
g7
I1
sg8
I00
sg9
I5
sg10
(lp281
g275
a(igraph
Vertex
p282
(dp283
g14
F17.0
sg15
F23.684210526315866
sg16
I631770
sg8
I00
sg17
S'4658.54491283'
p284
sg19
g20
sbasg24
I00
sg25
I00
sg26
I631685
sg17
S'4658.62143485'
p285
sba(igraph
Edge
p286
(dp287
g7
I1
sg8
I00
sg9
I5
sg10
(lp288
g282
a(igraph
Vertex
p289
(dp290
g14
F17.0
sg15
F39.473684210526358
sg16
I631771
sg8
I00
sg17
S'4658.54585457'
p291
sg19
g20
sbasg24
I00
sg25
I00
sg26
I631686
sg17
S'4658.62315937'
p292
sba(igraph
Edge
p293
(dp294
g7
I1
sg8
I00
sg9
I5
sg10
(lp295
g289
a(igraph
Vertex
p296
(dp297
g14
F17.0
sg15
F55.263157894736878
sg16
I631772
sg8
I00
sg17
S'4658.54673178'
p298
sg19
g20
sbasg24
I00
sg25
I00
sg26
I631687
sg17
S'4658.62501463'
p299
sba(igraph
Edge
p300
(dp301
g7
I1
sg8
I00
sg9
I5
sg10
(lp302
g296
a(igraph
Vertex
p303
(dp304
g14
F17.0
sg15
F71.05263157894737
sg16
I631773
sg8
I00
sg17
S'4658.54761485'
p305
sg19
I0
sbasg24
I00
sg25
I00
sg26
I631688
sg17
S'4658.6267696'
p306
sba(igraph
Edge
p307
(dp308
g7
I1
sg8
I00
sg9
I5
sg10
(lp309
g303
a(igraph
Vertex
p310
(dp311
g14
F17.0
sg15
F86.84210526315789
sg16
I631775
sg8
I00
sg17
S'4658.54851105'
p312
sg19
g20
sbasg24
I00
sg25
I00
sg26
I631689
sg17
S'4658.62854609'
p313
sba(igraph
Edge
p314
(dp315
g7
I1
sg8
I00
sg9
I5
sg10
(lp316
g310
a(igraph
Vertex
p317
(dp318
g14
F17.0
sg15
F102.63157894736841
sg16
I631776
sg8
I00
sg17
S'4658.54942486'
p319
sg19
g20
sbasg24
I00
sg25
I00
sg26
I631690
sg17
S'4658.63033318'
p320
sba(igraph
Edge
p321
(dp322
g7
I1
sg8
I00
sg9
I5
sg10
(lp323
g317
a(igraph
Vertex
p324
(dp325
g14
F17.0
sg15
F118.4210526315789
sg16
I631777
sg8
I00
sg17
S'4658.55035961'
p326
sg19
g20
sbasg24
I00
sg25
I00
sg26
I631691
sg17
S'4658.63220242'
p327
sba(igraph
Edge
p328
(dp329
g7
I1
sg8
I00
sg9
I5
sg10
(lp330
g324
a(igraph
Vertex
p331
(dp332
g14
F17.0
sg15
F134.21052631578942
sg16
I631778
sg8
I00
sg17
S'4658.55130694'
p333
sg19
I0
sbasg24
I00
sg25
I00
sg26
I631692
sg17
S'4658.63416328'
p334
sba(igraph
Edge
p335
(dp336
g7
I1
sg8
I00
sg9
I5
sg10
(lp337
g331
a(igraph
Vertex
p338
(dp339
g14
F17.0
sg15
F149.99999999999994
sg16
I631780
sg8
I00
sg17
S'4658.55230539'
p340
sg19
g20
sbasg24
I00
sg25
I00
sg26
I631693
sg17
S'4658.63613476'
p341
sba(igraph
Edge
p342
(dp343
g7
I1
sg8
I00
sg9
I5
sg10
(lp344
g12
ag132
asg24
I00
sg25
I00
sg26
I631694
sg17
S'4658.6950361'
p345
sba(igraph
Edge
p346
(dp347
g7
I1
sg8
I00
sg9
I5
sg10
(lp348
g31
ag146
asg24
I00
sg25
I00
sg26
I631695
sg17
S'4658.69799877'
p349
sba(igraph
Edge
p350
(dp351
g7
I1
sg8
I00
sg9
I5
sg10
(lp352
g45
ag160
asg24
I00
sg25
I00
sg26
I631696
sg17
S'4658.70025492'
p353
sba(igraph
Edge
p354
(dp355
g7
I1
sg8
I00
sg9
I5
sg10
(lp356
g59
ag174
asg24
I00
sg25
I00
sg26
I631697
sg17
S'4658.7015143'
p357
sba(igraph
Edge
p358
(dp359
g7
I1
sg8
I00
sg9
I5
sg10
(lp360
g73
ag188
asg24
I00
sg25
I00
sg26
I631698
sg17
S'4658.70278988'
p361
sba(igraph
Edge
p362
(dp363
g7
I1
sg8
I00
sg9
I5
sg10
(lp364
g87
ag202
asg24
I00
sg25
I00
sg26
I631699
sg17
S'4658.70409675'
p365
sba(igraph
Edge
p366
(dp367
g7
I1
sg8
I00
sg9
I5
sg10
(lp368
g101
ag216
asg24
I00
sg25
I00
sg26
I631700
sg17
S'4658.70541396'
p369
sba(igraph
Edge
p370
(dp371
g7
I1
sg8
I00
sg9
I5
sg10
(lp372
g115
ag230
asg24
I00
sg25
I00
sg26
I631701
sg17
S'4658.70676245'
p373
sba(igraph
Edge
p374
(dp375
g7
I1
sg8
I00
sg9
I5
sg10
(lp376
g129
ag240
asg24
I00
sg25
I00
sg26
I631702
sg17
S'4658.7108884'
p377
sba(igraph
Edge
p378
(dp379
g7
I1
sg8
I00
sg9
I5
sg10
(lp380
g139
ag254
asg24
I00
sg25
I00
sg26
I631703
sg17
S'4658.71228131'
p381
sba(igraph
Edge
p382
(dp383
g7
I1
sg8
I00
sg9
I5
sg10
(lp384
g153
ag268
asg24
I00
sg25
I00
sg26
I631704
sg17
S'4658.71370412'
p385
sba(igraph
Edge
p386
(dp387
g7
I1
sg8
I00
sg9
I5
sg10
(lp388
g167
ag282
asg24
I00
sg25
I00
sg26
I631705
sg17
S'4658.71511128'
p389
sba(igraph
Edge
p390
(dp391
g7
I1
sg8
I00
sg9
I5
sg10
(lp392
g181
ag296
asg24
I00
sg25
I00
sg26
I631706
sg17
S'4658.71660029'
p393
sba(igraph
Edge
p394
(dp395
g7
I1
sg8
I00
sg9
I5
sg10
(lp396
g195
ag310
asg24
I00
sg25
I00
sg26
I631707
sg17
S'4658.71809127'
p397
sba(igraph
Edge
p398
(dp399
g7
I1
sg8
I00
sg9
I5
sg10
(lp400
g209
ag324
asg24
I00
sg25
I00
sg26
I631708
sg17
S'4658.71958'
p401
sba(igraph
Edge
p402
(dp403
g7
I1
sg8
I00
sg9
I5
sg10
(lp404
g223
ag338
asg24
I00
sg25
I00
sg26
I631709
sg17
S'4658.7211288'
p405
sba(igraph
Edge
p406
(dp407
g7
I1
sg8
I00
sg9
I5
sg10
(lp408
g237
a(igraph
Vertex
p409
(dp410
g14
F50.0
sg15
F-71.052631578947313
sg16
I631781
sg8
I00
sg17
S'4658.55873638'
p411
sg19
g20
sbasg24
I00
sg25
I00
sg26
I631710
sg17
S'4658.72572659'
p412
sba(igraph
Edge
p413
(dp414
g7
I1
sg8
I00
sg9
I5
sg10
(lp415
g247
a(igraph
Vertex
p416
(dp417
g14
F50.0
sg15
F-39.473684210526258
sg16
I631782
sg8
I00
sg17
S'4658.56096012'
p418
sg19
g20
sbasg24
I00
sg25
I00
sg26
I631711
sg17
S'4658.72728433'
p419
sba(igraph
Edge
p420
(dp421
g7
I1
sg8
I00
sg9
I5
sg10
(lp422
g261
a(igraph
Vertex
p423
(dp424
g14
F50.0
sg15
F-7.8947368421052033
sg16
I631783
sg8
I00
sg17
S'4658.5636532'
p425
sg19
g20
sbasg24
I00
sg25
I00
sg26
I631712
sg17
S'4658.72888621'
p426
sba(igraph
Edge
p427
(dp428
g7
I1
sg8
I00
sg9
I5
sg10
(lp429
g275
a(igraph
Vertex
p430
(dp431
g14
F50.0
sg15
F23.684210526315866
sg16
I631784
sg8
I00
sg17
S'4658.56612391'
p432
sg19
g20
sbasg24
I00
sg25
I00
sg26
I631713
sg17
S'4658.73043585'
p433
sba(igraph
Edge
p434
(dp435
g7
I1
sg8
I00
sg9
I5
sg10
(lp436
g289
a(igraph
Vertex
p437
(dp438
g14
F50.0
sg15
F55.263157894736878
sg16
I631785
sg8
I00
sg17
S'4658.56854656'
p439
sg19
g20
sbasg24
I00
sg25
I00
sg26
I631714
sg17
S'4658.73206036'
p440
sba(igraph
Edge
p441
(dp442
g7
I1
sg8
I00
sg9
I5
sg10
(lp443
g303
a(igraph
Vertex
p444
(dp445
g14
F50.0
sg15
F86.84210526315789
sg16
I631786
sg8
I00
sg17
S'4658.57109018'
p446
sg19
g20
sbasg24
I00
sg25
I00
sg26
I631715
sg17
S'4658.73370414'
p447
sba(igraph
Edge
p448
(dp449
g7
I1
sg8
I00
sg9
I5
sg10
(lp450
g317
a(igraph
Vertex
p451
(dp452
g14
F50.0
sg15
F118.4210526315789
sg16
I631787
sg8
I00
sg17
S'4658.57364972'
p453
sg19
g20
sbasg24
I00
sg25
I00
sg26
I631716
sg17
S'4658.73536413'
p454
sba(igraph
Edge
p455
(dp456
g7
I1
sg8
I00
sg9
I5
sg10
(lp457
g331
a(igraph
Vertex
p458
(dp459
g14
F50.0
sg15
F149.99999999999994
sg16
I631788
sg8
I00
sg17
S'4658.57634085'
p460
sg19
g20
sbasg24
I00
sg25
I00
sg26
I631717
sg17
S'4658.73698585'
p461
sba(igraph
Edge
p462
(dp463
g7
I1
sg8
I00
sg9
I5
sg10
(lp464
g237
ag338
asg24
I00
sg25
I00
sg26
I631718
sg17
S'5267.76510869'
p465
sba(igraph
Edge
p466
(dp467
g7
I1
sg8
I00
sg9
I5
sg10
(lp468
g129
ag230
asg24
I00
sg25
I00
sg26
I631719
sg17
S'5271.42389829'
p469
sba(igraph
Edge
p470
(dp471
g7
I1
sg8
I00
sg9
I5
sg10
(lp472
g12
ag122
asg24
I00
sg25
I00
sg26
I631720
sg17
S'5274.63593976'
p473
sbasS'vertices'
p474
(lp475
g12
ag21
ag31
ag38
ag45
ag52
ag59
ag66
ag73
ag80
ag87
ag94
ag101
ag108
ag115
ag122
ag129
ag132
ag139
ag146
ag153
ag160
ag167
ag174
ag181
ag188
ag195
ag202
ag209
ag216
ag223
ag230
ag237
ag240
ag247
ag254
ag261
ag268
ag275
ag282
ag289
ag296
ag303
ag310
ag317
ag324
ag331
ag338
ag409
ag416
ag423
ag430
ag437
ag444
ag451
ag458
asS'tags'
p476
(lp477
sb.