(igraph
Graph
p0
(dp1
S'labelingConstraints'
p2
I-1
sS'edges'
p3
(lp4
(igraph
Edge
p5
(dp6
S'direction'
p7
I1
sS'selected'
p8
I00
sS'height'
p9
I5
sS'vs'
p10
(lp11
(igraph
Vertex
p12
(dp13
S'y'
p14
F-49.0
sS'x'
p15
F-118.42105263157889
sS'circle'
p16
I627361
sg8
I00
sS'id'
p17
S'4658.52240857'
p18
sS'label'
p19
S'NULL'
p20
sba(igraph
Vertex
p21
(dp22
g14
F-49.0
sg15
F-102.63157894736837
sg16
I627362
sg8
I00
sg17
S'4658.52246305'
p23
sg19
g20
sbasS'wrap'
p24
I00
sS'curved'
p25
I00
sS'line'
p26
I627280
sg17
S'4658.57795251'
p27
sba(igraph
Edge
p28
(dp29
g7
I1
sg8
I00
sg9
I5
sg10
(lp30
g21
a(igraph
Vertex
p31
(dp32
g14
F-49.0
sg15
F-86.842105263157833
sg16
I627363
sg8
I00
sg17
S'4658.52253094'
p33
sg19
g20
sbasg24
I00
sg25
I00
sg26
I627281
sg17
S'4658.57810727'
p34
sba(igraph
Edge
p35
(dp36
g7
I1
sg8
I00
sg9
I5
sg10
(lp37
g31
a(igraph
Vertex
p38
(dp39
g14
F-49.0
sg15
F-71.052631578947313
sg16
I627364
sg8
I00
sg17
S'4658.52261558'
p40
sg19
g20
sbasg24
I00
sg25
I00
sg26
I627282
sg17
S'4658.57829082'
p41
sba(igraph
Edge
p42
(dp43
g7
I1
sg8
I00
sg9
I5
sg10
(lp44
g38
a(igraph
Vertex
p45
(dp46
g14
F-49.0
sg15
F-55.263157894736793
sg16
I627365
sg8
I00
sg17
S'4658.52271699'
p47
sg19
g20
sbasg24
I00
sg25
I00
sg26
I627283
sg17
S'4658.57850788'
p48
sba(igraph
Edge
p49
(dp50
g7
I1
sg8
I00
sg9
I5
sg10
(lp51
g45
a(igraph
Vertex
p52
(dp53
g14
F-49.0
sg15
F-39.473684210526258
sg16
I627366
sg8
I00
sg17
S'4658.52283097'
p54
sg19
g20
sbasg24
I00
sg25
I00
sg26
I627284
sg17
S'4658.57879451'
p55
sba(igraph
Edge
p56
(dp57
g7
I1
sg8
I00
sg9
I5
sg10
(lp58
g52
a(igraph
Vertex
p59
(dp60
g14
F-49.0
sg15
F-23.684210526315738
sg16
I627367
sg8
I00
sg17
S'4658.5229592'
p61
sg19
g20
sbasg24
I00
sg25
I00
sg26
I627285
sg17
S'4658.57907583'
p62
sba(igraph
Edge
p63
(dp64
g7
I1
sg8
I00
sg9
I5
sg10
(lp65
g59
a(igraph
Vertex
p66
(dp67
g14
F-49.0
sg15
F-7.8947368421052033
sg16
I627368
sg8
I00
sg17
S'4658.52315196'
p68
sg19
g20
sbasg24
I00
sg25
I00
sg26
I627286
sg17
S'4658.57938705'
p69
sba(igraph
Edge
p70
(dp71
g7
I1
sg8
I00
sg9
I5
sg10
(lp72
g66
a(igraph
Vertex
p73
(dp74
g14
F-49.0
sg15
F7.894736842105317
sg16
I627369
sg8
I00
sg17
S'4658.5233207'
p75
sg19
g20
sbasg24
I00
sg25
I00
sg26
I627287
sg17
S'4658.57973066'
p76
sba(igraph
Edge
p77
(dp78
g7
I1
sg8
I00
sg9
I5
sg10
(lp79
g73
a(igraph
Vertex
p80
(dp81
g14
F-49.0
sg15
F23.684210526315866
sg16
I627370
sg8
I00
sg17
S'4658.52350061'
p82
sg19
g20
sbasg24
I00
sg25
I00
sg26
I627288
sg17
S'4658.5801011'
p83
sba(igraph
Edge
p84
(dp85
g7
I1
sg8
I00
sg9
I5
sg10
(lp86
g80
a(igraph
Vertex
p87
(dp88
g14
F-49.0
sg15
F39.473684210526358
sg16
I627371
sg8
I00
sg17
S'4658.52369756'
p89
sg19
g20
sbasg24
I00
sg25
I00
sg26
I627289
sg17
S'4658.58050562'
p90
sba(igraph
Edge
p91
(dp92
g7
I1
sg8
I00
sg9
I5
sg10
(lp93
g87
a(igraph
Vertex
p94
(dp95
g14
F-49.0
sg15
F55.263157894736878
sg16
I627372
sg8
I00
sg17
S'4658.52391659'
p96
sg19
g20
sbasg24
I00
sg25
I00
sg26
I627290
sg17
S'4658.58094451'
p97
sba(igraph
Edge
p98
(dp99
g7
I1
sg8
I00
sg9
I5
sg10
(lp100
g94
a(igraph
Vertex
p101
(dp102
g14
F-49.0
sg15
F71.05263157894737
sg16
I627373
sg8
I00
sg17
S'4658.52420126'
p103
sg19
g20
sbasg24
I00
sg25
I00
sg26
I627291
sg17
S'4658.58141049'
p104
sba(igraph
Edge
p105
(dp106
g7
I1
sg8
I00
sg9
I5
sg10
(lp107
g101
a(igraph
Vertex
p108
(dp109
g14
F-49.0
sg15
F86.84210526315789
sg16
I627374
sg8
I00
sg17
S'4658.52444347'
p110
sg19
g20
sbasg24
I00
sg25
I00
sg26
I627292
sg17
S'4658.58190887'
p111
sba(igraph
Edge
p112
(dp113
g7
I1
sg8
I00
sg9
I5
sg10
(lp114
g108
a(igraph
Vertex
p115
(dp116
g14
F-49.0
sg15
F102.63157894736841
sg16
I627375
sg8
I00
sg17
S'4658.52469713'
p117
sg19
g20
sbasg24
I00
sg25
I00
sg26
I627293
sg17
S'4658.58243743'
p118
sba(igraph
Edge
p119
(dp120
g7
I1
sg8
I00
sg9
I5
sg10
(lp121
g115
a(igraph
Vertex
p122
(dp123
g14
F-49.0
sg15
F118.4210526315789
sg16
I627376
sg8
I00
sg17
S'4658.52511143'
p124
sg19
g20
sbasg24
I00
sg25
I00
sg26
I627294
sg17
S'4658.58299477'
p125
sba(igraph
Edge
p126
(dp127
g7
I1
sg8
I00
sg9
I5
sg10
(lp128
g122
a(igraph
Vertex
p129
(dp130
g14
F-49.0
sg15
F134.21052631578942
sg16
I627378
sg8
I01
sg17
S'4658.52541147'
p131
sg19
I0
sbasg24
I00
sg25
I00
sg26
I627295
sg17
S'4658.58357696'
p132
sba(igraph
Edge
p133
(dp134
g7
I1
sg8
I00
sg9
I5
sg10
(lp135
g129
a(igraph
Vertex
p136
(dp137
g14
F-49.0
sg15
F149.99999999999994
sg16
I627380
sg8
I00
sg17
S'4658.52571765'
p138
sg19
g20
sbasg24
I00
sg25
I00
sg26
I627296
sg17
S'4658.58419687'
p139
sba(igraph
Edge
p140
(dp141
g7
I1
sg8
I00
sg9
I5
sg10
(lp142
(igraph
Vertex
p143
(dp144
g14
F-16.0
sg15
F-118.42105263157889
sg16
I627382
sg8
I01
sg17
S'4658.52679489'
p145
sg19
I0
sba(igraph
Vertex
p146
(dp147
g14
F-16.0
sg15
F-102.63157894736837
sg16
I627384
sg8
I00
sg17
S'4658.52717762'
p148
sg19
g20
sbasg24
I00
sg25
I00
sg26
I627297
sg17
S'4658.58703271'
p149
sba(igraph
Edge
p150
(dp151
g7
I1
sg8
I00
sg9
I5
sg10
(lp152
g146
a(igraph
Vertex
p153
(dp154
g14
F-16.0
sg15
F-86.842105263157833
sg16
I627386
sg8
I01
sg17
S'4658.52755979'
p155
sg19
I0
sbasg24
I00
sg25
I00
sg26
I627298
sg17
S'4658.58784203'
p156
sba(igraph
Edge
p157
(dp158
g7
I1
sg8
I00
sg9
I5
sg10
(lp159
g153
a(igraph
Vertex
p160
(dp161
g14
F-16.0
sg15
F-71.052631578947313
sg16
I627388
sg8
I00
sg17
S'4658.52806181'
p162
sg19
g20
sbasg24
I00
sg25
I00
sg26
I627299
sg17
S'4658.58865666'
p163
sba(igraph
Edge
p164
(dp165
g7
I1
sg8
I00
sg9
I5
sg10
(lp166
g160
a(igraph
Vertex
p167
(dp168
g14
F-16.0
sg15
F-55.263157894736793
sg16
I627390
sg8
I01
sg17
S'4658.52849287'
p169
sg19
I0
sbasg24
I00
sg25
I00
sg26
I627300
sg17
S'4658.58950788'
p170
sba(igraph
Edge
p171
(dp172
g7
I1
sg8
I00
sg9
I5
sg10
(lp173
g167
a(igraph
Vertex
p174
(dp175
g14
F-16.0
sg15
F-39.473684210526258
sg16
I627392
sg8
I00
sg17
S'4658.52893734'
p176
sg19
g20
sbasg24
I00
sg25
I00
sg26
I627301
sg17
S'4658.59042839'
p177
sba(igraph
Edge
p178
(dp179
g7
I1
sg8
I00
sg9
I5
sg10
(lp180
g174
a(igraph
Vertex
p181
(dp182
g14
F-16.0
sg15
F-23.684210526315738
sg16
I627394
sg8
I01
sg17
S'4658.52939214'
p183
sg19
I0
sbasg24
I00
sg25
I00
sg26
I627302
sg17
S'4658.59134192'
p184
sba(igraph
Edge
p185
(dp186
g7
I1
sg8
I00
sg9
I5
sg10
(lp187
g181
a(igraph
Vertex
p188
(dp189
g14
F-16.0
sg15
F-7.8947368421052033
sg16
I627396
sg8
I00
sg17
S'4658.52986008'
p190
sg19
g20
sbasg24
I00
sg25
I00
sg26
I627303
sg17
S'4658.59227416'
p191
sba(igraph
Edge
p192
(dp193
g7
I1
sg8
I00
sg9
I5
sg10
(lp194
g188
a(igraph
Vertex
p195
(dp196
g14
F-16.0
sg15
F7.894736842105317
sg16
I627398
sg8
I01
sg17
S'4658.53034673'
p197
sg19
I0
sbasg24
I00
sg25
I00
sg26
I627304
sg17
S'4658.59323573'
p198
sba(igraph
Edge
p199
(dp200
g7
I1
sg8
I00
sg9
I5
sg10
(lp201
g195
a(igraph
Vertex
p202
(dp203
g14
F-16.0
sg15
F23.684210526315866
sg16
I627400
sg8
I00
sg17
S'4658.53087222'
p204
sg19
g20
sbasg24
I00
sg25
I00
sg26
I627305
sg17
S'4658.59423474'
p205
sba(igraph
Edge
p206
(dp207
g7
I1
sg8
I00
sg9
I5
sg10
(lp208
g202
a(igraph
Vertex
p209
(dp210
g14
F-16.0
sg15
F39.473684210526358
sg16
I627402
sg8
I01
sg17
S'4658.53140106'
p211
sg19
I0
sbasg24
I00
sg25
I00
sg26
I627306
sg17
S'4658.59526085'
p212
sba(igraph
Edge
p213
(dp214
g7
I1
sg8
I00
sg9
I5
sg10
(lp215
g209
a(igraph
Vertex
p216
(dp217
g14
F-16.0
sg15
F55.263157894736878
sg16
I627404
sg8
I00
sg17
S'4658.53193884'
p218
sg19
g20
sbasg24
I00
sg25
I00
sg26
I627307
sg17
S'4658.5963297'
p219
sba(igraph
Edge
p220
(dp221
g7
I1
sg8
I00
sg9
I5
sg10
(lp222
g216
a(igraph
Vertex
p223
(dp224
g14
F-16.0
sg15
F71.05263157894737
sg16
I627406
sg8
I01
sg17
S'4658.53248639'
p225
sg19
I0
sbasg24
I00
sg25
I00
sg26
I627308
sg17
S'4658.59741727'
p226
sba(igraph
Edge
p227
(dp228
g7
I1
sg8
I00
sg9
I5
sg10
(lp229
g223
a(igraph
Vertex
p230
(dp231
g14
F-16.0
sg15
F86.84210526315789
sg16
I627408
sg8
I00
sg17
S'4658.53305434'
p232
sg19
g20
sbasg24
I00
sg25
I00
sg26
I627309
sg17
S'4658.59853389'
p233
sba(igraph
Edge
p234
(dp235
g7
I1
sg8
I00
sg9
I5
sg10
(lp236
g230
a(igraph
Vertex
p237
(dp238
g14
F-16.0
sg15
F102.63157894736841
sg16
I627410
sg8
I01
sg17
S'4658.5336371'
p239
sg19
I0
sbasg24
I00
sg25
I00
sg26
I627310
sg17
S'4658.59968879'
p240
sba(igraph
Edge
p241
(dp242
g7
I1
sg8
I00
sg9
I5
sg10
(lp243
g237
a(igraph
Vertex
p244
(dp245
g14
F-16.0
sg15
F118.4210526315789
sg16
I627412
sg8
I00
sg17
S'4658.53426762'
p246
sg19
g20
sbasg24
I00
sg25
I00
sg26
I627311
sg17
S'4658.60088503'
p247
sba(igraph
Edge
p248
(dp249
g7
I1
sg8
I00
sg9
I5
sg10
(lp250
g244
a(igraph
Vertex
p251
(dp252
g14
F-16.0
sg15
F134.21052631578942
sg16
I627413
sg8
I00
sg17
S'4658.53488865'
p253
sg19
g20
sbasg24
I00
sg25
I00
sg26
I627312
sg17
S'4658.60211871'
p254
sba(igraph
Edge
p255
(dp256
g7
I1
sg8
I00
sg9
I5
sg10
(lp257
g251
a(igraph
Vertex
p258
(dp259
g14
F-16.0
sg15
F149.99999999999994
sg16
I627414
sg8
I00
sg17
S'4658.53552421'
p260
sg19
g20
sbasg24
I00
sg25
I00
sg26
I627313
sg17
S'4658.60361582'
p261
sba(igraph
Edge
p262
(dp263
g7
I1
sg8
I00
sg9
I5
sg10
(lp264
(igraph
Vertex
p265
(dp266
g14
F17.0
sg15
F-118.42105263157889
sg16
I627416
sg8
I01
sg17
S'4658.53752446'
p267
sg19
I0
sba(igraph
Vertex
p268
(dp269
g14
F17.0
sg15
F-102.63157894736837
sg16
I627418
sg8
I00
sg17
S'4658.53822399'
p270
sg19
g20
sbasg24
I00
sg25
I00
sg26
I627314
sg17
S'4658.60903355'
p271
sba(igraph
Edge
p272
(dp273
g7
I1
sg8
I00
sg9
I5
sg10
(lp274
g268
a(igraph
Vertex
p275
(dp276
g14
F17.0
sg15
F-86.842105263157833
sg16
I627419
sg8
I00
sg17
S'4658.53893889'
p277
sg19
g20
sbasg24
I00
sg25
I00
sg26
I627315
sg17
S'4658.61043792'
p278
sba(igraph
Edge
p279
(dp280
g7
I1
sg8
I00
sg9
I5
sg10
(lp281
g275
a(igraph
Vertex
p282
(dp283
g14
F17.0
sg15
F-71.052631578947313
sg16
I627420
sg8
I00
sg17
S'4658.53967613'
p284
sg19
g20
sbasg24
I00
sg25
I00
sg26
I627316
sg17
S'4658.61186994'
p285
sba(igraph
Edge
p286
(dp287
g7
I1
sg8
I00
sg9
I5
sg10
(lp288
g282
a(igraph
Vertex
p289
(dp290
g14
F17.0
sg15
F-55.263157894736793
sg16
I627422
sg8
I01
sg17
S'4658.54042483'
p291
sg19
I0
sbasg24
I00
sg25
I00
sg26
I627317
sg17
S'4658.61335756'
p292
sba(igraph
Edge
p293
(dp294
g7
I1
sg8
I00
sg9
I5
sg10
(lp295
g289
a(igraph
Vertex
p296
(dp297
g14
F17.0
sg15
F-39.473684210526258
sg16
I627424
sg8
I00
sg17
S'4658.54135456'
p298
sg19
g20
sbasg24
I00
sg25
I00
sg26
I627318
sg17
S'4658.61488401'
p299
sba(igraph
Edge
p300
(dp301
g7
I1
sg8
I00
sg9
I5
sg10
(lp302
g296
a(igraph
Vertex
p303
(dp304
g14
F17.0
sg15
F-23.684210526315738
sg16
I627425
sg8
I00
sg17
S'4658.54219601'
p305
sg19
g20
sbasg24
I00
sg25
I00
sg26
I627319
sg17
S'4658.61641633'
p306
sba(igraph
Edge
p307
(dp308
g7
I1
sg8
I00
sg9
I5
sg10
(lp309
g303
a(igraph
Vertex
p310
(dp311
g14
F17.0
sg15
F-7.8947368421052033
sg16
I627426
sg8
I00
sg17
S'4658.5430598'
p312
sg19
g20
sbasg24
I00
sg25
I00
sg26
I627320
sg17
S'4658.61816236'
p313
sba(igraph
Edge
p314
(dp315
g7
I1
sg8
I00
sg9
I5
sg10
(lp316
g310
a(igraph
Vertex
p317
(dp318
g14
F17.0
sg15
F7.894736842105317
sg16
I627428
sg8
I01
sg17
S'4658.54405797'
p319
sg19
I0
sbasg24
I00
sg25
I00
sg26
I627321
sg17
S'4658.6197905'
p320
sba(igraph
Edge
p321
(dp322
g7
I1
sg8
I00
sg9
I5
sg10
(lp323
g317
a(igraph
Vertex
p324
(dp325
g14
F17.0
sg15
F23.684210526315866
sg16
I627430
sg8
I00
sg17
S'4658.54491283'
p326
sg19
g20
sbasg24
I00
sg25
I00
sg26
I627322
sg17
S'4658.62143485'
p327
sba(igraph
Edge
p328
(dp329
g7
I1
sg8
I00
sg9
I5
sg10
(lp330
g324
a(igraph
Vertex
p331
(dp332
g14
F17.0
sg15
F39.473684210526358
sg16
I627431
sg8
I00
sg17
S'4658.54585457'
p333
sg19
g20
sbasg24
I00
sg25
I00
sg26
I627323
sg17
S'4658.62315937'
p334
sba(igraph
Edge
p335
(dp336
g7
I1
sg8
I00
sg9
I5
sg10
(lp337
g331
a(igraph
Vertex
p338
(dp339
g14
F17.0
sg15
F55.263157894736878
sg16
I627432
sg8
I00
sg17
S'4658.54673178'
p340
sg19
g20
sbasg24
I00
sg25
I00
sg26
I627324
sg17
S'4658.62501463'
p341
sba(igraph
Edge
p342
(dp343
g7
I1
sg8
I00
sg9
I5
sg10
(lp344
g338
a(igraph
Vertex
p345
(dp346
g14
F17.0
sg15
F71.05263157894737
sg16
I627434
sg8
I01
sg17
S'4658.54761485'
p347
sg19
I0
sbasg24
I00
sg25
I00
sg26
I627325
sg17
S'4658.6267696'
p348
sba(igraph
Edge
p349
(dp350
g7
I1
sg8
I00
sg9
I5
sg10
(lp351
g345
a(igraph
Vertex
p352
(dp353
g14
F17.0
sg15
F86.84210526315789
sg16
I627436
sg8
I00
sg17
S'4658.54851105'
p354
sg19
g20
sbasg24
I00
sg25
I00
sg26
I627326
sg17
S'4658.62854609'
p355
sba(igraph
Edge
p356
(dp357
g7
I1
sg8
I00
sg9
I5
sg10
(lp358
g352
a(igraph
Vertex
p359
(dp360
g14
F17.0
sg15
F102.63157894736841
sg16
I627437
sg8
I00
sg17
S'4658.54942486'
p361
sg19
g20
sbasg24
I00
sg25
I00
sg26
I627327
sg17
S'4658.63033318'
p362
sba(igraph
Edge
p363
(dp364
g7
I1
sg8
I00
sg9
I5
sg10
(lp365
g359
a(igraph
Vertex
p366
(dp367
g14
F17.0
sg15
F118.4210526315789
sg16
I627438
sg8
I00
sg17
S'4658.55035961'
p368
sg19
g20
sbasg24
I00
sg25
I00
sg26
I627328
sg17
S'4658.63220242'
p369
sba(igraph
Edge
p370
(dp371
g7
I1
sg8
I00
sg9
I5
sg10
(lp372
g366
a(igraph
Vertex
p373
(dp374
g14
F17.0
sg15
F134.21052631578942
sg16
I627440
sg8
I01
sg17
S'4658.55130694'
p375
sg19
I0
sbasg24
I00
sg25
I00
sg26
I627329
sg17
S'4658.63416328'
p376
sba(igraph
Edge
p377
(dp378
g7
I1
sg8
I00
sg9
I5
sg10
(lp379
g373
a(igraph
Vertex
p380
(dp381
g14
F17.0
sg15
F149.99999999999994
sg16
I627442
sg8
I00
sg17
S'4658.55230539'
p382
sg19
g20
sbasg24
I00
sg25
I00
sg26
I627330
sg17
S'4658.63613476'
p383
sba(igraph
Edge
p384
(dp385
g7
I1
sg8
I00
sg9
I5
sg10
(lp386
g12
ag146
asg24
I00
sg25
I00
sg26
I627331
sg17
S'4658.69213015'
p387
sba(igraph
Edge
p388
(dp389
g7
I1
sg8
I00
sg9
I5
sg10
(lp390
g31
ag160
asg24
I00
sg25
I00
sg26
I627332
sg17
S'4658.6950361'
p391
sba(igraph
Edge
p392
(dp393
g7
I1
sg8
I00
sg9
I5
sg10
(lp394
g45
ag174
asg24
I00
sg25
I00
sg26
I627333
sg17
S'4658.69799877'
p395
sba(igraph
Edge
p396
(dp397
g7
I1
sg8
I00
sg9
I5
sg10
(lp398
g59
ag188
asg24
I00
sg25
I00
sg26
I627334
sg17
S'4658.70025492'
p399
sba(igraph
Edge
p400
(dp401
g7
I1
sg8
I00
sg9
I5
sg10
(lp402
g73
ag202
asg24
I00
sg25
I00
sg26
I627335
sg17
S'4658.7015143'
p403
sba(igraph
Edge
p404
(dp405
g7
I1
sg8
I00
sg9
I5
sg10
(lp406
g87
ag216
asg24
I00
sg25
I00
sg26
I627336
sg17
S'4658.70278988'
p407
sba(igraph
Edge
p408
(dp409
g7
I1
sg8
I00
sg9
I5
sg10
(lp410
g101
ag230
asg24
I00
sg25
I00
sg26
I627337
sg17
S'4658.70409675'
p411
sba(igraph
Edge
p412
(dp413
g7
I1
sg8
I00
sg9
I5
sg10
(lp414
g115
ag244
asg24
I00
sg25
I00
sg26
I627338
sg17
S'4658.70541396'
p415
sba(igraph
Edge
p416
(dp417
g7
I1
sg8
I00
sg9
I5
sg10
(lp418
g129
ag258
asg24
I00
sg25
I00
sg26
I627339
sg17
S'4658.70676245'
p419
sba(igraph
Edge
p420
(dp421
g7
I1
sg8
I00
sg9
I5
sg10
(lp422
g143
ag268
asg24
I00
sg25
I00
sg26
I627340
sg17
S'4658.70951085'
p423
sba(igraph
Edge
p424
(dp425
g7
I1
sg8
I00
sg9
I5
sg10
(lp426
g153
ag282
asg24
I00
sg25
I00
sg26
I627341
sg17
S'4658.7108884'
p427
sba(igraph
Edge
p428
(dp429
g7
I1
sg8
I00
sg9
I5
sg10
(lp430
g167
ag296
asg24
I00
sg25
I00
sg26
I627342
sg17
S'4658.71228131'
p431
sba(igraph
Edge
p432
(dp433
g7
I1
sg8
I00
sg9
I5
sg10
(lp434
g181
ag310
asg24
I00
sg25
I00
sg26
I627343
sg17
S'4658.71370412'
p435
sba(igraph
Edge
p436
(dp437
g7
I1
sg8
I00
sg9
I5
sg10
(lp438
g195
ag324
asg24
I00
sg25
I00
sg26
I627344
sg17
S'4658.71511128'
p439
sba(igraph
Edge
p440
(dp441
g7
I1
sg8
I00
sg9
I5
sg10
(lp442
g209
ag338
asg24
I00
sg25
I00
sg26
I627345
sg17
S'4658.71660029'
p443
sba(igraph
Edge
p444
(dp445
g7
I1
sg8
I00
sg9
I5
sg10
(lp446
g223
ag352
asg24
I00
sg25
I00
sg26
I627346
sg17
S'4658.71809127'
p447
sba(igraph
Edge
p448
(dp449
g7
I1
sg8
I00
sg9
I5
sg10
(lp450
g237
ag366
asg24
I00
sg25
I00
sg26
I627347
sg17
S'4658.71958'
p451
sba(igraph
Edge
p452
(dp453
g7
I1
sg8
I00
sg9
I5
sg10
(lp454
g251
ag380
asg24
I00
sg25
I00
sg26
I627348
sg17
S'4658.7211288'
p455
sba(igraph
Edge
p456
(dp457
g7
I1
sg8
I00
sg9
I5
sg10
(lp458
g265
a(igraph
Vertex
p459
(dp460
g14
F50.0
sg15
F-102.63157894736837
sg16
I627443
sg8
I00
sg17
S'4658.55637071'
p461
sg19
g20
sbasg24
I00
sg25
I00
sg26
I627349
sg17
S'4658.72413924'
p462
sba(igraph
Edge
p463
(dp464
g7
I1
sg8
I00
sg9
I5
sg10
(lp465
g275
a(igraph
Vertex
p466
(dp467
g14
F50.0
sg15
F-71.052631578947313
sg16
I627444
sg8
I00
sg17
S'4658.55873638'
p468
sg19
g20
sbasg24
I00
sg25
I00
sg26
I627350
sg17
S'4658.72572659'
p469
sba(igraph
Edge
p470
(dp471
g7
I1
sg8
I00
sg9
I5
sg10
(lp472
g289
a(igraph
Vertex
p473
(dp474
g14
F50.0
sg15
F-39.473684210526258
sg16
I627445
sg8
I00
sg17
S'4658.56096012'
p475
sg19
g20
sbasg24
I00
sg25
I00
sg26
I627351
sg17
S'4658.72728433'
p476
sba(igraph
Edge
p477
(dp478
g7
I1
sg8
I00
sg9
I5
sg10
(lp479
g303
a(igraph
Vertex
p480
(dp481
g14
F50.0
sg15
F-7.8947368421052033
sg16
I627446
sg8
I00
sg17
S'4658.5636532'
p482
sg19
g20
sbasg24
I00
sg25
I00
sg26
I627352
sg17
S'4658.72888621'
p483
sba(igraph
Edge
p484
(dp485
g7
I1
sg8
I00
sg9
I5
sg10
(lp486
g317
a(igraph
Vertex
p487
(dp488
g14
F50.0
sg15
F23.684210526315866
sg16
I627447
sg8
I00
sg17
S'4658.56612391'
p489
sg19
g20
sbasg24
I00
sg25
I00
sg26
I627353
sg17
S'4658.73043585'
p490
sba(igraph
Edge
p491
(dp492
g7
I1
sg8
I00
sg9
I5
sg10
(lp493
g331
a(igraph
Vertex
p494
(dp495
g14
F50.0
sg15
F55.263157894736878
sg16
I627448
sg8
I00
sg17
S'4658.56854656'
p496
sg19
g20
sbasg24
I00
sg25
I00
sg26
I627354
sg17
S'4658.73206036'
p497
sba(igraph
Edge
p498
(dp499
g7
I1
sg8
I00
sg9
I5
sg10
(lp500
g345
a(igraph
Vertex
p501
(dp502
g14
F50.0
sg15
F86.84210526315789
sg16
I627449
sg8
I00
sg17
S'4658.57109018'
p503
sg19
g20
sbasg24
I00
sg25
I00
sg26
I627355
sg17
S'4658.73370414'
p504
sba(igraph
Edge
p505
(dp506
g7
I1
sg8
I00
sg9
I5
sg10
(lp507
g359
a(igraph
Vertex
p508
(dp509
g14
F50.0
sg15
F118.4210526315789
sg16
I627450
sg8
I00
sg17
S'4658.57364972'
p510
sg19
g20
sbasg24
I00
sg25
I00
sg26
I627356
sg17
S'4658.73536413'
p511
sba(igraph
Edge
p512
(dp513
g7
I1
sg8
I00
sg9
I5
sg10
(lp514
g373
a(igraph
Vertex
p515
(dp516
g14
F50.0
sg15
F149.99999999999994
sg16
I627451
sg8
I00
sg17
S'4658.57634085'
p517
sg19
g20
sbasg24
I00
sg25
I00
sg26
I627357
sg17
S'4658.73698585'
p518
sba(igraph
Edge
p519
(dp520
g7
I1
sg8
I00
sg9
I5
sg10
(lp521
g265
ag380
asg24
I00
sg25
I00
sg26
I627358
sg17
S'5158.27395381'
p522
sba(igraph
Edge
p523
(dp524
g7
I1
sg8
I00
sg9
I5
sg10
(lp525
g143
ag258
asg24
I00
sg25
I00
sg26
I627359
sg17
S'5162.74485305'
p526
sba(igraph
Edge
p527
(dp528
g7
I1
sg8
I00
sg9
I5
sg10
(lp529
g12
ag136
asg24
I00
sg25
I00
sg26
I627360
sg17
S'5166.13872461'
p530
sbasS'vertices'
p531
(lp532
g12
ag21
ag31
ag38
ag45
ag52
ag59
ag66
ag73
ag80
ag87
ag94
ag101
ag108
ag115
ag122
ag129
ag136
ag143
ag146
ag153
ag160
ag167
ag174
ag181
ag188
ag195
ag202
ag209
ag216
ag223
ag230
ag237
ag244
ag251
ag258
ag265
ag268
ag275
ag282
ag289
ag296
ag303
ag310
ag317
ag324
ag331
ag338
ag345
ag352
ag359
ag366
ag373
ag380
ag459
ag466
ag473
ag480
ag487
ag494
ag501
ag508
ag515
asS'tags'
p533
(lp534
sb.