(igraph
Graph
p0
(dp1
S'labelingConstraints'
p2
I-1
sS'edges'
p3
(lp4
(igraph
Edge
p5
(dp6
S'direction'
p7
I1
sS'selected'
p8
I00
sS'height'
p9
I5
sS'vs'
p10
(lp11
(igraph
Vertex
p12
(dp13
S'xnorm'
p14
F0.5263157894736844
sg8
I00
sS'label'
p15
S'NULL'
p16
sS'y'
p17
F-97.0
sS'x'
p18
F-29.999999999999943
sS'circle'
p19
I560120
sS'id'
p20
S'4036.55648525'
p21
sS'ynorm'
p22
F0.0
sba(igraph
Vertex
p23
(dp24
g14
F0.57894736842105288
sg8
I00
sg15
g16
sg17
F-97.0
sg18
F-9.9999999999999432
sg19
I560121
sg20
S'4036.55667215'
p25
sg22
F0.0
sbasS'wrap'
p26
I00
sS'curved'
p27
I00
sS'line'
p28
I560065
sg20
S'4036.60961938'
p29
sba(igraph
Edge
p30
(dp31
g7
I1
sg8
I00
sg9
I5
sg10
(lp32
g23
a(igraph
Vertex
p33
(dp34
g14
F0.63157894736842124
sg8
I00
sg15
g16
sg17
F-97.0
sg18
F10.000000000000028
sg19
I560122
sg20
S'4036.55701241'
p35
sg22
F0.0
sbasg26
I00
sg27
I00
sg28
I560066
sg20
S'4036.609856'
p36
sba(igraph
Edge
p37
(dp38
g7
I1
sg8
I00
sg9
I5
sg10
(lp39
g33
a(igraph
Vertex
p40
(dp41
g14
F0.68421052631578971
sg8
I00
sg15
g16
sg17
F-97.0
sg18
F30.000000000000057
sg19
I560123
sg20
S'4036.55723646'
p42
sg22
F0.0
sbasg26
I00
sg27
I00
sg28
I560067
sg20
S'4036.61012'
p43
sba(igraph
Edge
p44
(dp45
g7
I1
sg8
I00
sg9
I5
sg10
(lp46
g40
a(igraph
Vertex
p47
(dp48
g14
F0.73684210526315796
sg8
I00
sg15
g16
sg17
F-97.0
sg18
F50.0
sg19
I560124
sg20
S'4036.55747644'
p49
sg22
F0.0
sbasg26
I00
sg27
I00
sg28
I560068
sg20
S'4036.6103773'
p50
sba(igraph
Edge
p51
(dp52
g7
I1
sg8
I00
sg9
I5
sg10
(lp53
g47
a(igraph
Vertex
p54
(dp55
g14
F0.78947368421052644
sg8
I00
sg15
g16
sg17
F-97.0
sg18
F70.0
sg19
I560125
sg20
S'4036.55773038'
p56
sg22
F0.0
sbasg26
I00
sg27
I00
sg28
I560069
sg20
S'4036.61093575'
p57
sba(igraph
Edge
p58
(dp59
g7
I1
sg8
I00
sg9
I5
sg10
(lp60
g54
a(igraph
Vertex
p61
(dp62
g14
F0.8421052631578948
sg8
I00
sg15
g16
sg17
F-97.0
sg18
F90.0
sg19
I560126
sg20
S'4036.55801841'
p63
sg22
F0.0
sbasg26
I00
sg27
I00
sg28
I560070
sg20
S'4036.61122824'
p64
sba(igraph
Edge
p65
(dp66
g7
I1
sg8
I00
sg9
I5
sg10
(lp67
g61
a(igraph
Vertex
p68
(dp69
g14
F0.89473684210526316
sg8
I00
sg15
g16
sg17
F-97.0
sg18
F109.99999999999994
sg19
I560127
sg20
S'4036.55830867'
p70
sg22
F0.0
sbasg26
I00
sg27
I00
sg28
I560071
sg20
S'4036.61155231'
p71
sba(igraph
Edge
p72
(dp73
g7
I1
sg8
I00
sg9
I5
sg10
(lp74
g68
a(igraph
Vertex
p75
(dp76
g14
F0.94736842105263153
sg8
I00
sg15
I0
sg17
F-97.0
sg18
F129.99999999999994
sg19
I560128
sg20
S'4036.55862379'
p77
sg22
F0.0
sbasg26
I00
sg27
I00
sg28
I560072
sg20
S'4036.61188838'
p78
sba(igraph
Edge
p79
(dp80
g7
I1
sg8
I00
sg9
I5
sg10
(lp81
g75
a(igraph
Vertex
p82
(dp83
g14
F1.0
sg8
I00
sg15
g16
sg17
F-97.0
sg18
F149.99999999999994
sg19
I560130
sg20
S'4036.55903222'
p84
sg22
F0.0
sbasg26
I00
sg27
I00
sg28
I560073
sg20
S'4036.61221999'
p85
sba(igraph
Edge
p86
(dp87
g7
I1
sg8
I00
sg9
I5
sg10
(lp88
(igraph
Vertex
p89
(dp90
g14
F0.5263157894736844
sg8
I00
sg15
I0
sg17
F-47.836734693877553
sg18
F-29.999999999999943
sg19
I560131
sg20
S'4036.56537912'
p91
sg22
F0.33673469387755101
sba(igraph
Vertex
p92
(dp93
g14
F0.57894736842105288
sg8
I00
sg15
g16
sg17
F-47.836734693877553
sg18
F-9.9999999999999432
sg19
I560133
sg20
S'4036.56616888'
p94
sg22
F0.33673469387755101
sbasg26
I00
sg27
I00
sg28
I560074
sg20
S'4036.61763828'
p95
sba(igraph
Edge
p96
(dp97
g7
I1
sg8
I00
sg9
I5
sg10
(lp98
g92
a(igraph
Vertex
p99
(dp100
g14
F0.63157894736842124
sg8
I00
sg15
I0
sg17
F-47.836734693877553
sg18
F10.000000000000028
sg19
I560134
sg20
S'4036.56685501'
p101
sg22
F0.33673469387755101
sbasg26
I00
sg27
I00
sg28
I560075
sg20
S'4036.61812633'
p102
sba(igraph
Edge
p103
(dp104
g7
I1
sg8
I00
sg9
I5
sg10
(lp105
g99
a(igraph
Vertex
p106
(dp107
g14
F0.68421052631578971
sg8
I00
sg15
g16
sg17
F-47.836734693877553
sg18
F30.000000000000057
sg19
I560136
sg20
S'4036.56747101'
p108
sg22
F0.33673469387755101
sbasg26
I00
sg27
I00
sg28
I560076
sg20
S'4036.61863086'
p109
sba(igraph
Edge
p110
(dp111
g7
I1
sg8
I00
sg9
I5
sg10
(lp112
g106
a(igraph
Vertex
p113
(dp114
g14
F0.73684210526315796
sg8
I00
sg15
I0
sg17
F-47.836734693877553
sg18
F50.0
sg19
I560137
sg20
S'4036.56824485'
p115
sg22
F0.33673469387755101
sbasg26
I00
sg27
I00
sg28
I560077
sg20
S'4036.61920188'
p116
sba(igraph
Edge
p117
(dp118
g7
I1
sg8
I00
sg9
I5
sg10
(lp119
g113
a(igraph
Vertex
p120
(dp121
g14
F0.78947368421052644
sg8
I00
sg15
g16
sg17
F-47.836734693877553
sg18
F70.0
sg19
I560139
sg20
S'4036.56988081'
p122
sg22
F0.33673469387755101
sbasg26
I00
sg27
I00
sg28
I560078
sg20
S'4036.61992628'
p123
sba(igraph
Edge
p124
(dp125
g7
I1
sg8
I00
sg9
I5
sg10
(lp126
g120
a(igraph
Vertex
p127
(dp128
g14
F0.8421052631578948
sg8
I00
sg15
I0
sg17
F-47.836734693877553
sg18
F90.0
sg19
I560140
sg20
S'4036.57081556'
p129
sg22
F0.33673469387755101
sbasg26
I00
sg27
I00
sg28
I560079
sg20
S'4036.62074509'
p130
sba(igraph
Edge
p131
(dp132
g7
I1
sg8
I00
sg9
I5
sg10
(lp133
g127
a(igraph
Vertex
p134
(dp135
g14
F0.89473684210526316
sg8
I00
sg15
g16
sg17
F-47.836734693877553
sg18
F109.99999999999994
sg19
I560142
sg20
S'4036.57186626'
p136
sg22
F0.33673469387755101
sbasg26
I00
sg27
I00
sg28
I560080
sg20
S'4036.62133902'
p137
sba(igraph
Edge
p138
(dp139
g7
I1
sg8
I00
sg9
I5
sg10
(lp140
g134
a(igraph
Vertex
p141
(dp142
g14
F0.94736842105263153
sg8
I00
sg15
g16
sg17
F-47.836734693877553
sg18
F129.99999999999994
sg19
I560143
sg20
S'4036.57261328'
p143
sg22
F0.33673469387755101
sbasg26
I00
sg27
I00
sg28
I560081
sg20
S'4036.62191312'
p144
sba(igraph
Edge
p145
(dp146
g7
I1
sg8
I00
sg9
I5
sg10
(lp147
g141
a(igraph
Vertex
p148
(dp149
g14
F1.0
sg8
I00
sg15
g16
sg17
F-47.836734693877553
sg18
F149.99999999999994
sg19
I560144
sg20
S'4036.57348462'
p150
sg22
F0.33673469387755101
sbasg26
I00
sg27
I00
sg28
I560082
sg20
S'4036.62253163'
p151
sba(igraph
Edge
p152
(dp153
g7
I1
sg8
I00
sg9
I5
sg10
(lp154
(igraph
Vertex
p155
(dp156
g14
F0.5263157894736844
sg8
I00
sg15
I0
sg17
F1.3265306122448948
sg18
F-29.999999999999943
sg19
I560145
sg20
S'4036.5844483'
p157
sg22
F0.67346938775510201
sba(igraph
Vertex
p158
(dp159
g14
F0.57894736842105288
sg8
I00
sg15
g16
sg17
F1.3265306122448948
sg18
F-9.9999999999999432
sg19
I560147
sg20
S'4036.58504978'
p160
sg22
F0.67346938775510201
sbasg26
I00
sg27
I00
sg28
I560083
sg20
S'4036.63312516'
p161
sba(igraph
Edge
p162
(dp163
g7
I1
sg8
I00
sg9
I5
sg10
(lp164
g158
a(igraph
Vertex
p165
(dp166
g14
F0.63157894736842124
sg8
I00
sg15
g16
sg17
F1.3265306122448948
sg18
F10.000000000000028
sg19
I560148
sg20
S'4036.58562136'
p167
sg22
F0.67346938775510201
sbasg26
I00
sg27
I00
sg28
I560084
sg20
S'4036.6340155'
p168
sba(igraph
Edge
p169
(dp170
g7
I1
sg8
I00
sg9
I5
sg10
(lp171
g165
a(igraph
Vertex
p172
(dp173
g14
F0.68421052631578971
sg8
I00
sg15
g16
sg17
F1.3265306122448948
sg18
F30.000000000000057
sg19
I560149
sg20
S'4036.58616668'
p174
sg22
F0.67346938775510201
sbasg26
I00
sg27
I00
sg28
I560085
sg20
S'4036.63489354'
p175
sba(igraph
Edge
p176
(dp177
g7
I1
sg8
I00
sg9
I5
sg10
(lp178
g172
a(igraph
Vertex
p179
(dp180
g14
F0.73684210526315796
sg8
I00
sg15
I0
sg17
F1.3265306122448948
sg18
F50.0
sg19
I560150
sg20
S'4036.58700673'
p181
sg22
F0.67346938775510201
sbasg26
I00
sg27
I00
sg28
I560086
sg20
S'4036.63574337'
p182
sba(igraph
Edge
p183
(dp184
g7
I1
sg8
I00
sg9
I5
sg10
(lp185
g179
a(igraph
Vertex
p186
(dp187
g14
F0.78947368421052644
sg8
I00
sg15
g16
sg17
F1.3265306122448948
sg18
F70.0
sg19
I560152
sg20
S'4036.58772945'
p188
sg22
F0.67346938775510201
sbasg26
I00
sg27
I00
sg28
I560087
sg20
S'4036.63662812'
p189
sba(igraph
Edge
p190
(dp191
g7
I1
sg8
I00
sg9
I5
sg10
(lp192
g186
a(igraph
Vertex
p193
(dp194
g14
F0.8421052631578948
sg8
I00
sg15
g16
sg17
F1.3265306122448948
sg18
F90.0
sg19
I560153
sg20
S'4036.58837534'
p195
sg22
F0.67346938775510201
sbasg26
I00
sg27
I00
sg28
I560088
sg20
S'4036.63758383'
p196
sba(igraph
Edge
p197
(dp198
g7
I1
sg8
I00
sg9
I5
sg10
(lp199
g193
a(igraph
Vertex
p200
(dp201
g14
F0.89473684210526316
sg8
I00
sg15
g16
sg17
F1.3265306122448948
sg18
F109.99999999999994
sg19
I560154
sg20
S'4036.58899246'
p202
sg22
F0.67346938775510201
sbasg26
I00
sg27
I00
sg28
I560089
sg20
S'4036.63847556'
p203
sba(igraph
Edge
p204
(dp205
g7
I1
sg8
I00
sg9
I5
sg10
(lp206
g200
a(igraph
Vertex
p207
(dp208
g14
F0.94736842105263153
sg8
I00
sg15
g16
sg17
F1.3265306122448948
sg18
F129.99999999999994
sg19
I560155
sg20
S'4036.58981072'
p209
sg22
F0.67346938775510201
sbasg26
I00
sg27
I00
sg28
I560090
sg20
S'4036.6393754'
p210
sba(igraph
Edge
p211
(dp212
g7
I1
sg8
I00
sg9
I5
sg10
(lp213
g207
a(igraph
Vertex
p214
(dp215
g14
F1.0
sg8
I00
sg15
g16
sg17
F1.3265306122448948
sg18
F149.99999999999994
sg19
I560156
sg20
S'4036.59063205'
p216
sg22
F0.67346938775510201
sbasg26
I00
sg27
I00
sg28
I560091
sg20
S'4036.64030317'
p217
sba(igraph
Edge
p218
(dp219
g7
I1
sg8
I00
sg9
I5
sg10
(lp220
(igraph
Vertex
p221
(dp222
g14
F0.5263157894736844
sg8
I00
sg15
g16
sg17
F50.489795918367321
sg18
F-29.999999999999943
sg19
I560157
sg20
S'4036.59909318'
p223
sg22
F1.010204081632653
sba(igraph
Vertex
p224
(dp225
g14
F0.57894736842105288
sg8
I00
sg15
g16
sg17
F50.489795918367321
sg18
F-9.9999999999999432
sg19
I560158
sg20
S'4036.59992737'
p226
sg22
F1.010204081632653
sbasg26
I00
sg27
I00
sg28
I560092
sg20
S'4036.65406693'
p227
sba(igraph
Edge
p228
(dp229
g7
I1
sg8
I00
sg9
I5
sg10
(lp230
g224
a(igraph
Vertex
p231
(dp232
g14
F0.63157894736842124
sg8
I00
sg15
g16
sg17
F50.489795918367321
sg18
F10.000000000000028
sg19
I560159
sg20
S'4036.60071545'
p233
sg22
F1.010204081632653
sbasg26
I00
sg27
I00
sg28
I560093
sg20
S'4036.65521791'
p234
sba(igraph
Edge
p235
(dp236
g7
I1
sg8
I00
sg9
I5
sg10
(lp237
g231
a(igraph
Vertex
p238
(dp239
g14
F0.68421052631578971
sg8
I00
sg15
g16
sg17
F50.489795918367321
sg18
F30.000000000000057
sg19
I560160
sg20
S'4036.6016368'
p240
sg22
F1.010204081632653
sbasg26
I00
sg27
I00
sg28
I560094
sg20
S'4036.65645047'
p241
sba(igraph
Edge
p242
(dp243
g7
I1
sg8
I00
sg9
I5
sg10
(lp244
g238
a(igraph
Vertex
p245
(dp246
g14
F0.73684210526315796
sg8
I00
sg15
g16
sg17
F50.489795918367321
sg18
F50.0
sg19
I560161
sg20
S'4036.60252127'
p247
sg22
F1.010204081632653
sbasg26
I00
sg27
I00
sg28
I560095
sg20
S'4036.65777382'
p248
sba(igraph
Edge
p249
(dp250
g7
I1
sg8
I00
sg9
I5
sg10
(lp251
g245
a(igraph
Vertex
p252
(dp253
g14
F0.78947368421052644
sg8
I00
sg15
g16
sg17
F50.489795918367321
sg18
F70.0
sg19
I560162
sg20
S'4036.60338171'
p254
sg22
F1.010204081632653
sbasg26
I00
sg27
I00
sg28
I560096
sg20
S'4036.65903572'
p255
sba(igraph
Edge
p256
(dp257
g7
I1
sg8
I00
sg9
I5
sg10
(lp258
g252
a(igraph
Vertex
p259
(dp260
g14
F0.8421052631578948
sg8
I00
sg15
g16
sg17
F50.489795918367321
sg18
F90.0
sg19
I560163
sg20
S'4036.6042687'
p261
sg22
F1.010204081632653
sbasg26
I00
sg27
I00
sg28
I560097
sg20
S'4036.6607566'
p262
sba(igraph
Edge
p263
(dp264
g7
I1
sg8
I00
sg9
I5
sg10
(lp265
g259
a(igraph
Vertex
p266
(dp267
g14
F0.89473684210526316
sg8
I00
sg15
I0
sg17
F50.489795918367321
sg18
F109.99999999999994
sg19
I560164
sg20
S'4036.60513082'
p268
sg22
F1.010204081632653
sbasg26
I00
sg27
I00
sg28
I560098
sg20
S'4036.66223109'
p269
sba(igraph
Edge
p270
(dp271
g7
I1
sg8
I00
sg9
I5
sg10
(lp272
g266
a(igraph
Vertex
p273
(dp274
g14
F0.94736842105263153
sg8
I00
sg15
g16
sg17
F50.489795918367321
sg18
F129.99999999999994
sg19
I560166
sg20
S'4036.60600607'
p275
sg22
F1.010204081632653
sbasg26
I00
sg27
I00
sg28
I560099
sg20
S'4036.66378101'
p276
sba(igraph
Edge
p277
(dp278
g7
I1
sg8
I00
sg9
I5
sg10
(lp279
g273
a(igraph
Vertex
p280
(dp281
g14
F1.0
sg8
I00
sg15
g16
sg17
F50.489795918367321
sg18
F149.99999999999994
sg19
I560167
sg20
S'4036.60705285'
p282
sg22
F1.010204081632653
sbasg26
I00
sg27
I00
sg28
I560100
sg20
S'4036.66541949'
p283
sba(igraph
Edge
p284
(dp285
g7
I1
sg8
I00
sg9
I5
sg10
(lp286
g12
ag92
asg26
I00
sg27
I00
sg28
I560101
sg20
S'4036.67665164'
p287
sba(igraph
Edge
p288
(dp289
g7
I1
sg8
I00
sg9
I5
sg10
(lp290
g33
ag106
asg26
I00
sg27
I00
sg28
I560102
sg20
S'4036.67837197'
p291
sba(igraph
Edge
p292
(dp293
g7
I1
sg8
I00
sg9
I5
sg10
(lp294
g47
ag120
asg26
I00
sg27
I00
sg28
I560103
sg20
S'4036.68021019'
p295
sba(igraph
Edge
p296
(dp297
g7
I1
sg8
I00
sg9
I5
sg10
(lp298
g61
ag134
asg26
I00
sg27
I00
sg28
I560104
sg20
S'4036.68194589'
p299
sba(igraph
Edge
p300
(dp301
g7
I1
sg8
I00
sg9
I5
sg10
(lp302
g75
ag148
asg26
I00
sg27
I00
sg28
I560105
sg20
S'4036.68370421'
p303
sba(igraph
Edge
p304
(dp305
g7
I1
sg8
I00
sg9
I5
sg10
(lp306
g89
ag158
asg26
I00
sg27
I00
sg28
I560106
sg20
S'4036.69435222'
p307
sba(igraph
Edge
p308
(dp309
g7
I1
sg8
I00
sg9
I5
sg10
(lp310
g99
ag172
asg26
I00
sg27
I00
sg28
I560107
sg20
S'4036.69624212'
p311
sba(igraph
Edge
p312
(dp313
g7
I1
sg8
I00
sg9
I5
sg10
(lp314
g113
ag186
asg26
I00
sg27
I00
sg28
I560108
sg20
S'4036.69803928'
p315
sba(igraph
Edge
p316
(dp317
g7
I1
sg8
I00
sg9
I5
sg10
(lp318
g127
ag200
asg26
I00
sg27
I00
sg28
I560109
sg20
S'4036.69972776'
p319
sba(igraph
Edge
p320
(dp321
g7
I1
sg8
I00
sg9
I5
sg10
(lp322
g141
ag214
asg26
I00
sg27
I00
sg28
I560110
sg20
S'4036.70153553'
p323
sba(igraph
Edge
p324
(dp325
g7
I1
sg8
I00
sg9
I5
sg10
(lp326
g155
ag224
asg26
I00
sg27
I00
sg28
I560111
sg20
S'4036.71158457'
p327
sba(igraph
Edge
p328
(dp329
g7
I1
sg8
I00
sg9
I5
sg10
(lp330
g165
ag238
asg26
I00
sg27
I00
sg28
I560112
sg20
S'4036.71325825'
p331
sba(igraph
Edge
p332
(dp333
g7
I1
sg8
I00
sg9
I5
sg10
(lp334
g179
ag252
asg26
I00
sg27
I00
sg28
I560113
sg20
S'4036.71528448'
p335
sba(igraph
Edge
p336
(dp337
g7
I1
sg8
I00
sg9
I5
sg10
(lp338
g193
ag266
asg26
I00
sg27
I00
sg28
I560114
sg20
S'4036.71704029'
p339
sba(igraph
Edge
p340
(dp341
g7
I1
sg8
I00
sg9
I5
sg10
(lp342
g207
ag280
asg26
I00
sg27
I00
sg28
I560115
sg20
S'4036.71880672'
p343
sba(igraph
Edge
p344
(dp345
g7
I1
sg8
I00
sg9
I5
sg10
(lp346
g221
ag280
asg26
I00
sg27
I00
sg28
I560116
sg20
S'4606.35453053'
p347
sba(igraph
Edge
p348
(dp349
g7
I1
sg8
I00
sg9
I5
sg10
(lp350
g214
ag155
asg26
I00
sg27
I00
sg28
I560117
sg20
S'4609.38282938'
p351
sba(igraph
Edge
p352
(dp353
g7
I1
sg8
I00
sg9
I5
sg10
(lp354
g89
ag148
asg26
I00
sg27
I00
sg28
I560118
sg20
S'4612.74351796'
p355
sba(igraph
Edge
p356
(dp357
g7
I1
sg8
I00
sg9
I5
sg10
(lp358
g82
ag12
asg26
I00
sg27
I00
sg28
I560119
sg20
S'4618.57221099'
p359
sbasS'vertices'
p360
(lp361
g12
ag23
ag33
ag40
ag47
ag54
ag61
ag68
ag75
ag82
ag89
ag92
ag99
ag106
ag113
ag120
ag127
ag134
ag141
ag148
ag155
ag158
ag165
ag172
ag179
ag186
ag193
ag200
ag207
ag214
ag221
ag224
ag231
ag238
ag245
ag252
ag259
ag266
ag273
ag280
asS'tags'
p362
(lp363
sb.