(igraph
Graph
p0
(dp1
S'labelingConstraints'
p2
I-1
sS'edges'
p3
(lp4
(igraph
Edge
p5
(dp6
S'direction'
p7
I1
sS'selected'
p8
I00
sS'height'
p9
I5
sS'vs'
p10
(lp11
(igraph
Vertex
p12
(dp13
S'xnorm'
p14
F0.42105263157894751
sg8
I00
sS'label'
p15
S'NULL'
p16
sS'y'
p17
F-97.0
sS'x'
p18
F-69.999999999999972
sS'circle'
p19
I557565
sS'id'
p20
S'4036.55616258'
p21
sS'ynorm'
p22
F0.0
sba(igraph
Vertex
p23
(dp24
g14
F0.47368421052631599
sg8
I00
sg15
g16
sg17
F-97.0
sg18
F-49.999999999999943
sg19
I557566
sg20
S'4036.55631512'
p25
sg22
F0.0
sbasS'wrap'
p26
I00
sS'curved'
p27
I00
sS'line'
p28
I557499
sg20
S'4036.60910926'
p29
sba(igraph
Edge
p30
(dp31
g7
I1
sg8
I00
sg9
I5
sg10
(lp32
g23
a(igraph
Vertex
p33
(dp34
g14
F0.5263157894736844
sg8
I00
sg15
g16
sg17
F-97.0
sg18
F-29.999999999999943
sg19
I557567
sg20
S'4036.55648525'
p35
sg22
F0.0
sbasg26
I00
sg27
I00
sg28
I557500
sg20
S'4036.60930733'
p36
sba(igraph
Edge
p37
(dp38
g7
I1
sg8
I00
sg9
I5
sg10
(lp39
g33
a(igraph
Vertex
p40
(dp41
g14
F0.57894736842105288
sg8
I00
sg15
g16
sg17
F-97.0
sg18
F-9.9999999999999432
sg19
I557568
sg20
S'4036.55667215'
p42
sg22
F0.0
sbasg26
I00
sg27
I00
sg28
I557501
sg20
S'4036.60961938'
p43
sba(igraph
Edge
p44
(dp45
g7
I1
sg8
I00
sg9
I5
sg10
(lp46
g40
a(igraph
Vertex
p47
(dp48
g14
F0.63157894736842124
sg8
I00
sg15
g16
sg17
F-97.0
sg18
F10.000000000000028
sg19
I557569
sg20
S'4036.55701241'
p49
sg22
F0.0
sbasg26
I00
sg27
I00
sg28
I557502
sg20
S'4036.609856'
p50
sba(igraph
Edge
p51
(dp52
g7
I1
sg8
I00
sg9
I5
sg10
(lp53
g47
a(igraph
Vertex
p54
(dp55
g14
F0.68421052631578971
sg8
I00
sg15
g16
sg17
F-97.0
sg18
F30.000000000000057
sg19
I557570
sg20
S'4036.55723646'
p56
sg22
F0.0
sbasg26
I00
sg27
I00
sg28
I557503
sg20
S'4036.61012'
p57
sba(igraph
Edge
p58
(dp59
g7
I1
sg8
I00
sg9
I5
sg10
(lp60
g54
a(igraph
Vertex
p61
(dp62
g14
F0.73684210526315796
sg8
I00
sg15
g16
sg17
F-97.0
sg18
F50.0
sg19
I557571
sg20
S'4036.55747644'
p63
sg22
F0.0
sbasg26
I00
sg27
I00
sg28
I557504
sg20
S'4036.6103773'
p64
sba(igraph
Edge
p65
(dp66
g7
I1
sg8
I00
sg9
I5
sg10
(lp67
g61
a(igraph
Vertex
p68
(dp69
g14
F0.78947368421052644
sg8
I00
sg15
g16
sg17
F-97.0
sg18
F70.0
sg19
I557572
sg20
S'4036.55773038'
p70
sg22
F0.0
sbasg26
I00
sg27
I00
sg28
I557505
sg20
S'4036.61093575'
p71
sba(igraph
Edge
p72
(dp73
g7
I1
sg8
I00
sg9
I5
sg10
(lp74
g68
a(igraph
Vertex
p75
(dp76
g14
F0.8421052631578948
sg8
I00
sg15
g16
sg17
F-97.0
sg18
F90.0
sg19
I557573
sg20
S'4036.55801841'
p77
sg22
F0.0
sbasg26
I00
sg27
I00
sg28
I557506
sg20
S'4036.61122824'
p78
sba(igraph
Edge
p79
(dp80
g7
I1
sg8
I00
sg9
I5
sg10
(lp81
g75
a(igraph
Vertex
p82
(dp83
g14
F0.89473684210526316
sg8
I00
sg15
g16
sg17
F-97.0
sg18
F109.99999999999994
sg19
I557574
sg20
S'4036.55830867'
p84
sg22
F0.0
sbasg26
I00
sg27
I00
sg28
I557507
sg20
S'4036.61155231'
p85
sba(igraph
Edge
p86
(dp87
g7
I1
sg8
I00
sg9
I5
sg10
(lp88
g82
a(igraph
Vertex
p89
(dp90
g14
F0.94736842105263153
sg8
I00
sg15
I0
sg17
F-97.0
sg18
F129.99999999999994
sg19
I557575
sg20
S'4036.55862379'
p91
sg22
F0.0
sbasg26
I00
sg27
I00
sg28
I557508
sg20
S'4036.61188838'
p92
sba(igraph
Edge
p93
(dp94
g7
I1
sg8
I00
sg9
I5
sg10
(lp95
g89
a(igraph
Vertex
p96
(dp97
g14
F1.0
sg8
I00
sg15
g16
sg17
F-97.0
sg18
F149.99999999999994
sg19
I557577
sg20
S'4036.55903222'
p98
sg22
F0.0
sbasg26
I00
sg27
I00
sg28
I557509
sg20
S'4036.61221999'
p99
sba(igraph
Edge
p100
(dp101
g7
I1
sg8
I00
sg9
I5
sg10
(lp102
(igraph
Vertex
p103
(dp104
g14
F0.42105263157894751
sg8
I00
sg15
I0
sg17
F-47.836734693877553
sg18
F-69.999999999999972
sg19
I557578
sg20
S'4036.56385993'
p105
sg22
F0.33673469387755101
sba(igraph
Vertex
p106
(dp107
g14
F0.47368421052631599
sg8
I00
sg15
g16
sg17
F-47.836734693877553
sg18
F-49.999999999999943
sg19
I557580
sg20
S'4036.56477988'
p108
sg22
F0.33673469387755101
sbasg26
I00
sg27
I00
sg28
I557510
sg20
S'4036.61660854'
p109
sba(igraph
Edge
p110
(dp111
g7
I1
sg8
I00
sg9
I5
sg10
(lp112
g106
a(igraph
Vertex
p113
(dp114
g14
F0.5263157894736844
sg8
I00
sg15
I0
sg17
F-47.836734693877553
sg18
F-29.999999999999943
sg19
I557581
sg20
S'4036.56537912'
p115
sg22
F0.33673469387755101
sbasg26
I00
sg27
I00
sg28
I557511
sg20
S'4036.61716168'
p116
sba(igraph
Edge
p117
(dp118
g7
I1
sg8
I00
sg9
I5
sg10
(lp119
g113
a(igraph
Vertex
p120
(dp121
g14
F0.57894736842105288
sg8
I00
sg15
g16
sg17
F-47.836734693877553
sg18
F-9.9999999999999432
sg19
I557583
sg20
S'4036.56616888'
p122
sg22
F0.33673469387755101
sbasg26
I00
sg27
I00
sg28
I557512
sg20
S'4036.61763828'
p123
sba(igraph
Edge
p124
(dp125
g7
I1
sg8
I00
sg9
I5
sg10
(lp126
g120
a(igraph
Vertex
p127
(dp128
g14
F0.63157894736842124
sg8
I00
sg15
I0
sg17
F-47.836734693877553
sg18
F10.000000000000028
sg19
I557584
sg20
S'4036.56685501'
p129
sg22
F0.33673469387755101
sbasg26
I00
sg27
I00
sg28
I557513
sg20
S'4036.61812633'
p130
sba(igraph
Edge
p131
(dp132
g7
I1
sg8
I00
sg9
I5
sg10
(lp133
g127
a(igraph
Vertex
p134
(dp135
g14
F0.68421052631578971
sg8
I00
sg15
g16
sg17
F-47.836734693877553
sg18
F30.000000000000057
sg19
I557586
sg20
S'4036.56747101'
p136
sg22
F0.33673469387755101
sbasg26
I00
sg27
I00
sg28
I557514
sg20
S'4036.61863086'
p137
sba(igraph
Edge
p138
(dp139
g7
I1
sg8
I00
sg9
I5
sg10
(lp140
g134
a(igraph
Vertex
p141
(dp142
g14
F0.73684210526315796
sg8
I00
sg15
I0
sg17
F-47.836734693877553
sg18
F50.0
sg19
I557587
sg20
S'4036.56824485'
p143
sg22
F0.33673469387755101
sbasg26
I00
sg27
I00
sg28
I557515
sg20
S'4036.61920188'
p144
sba(igraph
Edge
p145
(dp146
g7
I1
sg8
I00
sg9
I5
sg10
(lp147
g141
a(igraph
Vertex
p148
(dp149
g14
F0.78947368421052644
sg8
I00
sg15
g16
sg17
F-47.836734693877553
sg18
F70.0
sg19
I557589
sg20
S'4036.56988081'
p150
sg22
F0.33673469387755101
sbasg26
I00
sg27
I00
sg28
I557516
sg20
S'4036.61992628'
p151
sba(igraph
Edge
p152
(dp153
g7
I1
sg8
I00
sg9
I5
sg10
(lp154
g148
a(igraph
Vertex
p155
(dp156
g14
F0.8421052631578948
sg8
I00
sg15
I0
sg17
F-47.836734693877553
sg18
F90.0
sg19
I557590
sg20
S'4036.57081556'
p157
sg22
F0.33673469387755101
sbasg26
I00
sg27
I00
sg28
I557517
sg20
S'4036.62074509'
p158
sba(igraph
Edge
p159
(dp160
g7
I1
sg8
I00
sg9
I5
sg10
(lp161
g155
a(igraph
Vertex
p162
(dp163
g14
F0.89473684210526316
sg8
I00
sg15
g16
sg17
F-47.836734693877553
sg18
F109.99999999999994
sg19
I557592
sg20
S'4036.57186626'
p164
sg22
F0.33673469387755101
sbasg26
I00
sg27
I00
sg28
I557518
sg20
S'4036.62133902'
p165
sba(igraph
Edge
p166
(dp167
g7
I1
sg8
I00
sg9
I5
sg10
(lp168
g162
a(igraph
Vertex
p169
(dp170
g14
F0.94736842105263153
sg8
I00
sg15
g16
sg17
F-47.836734693877553
sg18
F129.99999999999994
sg19
I557593
sg20
S'4036.57261328'
p171
sg22
F0.33673469387755101
sbasg26
I00
sg27
I00
sg28
I557519
sg20
S'4036.62191312'
p172
sba(igraph
Edge
p173
(dp174
g7
I1
sg8
I00
sg9
I5
sg10
(lp175
g169
a(igraph
Vertex
p176
(dp177
g14
F1.0
sg8
I00
sg15
g16
sg17
F-47.836734693877553
sg18
F149.99999999999994
sg19
I557594
sg20
S'4036.57348462'
p178
sg22
F0.33673469387755101
sbasg26
I00
sg27
I00
sg28
I557520
sg20
S'4036.62253163'
p179
sba(igraph
Edge
p180
(dp181
g7
I1
sg8
I00
sg9
I5
sg10
(lp182
(igraph
Vertex
p183
(dp184
g14
F0.42105263157894751
sg8
I00
sg15
g16
sg17
F1.3265306122448948
sg18
F-69.999999999999972
sg19
I557595
sg20
S'4036.58291543'
p185
sg22
F0.67346938775510201
sba(igraph
Vertex
p186
(dp187
g14
F0.47368421052631599
sg8
I00
sg15
g16
sg17
F1.3265306122448948
sg18
F-49.999999999999943
sg19
I557596
sg20
S'4036.58388203'
p188
sg22
F0.67346938775510201
sbasg26
I00
sg27
I00
sg28
I557521
sg20
S'4036.63090728'
p189
sba(igraph
Edge
p190
(dp191
g7
I1
sg8
I00
sg9
I5
sg10
(lp192
g186
a(igraph
Vertex
p193
(dp194
g14
F0.5263157894736844
sg8
I00
sg15
I0
sg17
F1.3265306122448948
sg18
F-29.999999999999943
sg19
I557597
sg20
S'4036.5844483'
p195
sg22
F0.67346938775510201
sbasg26
I00
sg27
I00
sg28
I557522
sg20
S'4036.63167078'
p196
sba(igraph
Edge
p197
(dp198
g7
I1
sg8
I00
sg9
I5
sg10
(lp199
g193
a(igraph
Vertex
p200
(dp201
g14
F0.57894736842105288
sg8
I00
sg15
g16
sg17
F1.3265306122448948
sg18
F-9.9999999999999432
sg19
I557599
sg20
S'4036.58504978'
p202
sg22
F0.67346938775510201
sbasg26
I00
sg27
I00
sg28
I557523
sg20
S'4036.63312516'
p203
sba(igraph
Edge
p204
(dp205
g7
I1
sg8
I00
sg9
I5
sg10
(lp206
g200
a(igraph
Vertex
p207
(dp208
g14
F0.63157894736842124
sg8
I00
sg15
g16
sg17
F1.3265306122448948
sg18
F10.000000000000028
sg19
I557600
sg20
S'4036.58562136'
p209
sg22
F0.67346938775510201
sbasg26
I00
sg27
I00
sg28
I557524
sg20
S'4036.6340155'
p210
sba(igraph
Edge
p211
(dp212
g7
I1
sg8
I00
sg9
I5
sg10
(lp213
g207
a(igraph
Vertex
p214
(dp215
g14
F0.68421052631578971
sg8
I00
sg15
g16
sg17
F1.3265306122448948
sg18
F30.000000000000057
sg19
I557601
sg20
S'4036.58616668'
p216
sg22
F0.67346938775510201
sbasg26
I00
sg27
I00
sg28
I557525
sg20
S'4036.63489354'
p217
sba(igraph
Edge
p218
(dp219
g7
I1
sg8
I00
sg9
I5
sg10
(lp220
g214
a(igraph
Vertex
p221
(dp222
g14
F0.73684210526315796
sg8
I00
sg15
I0
sg17
F1.3265306122448948
sg18
F50.0
sg19
I557602
sg20
S'4036.58700673'
p223
sg22
F0.67346938775510201
sbasg26
I00
sg27
I00
sg28
I557526
sg20
S'4036.63574337'
p224
sba(igraph
Edge
p225
(dp226
g7
I1
sg8
I00
sg9
I5
sg10
(lp227
g221
a(igraph
Vertex
p228
(dp229
g14
F0.78947368421052644
sg8
I00
sg15
g16
sg17
F1.3265306122448948
sg18
F70.0
sg19
I557604
sg20
S'4036.58772945'
p230
sg22
F0.67346938775510201
sbasg26
I00
sg27
I00
sg28
I557527
sg20
S'4036.63662812'
p231
sba(igraph
Edge
p232
(dp233
g7
I1
sg8
I00
sg9
I5
sg10
(lp234
g228
a(igraph
Vertex
p235
(dp236
g14
F0.8421052631578948
sg8
I00
sg15
g16
sg17
F1.3265306122448948
sg18
F90.0
sg19
I557605
sg20
S'4036.58837534'
p237
sg22
F0.67346938775510201
sbasg26
I00
sg27
I00
sg28
I557528
sg20
S'4036.63758383'
p238
sba(igraph
Edge
p239
(dp240
g7
I1
sg8
I00
sg9
I5
sg10
(lp241
g235
a(igraph
Vertex
p242
(dp243
g14
F0.89473684210526316
sg8
I00
sg15
g16
sg17
F1.3265306122448948
sg18
F109.99999999999994
sg19
I557606
sg20
S'4036.58899246'
p244
sg22
F0.67346938775510201
sbasg26
I00
sg27
I00
sg28
I557529
sg20
S'4036.63847556'
p245
sba(igraph
Edge
p246
(dp247
g7
I1
sg8
I00
sg9
I5
sg10
(lp248
g242
a(igraph
Vertex
p249
(dp250
g14
F0.94736842105263153
sg8
I01
sg15
I0
sg17
F1.3265306122448948
sg18
F129.99999999999994
sg19
I557608
sg20
S'4036.58981072'
p251
sg22
F0.67346938775510201
sbasg26
I00
sg27
I00
sg28
I557530
sg20
S'4036.6393754'
p252
sba(igraph
Edge
p253
(dp254
g7
I1
sg8
I00
sg9
I5
sg10
(lp255
g249
a(igraph
Vertex
p256
(dp257
g14
F1.0
sg8
I00
sg15
g16
sg17
F1.3265306122448948
sg18
F149.99999999999994
sg19
I557610
sg20
S'4036.59063205'
p258
sg22
F0.67346938775510201
sbasg26
I00
sg27
I00
sg28
I557531
sg20
S'4036.64030317'
p259
sba(igraph
Edge
p260
(dp261
g7
I1
sg8
I00
sg9
I5
sg10
(lp262
(igraph
Vertex
p263
(dp264
g14
F0.42105263157894751
sg8
I00
sg15
g16
sg17
F50.489795918367321
sg18
F-69.999999999999972
sg19
I557611
sg20
S'4036.5974399'
p265
sg22
F1.010204081632653
sba(igraph
Vertex
p266
(dp267
g14
F0.47368421052631599
sg8
I00
sg15
g16
sg17
F50.489795918367321
sg18
F-49.999999999999943
sg19
I557612
sg20
S'4036.59827017'
p268
sg22
F1.010204081632653
sbasg26
I00
sg27
I00
sg28
I557532
sg20
S'4036.65179122'
p269
sba(igraph
Edge
p270
(dp271
g7
I1
sg8
I00
sg9
I5
sg10
(lp272
g266
a(igraph
Vertex
p273
(dp274
g14
F0.5263157894736844
sg8
I00
sg15
g16
sg17
F50.489795918367321
sg18
F-29.999999999999943
sg19
I557613
sg20
S'4036.59909318'
p275
sg22
F1.010204081632653
sbasg26
I00
sg27
I00
sg28
I557533
sg20
S'4036.65293578'
p276
sba(igraph
Edge
p277
(dp278
g7
I1
sg8
I00
sg9
I5
sg10
(lp279
g273
a(igraph
Vertex
p280
(dp281
g14
F0.57894736842105288
sg8
I00
sg15
g16
sg17
F50.489795918367321
sg18
F-9.9999999999999432
sg19
I557614
sg20
S'4036.59992737'
p282
sg22
F1.010204081632653
sbasg26
I00
sg27
I00
sg28
I557534
sg20
S'4036.65406693'
p283
sba(igraph
Edge
p284
(dp285
g7
I1
sg8
I00
sg9
I5
sg10
(lp286
g280
a(igraph
Vertex
p287
(dp288
g14
F0.63157894736842124
sg8
I00
sg15
g16
sg17
F50.489795918367321
sg18
F10.000000000000028
sg19
I557615
sg20
S'4036.60071545'
p289
sg22
F1.010204081632653
sbasg26
I00
sg27
I00
sg28
I557535
sg20
S'4036.65521791'
p290
sba(igraph
Edge
p291
(dp292
g7
I1
sg8
I00
sg9
I5
sg10
(lp293
g287
a(igraph
Vertex
p294
(dp295
g14
F0.68421052631578971
sg8
I00
sg15
g16
sg17
F50.489795918367321
sg18
F30.000000000000057
sg19
I557616
sg20
S'4036.6016368'
p296
sg22
F1.010204081632653
sbasg26
I00
sg27
I00
sg28
I557536
sg20
S'4036.65645047'
p297
sba(igraph
Edge
p298
(dp299
g7
I1
sg8
I00
sg9
I5
sg10
(lp300
g294
a(igraph
Vertex
p301
(dp302
g14
F0.73684210526315796
sg8
I00
sg15
g16
sg17
F50.489795918367321
sg18
F50.0
sg19
I557617
sg20
S'4036.60252127'
p303
sg22
F1.010204081632653
sbasg26
I00
sg27
I00
sg28
I557537
sg20
S'4036.65777382'
p304
sba(igraph
Edge
p305
(dp306
g7
I1
sg8
I00
sg9
I5
sg10
(lp307
g301
a(igraph
Vertex
p308
(dp309
g14
F0.78947368421052644
sg8
I00
sg15
g16
sg17
F50.489795918367321
sg18
F70.0
sg19
I557618
sg20
S'4036.60338171'
p310
sg22
F1.010204081632653
sbasg26
I00
sg27
I00
sg28
I557538
sg20
S'4036.65903572'
p311
sba(igraph
Edge
p312
(dp313
g7
I1
sg8
I00
sg9
I5
sg10
(lp314
g308
a(igraph
Vertex
p315
(dp316
g14
F0.8421052631578948
sg8
I00
sg15
g16
sg17
F50.489795918367321
sg18
F90.0
sg19
I557619
sg20
S'4036.6042687'
p317
sg22
F1.010204081632653
sbasg26
I00
sg27
I00
sg28
I557539
sg20
S'4036.6607566'
p318
sba(igraph
Edge
p319
(dp320
g7
I1
sg8
I00
sg9
I5
sg10
(lp321
g315
a(igraph
Vertex
p322
(dp323
g14
F0.89473684210526316
sg8
I00
sg15
I0
sg17
F50.489795918367321
sg18
F109.99999999999994
sg19
I557620
sg20
S'4036.60513082'
p324
sg22
F1.010204081632653
sbasg26
I00
sg27
I00
sg28
I557540
sg20
S'4036.66223109'
p325
sba(igraph
Edge
p326
(dp327
g7
I1
sg8
I00
sg9
I5
sg10
(lp328
g322
a(igraph
Vertex
p329
(dp330
g14
F0.94736842105263153
sg8
I00
sg15
g16
sg17
F50.489795918367321
sg18
F129.99999999999994
sg19
I557622
sg20
S'4036.60600607'
p331
sg22
F1.010204081632653
sbasg26
I00
sg27
I00
sg28
I557541
sg20
S'4036.66378101'
p332
sba(igraph
Edge
p333
(dp334
g7
I1
sg8
I00
sg9
I5
sg10
(lp335
g329
a(igraph
Vertex
p336
(dp337
g14
F1.0
sg8
I00
sg15
g16
sg17
F50.489795918367321
sg18
F149.99999999999994
sg19
I557623
sg20
S'4036.60705285'
p338
sg22
F1.010204081632653
sbasg26
I00
sg27
I00
sg28
I557542
sg20
S'4036.66541949'
p339
sba(igraph
Edge
p340
(dp341
g7
I1
sg8
I00
sg9
I5
sg10
(lp342
g12
ag106
asg26
I00
sg27
I00
sg28
I557543
sg20
S'4036.67501736'
p343
sba(igraph
Edge
p344
(dp345
g7
I1
sg8
I00
sg9
I5
sg10
(lp346
g33
ag120
asg26
I00
sg27
I00
sg28
I557544
sg20
S'4036.67665164'
p347
sba(igraph
Edge
p348
(dp349
g7
I1
sg8
I00
sg9
I5
sg10
(lp350
g47
ag134
asg26
I00
sg27
I00
sg28
I557545
sg20
S'4036.67837197'
p351
sba(igraph
Edge
p352
(dp353
g7
I1
sg8
I00
sg9
I5
sg10
(lp354
g61
ag148
asg26
I00
sg27
I00
sg28
I557546
sg20
S'4036.68021019'
p355
sba(igraph
Edge
p356
(dp357
g7
I1
sg8
I00
sg9
I5
sg10
(lp358
g75
ag162
asg26
I00
sg27
I00
sg28
I557547
sg20
S'4036.68194589'
p359
sba(igraph
Edge
p360
(dp361
g7
I1
sg8
I00
sg9
I5
sg10
(lp362
g89
ag176
asg26
I00
sg27
I00
sg28
I557548
sg20
S'4036.68370421'
p363
sba(igraph
Edge
p364
(dp365
g7
I1
sg8
I00
sg9
I5
sg10
(lp366
g103
ag186
asg26
I00
sg27
I00
sg28
I557549
sg20
S'4036.6925721'
p367
sba(igraph
Edge
p368
(dp369
g7
I1
sg8
I00
sg9
I5
sg10
(lp370
g113
ag200
asg26
I00
sg27
I00
sg28
I557550
sg20
S'4036.69435222'
p371
sba(igraph
Edge
p372
(dp373
g7
I1
sg8
I00
sg9
I5
sg10
(lp374
g127
ag214
asg26
I00
sg27
I00
sg28
I557551
sg20
S'4036.69624212'
p375
sba(igraph
Edge
p376
(dp377
g7
I1
sg8
I00
sg9
I5
sg10
(lp378
g141
ag228
asg26
I00
sg27
I00
sg28
I557552
sg20
S'4036.69803928'
p379
sba(igraph
Edge
p380
(dp381
g7
I1
sg8
I00
sg9
I5
sg10
(lp382
g155
ag242
asg26
I00
sg27
I00
sg28
I557553
sg20
S'4036.69972776'
p383
sba(igraph
Edge
p384
(dp385
g7
I1
sg8
I00
sg9
I5
sg10
(lp386
g169
ag256
asg26
I00
sg27
I00
sg28
I557554
sg20
S'4036.70153553'
p387
sba(igraph
Edge
p388
(dp389
g7
I1
sg8
I00
sg9
I5
sg10
(lp390
g183
ag266
asg26
I00
sg27
I00
sg28
I557555
sg20
S'4036.70981368'
p391
sba(igraph
Edge
p392
(dp393
g7
I1
sg8
I00
sg9
I5
sg10
(lp394
g193
ag280
asg26
I00
sg27
I00
sg28
I557556
sg20
S'4036.71158457'
p395
sba(igraph
Edge
p396
(dp397
g7
I1
sg8
I00
sg9
I5
sg10
(lp398
g207
ag294
asg26
I00
sg27
I00
sg28
I557557
sg20
S'4036.71325825'
p399
sba(igraph
Edge
p400
(dp401
g7
I1
sg8
I00
sg9
I5
sg10
(lp402
g221
ag308
asg26
I00
sg27
I00
sg28
I557558
sg20
S'4036.71528448'
p403
sba(igraph
Edge
p404
(dp405
g7
I1
sg8
I00
sg9
I5
sg10
(lp406
g235
ag322
asg26
I00
sg27
I00
sg28
I557559
sg20
S'4036.71704029'
p407
sba(igraph
Edge
p408
(dp409
g7
I1
sg8
I00
sg9
I5
sg10
(lp410
g249
ag336
asg26
I00
sg27
I00
sg28
I557560
sg20
S'4036.71880672'
p411
sba(igraph
Edge
p412
(dp413
g7
I1
sg8
I00
sg9
I5
sg10
(lp414
g336
ag263
asg26
I00
sg27
I00
sg28
I557561
sg20
S'4545.70787432'
p415
sba(igraph
Edge
p416
(dp417
g7
I1
sg8
I00
sg9
I5
sg10
(lp418
g183
ag256
asg26
I00
sg27
I00
sg28
I557562
sg20
S'4549.07323193'
p419
sba(igraph
Edge
p420
(dp421
g7
I1
sg8
I00
sg9
I5
sg10
(lp422
g176
ag103
asg26
I00
sg27
I00
sg28
I557563
sg20
S'4553.23804981'
p423
sba(igraph
Edge
p424
(dp425
g7
I1
sg8
I00
sg9
I5
sg10
(lp426
g12
ag96
asg26
I00
sg27
I00
sg28
I557564
sg20
S'4556.59931611'
p427
sbasS'vertices'
p428
(lp429
g12
ag23
ag33
ag40
ag47
ag54
ag61
ag68
ag75
ag82
ag89
ag96
ag103
ag106
ag113
ag120
ag127
ag134
ag141
ag148
ag155
ag162
ag169
ag176
ag183
ag186
ag193
ag200
ag207
ag214
ag221
ag228
ag235
ag242
ag249
ag256
ag263
ag266
ag273
ag280
ag287
ag294
ag301
ag308
ag315
ag322
ag329
ag336
asS'tags'
p430
(lp431
sb.