(igraph
Graph
p0
(dp1
S'labelingConstraints'
p2
I-1
sS'edges'
p3
(lp4
(igraph
Edge
p5
(dp6
S'direction'
p7
I1
sS'selected'
p8
I00
sS'height'
p9
I5
sS'vs'
p10
(lp11
(igraph
Vertex
p12
(dp13
S'xnorm'
p14
F0.31578947368421062
sg8
I00
sS'label'
p15
S'NULL'
p16
sS'y'
p17
F-97.0
sS'x'
p18
F-109.99999999999999
sS'circle'
p19
I553822
sS'id'
p20
S'4036.55590641'
p21
sS'ynorm'
p22
F0.0
sba(igraph
Vertex
p23
(dp24
g14
F0.36842105263157909
sg8
I00
sg15
g16
sg17
F-97.0
sg18
F-89.999999999999972
sg19
I553823
sg20
S'4036.5560257'
p25
sg22
F0.0
sbasS'wrap'
p26
I00
sS'curved'
p27
I00
sS'line'
p28
I553745
sg20
S'4036.60876089'
p29
sba(igraph
Edge
p30
(dp31
g7
I1
sg8
I00
sg9
I5
sg10
(lp32
g23
a(igraph
Vertex
p33
(dp34
g14
F0.42105263157894751
sg8
I00
sg15
g16
sg17
F-97.0
sg18
F-69.999999999999972
sg19
I553824
sg20
S'4036.55616258'
p35
sg22
F0.0
sbasg26
I00
sg27
I00
sg28
I553746
sg20
S'4036.60892795'
p36
sba(igraph
Edge
p37
(dp38
g7
I1
sg8
I00
sg9
I5
sg10
(lp39
g33
a(igraph
Vertex
p40
(dp41
g14
F0.47368421052631599
sg8
I00
sg15
g16
sg17
F-97.0
sg18
F-49.999999999999943
sg19
I553825
sg20
S'4036.55631512'
p42
sg22
F0.0
sbasg26
I00
sg27
I00
sg28
I553747
sg20
S'4036.60910926'
p43
sba(igraph
Edge
p44
(dp45
g7
I1
sg8
I00
sg9
I5
sg10
(lp46
g40
a(igraph
Vertex
p47
(dp48
g14
F0.5263157894736844
sg8
I00
sg15
g16
sg17
F-97.0
sg18
F-29.999999999999943
sg19
I553826
sg20
S'4036.55648525'
p49
sg22
F0.0
sbasg26
I00
sg27
I00
sg28
I553748
sg20
S'4036.60930733'
p50
sba(igraph
Edge
p51
(dp52
g7
I1
sg8
I00
sg9
I5
sg10
(lp53
g47
a(igraph
Vertex
p54
(dp55
g14
F0.57894736842105288
sg8
I00
sg15
g16
sg17
F-97.0
sg18
F-9.9999999999999432
sg19
I553827
sg20
S'4036.55667215'
p56
sg22
F0.0
sbasg26
I00
sg27
I00
sg28
I553749
sg20
S'4036.60961938'
p57
sba(igraph
Edge
p58
(dp59
g7
I1
sg8
I00
sg9
I5
sg10
(lp60
g54
a(igraph
Vertex
p61
(dp62
g14
F0.63157894736842124
sg8
I00
sg15
g16
sg17
F-97.0
sg18
F10.000000000000028
sg19
I553828
sg20
S'4036.55701241'
p63
sg22
F0.0
sbasg26
I00
sg27
I00
sg28
I553750
sg20
S'4036.609856'
p64
sba(igraph
Edge
p65
(dp66
g7
I1
sg8
I00
sg9
I5
sg10
(lp67
g61
a(igraph
Vertex
p68
(dp69
g14
F0.68421052631578971
sg8
I00
sg15
g16
sg17
F-97.0
sg18
F30.000000000000057
sg19
I553829
sg20
S'4036.55723646'
p70
sg22
F0.0
sbasg26
I00
sg27
I00
sg28
I553751
sg20
S'4036.61012'
p71
sba(igraph
Edge
p72
(dp73
g7
I1
sg8
I00
sg9
I5
sg10
(lp74
g68
a(igraph
Vertex
p75
(dp76
g14
F0.73684210526315796
sg8
I00
sg15
g16
sg17
F-97.0
sg18
F50.0
sg19
I553830
sg20
S'4036.55747644'
p77
sg22
F0.0
sbasg26
I00
sg27
I00
sg28
I553752
sg20
S'4036.6103773'
p78
sba(igraph
Edge
p79
(dp80
g7
I1
sg8
I00
sg9
I5
sg10
(lp81
g75
a(igraph
Vertex
p82
(dp83
g14
F0.78947368421052644
sg8
I00
sg15
g16
sg17
F-97.0
sg18
F70.0
sg19
I553831
sg20
S'4036.55773038'
p84
sg22
F0.0
sbasg26
I00
sg27
I00
sg28
I553753
sg20
S'4036.61093575'
p85
sba(igraph
Edge
p86
(dp87
g7
I1
sg8
I00
sg9
I5
sg10
(lp88
g82
a(igraph
Vertex
p89
(dp90
g14
F0.8421052631578948
sg8
I00
sg15
g16
sg17
F-97.0
sg18
F90.0
sg19
I553832
sg20
S'4036.55801841'
p91
sg22
F0.0
sbasg26
I00
sg27
I00
sg28
I553754
sg20
S'4036.61122824'
p92
sba(igraph
Edge
p93
(dp94
g7
I1
sg8
I00
sg9
I5
sg10
(lp95
g89
a(igraph
Vertex
p96
(dp97
g14
F0.89473684210526316
sg8
I00
sg15
g16
sg17
F-97.0
sg18
F109.99999999999994
sg19
I553833
sg20
S'4036.55830867'
p98
sg22
F0.0
sbasg26
I00
sg27
I00
sg28
I553755
sg20
S'4036.61155231'
p99
sba(igraph
Edge
p100
(dp101
g7
I1
sg8
I00
sg9
I5
sg10
(lp102
g96
a(igraph
Vertex
p103
(dp104
g14
F0.94736842105263153
sg8
I00
sg15
I0
sg17
F-97.0
sg18
F129.99999999999994
sg19
I553834
sg20
S'4036.55862379'
p105
sg22
F0.0
sbasg26
I00
sg27
I00
sg28
I553756
sg20
S'4036.61188838'
p106
sba(igraph
Edge
p107
(dp108
g7
I1
sg8
I00
sg9
I5
sg10
(lp109
g103
a(igraph
Vertex
p110
(dp111
g14
F1.0
sg8
I00
sg15
g16
sg17
F-97.0
sg18
F149.99999999999994
sg19
I553836
sg20
S'4036.55903222'
p112
sg22
F0.0
sbasg26
I00
sg27
I00
sg28
I553757
sg20
S'4036.61221999'
p113
sba(igraph
Edge
p114
(dp115
g7
I1
sg8
I00
sg9
I5
sg10
(lp116
(igraph
Vertex
p117
(dp118
g14
F0.31578947368421062
sg8
I00
sg15
I0
sg17
F-47.836734693877553
sg18
F-109.99999999999999
sg19
I553837
sg20
S'4036.56224325'
p119
sg22
F0.33673469387755101
sba(igraph
Vertex
p120
(dp121
g14
F0.36842105263157909
sg8
I00
sg15
g16
sg17
F-47.836734693877553
sg18
F-89.999999999999972
sg19
I553839
sg20
S'4036.56327327'
p122
sg22
F0.33673469387755101
sbasg26
I00
sg27
I00
sg28
I553758
sg20
S'4036.61570647'
p123
sba(igraph
Edge
p124
(dp125
g7
I1
sg8
I00
sg9
I5
sg10
(lp126
g120
a(igraph
Vertex
p127
(dp128
g14
F0.42105263157894751
sg8
I00
sg15
I0
sg17
F-47.836734693877553
sg18
F-69.999999999999972
sg19
I553840
sg20
S'4036.56385993'
p129
sg22
F0.33673469387755101
sbasg26
I00
sg27
I00
sg28
I553759
sg20
S'4036.61614619'
p130
sba(igraph
Edge
p131
(dp132
g7
I1
sg8
I00
sg9
I5
sg10
(lp133
g127
a(igraph
Vertex
p134
(dp135
g14
F0.47368421052631599
sg8
I00
sg15
g16
sg17
F-47.836734693877553
sg18
F-49.999999999999943
sg19
I553842
sg20
S'4036.56477988'
p136
sg22
F0.33673469387755101
sbasg26
I00
sg27
I00
sg28
I553760
sg20
S'4036.61660854'
p137
sba(igraph
Edge
p138
(dp139
g7
I1
sg8
I00
sg9
I5
sg10
(lp140
g134
a(igraph
Vertex
p141
(dp142
g14
F0.5263157894736844
sg8
I00
sg15
I0
sg17
F-47.836734693877553
sg18
F-29.999999999999943
sg19
I553843
sg20
S'4036.56537912'
p143
sg22
F0.33673469387755101
sbasg26
I00
sg27
I00
sg28
I553761
sg20
S'4036.61716168'
p144
sba(igraph
Edge
p145
(dp146
g7
I1
sg8
I00
sg9
I5
sg10
(lp147
g141
a(igraph
Vertex
p148
(dp149
g14
F0.57894736842105288
sg8
I00
sg15
g16
sg17
F-47.836734693877553
sg18
F-9.9999999999999432
sg19
I553845
sg20
S'4036.56616888'
p150
sg22
F0.33673469387755101
sbasg26
I00
sg27
I00
sg28
I553762
sg20
S'4036.61763828'
p151
sba(igraph
Edge
p152
(dp153
g7
I1
sg8
I00
sg9
I5
sg10
(lp154
g148
a(igraph
Vertex
p155
(dp156
g14
F0.63157894736842124
sg8
I00
sg15
I0
sg17
F-47.836734693877553
sg18
F10.000000000000028
sg19
I553846
sg20
S'4036.56685501'
p157
sg22
F0.33673469387755101
sbasg26
I00
sg27
I00
sg28
I553763
sg20
S'4036.61812633'
p158
sba(igraph
Edge
p159
(dp160
g7
I1
sg8
I00
sg9
I5
sg10
(lp161
g155
a(igraph
Vertex
p162
(dp163
g14
F0.68421052631578971
sg8
I00
sg15
g16
sg17
F-47.836734693877553
sg18
F30.000000000000057
sg19
I553848
sg20
S'4036.56747101'
p164
sg22
F0.33673469387755101
sbasg26
I00
sg27
I00
sg28
I553764
sg20
S'4036.61863086'
p165
sba(igraph
Edge
p166
(dp167
g7
I1
sg8
I00
sg9
I5
sg10
(lp168
g162
a(igraph
Vertex
p169
(dp170
g14
F0.73684210526315796
sg8
I00
sg15
I0
sg17
F-47.836734693877553
sg18
F50.0
sg19
I553849
sg20
S'4036.56824485'
p171
sg22
F0.33673469387755101
sbasg26
I00
sg27
I00
sg28
I553765
sg20
S'4036.61920188'
p172
sba(igraph
Edge
p173
(dp174
g7
I1
sg8
I00
sg9
I5
sg10
(lp175
g169
a(igraph
Vertex
p176
(dp177
g14
F0.78947368421052644
sg8
I00
sg15
g16
sg17
F-47.836734693877553
sg18
F70.0
sg19
I553851
sg20
S'4036.56988081'
p178
sg22
F0.33673469387755101
sbasg26
I00
sg27
I00
sg28
I553766
sg20
S'4036.61992628'
p179
sba(igraph
Edge
p180
(dp181
g7
I1
sg8
I00
sg9
I5
sg10
(lp182
g176
a(igraph
Vertex
p183
(dp184
g14
F0.8421052631578948
sg8
I00
sg15
I0
sg17
F-47.836734693877553
sg18
F90.0
sg19
I553852
sg20
S'4036.57081556'
p185
sg22
F0.33673469387755101
sbasg26
I00
sg27
I00
sg28
I553767
sg20
S'4036.62074509'
p186
sba(igraph
Edge
p187
(dp188
g7
I1
sg8
I00
sg9
I5
sg10
(lp189
g183
a(igraph
Vertex
p190
(dp191
g14
F0.89473684210526316
sg8
I00
sg15
g16
sg17
F-47.836734693877553
sg18
F109.99999999999994
sg19
I553854
sg20
S'4036.57186626'
p192
sg22
F0.33673469387755101
sbasg26
I00
sg27
I00
sg28
I553768
sg20
S'4036.62133902'
p193
sba(igraph
Edge
p194
(dp195
g7
I1
sg8
I00
sg9
I5
sg10
(lp196
g190
a(igraph
Vertex
p197
(dp198
g14
F0.94736842105263153
sg8
I00
sg15
g16
sg17
F-47.836734693877553
sg18
F129.99999999999994
sg19
I553855
sg20
S'4036.57261328'
p199
sg22
F0.33673469387755101
sbasg26
I00
sg27
I00
sg28
I553769
sg20
S'4036.62191312'
p200
sba(igraph
Edge
p201
(dp202
g7
I1
sg8
I00
sg9
I5
sg10
(lp203
g197
a(igraph
Vertex
p204
(dp205
g14
F1.0
sg8
I00
sg15
g16
sg17
F-47.836734693877553
sg18
F149.99999999999994
sg19
I553856
sg20
S'4036.57348462'
p206
sg22
F0.33673469387755101
sbasg26
I00
sg27
I00
sg28
I553770
sg20
S'4036.62253163'
p207
sba(igraph
Edge
p208
(dp209
g7
I1
sg8
I00
sg9
I5
sg10
(lp210
(igraph
Vertex
p211
(dp212
g14
F0.31578947368421062
sg8
I00
sg15
I0
sg17
F1.3265306122448948
sg18
F-109.99999999999999
sg19
I553857
sg20
S'4036.57981252'
p213
sg22
F0.67346938775510201
sba(igraph
Vertex
p214
(dp215
g14
F0.36842105263157909
sg8
I00
sg15
g16
sg17
F1.3265306122448948
sg18
F-89.999999999999972
sg19
I553859
sg20
S'4036.58190664'
p216
sg22
F0.67346938775510201
sbasg26
I00
sg27
I00
sg28
I553771
sg20
S'4036.6291389'
p217
sba(igraph
Edge
p218
(dp219
g7
I1
sg8
I00
sg9
I5
sg10
(lp220
g214
a(igraph
Vertex
p221
(dp222
g14
F0.42105263157894751
sg8
I00
sg15
g16
sg17
F1.3265306122448948
sg18
F-69.999999999999972
sg19
I553860
sg20
S'4036.58291543'
p223
sg22
F0.67346938775510201
sbasg26
I00
sg27
I00
sg28
I553772
sg20
S'4036.62997085'
p224
sba(igraph
Edge
p225
(dp226
g7
I1
sg8
I00
sg9
I5
sg10
(lp227
g221
a(igraph
Vertex
p228
(dp229
g14
F0.47368421052631599
sg8
I00
sg15
g16
sg17
F1.3265306122448948
sg18
F-49.999999999999943
sg19
I553861
sg20
S'4036.58388203'
p230
sg22
F0.67346938775510201
sbasg26
I00
sg27
I00
sg28
I553773
sg20
S'4036.63090728'
p231
sba(igraph
Edge
p232
(dp233
g7
I1
sg8
I00
sg9
I5
sg10
(lp234
g228
a(igraph
Vertex
p235
(dp236
g14
F0.5263157894736844
sg8
I00
sg15
I0
sg17
F1.3265306122448948
sg18
F-29.999999999999943
sg19
I553862
sg20
S'4036.5844483'
p237
sg22
F0.67346938775510201
sbasg26
I00
sg27
I00
sg28
I553774
sg20
S'4036.63167078'
p238
sba(igraph
Edge
p239
(dp240
g7
I1
sg8
I00
sg9
I5
sg10
(lp241
g235
a(igraph
Vertex
p242
(dp243
g14
F0.57894736842105288
sg8
I00
sg15
g16
sg17
F1.3265306122448948
sg18
F-9.9999999999999432
sg19
I553864
sg20
S'4036.58504978'
p244
sg22
F0.67346938775510201
sbasg26
I00
sg27
I00
sg28
I553775
sg20
S'4036.63312516'
p245
sba(igraph
Edge
p246
(dp247
g7
I1
sg8
I00
sg9
I5
sg10
(lp248
g242
a(igraph
Vertex
p249
(dp250
g14
F0.63157894736842124
sg8
I00
sg15
g16
sg17
F1.3265306122448948
sg18
F10.000000000000028
sg19
I553865
sg20
S'4036.58562136'
p251
sg22
F0.67346938775510201
sbasg26
I00
sg27
I00
sg28
I553776
sg20
S'4036.6340155'
p252
sba(igraph
Edge
p253
(dp254
g7
I1
sg8
I00
sg9
I5
sg10
(lp255
g249
a(igraph
Vertex
p256
(dp257
g14
F0.68421052631578971
sg8
I00
sg15
g16
sg17
F1.3265306122448948
sg18
F30.000000000000057
sg19
I553866
sg20
S'4036.58616668'
p258
sg22
F0.67346938775510201
sbasg26
I00
sg27
I00
sg28
I553777
sg20
S'4036.63489354'
p259
sba(igraph
Edge
p260
(dp261
g7
I1
sg8
I00
sg9
I5
sg10
(lp262
g256
a(igraph
Vertex
p263
(dp264
g14
F0.73684210526315796
sg8
I00
sg15
I0
sg17
F1.3265306122448948
sg18
F50.0
sg19
I553867
sg20
S'4036.58700673'
p265
sg22
F0.67346938775510201
sbasg26
I00
sg27
I00
sg28
I553778
sg20
S'4036.63574337'
p266
sba(igraph
Edge
p267
(dp268
g7
I1
sg8
I00
sg9
I5
sg10
(lp269
g263
a(igraph
Vertex
p270
(dp271
g14
F0.78947368421052644
sg8
I00
sg15
g16
sg17
F1.3265306122448948
sg18
F70.0
sg19
I553869
sg20
S'4036.58772945'
p272
sg22
F0.67346938775510201
sbasg26
I00
sg27
I00
sg28
I553779
sg20
S'4036.63662812'
p273
sba(igraph
Edge
p274
(dp275
g7
I1
sg8
I00
sg9
I5
sg10
(lp276
g270
a(igraph
Vertex
p277
(dp278
g14
F0.8421052631578948
sg8
I00
sg15
g16
sg17
F1.3265306122448948
sg18
F90.0
sg19
I553870
sg20
S'4036.58837534'
p279
sg22
F0.67346938775510201
sbasg26
I00
sg27
I00
sg28
I553780
sg20
S'4036.63758383'
p280
sba(igraph
Edge
p281
(dp282
g7
I1
sg8
I00
sg9
I5
sg10
(lp283
g277
a(igraph
Vertex
p284
(dp285
g14
F0.89473684210526316
sg8
I00
sg15
g16
sg17
F1.3265306122448948
sg18
F109.99999999999994
sg19
I553871
sg20
S'4036.58899246'
p286
sg22
F0.67346938775510201
sbasg26
I00
sg27
I00
sg28
I553781
sg20
S'4036.63847556'
p287
sba(igraph
Edge
p288
(dp289
g7
I1
sg8
I00
sg9
I5
sg10
(lp290
g284
a(igraph
Vertex
p291
(dp292
g14
F0.94736842105263153
sg8
I00
sg15
g16
sg17
F1.3265306122448948
sg18
F129.99999999999994
sg19
I553872
sg20
S'4036.58981072'
p293
sg22
F0.67346938775510201
sbasg26
I00
sg27
I00
sg28
I553782
sg20
S'4036.6393754'
p294
sba(igraph
Edge
p295
(dp296
g7
I1
sg8
I00
sg9
I5
sg10
(lp297
g291
a(igraph
Vertex
p298
(dp299
g14
F1.0
sg8
I00
sg15
g16
sg17
F1.3265306122448948
sg18
F149.99999999999994
sg19
I553873
sg20
S'4036.59063205'
p300
sg22
F0.67346938775510201
sbasg26
I00
sg27
I00
sg28
I553783
sg20
S'4036.64030317'
p301
sba(igraph
Edge
p302
(dp303
g7
I1
sg8
I00
sg9
I5
sg10
(lp304
(igraph
Vertex
p305
(dp306
g14
F0.31578947368421062
sg8
I00
sg15
g16
sg17
F50.489795918367321
sg18
F-109.99999999999999
sg19
I553874
sg20
S'4036.59592658'
p307
sg22
F1.010204081632653
sba(igraph
Vertex
p308
(dp309
g14
F0.36842105263157909
sg8
I00
sg15
g16
sg17
F50.489795918367321
sg18
F-89.999999999999972
sg19
I553875
sg20
S'4036.59666298'
p310
sg22
F1.010204081632653
sbasg26
I00
sg27
I00
sg28
I553784
sg20
S'4036.64926464'
p311
sba(igraph
Edge
p312
(dp313
g7
I1
sg8
I00
sg9
I5
sg10
(lp314
g308
a(igraph
Vertex
p315
(dp316
g14
F0.42105263157894751
sg8
I00
sg15
g16
sg17
F50.489795918367321
sg18
F-69.999999999999972
sg19
I553876
sg20
S'4036.5974399'
p317
sg22
F1.010204081632653
sbasg26
I00
sg27
I00
sg28
I553785
sg20
S'4036.65042205'
p318
sba(igraph
Edge
p319
(dp320
g7
I1
sg8
I00
sg9
I5
sg10
(lp321
g315
a(igraph
Vertex
p322
(dp323
g14
F0.47368421052631599
sg8
I00
sg15
g16
sg17
F50.489795918367321
sg18
F-49.999999999999943
sg19
I553877
sg20
S'4036.59827017'
p324
sg22
F1.010204081632653
sbasg26
I00
sg27
I00
sg28
I553786
sg20
S'4036.65179122'
p325
sba(igraph
Edge
p326
(dp327
g7
I1
sg8
I00
sg9
I5
sg10
(lp328
g322
a(igraph
Vertex
p329
(dp330
g14
F0.5263157894736844
sg8
I00
sg15
g16
sg17
F50.489795918367321
sg18
F-29.999999999999943
sg19
I553878
sg20
S'4036.59909318'
p331
sg22
F1.010204081632653
sbasg26
I00
sg27
I00
sg28
I553787
sg20
S'4036.65293578'
p332
sba(igraph
Edge
p333
(dp334
g7
I1
sg8
I00
sg9
I5
sg10
(lp335
g329
a(igraph
Vertex
p336
(dp337
g14
F0.57894736842105288
sg8
I00
sg15
g16
sg17
F50.489795918367321
sg18
F-9.9999999999999432
sg19
I553879
sg20
S'4036.59992737'
p338
sg22
F1.010204081632653
sbasg26
I00
sg27
I00
sg28
I553788
sg20
S'4036.65406693'
p339
sba(igraph
Edge
p340
(dp341
g7
I1
sg8
I00
sg9
I5
sg10
(lp342
g336
a(igraph
Vertex
p343
(dp344
g14
F0.63157894736842124
sg8
I00
sg15
g16
sg17
F50.489795918367321
sg18
F10.000000000000028
sg19
I553880
sg20
S'4036.60071545'
p345
sg22
F1.010204081632653
sbasg26
I00
sg27
I00
sg28
I553789
sg20
S'4036.65521791'
p346
sba(igraph
Edge
p347
(dp348
g7
I1
sg8
I00
sg9
I5
sg10
(lp349
g343
a(igraph
Vertex
p350
(dp351
g14
F0.68421052631578971
sg8
I00
sg15
g16
sg17
F50.489795918367321
sg18
F30.000000000000057
sg19
I553881
sg20
S'4036.6016368'
p352
sg22
F1.010204081632653
sbasg26
I00
sg27
I00
sg28
I553790
sg20
S'4036.65645047'
p353
sba(igraph
Edge
p354
(dp355
g7
I1
sg8
I00
sg9
I5
sg10
(lp356
g350
a(igraph
Vertex
p357
(dp358
g14
F0.73684210526315796
sg8
I00
sg15
g16
sg17
F50.489795918367321
sg18
F50.0
sg19
I553882
sg20
S'4036.60252127'
p359
sg22
F1.010204081632653
sbasg26
I00
sg27
I00
sg28
I553791
sg20
S'4036.65777382'
p360
sba(igraph
Edge
p361
(dp362
g7
I1
sg8
I00
sg9
I5
sg10
(lp363
g357
a(igraph
Vertex
p364
(dp365
g14
F0.78947368421052644
sg8
I00
sg15
g16
sg17
F50.489795918367321
sg18
F70.0
sg19
I553883
sg20
S'4036.60338171'
p366
sg22
F1.010204081632653
sbasg26
I00
sg27
I00
sg28
I553792
sg20
S'4036.65903572'
p367
sba(igraph
Edge
p368
(dp369
g7
I1
sg8
I00
sg9
I5
sg10
(lp370
g364
a(igraph
Vertex
p371
(dp372
g14
F0.8421052631578948
sg8
I00
sg15
g16
sg17
F50.489795918367321
sg18
F90.0
sg19
I553884
sg20
S'4036.6042687'
p373
sg22
F1.010204081632653
sbasg26
I00
sg27
I00
sg28
I553793
sg20
S'4036.6607566'
p374
sba(igraph
Edge
p375
(dp376
g7
I1
sg8
I00
sg9
I5
sg10
(lp377
g371
a(igraph
Vertex
p378
(dp379
g14
F0.89473684210526316
sg8
I00
sg15
I0
sg17
F50.489795918367321
sg18
F109.99999999999994
sg19
I553885
sg20
S'4036.60513082'
p380
sg22
F1.010204081632653
sbasg26
I00
sg27
I00
sg28
I553794
sg20
S'4036.66223109'
p381
sba(igraph
Edge
p382
(dp383
g7
I1
sg8
I00
sg9
I5
sg10
(lp384
g378
a(igraph
Vertex
p385
(dp386
g14
F0.94736842105263153
sg8
I00
sg15
g16
sg17
F50.489795918367321
sg18
F129.99999999999994
sg19
I553887
sg20
S'4036.60600607'
p387
sg22
F1.010204081632653
sbasg26
I00
sg27
I00
sg28
I553795
sg20
S'4036.66378101'
p388
sba(igraph
Edge
p389
(dp390
g7
I1
sg8
I00
sg9
I5
sg10
(lp391
g385
a(igraph
Vertex
p392
(dp393
g14
F1.0
sg8
I00
sg15
g16
sg17
F50.489795918367321
sg18
F149.99999999999994
sg19
I553888
sg20
S'4036.60705285'
p394
sg22
F1.010204081632653
sbasg26
I00
sg27
I00
sg28
I553796
sg20
S'4036.66541949'
p395
sba(igraph
Edge
p396
(dp397
g7
I1
sg8
I00
sg9
I5
sg10
(lp398
g12
ag120
asg26
I00
sg27
I00
sg28
I553797
sg20
S'4036.6734205'
p399
sba(igraph
Edge
p400
(dp401
g7
I1
sg8
I00
sg9
I5
sg10
(lp402
g33
ag134
asg26
I00
sg27
I00
sg28
I553798
sg20
S'4036.67501736'
p403
sba(igraph
Edge
p404
(dp405
g7
I1
sg8
I00
sg9
I5
sg10
(lp406
g47
ag148
asg26
I00
sg27
I00
sg28
I553799
sg20
S'4036.67665164'
p407
sba(igraph
Edge
p408
(dp409
g7
I1
sg8
I00
sg9
I5
sg10
(lp410
g61
ag162
asg26
I00
sg27
I00
sg28
I553800
sg20
S'4036.67837197'
p411
sba(igraph
Edge
p412
(dp413
g7
I1
sg8
I00
sg9
I5
sg10
(lp414
g75
ag176
asg26
I00
sg27
I00
sg28
I553801
sg20
S'4036.68021019'
p415
sba(igraph
Edge
p416
(dp417
g7
I1
sg8
I00
sg9
I5
sg10
(lp418
g89
ag190
asg26
I00
sg27
I00
sg28
I553802
sg20
S'4036.68194589'
p419
sba(igraph
Edge
p420
(dp421
g7
I1
sg8
I00
sg9
I5
sg10
(lp422
g103
ag204
asg26
I00
sg27
I00
sg28
I553803
sg20
S'4036.68370421'
p423
sba(igraph
Edge
p424
(dp425
g7
I1
sg8
I00
sg9
I5
sg10
(lp426
g117
ag214
asg26
I00
sg27
I00
sg28
I553804
sg20
S'4036.69072075'
p427
sba(igraph
Edge
p428
(dp429
g7
I1
sg8
I00
sg9
I5
sg10
(lp430
g127
ag228
asg26
I00
sg27
I00
sg28
I553805
sg20
S'4036.6925721'
p431
sba(igraph
Edge
p432
(dp433
g7
I1
sg8
I00
sg9
I5
sg10
(lp434
g141
ag242
asg26
I00
sg27
I00
sg28
I553806
sg20
S'4036.69435222'
p435
sba(igraph
Edge
p436
(dp437
g7
I1
sg8
I00
sg9
I5
sg10
(lp438
g155
ag256
asg26
I00
sg27
I00
sg28
I553807
sg20
S'4036.69624212'
p439
sba(igraph
Edge
p440
(dp441
g7
I1
sg8
I00
sg9
I5
sg10
(lp442
g169
ag270
asg26
I00
sg27
I00
sg28
I553808
sg20
S'4036.69803928'
p443
sba(igraph
Edge
p444
(dp445
g7
I1
sg8
I00
sg9
I5
sg10
(lp446
g183
ag284
asg26
I00
sg27
I00
sg28
I553809
sg20
S'4036.69972776'
p447
sba(igraph
Edge
p448
(dp449
g7
I1
sg8
I00
sg9
I5
sg10
(lp450
g197
ag298
asg26
I00
sg27
I00
sg28
I553810
sg20
S'4036.70153553'
p451
sba(igraph
Edge
p452
(dp453
g7
I1
sg8
I00
sg9
I5
sg10
(lp454
g211
ag308
asg26
I00
sg27
I00
sg28
I553811
sg20
S'4036.70820928'
p455
sba(igraph
Edge
p456
(dp457
g7
I1
sg8
I00
sg9
I5
sg10
(lp458
g221
ag322
asg26
I00
sg27
I00
sg28
I553812
sg20
S'4036.70981368'
p459
sba(igraph
Edge
p460
(dp461
g7
I1
sg8
I00
sg9
I5
sg10
(lp462
g235
ag336
asg26
I00
sg27
I00
sg28
I553813
sg20
S'4036.71158457'
p463
sba(igraph
Edge
p464
(dp465
g7
I1
sg8
I00
sg9
I5
sg10
(lp466
g249
ag350
asg26
I00
sg27
I00
sg28
I553814
sg20
S'4036.71325825'
p467
sba(igraph
Edge
p468
(dp469
g7
I1
sg8
I00
sg9
I5
sg10
(lp470
g263
ag364
asg26
I00
sg27
I00
sg28
I553815
sg20
S'4036.71528448'
p471
sba(igraph
Edge
p472
(dp473
g7
I1
sg8
I00
sg9
I5
sg10
(lp474
g277
ag378
asg26
I00
sg27
I00
sg28
I553816
sg20
S'4036.71704029'
p475
sba(igraph
Edge
p476
(dp477
g7
I1
sg8
I00
sg9
I5
sg10
(lp478
g291
ag392
asg26
I00
sg27
I00
sg28
I553817
sg20
S'4036.71880672'
p479
sba(igraph
Edge
p480
(dp481
g7
I1
sg8
I00
sg9
I5
sg10
(lp482
g392
ag305
asg26
I00
sg27
I00
sg28
I553818
sg20
S'4497.95920152'
p483
sba(igraph
Edge
p484
(dp485
g7
I1
sg8
I00
sg9
I5
sg10
(lp486
g211
ag298
asg26
I00
sg27
I00
sg28
I553819
sg20
S'4501.51552194'
p487
sba(igraph
Edge
p488
(dp489
g7
I1
sg8
I00
sg9
I5
sg10
(lp490
g204
ag117
asg26
I00
sg27
I00
sg28
I553820
sg20
S'4504.87797332'
p491
sba(igraph
Edge
p492
(dp493
g7
I1
sg8
I00
sg9
I5
sg10
(lp494
g12
ag110
asg26
I00
sg27
I00
sg28
I553821
sg20
S'4507.92163389'
p495
sbasS'vertices'
p496
(lp497
g12
ag23
ag33
ag40
ag47
ag54
ag61
ag68
ag75
ag82
ag89
ag96
ag103
ag110
ag117
ag120
ag127
ag134
ag141
ag148
ag155
ag162
ag169
ag176
ag183
ag190
ag197
ag204
ag211
ag214
ag221
ag228
ag235
ag242
ag249
ag256
ag263
ag270
ag277
ag284
ag291
ag298
ag305
ag308
ag315
ag322
ag329
ag336
ag343
ag350
ag357
ag364
ag371
ag378
ag385
ag392
asS'tags'
p498
(lp499
sb.