(igraph
Graph
p0
(dp1
S'labelingConstraints'
p2
I-1
sS'edges'
p3
(lp4
(igraph
Edge
p5
(dp6
S'direction'
p7
I1
sS'selected'
p8
I00
sS'height'
p9
I5
sS'vs'
p10
(lp11
(igraph
Vertex
p12
(dp13
S'xnorm'
p14
F0.21052631578947378
sg8
I00
sS'label'
p15
S'NULL'
p16
sS'y'
p17
F-97.0
sS'x'
p18
F-149.99999999999997
sS'circle'
p19
I549681
sS'id'
p20
S'4036.55566029'
p21
sS'ynorm'
p22
F0.0
sba(igraph
Vertex
p23
(dp24
g14
F0.2631578947368422
sg8
I00
sg15
g16
sg17
F-97.0
sg18
F-129.99999999999997
sg19
I549682
sg20
S'4036.55574773'
p25
sg22
F0.0
sbasS'wrap'
p26
I00
sS'curved'
p27
I00
sS'line'
p28
I549593
sg20
S'4036.60845219'
p29
sba(igraph
Edge
p30
(dp31
g7
I1
sg8
I00
sg9
I5
sg10
(lp32
g23
a(igraph
Vertex
p33
(dp34
g14
F0.31578947368421062
sg8
I00
sg15
g16
sg17
F-97.0
sg18
F-109.99999999999999
sg19
I549683
sg20
S'4036.55590641'
p35
sg22
F0.0
sbasg26
I00
sg27
I00
sg28
I549594
sg20
S'4036.60861897'
p36
sba(igraph
Edge
p37
(dp38
g7
I1
sg8
I00
sg9
I5
sg10
(lp39
g33
a(igraph
Vertex
p40
(dp41
g14
F0.36842105263157909
sg8
I00
sg15
g16
sg17
F-97.0
sg18
F-89.999999999999972
sg19
I549684
sg20
S'4036.5560257'
p42
sg22
F0.0
sbasg26
I00
sg27
I00
sg28
I549595
sg20
S'4036.60876089'
p43
sba(igraph
Edge
p44
(dp45
g7
I1
sg8
I00
sg9
I5
sg10
(lp46
g40
a(igraph
Vertex
p47
(dp48
g14
F0.42105263157894751
sg8
I00
sg15
g16
sg17
F-97.0
sg18
F-69.999999999999972
sg19
I549685
sg20
S'4036.55616258'
p49
sg22
F0.0
sbasg26
I00
sg27
I00
sg28
I549596
sg20
S'4036.60892795'
p50
sba(igraph
Edge
p51
(dp52
g7
I1
sg8
I00
sg9
I5
sg10
(lp53
g47
a(igraph
Vertex
p54
(dp55
g14
F0.47368421052631599
sg8
I00
sg15
g16
sg17
F-97.0
sg18
F-49.999999999999943
sg19
I549686
sg20
S'4036.55631512'
p56
sg22
F0.0
sbasg26
I00
sg27
I00
sg28
I549597
sg20
S'4036.60910926'
p57
sba(igraph
Edge
p58
(dp59
g7
I1
sg8
I00
sg9
I5
sg10
(lp60
g54
a(igraph
Vertex
p61
(dp62
g14
F0.5263157894736844
sg8
I00
sg15
g16
sg17
F-97.0
sg18
F-29.999999999999943
sg19
I549687
sg20
S'4036.55648525'
p63
sg22
F0.0
sbasg26
I00
sg27
I00
sg28
I549598
sg20
S'4036.60930733'
p64
sba(igraph
Edge
p65
(dp66
g7
I1
sg8
I00
sg9
I5
sg10
(lp67
g61
a(igraph
Vertex
p68
(dp69
g14
F0.57894736842105288
sg8
I00
sg15
g16
sg17
F-97.0
sg18
F-9.9999999999999432
sg19
I549688
sg20
S'4036.55667215'
p70
sg22
F0.0
sbasg26
I00
sg27
I00
sg28
I549599
sg20
S'4036.60961938'
p71
sba(igraph
Edge
p72
(dp73
g7
I1
sg8
I00
sg9
I5
sg10
(lp74
g68
a(igraph
Vertex
p75
(dp76
g14
F0.63157894736842124
sg8
I00
sg15
g16
sg17
F-97.0
sg18
F10.000000000000028
sg19
I549689
sg20
S'4036.55701241'
p77
sg22
F0.0
sbasg26
I00
sg27
I00
sg28
I549600
sg20
S'4036.609856'
p78
sba(igraph
Edge
p79
(dp80
g7
I1
sg8
I00
sg9
I5
sg10
(lp81
g75
a(igraph
Vertex
p82
(dp83
g14
F0.68421052631578971
sg8
I00
sg15
g16
sg17
F-97.0
sg18
F30.000000000000057
sg19
I549690
sg20
S'4036.55723646'
p84
sg22
F0.0
sbasg26
I00
sg27
I00
sg28
I549601
sg20
S'4036.61012'
p85
sba(igraph
Edge
p86
(dp87
g7
I1
sg8
I00
sg9
I5
sg10
(lp88
g82
a(igraph
Vertex
p89
(dp90
g14
F0.73684210526315796
sg8
I00
sg15
g16
sg17
F-97.0
sg18
F50.0
sg19
I549691
sg20
S'4036.55747644'
p91
sg22
F0.0
sbasg26
I00
sg27
I00
sg28
I549602
sg20
S'4036.6103773'
p92
sba(igraph
Edge
p93
(dp94
g7
I1
sg8
I00
sg9
I5
sg10
(lp95
g89
a(igraph
Vertex
p96
(dp97
g14
F0.78947368421052644
sg8
I00
sg15
g16
sg17
F-97.0
sg18
F70.0
sg19
I549692
sg20
S'4036.55773038'
p98
sg22
F0.0
sbasg26
I00
sg27
I00
sg28
I549603
sg20
S'4036.61093575'
p99
sba(igraph
Edge
p100
(dp101
g7
I1
sg8
I00
sg9
I5
sg10
(lp102
g96
a(igraph
Vertex
p103
(dp104
g14
F0.8421052631578948
sg8
I00
sg15
g16
sg17
F-97.0
sg18
F90.0
sg19
I549693
sg20
S'4036.55801841'
p105
sg22
F0.0
sbasg26
I00
sg27
I00
sg28
I549604
sg20
S'4036.61122824'
p106
sba(igraph
Edge
p107
(dp108
g7
I1
sg8
I00
sg9
I5
sg10
(lp109
g103
a(igraph
Vertex
p110
(dp111
g14
F0.89473684210526316
sg8
I00
sg15
g16
sg17
F-97.0
sg18
F109.99999999999994
sg19
I549694
sg20
S'4036.55830867'
p112
sg22
F0.0
sbasg26
I00
sg27
I00
sg28
I549605
sg20
S'4036.61155231'
p113
sba(igraph
Edge
p114
(dp115
g7
I1
sg8
I00
sg9
I5
sg10
(lp116
g110
a(igraph
Vertex
p117
(dp118
g14
F0.94736842105263153
sg8
I00
sg15
I0
sg17
F-97.0
sg18
F129.99999999999994
sg19
I549695
sg20
S'4036.55862379'
p119
sg22
F0.0
sbasg26
I00
sg27
I00
sg28
I549606
sg20
S'4036.61188838'
p120
sba(igraph
Edge
p121
(dp122
g7
I1
sg8
I00
sg9
I5
sg10
(lp123
g117
a(igraph
Vertex
p124
(dp125
g14
F1.0
sg8
I00
sg15
g16
sg17
F-97.0
sg18
F149.99999999999994
sg19
I549697
sg20
S'4036.55903222'
p126
sg22
F0.0
sbasg26
I00
sg27
I00
sg28
I549607
sg20
S'4036.61221999'
p127
sba(igraph
Edge
p128
(dp129
g7
I1
sg8
I00
sg9
I5
sg10
(lp130
(igraph
Vertex
p131
(dp132
g14
F0.21052631578947378
sg8
I00
sg15
I0
sg17
F-47.836734693877553
sg18
F-149.99999999999997
sg19
I549698
sg20
S'4036.56119451'
p133
sg22
F0.33673469387755101
sba(igraph
Vertex
p134
(dp135
g14
F0.2631578947368422
sg8
I00
sg15
g16
sg17
F-47.836734693877553
sg18
F-129.99999999999997
sg19
I549700
sg20
S'4036.56170686'
p136
sg22
F0.33673469387755101
sbasg26
I00
sg27
I00
sg28
I549608
sg20
S'4036.61470997'
p137
sba(igraph
Edge
p138
(dp139
g7
I1
sg8
I00
sg9
I5
sg10
(lp140
g134
a(igraph
Vertex
p141
(dp142
g14
F0.31578947368421062
sg8
I00
sg15
I0
sg17
F-47.836734693877553
sg18
F-109.99999999999999
sg19
I549701
sg20
S'4036.56224325'
p143
sg22
F0.33673469387755101
sbasg26
I00
sg27
I00
sg28
I549609
sg20
S'4036.61517735'
p144
sba(igraph
Edge
p145
(dp146
g7
I1
sg8
I00
sg9
I5
sg10
(lp147
g141
a(igraph
Vertex
p148
(dp149
g14
F0.36842105263157909
sg8
I00
sg15
g16
sg17
F-47.836734693877553
sg18
F-89.999999999999972
sg19
I549703
sg20
S'4036.56327327'
p150
sg22
F0.33673469387755101
sbasg26
I00
sg27
I00
sg28
I549610
sg20
S'4036.61570647'
p151
sba(igraph
Edge
p152
(dp153
g7
I1
sg8
I00
sg9
I5
sg10
(lp154
g148
a(igraph
Vertex
p155
(dp156
g14
F0.42105263157894751
sg8
I00
sg15
I0
sg17
F-47.836734693877553
sg18
F-69.999999999999972
sg19
I549704
sg20
S'4036.56385993'
p157
sg22
F0.33673469387755101
sbasg26
I00
sg27
I00
sg28
I549611
sg20
S'4036.61614619'
p158
sba(igraph
Edge
p159
(dp160
g7
I1
sg8
I00
sg9
I5
sg10
(lp161
g155
a(igraph
Vertex
p162
(dp163
g14
F0.47368421052631599
sg8
I00
sg15
g16
sg17
F-47.836734693877553
sg18
F-49.999999999999943
sg19
I549706
sg20
S'4036.56477988'
p164
sg22
F0.33673469387755101
sbasg26
I00
sg27
I00
sg28
I549612
sg20
S'4036.61660854'
p165
sba(igraph
Edge
p166
(dp167
g7
I1
sg8
I00
sg9
I5
sg10
(lp168
g162
a(igraph
Vertex
p169
(dp170
g14
F0.5263157894736844
sg8
I00
sg15
I0
sg17
F-47.836734693877553
sg18
F-29.999999999999943
sg19
I549707
sg20
S'4036.56537912'
p171
sg22
F0.33673469387755101
sbasg26
I00
sg27
I00
sg28
I549613
sg20
S'4036.61716168'
p172
sba(igraph
Edge
p173
(dp174
g7
I1
sg8
I00
sg9
I5
sg10
(lp175
g169
a(igraph
Vertex
p176
(dp177
g14
F0.57894736842105288
sg8
I00
sg15
g16
sg17
F-47.836734693877553
sg18
F-9.9999999999999432
sg19
I549709
sg20
S'4036.56616888'
p178
sg22
F0.33673469387755101
sbasg26
I00
sg27
I00
sg28
I549614
sg20
S'4036.61763828'
p179
sba(igraph
Edge
p180
(dp181
g7
I1
sg8
I00
sg9
I5
sg10
(lp182
g176
a(igraph
Vertex
p183
(dp184
g14
F0.63157894736842124
sg8
I00
sg15
I0
sg17
F-47.836734693877553
sg18
F10.000000000000028
sg19
I549710
sg20
S'4036.56685501'
p185
sg22
F0.33673469387755101
sbasg26
I00
sg27
I00
sg28
I549615
sg20
S'4036.61812633'
p186
sba(igraph
Edge
p187
(dp188
g7
I1
sg8
I00
sg9
I5
sg10
(lp189
g183
a(igraph
Vertex
p190
(dp191
g14
F0.68421052631578971
sg8
I00
sg15
g16
sg17
F-47.836734693877553
sg18
F30.000000000000057
sg19
I549712
sg20
S'4036.56747101'
p192
sg22
F0.33673469387755101
sbasg26
I00
sg27
I00
sg28
I549616
sg20
S'4036.61863086'
p193
sba(igraph
Edge
p194
(dp195
g7
I1
sg8
I00
sg9
I5
sg10
(lp196
g190
a(igraph
Vertex
p197
(dp198
g14
F0.73684210526315796
sg8
I00
sg15
I0
sg17
F-47.836734693877553
sg18
F50.0
sg19
I549713
sg20
S'4036.56824485'
p199
sg22
F0.33673469387755101
sbasg26
I00
sg27
I00
sg28
I549617
sg20
S'4036.61920188'
p200
sba(igraph
Edge
p201
(dp202
g7
I1
sg8
I00
sg9
I5
sg10
(lp203
g197
a(igraph
Vertex
p204
(dp205
g14
F0.78947368421052644
sg8
I00
sg15
g16
sg17
F-47.836734693877553
sg18
F70.0
sg19
I549715
sg20
S'4036.56988081'
p206
sg22
F0.33673469387755101
sbasg26
I00
sg27
I00
sg28
I549618
sg20
S'4036.61992628'
p207
sba(igraph
Edge
p208
(dp209
g7
I1
sg8
I00
sg9
I5
sg10
(lp210
g204
a(igraph
Vertex
p211
(dp212
g14
F0.8421052631578948
sg8
I00
sg15
I0
sg17
F-47.836734693877553
sg18
F90.0
sg19
I549716
sg20
S'4036.57081556'
p213
sg22
F0.33673469387755101
sbasg26
I00
sg27
I00
sg28
I549619
sg20
S'4036.62074509'
p214
sba(igraph
Edge
p215
(dp216
g7
I1
sg8
I00
sg9
I5
sg10
(lp217
g211
a(igraph
Vertex
p218
(dp219
g14
F0.89473684210526316
sg8
I00
sg15
g16
sg17
F-47.836734693877553
sg18
F109.99999999999994
sg19
I549718
sg20
S'4036.57186626'
p220
sg22
F0.33673469387755101
sbasg26
I00
sg27
I00
sg28
I549620
sg20
S'4036.62133902'
p221
sba(igraph
Edge
p222
(dp223
g7
I1
sg8
I00
sg9
I5
sg10
(lp224
g218
a(igraph
Vertex
p225
(dp226
g14
F0.94736842105263153
sg8
I00
sg15
g16
sg17
F-47.836734693877553
sg18
F129.99999999999994
sg19
I549719
sg20
S'4036.57261328'
p227
sg22
F0.33673469387755101
sbasg26
I00
sg27
I00
sg28
I549621
sg20
S'4036.62191312'
p228
sba(igraph
Edge
p229
(dp230
g7
I1
sg8
I00
sg9
I5
sg10
(lp231
g225
a(igraph
Vertex
p232
(dp233
g14
F1.0
sg8
I00
sg15
g16
sg17
F-47.836734693877553
sg18
F149.99999999999994
sg19
I549720
sg20
S'4036.57348462'
p234
sg22
F0.33673469387755101
sbasg26
I00
sg27
I00
sg28
I549622
sg20
S'4036.62253163'
p235
sba(igraph
Edge
p236
(dp237
g7
I1
sg8
I00
sg9
I5
sg10
(lp238
(igraph
Vertex
p239
(dp240
g14
F0.21052631578947378
sg8
I00
sg15
g16
sg17
F1.3265306122448948
sg18
F-149.99999999999997
sg19
I549721
sg20
S'4036.57793965'
p241
sg22
F0.67346938775510201
sba(igraph
Vertex
p242
(dp243
g14
F0.2631578947368422
sg8
I00
sg15
g16
sg17
F1.3265306122448948
sg18
F-129.99999999999997
sg19
I549722
sg20
S'4036.57883334'
p244
sg22
F0.67346938775510201
sbasg26
I00
sg27
I00
sg28
I549623
sg20
S'4036.62755155'
p245
sba(igraph
Edge
p246
(dp247
g7
I1
sg8
I00
sg9
I5
sg10
(lp248
g242
a(igraph
Vertex
p249
(dp250
g14
F0.31578947368421062
sg8
I00
sg15
I0
sg17
F1.3265306122448948
sg18
F-109.99999999999999
sg19
I549723
sg20
S'4036.57981252'
p251
sg22
F0.67346938775510201
sbasg26
I00
sg27
I00
sg28
I549624
sg20
S'4036.62835724'
p252
sba(igraph
Edge
p253
(dp254
g7
I1
sg8
I00
sg9
I5
sg10
(lp255
g249
a(igraph
Vertex
p256
(dp257
g14
F0.36842105263157909
sg8
I00
sg15
g16
sg17
F1.3265306122448948
sg18
F-89.999999999999972
sg19
I549725
sg20
S'4036.58190664'
p258
sg22
F0.67346938775510201
sbasg26
I00
sg27
I00
sg28
I549625
sg20
S'4036.6291389'
p259
sba(igraph
Edge
p260
(dp261
g7
I1
sg8
I00
sg9
I5
sg10
(lp262
g256
a(igraph
Vertex
p263
(dp264
g14
F0.42105263157894751
sg8
I00
sg15
g16
sg17
F1.3265306122448948
sg18
F-69.999999999999972
sg19
I549726
sg20
S'4036.58291543'
p265
sg22
F0.67346938775510201
sbasg26
I00
sg27
I00
sg28
I549626
sg20
S'4036.62997085'
p266
sba(igraph
Edge
p267
(dp268
g7
I1
sg8
I00
sg9
I5
sg10
(lp269
g263
a(igraph
Vertex
p270
(dp271
g14
F0.47368421052631599
sg8
I00
sg15
g16
sg17
F1.3265306122448948
sg18
F-49.999999999999943
sg19
I549727
sg20
S'4036.58388203'
p272
sg22
F0.67346938775510201
sbasg26
I00
sg27
I00
sg28
I549627
sg20
S'4036.63090728'
p273
sba(igraph
Edge
p274
(dp275
g7
I1
sg8
I00
sg9
I5
sg10
(lp276
g270
a(igraph
Vertex
p277
(dp278
g14
F0.5263157894736844
sg8
I00
sg15
I0
sg17
F1.3265306122448948
sg18
F-29.999999999999943
sg19
I549728
sg20
S'4036.5844483'
p279
sg22
F0.67346938775510201
sbasg26
I00
sg27
I00
sg28
I549628
sg20
S'4036.63167078'
p280
sba(igraph
Edge
p281
(dp282
g7
I1
sg8
I00
sg9
I5
sg10
(lp283
g277
a(igraph
Vertex
p284
(dp285
g14
F0.57894736842105288
sg8
I00
sg15
g16
sg17
F1.3265306122448948
sg18
F-9.9999999999999432
sg19
I549730
sg20
S'4036.58504978'
p286
sg22
F0.67346938775510201
sbasg26
I00
sg27
I00
sg28
I549629
sg20
S'4036.63312516'
p287
sba(igraph
Edge
p288
(dp289
g7
I1
sg8
I00
sg9
I5
sg10
(lp290
g284
a(igraph
Vertex
p291
(dp292
g14
F0.63157894736842124
sg8
I00
sg15
g16
sg17
F1.3265306122448948
sg18
F10.000000000000028
sg19
I549731
sg20
S'4036.58562136'
p293
sg22
F0.67346938775510201
sbasg26
I00
sg27
I00
sg28
I549630
sg20
S'4036.6340155'
p294
sba(igraph
Edge
p295
(dp296
g7
I1
sg8
I00
sg9
I5
sg10
(lp297
g291
a(igraph
Vertex
p298
(dp299
g14
F0.68421052631578971
sg8
I00
sg15
g16
sg17
F1.3265306122448948
sg18
F30.000000000000057
sg19
I549732
sg20
S'4036.58616668'
p300
sg22
F0.67346938775510201
sbasg26
I00
sg27
I00
sg28
I549631
sg20
S'4036.63489354'
p301
sba(igraph
Edge
p302
(dp303
g7
I1
sg8
I00
sg9
I5
sg10
(lp304
g298
a(igraph
Vertex
p305
(dp306
g14
F0.73684210526315796
sg8
I00
sg15
I0
sg17
F1.3265306122448948
sg18
F50.0
sg19
I549733
sg20
S'4036.58700673'
p307
sg22
F0.67346938775510201
sbasg26
I00
sg27
I00
sg28
I549632
sg20
S'4036.63574337'
p308
sba(igraph
Edge
p309
(dp310
g7
I1
sg8
I00
sg9
I5
sg10
(lp311
g305
a(igraph
Vertex
p312
(dp313
g14
F0.78947368421052644
sg8
I00
sg15
g16
sg17
F1.3265306122448948
sg18
F70.0
sg19
I549735
sg20
S'4036.58772945'
p314
sg22
F0.67346938775510201
sbasg26
I00
sg27
I00
sg28
I549633
sg20
S'4036.63662812'
p315
sba(igraph
Edge
p316
(dp317
g7
I1
sg8
I00
sg9
I5
sg10
(lp318
g312
a(igraph
Vertex
p319
(dp320
g14
F0.8421052631578948
sg8
I00
sg15
g16
sg17
F1.3265306122448948
sg18
F90.0
sg19
I549736
sg20
S'4036.58837534'
p321
sg22
F0.67346938775510201
sbasg26
I00
sg27
I00
sg28
I549634
sg20
S'4036.63758383'
p322
sba(igraph
Edge
p323
(dp324
g7
I1
sg8
I00
sg9
I5
sg10
(lp325
g319
a(igraph
Vertex
p326
(dp327
g14
F0.89473684210526316
sg8
I00
sg15
g16
sg17
F1.3265306122448948
sg18
F109.99999999999994
sg19
I549737
sg20
S'4036.58899246'
p328
sg22
F0.67346938775510201
sbasg26
I00
sg27
I00
sg28
I549635
sg20
S'4036.63847556'
p329
sba(igraph
Edge
p330
(dp331
g7
I1
sg8
I00
sg9
I5
sg10
(lp332
g326
a(igraph
Vertex
p333
(dp334
g14
F0.94736842105263153
sg8
I01
sg15
I0
sg17
F1.3265306122448948
sg18
F129.99999999999994
sg19
I549739
sg20
S'4036.58981072'
p335
sg22
F0.67346938775510201
sbasg26
I00
sg27
I00
sg28
I549636
sg20
S'4036.6393754'
p336
sba(igraph
Edge
p337
(dp338
g7
I1
sg8
I00
sg9
I5
sg10
(lp339
g333
a(igraph
Vertex
p340
(dp341
g14
F1.0
sg8
I00
sg15
g16
sg17
F1.3265306122448948
sg18
F149.99999999999994
sg19
I549741
sg20
S'4036.59063205'
p342
sg22
F0.67346938775510201
sbasg26
I00
sg27
I00
sg28
I549637
sg20
S'4036.64030317'
p343
sba(igraph
Edge
p344
(dp345
g7
I1
sg8
I00
sg9
I5
sg10
(lp346
(igraph
Vertex
p347
(dp348
g14
F0.21052631578947378
sg8
I00
sg15
g16
sg17
F50.489795918367321
sg18
F-149.99999999999997
sg19
I549742
sg20
S'4036.59421267'
p349
sg22
F1.010204081632653
sba(igraph
Vertex
p350
(dp351
g14
F0.2631578947368422
sg8
I00
sg15
g16
sg17
F50.489795918367321
sg18
F-129.99999999999997
sg19
I549743
sg20
S'4036.59513989'
p352
sg22
F1.010204081632653
sbasg26
I00
sg27
I00
sg28
I549638
sg20
S'4036.64708839'
p353
sba(igraph
Edge
p354
(dp355
g7
I1
sg8
I00
sg9
I5
sg10
(lp356
g350
a(igraph
Vertex
p357
(dp358
g14
F0.31578947368421062
sg8
I00
sg15
g16
sg17
F50.489795918367321
sg18
F-109.99999999999999
sg19
I549744
sg20
S'4036.59592658'
p359
sg22
F1.010204081632653
sbasg26
I00
sg27
I00
sg28
I549639
sg20
S'4036.64818238'
p360
sba(igraph
Edge
p361
(dp362
g7
I1
sg8
I00
sg9
I5
sg10
(lp363
g357
a(igraph
Vertex
p364
(dp365
g14
F0.36842105263157909
sg8
I00
sg15
g16
sg17
F50.489795918367321
sg18
F-89.999999999999972
sg19
I549745
sg20
S'4036.59666298'
p366
sg22
F1.010204081632653
sbasg26
I00
sg27
I00
sg28
I549640
sg20
S'4036.64926464'
p367
sba(igraph
Edge
p368
(dp369
g7
I1
sg8
I00
sg9
I5
sg10
(lp370
g364
a(igraph
Vertex
p371
(dp372
g14
F0.42105263157894751
sg8
I00
sg15
g16
sg17
F50.489795918367321
sg18
F-69.999999999999972
sg19
I549746
sg20
S'4036.5974399'
p373
sg22
F1.010204081632653
sbasg26
I00
sg27
I00
sg28
I549641
sg20
S'4036.65042205'
p374
sba(igraph
Edge
p375
(dp376
g7
I1
sg8
I00
sg9
I5
sg10
(lp377
g371
a(igraph
Vertex
p378
(dp379
g14
F0.47368421052631599
sg8
I00
sg15
g16
sg17
F50.489795918367321
sg18
F-49.999999999999943
sg19
I549747
sg20
S'4036.59827017'
p380
sg22
F1.010204081632653
sbasg26
I00
sg27
I00
sg28
I549642
sg20
S'4036.65179122'
p381
sba(igraph
Edge
p382
(dp383
g7
I1
sg8
I00
sg9
I5
sg10
(lp384
g378
a(igraph
Vertex
p385
(dp386
g14
F0.5263157894736844
sg8
I00
sg15
g16
sg17
F50.489795918367321
sg18
F-29.999999999999943
sg19
I549748
sg20
S'4036.59909318'
p387
sg22
F1.010204081632653
sbasg26
I00
sg27
I00
sg28
I549643
sg20
S'4036.65293578'
p388
sba(igraph
Edge
p389
(dp390
g7
I1
sg8
I00
sg9
I5
sg10
(lp391
g385
a(igraph
Vertex
p392
(dp393
g14
F0.57894736842105288
sg8
I00
sg15
g16
sg17
F50.489795918367321
sg18
F-9.9999999999999432
sg19
I549749
sg20
S'4036.59992737'
p394
sg22
F1.010204081632653
sbasg26
I00
sg27
I00
sg28
I549644
sg20
S'4036.65406693'
p395
sba(igraph
Edge
p396
(dp397
g7
I1
sg8
I00
sg9
I5
sg10
(lp398
g392
a(igraph
Vertex
p399
(dp400
g14
F0.63157894736842124
sg8
I00
sg15
g16
sg17
F50.489795918367321
sg18
F10.000000000000028
sg19
I549750
sg20
S'4036.60071545'
p401
sg22
F1.010204081632653
sbasg26
I00
sg27
I00
sg28
I549645
sg20
S'4036.65521791'
p402
sba(igraph
Edge
p403
(dp404
g7
I1
sg8
I00
sg9
I5
sg10
(lp405
g399
a(igraph
Vertex
p406
(dp407
g14
F0.68421052631578971
sg8
I00
sg15
g16
sg17
F50.489795918367321
sg18
F30.000000000000057
sg19
I549751
sg20
S'4036.6016368'
p408
sg22
F1.010204081632653
sbasg26
I00
sg27
I00
sg28
I549646
sg20
S'4036.65645047'
p409
sba(igraph
Edge
p410
(dp411
g7
I1
sg8
I00
sg9
I5
sg10
(lp412
g406
a(igraph
Vertex
p413
(dp414
g14
F0.73684210526315796
sg8
I00
sg15
g16
sg17
F50.489795918367321
sg18
F50.0
sg19
I549752
sg20
S'4036.60252127'
p415
sg22
F1.010204081632653
sbasg26
I00
sg27
I00
sg28
I549647
sg20
S'4036.65777382'
p416
sba(igraph
Edge
p417
(dp418
g7
I1
sg8
I00
sg9
I5
sg10
(lp419
g413
a(igraph
Vertex
p420
(dp421
g14
F0.78947368421052644
sg8
I00
sg15
g16
sg17
F50.489795918367321
sg18
F70.0
sg19
I549753
sg20
S'4036.60338171'
p422
sg22
F1.010204081632653
sbasg26
I00
sg27
I00
sg28
I549648
sg20
S'4036.65903572'
p423
sba(igraph
Edge
p424
(dp425
g7
I1
sg8
I00
sg9
I5
sg10
(lp426
g420
a(igraph
Vertex
p427
(dp428
g14
F0.8421052631578948
sg8
I00
sg15
g16
sg17
F50.489795918367321
sg18
F90.0
sg19
I549754
sg20
S'4036.6042687'
p429
sg22
F1.010204081632653
sbasg26
I00
sg27
I00
sg28
I549649
sg20
S'4036.6607566'
p430
sba(igraph
Edge
p431
(dp432
g7
I1
sg8
I00
sg9
I5
sg10
(lp433
g427
a(igraph
Vertex
p434
(dp435
g14
F0.89473684210526316
sg8
I00
sg15
I0
sg17
F50.489795918367321
sg18
F109.99999999999994
sg19
I549755
sg20
S'4036.60513082'
p436
sg22
F1.010204081632653
sbasg26
I00
sg27
I00
sg28
I549650
sg20
S'4036.66223109'
p437
sba(igraph
Edge
p438
(dp439
g7
I1
sg8
I00
sg9
I5
sg10
(lp440
g434
a(igraph
Vertex
p441
(dp442
g14
F0.94736842105263153
sg8
I00
sg15
g16
sg17
F50.489795918367321
sg18
F129.99999999999994
sg19
I549757
sg20
S'4036.60600607'
p443
sg22
F1.010204081632653
sbasg26
I00
sg27
I00
sg28
I549651
sg20
S'4036.66378101'
p444
sba(igraph
Edge
p445
(dp446
g7
I1
sg8
I00
sg9
I5
sg10
(lp447
g441
a(igraph
Vertex
p448
(dp449
g14
F1.0
sg8
I00
sg15
g16
sg17
F50.489795918367321
sg18
F149.99999999999994
sg19
I549758
sg20
S'4036.60705285'
p450
sg22
F1.010204081632653
sbasg26
I00
sg27
I00
sg28
I549652
sg20
S'4036.66541949'
p451
sba(igraph
Edge
p452
(dp453
g7
I1
sg8
I00
sg9
I5
sg10
(lp454
g12
ag134
asg26
I00
sg27
I00
sg28
I549653
sg20
S'4036.67166218'
p455
sba(igraph
Edge
p456
(dp457
g7
I1
sg8
I00
sg9
I5
sg10
(lp458
g33
ag148
asg26
I00
sg27
I00
sg28
I549654
sg20
S'4036.6734205'
p459
sba(igraph
Edge
p460
(dp461
g7
I1
sg8
I00
sg9
I5
sg10
(lp462
g47
ag162
asg26
I00
sg27
I00
sg28
I549655
sg20
S'4036.67501736'
p463
sba(igraph
Edge
p464
(dp465
g7
I1
sg8
I00
sg9
I5
sg10
(lp466
g61
ag176
asg26
I00
sg27
I00
sg28
I549656
sg20
S'4036.67665164'
p467
sba(igraph
Edge
p468
(dp469
g7
I1
sg8
I00
sg9
I5
sg10
(lp470
g75
ag190
asg26
I00
sg27
I00
sg28
I549657
sg20
S'4036.67837197'
p471
sba(igraph
Edge
p472
(dp473
g7
I1
sg8
I00
sg9
I5
sg10
(lp474
g89
ag204
asg26
I00
sg27
I00
sg28
I549658
sg20
S'4036.68021019'
p475
sba(igraph
Edge
p476
(dp477
g7
I1
sg8
I00
sg9
I5
sg10
(lp478
g103
ag218
asg26
I00
sg27
I00
sg28
I549659
sg20
S'4036.68194589'
p479
sba(igraph
Edge
p480
(dp481
g7
I1
sg8
I00
sg9
I5
sg10
(lp482
g117
ag232
asg26
I00
sg27
I00
sg28
I549660
sg20
S'4036.68370421'
p483
sba(igraph
Edge
p484
(dp485
g7
I1
sg8
I00
sg9
I5
sg10
(lp486
g131
ag242
asg26
I00
sg27
I00
sg28
I549661
sg20
S'4036.68890264'
p487
sba(igraph
Edge
p488
(dp489
g7
I1
sg8
I00
sg9
I5
sg10
(lp490
g141
ag256
asg26
I00
sg27
I00
sg28
I549662
sg20
S'4036.69072075'
p491
sba(igraph
Edge
p492
(dp493
g7
I1
sg8
I00
sg9
I5
sg10
(lp494
g155
ag270
asg26
I00
sg27
I00
sg28
I549663
sg20
S'4036.6925721'
p495
sba(igraph
Edge
p496
(dp497
g7
I1
sg8
I00
sg9
I5
sg10
(lp498
g169
ag284
asg26
I00
sg27
I00
sg28
I549664
sg20
S'4036.69435222'
p499
sba(igraph
Edge
p500
(dp501
g7
I1
sg8
I00
sg9
I5
sg10
(lp502
g183
ag298
asg26
I00
sg27
I00
sg28
I549665
sg20
S'4036.69624212'
p503
sba(igraph
Edge
p504
(dp505
g7
I1
sg8
I00
sg9
I5
sg10
(lp506
g197
ag312
asg26
I00
sg27
I00
sg28
I549666
sg20
S'4036.69803928'
p507
sba(igraph
Edge
p508
(dp509
g7
I1
sg8
I00
sg9
I5
sg10
(lp510
g211
ag326
asg26
I00
sg27
I00
sg28
I549667
sg20
S'4036.69972776'
p511
sba(igraph
Edge
p512
(dp513
g7
I1
sg8
I00
sg9
I5
sg10
(lp514
g225
ag340
asg26
I00
sg27
I00
sg28
I549668
sg20
S'4036.70153553'
p515
sba(igraph
Edge
p516
(dp517
g7
I1
sg8
I00
sg9
I5
sg10
(lp518
g239
ag350
asg26
I00
sg27
I00
sg28
I549669
sg20
S'4036.70662808'
p519
sba(igraph
Edge
p520
(dp521
g7
I1
sg8
I00
sg9
I5
sg10
(lp522
g249
ag364
asg26
I00
sg27
I00
sg28
I549670
sg20
S'4036.70820928'
p523
sba(igraph
Edge
p524
(dp525
g7
I1
sg8
I00
sg9
I5
sg10
(lp526
g263
ag378
asg26
I00
sg27
I00
sg28
I549671
sg20
S'4036.70981368'
p527
sba(igraph
Edge
p528
(dp529
g7
I1
sg8
I00
sg9
I5
sg10
(lp530
g277
ag392
asg26
I00
sg27
I00
sg28
I549672
sg20
S'4036.71158457'
p531
sba(igraph
Edge
p532
(dp533
g7
I1
sg8
I00
sg9
I5
sg10
(lp534
g291
ag406
asg26
I00
sg27
I00
sg28
I549673
sg20
S'4036.71325825'
p535
sba(igraph
Edge
p536
(dp537
g7
I1
sg8
I00
sg9
I5
sg10
(lp538
g305
ag420
asg26
I00
sg27
I00
sg28
I549674
sg20
S'4036.71528448'
p539
sba(igraph
Edge
p540
(dp541
g7
I1
sg8
I00
sg9
I5
sg10
(lp542
g319
ag434
asg26
I00
sg27
I00
sg28
I549675
sg20
S'4036.71704029'
p543
sba(igraph
Edge
p544
(dp545
g7
I1
sg8
I00
sg9
I5
sg10
(lp546
g333
ag448
asg26
I00
sg27
I00
sg28
I549676
sg20
S'4036.71880672'
p547
sba(igraph
Edge
p548
(dp549
g7
I1
sg8
I00
sg9
I5
sg10
(lp550
g347
ag448
asg26
I00
sg27
I00
sg28
I549677
sg20
S'4420.23845545'
p551
sba(igraph
Edge
p552
(dp553
g7
I1
sg8
I00
sg9
I5
sg10
(lp554
g239
ag340
asg26
I00
sg27
I00
sg28
I549678
sg20
S'4424.85536821'
p555
sba(igraph
Edge
p556
(dp557
g7
I1
sg8
I00
sg9
I5
sg10
(lp558
g131
ag232
asg26
I00
sg27
I00
sg28
I549679
sg20
S'4429.23730614'
p559
sba(igraph
Edge
p560
(dp561
g7
I1
sg8
I00
sg9
I5
sg10
(lp562
g124
ag12
asg26
I00
sg27
I00
sg28
I549680
sg20
S'4432.29715704'
p563
sbasS'vertices'
p564
(lp565
g12
ag23
ag33
ag40
ag47
ag54
ag61
ag68
ag75
ag82
ag89
ag96
ag103
ag110
ag117
ag124
ag131
ag134
ag141
ag148
ag155
ag162
ag169
ag176
ag183
ag190
ag197
ag204
ag211
ag218
ag225
ag232
ag239
ag242
ag249
ag256
ag263
ag270
ag277
ag284
ag291
ag298
ag305
ag312
ag319
ag326
ag333
ag340
ag347
ag350
ag357
ag364
ag371
ag378
ag385
ag392
ag399
ag406
ag413
ag420
ag427
ag434
ag441
ag448
asS'tags'
p566
(lp567
sb.