(igraph
Graph
p0
(dp1
S'labelingConstraints'
p2
I-1
sS'edges'
p3
(lp4
(igraph
Edge
p5
(dp6
S'direction'
p7
I1
sS'selected'
p8
I00
sS'height'
p9
I5
sS'vs'
p10
(lp11
(igraph
Vertex
p12
(dp13
S'y'
p14
F-66.0
sS'x'
p15
F7.894736842105317
sS'circle'
p16
I476857
sg8
I00
sS'id'
p17
S'3369.22271685'
p18
sS'label'
p19
S'NULL'
p20
sba(igraph
Vertex
p21
(dp22
g14
F-66.0
sg15
F23.684210526315866
sg16
I476858
sg8
I00
sg17
S'3369.22280597'
p23
sg19
g20
sbasS'wrap'
p24
I00
sS'curved'
p25
I00
sS'line'
p26
I476797
sg17
S'3369.26584831'
p27
sba(igraph
Edge
p28
(dp29
g7
I1
sg8
I00
sg9
I5
sg10
(lp30
g21
a(igraph
Vertex
p31
(dp32
g14
F-66.0
sg15
F39.473684210526358
sg16
I476859
sg8
I00
sg17
S'3369.22290319'
p33
sg19
g20
sbasg24
I00
sg25
I00
sg26
I476798
sg17
S'3369.26603269'
p34
sba(igraph
Edge
p35
(dp36
g7
I1
sg8
I00
sg9
I5
sg10
(lp37
g31
a(igraph
Vertex
p38
(dp39
g14
F-66.0
sg15
F55.263157894736878
sg16
I476860
sg8
I00
sg17
S'3369.22300879'
p40
sg19
g20
sbasg24
I00
sg25
I00
sg26
I476799
sg17
S'3369.26623412'
p41
sba(igraph
Edge
p42
(dp43
g7
I1
sg8
I00
sg9
I5
sg10
(lp44
g38
a(igraph
Vertex
p45
(dp46
g14
F-66.0
sg15
F71.05263157894737
sg16
I476861
sg8
I00
sg17
S'3369.22312249'
p47
sg19
g20
sbasg24
I00
sg25
I00
sg26
I476800
sg17
S'3369.26644923'
p48
sba(igraph
Edge
p49
(dp50
g7
I1
sg8
I00
sg9
I5
sg10
(lp51
g45
a(igraph
Vertex
p52
(dp53
g14
F-66.0
sg15
F86.84210526315789
sg16
I476862
sg8
I00
sg17
S'3369.2232429'
p54
sg19
g20
sbasg24
I00
sg25
I00
sg26
I476801
sg17
S'3369.26667691'
p55
sba(igraph
Edge
p56
(dp57
g7
I1
sg8
I00
sg9
I5
sg10
(lp58
g52
a(igraph
Vertex
p59
(dp60
g14
F-66.0
sg15
F102.63157894736841
sg16
I476863
sg8
I00
sg17
S'3369.22337336'
p61
sg19
g20
sbasg24
I00
sg25
I00
sg26
I476802
sg17
S'3369.2669194'
p62
sba(igraph
Edge
p63
(dp64
g7
I1
sg8
I00
sg9
I5
sg10
(lp65
g59
a(igraph
Vertex
p66
(dp67
g14
F-66.0
sg15
F118.4210526315789
sg16
I476864
sg8
I00
sg17
S'3369.22351416'
p68
sg19
g20
sbasg24
I00
sg25
I00
sg26
I476803
sg17
S'3369.26717865'
p69
sba(igraph
Edge
p70
(dp71
g7
I1
sg8
I00
sg9
I5
sg10
(lp72
g66
a(igraph
Vertex
p73
(dp74
g14
F-66.0
sg15
F134.21052631578942
sg16
I476865
sg8
I00
sg17
S'3369.22367508'
p75
sg19
I0
sbasg24
I00
sg25
I00
sg26
I476804
sg17
S'3369.26745159'
p76
sba(igraph
Edge
p77
(dp78
g7
I1
sg8
I00
sg9
I5
sg10
(lp79
g73
a(igraph
Vertex
p80
(dp81
g14
F-66.0
sg15
F149.99999999999994
sg16
I476867
sg8
I00
sg17
S'3369.22383487'
p82
sg19
g20
sbasg24
I00
sg25
I00
sg26
I476805
sg17
S'3369.2677385'
p83
sba(igraph
Edge
p84
(dp85
g7
I1
sg8
I00
sg9
I5
sg10
(lp86
(igraph
Vertex
p87
(dp88
g14
F-33.0
sg15
F7.894736842105317
sg16
I476868
sg8
I00
sg17
S'3369.22611505'
p89
sg19
I0
sba(igraph
Vertex
p90
(dp91
g14
F-33.0
sg15
F23.684210526315866
sg16
I476870
sg8
I00
sg17
S'3369.22636816'
p92
sg19
g20
sbasg24
I00
sg25
I00
sg26
I476806
sg17
S'3369.27230304'
p93
sba(igraph
Edge
p94
(dp95
g7
I1
sg8
I00
sg9
I5
sg10
(lp96
g90
a(igraph
Vertex
p97
(dp98
g14
F-33.0
sg15
F39.473684210526358
sg16
I476871
sg8
I00
sg17
S'3369.22664221'
p99
sg19
I0
sbasg24
I00
sg25
I00
sg26
I476807
sg17
S'3369.27277182'
p100
sba(igraph
Edge
p101
(dp102
g7
I1
sg8
I00
sg9
I5
sg10
(lp103
g97
a(igraph
Vertex
p104
(dp105
g14
F-33.0
sg15
F55.263157894736878
sg16
I476873
sg8
I00
sg17
S'3369.22691404'
p106
sg19
g20
sbasg24
I00
sg25
I00
sg26
I476808
sg17
S'3369.27326015'
p107
sba(igraph
Edge
p108
(dp109
g7
I1
sg8
I00
sg9
I5
sg10
(lp110
g104
a(igraph
Vertex
p111
(dp112
g14
F-33.0
sg15
F71.05263157894737
sg16
I476874
sg8
I00
sg17
S'3369.22719256'
p113
sg19
I0
sbasg24
I00
sg25
I00
sg26
I476809
sg17
S'3369.27375854'
p114
sba(igraph
Edge
p115
(dp116
g7
I1
sg8
I00
sg9
I5
sg10
(lp117
g111
a(igraph
Vertex
p118
(dp119
g14
F-33.0
sg15
F86.84210526315789
sg16
I476876
sg8
I00
sg17
S'3369.22748226'
p120
sg19
g20
sbasg24
I00
sg25
I00
sg26
I476810
sg17
S'3369.27427257'
p121
sba(igraph
Edge
p122
(dp123
g7
I1
sg8
I00
sg9
I5
sg10
(lp124
g118
a(igraph
Vertex
p125
(dp126
g14
F-33.0
sg15
F102.63157894736841
sg16
I476877
sg8
I00
sg17
S'3369.22777755'
p127
sg19
I0
sbasg24
I00
sg25
I00
sg26
I476811
sg17
S'3369.27480252'
p128
sba(igraph
Edge
p129
(dp130
g7
I1
sg8
I00
sg9
I5
sg10
(lp131
g125
a(igraph
Vertex
p132
(dp133
g14
F-33.0
sg15
F118.4210526315789
sg16
I476879
sg8
I00
sg17
S'3369.22808122'
p134
sg19
g20
sbasg24
I00
sg25
I00
sg26
I476812
sg17
S'3369.2753498'
p135
sba(igraph
Edge
p136
(dp137
g7
I1
sg8
I00
sg9
I5
sg10
(lp138
g132
a(igraph
Vertex
p139
(dp140
g14
F-33.0
sg15
F134.21052631578942
sg16
I476880
sg8
I00
sg17
S'3369.22839132'
p141
sg19
g20
sbasg24
I00
sg25
I00
sg26
I476813
sg17
S'3369.27590741'
p142
sba(igraph
Edge
p143
(dp144
g7
I1
sg8
I00
sg9
I5
sg10
(lp145
g139
a(igraph
Vertex
p146
(dp147
g14
F-33.0
sg15
F149.99999999999994
sg16
I476881
sg8
I00
sg17
S'3369.22871259'
p148
sg19
g20
sbasg24
I00
sg25
I00
sg26
I476814
sg17
S'3369.27648067'
p149
sba(igraph
Edge
p150
(dp151
g7
I1
sg8
I00
sg9
I5
sg10
(lp152
(igraph
Vertex
p153
(dp154
g14
F0.0
sg15
F7.894736842105317
sg16
I476882
sg8
I00
sg17
S'3369.23286004'
p155
sg19
g20
sba(igraph
Vertex
p156
(dp157
g14
F0.0
sg15
F23.684210526315866
sg16
I476883
sg8
I00
sg17
S'3369.23327993'
p158
sg19
g20
sbasg24
I00
sg25
I00
sg26
I476815
sg17
S'3369.28448308'
p159
sba(igraph
Edge
p160
(dp161
g7
I1
sg8
I00
sg9
I5
sg10
(lp162
g156
a(igraph
Vertex
p163
(dp164
g14
F0.0
sg15
F39.473684210526358
sg16
I476884
sg8
I00
sg17
S'3369.23370792'
p165
sg19
g20
sbasg24
I00
sg25
I00
sg26
I476816
sg17
S'3369.28528319'
p166
sba(igraph
Edge
p167
(dp168
g7
I1
sg8
I00
sg9
I5
sg10
(lp169
g163
a(igraph
Vertex
p170
(dp171
g14
F0.0
sg15
F55.263157894736878
sg16
I476885
sg8
I00
sg17
S'3369.23414484'
p172
sg19
g20
sbasg24
I00
sg25
I00
sg26
I476817
sg17
S'3369.2861048'
p173
sba(igraph
Edge
p174
(dp175
g7
I1
sg8
I00
sg9
I5
sg10
(lp176
g170
a(igraph
Vertex
p177
(dp178
g14
F0.0
sg15
F71.05263157894737
sg16
I476886
sg8
I00
sg17
S'3369.23459127'
p179
sg19
g20
sbasg24
I00
sg25
I00
sg26
I476818
sg17
S'3369.28692082'
p180
sba(igraph
Edge
p181
(dp182
g7
I1
sg8
I00
sg9
I5
sg10
(lp183
g177
a(igraph
Vertex
p184
(dp185
g14
F0.0
sg15
F86.84210526315789
sg16
I476887
sg8
I00
sg17
S'3369.23504552'
p186
sg19
g20
sbasg24
I00
sg25
I00
sg26
I476819
sg17
S'3369.2877511'
p187
sba(igraph
Edge
p188
(dp189
g7
I1
sg8
I00
sg9
I5
sg10
(lp190
g184
a(igraph
Vertex
p191
(dp192
g14
F0.0
sg15
F102.63157894736841
sg16
I476888
sg8
I00
sg17
S'3369.23552239'
p193
sg19
g20
sbasg24
I00
sg25
I00
sg26
I476820
sg17
S'3369.28860875'
p194
sba(igraph
Edge
p195
(dp196
g7
I1
sg8
I00
sg9
I5
sg10
(lp197
g191
a(igraph
Vertex
p198
(dp199
g14
F0.0
sg15
F118.4210526315789
sg16
I476889
sg8
I00
sg17
S'3369.23599564'
p200
sg19
g20
sbasg24
I00
sg25
I00
sg26
I476821
sg17
S'3369.28946947'
p201
sba(igraph
Edge
p202
(dp203
g7
I1
sg8
I00
sg9
I5
sg10
(lp204
g198
a(igraph
Vertex
p205
(dp206
g14
F0.0
sg15
F134.21052631578942
sg16
I476890
sg8
I00
sg17
S'3369.2364795'
p207
sg19
I0
sbasg24
I00
sg25
I00
sg26
I476822
sg17
S'3369.29036595'
p208
sba(igraph
Edge
p209
(dp210
g7
I1
sg8
I00
sg9
I5
sg10
(lp211
g205
a(igraph
Vertex
p212
(dp213
g14
F0.0
sg15
F149.99999999999994
sg16
I476892
sg8
I00
sg17
S'3369.23696531'
p214
sg19
g20
sbasg24
I00
sg25
I00
sg26
I476823
sg17
S'3369.29123394'
p215
sba(igraph
Edge
p216
(dp217
g7
I1
sg8
I00
sg9
I5
sg10
(lp218
(igraph
Vertex
p219
(dp220
g14
F33.0
sg15
F7.894736842105317
sg16
I476893
sg8
I00
sg17
S'3369.24295574'
p221
sg19
I0
sba(igraph
Vertex
p222
(dp223
g14
F33.0
sg15
F23.684210526315866
sg16
I476895
sg8
I00
sg17
S'3369.24355218'
p224
sg19
g20
sbasg24
I00
sg25
I00
sg26
I476824
sg17
S'3369.30282284'
p225
sba(igraph
Edge
p226
(dp227
g7
I1
sg8
I00
sg9
I5
sg10
(lp228
g222
a(igraph
Vertex
p229
(dp230
g14
F33.0
sg15
F39.473684210526358
sg16
I476896
sg8
I00
sg17
S'3369.24416623'
p231
sg19
I0
sbasg24
I00
sg25
I00
sg26
I476825
sg17
S'3369.3038794'
p232
sba(igraph
Edge
p233
(dp234
g7
I1
sg8
I00
sg9
I5
sg10
(lp235
g229
a(igraph
Vertex
p236
(dp237
g14
F33.0
sg15
F55.263157894736878
sg16
I476898
sg8
I00
sg17
S'3369.24477915'
p238
sg19
g20
sbasg24
I00
sg25
I00
sg26
I476826
sg17
S'3369.30506726'
p239
sba(igraph
Edge
p240
(dp241
g7
I1
sg8
I00
sg9
I5
sg10
(lp242
g236
a(igraph
Vertex
p243
(dp244
g14
F33.0
sg15
F71.05263157894737
sg16
I476899
sg8
I00
sg17
S'3369.24540577'
p245
sg19
I0
sbasg24
I00
sg25
I00
sg26
I476827
sg17
S'3369.30617746'
p246
sba(igraph
Edge
p247
(dp248
g7
I1
sg8
I00
sg9
I5
sg10
(lp249
g243
a(igraph
Vertex
p250
(dp251
g14
F33.0
sg15
F86.84210526315789
sg16
I476901
sg8
I00
sg17
S'3369.24603518'
p252
sg19
g20
sbasg24
I00
sg25
I00
sg26
I476828
sg17
S'3369.30729827'
p253
sba(igraph
Edge
p254
(dp255
g7
I1
sg8
I00
sg9
I5
sg10
(lp256
g250
a(igraph
Vertex
p257
(dp258
g14
F33.0
sg15
F102.63157894736841
sg16
I476902
sg8
I00
sg17
S'3369.24667157'
p259
sg19
I0
sbasg24
I00
sg25
I00
sg26
I476829
sg17
S'3369.3084554'
p260
sba(igraph
Edge
p261
(dp262
g7
I1
sg8
I00
sg9
I5
sg10
(lp263
g257
a(igraph
Vertex
p264
(dp265
g14
F33.0
sg15
F118.4210526315789
sg16
I476904
sg8
I00
sg17
S'3369.24731775'
p266
sg19
g20
sbasg24
I00
sg25
I00
sg26
I476830
sg17
S'3369.30959298'
p267
sba(igraph
Edge
p268
(dp269
g7
I1
sg8
I00
sg9
I5
sg10
(lp270
g264
a(igraph
Vertex
p271
(dp272
g14
F33.0
sg15
F134.21052631578942
sg16
I476905
sg8
I00
sg17
S'3369.24797621'
p273
sg19
g20
sbasg24
I00
sg25
I00
sg26
I476831
sg17
S'3369.31073614'
p274
sba(igraph
Edge
p275
(dp276
g7
I1
sg8
I00
sg9
I5
sg10
(lp277
g271
a(igraph
Vertex
p278
(dp279
g14
F33.0
sg15
F149.99999999999994
sg16
I476906
sg8
I00
sg17
S'3369.24864138'
p280
sg19
g20
sbasg24
I00
sg25
I00
sg26
I476832
sg17
S'3369.31187651'
p281
sba(igraph
Edge
p282
(dp283
g7
I1
sg8
I00
sg9
I5
sg10
(lp284
g12
ag90
asg24
I00
sg25
I00
sg26
I476833
sg17
S'3369.34846189'
p285
sba(igraph
Edge
p286
(dp287
g7
I1
sg8
I00
sg9
I5
sg10
(lp288
g31
ag104
asg24
I00
sg25
I00
sg26
I476834
sg17
S'3369.35000175'
p289
sba(igraph
Edge
p290
(dp291
g7
I1
sg8
I00
sg9
I5
sg10
(lp292
g45
ag118
asg24
I00
sg25
I00
sg26
I476835
sg17
S'3369.35157206'
p293
sba(igraph
Edge
p294
(dp295
g7
I1
sg8
I00
sg9
I5
sg10
(lp296
g59
ag132
asg24
I00
sg25
I00
sg26
I476836
sg17
S'3369.35316192'
p297
sba(igraph
Edge
p298
(dp299
g7
I1
sg8
I00
sg9
I5
sg10
(lp300
g73
ag146
asg24
I00
sg25
I00
sg26
I476837
sg17
S'3369.3548884'
p301
sba(igraph
Edge
p302
(dp303
g7
I1
sg8
I00
sg9
I5
sg10
(lp304
g87
ag156
asg24
I00
sg25
I00
sg26
I476838
sg17
S'3369.36567916'
p305
sba(igraph
Edge
p306
(dp307
g7
I1
sg8
I00
sg9
I5
sg10
(lp308
g97
ag170
asg24
I00
sg25
I00
sg26
I476839
sg17
S'3369.36736708'
p309
sba(igraph
Edge
p310
(dp311
g7
I1
sg8
I00
sg9
I5
sg10
(lp312
g111
ag184
asg24
I00
sg25
I00
sg26
I476840
sg17
S'3369.36906339'
p313
sba(igraph
Edge
p314
(dp315
g7
I1
sg8
I00
sg9
I5
sg10
(lp316
g125
ag198
asg24
I00
sg25
I00
sg26
I476841
sg17
S'3369.3707907'
p317
sba(igraph
Edge
p318
(dp319
g7
I1
sg8
I00
sg9
I5
sg10
(lp320
g139
ag212
asg24
I00
sg25
I00
sg26
I476842
sg17
S'3369.37251746'
p321
sba(igraph
Edge
p322
(dp323
g7
I1
sg8
I00
sg9
I5
sg10
(lp324
g153
ag222
asg24
I00
sg25
I00
sg26
I476843
sg17
S'3369.38343505'
p325
sba(igraph
Edge
p326
(dp327
g7
I1
sg8
I00
sg9
I5
sg10
(lp328
g163
ag236
asg24
I00
sg25
I00
sg26
I476844
sg17
S'3369.38531461'
p329
sba(igraph
Edge
p330
(dp331
g7
I1
sg8
I00
sg9
I5
sg10
(lp332
g177
ag250
asg24
I00
sg25
I00
sg26
I476845
sg17
S'3369.38718887'
p333
sba(igraph
Edge
p334
(dp335
g7
I1
sg8
I00
sg9
I5
sg10
(lp336
g191
ag264
asg24
I00
sg25
I00
sg26
I476846
sg17
S'3369.38905559'
p337
sba(igraph
Edge
p338
(dp339
g7
I1
sg8
I00
sg9
I5
sg10
(lp340
g205
ag278
asg24
I00
sg25
I00
sg26
I476847
sg17
S'3369.39094103'
p341
sba(igraph
Edge
p342
(dp343
g7
I1
sg8
I00
sg9
I5
sg10
(lp344
g219
a(igraph
Vertex
p345
(dp346
g14
F66.0
sg15
F23.684210526315866
sg16
I476907
sg8
I00
sg17
S'3369.25735338'
p347
sg19
g20
sbasg24
I00
sg25
I00
sg26
I476848
sg17
S'3369.40388764'
p348
sba(igraph
Edge
p349
(dp350
g7
I1
sg8
I00
sg9
I5
sg10
(lp351
g229
a(igraph
Vertex
p352
(dp353
g14
F66.0
sg15
F55.263157894736878
sg16
I476908
sg8
I00
sg17
S'3369.25893039'
p354
sg19
g20
sbasg24
I00
sg25
I00
sg26
I476849
sg17
S'3369.40604825'
p355
sba(igraph
Edge
p356
(dp357
g7
I1
sg8
I00
sg9
I5
sg10
(lp358
g243
a(igraph
Vertex
p359
(dp360
g14
F66.0
sg15
F86.84210526315789
sg16
I476909
sg8
I00
sg17
S'3369.26053898'
p361
sg19
g20
sbasg24
I00
sg25
I00
sg26
I476850
sg17
S'3369.40811612'
p362
sba(igraph
Edge
p363
(dp364
g7
I1
sg8
I00
sg9
I5
sg10
(lp365
g257
a(igraph
Vertex
p366
(dp367
g14
F66.0
sg15
F118.4210526315789
sg16
I476910
sg8
I00
sg17
S'3369.26218919'
p368
sg19
g20
sbasg24
I00
sg25
I00
sg26
I476851
sg17
S'3369.41013509'
p369
sba(igraph
Edge
p370
(dp371
g7
I1
sg8
I00
sg9
I5
sg10
(lp372
g271
a(igraph
Vertex
p373
(dp374
g14
F66.0
sg15
F149.99999999999994
sg16
I476911
sg8
I00
sg17
S'3369.26388494'
p375
sg19
g20
sbasg24
I00
sg25
I00
sg26
I476852
sg17
S'3369.41215462'
p376
sba(igraph
Edge
p377
(dp378
g7
I1
sg8
I00
sg9
I5
sg10
(lp379
g219
ag278
asg24
I00
sg25
I00
sg26
I476853
sg17
S'3992.57296472'
p380
sba(igraph
Edge
p381
(dp382
g7
I1
sg8
I00
sg9
I5
sg10
(lp383
g153
ag212
asg24
I00
sg25
I00
sg26
I476854
sg17
S'3996.40024305'
p384
sba(igraph
Edge
p385
(dp386
g7
I1
sg8
I00
sg9
I5
sg10
(lp387
g87
ag146
asg24
I00
sg25
I00
sg26
I476855
sg17
S'4000.4249487'
p388
sba(igraph
Edge
p389
(dp390
g7
I1
sg8
I00
sg9
I5
sg10
(lp391
g12
ag80
asg24
I00
sg25
I00
sg26
I476856
sg17
S'4004.39351482'
p392
sbasS'vertices'
p393
(lp394
g12
ag21
ag31
ag38
ag45
ag52
ag59
ag66
ag73
ag80
ag87
ag90
ag97
ag104
ag111
ag118
ag125
ag132
ag139
ag146
ag153
ag156
ag163
ag170
ag177
ag184
ag191
ag198
ag205
ag212
ag219
ag222
ag229
ag236
ag243
ag250
ag257
ag264
ag271
ag278
ag345
ag352
ag359
ag366
ag373
asS'tags'
p395
(lp396
sb.