(igraph
Graph
p0
(dp1
S'labelingConstraints'
p2
I-1
sS'edges'
p3
(lp4
(igraph
Edge
p5
(dp6
S'direction'
p7
I1
sS'selected'
p8
I00
sS'height'
p9
I5
sS'vs'
p10
(lp11
(igraph
Vertex
p12
(dp13
S'y'
p14
F-66.0
sS'x'
p15
F-23.684210526315738
sS'circle'
p16
I474308
sg8
I00
sS'id'
p17
S'3369.22256153'
p18
sS'label'
p19
S'NULL'
p20
sba(igraph
Vertex
p21
(dp22
g14
F-66.0
sg15
F-7.8947368421052033
sg16
I474309
sg8
I00
sg17
S'3369.22263444'
p23
sg19
g20
sbasS'wrap'
p24
I00
sS'curved'
p25
I00
sS'line'
p26
I474236
sg17
S'3369.26551531'
p27
sba(igraph
Edge
p28
(dp29
g7
I1
sg8
I00
sg9
I5
sg10
(lp30
g21
a(igraph
Vertex
p31
(dp32
g14
F-66.0
sg15
F7.894736842105317
sg16
I474310
sg8
I00
sg17
S'3369.22271685'
p33
sg19
g20
sbasg24
I00
sg25
I00
sg26
I474237
sg17
S'3369.26567483'
p34
sba(igraph
Edge
p35
(dp36
g7
I1
sg8
I00
sg9
I5
sg10
(lp37
g31
a(igraph
Vertex
p38
(dp39
g14
F-66.0
sg15
F23.684210526315866
sg16
I474311
sg8
I00
sg17
S'3369.22280597'
p40
sg19
g20
sbasg24
I00
sg25
I00
sg26
I474238
sg17
S'3369.26584831'
p41
sba(igraph
Edge
p42
(dp43
g7
I1
sg8
I00
sg9
I5
sg10
(lp44
g38
a(igraph
Vertex
p45
(dp46
g14
F-66.0
sg15
F39.473684210526358
sg16
I474312
sg8
I00
sg17
S'3369.22290319'
p47
sg19
g20
sbasg24
I00
sg25
I00
sg26
I474239
sg17
S'3369.26603269'
p48
sba(igraph
Edge
p49
(dp50
g7
I1
sg8
I00
sg9
I5
sg10
(lp51
g45
a(igraph
Vertex
p52
(dp53
g14
F-66.0
sg15
F55.263157894736878
sg16
I474313
sg8
I00
sg17
S'3369.22300879'
p54
sg19
g20
sbasg24
I00
sg25
I00
sg26
I474240
sg17
S'3369.26623412'
p55
sba(igraph
Edge
p56
(dp57
g7
I1
sg8
I00
sg9
I5
sg10
(lp58
g52
a(igraph
Vertex
p59
(dp60
g14
F-66.0
sg15
F71.05263157894737
sg16
I474314
sg8
I00
sg17
S'3369.22312249'
p61
sg19
g20
sbasg24
I00
sg25
I00
sg26
I474241
sg17
S'3369.26644923'
p62
sba(igraph
Edge
p63
(dp64
g7
I1
sg8
I00
sg9
I5
sg10
(lp65
g59
a(igraph
Vertex
p66
(dp67
g14
F-66.0
sg15
F86.84210526315789
sg16
I474315
sg8
I00
sg17
S'3369.2232429'
p68
sg19
g20
sbasg24
I00
sg25
I00
sg26
I474242
sg17
S'3369.26667691'
p69
sba(igraph
Edge
p70
(dp71
g7
I1
sg8
I00
sg9
I5
sg10
(lp72
g66
a(igraph
Vertex
p73
(dp74
g14
F-66.0
sg15
F102.63157894736841
sg16
I474316
sg8
I00
sg17
S'3369.22337336'
p75
sg19
g20
sbasg24
I00
sg25
I00
sg26
I474243
sg17
S'3369.2669194'
p76
sba(igraph
Edge
p77
(dp78
g7
I1
sg8
I00
sg9
I5
sg10
(lp79
g73
a(igraph
Vertex
p80
(dp81
g14
F-66.0
sg15
F118.4210526315789
sg16
I474317
sg8
I00
sg17
S'3369.22351416'
p82
sg19
g20
sbasg24
I00
sg25
I00
sg26
I474244
sg17
S'3369.26717865'
p83
sba(igraph
Edge
p84
(dp85
g7
I1
sg8
I00
sg9
I5
sg10
(lp86
g80
a(igraph
Vertex
p87
(dp88
g14
F-66.0
sg15
F134.21052631578942
sg16
I474318
sg8
I00
sg17
S'3369.22367508'
p89
sg19
I0
sbasg24
I00
sg25
I00
sg26
I474245
sg17
S'3369.26745159'
p90
sba(igraph
Edge
p91
(dp92
g7
I1
sg8
I00
sg9
I5
sg10
(lp93
g87
a(igraph
Vertex
p94
(dp95
g14
F-66.0
sg15
F149.99999999999994
sg16
I474320
sg8
I00
sg17
S'3369.22383487'
p96
sg19
g20
sbasg24
I00
sg25
I00
sg26
I474246
sg17
S'3369.2677385'
p97
sba(igraph
Edge
p98
(dp99
g7
I1
sg8
I00
sg9
I5
sg10
(lp100
(igraph
Vertex
p101
(dp102
g14
F-33.0
sg15
F-23.684210526315738
sg16
I474322
sg8
I01
sg17
S'3369.22563398'
p103
sg19
I0
sba(igraph
Vertex
p104
(dp105
g14
F-33.0
sg15
F-7.8947368421052033
sg16
I474324
sg8
I00
sg17
S'3369.22587089'
p106
sg19
g20
sbasg24
I00
sg25
I00
sg26
I474247
sg17
S'3369.27139986'
p107
sba(igraph
Edge
p108
(dp109
g7
I1
sg8
I00
sg9
I5
sg10
(lp110
g104
a(igraph
Vertex
p111
(dp112
g14
F-33.0
sg15
F7.894736842105317
sg16
I474326
sg8
I01
sg17
S'3369.22611505'
p113
sg19
I0
sbasg24
I00
sg25
I00
sg26
I474248
sg17
S'3369.27184572'
p114
sba(igraph
Edge
p115
(dp116
g7
I1
sg8
I00
sg9
I5
sg10
(lp117
g111
a(igraph
Vertex
p118
(dp119
g14
F-33.0
sg15
F23.684210526315866
sg16
I474328
sg8
I00
sg17
S'3369.22636816'
p120
sg19
g20
sbasg24
I00
sg25
I00
sg26
I474249
sg17
S'3369.27230304'
p121
sba(igraph
Edge
p122
(dp123
g7
I1
sg8
I00
sg9
I5
sg10
(lp124
g118
a(igraph
Vertex
p125
(dp126
g14
F-33.0
sg15
F39.473684210526358
sg16
I474330
sg8
I01
sg17
S'3369.22664221'
p127
sg19
I0
sbasg24
I00
sg25
I00
sg26
I474250
sg17
S'3369.27277182'
p128
sba(igraph
Edge
p129
(dp130
g7
I1
sg8
I00
sg9
I5
sg10
(lp131
g125
a(igraph
Vertex
p132
(dp133
g14
F-33.0
sg15
F55.263157894736878
sg16
I474332
sg8
I00
sg17
S'3369.22691404'
p134
sg19
g20
sbasg24
I00
sg25
I00
sg26
I474251
sg17
S'3369.27326015'
p135
sba(igraph
Edge
p136
(dp137
g7
I1
sg8
I00
sg9
I5
sg10
(lp138
g132
a(igraph
Vertex
p139
(dp140
g14
F-33.0
sg15
F71.05263157894737
sg16
I474334
sg8
I01
sg17
S'3369.22719256'
p141
sg19
I0
sbasg24
I00
sg25
I00
sg26
I474252
sg17
S'3369.27375854'
p142
sba(igraph
Edge
p143
(dp144
g7
I1
sg8
I00
sg9
I5
sg10
(lp145
g139
a(igraph
Vertex
p146
(dp147
g14
F-33.0
sg15
F86.84210526315789
sg16
I474336
sg8
I00
sg17
S'3369.22748226'
p148
sg19
g20
sbasg24
I00
sg25
I00
sg26
I474253
sg17
S'3369.27427257'
p149
sba(igraph
Edge
p150
(dp151
g7
I1
sg8
I00
sg9
I5
sg10
(lp152
g146
a(igraph
Vertex
p153
(dp154
g14
F-33.0
sg15
F102.63157894736841
sg16
I474338
sg8
I01
sg17
S'3369.22777755'
p155
sg19
I0
sbasg24
I00
sg25
I00
sg26
I474254
sg17
S'3369.27480252'
p156
sba(igraph
Edge
p157
(dp158
g7
I1
sg8
I00
sg9
I5
sg10
(lp159
g153
a(igraph
Vertex
p160
(dp161
g14
F-33.0
sg15
F118.4210526315789
sg16
I474340
sg8
I00
sg17
S'3369.22808122'
p162
sg19
g20
sbasg24
I00
sg25
I00
sg26
I474255
sg17
S'3369.2753498'
p163
sba(igraph
Edge
p164
(dp165
g7
I1
sg8
I00
sg9
I5
sg10
(lp166
g160
a(igraph
Vertex
p167
(dp168
g14
F-33.0
sg15
F134.21052631578942
sg16
I474341
sg8
I00
sg17
S'3369.22839132'
p169
sg19
g20
sbasg24
I00
sg25
I00
sg26
I474256
sg17
S'3369.27590741'
p170
sba(igraph
Edge
p171
(dp172
g7
I1
sg8
I00
sg9
I5
sg10
(lp173
g167
a(igraph
Vertex
p174
(dp175
g14
F-33.0
sg15
F149.99999999999994
sg16
I474342
sg8
I00
sg17
S'3369.22871259'
p176
sg19
g20
sbasg24
I00
sg25
I00
sg26
I474257
sg17
S'3369.27648067'
p177
sba(igraph
Edge
p178
(dp179
g7
I1
sg8
I00
sg9
I5
sg10
(lp180
(igraph
Vertex
p181
(dp182
g14
F0.0
sg15
F-23.684210526315738
sg16
I474343
sg8
I00
sg17
S'3369.23201245'
p183
sg19
g20
sba(igraph
Vertex
p184
(dp185
g14
F0.0
sg15
F-7.8947368421052033
sg16
I474344
sg8
I00
sg17
S'3369.23244574'
p186
sg19
g20
sbasg24
I00
sg25
I00
sg26
I474258
sg17
S'3369.28299099'
p187
sba(igraph
Edge
p188
(dp189
g7
I1
sg8
I00
sg9
I5
sg10
(lp190
g184
a(igraph
Vertex
p191
(dp192
g14
F0.0
sg15
F7.894736842105317
sg16
I474345
sg8
I00
sg17
S'3369.23286004'
p193
sg19
g20
sbasg24
I00
sg25
I00
sg26
I474259
sg17
S'3369.28374137'
p194
sba(igraph
Edge
p195
(dp196
g7
I1
sg8
I00
sg9
I5
sg10
(lp197
g191
a(igraph
Vertex
p198
(dp199
g14
F0.0
sg15
F23.684210526315866
sg16
I474346
sg8
I00
sg17
S'3369.23327993'
p200
sg19
g20
sbasg24
I00
sg25
I00
sg26
I474260
sg17
S'3369.28448308'
p201
sba(igraph
Edge
p202
(dp203
g7
I1
sg8
I00
sg9
I5
sg10
(lp204
g198
a(igraph
Vertex
p205
(dp206
g14
F0.0
sg15
F39.473684210526358
sg16
I474347
sg8
I00
sg17
S'3369.23370792'
p207
sg19
g20
sbasg24
I00
sg25
I00
sg26
I474261
sg17
S'3369.28528319'
p208
sba(igraph
Edge
p209
(dp210
g7
I1
sg8
I00
sg9
I5
sg10
(lp211
g205
a(igraph
Vertex
p212
(dp213
g14
F0.0
sg15
F55.263157894736878
sg16
I474348
sg8
I00
sg17
S'3369.23414484'
p214
sg19
g20
sbasg24
I00
sg25
I00
sg26
I474262
sg17
S'3369.2861048'
p215
sba(igraph
Edge
p216
(dp217
g7
I1
sg8
I00
sg9
I5
sg10
(lp218
g212
a(igraph
Vertex
p219
(dp220
g14
F0.0
sg15
F71.05263157894737
sg16
I474349
sg8
I00
sg17
S'3369.23459127'
p221
sg19
g20
sbasg24
I00
sg25
I00
sg26
I474263
sg17
S'3369.28692082'
p222
sba(igraph
Edge
p223
(dp224
g7
I1
sg8
I00
sg9
I5
sg10
(lp225
g219
a(igraph
Vertex
p226
(dp227
g14
F0.0
sg15
F86.84210526315789
sg16
I474350
sg8
I00
sg17
S'3369.23504552'
p228
sg19
g20
sbasg24
I00
sg25
I00
sg26
I474264
sg17
S'3369.2877511'
p229
sba(igraph
Edge
p230
(dp231
g7
I1
sg8
I00
sg9
I5
sg10
(lp232
g226
a(igraph
Vertex
p233
(dp234
g14
F0.0
sg15
F102.63157894736841
sg16
I474351
sg8
I00
sg17
S'3369.23552239'
p235
sg19
g20
sbasg24
I00
sg25
I00
sg26
I474265
sg17
S'3369.28860875'
p236
sba(igraph
Edge
p237
(dp238
g7
I1
sg8
I00
sg9
I5
sg10
(lp239
g233
a(igraph
Vertex
p240
(dp241
g14
F0.0
sg15
F118.4210526315789
sg16
I474352
sg8
I00
sg17
S'3369.23599564'
p242
sg19
g20
sbasg24
I00
sg25
I00
sg26
I474266
sg17
S'3369.28946947'
p243
sba(igraph
Edge
p244
(dp245
g7
I1
sg8
I00
sg9
I5
sg10
(lp246
g240
a(igraph
Vertex
p247
(dp248
g14
F0.0
sg15
F134.21052631578942
sg16
I474353
sg8
I00
sg17
S'3369.2364795'
p249
sg19
I0
sbasg24
I00
sg25
I00
sg26
I474267
sg17
S'3369.29036595'
p250
sba(igraph
Edge
p251
(dp252
g7
I1
sg8
I00
sg9
I5
sg10
(lp253
g247
a(igraph
Vertex
p254
(dp255
g14
F0.0
sg15
F149.99999999999994
sg16
I474355
sg8
I00
sg17
S'3369.23696531'
p256
sg19
g20
sbasg24
I00
sg25
I00
sg26
I474268
sg17
S'3369.29123394'
p257
sba(igraph
Edge
p258
(dp259
g7
I1
sg8
I00
sg9
I5
sg10
(lp260
(igraph
Vertex
p261
(dp262
g14
F33.0
sg15
F-23.684210526315738
sg16
I474356
sg8
I00
sg17
S'3369.24179107'
p263
sg19
I0
sba(igraph
Vertex
p264
(dp265
g14
F33.0
sg15
F-7.8947368421052033
sg16
I474358
sg8
I00
sg17
S'3369.24237103'
p266
sg19
g20
sbasg24
I00
sg25
I00
sg26
I474269
sg17
S'3369.30074046'
p267
sba(igraph
Edge
p268
(dp269
g7
I1
sg8
I00
sg9
I5
sg10
(lp270
g264
a(igraph
Vertex
p271
(dp272
g14
F33.0
sg15
F7.894736842105317
sg16
I474359
sg8
I00
sg17
S'3369.24295574'
p273
sg19
I0
sbasg24
I00
sg25
I00
sg26
I474270
sg17
S'3369.30178109'
p274
sba(igraph
Edge
p275
(dp276
g7
I1
sg8
I00
sg9
I5
sg10
(lp277
g271
a(igraph
Vertex
p278
(dp279
g14
F33.0
sg15
F23.684210526315866
sg16
I474361
sg8
I00
sg17
S'3369.24355218'
p280
sg19
g20
sbasg24
I00
sg25
I00
sg26
I474271
sg17
S'3369.30282284'
p281
sba(igraph
Edge
p282
(dp283
g7
I1
sg8
I00
sg9
I5
sg10
(lp284
g278
a(igraph
Vertex
p285
(dp286
g14
F33.0
sg15
F39.473684210526358
sg16
I474362
sg8
I00
sg17
S'3369.24416623'
p287
sg19
I0
sbasg24
I00
sg25
I00
sg26
I474272
sg17
S'3369.3038794'
p288
sba(igraph
Edge
p289
(dp290
g7
I1
sg8
I00
sg9
I5
sg10
(lp291
g285
a(igraph
Vertex
p292
(dp293
g14
F33.0
sg15
F55.263157894736878
sg16
I474364
sg8
I00
sg17
S'3369.24477915'
p294
sg19
g20
sbasg24
I00
sg25
I00
sg26
I474273
sg17
S'3369.30506726'
p295
sba(igraph
Edge
p296
(dp297
g7
I1
sg8
I00
sg9
I5
sg10
(lp298
g292
a(igraph
Vertex
p299
(dp300
g14
F33.0
sg15
F71.05263157894737
sg16
I474365
sg8
I00
sg17
S'3369.24540577'
p301
sg19
I0
sbasg24
I00
sg25
I00
sg26
I474274
sg17
S'3369.30617746'
p302
sba(igraph
Edge
p303
(dp304
g7
I1
sg8
I00
sg9
I5
sg10
(lp305
g299
a(igraph
Vertex
p306
(dp307
g14
F33.0
sg15
F86.84210526315789
sg16
I474367
sg8
I00
sg17
S'3369.24603518'
p308
sg19
g20
sbasg24
I00
sg25
I00
sg26
I474275
sg17
S'3369.30729827'
p309
sba(igraph
Edge
p310
(dp311
g7
I1
sg8
I00
sg9
I5
sg10
(lp312
g306
a(igraph
Vertex
p313
(dp314
g14
F33.0
sg15
F102.63157894736841
sg16
I474368
sg8
I00
sg17
S'3369.24667157'
p315
sg19
I0
sbasg24
I00
sg25
I00
sg26
I474276
sg17
S'3369.3084554'
p316
sba(igraph
Edge
p317
(dp318
g7
I1
sg8
I00
sg9
I5
sg10
(lp319
g313
a(igraph
Vertex
p320
(dp321
g14
F33.0
sg15
F118.4210526315789
sg16
I474370
sg8
I00
sg17
S'3369.24731775'
p322
sg19
g20
sbasg24
I00
sg25
I00
sg26
I474277
sg17
S'3369.30959298'
p323
sba(igraph
Edge
p324
(dp325
g7
I1
sg8
I00
sg9
I5
sg10
(lp326
g320
a(igraph
Vertex
p327
(dp328
g14
F33.0
sg15
F134.21052631578942
sg16
I474371
sg8
I00
sg17
S'3369.24797621'
p329
sg19
g20
sbasg24
I00
sg25
I00
sg26
I474278
sg17
S'3369.31073614'
p330
sba(igraph
Edge
p331
(dp332
g7
I1
sg8
I00
sg9
I5
sg10
(lp333
g327
a(igraph
Vertex
p334
(dp335
g14
F33.0
sg15
F149.99999999999994
sg16
I474372
sg8
I00
sg17
S'3369.24864138'
p336
sg19
g20
sbasg24
I00
sg25
I00
sg26
I474279
sg17
S'3369.31187651'
p337
sba(igraph
Edge
p338
(dp339
g7
I1
sg8
I00
sg9
I5
sg10
(lp340
g12
ag104
asg24
I00
sg25
I00
sg26
I474280
sg17
S'3369.34692985'
p341
sba(igraph
Edge
p342
(dp343
g7
I1
sg8
I00
sg9
I5
sg10
(lp344
g31
ag118
asg24
I00
sg25
I00
sg26
I474281
sg17
S'3369.34846189'
p345
sba(igraph
Edge
p346
(dp347
g7
I1
sg8
I00
sg9
I5
sg10
(lp348
g45
ag132
asg24
I00
sg25
I00
sg26
I474282
sg17
S'3369.35000175'
p349
sba(igraph
Edge
p350
(dp351
g7
I1
sg8
I00
sg9
I5
sg10
(lp352
g59
ag146
asg24
I00
sg25
I00
sg26
I474283
sg17
S'3369.35157206'
p353
sba(igraph
Edge
p354
(dp355
g7
I1
sg8
I00
sg9
I5
sg10
(lp356
g73
ag160
asg24
I00
sg25
I00
sg26
I474284
sg17
S'3369.35316192'
p357
sba(igraph
Edge
p358
(dp359
g7
I1
sg8
I00
sg9
I5
sg10
(lp360
g87
ag174
asg24
I00
sg25
I00
sg26
I474285
sg17
S'3369.3548884'
p361
sba(igraph
Edge
p362
(dp363
g7
I1
sg8
I00
sg9
I5
sg10
(lp364
g101
ag184
asg24
I00
sg25
I00
sg26
I474286
sg17
S'3369.3640066'
p365
sba(igraph
Edge
p366
(dp367
g7
I1
sg8
I00
sg9
I5
sg10
(lp368
g111
ag198
asg24
I00
sg25
I00
sg26
I474287
sg17
S'3369.36567916'
p369
sba(igraph
Edge
p370
(dp371
g7
I1
sg8
I00
sg9
I5
sg10
(lp372
g125
ag212
asg24
I00
sg25
I00
sg26
I474288
sg17
S'3369.36736708'
p373
sba(igraph
Edge
p374
(dp375
g7
I1
sg8
I00
sg9
I5
sg10
(lp376
g139
ag226
asg24
I00
sg25
I00
sg26
I474289
sg17
S'3369.36906339'
p377
sba(igraph
Edge
p378
(dp379
g7
I1
sg8
I00
sg9
I5
sg10
(lp380
g153
ag240
asg24
I00
sg25
I00
sg26
I474290
sg17
S'3369.3707907'
p381
sba(igraph
Edge
p382
(dp383
g7
I1
sg8
I00
sg9
I5
sg10
(lp384
g167
ag254
asg24
I00
sg25
I00
sg26
I474291
sg17
S'3369.37251746'
p385
sba(igraph
Edge
p386
(dp387
g7
I1
sg8
I00
sg9
I5
sg10
(lp388
g181
ag264
asg24
I00
sg25
I00
sg26
I474292
sg17
S'3369.3814739'
p389
sba(igraph
Edge
p390
(dp391
g7
I1
sg8
I00
sg9
I5
sg10
(lp392
g191
ag278
asg24
I00
sg25
I00
sg26
I474293
sg17
S'3369.38343505'
p393
sba(igraph
Edge
p394
(dp395
g7
I1
sg8
I00
sg9
I5
sg10
(lp396
g205
ag292
asg24
I00
sg25
I00
sg26
I474294
sg17
S'3369.38531461'
p397
sba(igraph
Edge
p398
(dp399
g7
I1
sg8
I00
sg9
I5
sg10
(lp400
g219
ag306
asg24
I00
sg25
I00
sg26
I474295
sg17
S'3369.38718887'
p401
sba(igraph
Edge
p402
(dp403
g7
I1
sg8
I00
sg9
I5
sg10
(lp404
g233
ag320
asg24
I00
sg25
I00
sg26
I474296
sg17
S'3369.38905559'
p405
sba(igraph
Edge
p406
(dp407
g7
I1
sg8
I00
sg9
I5
sg10
(lp408
g247
ag334
asg24
I00
sg25
I00
sg26
I474297
sg17
S'3369.39094103'
p409
sba(igraph
Edge
p410
(dp411
g7
I1
sg8
I00
sg9
I5
sg10
(lp412
g261
a(igraph
Vertex
p413
(dp414
g14
F66.0
sg15
F-7.8947368421052033
sg16
I474373
sg8
I00
sg17
S'3369.25581492'
p415
sg19
g20
sbasg24
I00
sg25
I00
sg26
I474298
sg17
S'3369.4018561'
p416
sba(igraph
Edge
p417
(dp418
g7
I1
sg8
I00
sg9
I5
sg10
(lp419
g271
a(igraph
Vertex
p420
(dp421
g14
F66.0
sg15
F23.684210526315866
sg16
I474374
sg8
I00
sg17
S'3369.25735338'
p422
sg19
g20
sbasg24
I00
sg25
I00
sg26
I474299
sg17
S'3369.40388764'
p423
sba(igraph
Edge
p424
(dp425
g7
I1
sg8
I00
sg9
I5
sg10
(lp426
g285
a(igraph
Vertex
p427
(dp428
g14
F66.0
sg15
F55.263157894736878
sg16
I474375
sg8
I00
sg17
S'3369.25893039'
p429
sg19
g20
sbasg24
I00
sg25
I00
sg26
I474300
sg17
S'3369.40604825'
p430
sba(igraph
Edge
p431
(dp432
g7
I1
sg8
I00
sg9
I5
sg10
(lp433
g299
a(igraph
Vertex
p434
(dp435
g14
F66.0
sg15
F86.84210526315789
sg16
I474376
sg8
I00
sg17
S'3369.26053898'
p436
sg19
g20
sbasg24
I00
sg25
I00
sg26
I474301
sg17
S'3369.40811612'
p437
sba(igraph
Edge
p438
(dp439
g7
I1
sg8
I00
sg9
I5
sg10
(lp440
g313
a(igraph
Vertex
p441
(dp442
g14
F66.0
sg15
F118.4210526315789
sg16
I474377
sg8
I00
sg17
S'3369.26218919'
p443
sg19
g20
sbasg24
I00
sg25
I00
sg26
I474302
sg17
S'3369.41013509'
p444
sba(igraph
Edge
p445
(dp446
g7
I1
sg8
I00
sg9
I5
sg10
(lp447
g327
a(igraph
Vertex
p448
(dp449
g14
F66.0
sg15
F149.99999999999994
sg16
I474378
sg8
I00
sg17
S'3369.26388494'
p450
sg19
g20
sbasg24
I00
sg25
I00
sg26
I474303
sg17
S'3369.41215462'
p451
sba(igraph
Edge
p452
(dp453
g7
I1
sg8
I00
sg9
I5
sg10
(lp454
g334
ag261
asg24
I00
sg25
I00
sg26
I474304
sg17
S'3900.48533403'
p455
sba(igraph
Edge
p456
(dp457
g7
I1
sg8
I00
sg9
I5
sg10
(lp458
g254
ag181
asg24
I00
sg25
I00
sg26
I474305
sg17
S'3902.73930737'
p459
sba(igraph
Edge
p460
(dp461
g7
I1
sg8
I00
sg9
I5
sg10
(lp462
g174
ag101
asg24
I00
sg25
I00
sg26
I474306
sg17
S'3907.43185209'
p463
sba(igraph
Edge
p464
(dp465
g7
I1
sg8
I00
sg9
I5
sg10
(lp466
g94
ag12
asg24
I00
sg25
I00
sg26
I474307
sg17
S'3910.43110842'
p467
sbasS'vertices'
p468
(lp469
g12
ag21
ag31
ag38
ag45
ag52
ag59
ag66
ag73
ag80
ag87
ag94
ag101
ag104
ag111
ag118
ag125
ag132
ag139
ag146
ag153
ag160
ag167
ag174
ag181
ag184
ag191
ag198
ag205
ag212
ag219
ag226
ag233
ag240
ag247
ag254
ag261
ag264
ag271
ag278
ag285
ag292
ag299
ag306
ag313
ag320
ag327
ag334
ag413
ag420
ag427
ag434
ag441
ag448
asS'tags'
p470
(lp471
sb.