(igraph
Graph
p0
(dp1
S'labelingConstraints'
p2
I-1
sS'edges'
p3
(lp4
(igraph
Edge
p5
(dp6
S'direction'
p7
I1
sS'selected'
p8
I00
sS'height'
p9
I5
sS'vs'
p10
(lp11
(igraph
Vertex
p12
(dp13
S'y'
p14
F-66.0
sS'x'
p15
F-55.263157894736793
sS'circle'
p16
I468825
sg8
I00
sS'id'
p17
S'3369.22243665'
p18
sS'label'
p19
S'NULL'
p20
sba(igraph
Vertex
p21
(dp22
g14
F-66.0
sg15
F-39.473684210526258
sg16
I468826
sg8
I00
sg17
S'3369.22249476'
p23
sg19
g20
sbasS'wrap'
p24
I00
sS'curved'
p25
I00
sS'line'
p26
I468741
sg17
S'3369.26524014'
p27
sba(igraph
Edge
p28
(dp29
g7
I1
sg8
I00
sg9
I5
sg10
(lp30
g21
a(igraph
Vertex
p31
(dp32
g14
F-66.0
sg15
F-23.684210526315738
sg16
I468827
sg8
I00
sg17
S'3369.22256153'
p33
sg19
g20
sbasg24
I00
sg25
I00
sg26
I468742
sg17
S'3369.26536948'
p34
sba(igraph
Edge
p35
(dp36
g7
I1
sg8
I00
sg9
I5
sg10
(lp37
g31
a(igraph
Vertex
p38
(dp39
g14
F-66.0
sg15
F-7.8947368421052033
sg16
I468828
sg8
I00
sg17
S'3369.22263444'
p40
sg19
g20
sbasg24
I00
sg25
I00
sg26
I468743
sg17
S'3369.26551531'
p41
sba(igraph
Edge
p42
(dp43
g7
I1
sg8
I00
sg9
I5
sg10
(lp44
g38
a(igraph
Vertex
p45
(dp46
g14
F-66.0
sg15
F7.894736842105317
sg16
I468829
sg8
I00
sg17
S'3369.22271685'
p47
sg19
g20
sbasg24
I00
sg25
I00
sg26
I468744
sg17
S'3369.26567483'
p48
sba(igraph
Edge
p49
(dp50
g7
I1
sg8
I00
sg9
I5
sg10
(lp51
g45
a(igraph
Vertex
p52
(dp53
g14
F-66.0
sg15
F23.684210526315866
sg16
I468830
sg8
I00
sg17
S'3369.22280597'
p54
sg19
g20
sbasg24
I00
sg25
I00
sg26
I468745
sg17
S'3369.26584831'
p55
sba(igraph
Edge
p56
(dp57
g7
I1
sg8
I00
sg9
I5
sg10
(lp58
g52
a(igraph
Vertex
p59
(dp60
g14
F-66.0
sg15
F39.473684210526358
sg16
I468831
sg8
I00
sg17
S'3369.22290319'
p61
sg19
g20
sbasg24
I00
sg25
I00
sg26
I468746
sg17
S'3369.26603269'
p62
sba(igraph
Edge
p63
(dp64
g7
I1
sg8
I00
sg9
I5
sg10
(lp65
g59
a(igraph
Vertex
p66
(dp67
g14
F-66.0
sg15
F55.263157894736878
sg16
I468832
sg8
I00
sg17
S'3369.22300879'
p68
sg19
g20
sbasg24
I00
sg25
I00
sg26
I468747
sg17
S'3369.26623412'
p69
sba(igraph
Edge
p70
(dp71
g7
I1
sg8
I00
sg9
I5
sg10
(lp72
g66
a(igraph
Vertex
p73
(dp74
g14
F-66.0
sg15
F71.05263157894737
sg16
I468833
sg8
I00
sg17
S'3369.22312249'
p75
sg19
g20
sbasg24
I00
sg25
I00
sg26
I468748
sg17
S'3369.26644923'
p76
sba(igraph
Edge
p77
(dp78
g7
I1
sg8
I00
sg9
I5
sg10
(lp79
g73
a(igraph
Vertex
p80
(dp81
g14
F-66.0
sg15
F86.84210526315789
sg16
I468834
sg8
I00
sg17
S'3369.2232429'
p82
sg19
g20
sbasg24
I00
sg25
I00
sg26
I468749
sg17
S'3369.26667691'
p83
sba(igraph
Edge
p84
(dp85
g7
I1
sg8
I00
sg9
I5
sg10
(lp86
g80
a(igraph
Vertex
p87
(dp88
g14
F-66.0
sg15
F102.63157894736841
sg16
I468835
sg8
I00
sg17
S'3369.22337336'
p89
sg19
g20
sbasg24
I00
sg25
I00
sg26
I468750
sg17
S'3369.2669194'
p90
sba(igraph
Edge
p91
(dp92
g7
I1
sg8
I00
sg9
I5
sg10
(lp93
g87
a(igraph
Vertex
p94
(dp95
g14
F-66.0
sg15
F118.4210526315789
sg16
I468836
sg8
I00
sg17
S'3369.22351416'
p96
sg19
g20
sbasg24
I00
sg25
I00
sg26
I468751
sg17
S'3369.26717865'
p97
sba(igraph
Edge
p98
(dp99
g7
I1
sg8
I00
sg9
I5
sg10
(lp100
g94
a(igraph
Vertex
p101
(dp102
g14
F-66.0
sg15
F134.21052631578942
sg16
I468837
sg8
I00
sg17
S'3369.22367508'
p103
sg19
I0
sbasg24
I00
sg25
I00
sg26
I468752
sg17
S'3369.26745159'
p104
sba(igraph
Edge
p105
(dp106
g7
I1
sg8
I00
sg9
I5
sg10
(lp107
g101
a(igraph
Vertex
p108
(dp109
g14
F-66.0
sg15
F149.99999999999994
sg16
I468839
sg8
I00
sg17
S'3369.22383487'
p110
sg19
g20
sbasg24
I00
sg25
I00
sg26
I468753
sg17
S'3369.2677385'
p111
sba(igraph
Edge
p112
(dp113
g7
I1
sg8
I00
sg9
I5
sg10
(lp114
(igraph
Vertex
p115
(dp116
g14
F-33.0
sg15
F-55.263157894736793
sg16
I468840
sg8
I00
sg17
S'3369.22518477'
p117
sg19
I0
sba(igraph
Vertex
p118
(dp119
g14
F-33.0
sg15
F-39.473684210526258
sg16
I468842
sg8
I00
sg17
S'3369.22540463'
p120
sg19
g20
sbasg24
I00
sg25
I00
sg26
I468754
sg17
S'3369.270545'
p121
sba(igraph
Edge
p122
(dp123
g7
I1
sg8
I00
sg9
I5
sg10
(lp124
g118
a(igraph
Vertex
p125
(dp126
g14
F-33.0
sg15
F-23.684210526315738
sg16
I468843
sg8
I00
sg17
S'3369.22563398'
p127
sg19
g20
sbasg24
I00
sg25
I00
sg26
I468755
sg17
S'3369.27095846'
p128
sba(igraph
Edge
p129
(dp130
g7
I1
sg8
I00
sg9
I5
sg10
(lp131
g125
a(igraph
Vertex
p132
(dp133
g14
F-33.0
sg15
F-7.8947368421052033
sg16
I468844
sg8
I00
sg17
S'3369.22587089'
p134
sg19
I0
sbasg24
I00
sg25
I00
sg26
I468756
sg17
S'3369.27139986'
p135
sba(igraph
Edge
p136
(dp137
g7
I1
sg8
I00
sg9
I5
sg10
(lp138
g132
a(igraph
Vertex
p139
(dp140
g14
F-33.0
sg15
F7.894736842105317
sg16
I468846
sg8
I00
sg17
S'3369.22611505'
p141
sg19
g20
sbasg24
I00
sg25
I00
sg26
I468757
sg17
S'3369.27184572'
p142
sba(igraph
Edge
p143
(dp144
g7
I1
sg8
I00
sg9
I5
sg10
(lp145
g139
a(igraph
Vertex
p146
(dp147
g14
F-33.0
sg15
F23.684210526315866
sg16
I468847
sg8
I00
sg17
S'3369.22636816'
p148
sg19
I0
sbasg24
I00
sg25
I00
sg26
I468758
sg17
S'3369.27230304'
p149
sba(igraph
Edge
p150
(dp151
g7
I1
sg8
I00
sg9
I5
sg10
(lp152
g146
a(igraph
Vertex
p153
(dp154
g14
F-33.0
sg15
F39.473684210526358
sg16
I468849
sg8
I00
sg17
S'3369.22664221'
p155
sg19
g20
sbasg24
I00
sg25
I00
sg26
I468759
sg17
S'3369.27277182'
p156
sba(igraph
Edge
p157
(dp158
g7
I1
sg8
I00
sg9
I5
sg10
(lp159
g153
a(igraph
Vertex
p160
(dp161
g14
F-33.0
sg15
F55.263157894736878
sg16
I468850
sg8
I00
sg17
S'3369.22691404'
p162
sg19
I0
sbasg24
I00
sg25
I00
sg26
I468760
sg17
S'3369.27326015'
p163
sba(igraph
Edge
p164
(dp165
g7
I1
sg8
I00
sg9
I5
sg10
(lp166
g160
a(igraph
Vertex
p167
(dp168
g14
F-33.0
sg15
F71.05263157894737
sg16
I468852
sg8
I00
sg17
S'3369.22719256'
p169
sg19
g20
sbasg24
I00
sg25
I00
sg26
I468761
sg17
S'3369.27375854'
p170
sba(igraph
Edge
p171
(dp172
g7
I1
sg8
I00
sg9
I5
sg10
(lp173
g167
a(igraph
Vertex
p174
(dp175
g14
F-33.0
sg15
F86.84210526315789
sg16
I468853
sg8
I00
sg17
S'3369.22748226'
p176
sg19
I0
sbasg24
I00
sg25
I00
sg26
I468762
sg17
S'3369.27427257'
p177
sba(igraph
Edge
p178
(dp179
g7
I1
sg8
I00
sg9
I5
sg10
(lp180
g174
a(igraph
Vertex
p181
(dp182
g14
F-33.0
sg15
F102.63157894736841
sg16
I468855
sg8
I00
sg17
S'3369.22777755'
p183
sg19
g20
sbasg24
I00
sg25
I00
sg26
I468763
sg17
S'3369.27480252'
p184
sba(igraph
Edge
p185
(dp186
g7
I1
sg8
I00
sg9
I5
sg10
(lp187
g181
a(igraph
Vertex
p188
(dp189
g14
F-33.0
sg15
F118.4210526315789
sg16
I468856
sg8
I00
sg17
S'3369.22808122'
p190
sg19
I0
sbasg24
I00
sg25
I00
sg26
I468764
sg17
S'3369.2753498'
p191
sba(igraph
Edge
p192
(dp193
g7
I1
sg8
I00
sg9
I5
sg10
(lp194
g188
a(igraph
Vertex
p195
(dp196
g14
F-33.0
sg15
F134.21052631578942
sg16
I468858
sg8
I00
sg17
S'3369.22839132'
p197
sg19
g20
sbasg24
I00
sg25
I00
sg26
I468765
sg17
S'3369.27590741'
p198
sba(igraph
Edge
p199
(dp200
g7
I1
sg8
I00
sg9
I5
sg10
(lp201
g195
a(igraph
Vertex
p202
(dp203
g14
F-33.0
sg15
F149.99999999999994
sg16
I468859
sg8
I00
sg17
S'3369.22871259'
p204
sg19
g20
sbasg24
I00
sg25
I00
sg26
I468766
sg17
S'3369.27648067'
p205
sba(igraph
Edge
p206
(dp207
g7
I1
sg8
I00
sg9
I5
sg10
(lp208
(igraph
Vertex
p209
(dp210
g14
F0.0
sg15
F-55.263157894736793
sg16
I468860
sg8
I00
sg17
S'3369.23120927'
p211
sg19
g20
sba(igraph
Vertex
p212
(dp213
g14
F0.0
sg15
F-39.473684210526258
sg16
I468861
sg8
I00
sg17
S'3369.23160094'
p214
sg19
g20
sbasg24
I00
sg25
I00
sg26
I468767
sg17
S'3369.28158467'
p215
sba(igraph
Edge
p216
(dp217
g7
I1
sg8
I00
sg9
I5
sg10
(lp218
g212
a(igraph
Vertex
p219
(dp220
g14
F0.0
sg15
F-23.684210526315738
sg16
I468862
sg8
I00
sg17
S'3369.23201245'
p221
sg19
g20
sbasg24
I00
sg25
I00
sg26
I468768
sg17
S'3369.28228141'
p222
sba(igraph
Edge
p223
(dp224
g7
I1
sg8
I00
sg9
I5
sg10
(lp225
g219
a(igraph
Vertex
p226
(dp227
g14
F0.0
sg15
F-7.8947368421052033
sg16
I468863
sg8
I00
sg17
S'3369.23244574'
p228
sg19
g20
sbasg24
I00
sg25
I00
sg26
I468769
sg17
S'3369.28299099'
p229
sba(igraph
Edge
p230
(dp231
g7
I1
sg8
I00
sg9
I5
sg10
(lp232
g226
a(igraph
Vertex
p233
(dp234
g14
F0.0
sg15
F7.894736842105317
sg16
I468864
sg8
I00
sg17
S'3369.23286004'
p235
sg19
g20
sbasg24
I00
sg25
I00
sg26
I468770
sg17
S'3369.28374137'
p236
sba(igraph
Edge
p237
(dp238
g7
I1
sg8
I00
sg9
I5
sg10
(lp239
g233
a(igraph
Vertex
p240
(dp241
g14
F0.0
sg15
F23.684210526315866
sg16
I468865
sg8
I00
sg17
S'3369.23327993'
p242
sg19
g20
sbasg24
I00
sg25
I00
sg26
I468771
sg17
S'3369.28448308'
p243
sba(igraph
Edge
p244
(dp245
g7
I1
sg8
I00
sg9
I5
sg10
(lp246
g240
a(igraph
Vertex
p247
(dp248
g14
F0.0
sg15
F39.473684210526358
sg16
I468866
sg8
I00
sg17
S'3369.23370792'
p249
sg19
g20
sbasg24
I00
sg25
I00
sg26
I468772
sg17
S'3369.28528319'
p250
sba(igraph
Edge
p251
(dp252
g7
I1
sg8
I00
sg9
I5
sg10
(lp253
g247
a(igraph
Vertex
p254
(dp255
g14
F0.0
sg15
F55.263157894736878
sg16
I468867
sg8
I00
sg17
S'3369.23414484'
p256
sg19
g20
sbasg24
I00
sg25
I00
sg26
I468773
sg17
S'3369.2861048'
p257
sba(igraph
Edge
p258
(dp259
g7
I1
sg8
I00
sg9
I5
sg10
(lp260
g254
a(igraph
Vertex
p261
(dp262
g14
F0.0
sg15
F71.05263157894737
sg16
I468868
sg8
I00
sg17
S'3369.23459127'
p263
sg19
g20
sbasg24
I00
sg25
I00
sg26
I468774
sg17
S'3369.28692082'
p264
sba(igraph
Edge
p265
(dp266
g7
I1
sg8
I00
sg9
I5
sg10
(lp267
g261
a(igraph
Vertex
p268
(dp269
g14
F0.0
sg15
F86.84210526315789
sg16
I468869
sg8
I00
sg17
S'3369.23504552'
p270
sg19
g20
sbasg24
I00
sg25
I00
sg26
I468775
sg17
S'3369.2877511'
p271
sba(igraph
Edge
p272
(dp273
g7
I1
sg8
I00
sg9
I5
sg10
(lp274
g268
a(igraph
Vertex
p275
(dp276
g14
F0.0
sg15
F102.63157894736841
sg16
I468870
sg8
I00
sg17
S'3369.23552239'
p277
sg19
g20
sbasg24
I00
sg25
I00
sg26
I468776
sg17
S'3369.28860875'
p278
sba(igraph
Edge
p279
(dp280
g7
I1
sg8
I00
sg9
I5
sg10
(lp281
g275
a(igraph
Vertex
p282
(dp283
g14
F0.0
sg15
F118.4210526315789
sg16
I468871
sg8
I00
sg17
S'3369.23599564'
p284
sg19
g20
sbasg24
I00
sg25
I00
sg26
I468777
sg17
S'3369.28946947'
p285
sba(igraph
Edge
p286
(dp287
g7
I1
sg8
I00
sg9
I5
sg10
(lp288
g282
a(igraph
Vertex
p289
(dp290
g14
F0.0
sg15
F134.21052631578942
sg16
I468872
sg8
I00
sg17
S'3369.2364795'
p291
sg19
I0
sbasg24
I00
sg25
I00
sg26
I468778
sg17
S'3369.29036595'
p292
sba(igraph
Edge
p293
(dp294
g7
I1
sg8
I00
sg9
I5
sg10
(lp295
g289
a(igraph
Vertex
p296
(dp297
g14
F0.0
sg15
F149.99999999999994
sg16
I468874
sg8
I00
sg17
S'3369.23696531'
p298
sg19
g20
sbasg24
I00
sg25
I00
sg26
I468779
sg17
S'3369.29123394'
p299
sba(igraph
Edge
p300
(dp301
g7
I1
sg8
I00
sg9
I5
sg10
(lp302
(igraph
Vertex
p303
(dp304
g14
F33.0
sg15
F-55.263157894736793
sg16
I468875
sg8
I00
sg17
S'3369.24065908'
p305
sg19
I0
sba(igraph
Vertex
p306
(dp307
g14
F33.0
sg15
F-39.473684210526258
sg16
I468877
sg8
I00
sg17
S'3369.24122284'
p308
sg19
g20
sbasg24
I00
sg25
I00
sg26
I468780
sg17
S'3369.29874076'
p309
sba(igraph
Edge
p310
(dp311
g7
I1
sg8
I00
sg9
I5
sg10
(lp312
g306
a(igraph
Vertex
p313
(dp314
g14
F33.0
sg15
F-23.684210526315738
sg16
I468878
sg8
I00
sg17
S'3369.24179107'
p315
sg19
I0
sbasg24
I00
sg25
I00
sg26
I468781
sg17
S'3369.29973279'
p316
sba(igraph
Edge
p317
(dp318
g7
I1
sg8
I00
sg9
I5
sg10
(lp319
g313
a(igraph
Vertex
p320
(dp321
g14
F33.0
sg15
F-7.8947368421052033
sg16
I468880
sg8
I00
sg17
S'3369.24237103'
p322
sg19
g20
sbasg24
I00
sg25
I00
sg26
I468782
sg17
S'3369.30074046'
p323
sba(igraph
Edge
p324
(dp325
g7
I1
sg8
I00
sg9
I5
sg10
(lp326
g320
a(igraph
Vertex
p327
(dp328
g14
F33.0
sg15
F7.894736842105317
sg16
I468881
sg8
I00
sg17
S'3369.24295574'
p329
sg19
I0
sbasg24
I00
sg25
I00
sg26
I468783
sg17
S'3369.30178109'
p330
sba(igraph
Edge
p331
(dp332
g7
I1
sg8
I00
sg9
I5
sg10
(lp333
g327
a(igraph
Vertex
p334
(dp335
g14
F33.0
sg15
F23.684210526315866
sg16
I468883
sg8
I00
sg17
S'3369.24355218'
p336
sg19
g20
sbasg24
I00
sg25
I00
sg26
I468784
sg17
S'3369.30282284'
p337
sba(igraph
Edge
p338
(dp339
g7
I1
sg8
I00
sg9
I5
sg10
(lp340
g334
a(igraph
Vertex
p341
(dp342
g14
F33.0
sg15
F39.473684210526358
sg16
I468884
sg8
I00
sg17
S'3369.24416623'
p343
sg19
I0
sbasg24
I00
sg25
I00
sg26
I468785
sg17
S'3369.3038794'
p344
sba(igraph
Edge
p345
(dp346
g7
I1
sg8
I00
sg9
I5
sg10
(lp347
g341
a(igraph
Vertex
p348
(dp349
g14
F33.0
sg15
F55.263157894736878
sg16
I468886
sg8
I00
sg17
S'3369.24477915'
p350
sg19
g20
sbasg24
I00
sg25
I00
sg26
I468786
sg17
S'3369.30506726'
p351
sba(igraph
Edge
p352
(dp353
g7
I1
sg8
I00
sg9
I5
sg10
(lp354
g348
a(igraph
Vertex
p355
(dp356
g14
F33.0
sg15
F71.05263157894737
sg16
I468887
sg8
I00
sg17
S'3369.24540577'
p357
sg19
I0
sbasg24
I00
sg25
I00
sg26
I468787
sg17
S'3369.30617746'
p358
sba(igraph
Edge
p359
(dp360
g7
I1
sg8
I00
sg9
I5
sg10
(lp361
g355
a(igraph
Vertex
p362
(dp363
g14
F33.0
sg15
F86.84210526315789
sg16
I468889
sg8
I00
sg17
S'3369.24603518'
p364
sg19
g20
sbasg24
I00
sg25
I00
sg26
I468788
sg17
S'3369.30729827'
p365
sba(igraph
Edge
p366
(dp367
g7
I1
sg8
I00
sg9
I5
sg10
(lp368
g362
a(igraph
Vertex
p369
(dp370
g14
F33.0
sg15
F102.63157894736841
sg16
I468890
sg8
I00
sg17
S'3369.24667157'
p371
sg19
I0
sbasg24
I00
sg25
I00
sg26
I468789
sg17
S'3369.3084554'
p372
sba(igraph
Edge
p373
(dp374
g7
I1
sg8
I00
sg9
I5
sg10
(lp375
g369
a(igraph
Vertex
p376
(dp377
g14
F33.0
sg15
F118.4210526315789
sg16
I468892
sg8
I00
sg17
S'3369.24731775'
p378
sg19
g20
sbasg24
I00
sg25
I00
sg26
I468790
sg17
S'3369.30959298'
p379
sba(igraph
Edge
p380
(dp381
g7
I1
sg8
I00
sg9
I5
sg10
(lp382
g376
a(igraph
Vertex
p383
(dp384
g14
F33.0
sg15
F134.21052631578942
sg16
I468893
sg8
I00
sg17
S'3369.24797621'
p385
sg19
g20
sbasg24
I00
sg25
I00
sg26
I468791
sg17
S'3369.31073614'
p386
sba(igraph
Edge
p387
(dp388
g7
I1
sg8
I00
sg9
I5
sg10
(lp389
g383
a(igraph
Vertex
p390
(dp391
g14
F33.0
sg15
F149.99999999999994
sg16
I468894
sg8
I00
sg17
S'3369.24864138'
p392
sg19
g20
sbasg24
I00
sg25
I00
sg26
I468792
sg17
S'3369.31187651'
p393
sba(igraph
Edge
p394
(dp395
g7
I1
sg8
I00
sg9
I5
sg10
(lp396
g12
ag118
asg24
I00
sg25
I00
sg26
I468793
sg17
S'3369.34541429'
p397
sba(igraph
Edge
p398
(dp399
g7
I1
sg8
I00
sg9
I5
sg10
(lp400
g31
ag132
asg24
I00
sg25
I00
sg26
I468794
sg17
S'3369.34692985'
p401
sba(igraph
Edge
p402
(dp403
g7
I1
sg8
I00
sg9
I5
sg10
(lp404
g45
ag146
asg24
I00
sg25
I00
sg26
I468795
sg17
S'3369.34846189'
p405
sba(igraph
Edge
p406
(dp407
g7
I1
sg8
I00
sg9
I5
sg10
(lp408
g59
ag160
asg24
I00
sg25
I00
sg26
I468796
sg17
S'3369.35000175'
p409
sba(igraph
Edge
p410
(dp411
g7
I1
sg8
I00
sg9
I5
sg10
(lp412
g73
ag174
asg24
I00
sg25
I00
sg26
I468797
sg17
S'3369.35157206'
p413
sba(igraph
Edge
p414
(dp415
g7
I1
sg8
I00
sg9
I5
sg10
(lp416
g87
ag188
asg24
I00
sg25
I00
sg26
I468798
sg17
S'3369.35316192'
p417
sba(igraph
Edge
p418
(dp419
g7
I1
sg8
I00
sg9
I5
sg10
(lp420
g101
ag202
asg24
I00
sg25
I00
sg26
I468799
sg17
S'3369.3548884'
p421
sba(igraph
Edge
p422
(dp423
g7
I1
sg8
I00
sg9
I5
sg10
(lp424
g115
ag212
asg24
I00
sg25
I00
sg26
I468800
sg17
S'3369.36162333'
p425
sba(igraph
Edge
p426
(dp427
g7
I1
sg8
I00
sg9
I5
sg10
(lp428
g125
ag226
asg24
I00
sg25
I00
sg26
I468801
sg17
S'3369.3640066'
p429
sba(igraph
Edge
p430
(dp431
g7
I1
sg8
I00
sg9
I5
sg10
(lp432
g139
ag240
asg24
I00
sg25
I00
sg26
I468802
sg17
S'3369.36567916'
p433
sba(igraph
Edge
p434
(dp435
g7
I1
sg8
I00
sg9
I5
sg10
(lp436
g153
ag254
asg24
I00
sg25
I00
sg26
I468803
sg17
S'3369.36736708'
p437
sba(igraph
Edge
p438
(dp439
g7
I1
sg8
I00
sg9
I5
sg10
(lp440
g167
ag268
asg24
I00
sg25
I00
sg26
I468804
sg17
S'3369.36906339'
p441
sba(igraph
Edge
p442
(dp443
g7
I1
sg8
I00
sg9
I5
sg10
(lp444
g181
ag282
asg24
I00
sg25
I00
sg26
I468805
sg17
S'3369.3707907'
p445
sba(igraph
Edge
p446
(dp447
g7
I1
sg8
I00
sg9
I5
sg10
(lp448
g195
ag296
asg24
I00
sg25
I00
sg26
I468806
sg17
S'3369.37251746'
p449
sba(igraph
Edge
p450
(dp451
g7
I1
sg8
I00
sg9
I5
sg10
(lp452
g209
ag306
asg24
I00
sg25
I00
sg26
I468807
sg17
S'3369.3795636'
p453
sba(igraph
Edge
p454
(dp455
g7
I1
sg8
I00
sg9
I5
sg10
(lp456
g219
ag320
asg24
I00
sg25
I00
sg26
I468808
sg17
S'3369.3814739'
p457
sba(igraph
Edge
p458
(dp459
g7
I1
sg8
I00
sg9
I5
sg10
(lp460
g233
ag334
asg24
I00
sg25
I00
sg26
I468809
sg17
S'3369.38343505'
p461
sba(igraph
Edge
p462
(dp463
g7
I1
sg8
I00
sg9
I5
sg10
(lp464
g247
ag348
asg24
I00
sg25
I00
sg26
I468810
sg17
S'3369.38531461'
p465
sba(igraph
Edge
p466
(dp467
g7
I1
sg8
I00
sg9
I5
sg10
(lp468
g261
ag362
asg24
I00
sg25
I00
sg26
I468811
sg17
S'3369.38718887'
p469
sba(igraph
Edge
p470
(dp471
g7
I1
sg8
I00
sg9
I5
sg10
(lp472
g275
ag376
asg24
I00
sg25
I00
sg26
I468812
sg17
S'3369.38905559'
p473
sba(igraph
Edge
p474
(dp475
g7
I1
sg8
I00
sg9
I5
sg10
(lp476
g289
ag390
asg24
I00
sg25
I00
sg26
I468813
sg17
S'3369.39094103'
p477
sba(igraph
Edge
p478
(dp479
g7
I1
sg8
I00
sg9
I5
sg10
(lp480
g303
a(igraph
Vertex
p481
(dp482
g14
F66.0
sg15
F-39.473684210526258
sg16
I468895
sg8
I00
sg17
S'3369.25431277'
p483
sg19
g20
sbasg24
I00
sg25
I00
sg26
I468814
sg17
S'3369.39975276'
p484
sba(igraph
Edge
p485
(dp486
g7
I1
sg8
I00
sg9
I5
sg10
(lp487
g313
a(igraph
Vertex
p488
(dp489
g14
F66.0
sg15
F-7.8947368421052033
sg16
I468896
sg8
I00
sg17
S'3369.25581492'
p490
sg19
g20
sbasg24
I00
sg25
I00
sg26
I468815
sg17
S'3369.4018561'
p491
sba(igraph
Edge
p492
(dp493
g7
I1
sg8
I00
sg9
I5
sg10
(lp494
g327
a(igraph
Vertex
p495
(dp496
g14
F66.0
sg15
F23.684210526315866
sg16
I468897
sg8
I00
sg17
S'3369.25735338'
p497
sg19
g20
sbasg24
I00
sg25
I00
sg26
I468816
sg17
S'3369.40388764'
p498
sba(igraph
Edge
p499
(dp500
g7
I1
sg8
I00
sg9
I5
sg10
(lp501
g341
a(igraph
Vertex
p502
(dp503
g14
F66.0
sg15
F55.263157894736878
sg16
I468898
sg8
I00
sg17
S'3369.25893039'
p504
sg19
g20
sbasg24
I00
sg25
I00
sg26
I468817
sg17
S'3369.40604825'
p505
sba(igraph
Edge
p506
(dp507
g7
I1
sg8
I00
sg9
I5
sg10
(lp508
g355
a(igraph
Vertex
p509
(dp510
g14
F66.0
sg15
F86.84210526315789
sg16
I468899
sg8
I00
sg17
S'3369.26053898'
p511
sg19
g20
sbasg24
I00
sg25
I00
sg26
I468818
sg17
S'3369.40811612'
p512
sba(igraph
Edge
p513
(dp514
g7
I1
sg8
I00
sg9
I5
sg10
(lp515
g369
a(igraph
Vertex
p516
(dp517
g14
F66.0
sg15
F118.4210526315789
sg16
I468900
sg8
I00
sg17
S'3369.26218919'
p518
sg19
g20
sbasg24
I00
sg25
I00
sg26
I468819
sg17
S'3369.41013509'
p519
sba(igraph
Edge
p520
(dp521
g7
I1
sg8
I00
sg9
I5
sg10
(lp522
g383
a(igraph
Vertex
p523
(dp524
g14
F66.0
sg15
F149.99999999999994
sg16
I468901
sg8
I00
sg17
S'3369.26388494'
p525
sg19
g20
sbasg24
I00
sg25
I00
sg26
I468820
sg17
S'3369.41215462'
p526
sba(igraph
Edge
p527
(dp528
g7
I1
sg8
I00
sg9
I5
sg10
(lp529
g303
ag390
asg24
I00
sg25
I00
sg26
I468821
sg17
S'3837.56757381'
p530
sba(igraph
Edge
p531
(dp532
g7
I1
sg8
I00
sg9
I5
sg10
(lp533
g209
ag296
asg24
I00
sg25
I00
sg26
I468822
sg17
S'3842.61444513'
p534
sba(igraph
Edge
p535
(dp536
g7
I1
sg8
I00
sg9
I5
sg10
(lp537
g115
ag202
asg24
I00
sg25
I00
sg26
I468823
sg17
S'3846.51623293'
p538
sba(igraph
Edge
p539
(dp540
g7
I1
sg8
I00
sg9
I5
sg10
(lp541
g12
ag108
asg24
I00
sg25
I00
sg26
I468824
sg17
S'3850.76280449'
p542
sbasS'vertices'
p543
(lp544
g12
ag21
ag31
ag38
ag45
ag52
ag59
ag66
ag73
ag80
ag87
ag94
ag101
ag108
ag115
ag118
ag125
ag132
ag139
ag146
ag153
ag160
ag167
ag174
ag181
ag188
ag195
ag202
ag209
ag212
ag219
ag226
ag233
ag240
ag247
ag254
ag261
ag268
ag275
ag282
ag289
ag296
ag303
ag306
ag313
ag320
ag327
ag334
ag341
ag348
ag355
ag362
ag369
ag376
ag383
ag390
ag481
ag488
ag495
ag502
ag509
ag516
ag523
asS'tags'
p545
(lp546
sb.