(igraph
Graph
p0
(dp1
S'labelingConstraints'
p2
I-1
sS'edges'
p3
(lp4
(igraph
Edge
p5
(dp6
S'direction'
p7
I1
sS'selected'
p8
I00
sS'height'
p9
I5
sS'vs'
p10
(lp11
(igraph
Vertex
p12
(dp13
S'y'
p14
F-66.0
sS'x'
p15
F-86.842105263157833
sS'circle'
p16
I464492
sg8
I00
sS'id'
p17
S'3369.22234474'
p18
sS'label'
p19
S'NULL'
p20
sba(igraph
Vertex
p21
(dp22
g14
F-66.0
sg15
F-71.052631578947313
sg16
I464493
sg8
I00
sg17
S'3369.22238636'
p23
sg19
g20
sbasS'wrap'
p24
I00
sS'curved'
p25
I00
sS'line'
p26
I464396
sg17
S'3369.26502307'
p27
sba(igraph
Edge
p28
(dp29
g7
I1
sg8
I00
sg9
I5
sg10
(lp30
g21
a(igraph
Vertex
p31
(dp32
g14
F-66.0
sg15
F-55.263157894736793
sg16
I464494
sg8
I00
sg17
S'3369.22243665'
p33
sg19
g20
sbasg24
I00
sg25
I00
sg26
I464397
sg17
S'3369.26512476'
p34
sba(igraph
Edge
p35
(dp36
g7
I1
sg8
I00
sg9
I5
sg10
(lp37
g31
a(igraph
Vertex
p38
(dp39
g14
F-66.0
sg15
F-39.473684210526258
sg16
I464495
sg8
I00
sg17
S'3369.22249476'
p40
sg19
g20
sbasg24
I00
sg25
I00
sg26
I464398
sg17
S'3369.26524014'
p41
sba(igraph
Edge
p42
(dp43
g7
I1
sg8
I00
sg9
I5
sg10
(lp44
g38
a(igraph
Vertex
p45
(dp46
g14
F-66.0
sg15
F-23.684210526315738
sg16
I464496
sg8
I00
sg17
S'3369.22256153'
p47
sg19
g20
sbasg24
I00
sg25
I00
sg26
I464399
sg17
S'3369.26536948'
p48
sba(igraph
Edge
p49
(dp50
g7
I1
sg8
I00
sg9
I5
sg10
(lp51
g45
a(igraph
Vertex
p52
(dp53
g14
F-66.0
sg15
F-7.8947368421052033
sg16
I464497
sg8
I00
sg17
S'3369.22263444'
p54
sg19
g20
sbasg24
I00
sg25
I00
sg26
I464400
sg17
S'3369.26551531'
p55
sba(igraph
Edge
p56
(dp57
g7
I1
sg8
I00
sg9
I5
sg10
(lp58
g52
a(igraph
Vertex
p59
(dp60
g14
F-66.0
sg15
F7.894736842105317
sg16
I464498
sg8
I00
sg17
S'3369.22271685'
p61
sg19
g20
sbasg24
I00
sg25
I00
sg26
I464401
sg17
S'3369.26567483'
p62
sba(igraph
Edge
p63
(dp64
g7
I1
sg8
I00
sg9
I5
sg10
(lp65
g59
a(igraph
Vertex
p66
(dp67
g14
F-66.0
sg15
F23.684210526315866
sg16
I464499
sg8
I00
sg17
S'3369.22280597'
p68
sg19
g20
sbasg24
I00
sg25
I00
sg26
I464402
sg17
S'3369.26584831'
p69
sba(igraph
Edge
p70
(dp71
g7
I1
sg8
I00
sg9
I5
sg10
(lp72
g66
a(igraph
Vertex
p73
(dp74
g14
F-66.0
sg15
F39.473684210526358
sg16
I464500
sg8
I00
sg17
S'3369.22290319'
p75
sg19
g20
sbasg24
I00
sg25
I00
sg26
I464403
sg17
S'3369.26603269'
p76
sba(igraph
Edge
p77
(dp78
g7
I1
sg8
I00
sg9
I5
sg10
(lp79
g73
a(igraph
Vertex
p80
(dp81
g14
F-66.0
sg15
F55.263157894736878
sg16
I464501
sg8
I00
sg17
S'3369.22300879'
p82
sg19
g20
sbasg24
I00
sg25
I00
sg26
I464404
sg17
S'3369.26623412'
p83
sba(igraph
Edge
p84
(dp85
g7
I1
sg8
I00
sg9
I5
sg10
(lp86
g80
a(igraph
Vertex
p87
(dp88
g14
F-66.0
sg15
F71.05263157894737
sg16
I464502
sg8
I00
sg17
S'3369.22312249'
p89
sg19
g20
sbasg24
I00
sg25
I00
sg26
I464405
sg17
S'3369.26644923'
p90
sba(igraph
Edge
p91
(dp92
g7
I1
sg8
I00
sg9
I5
sg10
(lp93
g87
a(igraph
Vertex
p94
(dp95
g14
F-66.0
sg15
F86.84210526315789
sg16
I464503
sg8
I00
sg17
S'3369.2232429'
p96
sg19
g20
sbasg24
I00
sg25
I00
sg26
I464406
sg17
S'3369.26667691'
p97
sba(igraph
Edge
p98
(dp99
g7
I1
sg8
I00
sg9
I5
sg10
(lp100
g94
a(igraph
Vertex
p101
(dp102
g14
F-66.0
sg15
F102.63157894736841
sg16
I464504
sg8
I00
sg17
S'3369.22337336'
p103
sg19
g20
sbasg24
I00
sg25
I00
sg26
I464407
sg17
S'3369.2669194'
p104
sba(igraph
Edge
p105
(dp106
g7
I1
sg8
I00
sg9
I5
sg10
(lp107
g101
a(igraph
Vertex
p108
(dp109
g14
F-66.0
sg15
F118.4210526315789
sg16
I464505
sg8
I00
sg17
S'3369.22351416'
p110
sg19
g20
sbasg24
I00
sg25
I00
sg26
I464408
sg17
S'3369.26717865'
p111
sba(igraph
Edge
p112
(dp113
g7
I1
sg8
I00
sg9
I5
sg10
(lp114
g108
a(igraph
Vertex
p115
(dp116
g14
F-66.0
sg15
F134.21052631578942
sg16
I464506
sg8
I00
sg17
S'3369.22367508'
p117
sg19
I0
sbasg24
I00
sg25
I00
sg26
I464409
sg17
S'3369.26745159'
p118
sba(igraph
Edge
p119
(dp120
g7
I1
sg8
I00
sg9
I5
sg10
(lp121
g115
a(igraph
Vertex
p122
(dp123
g14
F-66.0
sg15
F149.99999999999994
sg16
I464508
sg8
I00
sg17
S'3369.22383487'
p124
sg19
g20
sbasg24
I00
sg25
I00
sg26
I464410
sg17
S'3369.2677385'
p125
sba(igraph
Edge
p126
(dp127
g7
I1
sg8
I00
sg9
I5
sg10
(lp128
(igraph
Vertex
p129
(dp130
g14
F-33.0
sg15
F-86.842105263157833
sg16
I464509
sg8
I00
sg17
S'3369.22477158'
p131
sg19
I0
sba(igraph
Vertex
p132
(dp133
g14
F-33.0
sg15
F-71.052631578947313
sg16
I464511
sg8
I00
sg17
S'3369.22497468'
p134
sg19
g20
sbasg24
I00
sg25
I00
sg26
I464411
sg17
S'3369.26975523'
p135
sba(igraph
Edge
p136
(dp137
g7
I1
sg8
I00
sg9
I5
sg10
(lp138
g132
a(igraph
Vertex
p139
(dp140
g14
F-33.0
sg15
F-55.263157894736793
sg16
I464512
sg8
I00
sg17
S'3369.22518477'
p141
sg19
I0
sbasg24
I00
sg25
I00
sg26
I464412
sg17
S'3369.27014411'
p142
sba(igraph
Edge
p143
(dp144
g7
I1
sg8
I00
sg9
I5
sg10
(lp145
g139
a(igraph
Vertex
p146
(dp147
g14
F-33.0
sg15
F-39.473684210526258
sg16
I464514
sg8
I00
sg17
S'3369.22540463'
p148
sg19
g20
sbasg24
I00
sg25
I00
sg26
I464413
sg17
S'3369.270545'
p149
sba(igraph
Edge
p150
(dp151
g7
I1
sg8
I00
sg9
I5
sg10
(lp152
g146
a(igraph
Vertex
p153
(dp154
g14
F-33.0
sg15
F-23.684210526315738
sg16
I464515
sg8
I00
sg17
S'3369.22563398'
p155
sg19
g20
sbasg24
I00
sg25
I00
sg26
I464414
sg17
S'3369.27095846'
p156
sba(igraph
Edge
p157
(dp158
g7
I1
sg8
I00
sg9
I5
sg10
(lp159
g153
a(igraph
Vertex
p160
(dp161
g14
F-33.0
sg15
F-7.8947368421052033
sg16
I464516
sg8
I00
sg17
S'3369.22587089'
p162
sg19
I0
sbasg24
I00
sg25
I00
sg26
I464415
sg17
S'3369.27139986'
p163
sba(igraph
Edge
p164
(dp165
g7
I1
sg8
I00
sg9
I5
sg10
(lp166
g160
a(igraph
Vertex
p167
(dp168
g14
F-33.0
sg15
F7.894736842105317
sg16
I464518
sg8
I00
sg17
S'3369.22611505'
p169
sg19
g20
sbasg24
I00
sg25
I00
sg26
I464416
sg17
S'3369.27184572'
p170
sba(igraph
Edge
p171
(dp172
g7
I1
sg8
I00
sg9
I5
sg10
(lp173
g167
a(igraph
Vertex
p174
(dp175
g14
F-33.0
sg15
F23.684210526315866
sg16
I464519
sg8
I00
sg17
S'3369.22636816'
p176
sg19
I0
sbasg24
I00
sg25
I00
sg26
I464417
sg17
S'3369.27230304'
p177
sba(igraph
Edge
p178
(dp179
g7
I1
sg8
I00
sg9
I5
sg10
(lp180
g174
a(igraph
Vertex
p181
(dp182
g14
F-33.0
sg15
F39.473684210526358
sg16
I464521
sg8
I00
sg17
S'3369.22664221'
p183
sg19
g20
sbasg24
I00
sg25
I00
sg26
I464418
sg17
S'3369.27277182'
p184
sba(igraph
Edge
p185
(dp186
g7
I1
sg8
I00
sg9
I5
sg10
(lp187
g181
a(igraph
Vertex
p188
(dp189
g14
F-33.0
sg15
F55.263157894736878
sg16
I464522
sg8
I00
sg17
S'3369.22691404'
p190
sg19
I0
sbasg24
I00
sg25
I00
sg26
I464419
sg17
S'3369.27326015'
p191
sba(igraph
Edge
p192
(dp193
g7
I1
sg8
I00
sg9
I5
sg10
(lp194
g188
a(igraph
Vertex
p195
(dp196
g14
F-33.0
sg15
F71.05263157894737
sg16
I464524
sg8
I00
sg17
S'3369.22719256'
p197
sg19
g20
sbasg24
I00
sg25
I00
sg26
I464420
sg17
S'3369.27375854'
p198
sba(igraph
Edge
p199
(dp200
g7
I1
sg8
I00
sg9
I5
sg10
(lp201
g195
a(igraph
Vertex
p202
(dp203
g14
F-33.0
sg15
F86.84210526315789
sg16
I464525
sg8
I00
sg17
S'3369.22748226'
p204
sg19
I0
sbasg24
I00
sg25
I00
sg26
I464421
sg17
S'3369.27427257'
p205
sba(igraph
Edge
p206
(dp207
g7
I1
sg8
I00
sg9
I5
sg10
(lp208
g202
a(igraph
Vertex
p209
(dp210
g14
F-33.0
sg15
F102.63157894736841
sg16
I464527
sg8
I00
sg17
S'3369.22777755'
p211
sg19
g20
sbasg24
I00
sg25
I00
sg26
I464422
sg17
S'3369.27480252'
p212
sba(igraph
Edge
p213
(dp214
g7
I1
sg8
I00
sg9
I5
sg10
(lp215
g209
a(igraph
Vertex
p216
(dp217
g14
F-33.0
sg15
F118.4210526315789
sg16
I464528
sg8
I00
sg17
S'3369.22808122'
p218
sg19
I0
sbasg24
I00
sg25
I00
sg26
I464423
sg17
S'3369.2753498'
p219
sba(igraph
Edge
p220
(dp221
g7
I1
sg8
I00
sg9
I5
sg10
(lp222
g216
a(igraph
Vertex
p223
(dp224
g14
F-33.0
sg15
F134.21052631578942
sg16
I464530
sg8
I00
sg17
S'3369.22839132'
p225
sg19
g20
sbasg24
I00
sg25
I00
sg26
I464424
sg17
S'3369.27590741'
p226
sba(igraph
Edge
p227
(dp228
g7
I1
sg8
I00
sg9
I5
sg10
(lp229
g223
a(igraph
Vertex
p230
(dp231
g14
F-33.0
sg15
F149.99999999999994
sg16
I464531
sg8
I00
sg17
S'3369.22871259'
p232
sg19
g20
sbasg24
I00
sg25
I00
sg26
I464425
sg17
S'3369.27648067'
p233
sba(igraph
Edge
p234
(dp235
g7
I1
sg8
I00
sg9
I5
sg10
(lp236
(igraph
Vertex
p237
(dp238
g14
F0.0
sg15
F-86.842105263157833
sg16
I464532
sg8
I00
sg17
S'3369.23046085'
p239
sg19
g20
sba(igraph
Vertex
p240
(dp241
g14
F0.0
sg15
F-71.052631578947313
sg16
I464533
sg8
I00
sg17
S'3369.23083073'
p242
sg19
g20
sbasg24
I00
sg25
I00
sg26
I464426
sg17
S'3369.28022612'
p243
sba(igraph
Edge
p244
(dp245
g7
I1
sg8
I00
sg9
I5
sg10
(lp246
g240
a(igraph
Vertex
p247
(dp248
g14
F0.0
sg15
F-55.263157894736793
sg16
I464534
sg8
I00
sg17
S'3369.23120927'
p249
sg19
g20
sbasg24
I00
sg25
I00
sg26
I464427
sg17
S'3369.28089967'
p250
sba(igraph
Edge
p251
(dp252
g7
I1
sg8
I00
sg9
I5
sg10
(lp253
g247
a(igraph
Vertex
p254
(dp255
g14
F0.0
sg15
F-39.473684210526258
sg16
I464535
sg8
I00
sg17
S'3369.23160094'
p256
sg19
g20
sbasg24
I00
sg25
I00
sg26
I464428
sg17
S'3369.28158467'
p257
sba(igraph
Edge
p258
(dp259
g7
I1
sg8
I00
sg9
I5
sg10
(lp260
g254
a(igraph
Vertex
p261
(dp262
g14
F0.0
sg15
F-23.684210526315738
sg16
I464536
sg8
I00
sg17
S'3369.23201245'
p263
sg19
g20
sbasg24
I00
sg25
I00
sg26
I464429
sg17
S'3369.28228141'
p264
sba(igraph
Edge
p265
(dp266
g7
I1
sg8
I00
sg9
I5
sg10
(lp267
g261
a(igraph
Vertex
p268
(dp269
g14
F0.0
sg15
F-7.8947368421052033
sg16
I464537
sg8
I00
sg17
S'3369.23244574'
p270
sg19
g20
sbasg24
I00
sg25
I00
sg26
I464430
sg17
S'3369.28299099'
p271
sba(igraph
Edge
p272
(dp273
g7
I1
sg8
I00
sg9
I5
sg10
(lp274
g268
a(igraph
Vertex
p275
(dp276
g14
F0.0
sg15
F7.894736842105317
sg16
I464538
sg8
I00
sg17
S'3369.23286004'
p277
sg19
g20
sbasg24
I00
sg25
I00
sg26
I464431
sg17
S'3369.28374137'
p278
sba(igraph
Edge
p279
(dp280
g7
I1
sg8
I00
sg9
I5
sg10
(lp281
g275
a(igraph
Vertex
p282
(dp283
g14
F0.0
sg15
F23.684210526315866
sg16
I464539
sg8
I00
sg17
S'3369.23327993'
p284
sg19
g20
sbasg24
I00
sg25
I00
sg26
I464432
sg17
S'3369.28448308'
p285
sba(igraph
Edge
p286
(dp287
g7
I1
sg8
I00
sg9
I5
sg10
(lp288
g282
a(igraph
Vertex
p289
(dp290
g14
F0.0
sg15
F39.473684210526358
sg16
I464540
sg8
I00
sg17
S'3369.23370792'
p291
sg19
g20
sbasg24
I00
sg25
I00
sg26
I464433
sg17
S'3369.28528319'
p292
sba(igraph
Edge
p293
(dp294
g7
I1
sg8
I00
sg9
I5
sg10
(lp295
g289
a(igraph
Vertex
p296
(dp297
g14
F0.0
sg15
F55.263157894736878
sg16
I464541
sg8
I00
sg17
S'3369.23414484'
p298
sg19
g20
sbasg24
I00
sg25
I00
sg26
I464434
sg17
S'3369.2861048'
p299
sba(igraph
Edge
p300
(dp301
g7
I1
sg8
I00
sg9
I5
sg10
(lp302
g296
a(igraph
Vertex
p303
(dp304
g14
F0.0
sg15
F71.05263157894737
sg16
I464542
sg8
I00
sg17
S'3369.23459127'
p305
sg19
g20
sbasg24
I00
sg25
I00
sg26
I464435
sg17
S'3369.28692082'
p306
sba(igraph
Edge
p307
(dp308
g7
I1
sg8
I00
sg9
I5
sg10
(lp309
g303
a(igraph
Vertex
p310
(dp311
g14
F0.0
sg15
F86.84210526315789
sg16
I464543
sg8
I00
sg17
S'3369.23504552'
p312
sg19
g20
sbasg24
I00
sg25
I00
sg26
I464436
sg17
S'3369.2877511'
p313
sba(igraph
Edge
p314
(dp315
g7
I1
sg8
I00
sg9
I5
sg10
(lp316
g310
a(igraph
Vertex
p317
(dp318
g14
F0.0
sg15
F102.63157894736841
sg16
I464544
sg8
I00
sg17
S'3369.23552239'
p319
sg19
g20
sbasg24
I00
sg25
I00
sg26
I464437
sg17
S'3369.28860875'
p320
sba(igraph
Edge
p321
(dp322
g7
I1
sg8
I00
sg9
I5
sg10
(lp323
g317
a(igraph
Vertex
p324
(dp325
g14
F0.0
sg15
F118.4210526315789
sg16
I464545
sg8
I00
sg17
S'3369.23599564'
p326
sg19
g20
sbasg24
I00
sg25
I00
sg26
I464438
sg17
S'3369.28946947'
p327
sba(igraph
Edge
p328
(dp329
g7
I1
sg8
I00
sg9
I5
sg10
(lp330
g324
a(igraph
Vertex
p331
(dp332
g14
F0.0
sg15
F134.21052631578942
sg16
I464546
sg8
I00
sg17
S'3369.2364795'
p333
sg19
I0
sbasg24
I00
sg25
I00
sg26
I464439
sg17
S'3369.29036595'
p334
sba(igraph
Edge
p335
(dp336
g7
I1
sg8
I00
sg9
I5
sg10
(lp337
g331
a(igraph
Vertex
p338
(dp339
g14
F0.0
sg15
F149.99999999999994
sg16
I464548
sg8
I00
sg17
S'3369.23696531'
p340
sg19
g20
sbasg24
I00
sg25
I00
sg26
I464440
sg17
S'3369.29123394'
p341
sba(igraph
Edge
p342
(dp343
g7
I1
sg8
I00
sg9
I5
sg10
(lp344
(igraph
Vertex
p345
(dp346
g14
F33.0
sg15
F-86.842105263157833
sg16
I464549
sg8
I00
sg17
S'3369.23956257'
p347
sg19
I0
sba(igraph
Vertex
p348
(dp349
g14
F33.0
sg15
F-71.052631578947313
sg16
I464551
sg8
I00
sg17
S'3369.24010482'
p350
sg19
g20
sbasg24
I00
sg25
I00
sg26
I464441
sg17
S'3369.29679694'
p351
sba(igraph
Edge
p352
(dp353
g7
I1
sg8
I00
sg9
I5
sg10
(lp354
g348
a(igraph
Vertex
p355
(dp356
g14
F33.0
sg15
F-55.263157894736793
sg16
I464552
sg8
I00
sg17
S'3369.24065908'
p357
sg19
I0
sbasg24
I00
sg25
I00
sg26
I464442
sg17
S'3369.29776019'
p358
sba(igraph
Edge
p359
(dp360
g7
I1
sg8
I00
sg9
I5
sg10
(lp361
g355
a(igraph
Vertex
p362
(dp363
g14
F33.0
sg15
F-39.473684210526258
sg16
I464554
sg8
I00
sg17
S'3369.24122284'
p364
sg19
g20
sbasg24
I00
sg25
I00
sg26
I464443
sg17
S'3369.29874076'
p365
sba(igraph
Edge
p366
(dp367
g7
I1
sg8
I00
sg9
I5
sg10
(lp368
g362
a(igraph
Vertex
p369
(dp370
g14
F33.0
sg15
F-23.684210526315738
sg16
I464555
sg8
I00
sg17
S'3369.24179107'
p371
sg19
I0
sbasg24
I00
sg25
I00
sg26
I464444
sg17
S'3369.29973279'
p372
sba(igraph
Edge
p373
(dp374
g7
I1
sg8
I00
sg9
I5
sg10
(lp375
g369
a(igraph
Vertex
p376
(dp377
g14
F33.0
sg15
F-7.8947368421052033
sg16
I464557
sg8
I00
sg17
S'3369.24237103'
p378
sg19
g20
sbasg24
I00
sg25
I00
sg26
I464445
sg17
S'3369.30074046'
p379
sba(igraph
Edge
p380
(dp381
g7
I1
sg8
I00
sg9
I5
sg10
(lp382
g376
a(igraph
Vertex
p383
(dp384
g14
F33.0
sg15
F7.894736842105317
sg16
I464558
sg8
I00
sg17
S'3369.24295574'
p385
sg19
I0
sbasg24
I00
sg25
I00
sg26
I464446
sg17
S'3369.30178109'
p386
sba(igraph
Edge
p387
(dp388
g7
I1
sg8
I00
sg9
I5
sg10
(lp389
g383
a(igraph
Vertex
p390
(dp391
g14
F33.0
sg15
F23.684210526315866
sg16
I464560
sg8
I00
sg17
S'3369.24355218'
p392
sg19
g20
sbasg24
I00
sg25
I00
sg26
I464447
sg17
S'3369.30282284'
p393
sba(igraph
Edge
p394
(dp395
g7
I1
sg8
I00
sg9
I5
sg10
(lp396
g390
a(igraph
Vertex
p397
(dp398
g14
F33.0
sg15
F39.473684210526358
sg16
I464561
sg8
I00
sg17
S'3369.24416623'
p399
sg19
I0
sbasg24
I00
sg25
I00
sg26
I464448
sg17
S'3369.3038794'
p400
sba(igraph
Edge
p401
(dp402
g7
I1
sg8
I00
sg9
I5
sg10
(lp403
g397
a(igraph
Vertex
p404
(dp405
g14
F33.0
sg15
F55.263157894736878
sg16
I464563
sg8
I00
sg17
S'3369.24477915'
p406
sg19
g20
sbasg24
I00
sg25
I00
sg26
I464449
sg17
S'3369.30506726'
p407
sba(igraph
Edge
p408
(dp409
g7
I1
sg8
I00
sg9
I5
sg10
(lp410
g404
a(igraph
Vertex
p411
(dp412
g14
F33.0
sg15
F71.05263157894737
sg16
I464564
sg8
I00
sg17
S'3369.24540577'
p413
sg19
I0
sbasg24
I00
sg25
I00
sg26
I464450
sg17
S'3369.30617746'
p414
sba(igraph
Edge
p415
(dp416
g7
I1
sg8
I00
sg9
I5
sg10
(lp417
g411
a(igraph
Vertex
p418
(dp419
g14
F33.0
sg15
F86.84210526315789
sg16
I464566
sg8
I00
sg17
S'3369.24603518'
p420
sg19
g20
sbasg24
I00
sg25
I00
sg26
I464451
sg17
S'3369.30729827'
p421
sba(igraph
Edge
p422
(dp423
g7
I1
sg8
I00
sg9
I5
sg10
(lp424
g418
a(igraph
Vertex
p425
(dp426
g14
F33.0
sg15
F102.63157894736841
sg16
I464567
sg8
I00
sg17
S'3369.24667157'
p427
sg19
I0
sbasg24
I00
sg25
I00
sg26
I464452
sg17
S'3369.3084554'
p428
sba(igraph
Edge
p429
(dp430
g7
I1
sg8
I00
sg9
I5
sg10
(lp431
g425
a(igraph
Vertex
p432
(dp433
g14
F33.0
sg15
F118.4210526315789
sg16
I464569
sg8
I00
sg17
S'3369.24731775'
p434
sg19
g20
sbasg24
I00
sg25
I00
sg26
I464453
sg17
S'3369.30959298'
p435
sba(igraph
Edge
p436
(dp437
g7
I1
sg8
I00
sg9
I5
sg10
(lp438
g432
a(igraph
Vertex
p439
(dp440
g14
F33.0
sg15
F134.21052631578942
sg16
I464570
sg8
I00
sg17
S'3369.24797621'
p441
sg19
g20
sbasg24
I00
sg25
I00
sg26
I464454
sg17
S'3369.31073614'
p442
sba(igraph
Edge
p443
(dp444
g7
I1
sg8
I00
sg9
I5
sg10
(lp445
g439
a(igraph
Vertex
p446
(dp447
g14
F33.0
sg15
F149.99999999999994
sg16
I464571
sg8
I00
sg17
S'3369.24864138'
p448
sg19
g20
sbasg24
I00
sg25
I00
sg26
I464455
sg17
S'3369.31187651'
p449
sba(igraph
Edge
p450
(dp451
g7
I1
sg8
I00
sg9
I5
sg10
(lp452
g12
ag132
asg24
I00
sg25
I00
sg26
I464456
sg17
S'3369.34390795'
p453
sba(igraph
Edge
p454
(dp455
g7
I1
sg8
I00
sg9
I5
sg10
(lp456
g31
ag146
asg24
I00
sg25
I00
sg26
I464457
sg17
S'3369.34541429'
p457
sba(igraph
Edge
p458
(dp459
g7
I1
sg8
I00
sg9
I5
sg10
(lp460
g45
ag160
asg24
I00
sg25
I00
sg26
I464458
sg17
S'3369.34692985'
p461
sba(igraph
Edge
p462
(dp463
g7
I1
sg8
I00
sg9
I5
sg10
(lp464
g59
ag174
asg24
I00
sg25
I00
sg26
I464459
sg17
S'3369.34846189'
p465
sba(igraph
Edge
p466
(dp467
g7
I1
sg8
I00
sg9
I5
sg10
(lp468
g73
ag188
asg24
I00
sg25
I00
sg26
I464460
sg17
S'3369.35000175'
p469
sba(igraph
Edge
p470
(dp471
g7
I1
sg8
I00
sg9
I5
sg10
(lp472
g87
ag202
asg24
I00
sg25
I00
sg26
I464461
sg17
S'3369.35157206'
p473
sba(igraph
Edge
p474
(dp475
g7
I1
sg8
I00
sg9
I5
sg10
(lp476
g101
ag216
asg24
I00
sg25
I00
sg26
I464462
sg17
S'3369.35316192'
p477
sba(igraph
Edge
p478
(dp479
g7
I1
sg8
I00
sg9
I5
sg10
(lp480
g115
ag230
asg24
I00
sg25
I00
sg26
I464463
sg17
S'3369.3548884'
p481
sba(igraph
Edge
p482
(dp483
g7
I1
sg8
I00
sg9
I5
sg10
(lp484
g129
ag240
asg24
I00
sg25
I00
sg26
I464464
sg17
S'3369.35992228'
p485
sba(igraph
Edge
p486
(dp487
g7
I1
sg8
I00
sg9
I5
sg10
(lp488
g139
ag254
asg24
I00
sg25
I00
sg26
I464465
sg17
S'3369.36162333'
p489
sba(igraph
Edge
p490
(dp491
g7
I1
sg8
I00
sg9
I5
sg10
(lp492
g153
ag268
asg24
I00
sg25
I00
sg26
I464466
sg17
S'3369.3640066'
p493
sba(igraph
Edge
p494
(dp495
g7
I1
sg8
I00
sg9
I5
sg10
(lp496
g167
ag282
asg24
I00
sg25
I00
sg26
I464467
sg17
S'3369.36567916'
p497
sba(igraph
Edge
p498
(dp499
g7
I1
sg8
I00
sg9
I5
sg10
(lp500
g181
ag296
asg24
I00
sg25
I00
sg26
I464468
sg17
S'3369.36736708'
p501
sba(igraph
Edge
p502
(dp503
g7
I1
sg8
I00
sg9
I5
sg10
(lp504
g195
ag310
asg24
I00
sg25
I00
sg26
I464469
sg17
S'3369.36906339'
p505
sba(igraph
Edge
p506
(dp507
g7
I1
sg8
I00
sg9
I5
sg10
(lp508
g209
ag324
asg24
I00
sg25
I00
sg26
I464470
sg17
S'3369.3707907'
p509
sba(igraph
Edge
p510
(dp511
g7
I1
sg8
I00
sg9
I5
sg10
(lp512
g223
ag338
asg24
I00
sg25
I00
sg26
I464471
sg17
S'3369.37251746'
p513
sba(igraph
Edge
p514
(dp515
g7
I1
sg8
I00
sg9
I5
sg10
(lp516
g237
ag348
asg24
I00
sg25
I00
sg26
I464472
sg17
S'3369.37778768'
p517
sba(igraph
Edge
p518
(dp519
g7
I1
sg8
I00
sg9
I5
sg10
(lp520
g247
ag362
asg24
I00
sg25
I00
sg26
I464473
sg17
S'3369.3795636'
p521
sba(igraph
Edge
p522
(dp523
g7
I1
sg8
I00
sg9
I5
sg10
(lp524
g261
ag376
asg24
I00
sg25
I00
sg26
I464474
sg17
S'3369.3814739'
p525
sba(igraph
Edge
p526
(dp527
g7
I1
sg8
I00
sg9
I5
sg10
(lp528
g275
ag390
asg24
I00
sg25
I00
sg26
I464475
sg17
S'3369.38343505'
p529
sba(igraph
Edge
p530
(dp531
g7
I1
sg8
I00
sg9
I5
sg10
(lp532
g289
ag404
asg24
I00
sg25
I00
sg26
I464476
sg17
S'3369.38531461'
p533
sba(igraph
Edge
p534
(dp535
g7
I1
sg8
I00
sg9
I5
sg10
(lp536
g303
ag418
asg24
I00
sg25
I00
sg26
I464477
sg17
S'3369.38718887'
p537
sba(igraph
Edge
p538
(dp539
g7
I1
sg8
I00
sg9
I5
sg10
(lp540
g317
ag432
asg24
I00
sg25
I00
sg26
I464478
sg17
S'3369.38905559'
p541
sba(igraph
Edge
p542
(dp543
g7
I1
sg8
I00
sg9
I5
sg10
(lp544
g331
ag446
asg24
I00
sg25
I00
sg26
I464479
sg17
S'3369.39094103'
p545
sba(igraph
Edge
p546
(dp547
g7
I1
sg8
I00
sg9
I5
sg10
(lp548
g345
a(igraph
Vertex
p549
(dp550
g14
F66.0
sg15
F-71.052631578947313
sg16
I464572
sg8
I00
sg17
S'3369.25282599'
p551
sg19
g20
sbasg24
I00
sg25
I00
sg26
I464480
sg17
S'3369.39749968'
p552
sba(igraph
Edge
p553
(dp554
g7
I1
sg8
I00
sg9
I5
sg10
(lp555
g355
a(igraph
Vertex
p556
(dp557
g14
F66.0
sg15
F-39.473684210526258
sg16
I464573
sg8
I00
sg17
S'3369.25431277'
p558
sg19
g20
sbasg24
I00
sg25
I00
sg26
I464481
sg17
S'3369.39975276'
p559
sba(igraph
Edge
p560
(dp561
g7
I1
sg8
I00
sg9
I5
sg10
(lp562
g369
a(igraph
Vertex
p563
(dp564
g14
F66.0
sg15
F-7.8947368421052033
sg16
I464574
sg8
I00
sg17
S'3369.25581492'
p565
sg19
g20
sbasg24
I00
sg25
I00
sg26
I464482
sg17
S'3369.4018561'
p566
sba(igraph
Edge
p567
(dp568
g7
I1
sg8
I00
sg9
I5
sg10
(lp569
g383
a(igraph
Vertex
p570
(dp571
g14
F66.0
sg15
F23.684210526315866
sg16
I464575
sg8
I00
sg17
S'3369.25735338'
p572
sg19
g20
sbasg24
I00
sg25
I00
sg26
I464483
sg17
S'3369.40388764'
p573
sba(igraph
Edge
p574
(dp575
g7
I1
sg8
I00
sg9
I5
sg10
(lp576
g397
a(igraph
Vertex
p577
(dp578
g14
F66.0
sg15
F55.263157894736878
sg16
I464576
sg8
I00
sg17
S'3369.25893039'
p579
sg19
g20
sbasg24
I00
sg25
I00
sg26
I464484
sg17
S'3369.40604825'
p580
sba(igraph
Edge
p581
(dp582
g7
I1
sg8
I00
sg9
I5
sg10
(lp583
g411
a(igraph
Vertex
p584
(dp585
g14
F66.0
sg15
F86.84210526315789
sg16
I464577
sg8
I00
sg17
S'3369.26053898'
p586
sg19
g20
sbasg24
I00
sg25
I00
sg26
I464485
sg17
S'3369.40811612'
p587
sba(igraph
Edge
p588
(dp589
g7
I1
sg8
I00
sg9
I5
sg10
(lp590
g425
a(igraph
Vertex
p591
(dp592
g14
F66.0
sg15
F118.4210526315789
sg16
I464578
sg8
I00
sg17
S'3369.26218919'
p593
sg19
g20
sbasg24
I00
sg25
I00
sg26
I464486
sg17
S'3369.41013509'
p594
sba(igraph
Edge
p595
(dp596
g7
I1
sg8
I00
sg9
I5
sg10
(lp597
g439
a(igraph
Vertex
p598
(dp599
g14
F66.0
sg15
F149.99999999999994
sg16
I464579
sg8
I00
sg17
S'3369.26388494'
p600
sg19
g20
sbasg24
I00
sg25
I00
sg26
I464487
sg17
S'3369.41215462'
p601
sba(igraph
Edge
p602
(dp603
g7
I1
sg8
I00
sg9
I5
sg10
(lp604
g345
ag446
asg24
I00
sg25
I00
sg26
I464488
sg17
S'3777.62127729'
p605
sba(igraph
Edge
p606
(dp607
g7
I1
sg8
I00
sg9
I5
sg10
(lp608
g237
ag338
asg24
I00
sg25
I00
sg26
I464489
sg17
S'3781.39885823'
p609
sba(igraph
Edge
p610
(dp611
g7
I1
sg8
I00
sg9
I5
sg10
(lp612
g129
ag230
asg24
I00
sg25
I00
sg26
I464490
sg17
S'3785.48057924'
p613
sba(igraph
Edge
p614
(dp615
g7
I1
sg8
I00
sg9
I5
sg10
(lp616
g12
ag122
asg24
I00
sg25
I00
sg26
I464491
sg17
S'3790.16727266'
p617
sbasS'vertices'
p618
(lp619
g12
ag21
ag31
ag38
ag45
ag52
ag59
ag66
ag73
ag80
ag87
ag94
ag101
ag108
ag115
ag122
ag129
ag132
ag139
ag146
ag153
ag160
ag167
ag174
ag181
ag188
ag195
ag202
ag209
ag216
ag223
ag230
ag237
ag240
ag247
ag254
ag261
ag268
ag275
ag282
ag289
ag296
ag303
ag310
ag317
ag324
ag331
ag338
ag345
ag348
ag355
ag362
ag369
ag376
ag383
ag390
ag397
ag404
ag411
ag418
ag425
ag432
ag439
ag446
ag549
ag556
ag563
ag570
ag577
ag584
ag591
ag598
asS'tags'
p620
(lp621
sb.